# near model CODE resource
# jump table entries: 1008-1017 (10 of them)
export_126:
00000000  203C 0000 0100           move.l     D0, 0x100
00000006  A31E                     syscall    NewPtrClear, flags=3
00000008  2B48 FDF4                move.l     [A5 - 0x20C], A0
0000000C  4E75                     rts
export_127:
0000000E  48E7 1F3A                movem.l    -[A7], D3,D4,D5,D6,D7,A2,A3,A4,A6
00000012  31FC FFFF 0144           move.w     [0x00000144 /* SysEvtMask */], 0xFFFF
label00000018:
00000018  302D FE76                move.w     D0, [A5 - 0x18A]
0000001C  6B56                     bmi        +0x58 /* 00000074 */
0000001E  3B7C FFFF FE76           move.w     [A5 - 0x18A], 0xFFFF
00000024  3B40 FE78                move.w     [A5 - 0x188], D0
00000028  302D FE78                move.w     D0, [A5 - 0x188]
0000002C  E540                     asl        D0.w, 2
0000002E  4EBB 000C                jsr        [PC + D0.w + 0xC]
00000032  0C6D 0001 FD12           cmpi.w     [A5 - 0x2EE], 0x1
00000038  66DE                     bne        -0x20 /* 00000018 */
0000003A  60DC                     bra        -0x22 /* 00000018 */
0000003C  4EFA 0090                jmp        [PC + 0x90 /* 000000CE */]
00000040  4EFA 02DC                jmp        [PC + 0x2DC /* 0000031E */]
00000044  4EFA 04F2                jmp        [PC + 0x4F2 /* 00000538 */]
00000048  4EFA 07C8                jmp        [PC + 0x7C8 /* 00000812 */]
0000004C  4EFA 0A34                jmp        [PC + 0xA34 /* 00000A82 */]
00000050  4EFA 0B58                jmp        [PC + 0xB58 /* 00000BAA */]
00000054  4EFA 0D64                jmp        [PC + 0xD64 /* 00000DBA */]
00000058  4EFA 0E94                jmp        [PC + 0xE94 /* 00000EEE */]
0000005C  4EFA 0FD4                jmp        [PC + 0xFD4 /* 00001032 */]
00000060  4EFA 1254                jmp        [PC + 0x1254 /* 000012B6 */]
00000064  4EFA 1530                jmp        [PC + 0x1530 /* 00001596 */]
00000068  4EFA 16F0                jmp        [PC + 0x16F0 /* 0000175A */]
0000006C  4EFA 19E2                jmp        [PC + 0x19E2 /* 00001A50 */]
00000070  4EFA 1B4A                jmp        [PC + 0x1B4A /* 00001BBC */]
label00000074:
00000074  31FC FFFE 0144           move.w     [0x00000144 /* SysEvtMask */], 0xFFFE
0000007A  4CDF 5CF8                movem.l    D3,D4,D5,D6,D7,A2,A3,A4,A6, [A7]+
0000007E  4E75                     rts
fn00000080:
00000080  3F2D FE78                move.w     -[A7], [A5 - 0x188]
00000084  4EAD 0062                jsr        [A5 + 0x62 /* export_8, CODE:1 @ 0000017A */]
00000088  42AD FE7E                clr.l      [A5 - 0x182]
0000008C  426D FCC6                clr.w      [A5 - 0x33A]
00000090  42AD FE64                clr.l      [A5 - 0x19C]
00000094  42AD FE60                clr.l      [A5 - 0x1A0]
00000098  303C 001E                move.w     D0, 0x1E
0000009C  4EAD 03AA                jsr        [A5 + 0x3AA /* export_113, CODE:4 @ 00005944 */]
000000A0  426D FDA2                clr.w      [A5 - 0x25E]
000000A4  42AD FF96                clr.l      [A5 - 0x6A]
000000A8  4EAD 03BA                jsr        [A5 + 0x3BA /* export_115, CODE:4 @ 00005A74 */]
000000AC  4EAD 036A                jsr        [A5 + 0x36A /* export_105, CODE:4 @ 00005346 */]
000000B0  4EAD 0342                jsr        [A5 + 0x342 /* export_100, CODE:4 @ 0000508C */]
000000B4  3B7C 0004 FD7A           move.w     [A5 - 0x286], 0x4
000000BA  3B7C 01E0 FD78           move.w     [A5 - 0x288], 0x1E0
000000C0  3B7C FFFF FCBC           move.w     [A5 - 0x344], 0xFFFF
000000C6  3B7C FFFF FCB4           move.w     [A5 - 0x34C], 0xFFFF
000000CC  4E75                     rts
label000000CE:
000000CE  3F3C 03E8                move.w     -[A7], 0x3E8
000000D2  4EAD 01B2                jsr        [A5 + 0x1B2 /* export_50, CODE:1 @ 00001A2A */]
000000D6  4EBA FFA8                jsr        [PC - 0x58 /* 00000080 */]
000000DA  45FA 1EFA                lea.l      A2, [PC + 0x1EFA /* 00001FD6, value 0x0, cstring "" */]
000000DE  4A6D FE74                tst.w      [A5 - 0x18C]
000000E2  660C                     bne        +0xE /* 000000F0 */
000000E4  41FA 1F0E                lea.l      A0, [PC + 0x1F0E /* 00001FF4, value 0x36010E, cstring "" */]
000000E8  43FA 2030                lea.l      A1, [PC + 0x2030 /* 0000211A, value 0xB001C, cstring "" */]
000000EC  7028                     moveq.l    D0, 0x28
000000EE  600A                     bra        +0xC /* 000000FA */
label000000F0:
000000F0  41FA 1EFE                lea.l      A0, [PC + 0x1EFE /* 00001FF0, value 0x1700A2, cstring "" */]
000000F4  43FA 1FB8                lea.l      A1, [PC + 0x1FB8 /* 000020AE, value 0x1DE01E0 */]
000000F8  7029                     moveq.l    D0, 0x29
label000000FA:
000000FA  4EAD 03D2                jsr        [A5 + 0x3D2 /* export_118, CODE:4 @ 00005C2A */]
000000FE  91CA                     sub.l      A0, A2
00000100  3008                     move.w     D0, A0
00000102  93CA                     sub.l      A1, A2
00000104  3209                     move.w     D1, A1
00000106  4EAD 01E2                jsr        [A5 + 0x1E2 /* export_56, CODE:2 @ 00003234 */]
0000010A  302D FE72                move.w     D0, [A5 - 0x18E]
0000010E  6E0A                     bgt        +0xC /* 0000011A */
00000110  347C 0064                movea.w    A2, 0x64 /* 'd' */
00000114  3A3C 0001                move.w     D5, 0x1
00000118  6016                     bra        +0x18 /* 00000130 */
label0000011A:
0000011A  5340                     subq.w     D0, 1
0000011C  6E0A                     bgt        +0xC /* 00000128 */
0000011E  347C 003C                movea.w    A2, 0x3C /* '<' */
00000122  3A3C 0001                move.w     D5, 0x1
00000126  6008                     bra        +0xA /* 00000130 */
label00000128:
00000128  347C 0046                movea.w    A2, 0x46 /* 'F' */
0000012C  3A3C 0002                move.w     D5, 0x2
label00000130:
00000130  4240                     clr.w      D0
00000132  323C 0106                move.w     D1, 0x106
00000136  343C 0006                move.w     D2, 0x6
0000013A  363C 00C8                move.w     D3, 0xC8
0000013E  383C 0002                move.w     D4, 0x2
00000142  3C3C 61A8                move.w     D6, 0x61A8
00000146  3E3C 0F64                move.w     D7, 0xF64
0000014A  4EAD 0262                jsr        [A5 + 0x262 /* export_72, CODE:4 @ 00000EC0 */]
0000014E  0C6D 0001 FE72           cmpi.w     [A5 - 0x18E], 0x1
00000154  6626                     bne        +0x28 /* 0000017C */
00000156  4240                     clr.w      D0
00000158  323C 00B6                move.w     D1, 0xB6
0000015C  343C 0006                move.w     D2, 0x6
00000160  363C 0118                move.w     D3, 0x118
00000164  383C 0002                move.w     D4, 0x2
00000168  3A3C 0001                move.w     D5, 0x1
0000016C  3C3C 61A8                move.w     D6, 0x61A8
00000170  3E3C 0F46                move.w     D7, 0xF46
00000174  347C 003C                movea.w    A2, 0x3C /* '<' */
00000178  4EAD 0262                jsr        [A5 + 0x262 /* export_72, CODE:4 @ 00000EC0 */]
label0000017C:
0000017C  0C6D 0001 FE72           cmpi.w     [A5 - 0x18E], 0x1
00000182  6F26                     ble        +0x28 /* 000001AA */
00000184  4240                     clr.w      D0
00000186  323C 0070                move.w     D1, 0x70 /* 'p' */
0000018A  343C 0006                move.w     D2, 0x6
0000018E  363C 00F0                move.w     D3, 0xF0
00000192  383C 0002                move.w     D4, 0x2
00000196  3A3C 0001                move.w     D5, 0x1
0000019A  3C3C 3A98                move.w     D6, 0x3A98
0000019E  3E3C 0F3C                move.w     D7, 0xF3C
000001A2  347C 003C                movea.w    A2, 0x3C /* '<' */
000001A6  4EAD 0262                jsr        [A5 + 0x262 /* export_72, CODE:4 @ 00000EC0 */]
label000001AA:
000001AA  0C6D 0001 FE72           cmpi.w     [A5 - 0x18E], 0x1
000001B0  6D68                     blt        +0x6A /* 0000021A */
000001B2  303C 01DB                move.w     D0, 0x1DB
000001B6  323C 0052                move.w     D1, 0x52 /* 'R' */
000001BA  343C 0005                move.w     D2, 0x5
000001BE  363C 001F                move.w     D3, 0x1F
000001C2  383C 00FA                move.w     D4, 0xFA
000001C6  3A3C 0005                move.w     D5, 0x5
000001CA  3C3C 012A                move.w     D6, 0x12A
000001CE  4EAD 0272                jsr        [A5 + 0x272 /* export_74, CODE:4 @ 00001008 */]
000001D2  0C6D 0002 FE72           cmpi.w     [A5 - 0x18E], 0x2
000001D8  6D40                     blt        +0x42 /* 0000021A */
000001DA  303C 014A                move.w     D0, 0x14A
000001DE  323C FFFF                move.w     D1, 0xFFFF
000001E2  343C 0014                move.w     D2, 0x14
000001E6  363C 000F                move.w     D3, 0xF
000001EA  383C 00C8                move.w     D4, 0xC8
000001EE  3A3C 0005                move.w     D5, 0x5
000001F2  3C3C 012A                move.w     D6, 0x12A
000001F6  4EAD 0272                jsr        [A5 + 0x272 /* export_74, CODE:4 @ 00001008 */]
000001FA  303C 001B                move.w     D0, 0x1B
000001FE  323C FFFF                move.w     D1, 0xFFFF
00000202  343C 0004                move.w     D2, 0x4
00000206  363C 001F                move.w     D3, 0x1F
0000020A  383C 000A                move.w     D4, 0xA /* '\n' */
0000020E  3A3C 0005                move.w     D5, 0x5
00000212  3C3C 012A                move.w     D6, 0x12A
00000216  4EAD 0272                jsr        [A5 + 0x272 /* export_74, CODE:4 @ 00001008 */]
label0000021A:
0000021A  303C 00F7                move.w     D0, 0xF7
0000021E  323C FFFF                move.w     D1, 0xFFFF
00000222  343C 0004                move.w     D2, 0x4
00000226  363C 001F                move.w     D3, 0x1F
0000022A  383C 0064                move.w     D4, 0x64 /* 'd' */
0000022E  3A3C 0005                move.w     D5, 0x5
00000232  3C3C 012A                move.w     D6, 0x12A
00000236  4EAD 0272                jsr        [A5 + 0x272 /* export_74, CODE:4 @ 00001008 */]
0000023A  303C 0070                move.w     D0, 0x70 /* 'p' */
0000023E  323C FFFF                move.w     D1, 0xFFFF
00000242  343C 0004                move.w     D2, 0x4
00000246  363C 001F                move.w     D3, 0x1F
0000024A  383C 004B                move.w     D4, 0x4B /* 'K' */
0000024E  3A3C 0005                move.w     D5, 0x5
00000252  3C3C 012A                move.w     D6, 0x12A
00000256  4EAD 0272                jsr        [A5 + 0x272 /* export_74, CODE:4 @ 00001008 */]
0000025A  0C6D 0001 FE72           cmpi.w     [A5 - 0x18E], 0x1
00000260  6D2C                     blt        +0x2E /* 0000028E */
00000262  4240                     clr.w      D0
00000264  323C 00D4                move.w     D1, 0xD4
00000268  343C 0003                move.w     D2, 0x3
0000026C  363C 0136                move.w     D3, 0x136
00000270  383C 001F                move.w     D4, 0x1F
00000274  3A3C 0046                move.w     D5, 0x46 /* 'F' */
00000278  0C6D 0002 FE72           cmpi.w     [A5 - 0x18E], 0x2
0000027E  6C06                     bge        +0x8 /* 00000286 */
00000280  3C3C 0001                move.w     D6, 0x1
00000284  6004                     bra        +0x6 /* 0000028A */
label00000286:
00000286  3C3C 0002                move.w     D6, 0x2
label0000028A:
0000028A  4EAD 027A                jsr        [A5 + 0x27A /* export_75, CODE:4 @ 0000135C */]
label0000028E:
0000028E  303C 0064                move.w     D0, 0x64 /* 'd' */
00000292  323C 008E                move.w     D1, 0x8E
00000296  343C 0003                move.w     D2, 0x3
0000029A  363C 0104                move.w     D3, 0x104
0000029E  383C 007F                move.w     D4, 0x7F
000002A2  3A3C 0032                move.w     D5, 0x32 /* '2' */
000002A6  3C3C 0002                move.w     D6, 0x2
000002AA  4EAD 027A                jsr        [A5 + 0x27A /* export_75, CODE:4 @ 0000135C */]
000002AE  41FA 0046                lea.l      A0, [PC + 0x46 /* 000002F6, value 0x1F4FFFB */]
000002B2  4EAD 0282                jsr        [A5 + 0x282 /* export_76, CODE:4 @ 000013AE */]
000002B6  41FA 1D1E                lea.l      A0, [PC + 0x1D1E /* 00001FD6, value 0x0, cstring "" */]
000002BA  43FA 2188                lea.l      A1, [PC + 0x2188 /* 00002444, value 0x401D4, cstring "" */]
000002BE  93C8                     sub.l      A1, A0
000002C0  3209                     move.w     D1, A1
000002C2  303C 0006                move.w     D0, 0x6
000002C6  4EAD 0362                jsr        [A5 + 0x362 /* export_104, CODE:4 @ 0000529C */]
000002CA  4A6D FE74                tst.w      [A5 - 0x18C]
000002CE  6618                     bne        +0x1A /* 000002E8 */
000002D0  4A6D FD80                tst.w      [A5 - 0x280]
000002D4  6612                     bne        +0x14 /* 000002E8 */
000002D6  3B7C FFFF FD80           move.w     [A5 - 0x280], 0xFFFF
000002DC  303C 0008                move.w     D0, 0x8
000002E0  323C 000C                move.w     D1, 0xC
000002E4  4EBA 1C84                jsr        [PC + 0x1C84 /* 00001F6A */]
label000002E8:
000002E8  43FA 1E30                lea.l      A1, [PC + 0x1E30 /* 0000211A, value 0xB001C, cstring "" */]
000002EC  4269 000C                clr.w      [A1 + 0xC]
000002F0  4EAD 032A                jsr        [A5 + 0x32A /* export_97, CODE:4 @ 00004E92 */]
000002F4  4E75                     rts
000002F6  01F4                     .incomplete
000002F8  FFFB                     .invalid   <<F/7/7>>
000002FA  0118                     btst       [A0]+, D0
000002FC  01E0                     .incomplete
000002FE  FFFE                     .invalid   <<F/7/7>>
00000300  0000 0000                ori.b      D0, 0x0
00000304  0000 0000                ori.b      D0, 0x0
00000308  001A 000F                ori.b      [A2]+, 0xF
0000030C  0006 0000                ori.b      D6, 0x0
00000310  0001 0100                ori.b      D1, 0x0
00000314  0129 0196                btst       [A1 + 0x196], D0
00000318  01B0 01CB 0000 3F3C      bclr       [[ + <<invalid base displacement size>>] + 0x3F3C], D0
// begin alternate branch 0000031E-00000322
label0000031E:
0000031E  3F3C 03F2                move.w     -[A7], 0x3F2
// end alternate branch 0000031E-00000322
label0000031E: // (misaligned)
00000320  03F2                     .incomplete
00000322  4EAD 01B2                jsr        [A5 + 0x1B2 /* export_50, CODE:1 @ 00001A2A */]
00000326  4EBA FD58                jsr        [PC - 0x2A8 /* 00000080 */]
0000032A  41FA 24CC                lea.l      A0, [PC + 0x24CC /* 000027F8, value 0x50000, cstring "" */]
0000032E  4EAD 0332                jsr        [A5 + 0x332 /* export_98, CODE:4 @ 00004F14 */]
00000332  2B48 FDDA                move.l     [A5 - 0x226], A0
00000336  41FA 2580                lea.l      A0, [PC + 0x2580 /* 000028B8, value 0x30001, cstring "" */]
0000033A  4EAD 0332                jsr        [A5 + 0x332 /* export_98, CODE:4 @ 00004F14 */]
0000033E  2B48 FDD6                move.l     [A5 - 0x22A], A0
00000342  45FA 210C                lea.l      A2, [PC + 0x210C /* 00002450, value 0x0, cstring "" */]
00000346  4A6D FE74                tst.w      [A5 - 0x18C]
0000034A  660C                     bne        +0xE /* 00000358 */
0000034C  41FA 2124                lea.l      A0, [PC + 0x2124 /* 00002472, value 0x5C00FC, cstring "" */]
00000350  43FA 2230                lea.l      A1, [PC + 0x2230 /* 00002582, value 0xB0066, cstring "" */]
00000354  702A                     moveq.l    D0, 0x2A
00000356  600A                     bra        +0xC /* 00000362 */
label00000358:
00000358  41FA 2128                lea.l      A0, [PC + 0x2128 /* 00002482, value 0x10D02E2 */]
0000035C  43FA 240A                lea.l      A1, [PC + 0x240A /* 00002768, value 0x70017, cstring "" */]
00000360  702B                     moveq.l    D0, 0x2B
label00000362:
00000362  4EAD 03D2                jsr        [A5 + 0x3D2 /* export_118, CODE:4 @ 00005C2A */]
00000366  91CA                     sub.l      A0, A2
00000368  3008                     move.w     D0, A0
0000036A  93CA                     sub.l      A1, A2
0000036C  3209                     move.w     D1, A1
0000036E  4EAD 01E2                jsr        [A5 + 0x1E2 /* export_56, CODE:2 @ 00003234 */]
00000372  3F3C 0022                move.w     -[A7], 0x22 /* '\"' */
00000376  3F3C 001E                move.w     -[A7], 0x1E
0000037A  4EAD 0192                jsr        [A5 + 0x192 /* export_46, CODE:1 @ 00001814 */]
0000037E  303C 01E6                move.w     D0, 0x1E6
00000382  323C 00A5                move.w     D1, 0xA5
00000386  343C 0111                move.w     D2, 0x111
0000038A  363C 01DA                move.w     D3, 0x1DA
0000038E  383C FFFE                move.w     D4, 0xFFFE
00000392  3A3C 0001                move.w     D5, 0x1
00000396  3C3C 61A8                move.w     D6, 0x61A8
0000039A  3E3C 0F50                move.w     D7, 0xF50
0000039E  4A6D FE72                tst.w      [A5 - 0x18E]
000003A2  6606                     bne        +0x8 /* 000003AA */
000003A4  347C 0046                movea.w    A2, 0x46 /* 'F' */
000003A8  6004                     bra        +0x6 /* 000003AE */
label000003AA:
000003AA  347C 0032                movea.w    A2, 0x32 /* '2' */
label000003AE:
000003AE  4EAD 0262                jsr        [A5 + 0x262 /* export_72, CODE:4 @ 00000EC0 */]
000003B2  303C 01E6                move.w     D0, 0x1E6
000003B6  323C 00F2                move.w     D1, 0xF2
000003BA  343C 00A0                move.w     D2, 0xA0
000003BE  363C 01DA                move.w     D3, 0x1DA
000003C2  383C FFFE                move.w     D4, 0xFFFE
000003C6  3C3C 55F0                move.w     D6, 0x55F0
000003CA  3E3C 0F46                move.w     D7, 0xF46
000003CE  347C 0046                movea.w    A2, 0x46 /* 'F' */
000003D2  0C6D 0001 FE72           cmpi.w     [A5 - 0x18E], 0x1
000003D8  6E0A                     bgt        +0xC /* 000003E4 */
000003DA  347C 003C                movea.w    A2, 0x3C /* '<' */
000003DE  3A3C 0001                move.w     D5, 0x1
000003E2  6008                     bra        +0xA /* 000003EC */
label000003E4:
000003E4  347C 0032                movea.w    A2, 0x32 /* '2' */
000003E8  3A3C 0002                move.w     D5, 0x2
label000003EC:
000003EC  4EAD 0262                jsr        [A5 + 0x262 /* export_72, CODE:4 @ 00000EC0 */]
000003F0  4A6D FE72                tst.w      [A5 - 0x18E]
000003F4  6F38                     ble        +0x3A /* 0000042E */
000003F6  303C 01E6                move.w     D0, 0x1E6
000003FA  323C 0058                move.w     D1, 0x58 /* 'X' */
000003FE  343C 0198                move.w     D2, 0x198
00000402  363C 01DA                move.w     D3, 0x1DA
00000406  383C FFFE                move.w     D4, 0xFFFE
0000040A  3A3C 0001                move.w     D5, 0x1
0000040E  4246                     clr.w      D6
00000410  0C6D 0001 FE72           cmpi.w     [A5 - 0x18E], 0x1
00000416  6E0A                     bgt        +0xC /* 00000422 */
00000418  3E3C 1F5A                move.w     D7, 0x1F5A
0000041C  347C 005A                movea.w    A2, 0x5A /* 'Z' */
00000420  6008                     bra        +0xA /* 0000042A */
label00000422:
00000422  3E3C 1F50                move.w     D7, 0x1F50
00000426  347C 0050                movea.w    A2, 0x50 /* 'P' */
label0000042A:
0000042A  4EAD 0262                jsr        [A5 + 0x262 /* export_72, CODE:4 @ 00000EC0 */]
label0000042E:
0000042E  4A6D FE72                tst.w      [A5 - 0x18E]
00000432  6F48                     ble        +0x4A /* 0000047C */
00000434  303C 01E4                move.w     D0, 0x1E4
00000438  323C 0110                move.w     D1, 0x110
0000043C  343C 00AA                move.w     D2, 0xAA
00000440  363C 01E0                move.w     D3, 0x1E0
00000444  383C 001F                move.w     D4, 0x1F
00000448  3A3C 0028                move.w     D5, 0x28 /* '(' */
0000044C  3C3C 0003                move.w     D6, 0x3
00000450  4EAD 027A                jsr        [A5 + 0x27A /* export_75, CODE:4 @ 0000135C */]
00000454  0C6D 0001 FE72           cmpi.w     [A5 - 0x18E], 0x1
0000045A  6F20                     ble        +0x22 /* 0000047C */
0000045C  303C 01E4                move.w     D0, 0x1E4
00000460  323C 00C3                move.w     D1, 0xC3
00000464  343C 00FF                move.w     D2, 0xFF
00000468  363C 01E0                move.w     D3, 0x1E0
0000046C  383C 003F                move.w     D4, 0x3F /* '?' */
00000470  3A3C 0064                move.w     D5, 0x64 /* 'd' */
00000474  3C3C 0001                move.w     D6, 0x1
00000478  4EAD 027A                jsr        [A5 + 0x27A /* export_75, CODE:4 @ 0000135C */]
label0000047C:
0000047C  303C 005A                move.w     D0, 0x5A /* 'Z' */
00000480  323C FFFF                move.w     D1, 0xFFFF
00000484  343C 0005                move.w     D2, 0x5
00000488  363C 001F                move.w     D3, 0x1F
0000048C  383C 0096                move.w     D4, 0x96
00000490  3A3C 0005                move.w     D5, 0x5
00000494  3C3C 012A                move.w     D6, 0x12A
00000498  4EAD 0272                jsr        [A5 + 0x272 /* export_74, CODE:4 @ 00001008 */]
0000049C  303C 00FA                move.w     D0, 0xFA
000004A0  323C FFFF                move.w     D1, 0xFFFF
000004A4  343C 0002                move.w     D2, 0x2
000004A8  363C 000F                move.w     D3, 0xF
000004AC  383C 0050                move.w     D4, 0x50 /* 'P' */
000004B0  3A3C 0005                move.w     D5, 0x5
000004B4  3C3C 012A                move.w     D6, 0x12A
000004B8  4EAD 0272                jsr        [A5 + 0x272 /* export_74, CODE:4 @ 00001008 */]
000004BC  4A6D FE72                tst.w      [A5 - 0x18E]
000004C0  6F48                     ble        +0x4A /* 0000050A */
000004C2  303C 019E                move.w     D0, 0x19E
000004C6  323C 008B                move.w     D1, 0x8B
000004CA  343C 0005                move.w     D2, 0x5
000004CE  363C 000F                move.w     D3, 0xF
000004D2  383C 0096                move.w     D4, 0x96
000004D6  3A3C 0005                move.w     D5, 0x5
000004DA  3C3C 012A                move.w     D6, 0x12A
000004DE  4EAD 0272                jsr        [A5 + 0x272 /* export_74, CODE:4 @ 00001008 */]
000004E2  0C6D 0001 FE72           cmpi.w     [A5 - 0x18E], 0x1
000004E8  6F20                     ble        +0x22 /* 0000050A */
000004EA  303C 01BA                move.w     D0, 0x1BA
000004EE  323C FFFF                move.w     D1, 0xFFFF
000004F2  343C 0004                move.w     D2, 0x4
000004F6  363C 001F                move.w     D3, 0x1F
000004FA  383C 0082                move.w     D4, 0x82
000004FE  3A3C 0005                move.w     D5, 0x5
00000502  3C3C 012A                move.w     D6, 0x12A
00000506  4EAD 0272                jsr        [A5 + 0x272 /* export_74, CODE:4 @ 00001008 */]
label0000050A:
0000050A  41FA 1F44                lea.l      A0, [PC + 0x1F44 /* 00002450, value 0x0, cstring "" */]
0000050E  43FA 22D6                lea.l      A1, [PC + 0x22D6 /* 000027E6, value 0x30156, cstring "" */]
00000512  93C8                     sub.l      A1, A0
00000514  3209                     move.w     D1, A1
00000516  303C 0006                move.w     D0, 0x6
0000051A  4EAD 0362                jsr        [A5 + 0x362 /* export_104, CODE:4 @ 0000529C */]
0000051E  41FA 1F30                lea.l      A0, [PC + 0x1F30 /* 00002450, value 0x0, cstring "" */]
00000522  43FA 22CA                lea.l      A1, [PC + 0x22CA /* 000027EE, value 0x102AC, cstring "" */]
00000526  93C8                     sub.l      A1, A0
00000528  3209                     move.w     D1, A1
0000052A  303C 0005                move.w     D0, 0x5
0000052E  4EAD 0372                jsr        [A5 + 0x372 /* export_106, CODE:4 @ 000053A4 */]
00000532  4EAD 032A                jsr        [A5 + 0x32A /* export_97, CODE:4 @ 00004E92 */]
00000536  4E75                     rts
label00000538:
00000538  3F3C 03FC                move.w     -[A7], 0x3FC
0000053C  4EAD 01B2                jsr        [A5 + 0x1B2 /* export_50, CODE:1 @ 00001A2A */]
00000540  4EBA FB3E                jsr        [PC - 0x4C2 /* 00000080 */]
00000544  45FA 242E                lea.l      A2, [PC + 0x242E /* 00002974, value 0x0, cstring "" */]
00000548  4A6D FE74                tst.w      [A5 - 0x18C]
0000054C  660C                     bne        +0xE /* 0000055A */
0000054E  41FA 2442                lea.l      A0, [PC + 0x2442 /* 00002992, value 0xC40384, cstring "" */]
00000552  43FA 27B6                lea.l      A1, [PC + 0x27B6 /* 00002D0A, value 0x14, cstring "" */]
00000556  702C                     moveq.l    D0, 0x2C
00000558  600A                     bra        +0xC /* 00000564 */
label0000055A:
0000055A  41FA 2426                lea.l      A0, [PC + 0x2426 /* 00002982, value 0x2B005A '+\0Z', cstring "" */]
0000055E  43FA 24FE                lea.l      A1, [PC + 0x24FE /* 00002A5E, value 0x1CA01D4 */]
00000562  702D                     moveq.l    D0, 0x2D
label00000564:
00000564  4EAD 03D2                jsr        [A5 + 0x3D2 /* export_118, CODE:4 @ 00005C2A */]
00000568  91CA                     sub.l      A0, A2
0000056A  3008                     move.w     D0, A0
0000056C  93CA                     sub.l      A1, A2
0000056E  3209                     move.w     D1, A1
00000570  4EAD 01E2                jsr        [A5 + 0x1E2 /* export_56, CODE:2 @ 00003234 */]
00000574  303C 00B3                move.w     D0, 0xB3
00000578  323C 00F9                move.w     D1, 0xF9
0000057C  4242                     clr.w      D2
0000057E  226D FE44                movea.l    A1, [A5 - 0x1BC]
00000582  4EAD 033A                jsr        [A5 + 0x33A /* export_99, CODE:4 @ 00005048 */]
00000586  2B48 FD9E                move.l     [A5 - 0x262], A0
0000058A  303C 01C4                move.w     D0, 0x1C4
0000058E  323C 0103                move.w     D1, 0x103
00000592  343C 0001                move.w     D2, 0x1
00000596  226D FE44                movea.l    A1, [A5 - 0x1BC]
0000059A  4EAD 033A                jsr        [A5 + 0x33A /* export_99, CODE:4 @ 00005048 */]
0000059E  2B48 FD9A                move.l     [A5 - 0x266], A0
000005A2  303C 01E4                move.w     D0, 0x1E4
000005A6  323C 0103                move.w     D1, 0x103
000005AA  343C 0001                move.w     D2, 0x1
000005AE  226D FE44                movea.l    A1, [A5 - 0x1BC]
000005B2  4EAD 033A                jsr        [A5 + 0x33A /* export_99, CODE:4 @ 00005048 */]
000005B6  2B48 FD96                move.l     [A5 - 0x26A], A0
000005BA  4EAD 03EA                jsr        [A5 + 0x3EA /* export_121, CODE:4 @ 00005C68 */]
000005BE  4A40                     tst.w      D0
000005C0  6E14                     bgt        +0x16 /* 000005D6 */
000005C2  41FA 28D2                lea.l      A0, [PC + 0x28D2 /* 00002E96, value 0x1AC01C2 */]
000005C6  4268 0006                clr.w      [A0 + 0x6]
000005CA  41FA 28EE                lea.l      A0, [PC + 0x28EE /* 00002EBA, value 0x1CC01E0 */]
000005CE  317C 0001 0006           move.w     [A0 + 0x6], 0x1
000005D4  6012                     bra        +0x14 /* 000005E8 */
label000005D6:
000005D6  41FA 28BE                lea.l      A0, [PC + 0x28BE /* 00002E96, value 0x1AC01C2 */]
000005DA  317C 0001 0006           move.w     [A0 + 0x6], 0x1
000005E0  41FA 28D8                lea.l      A0, [PC + 0x28D8 /* 00002EBA, value 0x1CC01E0 */]
000005E4  4268 0006                clr.w      [A0 + 0x6]
label000005E8:
000005E8  4240                     clr.w      D0
000005EA  323C 0029                move.w     D1, 0x29 /* ')' */
000005EE  343C 0006                move.w     D2, 0x6
000005F2  363C 00A6                move.w     D3, 0xA6
000005F6  383C 0001                move.w     D4, 0x1
000005FA  3A3C 0001                move.w     D5, 0x1
000005FE  4A6D FE72                tst.w      [A5 - 0x18E]
00000602  660E                     bne        +0x10 /* 00000612 */
00000604  3C3C 2710                move.w     D6, 0x2710
00000608  3E3C 0F50                move.w     D7, 0xF50
0000060C  347C 0050                movea.w    A2, 0x50 /* 'P' */
00000610  600C                     bra        +0xE /* 0000061E */
label00000612:
00000612  3C3C 1F40                move.w     D6, 0x1F40
00000616  3E3C 0F41                move.w     D7, 0xF41
0000061A  347C 0041                movea.w    A2, 0x41 /* 'A' */
label0000061E:
0000061E  4EAD 0262                jsr        [A5 + 0x262 /* export_72, CODE:4 @ 00000EC0 */]
00000622  303C 01E3                move.w     D0, 0x1E3
00000626  323C 0065                move.w     D1, 0x65 /* 'e' */
0000062A  343C 0084                move.w     D2, 0x84
0000062E  363C 01DB                move.w     D3, 0x1DB
00000632  383C FFFF                move.w     D4, 0xFFFF
00000636  3A3C 0001                move.w     D5, 0x1
0000063A  4A6D FE72                tst.w      [A5 - 0x18E]
0000063E  660E                     bne        +0x10 /* 0000064E */
00000640  3C3C 2710                move.w     D6, 0x2710
00000644  3E3C 0F46                move.w     D7, 0xF46
00000648  347C 0046                movea.w    A2, 0x46 /* 'F' */
0000064C  6022                     bra        +0x24 /* 00000670 */
label0000064E:
0000064E  0C6D 0001 FE72           cmpi.w     [A5 - 0x18E], 0x1
00000654  660E                     bne        +0x10 /* 00000664 */
00000656  3C3C 2328                move.w     D6, 0x2328 /* '#(' */
0000065A  3E3C 0F3C                move.w     D7, 0xF3C
0000065E  347C 003C                movea.w    A2, 0x3C /* '<' */
00000662  600C                     bra        +0xE /* 00000670 */
label00000664:
00000664  3C3C 1F40                move.w     D6, 0x1F40
00000668  3E3C 0F28                move.w     D7, 0xF28
0000066C  347C 0028                movea.w    A2, 0x28 /* '(' */
label00000670:
00000670  4EAD 0262                jsr        [A5 + 0x262 /* export_72, CODE:4 @ 00000EC0 */]
00000674  303C 01E3                move.w     D0, 0x1E3
00000678  323C 00A3                move.w     D1, 0xA3
0000067C  343C 012C                move.w     D2, 0x12C
00000680  363C 01DB                move.w     D3, 0x1DB
00000684  383C FFFF                move.w     D4, 0xFFFF
00000688  3A3C 0001                move.w     D5, 0x1
0000068C  3C3C 2710                move.w     D6, 0x2710
00000690  3E3C 0F46                move.w     D7, 0xF46
00000694  347C 0046                movea.w    A2, 0x46 /* 'F' */
00000698  0C6D 0001 FE72           cmpi.w     [A5 - 0x18E], 0x1
0000069E  6E0E                     bgt        +0x10 /* 000006AE */
000006A0  3C3C 2328                move.w     D6, 0x2328 /* '#(' */
000006A4  3E3C 0F46                move.w     D7, 0xF46
000006A8  347C 0046                movea.w    A2, 0x46 /* 'F' */
000006AC  600C                     bra        +0xE /* 000006BA */
label000006AE:
000006AE  3C3C 1F40                move.w     D6, 0x1F40
000006B2  3E3C 0F32                move.w     D7, 0xF32
000006B6  347C 0032                movea.w    A2, 0x32 /* '2' */
label000006BA:
000006BA  4EAD 0262                jsr        [A5 + 0x262 /* export_72, CODE:4 @ 00000EC0 */]
000006BE  303C 0028                move.w     D0, 0x28 /* '(' */
000006C2  323C FFFF                move.w     D1, 0xFFFF
000006C6  343C 0007                move.w     D2, 0x7
000006CA  363C 001F                move.w     D3, 0x1F
000006CE  383C 0046                move.w     D4, 0x46 /* 'F' */
000006D2  3A3C 0005                move.w     D5, 0x5
000006D6  3C3C 012A                move.w     D6, 0x12A
000006DA  4EAD 0272                jsr        [A5 + 0x272 /* export_74, CODE:4 @ 00001008 */]
000006DE  303C 0140                move.w     D0, 0x140
000006E2  323C FFFF                move.w     D1, 0xFFFF
000006E6  343C 0008                move.w     D2, 0x8
000006EA  363C 001F                move.w     D3, 0x1F
000006EE  383C 0028                move.w     D4, 0x28 /* '(' */
000006F2  3A3C 0005                move.w     D5, 0x5
000006F6  3C3C 012A                move.w     D6, 0x12A
000006FA  4EAD 0272                jsr        [A5 + 0x272 /* export_74, CODE:4 @ 00001008 */]
000006FE  303C 010F                move.w     D0, 0x10F
00000702  323C 0098                move.w     D1, 0x98
00000706  343C 0004                move.w     D2, 0x4
0000070A  363C 000F                move.w     D3, 0xF
0000070E  383C 00C8                move.w     D4, 0xC8
00000712  3A3C 0005                move.w     D5, 0x5
00000716  3C3C 012A                move.w     D6, 0x12A
0000071A  4EAD 0272                jsr        [A5 + 0x272 /* export_74, CODE:4 @ 00001008 */]
0000071E  4A6D FE72                tst.w      [A5 - 0x18E]
00000722  6F48                     ble        +0x4A /* 0000076C */
00000724  303C 007A                move.w     D0, 0x7A /* 'z' */
00000728  323C 007A                move.w     D1, 0x7A /* 'z' */
0000072C  343C 0004                move.w     D2, 0x4
00000730  363C 000F                move.w     D3, 0xF
00000734  383C 0096                move.w     D4, 0x96
00000738  3A3C 0005                move.w     D5, 0x5
0000073C  3C3C 012A                move.w     D6, 0x12A
00000740  4EAD 0272                jsr        [A5 + 0x272 /* export_74, CODE:4 @ 00001008 */]
00000744  0C6D 0001 FE72           cmpi.w     [A5 - 0x18E], 0x1
0000074A  6F20                     ble        +0x22 /* 0000076C */
0000074C  303C 0132                move.w     D0, 0x132
00000750  323C 00DB                move.w     D1, 0xDB
00000754  343C 0004                move.w     D2, 0x4
00000758  363C 000F                move.w     D3, 0xF
0000075C  383C 012C                move.w     D4, 0x12C
00000760  3A3C 0005                move.w     D5, 0x5
00000764  3C3C 012A                move.w     D6, 0x12A
00000768  4EAD 0272                jsr        [A5 + 0x272 /* export_74, CODE:4 @ 00001008 */]
label0000076C:
0000076C  303C 0087                move.w     D0, 0x87
00000770  323C 00C1                move.w     D1, 0xC1
00000774  343C 0087                move.w     D2, 0x87
00000778  363C 00C8                move.w     D3, 0xC8
0000077C  383C 003F                move.w     D4, 0x3F /* '?' */
00000780  3A3C 0041                move.w     D5, 0x41 /* 'A' */
00000784  3C3C 0001                move.w     D6, 0x1
00000788  4EAD 027A                jsr        [A5 + 0x27A /* export_75, CODE:4 @ 0000135C */]
0000078C  4A6D FE72                tst.w      [A5 - 0x18E]
00000790  6F20                     ble        +0x22 /* 000007B2 */
00000792  303C 01E4                move.w     D0, 0x1E4
00000796  323C 0083                move.w     D1, 0x83
0000079A  343C 0082                move.w     D2, 0x82
0000079E  363C 01E0                move.w     D3, 0x1E0
000007A2  383C 001F                move.w     D4, 0x1F
000007A6  3A3C 0064                move.w     D5, 0x64 /* 'd' */
000007AA  3C3C 0001                move.w     D6, 0x1
000007AE  4EAD 027A                jsr        [A5 + 0x27A /* export_75, CODE:4 @ 0000135C */]
label000007B2:
000007B2  426D FD8C                clr.w      [A5 - 0x274]
000007B6  303C 0131                move.w     D0, 0x131
000007BA  323C 00F8                move.w     D1, 0xF8
000007BE  343C 001F                move.w     D2, 0x1F
000007C2  4A6D FE72                tst.w      [A5 - 0x18E]
000007C6  6606                     bne        +0x8 /* 000007CE */
000007C8  363C 000C                move.w     D3, 0xC
000007CC  6012                     bra        +0x14 /* 000007E0 */
label000007CE:
000007CE  0C6D 0001 FE72           cmpi.w     [A5 - 0x18E], 0x1
000007D4  6606                     bne        +0x8 /* 000007DC */
000007D6  363C 0008                move.w     D3, 0x8
000007DA  6004                     bra        +0x6 /* 000007E0 */
label000007DC:
000007DC  363C 0005                move.w     D3, 0x5
label000007E0:
000007E0  4EAD 025A                jsr        [A5 + 0x25A /* export_71, CODE:4 @ 00000806 */]
000007E4  41FA 218E                lea.l      A0, [PC + 0x218E /* 00002974, value 0x0, cstring "" */]
000007E8  43FA 2706                lea.l      A1, [PC + 0x2706 /* 00002EF0, value 0x30090, cstring "" */]
000007EC  93C8                     sub.l      A1, A0
000007EE  3209                     move.w     D1, A1
000007F0  303C 0006                move.w     D0, 0x6
000007F4  4EAD 0362                jsr        [A5 + 0x362 /* export_104, CODE:4 @ 0000529C */]
000007F8  41FA 217A                lea.l      A0, [PC + 0x217A /* 00002974, value 0x0, cstring "" */]
000007FC  43FA 26FA                lea.l      A1, [PC + 0x26FA /* 00002EF8, value 0x10156, cstring "" */]
00000800  93C8                     sub.l      A1, A0
00000802  3209                     move.w     D1, A1
00000804  303C 0005                move.w     D0, 0x5
00000808  4EAD 0372                jsr        [A5 + 0x372 /* export_106, CODE:4 @ 000053A4 */]
0000080C  4EAD 032A                jsr        [A5 + 0x32A /* export_97, CODE:4 @ 00004E92 */]
00000810  4E75                     rts
label00000812:
00000812  3F3C 07D0                move.w     -[A7], 0x7D0
00000816  4EAD 01B2                jsr        [A5 + 0x1B2 /* export_50, CODE:1 @ 00001A2A */]
0000081A  4EBA F864                jsr        [PC - 0x79C /* 00000080 */]
0000081E  45FA 26DE                lea.l      A2, [PC + 0x26DE /* 00002EFE, value 0x0, cstring "" */]
00000822  4A6D FE74                tst.w      [A5 - 0x18C]
00000826  660C                     bne        +0xE /* 00000834 */
00000828  41FA 2732                lea.l      A0, [PC + 0x2732 /* 00002F5C, value 0xF301C2, cstring "" */]
0000082C  43FA 28C8                lea.l      A1, [PC + 0x28C8 /* 000030F6, value 0xB00BC, cstring "" */]
00000830  702E                     moveq.l    D0, 0x2E
00000832  600A                     bra        +0xC /* 0000083E */
label00000834:
00000834  41FA 26EE                lea.l      A0, [PC + 0x26EE /* 00002F24, value 0x4000B4, cstring "" */]
00000838  43FA 279C                lea.l      A1, [PC + 0x279C /* 00002FD6, value 0x1D601E0 */]
0000083C  702F                     moveq.l    D0, 0x2F
label0000083E:
0000083E  4EAD 03D2                jsr        [A5 + 0x3D2 /* export_118, CODE:4 @ 00005C2A */]
00000842  91CA                     sub.l      A0, A2
00000844  3008                     move.w     D0, A0
00000846  93CA                     sub.l      A1, A2
00000848  3209                     move.w     D1, A1
0000084A  4EAD 01E2                jsr        [A5 + 0x1E2 /* export_56, CODE:2 @ 00003234 */]
0000084E  4A6D FE72                tst.w      [A5 - 0x18E]
00000852  6606                     bne        +0x8 /* 0000085A */
00000854  41FA 00C4                lea.l      A0, [PC + 0xC4 /* 0000091A, value 0x8010B, cstring "" */]
00000858  6012                     bra        +0x14 /* 0000086C */
label0000085A:
0000085A  0C6D 0001 FE72           cmpi.w     [A5 - 0x18E], 0x1
00000860  6606                     bne        +0x8 /* 00000868 */
00000862  41FA 012E                lea.l      A0, [PC + 0x12E /* 00000992, value 0x8010B, cstring "" */]
00000866  6004                     bra        +0x6 /* 0000086C */
label00000868:
00000868  41FA 01A0                lea.l      A0, [PC + 0x1A0 /* 00000A0A, value 0x8010B, cstring "" */]
label0000086C:
0000086C  4EAD 0312                jsr        [A5 + 0x312 /* export_94, CODE:4 @ 00004E3A */]
00000870  0C6D 0001 FE72           cmpi.w     [A5 - 0x18E], 0x1
00000876  6F22                     ble        +0x24 /* 0000089A */
00000878  303C 012C                move.w     D0, 0x12C
0000087C  323C 0102                move.w     D1, 0x102
00000880  343C 00D2                move.w     D2, 0xD2
00000884  363C 01C2                move.w     D3, 0x1C2
00000888  383C 0002                move.w     D4, 0x2
0000088C  3A3C 0046                move.w     D5, 0x46 /* 'F' */
00000890  3C3C 4E20                move.w     D6, 0x4E20 /* 'N ' */
00000894  4EAD 026A                jsr        [A5 + 0x26A /* export_73, CODE:4 @ 00000E74 */]
00000898  602C                     bra        +0x2E /* 000008C6 */
label0000089A:
0000089A  4A6D FE72                tst.w      [A5 - 0x18E]
0000089E  6726                     beq        +0x28 /* 000008C6 */
000008A0  4240                     clr.w      D0
000008A2  323C 00F1                move.w     D1, 0xF1
000008A6  343C 0006                move.w     D2, 0x6
000008AA  363C 00B4                move.w     D3, 0xB4
000008AE  383C 0002                move.w     D4, 0x2
000008B2  3A3C 0001                move.w     D5, 0x1
000008B6  3C3C 4E20                move.w     D6, 0x4E20 /* 'N ' */
000008BA  3E3C 070F                move.w     D7, 0x70F
000008BE  347C 0046                movea.w    A2, 0x46 /* 'F' */
000008C2  4EAD 0262                jsr        [A5 + 0x262 /* export_72, CODE:4 @ 00000EC0 */]
label000008C6:
000008C6  41FA 0034                lea.l      A0, [PC + 0x34 /* 000008FC, value 0x1EA010D */]
000008CA  4EAD 02A2                jsr        [A5 + 0x2A2 /* export_80, CODE:4 @ 00001E7A */]
000008CE  41FA 262E                lea.l      A0, [PC + 0x262E /* 00002EFE, value 0x0, cstring "" */]
000008D2  43FA 290C                lea.l      A1, [PC + 0x290C /* 000031E0, value 0x30132, cstring "" */]
000008D6  93C8                     sub.l      A1, A0
000008D8  3209                     move.w     D1, A1
000008DA  303C 0007                move.w     D0, 0x7
000008DE  4EAD 0362                jsr        [A5 + 0x362 /* export_104, CODE:4 @ 0000529C */]
000008E2  41FA 261A                lea.l      A0, [PC + 0x261A /* 00002EFE, value 0x0, cstring "" */]
000008E6  43FA 2900                lea.l      A1, [PC + 0x2900 /* 000031E8, value 0x10144, cstring "" */]
000008EA  93C8                     sub.l      A1, A0
000008EC  3209                     move.w     D1, A1
000008EE  303C 0005                move.w     D0, 0x5
000008F2  4EAD 0372                jsr        [A5 + 0x372 /* export_106, CODE:4 @ 000053A4 */]
000008F6  4EAD 032A                jsr        [A5 + 0x32A /* export_97, CODE:4 @ 00004E92 */]
000008FA  4E75                     rts
000008FC  01EA                     .incomplete
000008FE  010D                     btst       A5, D0
00000900  00D8                     .incomplete
00000902  01E0                     .incomplete
00000904  FFFD                     .invalid   <<F/7/7>>
00000906  0001 0000                ori.b      D1, 0x0
0000090A  0005 000A                ori.b      D5, 0xA /* '\n' */
0000090E  007F 00F8                ori.w      <<invalid special address>>, 0xF8
00000912  010D                     btst       A5, D0
00000914  014D                     bchg       A5, D0
00000916  016A 0187                bchg       [A2 + 0x187], D0
0000091A  0008 010B                ori.b      A0, 0xB
0000091E  0114                     btst       [A4], D0
00000920  00BD 00A5 FFC6           ori.l      <<invalid special address>>, 0xA5FFC6
00000926  0001 0004                ori.b      D1, 0x4
0000092A  000F 00C8                ori.b      A7, 0xC8
0000092E  003F 000F                ori.b      <<invalid special address>>, 0xF
00000932  FFC6                     .invalid   <<F/7/7>>
00000934  0000 0005                ori.b      D0, 0x5
00000938  000F 00C8                ori.b      A7, 0xC8
0000093C  003F 011D                ori.b      <<invalid special address>>, 0x1D
00000940  FFC6                     .invalid   <<F/7/7>>
00000942  0001 0005                ori.b      D1, 0x5
00000946  000F 00C8                ori.b      A7, 0xC8
0000094A  003F 0087                ori.b      <<invalid special address>>, 0x87
0000094E  FFC6                     .invalid   <<F/7/7>>
00000950  0000 0004                ori.b      D0, 0x4
00000954  000F 00C8                ori.b      A7, 0xC8
00000958  003F 00A5                ori.b      <<invalid special address>>, 0xA5
0000095C  FFEC                     .invalid   <<F/7/7>>
0000095E  0001 0004                ori.b      D1, 0x4
00000962  000F 00C8                ori.b      A7, 0xC8
00000966  003F 000F                ori.b      <<invalid special address>>, 0xF
0000096A  FFEC                     .invalid   <<F/7/7>>
0000096C  0000 0004                ori.b      D0, 0x4
00000970  0007 00C8                ori.b      D7, 0xC8
00000974  003F 011D                ori.b      <<invalid special address>>, 0x1D
00000978  FFEC                     .invalid   <<F/7/7>>
0000097A  0001 0004                ori.b      D1, 0x4
0000097E  0007 00C8                ori.b      D7, 0xC8
00000982  003F 0087                ori.b      <<invalid special address>>, 0x87
00000986  FFEC                     .invalid   <<F/7/7>>
00000988  0000 0003                ori.b      D0, 0x3
0000098C  000F 00C8                ori.b      A7, 0xC8
00000990  003F 0008                ori.b      <<invalid special address>>, 0x8
00000994  010B                     btst       A3, D0
00000996  0114                     btst       [A4], D0
00000998  00BD 00A5 FFC6           ori.l      <<invalid special address>>, 0xA5FFC6
0000099E  0001 0002                ori.b      D1, 0x2
000009A2  000F 0046                ori.b      A7, 0x46 /* 'F' */
000009A6  001F 000F                ori.b      [A7]+, 0xF
000009AA  FFC6                     .invalid   <<F/7/7>>
000009AC  0000 0002                ori.b      D0, 0x2
000009B0  000F 0046                ori.b      A7, 0x46 /* 'F' */
000009B4  001F 011D                ori.b      [A7]+, 0x1D
000009B8  FFC6                     .invalid   <<F/7/7>>
000009BA  0001 0003                ori.b      D1, 0x3
000009BE  0007 0050                ori.b      D7, 0x50 /* 'P' */
000009C2  001F 0087                ori.b      [A7]+, 0x87
000009C6  FFC6                     .invalid   <<F/7/7>>
000009C8  0000 0003                ori.b      D0, 0x3
000009CC  0007 005A                ori.b      D7, 0x5A /* 'Z' */
000009D0  000F 00A5                ori.b      A7, 0xA5
000009D4  FFEC                     .invalid   <<F/7/7>>
000009D6  0001 0002                ori.b      D1, 0x2
000009DA  000F 0046                ori.b      A7, 0x46 /* 'F' */
000009DE  001F 000F                ori.b      [A7]+, 0xF
000009E2  FFEC                     .invalid   <<F/7/7>>
000009E4  0000 0002                ori.b      D0, 0x2
000009E8  0007 0046                ori.b      D7, 0x46 /* 'F' */
000009EC  001F 011D                ori.b      [A7]+, 0x1D
000009F0  FFEC                     .invalid   <<F/7/7>>
000009F2  0001 0002                ori.b      D1, 0x2
000009F6  0007 0050                ori.b      D7, 0x50 /* 'P' */
000009FA  001F 0087                ori.b      [A7]+, 0x87
000009FE  FFEC                     .invalid   <<F/7/7>>
00000A00  0000 0000                ori.b      D0, 0x0
00000A04  0007 0050                ori.b      D7, 0x50 /* 'P' */
00000A08  001F 0008                ori.b      [A7]+, 0x8
00000A0C  010B                     btst       A3, D0
00000A0E  0114                     btst       [A4], D0
00000A10  00BD 00A5 FFC6           ori.l      <<invalid special address>>, 0xA5FFC6
00000A16  0001 0002                ori.b      D1, 0x2
00000A1A  0007 003C                ori.b      D7, 0x3C /* '<' */
00000A1E  001F 000F                ori.b      [A7]+, 0xF
00000A22  FFC6                     .invalid   <<F/7/7>>
00000A24  0000 0002                ori.b      D0, 0x2
00000A28  0007 003C                ori.b      D7, 0x3C /* '<' */
00000A2C  001F 011D                ori.b      [A7]+, 0x1D
00000A30  FFC6                     .invalid   <<F/7/7>>
00000A32  0001 0002                ori.b      D1, 0x2
00000A36  0007 0046                ori.b      D7, 0x46 /* 'F' */
00000A3A  001F 0087                ori.b      [A7]+, 0x87
00000A3E  FFC6                     .invalid   <<F/7/7>>
00000A40  0000 0001                ori.b      D0, 0x1
00000A44  0007 0046                ori.b      D7, 0x46 /* 'F' */
00000A48  000F 00A5                ori.b      A7, 0xA5
00000A4C  FFEC                     .invalid   <<F/7/7>>
00000A4E  0001 0002                ori.b      D1, 0x2
00000A52  000F 003C                ori.b      A7, 0x3C /* '<' */
00000A56  001F 000F                ori.b      [A7]+, 0xF
00000A5A  FFEC                     .invalid   <<F/7/7>>
00000A5C  0000 0001                ori.b      D0, 0x1
00000A60  0007 003C                ori.b      D7, 0x3C /* '<' */
00000A64  001F 011D                ori.b      [A7]+, 0x1D
00000A68  FFEC                     .invalid   <<F/7/7>>
00000A6A  0001 0001                ori.b      D1, 0x1
00000A6E  0007 0046                ori.b      D7, 0x46 /* 'F' */
00000A72  001F 0087                ori.b      [A7]+, 0x87
00000A76  FFEC                     .invalid   <<F/7/7>>
00000A78  0000 0000                ori.b      D0, 0x0
00000A7C  0007 0046                ori.b      D7, 0x46 /* 'F' */
00000A80  001F 3F3C                ori.b      [A7]+, 0x3C /* '<' */
// begin alternate branch 00000A82-00000A86
label00000A82:
00000A82  3F3C 07DA                move.w     -[A7], 0x7DA
// end alternate branch 00000A82-00000A86
label00000A82: // (misaligned)
00000A84  07DA                     .incomplete
00000A86  4EAD 01B2                jsr        [A5 + 0x1B2 /* export_50, CODE:1 @ 00001A2A */]
00000A8A  4EBA F5F4                jsr        [PC - 0xA0C /* 00000080 */]
00000A8E  45FA 275E                lea.l      A2, [PC + 0x275E /* 000031EE, value 0x0, cstring "" */]
00000A92  4A6D FE74                tst.w      [A5 - 0x18C]
00000A96  660C                     bne        +0xE /* 00000AA4 */
00000A98  41FA 2762                lea.l      A0, [PC + 0x2762 /* 000031FC, value 0x25005A '%\0Z', cstring "" */]
00000A9C  43FA 27E0                lea.l      A1, [PC + 0x27E0 /* 0000327E, value 0xB001E, cstring "" */]
00000AA0  7030                     moveq.l    D0, 0x30
00000AA2  600A                     bra        +0xC /* 00000AAE */
label00000AA4:
00000AA4  41FA 2772                lea.l      A0, [PC + 0x2772 /* 00003218, value 0xE301B0, cstring "" */]
00000AA8  43FA 2918                lea.l      A1, [PC + 0x2918 /* 000033C2, value 0x1CC01D5 */]
00000AAC  7031                     moveq.l    D0, 0x31
label00000AAE:
00000AAE  4EAD 03D2                jsr        [A5 + 0x3D2 /* export_118, CODE:4 @ 00005C2A */]
00000AB2  91CA                     sub.l      A0, A2
00000AB4  3008                     move.w     D0, A0
00000AB6  93CA                     sub.l      A1, A2
00000AB8  3209                     move.w     D1, A1
00000ABA  4EAD 01E2                jsr        [A5 + 0x1E2 /* export_56, CODE:2 @ 00003234 */]
00000ABE  303C 0006                move.w     D0, 0x6
00000AC2  323C 0079                move.w     D1, 0x79 /* 'y' */
00000AC6  343C 0005                move.w     D2, 0x5
00000ACA  363C 001F                move.w     D3, 0x1F
00000ACE  383C 0096                move.w     D4, 0x96
00000AD2  3A3C 0005                move.w     D5, 0x5
00000AD6  3C3C 0113                move.w     D6, 0x113
00000ADA  4EAD 0272                jsr        [A5 + 0x272 /* export_74, CODE:4 @ 00001008 */]
00000ADE  303C 00FA                move.w     D0, 0xFA
00000AE2  323C FFFF                move.w     D1, 0xFFFF
00000AE6  343C 0014                move.w     D2, 0x14
00000AEA  363C 000F                move.w     D3, 0xF
00000AEE  383C 0050                move.w     D4, 0x50 /* 'P' */
00000AF2  3A3C 0005                move.w     D5, 0x5
00000AF6  3C3C 0113                move.w     D6, 0x113
00000AFA  4EAD 0272                jsr        [A5 + 0x272 /* export_74, CODE:4 @ 00001008 */]
00000AFE  4A6D FE72                tst.w      [A5 - 0x18E]
00000B02  6F48                     ble        +0x4A /* 00000B4C */
00000B04  303C 01A4                move.w     D0, 0x1A4
00000B08  323C FFFF                move.w     D1, 0xFFFF
00000B0C  343C 0004                move.w     D2, 0x4
00000B10  363C 001F                move.w     D3, 0x1F
00000B14  383C 000A                move.w     D4, 0xA /* '\n' */
00000B18  3A3C 0005                move.w     D5, 0x5
00000B1C  3C3C 0113                move.w     D6, 0x113
00000B20  4EAD 0272                jsr        [A5 + 0x272 /* export_74, CODE:4 @ 00001008 */]
00000B24  0C6D 0001 FE72           cmpi.w     [A5 - 0x18E], 0x1
00000B2A  6F20                     ble        +0x22 /* 00000B4C */
00000B2C  303C 0020                move.w     D0, 0x20 /* ' ' */
00000B30  323C 005E                move.w     D1, 0x5E /* '^' */
00000B34  343C 0004                move.w     D2, 0x4
00000B38  363C 001F                move.w     D3, 0x1F
00000B3C  383C 0028                move.w     D4, 0x28 /* '(' */
00000B40  3A3C 0005                move.w     D5, 0x5
00000B44  3C3C 0113                move.w     D6, 0x113
00000B48  4EAD 0272                jsr        [A5 + 0x272 /* export_74, CODE:4 @ 00001008 */]
label00000B4C:
00000B4C  302D FE72                move.w     D0, [A5 - 0x18E]
00000B50  0C40 0002                cmpi.w     D0, 0x2
00000B54  6F04                     ble        +0x6 /* 00000B5A */
00000B56  303C 0002                move.w     D0, 0x2
label00000B5A:
00000B5A  4EBA 296C                jsr        [PC + 0x296C /* 000034C8 */]
00000B5E  41FA 2754                lea.l      A0, [PC + 0x2754 /* 000032B4, value 0x9600B8, cstring "" */]
00000B62  4EAD 02E2                jsr        [A5 + 0x2E2 /* export_88, CODE:4 @ 000033C4 */]
00000B66  4A6D FE72                tst.w      [A5 - 0x18E]
00000B6A  6606                     bne        +0x8 /* 00000B72 */
00000B6C  41FA 28C4                lea.l      A0, [PC + 0x28C4 /* 00003432, value 0x50064, cstring "" */]
00000B70  6012                     bra        +0x14 /* 00000B84 */
label00000B72:
00000B72  0C6D 0001 FE72           cmpi.w     [A5 - 0x18E], 0x1
00000B78  6606                     bne        +0x8 /* 00000B80 */
00000B7A  41FA 28E8                lea.l      A0, [PC + 0x28E8 /* 00003464, value 0x50064, cstring "" */]
00000B7E  6004                     bra        +0x6 /* 00000B84 */
label00000B80:
00000B80  41FA 2914                lea.l      A0, [PC + 0x2914 /* 00003496, value 0x50064, cstring "" */]
label00000B84:
00000B84  226D FDEE                movea.l    A1, [A5 - 0x212]
00000B88  45FA 2664                lea.l      A2, [PC + 0x2664 /* 000031EE, value 0x0, cstring "" */]
00000B8C  4EAD 02EA                jsr        [A5 + 0x2EA /* export_89, CODE:4 @ 00003458 */]
00000B90  41FA 265C                lea.l      A0, [PC + 0x265C /* 000031EE, value 0x0, cstring "" */]
00000B94  43FA 2898                lea.l      A1, [PC + 0x2898 /* 0000342E, value 0x100A2, cstring "" */]
00000B98  93C8                     sub.l      A1, A0
00000B9A  3209                     move.w     D1, A1
00000B9C  303C 0006                move.w     D0, 0x6
00000BA0  4EAD 0362                jsr        [A5 + 0x362 /* export_104, CODE:4 @ 0000529C */]
00000BA4  4EAD 032A                jsr        [A5 + 0x32A /* export_97, CODE:4 @ 00004E92 */]
00000BA8  4E75                     rts
label00000BAA:
00000BAA  3F3C 07E4                move.w     -[A7], 0x7E4
00000BAE  4EAD 01B2                jsr        [A5 + 0x1B2 /* export_50, CODE:1 @ 00001A2A */]
00000BB2  226D FE14                movea.l    A1, [A5 - 0x1EC]
00000BB6  206D FFA8                movea.l    A0, [A5 - 0x58]
00000BBA  303C 0150                move.w     D0, 0x150
00000BBE  323C 011D                move.w     D1, 0x11D
00000BC2  4242                     clr.w      D2
00000BC4  4EAD 0212                jsr        [A5 + 0x212 /* export_62, CODE:4 @ 000004A0 */]
00000BC8  4EBA F4B6                jsr        [PC - 0xB4A /* 00000080 */]
00000BCC  45FA 2AA2                lea.l      A2, [PC + 0x2AA2 /* 00003670, value 0x0, cstring "" */]
00000BD0  4A6D FE74                tst.w      [A5 - 0x18C]
00000BD4  660C                     bne        +0xE /* 00000BE2 */
00000BD6  41FA 2AAA                lea.l      A0, [PC + 0x2AAA /* 00003682, value 0x500090, cstring "" */]
00000BDA  43FA 2B6C                lea.l      A1, [PC + 0x2B6C /* 00003748, value 0x1A0060, cstring "" */]
00000BDE  7032                     moveq.l    D0, 0x32
00000BE0  600A                     bra        +0xC /* 00000BEC */
label00000BE2:
00000BE2  41FA 2AB2                lea.l      A0, [PC + 0x2AB2 /* 00003696, value 0xEB0240, cstring "" */]
00000BE6  43FA 2CEC                lea.l      A1, [PC + 0x2CEC /* 000038D4, value 0x1EA01F0 */]
00000BEA  7033                     moveq.l    D0, 0x33
label00000BEC:
00000BEC  4EAD 03D2                jsr        [A5 + 0x3D2 /* export_118, CODE:4 @ 00005C2A */]
00000BF0  91CA                     sub.l      A0, A2
00000BF2  3008                     move.w     D0, A0
00000BF4  93CA                     sub.l      A1, A2
00000BF6  3209                     move.w     D1, A1
00000BF8  4EAD 01E2                jsr        [A5 + 0x1E2 /* export_56, CODE:2 @ 00003234 */]
00000BFC  4A6D FE72                tst.w      [A5 - 0x18E]
00000C00  660A                     bne        +0xC /* 00000C0C */
00000C02  303C 0007                move.w     D0, 0x7
00000C06  323C 0028                move.w     D1, 0x28 /* '(' */
00000C0A  661A                     bne        +0x1C /* 00000C26 */
label00000C0C:
00000C0C  0C6D 0001 FE72           cmpi.w     [A5 - 0x18E], 0x1
00000C12  660A                     bne        +0xC /* 00000C1E */
00000C14  303C 000F                move.w     D0, 0xF
00000C18  323C 0028                move.w     D1, 0x28 /* '(' */
00000C1C  6608                     bne        +0xA /* 00000C26 */
label00000C1E:
00000C1E  303C 001F                move.w     D0, 0x1F
00000C22  323C 001E                move.w     D1, 0x1E
label00000C26:
00000C26  41FA 2A5E                lea.l      A0, [PC + 0x2A5E /* 00003686, value 0x5600EA, cstring "" */]
00000C2A  43FA 2A6E                lea.l      A1, [PC + 0x2A6E /* 0000369A, value 0xF0029A, cstring "" */]
00000C2E  45FA 2A40                lea.l      A2, [PC + 0x2A40 /* 00003670, value 0x0, cstring "" */]
00000C32  4EAD 02F2                jsr        [A5 + 0x2F2 /* export_90, CODE:4 @ 000036F2 */]
00000C36  3F3C 01E2                move.w     -[A7], 0x1E2
00000C3A  3F3C 00BF                move.w     -[A7], 0xBF
00000C3E  4EAD 0192                jsr        [A5 + 0x192 /* export_46, CODE:1 @ 00001814 */]
00000C42  4A6D FE72                tst.w      [A5 - 0x18E]
00000C46  660A                     bne        +0xC /* 00000C52 */
00000C48  323C 000C                move.w     D1, 0xC
00000C4C  343C 001F                move.w     D2, 0x1F
00000C50  661A                     bne        +0x1C /* 00000C6C */
label00000C52:
00000C52  0C6D 0001 FE72           cmpi.w     [A5 - 0x18E], 0x1
00000C58  660A                     bne        +0xC /* 00000C64 */
00000C5A  323C 0006                move.w     D1, 0x6
00000C5E  343C 001F                move.w     D2, 0x1F
00000C62  6608                     bne        +0xA /* 00000C6C */
label00000C64:
00000C64  323C 0003                move.w     D1, 0x3
00000C68  343C 001E                move.w     D2, 0x1E
label00000C6C:
00000C6C  41FA 2A02                lea.l      A0, [PC + 0x2A02 /* 00003670, value 0x0, cstring "" */]
00000C70  43FA 2A0C                lea.l      A1, [PC + 0x2A0C /* 0000367E, value 0x2006C, cstring "" */]
00000C74  93C8                     sub.l      A1, A0
00000C76  3009                     move.w     D0, A1
00000C78  263C FFFA 0006           move.l     D3, 0xFFFA0006
00000C7E  383C 01F2                move.w     D4, 0x1F2
00000C82  4EAD 0302                jsr        [A5 + 0x302 /* export_92, CODE:4 @ 00003B2A */]
00000C86  4A6D FE72                tst.w      [A5 - 0x18E]
00000C8A  660A                     bne        +0xC /* 00000C96 */
00000C8C  323C 0064                move.w     D1, 0x64 /* 'd' */
00000C90  343C 00FF                move.w     D2, 0xFF
00000C94  661A                     bne        +0x1C /* 00000CB0 */
label00000C96:
00000C96  0C6D 0001 FE72           cmpi.w     [A5 - 0x18E], 0x1
00000C9C  660A                     bne        +0xC /* 00000CA8 */
00000C9E  323C 0032                move.w     D1, 0x32 /* '2' */
00000CA2  343C 007F                move.w     D2, 0x7F
00000CA6  6608                     bne        +0xA /* 00000CB0 */
label00000CA8:
00000CA8  323C 0014                move.w     D1, 0x14
00000CAC  343C 003F                move.w     D2, 0x3F /* '?' */
label00000CB0:
00000CB0  41FA 29BE                lea.l      A0, [PC + 0x29BE /* 00003670, value 0x0, cstring "" */]
00000CB4  43FA 29D8                lea.l      A1, [PC + 0x29D8 /* 0000368E, value 0x9D01E6, cstring "" */]
00000CB8  93C8                     sub.l      A1, A0
00000CBA  3009                     move.w     D0, A1
00000CBC  263C 0005 FFFA           move.l     D3, 0x5FFFA
00000CC2  383C 0001                move.w     D4, 0x1
00000CC6  4EAD 0302                jsr        [A5 + 0x302 /* export_92, CODE:4 @ 00003B2A */]
00000CCA  303C 0041                move.w     D0, 0x41 /* 'A' */
00000CCE  323C 001C                move.w     D1, 0x1C
00000CD2  343C 0002                move.w     D2, 0x2
00000CD6  363C 000F                move.w     D3, 0xF
00000CDA  383C 000A                move.w     D4, 0xA /* '\n' */
00000CDE  3A3C 0005                move.w     D5, 0x5
00000CE2  3C3C 006E                move.w     D6, 0x6E /* 'n' */
00000CE6  4EAD 0272                jsr        [A5 + 0x272 /* export_74, CODE:4 @ 00001008 */]
00000CEA  4A6D FE72                tst.w      [A5 - 0x18E]
00000CEE  6768                     beq        +0x6A /* 00000D58 */
00000CF0  303C 0051                move.w     D0, 0x51 /* 'Q' */
00000CF4  323C 00AB                move.w     D1, 0xAB
00000CF8  343C 0004                move.w     D2, 0x4
00000CFC  363C 000F                move.w     D3, 0xF
00000D00  383C 0032                move.w     D4, 0x32 /* '2' */
00000D04  3A3C 00B4                move.w     D5, 0xB4
00000D08  3C3C 012A                move.w     D6, 0x12A
00000D0C  4EAD 0272                jsr        [A5 + 0x272 /* export_74, CODE:4 @ 00001008 */]
00000D10  0C6D 0001 FE72           cmpi.w     [A5 - 0x18E], 0x1
00000D16  6F40                     ble        +0x42 /* 00000D58 */
00000D18  303C 00E8                move.w     D0, 0xE8
00000D1C  323C 001C                move.w     D1, 0x1C
00000D20  343C 0005                move.w     D2, 0x5
00000D24  363C 000F                move.w     D3, 0xF
00000D28  383C 000F                move.w     D4, 0xF
00000D2C  3A3C 0005                move.w     D5, 0x5
00000D30  3C3C 006E                move.w     D6, 0x6E /* 'n' */
00000D34  4EAD 0272                jsr        [A5 + 0x272 /* export_74, CODE:4 @ 00001008 */]
00000D38  303C 011A                move.w     D0, 0x11A
00000D3C  323C 00AD                move.w     D1, 0xAD
00000D40  343C 0003                move.w     D2, 0x3
00000D44  363C 000F                move.w     D3, 0xF
00000D48  383C 0028                move.w     D4, 0x28 /* '(' */
00000D4C  3A3C 00B4                move.w     D5, 0xB4
00000D50  3C3C 012A                move.w     D6, 0x12A
00000D54  4EAD 0272                jsr        [A5 + 0x272 /* export_74, CODE:4 @ 00001008 */]
label00000D58:
00000D58  4A6D FE72                tst.w      [A5 - 0x18E]
00000D5C  6606                     bne        +0x8 /* 00000D64 */
00000D5E  41FA 0032                lea.l      A0, [PC + 0x32 /* 00000D92, value 0x1F900FC */]
00000D62  6004                     bra        +0x6 /* 00000D68 */
label00000D64:
00000D64  41FA 0040                lea.l      A0, [PC + 0x40 /* 00000DA6, value 0x1F900FC */]
label00000D68:
00000D68  4EAD 02A2                jsr        [A5 + 0x2A2 /* export_80, CODE:4 @ 00001E7A */]
00000D6C  41FA 2902                lea.l      A0, [PC + 0x2902 /* 00003670, value 0x0, cstring "" */]
00000D70  43FA 2CCA                lea.l      A1, [PC + 0x2CCA /* 00003A3C, value 0x1021C, cstring "" */]
00000D74  93C8                     sub.l      A1, A0
00000D76  3209                     move.w     D1, A1
00000D78  303C 0006                move.w     D0, 0x6
00000D7C  4EAD 0362                jsr        [A5 + 0x362 /* export_104, CODE:4 @ 0000529C */]
00000D80  3F00                     move.w     -[A7], D0
00000D82  303C 005F                move.w     D0, 0x5F /* '_' */
00000D86  4EAD 0052                jsr        [A5 + 0x52 /* export_6, CODE:1 @ 00000114 */]
00000D8A  301F                     move.w     D0, [A7]+
00000D8C  4EAD 032A                jsr        [A5 + 0x32A /* export_97, CODE:4 @ 00004E92 */]
00000D90  4E75                     rts
00000D92  01F9                     .incomplete
00000D94  00FC                     .incomplete
00000D96  019C                     bclr       [A4]+, D0
00000D98  01E2                     .incomplete
00000D9A  FFFD                     .invalid   <<F/7/7>>
00000D9C  0000 0028                ori.b      D0, 0x28 /* '(' */
00000DA0  0001 0046                ori.b      D1, 0x46 /* 'F' */
00000DA4  001F 01F9                ori.b      [A7]+, 0xF9
00000DA8  00FC                     .incomplete
00000DAA  019C                     bclr       [A4]+, D0
00000DAC  01E2                     .incomplete
00000DAE  FFFD                     .invalid   <<F/7/7>>
00000DB0  0000 0028                ori.b      D0, 0x28 /* '(' */
00000DB4  0002 003C                ori.b      D2, 0x3C /* '<' */
00000DB8  001F 3F3C                ori.b      [A7]+, 0x3C /* '<' */
// begin alternate branch 00000DBA-00000DBE
label00000DBA:
00000DBA  3F3C 07EE                move.w     -[A7], 0x7EE
// end alternate branch 00000DBA-00000DBE
label00000DBA: // (misaligned)
00000DBC  07EE                     .incomplete
00000DBE  4EAD 01B2                jsr        [A5 + 0x1B2 /* export_50, CODE:1 @ 00001A2A */]
00000DC2  4EBA F2BC                jsr        [PC - 0xD44 /* 00000080 */]
00000DC6  45FA 2C7A                lea.l      A2, [PC + 0x2C7A /* 00003A42, value 0x0, cstring "" */]
00000DCA  4A6D FE74                tst.w      [A5 - 0x18C]
00000DCE  660C                     bne        +0xE /* 00000DDC */
00000DD0  41FA 2CD6                lea.l      A0, [PC + 0x2CD6 /* 00003AA8, value 0xF703DE, cstring "" */]
00000DD4  43FA 3080                lea.l      A1, [PC + 0x3080 /* 00003E56, value 0xB0026, cstring "" */]
00000DD8  7034                     moveq.l    D0, 0x34
00000DDA  600A                     bra        +0xC /* 00000DE6 */
label00000DDC:
00000DDC  41FA 2C86                lea.l      A0, [PC + 0x2C86 /* 00003A64, value 0x40018C, cstring "" */]
00000DE0  43FA 2E34                lea.l      A1, [PC + 0x2E34 /* 00003C16, value 0x130014B */]
00000DE4  7035                     moveq.l    D0, 0x35
label00000DE6:
00000DE6  4EAD 03D2                jsr        [A5 + 0x3D2 /* export_118, CODE:4 @ 00005C2A */]
00000DEA  91CA                     sub.l      A0, A2
00000DEC  3008                     move.w     D0, A0
00000DEE  93CA                     sub.l      A1, A2
00000DF0  3209                     move.w     D1, A1
00000DF2  4EAD 01E2                jsr        [A5 + 0x1E2 /* export_56, CODE:2 @ 00003234 */]
00000DF6  3F3C 0052                move.w     -[A7], 0x52 /* 'R' */
00000DFA  3F3C 00EC                move.w     -[A7], 0xEC
00000DFE  4EAD 0192                jsr        [A5 + 0x192 /* export_46, CODE:1 @ 00001814 */]
00000E02  3F3C 010A                move.w     -[A7], 0x10A
00000E06  3F3C 00EC                move.w     -[A7], 0xEC
00000E0A  4EAD 0192                jsr        [A5 + 0x192 /* export_46, CODE:1 @ 00001814 */]
00000E0E  3F3C 01AB                move.w     -[A7], 0x1AB
00000E12  3F3C 00EC                move.w     -[A7], 0xEC
00000E16  4EAD 0192                jsr        [A5 + 0x192 /* export_46, CODE:1 @ 00001814 */]
00000E1A  4EAD 02FA                jsr        [A5 + 0x2FA /* export_91, CODE:4 @ 000039E4 */]
00000E1E  4EAD 030A                jsr        [A5 + 0x30A /* export_93, CODE:4 @ 00003D7C */]
00000E22  4A6D FE72                tst.w      [A5 - 0x18E]
00000E26  6E06                     bgt        +0x8 /* 00000E2E */
00000E28  41FA 007E                lea.l      A0, [PC + 0x7E /* 00000EA8, value 0x7A 'z', cstring "" */]
00000E2C  6004                     bra        +0x6 /* 00000E32 */
label00000E2E:
00000E2E  41FA 008C                lea.l      A0, [PC + 0x8C /* 00000EBC, value 0x7A 'z', cstring "" */]
label00000E32:
00000E32  4EAD 02A2                jsr        [A5 + 0x2A2 /* export_80, CODE:4 @ 00001E7A */]
00000E36  41FA 00A6                lea.l      A0, [PC + 0xA6 /* 00000EDE, value 0xFA0064, cstring "" */]
00000E3A  4EAD 0322                jsr        [A5 + 0x322 /* export_96, CODE:4 @ 0000464C */]
00000E3E  0C6D 0001 FE72           cmpi.w     [A5 - 0x18E], 0x1
00000E44  6F08                     ble        +0xA /* 00000E4E */
00000E46  41FA 009E                lea.l      A0, [PC + 0x9E /* 00000EE6, value 0x15E00FA */]
00000E4A  4EAD 0322                jsr        [A5 + 0x322 /* export_96, CODE:4 @ 0000464C */]
label00000E4E:
00000E4E  41FA 0080                lea.l      A0, [PC + 0x80 /* 00000ED0, value 0x12C010C */]
00000E52  4EAD 031A                jsr        [A5 + 0x31A /* export_95, CODE:4 @ 00004958 */]
00000E56  4A6D FE72                tst.w      [A5 - 0x18E]
00000E5A  6E08                     bgt        +0xA /* 00000E64 */
00000E5C  3B7C 0006 FD82           move.w     [A5 - 0x27E], 0x6
00000E62  6016                     bra        +0x18 /* 00000E7A */
label00000E64:
00000E64  0C6D 0001 FE72           cmpi.w     [A5 - 0x18E], 0x1
00000E6A  6E08                     bgt        +0xA /* 00000E74 */
00000E6C  3B7C 0004 FD82           move.w     [A5 - 0x27E], 0x4
00000E72  6006                     bra        +0x8 /* 00000E7A */
label00000E74:
00000E74  3B7C 0002 FD82           move.w     [A5 - 0x27E], 0x2
label00000E7A:
00000E7A  41FA 2BC6                lea.l      A0, [PC + 0x2BC6 /* 00003A42, value 0x0, cstring "" */]
00000E7E  43FA 30AE                lea.l      A1, [PC + 0x30AE /* 00003F2E, value 0x3010E, cstring "" */]
00000E82  93C8                     sub.l      A1, A0
00000E84  3209                     move.w     D1, A1
00000E86  303C 0006                move.w     D0, 0x6
00000E8A  4EAD 0362                jsr        [A5 + 0x362 /* export_104, CODE:4 @ 0000529C */]
00000E8E  41FA 2BB2                lea.l      A0, [PC + 0x2BB2 /* 00003A42, value 0x0, cstring "" */]
00000E92  43FA 30A2                lea.l      A1, [PC + 0x30A2 /* 00003F36, value 0x10318, cstring "" */]
00000E96  93C8                     sub.l      A1, A0
00000E98  3209                     move.w     D1, A1
00000E9A  303C 0004                move.w     D0, 0x4
00000E9E  4EAD 0372                jsr        [A5 + 0x372 /* export_106, CODE:4 @ 000053A4 */]
00000EA2  4EAD 032A                jsr        [A5 + 0x32A /* export_97, CODE:4 @ 00004E92 */]
00000EA6  4E75                     rts
00000EA8  0000 007A                ori.b      D0, 0x7A /* 'z' */
00000EAC  0005 003C                ori.b      D5, 0x3C /* '<' */
00000EB0  FFFD                     .invalid   <<F/7/7>>
00000EB2  0000 0000                ori.b      D0, 0x0
00000EB6  0001 0014                ori.b      D1, 0x14
00000EBA  001F 0000                ori.b      [A7]+, 0x0
00000EBE  007A 0005 003C           ori.w      [PC + 0x3C /* 00000EFC, value 0x3464 '4d' */], 0x5
00000EC4  FFFD                     .invalid   <<F/7/7>>
00000EC6  0000 0000                ori.b      D0, 0x0
00000ECA  0002 000C                ori.b      D2, 0xC
00000ECE  001F 012C                ori.b      [A7]+, 0x2C /* ',' */
00000ED2  010C                     btst       A4, D0
00000ED4  0000 0000                ori.b      D0, 0x0
00000ED8  FFFE                     .invalid   <<F/7/7>>
00000EDA  0078 01BA 00FA           ori.w      [0x000000FA], 0x1BA
00000EE0  0064 0000                ori.w      -[A4], 0x0
00000EE4  0000 015E                ori.b      D0, 0x5E /* '^' */
00000EE8  00FA                     .incomplete
00000EEA  0000 0000                ori.b      D0, 0x0
label00000EEE:
00000EEE  3F3C 0BB8                move.w     -[A7], 0xBB8
00000EF2  4EAD 01B2                jsr        [A5 + 0x1B2 /* export_50, CODE:1 @ 00001A2A */]
00000EF6  4EBA F188                jsr        [PC - 0xE78 /* 00000080 */]
00000EFA  4EBA 3464                jsr        [PC + 0x3464 /* 00004360 */]
00000EFE  4EAD 0382                jsr        [A5 + 0x382 /* export_108, CODE:4 @ 00005736 */]
00000F02  45FA 3038                lea.l      A2, [PC + 0x3038 /* 00003F3C, value 0x0, cstring "" */]
00000F06  4A6D FE74                tst.w      [A5 - 0x18C]
00000F0A  660C                     bne        +0xE /* 00000F18 */
00000F0C  41FA 304C                lea.l      A0, [PC + 0x304C /* 00003F5A, value 0x108032A */]
00000F10  43FA 338A                lea.l      A1, [PC + 0x338A /* 0000429C, value 0x4002A, cstring "" */]
00000F14  7036                     moveq.l    D0, 0x36
00000F16  600A                     bra        +0xC /* 00000F22 */
label00000F18:
00000F18  41FA 3030                lea.l      A0, [PC + 0x3030 /* 00003F4A, value 0x1D005A, cstring "" */]
00000F1C  43FA 312C                lea.l      A1, [PC + 0x312C /* 0000404A, value 0x1BF01D5 */]
00000F20  7037                     moveq.l    D0, 0x37
label00000F22:
00000F22  4EAD 03D2                jsr        [A5 + 0x3D2 /* export_118, CODE:4 @ 00005C2A */]
00000F26  91CA                     sub.l      A0, A2
00000F28  3008                     move.w     D0, A0
00000F2A  93CA                     sub.l      A1, A2
00000F2C  3209                     move.w     D1, A1
00000F2E  4EAD 01E2                jsr        [A5 + 0x1E2 /* export_56, CODE:2 @ 00003234 */]
00000F32  426D FC66                clr.w      [A5 - 0x39A]
00000F36  41FA 3004                lea.l      A0, [PC + 0x3004 /* 00003F3C, value 0x0, cstring "" */]
00000F3A  43FA 300E                lea.l      A1, [PC + 0x300E /* 00003F4A, value 0x1D005A, cstring "" */]
00000F3E  93C8                     sub.l      A1, A0
00000F40  3409                     move.w     D2, A1
00000F42  4A6D FE72                tst.w      [A5 - 0x18E]
00000F46  661A                     bne        +0x1C /* 00000F62 */
00000F48  363C 0400                move.w     D3, 0x400
00000F4C  383C 0107                move.w     D4, 0x107
00000F50  3A3C 000F                move.w     D5, 0xF
00000F54  3C3C 001F                move.w     D6, 0x1F
00000F58  303C 0014                move.w     D0, 0x14
00000F5C  323C 0005                move.w     D1, 0x5
00000F60  603A                     bra        +0x3C /* 00000F9C */
label00000F62:
00000F62  0C6D 0001 FE72           cmpi.w     [A5 - 0x18E], 0x1
00000F68  661A                     bne        +0x1C /* 00000F84 */
00000F6A  363C 0300                move.w     D3, 0x300
00000F6E  383C 028F                move.w     D4, 0x28F
00000F72  3A3C 0009                move.w     D5, 0x9 /* '\t' */
00000F76  3C3C 001F                move.w     D6, 0x1F
00000F7A  303C 0014                move.w     D0, 0x14
00000F7E  323C 0005                move.w     D1, 0x5
00000F82  6018                     bra        +0x1A /* 00000F9C */
label00000F84:
00000F84  363C 0250                move.w     D3, 0x250
00000F88  383C 033F                move.w     D4, 0x33F
00000F8C  3A3C 0005                move.w     D5, 0x5
00000F90  3C3C 0017                move.w     D6, 0x17
00000F94  303C 0014                move.w     D0, 0x14
00000F98  323C 0005                move.w     D1, 0x5
label00000F9C:
00000F9C  4EAD 028A                jsr        [A5 + 0x28A /* export_77, CODE:4 @ 000016D2 */]
00000FA0  41FA 2F9A                lea.l      A0, [PC + 0x2F9A /* 00003F3C, value 0x0, cstring "" */]
00000FA4  43FA 33AA                lea.l      A1, [PC + 0x33AA /* 00004350, value 0x300D8, cstring "" */]
00000FA8  93C8                     sub.l      A1, A0
00000FAA  3209                     move.w     D1, A1
00000FAC  303C 0005                move.w     D0, 0x5
00000FB0  4EAD 0362                jsr        [A5 + 0x362 /* export_104, CODE:4 @ 0000529C */]
00000FB4  41FA 2F86                lea.l      A0, [PC + 0x2F86 /* 00003F3C, value 0x0, cstring "" */]
00000FB8  43FA 339E                lea.l      A1, [PC + 0x339E /* 00004358, value 0x30168, cstring "" */]
00000FBC  93C8                     sub.l      A1, A0
00000FBE  3209                     move.w     D1, A1
00000FC0  303C 0006                move.w     D0, 0x6
00000FC4  4EAD 0372                jsr        [A5 + 0x372 /* export_106, CODE:4 @ 000053A4 */]
00000FC8  41FA 002C                lea.l      A0, [PC + 0x2C /* 00000FF6, value 0x9F, cstring "" */]
00000FCC  4EAD 02A2                jsr        [A5 + 0x2A2 /* export_80, CODE:4 @ 00001E7A */]
00000FD0  0C6D 0001 FE72           cmpi.w     [A5 - 0x18E], 0x1
00000FD6  6D18                     blt        +0x1A /* 00000FF0 */
00000FD8  41FA 0030                lea.l      A0, [PC + 0x30 /* 0000100A, value 0x1EA0063 */]
00000FDC  4EAD 02A2                jsr        [A5 + 0x2A2 /* export_80, CODE:4 @ 00001E7A */]
00000FE0  0C6D 0002 FE72           cmpi.w     [A5 - 0x18E], 0x2
00000FE6  6D08                     blt        +0xA /* 00000FF0 */
00000FE8  41FA 0034                lea.l      A0, [PC + 0x34 /* 0000101E, value 0x1EA002E */]
00000FEC  4EAD 02A2                jsr        [A5 + 0x2A2 /* export_80, CODE:4 @ 00001E7A */]
label00000FF0:
00000FF0  4EAD 032A                jsr        [A5 + 0x32A /* export_97, CODE:4 @ 00004E92 */]
00000FF4  4E75                     rts
00000FF6  0000 009F                ori.b      D0, 0x9F
00000FFA  0005 019A                ori.b      D5, 0x9A
00000FFE  0003 0000                ori.b      D3, 0x0
00001002  0000 0003                ori.b      D0, 0x3
00001006  000A 007F                ori.b      A2, 0x7F
0000100A  01EA                     .incomplete
0000100C  0063 0050                ori.w      -[A3], 0x50 /* 'P' */
00001010  01E0                     .incomplete
00001012  FFFD                     .invalid   <<F/7/7>>
00001014  0000 0000                ori.b      D0, 0x0
00001018  0003 000A                ori.b      D3, 0xA /* '\n' */
0000101C  007F 01EA                ori.w      <<invalid special address>>, 0x1EA
00001020  002E 0198 01E0           ori.b      [A6 + 0x1E0], 0x98
00001026  FFFD                     .invalid   <<F/7/7>>
00001028  0000 0000                ori.b      D0, 0x0
0000102C  0002 000A                ori.b      D2, 0xA /* '\n' */
00001030  007F 3F3C                ori.w      <<invalid special address>>, 0x3F3C /* '?<' */
// begin alternate branch 00001032-00001036
label00001032:
00001032  3F3C 0BC2                move.w     -[A7], 0xBC2
// end alternate branch 00001032-00001036
label00001032: // (misaligned)
00001034  0BC2                     .incomplete
00001036  4EAD 01B2                jsr        [A5 + 0x1B2 /* export_50, CODE:1 @ 00001A2A */]
0000103A  4EBA F044                jsr        [PC - 0xFBC /* 00000080 */]
0000103E  4EBA 36A4                jsr        [PC + 0x36A4 /* 000046E4 */]
00001042  4EAD 038A                jsr        [A5 + 0x38A /* export_109, CODE:4 @ 0000577A */]
00001046  41FA 3452                lea.l      A0, [PC + 0x3452 /* 0000449A, value 0x1BA01C8 */]
0000104A  4EAD 029A                jsr        [A5 + 0x29A /* export_79, CODE:4 @ 00001CA2 */]
0000104E  45FA 332A                lea.l      A2, [PC + 0x332A /* 0000437A, value 0x0, cstring "" */]
00001052  4A6D FE74                tst.w      [A5 - 0x18C]
00001056  660C                     bne        +0xE /* 00001064 */
00001058  41FA 333E                lea.l      A0, [PC + 0x333E /* 00004398, value 0x1070264 */]
0000105C  43FA 35B6                lea.l      A1, [PC + 0x35B6 /* 00004614, value 0xB00EE, cstring "" */]
00001060  7038                     moveq.l    D0, 0x38
00001062  600A                     bra        +0xC /* 0000106E */
label00001064:
00001064  41FA 332A                lea.l      A0, [PC + 0x332A /* 00004390, value 0x940156, cstring "" */]
00001068  43FA 34D2                lea.l      A1, [PC + 0x34D2 /* 0000453C, value 0x1CC01D4 */]
0000106C  7039                     moveq.l    D0, 0x39
label0000106E:
0000106E  4EAD 03D2                jsr        [A5 + 0x3D2 /* export_118, CODE:4 @ 00005C2A */]
00001072  91CA                     sub.l      A0, A2
00001074  3008                     move.w     D0, A0
00001076  93CA                     sub.l      A1, A2
00001078  3209                     move.w     D1, A1
0000107A  4EAD 01E2                jsr        [A5 + 0x1E2 /* export_56, CODE:2 @ 00003234 */]
0000107E  4A6D FE72                tst.w      [A5 - 0x18E]
00001082  6606                     bne        +0x8 /* 0000108A */
00001084  41FA 00C8                lea.l      A0, [PC + 0xC8 /* 0000114E, value 0x8011F, cstring "" */]
00001088  6012                     bra        +0x14 /* 0000109C */
label0000108A:
0000108A  0C6D 0001 FE72           cmpi.w     [A5 - 0x18E], 0x1
00001090  6606                     bne        +0x8 /* 00001098 */
00001092  41FA 00BA                lea.l      A0, [PC + 0xBA /* 0000114E, value 0x8011F, cstring "" */]
00001096  6004                     bra        +0x6 /* 0000109C */
label00001098:
00001098  41FA 00B4                lea.l      A0, [PC + 0xB4 /* 0000114E, value 0x8011F, cstring "" */]
label0000109C:
0000109C  4EAD 0312                jsr        [A5 + 0x312 /* export_94, CODE:4 @ 00004E3A */]
000010A0  303C 0198                move.w     D0, 0x198
000010A4  323C 0090                move.w     D1, 0x90
000010A8  4A6D FE72                tst.w      [A5 - 0x18E]
000010AC  660A                     bne        +0xC /* 000010B8 */
000010AE  343C 000F                move.w     D2, 0xF
000010B2  363C 0007                move.w     D3, 0x7
000010B6  601A                     bra        +0x1C /* 000010D2 */
label000010B8:
000010B8  0C6D 0001 FE72           cmpi.w     [A5 - 0x18E], 0x1
000010BE  660A                     bne        +0xC /* 000010CA */
000010C0  343C 0007                move.w     D2, 0x7
000010C4  363C 0005                move.w     D3, 0x5
000010C8  6008                     bra        +0xA /* 000010D2 */
label000010CA:
000010CA  343C 0007                move.w     D2, 0x7
000010CE  363C 0004                move.w     D3, 0x4
label000010D2:
000010D2  4EAD 0292                jsr        [A5 + 0x292 /* export_78, CODE:4 @ 00001A38 */]
000010D6  41FA 32A2                lea.l      A0, [PC + 0x32A2 /* 0000437A, value 0x0, cstring "" */]
000010DA  43FA 35FE                lea.l      A1, [PC + 0x35FE /* 000046DA, value 0x102F4, cstring "" */]
000010DE  93C8                     sub.l      A1, A0
000010E0  3209                     move.w     D1, A1
000010E2  303C 0006                move.w     D0, 0x6
000010E6  4EAD 0362                jsr        [A5 + 0x362 /* export_104, CODE:4 @ 0000529C */]
000010EA  0C6D 0001 FE72           cmpi.w     [A5 - 0x18E], 0x1
000010F0  6D1A                     blt        +0x1C /* 0000110C */
000010F2  0C6D 0002 FE72           cmpi.w     [A5 - 0x18E], 0x2
000010F8  670A                     beq        +0xC /* 00001104 */
000010FA  41FA 002A                lea.l      A0, [PC + 0x2A /* 00001126, value 0x1EA00F0 */]
000010FE  4EAD 02A2                jsr        [A5 + 0x2A2 /* export_80, CODE:4 @ 00001E7A */]
00001102  6008                     bra        +0xA /* 0000110C */
label00001104:
00001104  41FA 0034                lea.l      A0, [PC + 0x34 /* 0000113A, value 0x1EA00F0 */]
00001108  4EAD 02A2                jsr        [A5 + 0x2A2 /* export_80, CODE:4 @ 00001E7A */]
label0000110C:
0000110C  41FA 326C                lea.l      A0, [PC + 0x326C /* 0000437A, value 0x0, cstring "" */]
00001110  43FA 35CC                lea.l      A1, [PC + 0x35CC /* 000046DE, value 0x20090, cstring "" */]
00001114  93C8                     sub.l      A1, A0
00001116  3209                     move.w     D1, A1
00001118  303C 0005                move.w     D0, 0x5
0000111C  4EAD 0372                jsr        [A5 + 0x372 /* export_106, CODE:4 @ 000053A4 */]
00001120  4EAD 032A                jsr        [A5 + 0x32A /* export_97, CODE:4 @ 00004E92 */]
00001124  4E75                     rts
00001126  01EA                     .incomplete
00001128  00F0                     .incomplete
0000112A  0154                     bchg       [A4], D0
0000112C  01E0                     .incomplete
0000112E  FFFD                     .invalid   <<F/7/7>>
00001130  0000 0000                ori.b      D0, 0x0
00001134  0001 0064                ori.b      D1, 0x64 /* 'd' */
00001138  001F 01EA                ori.b      [A7]+, 0xEA
0000113C  00F0                     .incomplete
0000113E  0154                     bchg       [A4], D0
00001140  01E0                     .incomplete
00001142  FFFD                     .invalid   <<F/7/7>>
00001144  0000 0000                ori.b      D0, 0x0
00001148  0002 005A                ori.b      D2, 0x5A /* 'Z' */
0000114C  001F 0008                ori.b      [A7]+, 0x8
00001150  011F                     btst       [A7]+, D0
00001152  011F                     btst       [A7]+, D0
00001154  0200 00A5                andi.b     D0, 0xA5
00001158  FFE4                     .invalid   <<F/7/7>>
0000115A  0001 0006                ori.b      D1, 0x6
0000115E  000F 005A                ori.b      A7, 0x5A /* 'Z' */
00001162  001F 000F                ori.b      [A7]+, 0xF
00001166  FFE4                     .invalid   <<F/7/7>>
00001168  0000 0005                ori.b      D0, 0x5
0000116C  000F 0050                ori.b      A7, 0x50 /* 'P' */
00001170  001F 011D                ori.b      [A7]+, 0x1D
00001174  FFE4                     .invalid   <<F/7/7>>
00001176  0001 0005                ori.b      D1, 0x5
0000117A  000F 0050                ori.b      A7, 0x50 /* 'P' */
0000117E  001F 0087                ori.b      [A7]+, 0x87
00001182  FFE4                     .invalid   <<F/7/7>>
00001184  0000 0006                ori.b      D0, 0x6
00001188  000F 005A                ori.b      A7, 0x5A /* 'Z' */
0000118C  001F 00A5                ori.b      [A7]+, 0xA5
00001190  000A 0001                ori.b      A2, 0x1
00001194  0007 001F                ori.b      D7, 0x1F
00001198  0050 001F                ori.w      [A0], 0x1F
0000119C  000F 000A                ori.b      A7, 0xA /* '\n' */
000011A0  0000 0007                ori.b      D0, 0x7
000011A4  000F 005A                ori.b      A7, 0x5A /* 'Z' */
000011A8  001F 011D                ori.b      [A7]+, 0x1D
000011AC  000A 0001                ori.b      A2, 0x1
000011B0  0004 000F                ori.b      D4, 0xF
000011B4  0046 003F                ori.w      D6, 0x3F /* '?' */
000011B8  0087 000A 0000           ori.l      D7, 0xA0000 /* '\n\0\0' */
000011BE  0000 0007                ori.b      D0, 0x7
000011C2  005A 001F                ori.w      [A2]+, 0x1F
000011C6  0008 011F                ori.b      A0, 0x1F
000011CA  011F                     btst       [A7]+, D0
000011CC  0200 00A5                andi.b     D0, 0xA5
000011D0  FFE4                     .invalid   <<F/7/7>>
000011D2  0001 0005                ori.b      D1, 0x5
000011D6  0007 0046                ori.b      D7, 0x46 /* 'F' */
000011DA  001F 000F                ori.b      [A7]+, 0xF
000011DE  FFE4                     .invalid   <<F/7/7>>
000011E0  0000 0004                ori.b      D0, 0x4
000011E4  0007 0046                ori.b      D7, 0x46 /* 'F' */
000011E8  001F 011D                ori.b      [A7]+, 0x1D
000011EC  FFE4                     .invalid   <<F/7/7>>
000011EE  0001 0004                ori.b      D1, 0x4
000011F2  0007 0046                ori.b      D7, 0x46 /* 'F' */
000011F6  001F 0087                ori.b      [A7]+, 0x87
000011FA  FFE4                     .invalid   <<F/7/7>>
000011FC  0000 0005                ori.b      D0, 0x5
00001200  0007 0050                ori.b      D7, 0x50 /* 'P' */
00001204  001F 00A5                ori.b      [A7]+, 0xA5
00001208  000A 0001                ori.b      A2, 0x1
0000120C  0005 000F                ori.b      D5, 0xF
00001210  0046 001F                ori.w      D6, 0x1F
00001214  000F 000A                ori.b      A7, 0xA /* '\n' */
00001218  0000 0005                ori.b      D0, 0x5
0000121C  0007 0050                ori.b      D7, 0x50 /* 'P' */
00001220  001F 011D                ori.b      [A7]+, 0x1D
00001224  000A 0001                ori.b      A2, 0x1
00001228  0002 0007                ori.b      D2, 0x7
0000122C  0032 003F 0087           ori.b      [A2 + D0.w - 0x79], 0x3F /* '?' */
00001232  000A 0000                ori.b      A2, 0x0
00001236  0000 0007                ori.b      D0, 0x7
0000123A  0050 001F                ori.w      [A0], 0x1F
0000123E  0008 011F                ori.b      A0, 0x1F
00001242  011F                     btst       [A7]+, D0
00001244  0200 00A5                andi.b     D0, 0xA5
00001248  FFE4                     .invalid   <<F/7/7>>
0000124A  0001 0004                ori.b      D1, 0x4
0000124E  0007 003C                ori.b      D7, 0x3C /* '<' */
00001252  001F 000F                ori.b      [A7]+, 0xF
00001256  FFE4                     .invalid   <<F/7/7>>
00001258  0000 0003                ori.b      D0, 0x3
0000125C  0007 003C                ori.b      D7, 0x3C /* '<' */
00001260  001F 011D                ori.b      [A7]+, 0x1D
00001264  FFE4                     .invalid   <<F/7/7>>
00001266  0001 0003                ori.b      D1, 0x3
0000126A  0007 003C                ori.b      D7, 0x3C /* '<' */
0000126E  001F 0087                ori.b      [A7]+, 0x87
00001272  FFE4                     .invalid   <<F/7/7>>
00001274  0000 0004                ori.b      D0, 0x4
00001278  0007 0046                ori.b      D7, 0x46 /* 'F' */
0000127C  001F 00A5                ori.b      [A7]+, 0xA5
00001280  000A 0001                ori.b      A2, 0x1
00001284  0003 000F                ori.b      D3, 0xF
00001288  003C 001F                ori.b      ccr, 31
0000128C  000F 000A                ori.b      A7, 0xA /* '\n' */
00001290  0000 0002                ori.b      D0, 0x2
00001294  0007 0046                ori.b      D7, 0x46 /* 'F' */
00001298  001F 011D                ori.b      [A7]+, 0x1D
0000129C  000A 0001                ori.b      A2, 0x1
000012A0  0001 0007                ori.b      D1, 0x7
000012A4  0028 003F 0087           ori.b      [A0 + 0x87], 0x3F /* '?' */
000012AA  000A 0000                ori.b      A2, 0x0
000012AE  0000 0007                ori.b      D0, 0x7
000012B2  0046 001F                ori.w      D6, 0x1F
label000012B6:
000012B6  3F3C 0BCC                move.w     -[A7], 0xBCC
000012BA  4EAD 01B2                jsr        [A5 + 0x1B2 /* export_50, CODE:1 @ 00001A2A */]
000012BE  4EBA EDC0                jsr        [PC - 0x1240 /* 00000080 */]
000012C2  45FA 343A                lea.l      A2, [PC + 0x343A /* 000046FE, value 0x0, cstring "" */]
000012C6  4A6D FE74                tst.w      [A5 - 0x18C]
000012CA  660C                     bne        +0xE /* 000012D8 */
000012CC  41FA 34B2                lea.l      A0, [PC + 0x34B2 /* 00004780, value 0xFF0360, cstring "" */]
000012D0  43FA 37C2                lea.l      A1, [PC + 0x37C2 /* 00004A94, value 0x90029 '\t\0)', cstring "" */]
000012D4  703A                     moveq.l    D0, 0x3A
000012D6  600A                     bra        +0xC /* 000012E2 */
label000012D8:
000012D8  41FA 3432                lea.l      A0, [PC + 0x3432 /* 0000470C, value 0xFFC4020A */]
000012DC  43FA 364E                lea.l      A1, [PC + 0x364E /* 0000492C, value 0x1D301DB */]
000012E0  703B                     moveq.l    D0, 0x3B
label000012E2:
000012E2  4EAD 03D2                jsr        [A5 + 0x3D2 /* export_118, CODE:4 @ 00005C2A */]
000012E6  91CA                     sub.l      A0, A2
000012E8  3008                     move.w     D0, A0
000012EA  93CA                     sub.l      A1, A2
000012EC  3209                     move.w     D1, A1
000012EE  4EAD 01E2                jsr        [A5 + 0x1E2 /* export_56, CODE:2 @ 00003234 */]
000012F2  41FA 340A                lea.l      A0, [PC + 0x340A /* 000046FE, value 0x0, cstring "" */]
000012F6  43FA 3888                lea.l      A1, [PC + 0x3888 /* 00004B80, value 0x302D0, cstring "" */]
000012FA  93C8                     sub.l      A1, A0
000012FC  3209                     move.w     D1, A1
000012FE  303C 0005                move.w     D0, 0x5
00001302  4EAD 0362                jsr        [A5 + 0x362 /* export_104, CODE:4 @ 0000529C */]
00001306  41FA 33F6                lea.l      A0, [PC + 0x33F6 /* 000046FE, value 0x0, cstring "" */]
0000130A  43FA 387C                lea.l      A1, [PC + 0x387C /* 00004B88, value 0x3032A, cstring "" */]
0000130E  93C8                     sub.l      A1, A0
00001310  3209                     move.w     D1, A1
00001312  303C 0004                move.w     D0, 0x4
00001316  4EAD 0372                jsr        [A5 + 0x372 /* export_106, CODE:4 @ 000053A4 */]
0000131A  4A6D FE72                tst.w      [A5 - 0x18E]
0000131E  6E32                     bgt        +0x34 /* 00001352 */
00001320  303C 0008                move.w     D0, 0x8
00001324  41FA 01E2                lea.l      A0, [PC + 0x1E2 /* 00001508, value 0xA0007, cstring "" */]
00001328  3080                     move.w     [A0], D0
0000132A  41FA 0204                lea.l      A0, [PC + 0x204 /* 00001530, value 0xA0007, cstring "" */]
0000132E  3080                     move.w     [A0], D0
00001330  303C 000F                move.w     D0, 0xF
00001334  41FA 01D4                lea.l      A0, [PC + 0x1D4 /* 0000150A, value 0x7000A, cstring "" */]
00001338  3080                     move.w     [A0], D0
0000133A  41FA 01F6                lea.l      A0, [PC + 0x1F6 /* 00001532, value 0x7000A, cstring "" */]
0000133E  3080                     move.w     [A0], D0
00001340  41FA 0216                lea.l      A0, [PC + 0x216 /* 00001558, value 0xA001F, cstring "" */]
00001344  30BC 000F                move.w     [A0], 0xF
00001348  41FA 0210                lea.l      A0, [PC + 0x210 /* 0000155A, value 0x1F0002, cstring "" */]
0000134C  30BC 001F                move.w     [A0], 0x1F
00001350  606A                     bra        +0x6C /* 000013BC */
label00001352:
00001352  0C6D 0001 FE72           cmpi.w     [A5 - 0x18E], 0x1
00001358  6E32                     bgt        +0x34 /* 0000138C */
0000135A  303C 0006                move.w     D0, 0x6
0000135E  41FA 01A8                lea.l      A0, [PC + 0x1A8 /* 00001508, value 0xA0007, cstring "" */]
00001362  3080                     move.w     [A0], D0
00001364  41FA 01CA                lea.l      A0, [PC + 0x1CA /* 00001530, value 0xA0007, cstring "" */]
00001368  3080                     move.w     [A0], D0
0000136A  303C 0007                move.w     D0, 0x7
0000136E  41FA 019A                lea.l      A0, [PC + 0x19A /* 0000150A, value 0x7000A, cstring "" */]
00001372  3080                     move.w     [A0], D0
00001374  41FA 01BC                lea.l      A0, [PC + 0x1BC /* 00001532, value 0x7000A, cstring "" */]
00001378  3080                     move.w     [A0], D0
0000137A  41FA 01DC                lea.l      A0, [PC + 0x1DC /* 00001558, value 0xA001F, cstring "" */]
0000137E  30BC 000A                move.w     [A0], 0xA /* '\n' */
00001382  41FA 01D6                lea.l      A0, [PC + 0x1D6 /* 0000155A, value 0x1F0002, cstring "" */]
00001386  30BC 000F                move.w     [A0], 0xF
0000138A  6030                     bra        +0x32 /* 000013BC */
label0000138C:
0000138C  303C 0006                move.w     D0, 0x6
00001390  41FA 0176                lea.l      A0, [PC + 0x176 /* 00001508, value 0xA0007, cstring "" */]
00001394  3080                     move.w     [A0], D0
00001396  41FA 0198                lea.l      A0, [PC + 0x198 /* 00001530, value 0xA0007, cstring "" */]
0000139A  3080                     move.w     [A0], D0
0000139C  303C 0003                move.w     D0, 0x3
000013A0  41FA 0168                lea.l      A0, [PC + 0x168 /* 0000150A, value 0x7000A, cstring "" */]
000013A4  3080                     move.w     [A0], D0
000013A6  41FA 018A                lea.l      A0, [PC + 0x18A /* 00001532, value 0x7000A, cstring "" */]
000013AA  3080                     move.w     [A0], D0
000013AC  41FA 01AA                lea.l      A0, [PC + 0x1AA /* 00001558, value 0xA001F, cstring "" */]
000013B0  30BC 000A                move.w     [A0], 0xA /* '\n' */
000013B4  41FA 01A4                lea.l      A0, [PC + 0x1A4 /* 0000155A, value 0x1F0002, cstring "" */]
000013B8  30BC 0007                move.w     [A0], 0x7
label000013BC:
000013BC  4A6D FE72                tst.w      [A5 - 0x18E]
000013C0  6708                     beq        +0xA /* 000013CA */
000013C2  41FA 00E2                lea.l      A0, [PC + 0xE2 /* 000014A6, value 0x37FFFF, cstring "" */]
000013C6  4EAD 0282                jsr        [A5 + 0x282 /* export_76, CODE:4 @ 000013AE */]
label000013CA:
000013CA  41FA 0102                lea.l      A0, [PC + 0x102 /* 000014CE, value 0xE3FFFF, cstring "" */]
000013CE  4EAD 0282                jsr        [A5 + 0x282 /* export_76, CODE:4 @ 000013AE */]
000013D2  41FA 0122                lea.l      A0, [PC + 0x122 /* 000014F6, value 0xE3FFFF, cstring "" */]
000013D6  4EAD 0282                jsr        [A5 + 0x282 /* export_76, CODE:4 @ 000013AE */]
000013DA  41FA 0142                lea.l      A0, [PC + 0x142 /* 0000151E, value 0x191FFFF */]
000013DE  4EAD 0282                jsr        [A5 + 0x282 /* export_76, CODE:4 @ 000013AE */]
000013E2  41FA 0162                lea.l      A0, [PC + 0x162 /* 00001546, value 0x123FFFF */]
000013E6  4EAD 0282                jsr        [A5 + 0x282 /* export_76, CODE:4 @ 000013AE */]
000013EA  41FA 0182                lea.l      A0, [PC + 0x182 /* 0000156E, value 0x199FFFF */]
000013EE  4EAD 0282                jsr        [A5 + 0x282 /* export_76, CODE:4 @ 000013AE */]
000013F2  303C 002C                move.w     D0, 0x2C /* ',' */
000013F6  323C 000F                move.w     D1, 0xF
000013FA  343C 0004                move.w     D2, 0x4
000013FE  363C 000F                move.w     D3, 0xF
00001402  383C 0014                move.w     D4, 0x14
00001406  3A3C 0005                move.w     D5, 0x5
0000140A  3C3C 0113                move.w     D6, 0x113
0000140E  4EAD 0272                jsr        [A5 + 0x272 /* export_74, CODE:4 @ 00001008 */]
00001412  303C 0178                move.w     D0, 0x178
00001416  323C 0097                move.w     D1, 0x97
0000141A  343C 0004                move.w     D2, 0x4
0000141E  363C 000F                move.w     D3, 0xF
00001422  383C 00C8                move.w     D4, 0xC8
00001426  3A3C 0005                move.w     D5, 0x5
0000142A  3C3C 0113                move.w     D6, 0x113
0000142E  4EAD 0272                jsr        [A5 + 0x272 /* export_74, CODE:4 @ 00001008 */]
00001432  4A6D FE72                tst.w      [A5 - 0x18E]
00001436  6F68                     ble        +0x6A /* 000014A0 */
00001438  303C 00F0                move.w     D0, 0xF0
0000143C  323C 000F                move.w     D1, 0xF
00001440  343C 0004                move.w     D2, 0x4
00001444  363C 000F                move.w     D3, 0xF
00001448  383C 0032                move.w     D4, 0x32 /* '2' */
0000144C  3A3C 0005                move.w     D5, 0x5
00001450  3C3C 0113                move.w     D6, 0x113
00001454  4EAD 0272                jsr        [A5 + 0x272 /* export_74, CODE:4 @ 00001008 */]
00001458  303C 01D6                move.w     D0, 0x1D6
0000145C  323C 0053                move.w     D1, 0x53 /* 'S' */
00001460  343C 0004                move.w     D2, 0x4
00001464  363C 000F                move.w     D3, 0xF
00001468  383C 0118                move.w     D4, 0x118
0000146C  3A3C 0005                move.w     D5, 0x5
00001470  3C3C 0113                move.w     D6, 0x113
00001474  4EAD 0272                jsr        [A5 + 0x272 /* export_74, CODE:4 @ 00001008 */]
00001478  0C6D 0001 FE72           cmpi.w     [A5 - 0x18E], 0x1
0000147E  6F20                     ble        +0x22 /* 000014A0 */
00001480  303C 01CF                move.w     D0, 0x1CF
00001484  323C 00ED                move.w     D1, 0xED
00001488  343C 0004                move.w     D2, 0x4
0000148C  363C 000F                move.w     D3, 0xF
00001490  383C 00FA                move.w     D4, 0xFA
00001494  3A3C 0005                move.w     D5, 0x5
00001498  3C3C 0113                move.w     D6, 0x113
0000149C  4EAD 0272                jsr        [A5 + 0x272 /* export_74, CODE:4 @ 00001008 */]
label000014A0:
000014A0  4EAD 032A                jsr        [A5 + 0x32A /* export_97, CODE:4 @ 00004E92 */]
000014A4  4E75                     rts
000014A6  0037 FFFF 0009           ori.b      [A7 + D0.w + 0x9], 0xFF
000014AC  0027 FFFE                ori.b      -[A7], 0xFE
000014B0  0000 0000                ori.b      D0, 0x0
000014B4  0000 0000                ori.b      D0, 0x0
000014B8  0024 001F                ori.b      -[A4], 0x1F
000014BC  0002 0000                ori.b      D2, 0x0
000014C0  0001 00F7                ori.b      D1, 0xF7
000014C4  011B                     btst       [A3]+, D0
000014C6  0027 0027                ori.b      -[A7], 0x27 /* '\'' */
000014CA  0027 0000                ori.b      -[A7], 0x0
000014CE  00E3                     .incomplete
000014D0  FFFF                     .invalid   <<F/7/7>>
000014D2  00AC 00C8 FFFE 0000      ori.l      [A4 + 0x0], 0xC8FFFE
000014DA  0000 0000                ori.b      D0, 0x0
000014DE  0000 000A                ori.b      D0, 0xA /* '\n' */
000014E2  001F 0002                ori.b      [A7]+, 0x2
000014E6  0000 0001                ori.b      D0, 0x1
000014EA  0084 011B 0044           ori.l      D4, 0x11B0044
000014F0  0044 00B8                ori.w      D4, 0xB8
000014F4  0000 00E3                ori.b      D0, 0xE3
000014F8  FFFF                     .invalid   <<F/7/7>>
000014FA  0001 0002                ori.b      D1, 0x2
000014FE  FFFE                     .invalid   <<F/7/7>>
00001500  0000 0000                ori.b      D0, 0x0
00001504  0000 0000                ori.b      D0, 0x0
00001508  000A 0007                ori.b      A2, 0x7
0000150C  000A 0000                ori.b      A2, 0x0
00001510  0001 00F7                ori.b      D1, 0xF7
00001514  011B                     btst       [A3]+, D0
00001516  0061 009B                ori.w      -[A1], 0x9B
0000151A  00D5                     .incomplete
0000151C  0000 0191                ori.b      D0, 0x91
00001520  FFFF                     .invalid   <<F/7/7>>
00001522  0001 0002                ori.b      D1, 0x2
00001526  FFFE                     .invalid   <<F/7/7>>
00001528  0000 0000                ori.b      D0, 0x0
0000152C  0000 0000                ori.b      D0, 0x0
00001530  000A 0007                ori.b      A2, 0x7
00001534  000A 0000                ori.b      A2, 0x0
00001538  0001 00F7                ori.b      D1, 0xF7
0000153C  011B                     btst       [A3]+, D0
0000153E  010F                     btst       A7, D0
00001540  012C 0166                btst       [A4 + 0x166], D0
00001544  0000 0123                ori.b      D0, 0x23 /* '#' */
00001548  FFFF                     .invalid   <<F/7/7>>
0000154A  0001 0002                ori.b      D1, 0x2
0000154E  0002 0000                ori.b      D2, 0x0
00001552  0000 0000                ori.b      D0, 0x0
00001556  0000 000A                ori.b      D0, 0xA /* '\n' */
0000155A  001F 0002                ori.b      [A7]+, 0x2
0000155E  0000 0001                ori.b      D0, 0x1
00001562  0083 011B 014F           ori.l      D3, 0x11B014F
00001568  014F                     bchg       A7, D0
0000156A  014F                     bchg       A7, D0
0000156C  0000 0199                ori.b      D0, 0x99
00001570  FFFF                     .invalid   <<F/7/7>>
00001572  017A 01E0                bchg       [PC + 0x1E0 /* 00001754, value 0x4EAD */], D0
00001576  0002 0000                ori.b      D2, 0x0
0000157A  0000 0000                ori.b      D0, 0x0
0000157E  0000 0014                ori.b      D0, 0x14
00001582  000F 0004                ori.b      A7, 0x4
00001586  0000 0001                ori.b      D0, 0x1
0000158A  00B5 011B 01A6 01A6 0... ori.l      [[0x1A6] + D0], 0x11B01A6
label00001596:
00001596  3F3C 0BD6                move.w     -[A7], 0xBD6
0000159A  4EAD 01B2                jsr        [A5 + 0x1B2 /* export_50, CODE:1 @ 00001A2A */]
0000159E  4EBA EAE0                jsr        [PC - 0x1520 /* 00000080 */]
000015A2  303C 018A                move.w     D0, 0x18A
000015A6  323C 0030                move.w     D1, 0x30 /* '0' */
000015AA  4242                     clr.w      D2
000015AC  226D FD20                movea.l    A1, [A5 - 0x2E0]
000015B0  4EAD 033A                jsr        [A5 + 0x33A /* export_99, CODE:4 @ 00005048 */]
000015B4  2B48 FD92                move.l     [A5 - 0x26E], A0
000015B8  45FA 35D6                lea.l      A2, [PC + 0x35D6 /* 00004B90, value 0x0, cstring "" */]
000015BC  4A6D FE74                tst.w      [A5 - 0x18C]
000015C0  660C                     bne        +0xE /* 000015CE */
000015C2  41FA 35FA                lea.l      A0, [PC + 0x35FA /* 00004BBE, value 0x12C03CC */]
000015C6  43FA 39CA                lea.l      A1, [PC + 0x39CA /* 00004F92, value 0x173018B */]
000015CA  703C                     moveq.l    D0, 0x3C
000015CC  600A                     bra        +0xC /* 000015D8 */
label000015CE:
000015CE  41FA 35CE                lea.l      A0, [PC + 0x35CE /* 00004B9E, value 0x33005A '3\0Z', cstring "" */]
000015D2  43FA 3670                lea.l      A1, [PC + 0x3670 /* 00004C44, value 0x16E0182 */]
000015D6  703D                     moveq.l    D0, 0x3D
label000015D8:
000015D8  4EAD 03D2                jsr        [A5 + 0x3D2 /* export_118, CODE:4 @ 00005C2A */]
000015DC  91CA                     sub.l      A0, A2
000015DE  3008                     move.w     D0, A0
000015E0  93CA                     sub.l      A1, A2
000015E2  3209                     move.w     D1, A1
000015E4  4EAD 01E2                jsr        [A5 + 0x1E2 /* export_56, CODE:2 @ 00003234 */]
000015E8  3B7C 0038 FD7A           move.w     [A5 - 0x286], 0x38 /* '8' */
000015EE  3B7C 01B3 FD78           move.w     [A5 - 0x288], 0x1B3
000015F4  302D FE72                move.w     D0, [A5 - 0x18E]
000015F8  6E06                     bgt        +0x8 /* 00001600 */
000015FA  41FA 39D6                lea.l      A0, [PC + 0x39D6 /* 00004FD2, value 0x80004, cstring "" */]
000015FE  600E                     bra        +0x10 /* 0000160E */
label00001600:
00001600  5340                     subq.w     D0, 1
00001602  6E06                     bgt        +0x8 /* 0000160A */
00001604  41FA 39EE                lea.l      A0, [PC + 0x39EE /* 00004FF4, value 0x80004, cstring "" */]
00001608  6004                     bra        +0x6 /* 0000160E */
label0000160A:
0000160A  41FA 3A0A                lea.l      A0, [PC + 0x3A0A /* 00005016, value 0x8000A, cstring "" */]
label0000160E:
0000160E  4EBA 0758                jsr        [PC + 0x758 /* 00001D68 */]
00001612  4A6D FE72                tst.w      [A5 - 0x18E]
00001616  6E22                     bgt        +0x24 /* 0000163A */
00001618  303C 001E                move.w     D0, 0x1E
0000161C  323C 0004                move.w     D1, 0x4
00001620  343C 0064                move.w     D2, 0x64 /* 'd' */
00001624  4EAD 037A                jsr        [A5 + 0x37A /* export_107, CODE:4 @ 00005454 */]
00001628  303C 0028                move.w     D0, 0x28 /* '(' */
0000162C  323C FFFD                move.w     D1, 0xFFFD
00001630  343C 0140                move.w     D2, 0x140
00001634  4EAD 037A                jsr        [A5 + 0x37A /* export_107, CODE:4 @ 00005454 */]
00001638  604A                     bra        +0x4C /* 00001684 */
label0000163A:
0000163A  0C6D 0001 FE72           cmpi.w     [A5 - 0x18E], 0x1
00001640  6E22                     bgt        +0x24 /* 00001664 */
00001642  303C 001E                move.w     D0, 0x1E
00001646  323C 0004                move.w     D1, 0x4
0000164A  343C 0064                move.w     D2, 0x64 /* 'd' */
0000164E  4EAD 037A                jsr        [A5 + 0x37A /* export_107, CODE:4 @ 00005454 */]
00001652  303C 0014                move.w     D0, 0x14
00001656  323C FFFD                move.w     D1, 0xFFFD
0000165A  343C 0140                move.w     D2, 0x140
0000165E  4EAD 037A                jsr        [A5 + 0x37A /* export_107, CODE:4 @ 00005454 */]
00001662  6020                     bra        +0x22 /* 00001684 */
label00001664:
00001664  303C 001E                move.w     D0, 0x1E
00001668  323C 0004                move.w     D1, 0x4
0000166C  343C 0064                move.w     D2, 0x64 /* 'd' */
00001670  4EAD 037A                jsr        [A5 + 0x37A /* export_107, CODE:4 @ 00005454 */]
00001674  303C 000F                move.w     D0, 0xF
00001678  323C FFFD                move.w     D1, 0xFFFD
0000167C  343C 0140                move.w     D2, 0x140
00001680  4EAD 037A                jsr        [A5 + 0x37A /* export_107, CODE:4 @ 00005454 */]
label00001684:
00001684  303C 009E                move.w     D0, 0x9E
00001688  323C 0061                move.w     D1, 0x61 /* 'a' */
0000168C  343C 0002                move.w     D2, 0x2
00001690  363C 000F                move.w     D3, 0xF
00001694  383C 0050                move.w     D4, 0x50 /* 'P' */
00001698  3A3C 0005                move.w     D5, 0x5
0000169C  3C3C 0113                move.w     D6, 0x113
000016A0  4EAD 0272                jsr        [A5 + 0x272 /* export_74, CODE:4 @ 00001008 */]
000016A4  303C 0154                move.w     D0, 0x154
000016A8  323C 0061                move.w     D1, 0x61 /* 'a' */
000016AC  343C 0002                move.w     D2, 0x2
000016B0  363C 000F                move.w     D3, 0xF
000016B4  383C 003C                move.w     D4, 0x3C /* '<' */
000016B8  3A3C 0005                move.w     D5, 0x5
000016BC  3C3C 0113                move.w     D6, 0x113
000016C0  4EAD 0272                jsr        [A5 + 0x272 /* export_74, CODE:4 @ 00001008 */]
000016C4  4A6D FE72                tst.w      [A5 - 0x18E]
000016C8  6700 008A                beq        +0x8C /* 00001754 */
000016CC  303C 0077                move.w     D0, 0x77 /* 'w' */
000016D0  323C 012B                move.w     D1, 0x12B
000016D4  343C 0002                move.w     D2, 0x2
000016D8  363C 0007                move.w     D3, 0x7
000016DC  383C 000F                move.w     D4, 0xF
000016E0  3A3C 0005                move.w     D5, 0x5
000016E4  3C3C 0113                move.w     D6, 0x113
000016E8  4EAD 0272                jsr        [A5 + 0x272 /* export_74, CODE:4 @ 00001008 */]
000016EC  303C 012B                move.w     D0, 0x12B
000016F0  323C 012B                move.w     D1, 0x12B
000016F4  343C 0002                move.w     D2, 0x2
000016F8  363C 0007                move.w     D3, 0x7
000016FC  383C 003C                move.w     D4, 0x3C /* '<' */
00001700  3A3C 0005                move.w     D5, 0x5
00001704  3C3C 0113                move.w     D6, 0x113
00001708  4EAD 0272                jsr        [A5 + 0x272 /* export_74, CODE:4 @ 00001008 */]
0000170C  0C6D 0001 FE72           cmpi.w     [A5 - 0x18E], 0x1
00001712  6F40                     ble        +0x42 /* 00001754 */
00001714  303C 0056                move.w     D0, 0x56 /* 'V' */
00001718  323C 00C1                move.w     D1, 0xC1
0000171C  343C 0002                move.w     D2, 0x2
00001720  363C 0006                move.w     D3, 0x6
00001724  383C 0032                move.w     D4, 0x32 /* '2' */
00001728  3A3C 0005                move.w     D5, 0x5
0000172C  3C3C 0113                move.w     D6, 0x113
00001730  4EAD 0272                jsr        [A5 + 0x272 /* export_74, CODE:4 @ 00001008 */]
00001734  303C 010F                move.w     D0, 0x10F
00001738  323C 0061                move.w     D1, 0x61 /* 'a' */
0000173C  343C 0002                move.w     D2, 0x2
00001740  363C 0006                move.w     D3, 0x6
00001744  383C 000A                move.w     D4, 0xA /* '\n' */
00001748  3A3C 0005                move.w     D5, 0x5
0000174C  3C3C 0113                move.w     D6, 0x113
00001750  4EAD 0272                jsr        [A5 + 0x272 /* export_74, CODE:4 @ 00001008 */]
label00001754:
00001754  4EAD 032A                jsr        [A5 + 0x32A /* export_97, CODE:4 @ 00004E92 */]
00001758  4E75                     rts
label0000175A:
0000175A  3F3C 0FA0                move.w     -[A7], 0xFA0
0000175E  4EAD 01B2                jsr        [A5 + 0x1B2 /* export_50, CODE:1 @ 00001A2A */]
00001762  4EBA E91C                jsr        [PC - 0x16E4 /* 00000080 */]
00001766  4A6D FE72                tst.w      [A5 - 0x18E]
0000176A  6E0A                     bgt        +0xC /* 00001776 */
0000176C  303C 00FA                move.w     D0, 0xFA
00001770  323C 007F                move.w     D1, 0x7F
00001774  601A                     bra        +0x1C /* 00001790 */
label00001776:
00001776  0C6D 0001 FE72           cmpi.w     [A5 - 0x18E], 0x1
0000177C  6E0A                     bgt        +0xC /* 00001788 */
0000177E  303C 00AF                move.w     D0, 0xAF
00001782  323C 007F                move.w     D1, 0x7F
00001786  6008                     bra        +0xA /* 00001790 */
label00001788:
00001788  303C 0064                move.w     D0, 0x64 /* 'd' */
0000178C  323C 007F                move.w     D1, 0x7F
label00001790:
00001790  343C 0078                move.w     D2, 0x78 /* 'x' */
00001794  363C 014F                move.w     D3, 0x14F
00001798  4EAD 02DA                jsr        [A5 + 0x2DA /* export_87, CODE:4 @ 00002E3A */]
0000179C  4EBA 4216                jsr        [PC + 0x4216 /* 000059B4 */]
000017A0  4EAD 02AA                jsr        [A5 + 0x2AA /* export_81, CODE:4 @ 00002364 */]
000017A4  45FA 390E                lea.l      A2, [PC + 0x390E /* 000050B4, value 0x0, cstring "" */]
000017A8  4A6D FE74                tst.w      [A5 - 0x18C]
000017AC  660C                     bne        +0xE /* 000017BA */
000017AE  41FA 3A7A                lea.l      A0, [PC + 0x3A7A /* 0000522A, value 0x1070882 */]
000017B2  43FA 41B8                lea.l      A1, [PC + 0x41B8 /* 0000596C, value 0x40025, cstring "" */]
000017B6  703E                     moveq.l    D0, 0x3E
000017B8  600A                     bra        +0xC /* 000017C4 */
label000017BA:
000017BA  41FA 3906                lea.l      A0, [PC + 0x3906 /* 000050C2, value 0xFFC404B6 */]
000017BE  43FA 3DCE                lea.l      A1, [PC + 0x3DCE /* 0000558E, value 0x1DA01E5 */]
000017C2  703F                     moveq.l    D0, 0x3F
label000017C4:
000017C4  4EAD 03D2                jsr        [A5 + 0x3D2 /* export_118, CODE:4 @ 00005C2A */]
000017C8  91CA                     sub.l      A0, A2
000017CA  3008                     move.w     D0, A0
000017CC  93CA                     sub.l      A1, A2
000017CE  3209                     move.w     D1, A1
000017D0  4EAD 01E2                jsr        [A5 + 0x1E2 /* export_56, CODE:2 @ 00003234 */]
000017D4  2B7C 0001 002B FCBC      move.l     [A5 - 0x344], 0x1002B
000017DC  2B7C 0077 01A3 FCC0      move.l     [A5 - 0x340], 0x7701A3
000017E4  2B7C 0001 004E FCB4      move.l     [A5 - 0x34C], 0x1004E
000017EC  2B7C 00F6 0169 FCB8      move.l     [A5 - 0x348], 0xF60169
000017F4  4A6D FE72                tst.w      [A5 - 0x18E]
000017F8  6E1A                     bgt        +0x1C /* 00001814 */
000017FA  41FA 014E                lea.l      A0, [PC + 0x14E /* 0000194A, value 0x140007, cstring "" */]
000017FE  30BC 001E                move.w     [A0], 0x1E
00001802  41FA 01E6                lea.l      A0, [PC + 0x1E6 /* 000019EA, value 0xA001F, cstring "" */]
00001806  30BC 001E                move.w     [A0], 0x1E
0000180A  41FA 0206                lea.l      A0, [PC + 0x206 /* 00001A12, value 0xA001F, cstring "" */]
0000180E  30BC 001E                move.w     [A0], 0x1E
00001812  603A                     bra        +0x3C /* 0000184E */
label00001814:
00001814  0C6D 0001 FE72           cmpi.w     [A5 - 0x18E], 0x1
0000181A  6E1A                     bgt        +0x1C /* 00001836 */
0000181C  41FA 012C                lea.l      A0, [PC + 0x12C /* 0000194A, value 0x140007, cstring "" */]
00001820  30BC 0019                move.w     [A0], 0x19
00001824  41FA 01C4                lea.l      A0, [PC + 0x1C4 /* 000019EA, value 0xA001F, cstring "" */]
00001828  30BC 0019                move.w     [A0], 0x19
0000182C  41FA 01E4                lea.l      A0, [PC + 0x1E4 /* 00001A12, value 0xA001F, cstring "" */]
00001830  30BC 001E                move.w     [A0], 0x1E
00001834  6018                     bra        +0x1A /* 0000184E */
label00001836:
00001836  41FA 0112                lea.l      A0, [PC + 0x112 /* 0000194A, value 0x140007, cstring "" */]
0000183A  30BC 0014                move.w     [A0], 0x14
0000183E  41FA 01AA                lea.l      A0, [PC + 0x1AA /* 000019EA, value 0xA001F, cstring "" */]
00001842  30BC 0014                move.w     [A0], 0x14
00001846  41FA 01CA                lea.l      A0, [PC + 0x1CA /* 00001A12, value 0xA001F, cstring "" */]
0000184A  30BC 001E                move.w     [A0], 0x1E
label0000184E:
0000184E  41FA 00E8                lea.l      A0, [PC + 0xE8 /* 00001938, value 0x64FFFE, cstring "" */]
00001852  4EAD 0282                jsr        [A5 + 0x282 /* export_76, CODE:4 @ 000013AE */]
00001856  41FA 0108                lea.l      A0, [PC + 0x108 /* 00001960, value 0xA9FFFE, cstring "" */]
0000185A  4EAD 0282                jsr        [A5 + 0x282 /* export_76, CODE:4 @ 000013AE */]
0000185E  41FA 0128                lea.l      A0, [PC + 0x128 /* 00001988, value 0xF6FFFE, cstring "" */]
00001862  4EAD 0282                jsr        [A5 + 0x282 /* export_76, CODE:4 @ 000013AE */]
00001866  41FA 0148                lea.l      A0, [PC + 0x148 /* 000019B0, value 0xF6FFFE, cstring "" */]
0000186A  4EAD 0282                jsr        [A5 + 0x282 /* export_76, CODE:4 @ 000013AE */]
0000186E  41FA 0168                lea.l      A0, [PC + 0x168 /* 000019D8, value 0x13CFFFE */]
00001872  4EAD 0282                jsr        [A5 + 0x282 /* export_76, CODE:4 @ 000013AE */]
00001876  41FA 0188                lea.l      A0, [PC + 0x188 /* 00001A00, value 0x184FFFE */]
0000187A  4EAD 0282                jsr        [A5 + 0x282 /* export_76, CODE:4 @ 000013AE */]
0000187E  41FA 01A8                lea.l      A0, [PC + 0x1A8 /* 00001A28, value 0x184FFFE */]
00001882  4EAD 0282                jsr        [A5 + 0x282 /* export_76, CODE:4 @ 000013AE */]
00001886  303C 01E6                move.w     D0, 0x1E6
0000188A  323C 00DE                move.w     D1, 0xDE
0000188E  343C 01A9                move.w     D2, 0x1A9
00001892  363C 01DE                move.w     D3, 0x1DE
00001896  383C FFFE                move.w     D4, 0xFFFE
0000189A  3A3C 0001                move.w     D5, 0x1
0000189E  3C3C 4E20                move.w     D6, 0x4E20 /* 'N ' */
000018A2  347C 0008                movea.w    A2, 0x8
000018A6  4A6D FE72                tst.w      [A5 - 0x18E]
000018AA  6E06                     bgt        +0x8 /* 000018B2 */
000018AC  3E3C 1F28                move.w     D7, 0x1F28
000018B0  6012                     bra        +0x14 /* 000018C4 */
label000018B2:
000018B2  0C6D 0001 FE72           cmpi.w     [A5 - 0x18E], 0x1
000018B8  6E06                     bgt        +0x8 /* 000018C0 */
000018BA  3E3C 0F23                move.w     D7, 0xF23
000018BE  6004                     bra        +0x6 /* 000018C4 */
label000018C0:
000018C0  3E3C 0F1E                move.w     D7, 0xF1E
label000018C4:
000018C4  4EAD 0262                jsr        [A5 + 0x262 /* export_72, CODE:4 @ 00000EC0 */]
000018C8  303C 01E6                move.w     D0, 0x1E6
000018CC  323C 00A3                move.w     D1, 0xA3
000018D0  343C 01A9                move.w     D2, 0x1A9
000018D4  363C 01DE                move.w     D3, 0x1DE
000018D8  383C FFFE                move.w     D4, 0xFFFE
000018DC  3A3C 0001                move.w     D5, 0x1
000018E0  3C3C 4E20                move.w     D6, 0x4E20 /* 'N ' */
000018E4  347C 0008                movea.w    A2, 0x8
000018E8  4A6D FE72                tst.w      [A5 - 0x18E]
000018EC  6E06                     bgt        +0x8 /* 000018F4 */
000018EE  3E3C 1F32                move.w     D7, 0x1F32
000018F2  6012                     bra        +0x14 /* 00001906 */
label000018F4:
000018F4  0C6D 0001 FE72           cmpi.w     [A5 - 0x18E], 0x1
000018FA  6E06                     bgt        +0x8 /* 00001902 */
000018FC  3E3C 0F28                move.w     D7, 0xF28
00001900  6004                     bra        +0x6 /* 00001906 */
label00001902:
00001902  3E3C 0F23                move.w     D7, 0xF23
label00001906:
00001906  4EAD 0262                jsr        [A5 + 0x262 /* export_72, CODE:4 @ 00000EC0 */]
0000190A  41FA 37A8                lea.l      A0, [PC + 0x37A8 /* 000050B4, value 0x0, cstring "" */]
0000190E  43FA 40BE                lea.l      A1, [PC + 0x40BE /* 000059CE, value 0x40546, cstring "" */]
00001912  93C8                     sub.l      A1, A0
00001914  3209                     move.w     D1, A1
00001916  303C 0005                move.w     D0, 0x5
0000191A  4EAD 0362                jsr        [A5 + 0x362 /* export_104, CODE:4 @ 0000529C */]
0000191E  41FA 3794                lea.l      A0, [PC + 0x3794 /* 000050B4, value 0x0, cstring "" */]
00001922  43FA 40B4                lea.l      A1, [PC + 0x40B4 /* 000059D8, value 0x30558, cstring "" */]
00001926  93C8                     sub.l      A1, A0
00001928  3209                     move.w     D1, A1
0000192A  303C 0007                move.w     D0, 0x7
0000192E  4EAD 0372                jsr        [A5 + 0x372 /* export_106, CODE:4 @ 000053A4 */]
00001932  4EAD 032A                jsr        [A5 + 0x32A /* export_97, CODE:4 @ 00004E92 */]
00001936  4E75                     rts
00001938  0064 FFFE                ori.w      -[A4], 0xFFFE
0000193C  0001 0001                ori.b      D1, 0x1
00001940  0002 0000                ori.b      D2, 0x0
00001944  0000 0000                ori.b      D0, 0x0
00001948  0000 0014                ori.b      D0, 0x14
0000194C  0007 0005                ori.b      D7, 0x5
00001950  0000 0001                ori.b      D0, 0x1
00001954  010E                     btst       A6, D0
00001956  0119                     btst       [A1]+, D0
00001958  008E 008E 008E           ori.l      A6, 0x8E008E
0000195E  0000 00A9                ori.b      D0, 0xA9
00001962  FFFE                     .invalid   <<F/7/7>>
00001964  00CD                     .incomplete
00001966  00E6                     .incomplete
00001968  0002 0000                ori.b      D2, 0x0
0000196C  0000 0000                ori.b      D0, 0x0
00001970  0000 0032                ori.b      D0, 0x32 /* '2' */
00001974  001F 0002                ori.b      [A7]+, 0x2
00001978  0000 0001                ori.b      D0, 0x1
0000197C  007A 00DF 00E5           ori.w      [PC + 0xE5 /* 00001A63, value 0x3C00 '<\0', cstring "<" */], 0xDF
00001982  00E5                     .incomplete
00001984  00E5                     .incomplete
00001986  0014 00F6                ori.b      [A4], 0xF6
0000198A  FFFE                     .invalid   <<F/7/7>>
0000198C  0001 0001                ori.b      D1, 0x1
00001990  0002 0000                ori.b      D2, 0x0
00001994  0000 0000                ori.b      D0, 0x0
00001998  0000 000F                ori.b      D0, 0xF
0000199C  000F 0005                ori.b      A7, 0x5
000019A0  0000 0001                ori.b      D0, 0x1
000019A4  00CB                     .incomplete
000019A6  0119                     btst       [A1]+, D0
000019A8  0102                     btst       D2, D0
000019AA  0102                     btst       D2, D0
000019AC  0102                     btst       D2, D0
000019AE  001E 00F6                ori.b      [A6]+, 0xF6
000019B2  FFFE                     .invalid   <<F/7/7>>
000019B4  0110                     btst       [A0], D0
000019B6  0122                     btst       -[A2], D0
000019B8  0002 0000                ori.b      D2, 0x0
000019BC  0000 0000                ori.b      D0, 0x0
000019C0  0000 000C                ori.b      D0, 0xC
000019C4  001F 0002                ori.b      [A7]+, 0x2
000019C8  0000 0001                ori.b      D0, 0x1
000019CC  00CB                     .incomplete
000019CE  0119                     btst       [A1]+, D0
000019D0  011F                     btst       [A7]+, D0
000019D2  011F                     btst       [A7]+, D0
000019D4  011F                     btst       [A7]+, D0
000019D6  0028 013C FFFE           ori.b      [A0 - 0x2], 0x3C /* '<' */
000019DC  0001 0001                ori.b      D1, 0x1
000019E0  0002 0000                ori.b      D2, 0x0
000019E4  0000 0000                ori.b      D0, 0x0
000019E8  0000 000A                ori.b      D0, 0xA /* '\n' */
000019EC  001F 0005                ori.b      [A7]+, 0x5
000019F0  0000 0001                ori.b      D0, 0x1
000019F4  00E1                     .incomplete
000019F6  0119                     btst       [A1]+, D0
000019F8  013C 013C                btst       0x3C /* '<' */, D0
000019FC  013C 0032                btst       0x32 /* '2' */, D0
00001A00  0184                     bclr       D4, D0
00001A02  FFFE                     .invalid   <<F/7/7>>
00001A04  0001 0001                ori.b      D1, 0x1
00001A08  FFFE                     .invalid   <<F/7/7>>
00001A0A  0000 0000                ori.b      D0, 0x0
00001A0E  0000 0000                ori.b      D0, 0x0
00001A12  000A 001F                ori.b      A2, 0x1F
00001A16  0005 0000                ori.b      D5, 0x0
00001A1A  0001 00FF                ori.b      D1, 0xFF
00001A1E  0119                     btst       [A1]+, D0
00001A20  0170 0170 0170 003C      bchg       [A0 + 0x170003C], D0
00001A28  0184                     bclr       D4, D0
00001A2A  FFFE                     .invalid   <<F/7/7>>
00001A2C  01B0 01F0 0002 0000      bclr       [0x20000], D0
00001A34  0000 0000                ori.b      D0, 0x0
00001A38  0000 000A                ori.b      D0, 0xA /* '\n' */
00001A3C  001F 0003                ori.b      [A7]+, 0x3
00001A40  0000 0001                ori.b      D0, 0x1
00001A44  006B 0086 01B0           ori.w      [A3 + 0x1B0], 0x86
00001A4A  01B0 01B0 0046 3F3C      bclr       [0x463F3C + D0], D0
// begin alternate branch 00001A50-00001A5C
label00001A50:
00001A50  3F3C 0FAA                move.w     -[A7], 0xFAA
00001A54  4EAD 01B2                jsr        [A5 + 0x1B2 /* export_50, CODE:1 @ 00001A2A */]
00001A58  4EBA E626                jsr        [PC - 0x19DA /* 00000080 */]
// end alternate branch 00001A50-00001A5C
label00001A50: // (misaligned)
00001A52  0FAA 4EAD                bclr       [A2 + 0x4EAD], D7
00001A56  01B2 4EBA                bclr       [A2 + D4 * 8 - 0x46], D0
00001A5A  E626                     asr        D6.b, D3
00001A5C  4A6D FE72                tst.w      [A5 - 0x18E]
00001A60  6E0A                     bgt        +0xC /* 00001A6C */
00001A62  303C 00FA                move.w     D0, 0xFA
00001A66  323C 007F                move.w     D1, 0x7F
00001A6A  601A                     bra        +0x1C /* 00001A86 */
label00001A6C:
00001A6C  0C6D 0001 FE72           cmpi.w     [A5 - 0x18E], 0x1
00001A72  6E0A                     bgt        +0xC /* 00001A7E */
00001A74  303C 00AF                move.w     D0, 0xAF
00001A78  323C 007F                move.w     D1, 0x7F
00001A7C  6008                     bra        +0xA /* 00001A86 */
label00001A7E:
00001A7E  303C 0064                move.w     D0, 0x64 /* 'd' */
00001A82  323C 007F                move.w     D1, 0x7F
label00001A86:
00001A86  343C 001E                move.w     D2, 0x1E
00001A8A  363C 0109                move.w     D3, 0x109
00001A8E  4EAD 02DA                jsr        [A5 + 0x2DA /* export_87, CODE:4 @ 00002E3A */]
00001A92  4EBA 449C                jsr        [PC + 0x449C /* 00005F30 */]
00001A96  4EAD 02B2                jsr        [A5 + 0x2B2 /* export_82, CODE:4 @ 000023AA */]
00001A9A  4EBA 440C                jsr        [PC + 0x440C /* 00005EA8 */]
00001A9E  45FA 3F40                lea.l      A2, [PC + 0x3F40 /* 000059E0, value 0x0, cstring "" */]
00001AA2  4A6D FE74                tst.w      [A5 - 0x18C]
00001AA6  660C                     bne        +0xE /* 00001AB4 */
00001AA8  41FA 3F5C                lea.l      A0, [PC + 0x3F5C /* 00005A06, value 0x10803BA */]
00001AAC  43FA 4334                lea.l      A1, [PC + 0x4334 /* 00005DE2, value 0x4002A, cstring "" */]
00001AB0  7040                     moveq.l    D0, 0x40
00001AB2  600A                     bra        +0xC /* 00001ABE */
label00001AB4:
00001AB4  41FA 3F38                lea.l      A0, [PC + 0x3F38 /* 000059EE, value 0xC005A, cstring "" */]
00001AB8  43FA 3FDA                lea.l      A1, [PC + 0x3FDA /* 00005A94, value 0x1CB01D5 */]
00001ABC  7041                     moveq.l    D0, 0x41
label00001ABE:
00001ABE  4EAD 03D2                jsr        [A5 + 0x3D2 /* export_118, CODE:4 @ 00005C2A */]
00001AC2  91CA                     sub.l      A0, A2
00001AC4  3008                     move.w     D0, A0
00001AC6  93CA                     sub.l      A1, A2
00001AC8  3209                     move.w     D1, A1
00001ACA  4EAD 01E2                jsr        [A5 + 0x1E2 /* export_56, CODE:2 @ 00003234 */]
00001ACE  41FA 411A                lea.l      A0, [PC + 0x411A /* 00005BEA, value 0x6E00A2, cstring "" */]
00001AD2  4EAD 02E2                jsr        [A5 + 0x2E2 /* export_88, CODE:4 @ 000033C4 */]
00001AD6  486D FFB2                pea.l      [A5 - 0x4E]
00001ADA  A875                     syscall    SetPBits/SetPortBits
00001ADC  487A 00D6                pea.l      [PC + 0xD6 /* 00001BB4, value 0x12, cstring "" */]
00001AE0  A8A3                     syscall    EraseRect
00001AE2  486D FF86                pea.l      [A5 - 0x7A]
00001AE6  A875                     syscall    SetPBits/SetPortBits
00001AE8  41FA 3EF6                lea.l      A0, [PC + 0x3EF6 /* 000059E0, value 0x0, cstring "" */]
00001AEC  43FA 3F08                lea.l      A1, [PC + 0x3F08 /* 000059F6, value 0x3C0168, cstring "" */]
00001AF0  93C8                     sub.l      A1, A0
00001AF2  3409                     move.w     D2, A1
00001AF4  4A6D FE72                tst.w      [A5 - 0x18E]
00001AF8  6E12                     bgt        +0x14 /* 00001B0C */
00001AFA  363C FF00                move.w     D3, 0xFF00
00001AFE  383C 027F                move.w     D4, 0x27F
00001B02  3A3C 0014                move.w     D5, 0x14
00001B06  3C3C 001F                move.w     D6, 0x1F
00001B0A  602A                     bra        +0x2C /* 00001B36 */
label00001B0C:
00001B0C  0C6D 0001 FE72           cmpi.w     [A5 - 0x18E], 0x1
00001B12  6E12                     bgt        +0x14 /* 00001B26 */
00001B14  363C FF00                move.w     D3, 0xFF00
00001B18  383C 02FF                move.w     D4, 0x2FF
00001B1C  3A3C 000E                move.w     D5, 0xE
00001B20  3C3C 000F                move.w     D6, 0xF
00001B24  6010                     bra        +0x12 /* 00001B36 */
label00001B26:
00001B26  363C FF00                move.w     D3, 0xFF00
00001B2A  383C 03FF                move.w     D4, 0x3FF
00001B2E  3A3C 0008                move.w     D5, 0x8
00001B32  3C3C 001F                move.w     D6, 0x1F
label00001B36:
00001B36  303C 0012                move.w     D0, 0x12
00001B3A  323C 0027                move.w     D1, 0x27 /* '\'' */
00001B3E  4EAD 028A                jsr        [A5 + 0x28A /* export_77, CODE:4 @ 000016D2 */]
00001B42  303C 018F                move.w     D0, 0x18F
00001B46  323C 0028                move.w     D1, 0x28 /* '(' */
00001B4A  343C 0112                move.w     D2, 0x112
00001B4E  363C 01D9                move.w     D3, 0x1D9
00001B52  383C 007F                move.w     D4, 0x7F
00001B56  3A3C 005A                move.w     D5, 0x5A /* 'Z' */
00001B5A  3C3C 0003                move.w     D6, 0x3
00001B5E  4EAD 027A                jsr        [A5 + 0x27A /* export_75, CODE:4 @ 0000135C */]
00001B62  303C 01EE                move.w     D0, 0x1EE
00001B66  323C 0050                move.w     D1, 0x50 /* 'P' */
00001B6A  343C 018F                move.w     D2, 0x18F
00001B6E  363C 01EE                move.w     D3, 0x1EE
00001B72  383C 007F                move.w     D4, 0x7F
00001B76  3A3C 005A                move.w     D5, 0x5A /* 'Z' */
00001B7A  3C3C 0003                move.w     D6, 0x3
00001B7E  4EAD 027A                jsr        [A5 + 0x27A /* export_75, CODE:4 @ 0000135C */]
00001B82  426D FC66                clr.w      [A5 - 0x39A]
00001B86  41FA 3E58                lea.l      A0, [PC + 0x3E58 /* 000059E0, value 0x0, cstring "" */]
00001B8A  43FA 43D4                lea.l      A1, [PC + 0x43D4 /* 00005F60, value 0x2006C, cstring "" */]
00001B8E  93C8                     sub.l      A1, A0
00001B90  3209                     move.w     D1, A1
00001B92  303C 0005                move.w     D0, 0x5
00001B96  4EAD 0362                jsr        [A5 + 0x362 /* export_104, CODE:4 @ 0000529C */]
00001B9A  41FA 3E44                lea.l      A0, [PC + 0x3E44 /* 000059E0, value 0x0, cstring "" */]
00001B9E  43FA 43C6                lea.l      A1, [PC + 0x43C6 /* 00005F66, value 0x2045C, cstring "" */]
00001BA2  93C8                     sub.l      A1, A0
00001BA4  3209                     move.w     D1, A1
00001BA6  303C 0005                move.w     D0, 0x5
00001BAA  4EAD 0372                jsr        [A5 + 0x372 /* export_106, CODE:4 @ 000053A4 */]
00001BAE  4EAD 032A                jsr        [A5 + 0x32A /* export_97, CODE:4 @ 00004E92 */]
00001BB2  4E75                     rts
00001BB4  0000 0012                ori.b      D0, 0x12
00001BB8  0020 0052                ori.b      -[A0], 0x52 /* 'R' */
label00001BBC:
00001BBC  3F3C 0FB4                move.w     -[A7], 0xFB4
00001BC0  4EAD 01B2                jsr        [A5 + 0x1B2 /* export_50, CODE:1 @ 00001A2A */]
00001BC4  4EBA E4BA                jsr        [PC - 0x1B46 /* 00000080 */]
00001BC8  4A6D FE72                tst.w      [A5 - 0x18E]
00001BCC  6E0A                     bgt        +0xC /* 00001BD8 */
00001BCE  303C 00FA                move.w     D0, 0xFA
00001BD2  323C 007F                move.w     D1, 0x7F
00001BD6  601A                     bra        +0x1C /* 00001BF2 */
label00001BD8:
00001BD8  0C6D 0001 FE72           cmpi.w     [A5 - 0x18E], 0x1
00001BDE  6E0A                     bgt        +0xC /* 00001BEA */
00001BE0  303C 00AF                move.w     D0, 0xAF
00001BE4  323C 007F                move.w     D1, 0x7F
00001BE8  6008                     bra        +0xA /* 00001BF2 */
label00001BEA:
00001BEA  303C 0064                move.w     D0, 0x64 /* 'd' */
00001BEE  323C 007F                move.w     D1, 0x7F
label00001BF2:
00001BF2  343C 0069                move.w     D2, 0x69 /* 'i' */
00001BF6  363C 018B                move.w     D3, 0x18B
00001BFA  4EAD 02DA                jsr        [A5 + 0x2DA /* export_87, CODE:4 @ 00002E3A */]
00001BFE  4EBA 4B70                jsr        [PC + 0x4B70 /* 00006770 */]
00001C02  4EAD 02BA                jsr        [A5 + 0x2BA /* export_83, CODE:4 @ 00002428 */]
00001C06  45FA 4364                lea.l      A2, [PC + 0x4364 /* 00005F6C, value 0x0, cstring "" */]
00001C0A  4A6D FE74                tst.w      [A5 - 0x18C]
00001C0E  660C                     bne        +0xE /* 00001C1C */
00001C10  41FA 4400                lea.l      A0, [PC + 0x4400 /* 00006012, value 0x107069C */]
00001C14  43FA 4A94                lea.l      A1, [PC + 0x4A94 /* 000066AA, value 0xDA010E, cstring "" */]
00001C18  7042                     moveq.l    D0, 0x42
00001C1A  600A                     bra        +0xC /* 00001C26 */
label00001C1C:
00001C1C  41FA 435C                lea.l      A0, [PC + 0x435C /* 00005F7A, value 0x10144, cstring "" */]
00001C20  43FA 451E                lea.l      A1, [PC + 0x451E /* 00006140, value 0x0, cstring "" */]
00001C24  7043                     moveq.l    D0, 0x43
label00001C26:
00001C26  4EAD 03D2                jsr        [A5 + 0x3D2 /* export_118, CODE:4 @ 00005C2A */]
00001C2A  91CA                     sub.l      A0, A2
00001C2C  3008                     move.w     D0, A0
00001C2E  93CA                     sub.l      A1, A2
00001C30  3209                     move.w     D1, A1
00001C32  4EAD 01E2                jsr        [A5 + 0x1E2 /* export_56, CODE:2 @ 00003234 */]
00001C36  302D FE72                move.w     D0, [A5 - 0x18E]
00001C3A  5240                     addq.w     D0, 1
00001C3C  4EAD 02CA                jsr        [A5 + 0x2CA /* export_85, CODE:4 @ 000025BE */]
00001C40  4240                     clr.w      D0
00001C42  41FA 49FA                lea.l      A0, [PC + 0x49FA /* 0000663E, value 0xB0015, cstring "" */]
00001C46  4EAD 02C2                jsr        [A5 + 0x2C2 /* export_84, CODE:4 @ 000024D4 */]
00001C4A  303C 0001                move.w     D0, 0x1
00001C4E  41FA 4AC6                lea.l      A0, [PC + 0x4AC6 /* 00006716, value 0x1CF01D9 */]
00001C52  4EAD 02C2                jsr        [A5 + 0x2C2 /* export_84, CODE:4 @ 000024D4 */]
00001C56  2B7C 0001 0029 FCBC      move.l     [A5 - 0x344], 0x10029
00001C5E  2B7C 00DA 005A FCC0      move.l     [A5 - 0x340], 0xDA005A
00001C66  2B7C 0001 0029 FCB4      move.l     [A5 - 0x34C], 0x10029
00001C6E  2B7C 00DA 018E FCB8      move.l     [A5 - 0x348], 0xDA018E
00001C76  426D FC66                clr.w      [A5 - 0x39A]
00001C7A  0C6D 0001 FE72           cmpi.w     [A5 - 0x18E], 0x1
00001C80  6F40                     ble        +0x42 /* 00001CC2 */
00001C82  303C 00C0                move.w     D0, 0xC0
00001C86  323C 00F5                move.w     D1, 0xF5
00001C8A  343C 005F                move.w     D2, 0x5F /* '_' */
00001C8E  363C 00C3                move.w     D3, 0xC3
00001C92  383C 003F                move.w     D4, 0x3F /* '?' */
00001C96  3A3C 006E                move.w     D5, 0x6E /* 'n' */
00001C9A  3C3C 0002                move.w     D6, 0x2
00001C9E  4EAD 027A                jsr        [A5 + 0x27A /* export_75, CODE:4 @ 0000135C */]
00001CA2  303C 012F                move.w     D0, 0x12F
00001CA6  323C 00F5                move.w     D1, 0xF5
00001CAA  343C 012A                move.w     D2, 0x12A
00001CAE  363C 0191                move.w     D3, 0x191
00001CB2  383C 003F                move.w     D4, 0x3F /* '?' */
00001CB6  3A3C 006E                move.w     D5, 0x6E /* 'n' */
00001CBA  3C3C 0002                move.w     D6, 0x2
00001CBE  4EAD 027A                jsr        [A5 + 0x27A /* export_75, CODE:4 @ 0000135C */]
label00001CC2:
00001CC2  41FA 0054                lea.l      A0, [PC + 0x54 /* 00001D18, value 0x7BFFFF, cstring "" */]
00001CC6  4EAD 0282                jsr        [A5 + 0x282 /* export_76, CODE:4 @ 000013AE */]
00001CCA  41FA 0074                lea.l      A0, [PC + 0x74 /* 00001D40, value 0x171FFFF */]
00001CCE  4EAD 0282                jsr        [A5 + 0x282 /* export_76, CODE:4 @ 000013AE */]
00001CD2  41FA 4298                lea.l      A0, [PC + 0x4298 /* 00005F6C, value 0x0, cstring "" */]
00001CD6  43FA 4B32                lea.l      A1, [PC + 0x4B32 /* 0000680A, value 0x30240, cstring "" */]
00001CDA  93C8                     sub.l      A1, A0
00001CDC  3209                     move.w     D1, A1
00001CDE  303C 0005                move.w     D0, 0x5
00001CE2  4EAD 0362                jsr        [A5 + 0x362 /* export_104, CODE:4 @ 0000529C */]
00001CE6  41FA 4284                lea.l      A0, [PC + 0x4284 /* 00005F6C, value 0x0, cstring "" */]
00001CEA  43FA 4B26                lea.l      A1, [PC + 0x4B26 /* 00006812, value 0x30318, cstring "" */]
00001CEE  93C8                     sub.l      A1, A0
00001CF0  3209                     move.w     D1, A1
00001CF2  303C 0004                move.w     D0, 0x4
00001CF6  4EAD 0372                jsr        [A5 + 0x372 /* export_106, CODE:4 @ 000053A4 */]
00001CFA  4A6D FD80                tst.w      [A5 - 0x280]
00001CFE  6612                     bne        +0x14 /* 00001D12 */
00001D00  3B7C FFFF FD80           move.w     [A5 - 0x280], 0xFFFF
00001D06  303C 00E3                move.w     D0, 0xE3
00001D0A  323C 00DD                move.w     D1, 0xDD
00001D0E  4EBA 025A                jsr        [PC + 0x25A /* 00001F6A */]
label00001D12:
00001D12  4EAD 032A                jsr        [A5 + 0x32A /* export_97, CODE:4 @ 00004E92 */]
00001D16  4E75                     rts
00001D18  007B FFFF 005F           ori.w      [PC + D0.w + 0x5F], 0xFFFF
00001D1E  007E FFFE                ori.w      <<invalid special address>>, 0xFFFE
00001D22  0000 0000                ori.b      D0, 0x0
00001D26  0000 0000                ori.b      D0, 0x0
00001D2A  0032 001F 0002           ori.b      [A2 + D0.w + 0x2], 0x1F
00001D30  0000 0001                ori.b      D0, 0x1
00001D34  0082 00A1 0061           ori.l      D2, 0xA10061
00001D3A  0061 0061                ori.w      -[A1], 0x61 /* 'a' */
00001D3E  0064 0171                ori.w      -[A4], 0x171
00001D42  FFFF                     .invalid   <<F/7/7>>
00001D44  0171 0191                bchg       [[ + D0]], D0
00001D48  0002 0000                ori.b      D2, 0x0
00001D4C  0000 0000                ori.b      D0, 0x0
00001D50  0000 0032                ori.b      D0, 0x32 /* '2' */
00001D54  001F 0002                ori.b      [A7]+, 0x2
00001D58  0000 0001                ori.b      D0, 0x1
00001D5C  0082 00A1 018D           ori.l      D2, 0xA1018D
00001D62  018D                     bclr       A5, D0
00001D64  018D                     bclr       A5, D0
00001D66  0064 2B48                ori.w      -[A4], 0x2B48 /* '+H' */
// begin alternate branch 00001D68-00001D6C
fn00001D68:
00001D68  2B48 FD84                move.l     [A5 - 0x27C], A0
// end alternate branch 00001D68-00001D6C
fn00001D68: // (misaligned)
00001D6A  FD84                     .invalid   <<F/6/6>>
00001D6C  43FA 32CC                lea.l      A1, [PC + 0x32CC /* 0000503A, value 0xFC010E, cstring "" */]
00001D70  45FA 2E1E                lea.l      A2, [PC + 0x2E1E /* 00004B90, value 0x0, cstring "" */]
00001D74  3A18                     move.w     D5, [A0]+
00001D76  4EAD 03EA                jsr        [A5 + 0x3EA /* export_121, CODE:4 @ 00005C68 */]
00001D7A  4840                     swap.w     D0
00001D7C  4240                     clr.w      D0
00001D7E  4840                     swap.w     D0
00001D80  80C5                     divu.w     D0, D5
00001D82  4840                     swap.w     D0
00001D84  3B40 FD88                move.w     [A5 - 0x278], D0
00001D88  E540                     asl        D0.w, 2
00001D8A  2A30 0000                move.l     D5, [A0 + D0.w]
00001D8E  7813                     moveq.l    D4, 0x13
label00001D90:
00001D90  3404                     move.w     D2, D4
00001D92  E342                     asl        D2.w, 1
00001D94  3231 2000                move.w     D1, [A1 + D2.w]
00001D98  3032 1000                move.w     D0, [A2 + D1.w]
00001D9C  0905                     btst       D5, D4
00001D9E  6706                     beq        +0x8 /* 00001DA6 */
00001DA0  D069 FFFE                add.w      D0, [A1 - 0x2]
00001DA4  6002                     bra        +0x4 /* 00001DA8 */
label00001DA6:
00001DA6  5340                     subq.w     D0, 1
label00001DA8:
00001DA8  3580 1002                move.w     [A2 + D1.w + 0x2], D0
00001DAC  51CC FFE2                dbf        D4, -0x20 /* 00001D90 */
00001DB0  7008                     moveq.l    D0, 0x08
00001DB2  A31E                     syscall    NewPtrClear, flags=3
00001DB4  43FA 00BC                lea.l      A1, [PC + 0xBC /* 00001E72, value 0x303C003D '0<\0=', cstring "0<" */]
00001DB8  2149 0004                move.l     [A0 + 0x4], A1
00001DBC  20AD FE7E                move.l     [A0], [A5 - 0x182]
00001DC0  2B48 FE7E                move.l     [A5 - 0x182], A0
00001DC4  426D FCE4                clr.w      [A5 - 0x31C]
00001DC8  4E75                     rts
fn00001DCA:
00001DCA  48E7 F8D0                movem.l    -[A7], D0,D1,D2,D3,D4,A0,A1,A3
00001DCE  206D FD84                movea.l    A0, [A5 - 0x27C]
00001DD2  47FA 328E                lea.l      A3, [PC + 0x328E /* 00005062, value 0x9000A7, cstring "" */]
00001DD6  302D FD88                move.w     D0, [A5 - 0x278]
00001DDA  E540                     asl        D0.w, 2
00001DDC  2A30 0002                move.l     D5, [A0 + D0.w + 0x2]
00001DE0  7813                     moveq.l    D4, 0x13
00001DE2  206D FFA8                movea.l    A0, [A5 - 0x58]
00001DE6  226D FD7C                movea.l    A1, [A5 - 0x284]
00001DEA  4242                     clr.w      D2
label00001DEC:
00001DEC  0905                     btst       D5, D4
00001DEE  6710                     beq        +0x12 /* 00001E00 */
00001DF0  3604                     move.w     D3, D4
00001DF2  E543                     asl        D3.w, 2
00001DF4  3033 3000                move.w     D0, [A3 + D3.w]
00001DF8  3233 3002                move.w     D1, [A3 + D3.w + 0x2]
00001DFC  4EAD 0202                jsr        [A5 + 0x202 /* export_60, CODE:4 @ 00000000 */]
label00001E00:
00001E00  51CC FFEA                dbf        D4, -0x18 /* 00001DEC */
00001E04  4CDF 0B1F                movem.l    D0,D1,D2,D3,D4,A0,A1,A3, [A7]+
00001E08  4E75                     rts
export_128:
00001E0A  4A6D FCE4                tst.w      [A5 - 0x31C]
00001E0E  6E28                     bgt        +0x2A /* 00001E38 */
00001E10  6D22                     blt        +0x24 /* 00001E34 */
00001E12  082E 0004 0015           btst.b     [A6 + 0x15], 0x4
00001E18  661A                     bne        +0x1C /* 00001E34 */
00001E1A  082E 0002 0014           btst.b     [A6 + 0x14], 0x2
00001E20  6712                     beq        +0x14 /* 00001E34 */
00001E22  3B7C FFFF FCE4           move.w     [A5 - 0x31C], 0xFFFF
00001E28  08AE 0002 0014           bclr.b     [A6 + 0x14], 0x2
00001E2E  3D7C FFFF 001E           move.w     [A6 + 0x1E], 0xFFFF
label00001E34:
00001E34  4EED 01DA                jmp        [A5 + 0x1DA /* export_55, CODE:2 @ 00000C6C */]
label00001E38:
00001E38  342D FCE4                move.w     D2, [A5 - 0x31C]
00001E3C  0C42 0009                cmpi.w     D2, 0x9 /* '\t' */
00001E40  6EF2                     bgt        -0xC /* 00001E34 */
00001E42  5342                     subq.w     D2, 1
00001E44  143B 2022                move.b     D2, [PC + D2.w + 0x22]
00001E48  4882                     ext.w      D2
00001E4A  3032 4000                move.w     D0, [A2 + D4.w]
00001E4E  5F41                     subq.w     D1, 7
00001E50  5140                     subq.w     D0, 8
00001E52  286E 0016                movea.l    A4, [A6 + 0x16]
00001E56  226C 00C8                movea.l    A1, [A4 + 0xC8]
00001E5A  206D FFA8                movea.l    A0, [A5 - 0x58]
00001E5E  4EAD 0202                jsr        [A5 + 0x202 /* export_60, CODE:4 @ 00000000 */]
00001E62  4EED 01CA                jmp        [A5 + 0x1CA /* export_53, CODE:2 @ 00000514 */]
00001E66  4E75                     rts
00001E68  0000 0102                ori.b      D0, 0x2
00001E6C  0304                     btst       D4, D1
00001E6E  0403 0300                subi.b     D3, 0x0
00001E72  303C 003D                move.w     D0, 0x3D /* '=' */
00001E76  323C 00F5                move.w     D1, 0xF5
00001E7A  206D FFA8                movea.l    A0, [A5 - 0x58]
00001E7E  226D FCE6                movea.l    A1, [A5 - 0x31A]
00001E82  342D FCE4                move.w     D2, [A5 - 0x31C]
00001E86  6E0A                     bgt        +0xC /* 00001E92 */
00001E88  6D60                     blt        +0x62 /* 00001EEA */
label00001E8A:
00001E8A  4242                     clr.w      D2
00001E8C  4EAD 0202                jsr        [A5 + 0x202 /* export_60, CODE:4 @ 00000000 */]
00001E90  606C                     bra        +0x6E /* 00001EFE */
label00001E92:
00001E92  0C42 0005                cmpi.w     D2, 0x5
00001E96  6E08                     bgt        +0xA /* 00001EA0 */
00001E98  5342                     subq.w     D2, 1
00001E9A  4EAD 0202                jsr        [A5 + 0x202 /* export_60, CODE:4 @ 00000000 */]
00001E9E  6044                     bra        +0x46 /* 00001EE4 */
label00001EA0:
00001EA0  0C42 0014                cmpi.w     D2, 0x14
00001EA4  660C                     bne        +0xE /* 00001EB2 */
00001EA6  3F00                     move.w     -[A7], D0
00001EA8  303C 001D                move.w     D0, 0x1D
00001EAC  4EAD 0052                jsr        [A5 + 0x52 /* export_6, CODE:1 @ 00000114 */]
00001EB0  301F                     move.w     D0, [A7]+
label00001EB2:
00001EB2  6E14                     bgt        +0x16 /* 00001EC8 */
00001EB4  343C 0004                move.w     D2, 0x4
00001EB8  4EAD 0202                jsr        [A5 + 0x202 /* export_60, CODE:4 @ 00000000 */]
00001EBC  4EBA FF0C                jsr        [PC - 0xF4 /* 00001DCA */]
00001EC0  3B7C FFFF FCC6           move.w     [A5 - 0x33A], 0xFFFF
00001EC6  601C                     bra        +0x1E /* 00001EE4 */
label00001EC8:
00001EC8  0C42 0018                cmpi.w     D2, 0x18
00001ECC  6E0C                     bgt        +0xE /* 00001EDA */
00001ECE  0442 0018                subi.w     D2, 0x18
00001ED2  4442                     neg.w      D2
00001ED4  4EAD 0202                jsr        [A5 + 0x202 /* export_60, CODE:4 @ 00000000 */]
00001ED8  600A                     bra        +0xC /* 00001EE4 */
label00001EDA:
00001EDA  426D FCE4                clr.w      [A5 - 0x31C]
00001EDE  426D FCC6                clr.w      [A5 - 0x33A]
00001EE2  60A6                     bra        -0x58 /* 00001E8A */
label00001EE4:
00001EE4  526D FCE4                addq.w     [A5 - 0x31C], 1
00001EE8  6014                     bra        +0x16 /* 00001EFE */
label00001EEA:
00001EEA  3B7C 0001 FCE4           move.w     [A5 - 0x31C], 0x1
00001EF0  3F00                     move.w     -[A7], D0
00001EF2  303C 001D                move.w     D0, 0x1D
00001EF6  4EAD 0052                jsr        [A5 + 0x52 /* export_6, CODE:1 @ 00000114 */]
00001EFA  301F                     move.w     D0, [A7]+
00001EFC  608C                     bra        -0x72 /* 00001E8A */
label00001EFE:
00001EFE  4E75                     rts
export_129:
00001F00  48E7 C0C0                movem.l    -[A7], D0,D1,A0,A1
00001F04  700C                     moveq.l    D0, 0x0C
00001F06  A31E                     syscall    NewPtrClear, flags=3
00001F08  43FA 001E                lea.l      A1, [PC + 0x1E /* 00001F28, value 0x342E0002, cstring "4." */]
00001F0C  2149 0004                move.l     [A0 + 0x4], A1
00001F10  317C 0004 0008           move.w     [A0 + 0x8], 0x4
00001F16  4268 000A                clr.w      [A0 + 0xA]
00001F1A  20AD FE7E                move.l     [A0], [A5 - 0x182]
00001F1E  2B48 FE7E                move.l     [A5 - 0x182], A0
00001F22  4CDF 0303                movem.l    D0,D1,A0,A1, [A7]+
00001F26  4E75                     rts
00001F28  342E 0002                move.w     D2, [A6 + 0x2]
00001F2C  5356                     subq.w     [A6], 1
00001F2E  6C24                     bge        +0x26 /* 00001F54 */
00001F30  5242                     addq.w     D2, 1
00001F32  0C42 0002                cmpi.w     D2, 0x2
00001F36  6D14                     blt        +0x16 /* 00001F4C */
00001F38  3CBC 7FFF                move.w     [A6], 0x7FFF
00001F3C  3D42 0002                move.w     [A6 + 0x2], D2
00001F40  43FA 01D8                lea.l      A1, [PC + 0x1D8 /* 0000211A, value 0xB001C, cstring "" */]
00001F44  337C 0001 000C           move.w     [A1 + 0xC], 0x1
00001F4A  6008                     bra        +0xA /* 00001F54 */
label00001F4C:
00001F4C  3D42 0002                move.w     [A6 + 0x2], D2
00001F50  3CBC 0004                move.w     [A6], 0x4
label00001F54:
00001F54  226D FE5C                movea.l    A1, [A5 - 0x1A4]
00001F58  206D FFA8                movea.l    A0, [A5 - 0x58]
00001F5C  303C 0008                move.w     D0, 0x8
00001F60  323C 000C                move.w     D1, 0xC
00001F64  4EAD 0202                jsr        [A5 + 0x202 /* export_60, CODE:4 @ 00000000 */]
00001F68  4E75                     rts
fn00001F6A:
00001F6A  3C00                     move.w     D6, D0
00001F6C  3E01                     move.w     D7, D1
00001F6E  7010                     moveq.l    D0, 0x10
00001F70  A31E                     syscall    NewPtrClear, flags=3
00001F72  43FA 0024                lea.l      A1, [PC + 0x24 /* 00001F98, value 0x342E0002, cstring "4." */]
00001F76  2149 0004                move.l     [A0 + 0x4], A1
00001F7A  317C 0004 0008           move.w     [A0 + 0x8], 0x4
00001F80  317C 0002 000A           move.w     [A0 + 0xA], 0x2
00001F86  3146 000C                move.w     [A0 + 0xC], D6
00001F8A  3147 000E                move.w     [A0 + 0xE], D7
00001F8E  20AD FE7E                move.l     [A0], [A5 - 0x182]
00001F92  2B48 FE7E                move.l     [A5 - 0x182], A0
00001F96  4E75                     rts
00001F98  342E 0002                move.w     D2, [A6 + 0x2]
00001F9C  5356                     subq.w     [A6], 1
00001F9E  6E0C                     bgt        +0xE /* 00001FAC */
00001FA0  5342                     subq.w     D2, 1
00001FA2  6D1E                     blt        +0x20 /* 00001FC2 */
00001FA4  3D42 0002                move.w     [A6 + 0x2], D2
00001FA8  3CBC 0004                move.w     [A6], 0x4
label00001FAC:
00001FAC  226D FE5C                movea.l    A1, [A5 - 0x1A4]
00001FB0  206D FFA8                movea.l    A0, [A5 - 0x58]
00001FB4  302E 0004                move.w     D0, [A6 + 0x4]
00001FB8  322E 0006                move.w     D1, [A6 + 0x6]
00001FBC  4EAD 0202                jsr        [A5 + 0x202 /* export_60, CODE:4 @ 00000000 */]
00001FC0  6012                     bra        +0x14 /* 00001FD4 */
label00001FC2:
00001FC2  3F00                     move.w     -[A7], D0
00001FC4  303C 003C                move.w     D0, 0x3C /* '<' */
00001FC8  4EAD 0052                jsr        [A5 + 0x52 /* export_6, CODE:1 @ 00000114 */]
00001FCC  301F                     move.w     D0, [A7]+
00001FCE  42AE FFFC                clr.l      [A6 - 0x4]
00001FD2  4E71                     nop
label00001FD4:
00001FD4  4E75                     rts
00001FD6  0000 0000                ori.b      D0, 0x0
00001FDA  0000 0000                ori.b      D0, 0x0
00001FDE  0000 FE0C                ori.b      D0, 0xC
00001FE2  005A 0002                ori.w      [A2]+, 0x2
00001FE6  007E 0009                ori.w      <<invalid special address>>, 0x9 /* '\t' */
00001FEA  007E 000F                ori.w      <<invalid special address>>, 0xF
00001FEE  007E 0017                ori.w      <<invalid special address>>, 0x17
00001FF2  00A2 0036 010E           ori.l      -[A2], 0x36010E
00001FF8  0072 019E 00B8           ori.w      [A2 + D0.w - 0x48], 0x19E
00001FFE  0240 00DA                andi.w     D0, 0xDA
00002002  0306                     btst       D6, D1
00002004  00E2                     .incomplete
00002006  0306                     btst       D6, D1
00002008  00EA                     .incomplete
0000200A  0306                     btst       D6, D1
0000200C  00F2                     .incomplete
0000200E  0306                     btst       D6, D1
00002010  00FA                     .incomplete
00002012  0306                     btst       D6, D1
00002014  0108                     btst       A0, D0
00002016  034E                     bchg       A6, D1
00002018  010D                     btst       A5, D0
0000201A  03DE                     .incomplete
0000201C  0000 0000                ori.b      D0, 0x0
00002020  0000 0000                ori.b      D0, 0x0
00002024  0000 0000                ori.b      D0, 0x0
00002028  0000 0000                ori.b      D0, 0x0
0000202C  0000 0000                ori.b      D0, 0x0
00002030  0000 0000                ori.b      D0, 0x0
00002034  0000 0000                ori.b      D0, 0x0
00002038  0000 0000                ori.b      D0, 0x0
0000203C  0000 0000                ori.b      D0, 0x0
00002040  0000 FE0C                ori.b      D0, 0xC
00002044  FE0E 0001                .unknown   0xFE0E 0x0001 (W = 7)
00002048  0000 0000                ori.b      D0, 0x0
0000204C  0000 0000                ori.b      D0, 0x0
00002050  0000 0000                ori.b      D0, 0x0
00002054  0000 0000                ori.b      D0, 0x0
00002058  0000 0000                ori.b      D0, 0x0
0000205C  0000 0000                ori.b      D0, 0x0
00002060  0000 0000                ori.b      D0, 0x0
00002064  0000 0190                ori.b      D0, 0x90
00002068  01C6                     .incomplete
0000206A  0208 033C                andi.b     A0, 0x3C /* '<' */
0000206E  0000 001A                ori.b      D0, 0x1A
00002072  003A 0000 0000           ori.b      [PC /* 00002074 */], 0x0
00002078  0000 0000                ori.b      D0, 0x0
0000207C  0000 0000                ori.b      D0, 0x0
00002080  0000 0000                ori.b      D0, 0x0
00002084  0000 0000                ori.b      D0, 0x0
00002088  0000 0190                ori.b      D0, 0x90
0000208C  01C6                     .incomplete
0000208E  0208 033C                andi.b     A0, 0x3C /* '<' */
00002092  0000 001A                ori.b      D0, 0x1A
00002096  003A 0000 0000           ori.b      [PC /* 00002098 */], 0x0
0000209C  01C8                     .incomplete
0000209E  01DD                     .incomplete
000020A0  0001 0000                ori.b      D1, 0x0
000020A4  0000 0000                ori.b      D0, 0x0
000020A8  0000 0000                ori.b      D0, 0x0
000020AC  0000 01DE                ori.b      D0, 0xDE
000020B0  01E0                     .incomplete
000020B2  0001 0000                ori.b      D1, 0x0
000020B6  0000 0000                ori.b      D0, 0x0
000020BA  0000 0000                ori.b      D0, 0x0
000020BE  0000 01E1                ori.b      D0, 0xE1
000020C2  01EA                     .incomplete
000020C4  0005 0001                ori.b      D5, 0x1
000020C8  0000 0028                ori.b      D0, 0x28 /* '(' */
000020CC  0000 0000                ori.b      D0, 0x0
000020D0  0000 01EB                ori.b      D0, 0xEB
000020D4  01EB                     .incomplete
000020D6  0006 0000                ori.b      D6, 0x0
000020DA  0000 0000                ori.b      D0, 0x0
000020DE  0000 0000                ori.b      D0, 0x0
000020E2  0000 0000                ori.b      D0, 0x0
000020E6  0000 0000                ori.b      D0, 0x0
000020EA  0000 0000                ori.b      D0, 0x0
000020EE  0000 0000                ori.b      D0, 0x0
000020F2  0000 0000                ori.b      D0, 0x0
000020F6  0003 0003                ori.b      D3, 0x3
000020FA  001B 0000                ori.b      [A3]+, 0x0
000020FE  0000 0000                ori.b      D0, 0x0
00002102  0000 0000                ori.b      D0, 0x0
00002106  0000 0004                ori.b      D0, 0x4
0000210A  000A 0001                ori.b      A2, 0x1
0000210E  0000 0000                ori.b      D0, 0x0
00002112  0000 0000                ori.b      D0, 0x0
00002116  0000 0000                ori.b      D0, 0x0
0000211A  000B 001C                ori.b      A3, 0x1C
0000211E  0013 FFFF                ori.b      [A3], 0xFF
00002122  0000 0029                ori.b      D0, 0x29 /* ')' */
00002126  0000 0000                ori.b      D0, 0x0
0000212A  0000 001D                ori.b      D0, 0x1D
0000212E  002D 0014 0000           ori.b      [A5 + 0x0], 0x14
00002134  0000 0000                ori.b      D0, 0x0
00002138  0000 0000                ori.b      D0, 0x0
0000213C  0000 002E                ori.b      D0, 0x2E /* '.' */
00002140  003B 0001 0000           ori.b      [PC + D0.w], 0x1
00002146  0000 0000                ori.b      D0, 0x0
0000214A  0000 0000                ori.b      D0, 0x0
0000214E  0000 003C                ori.b      D0, 0x3C /* '<' */
00002152  0046 0009                ori.w      D6, 0x9 /* '\t' */
00002156  0000 01F8                ori.b      D0, 0xF8
0000215A  0000 0022                ori.b      D0, 0x22 /* '\"' */
0000215E  0001 0000                ori.b      D1, 0x0
00002162  0047 0047                ori.w      D7, 0x47 /* 'G' */
00002166  0006 0000                ori.b      D6, 0x0
0000216A  0000 0000                ori.b      D0, 0x0
0000216E  0000 0000                ori.b      D0, 0x0
00002172  0000 0000                ori.b      D0, 0x0
00002176  0000 0000                ori.b      D0, 0x0
0000217A  0000 0000                ori.b      D0, 0x0
0000217E  0000 0000                ori.b      D0, 0x0
00002182  0000 0000                ori.b      D0, 0x0
00002186  0003 0003                ori.b      D3, 0x3
0000218A  001B 0000                ori.b      [A3]+, 0x0
0000218E  0000 0000                ori.b      D0, 0x0
00002192  0000 0000                ori.b      D0, 0x0
00002196  0000 0004                ori.b      D0, 0x4
0000219A  001E 0001                ori.b      [A6]+, 0x1
0000219E  0000 0000                ori.b      D0, 0x0
000021A2  0000 0000                ori.b      D0, 0x0
000021A6  0000 0000                ori.b      D0, 0x0
000021AA  001F 002B                ori.b      [A7]+, 0x2B /* '+' */
000021AE  0001 0072                ori.b      D1, 0x72 /* 'r' */
000021B2  0000 0000                ori.b      D0, 0x0
000021B6  0000 0000                ori.b      D0, 0x0
000021BA  0000 002C                ori.b      D0, 0x2C /* ',' */
000021BE  00AA 0001 0000 0000      ori.l      [A2 + 0x0], 0x10000
000021C6  0000 0000                ori.b      D0, 0x0
000021CA  0000 0000                ori.b      D0, 0x0
000021CE  00AB 00B5 000A 017A      ori.l      [A3 + 0x17A], 0xB5000A
000021D6  0000 001E                ori.b      D0, 0x1E
000021DA  0000 0001                ori.b      D0, 0x1
000021DE  0000 00B6                ori.b      D0, 0xB6
000021E2  00E8                     .incomplete
000021E4  0001 0000                ori.b      D1, 0x0
000021E8  0000 0000                ori.b      D0, 0x0
000021EC  0000 0000                ori.b      D0, 0x0
000021F0  0000 00E9                ori.b      D0, 0xE9
000021F4  00F3                     .incomplete
000021F6  0009 0000                ori.b      A1, 0x0
000021FA  029A 0000 0026           andi.l     [A2]+, 0x26 /* '&' */
00002200  FFFF                     .invalid   <<F/7/7>>
00002202  0000 00F4                ori.b      D0, 0xF4
00002206  0109                     btst       A1, D0
00002208  0001 0000                ori.b      D1, 0x0
0000220C  0000 0000                ori.b      D0, 0x0
00002210  0000 0000                ori.b      D0, 0x0
00002214  0000 0000                ori.b      D0, 0x0
00002218  0000 0000                ori.b      D0, 0x0
0000221C  0000 0000                ori.b      D0, 0x0
00002220  0000 0000                ori.b      D0, 0x0
00002224  0000 0000                ori.b      D0, 0x0
00002228  0003 0003                ori.b      D3, 0x3
0000222C  001B 0000                ori.b      [A3]+, 0x0
00002230  0000 0000                ori.b      D0, 0x0
00002234  0000 0000                ori.b      D0, 0x0
00002238  0000 0004                ori.b      D0, 0x4
0000223C  0014 0001                ori.b      [A4], 0x1
00002240  0000 0000                ori.b      D0, 0x0
00002244  0000 0000                ori.b      D0, 0x0
00002248  0000 0000                ori.b      D0, 0x0
0000224C  0015 0021                ori.b      [A5], 0x21 /* '!' */
00002250  0001 00B8                ori.b      D1, 0xB8
00002254  0000 0000                ori.b      D0, 0x0
00002258  0000 0000                ori.b      D0, 0x0
0000225C  0000 0022                ori.b      D0, 0x22 /* '\"' */
00002260  0062 0001                ori.w      -[A2], 0x1
00002264  0000 0000                ori.b      D0, 0x0
00002268  0000 0000                ori.b      D0, 0x0
0000226C  0000 0000                ori.b      D0, 0x0
00002270  0063 006D                ori.w      -[A3], 0x6D /* 'm' */
00002274  000A 021C                ori.b      A2, 0x1C
00002278  0000 0022                ori.b      D0, 0x22 /* '\"' */
0000227C  0000 FFFF                ori.b      D0, 0xFF
00002280  0000 006E                ori.b      D0, 0x6E /* 'n' */
00002284  00DE                     .incomplete
00002286  0001 0000                ori.b      D1, 0x0
0000228A  0000 0000                ori.b      D0, 0x0
0000228E  0000 0000                ori.b      D0, 0x0
00002292  0000 00DF                ori.b      D0, 0xDF
00002296  00E9                     .incomplete
00002298  0009 0000                ori.b      A1, 0x0
0000229C  03A8 0000                bclr       [A0 + 0x0], D1
000022A0  003E FFFF                ori.b      <<invalid special address>>, 0xFF
000022A4  0000 00EA                ori.b      D0, 0xEA
000022A8  010E                     btst       A6, D0
000022AA  0001 0000                ori.b      D1, 0x0
000022AE  0000 0000                ori.b      D0, 0x0
000022B2  0000 0000                ori.b      D0, 0x0
000022B6  0000 010F                ori.b      D0, 0xF
000022BA  011B                     btst       [A3]+, D0
000022BC  0001 00B8                ori.b      D1, 0xB8
000022C0  0000 0000                ori.b      D0, 0x0
000022C4  0000 0000                ori.b      D0, 0x0
000022C8  0000 011C                ori.b      D0, 0x1C
000022CC  0133 0001                btst       [A3 + D0.w + 0x1], D0
000022D0  0000 0000                ori.b      D0, 0x0
000022D4  0000 0000                ori.b      D0, 0x0
000022D8  0000 0000                ori.b      D0, 0x0
000022DC  0000 0000                ori.b      D0, 0x0
000022E0  0000 0000                ori.b      D0, 0x0
000022E4  0000 0000                ori.b      D0, 0x0
000022E8  0000 0000                ori.b      D0, 0x0
000022EC  0000 018A                ori.b      D0, 0x8A
000022F0  019E                     bclr       [A6]+, D0
000022F2  0207 0000                andi.b     D7, 0x0
000022F6  032A 000A                btst       [A2 + 0xA], D1
000022FA  00FB                     .incomplete
000022FC  0000 0000                ori.b      D0, 0x0
00002300  01A4                     bclr       -[A4], D0
00002302  01B8 0207                bclr       [0x00000207 /* SPPrint */], D0
00002306  0318                     btst       [A0]+, D1
00002308  033C 000A                btst       0xA /* '\n' */, D1
0000230C  00FB                     .incomplete
0000230E  0000 0000                ori.b      D0, 0x0
00002312  01BF                     bclr       <<invalid special address>>, D0
00002314  01D3                     .incomplete
00002316  0207 032A                andi.b     D7, 0x2A /* '*' */
0000231A  00B4 000A 00FB 0000      ori.l      [A4 + D0.w], 0xA00FB
00002322  0000 0000                ori.b      D0, 0x0
00002326  0000 0000                ori.b      D0, 0x0
0000232A  0000 0000                ori.b      D0, 0x0
0000232E  0000 0000                ori.b      D0, 0x0
00002332  0000 0000                ori.b      D0, 0x0
00002336  0003 0003                ori.b      D3, 0x3
0000233A  001B 0000                ori.b      [A3]+, 0x0
0000233E  0000 0000                ori.b      D0, 0x0
00002342  0000 0000                ori.b      D0, 0x0
00002346  0000 0004                ori.b      D0, 0x4
0000234A  000E 0001                ori.b      A6, 0x1
0000234E  0000 0000                ori.b      D0, 0x0
00002352  0000 0000                ori.b      D0, 0x0
00002356  0000 0000                ori.b      D0, 0x0
0000235A  000F 001B                ori.b      A7, 0x1B
0000235E  0001 0108                ori.b      D1, 0x8
00002362  0000 0000                ori.b      D0, 0x0
00002366  0000 0000                ori.b      D0, 0x0
0000236A  0000 001C                ori.b      D0, 0x1C
0000236E  0048 0001                ori.w      A0, 0x1
00002372  0000 0000                ori.b      D0, 0x0
00002376  0000 0000                ori.b      D0, 0x0
0000237A  0000 0000                ori.b      D0, 0x0
0000237E  0049 0053                ori.w      A1, 0x53 /* 'S' */
00002382  000A 02BE                ori.b      A2, 0xBE
00002386  0000 0026                ori.b      D0, 0x26 /* '&' */
0000238A  0000 FFFF                ori.b      D0, 0xFF
0000238E  0000 0054                ori.b      D0, 0x54 /* 'T' */
00002392  00EC                     .incomplete
00002394  0001 0000                ori.b      D1, 0x0
00002398  0000 0000                ori.b      D0, 0x0
0000239C  0000 0000                ori.b      D0, 0x0
000023A0  0000 00ED                ori.b      D0, 0xED
000023A4  00ED                     .incomplete
000023A6  0010 0438                ori.b      [A0], 0x38 /* '8' */
000023AA  0000 0042                ori.b      D0, 0x42 /* 'B' */
000023AE  0000 0000                ori.b      D0, 0x0
000023B2  0000 0000                ori.b      D0, 0x0
000023B6  0000 0000                ori.b      D0, 0x0
000023BA  0000 0000                ori.b      D0, 0x0
000023BE  0000 0000                ori.b      D0, 0x0
000023C2  0000 0000                ori.b      D0, 0x0
000023C6  0003 0003                ori.b      D3, 0x3
000023CA  0006 0000                ori.b      D6, 0x0
000023CE  0000 0000                ori.b      D0, 0x0
000023D2  0000 0000                ori.b      D0, 0x0
000023D6  0000 0004                ori.b      D0, 0x4
000023DA  00E7                     .incomplete
000023DC  0001 0000                ori.b      D1, 0x0
000023E0  0000 0000                ori.b      D0, 0x0
000023E4  0000 0000                ori.b      D0, 0x0
000023E8  0000 00E8                ori.b      D0, 0xE8
000023EC  00E8                     .incomplete
000023EE  0006 0000                ori.b      D6, 0x0
000023F2  0000 0000                ori.b      D0, 0x0
000023F6  0000 0000                ori.b      D0, 0x0
000023FA  0000 00E9                ori.b      D0, 0xE9
000023FE  00E9                     .incomplete
00002400  0010 03BA                ori.b      [A0], 0xBA
00002404  0000 003E                ori.b      D0, 0x3E /* '>' */
00002408  0000 0000                ori.b      D0, 0x0
0000240C  0000 00EA                ori.b      D0, 0xEA
00002410  01E0                     .incomplete
00002412  0001 0000                ori.b      D1, 0x0
00002416  0000 0000                ori.b      D0, 0x0
0000241A  0000 0000                ori.b      D0, 0x0
0000241E  0000 01E1                ori.b      D0, 0xE1
00002422  01E1                     .incomplete
00002424  001B 0000                ori.b      [A3]+, 0x0
00002428  0000 0000                ori.b      D0, 0x0
0000242C  0000 0000                ori.b      D0, 0x0
00002430  0000 0000                ori.b      D0, 0x0
00002434  0000 0000                ori.b      D0, 0x0
00002438  0000 0000                ori.b      D0, 0x0
0000243C  0000 0000                ori.b      D0, 0x0
00002440  0000 0000                ori.b      D0, 0x0
00002444  0004 01D4                ori.b      D4, 0xD4
00002448  0276 02E2 0384           andi.w     <<invalid full ext with I/IS == 4>>, 0x2E2
0000244E  4E75                     rts
00002450  0000 0000                ori.b      D0, 0x0
00002454  0000 0000                ori.b      D0, 0x0
00002458  0000 FE0C                ori.b      D0, 0xC
0000245C  0048 0046                ori.w      A0, 0x46 /* 'F' */
00002460  006C 004B 006C           ori.w      [A4 + 0x6C], 0x4B /* 'K' */
00002466  0050 006C                ori.w      [A0], 0x6C /* 'l' */
0000246A  0055 006C                ori.w      [A5], 0x6C /* 'l' */
0000246E  005A 00A2                ori.w      [A2]+, 0xA2
00002472  005C 00FC                ori.w      [A4]+, 0xFC
00002476  00A7 0144 00EF           ori.l      -[A7], 0x14400EF
0000247C  01C2                     .incomplete
0000247E  00F4                     .incomplete
00002480  021C 010D                andi.b     [A4]+, 0xD /* '\r' */
00002484  02E2                     .incomplete
00002486  0000 0000                ori.b      D0, 0x0
0000248A  0000 0000                ori.b      D0, 0x0
0000248E  0000 0000                ori.b      D0, 0x0
00002492  0000 0000                ori.b      D0, 0x0
00002496  0000 0000                ori.b      D0, 0x0
0000249A  0000 0000                ori.b      D0, 0x0
0000249E  0000 0000                ori.b      D0, 0x0
000024A2  0000 0000                ori.b      D0, 0x0
000024A6  0000 0000                ori.b      D0, 0x0
000024AA  FE0C FE0E                .unknown   0xFE0C 0xFE0E (W = 7)
000024AE  0001 0000                ori.b      D1, 0x0
000024B2  0000 0000                ori.b      D0, 0x0
000024B6  0000 0000                ori.b      D0, 0x0
000024BA  0000 0000                ori.b      D0, 0x0
000024BE  0000 0000                ori.b      D0, 0x0
000024C2  0000 0000                ori.b      D0, 0x0
000024C6  0000 0000                ori.b      D0, 0x0
000024CA  0000 0000                ori.b      D0, 0x0
000024CE  005F 00BE                ori.w      [A7]+, 0xBE
000024D2  020D 0000                andi.b     A5, 0x0
000024D6  0000 0000                ori.b      D0, 0x0
000024DA  0000 0000                ori.b      D0, 0x0
000024DE  0000 012C                ori.b      D0, 0x2C /* ',' */
000024E2  0190                     bclr       [A0], D0
000024E4  020D 0001                andi.b     A5, 0x1
000024E8  0000 0000                ori.b      D0, 0x0
000024EC  0000 0000                ori.b      D0, 0x0
000024F0  0000 0000                ori.b      D0, 0x0
000024F4  0000 0000                ori.b      D0, 0x0
000024F8  0000 0000                ori.b      D0, 0x0
000024FC  0000 0000                ori.b      D0, 0x0
00002500  0000 0000                ori.b      D0, 0x0
00002504  0187                     bclr       D7, D0
00002506  01B6 0001                bclr       [A6 + D0.w + 0x1], D0
0000250A  0000 0000                ori.b      D0, 0x0
0000250E  0000 0000                ori.b      D0, 0x0
00002512  0000 0000                ori.b      D0, 0x0
00002516  01B7 01CF                bclr       <<invalid full ext with IS == 1 and I/IS == 7>>, D0
0000251A  0002 0000                ori.b      D2, 0x0
0000251E  018C                     bclr       A4, D0
00002520  0000 0026                ori.b      D0, 0x26 /* '&' */
00002524  0000 0000                ori.b      D0, 0x0
00002528  01D0                     .incomplete
0000252A  01E0                     .incomplete
0000252C  0001 0000                ori.b      D1, 0x0
00002530  0000 0000                ori.b      D0, 0x0
00002534  0000 0000                ori.b      D0, 0x0
00002538  0000 01E1                ori.b      D0, 0xE1
0000253C  01E1                     .incomplete
0000253E  001B 0000                ori.b      [A3]+, 0x0
00002542  0000 0000                ori.b      D0, 0x0
00002546  0000 0000                ori.b      D0, 0x0
0000254A  0000 0000                ori.b      D0, 0x0
0000254E  0000 0000                ori.b      D0, 0x0
00002552  0000 0000                ori.b      D0, 0x0
00002556  0000 0000                ori.b      D0, 0x0
0000255A  0000 0000                ori.b      D0, 0x0
0000255E  0003 0003                ori.b      D3, 0x3
00002562  0006 0000                ori.b      D6, 0x0
00002566  0000 0000                ori.b      D0, 0x0
0000256A  0000 0000                ori.b      D0, 0x0
0000256E  0000 0004                ori.b      D0, 0x4
00002572  000A 0005                ori.b      A2, 0x5
00002576  0000 0001                ori.b      D0, 0x1
0000257A  002B 0000 0000           ori.b      [A3 + 0x0], 0x0
00002580  0000 000B                ori.b      D0, 0xB
00002584  0066 0001                ori.w      -[A6], 0x1
00002588  0000 0000                ori.b      D0, 0x0
0000258C  0000 0000                ori.b      D0, 0x0
00002590  0000 0000                ori.b      D0, 0x0
00002594  0000 0000                ori.b      D0, 0x0
00002598  0000 0000                ori.b      D0, 0x0
0000259C  0000 0000                ori.b      D0, 0x0
000025A0  0000 0000                ori.b      D0, 0x0
000025A4  0000 00F0                ori.b      D0, 0xF0
000025A8  00FF                     .incomplete
000025AA  0001 00A7                ori.b      D1, 0xA7
000025AE  0000 0000                ori.b      D0, 0x0
000025B2  0000 0000                ori.b      D0, 0x0
000025B6  0000 0100                ori.b      D0, 0x0
000025BA  0118                     btst       [A0]+, D0
000025BC  0002 0000                ori.b      D2, 0x0
000025C0  0252 0000                andi.w     [A2], 0x0
000025C4  002E 0000 0000           ori.b      [A6 + 0x0], 0x0
000025CA  0119                     btst       [A1]+, D0
000025CC  01B6 0001                bclr       [A6 + D0.w + 0x1], D0
000025D0  0000 0000                ori.b      D0, 0x0
000025D4  0000 0000                ori.b      D0, 0x0
000025D8  0000 0000                ori.b      D0, 0x0
000025DC  01B7 01CF                bclr       <<invalid full ext with IS == 1 and I/IS == 7>>, D0
000025E0  0003 00C6                ori.b      D3, 0xC6
000025E4  0000 001E                ori.b      D0, 0x1E
000025E8  0000 0000                ori.b      D0, 0x0
000025EC  0000 01D0                ori.b      D0, 0xD0
000025F0  01E0                     .incomplete
000025F2  0001 0000                ori.b      D1, 0x0
000025F6  0000 0000                ori.b      D0, 0x0
000025FA  0000 0000                ori.b      D0, 0x0
000025FE  0000 01E1                ori.b      D0, 0xE1
00002602  01E1                     .incomplete
00002604  001B 0000                ori.b      [A3]+, 0x0
00002608  0000 0000                ori.b      D0, 0x0
0000260C  0000 0000                ori.b      D0, 0x0
00002610  0000 0000                ori.b      D0, 0x0
00002614  0000 0000                ori.b      D0, 0x0
00002618  0000 0000                ori.b      D0, 0x0
0000261C  0000 0000                ori.b      D0, 0x0
00002620  0000 0000                ori.b      D0, 0x0
00002624  0055 0055                ori.w      [A5], 0x55 /* 'U' */
00002628  0006 0000                ori.b      D6, 0x0
0000262C  0000 0000                ori.b      D0, 0x0
00002630  0000 0000                ori.b      D0, 0x0
00002634  0000 0056                ori.b      D0, 0x56 /* 'V' */
00002638  0060 0009                ori.w      -[A0], 0x9 /* '\t' */
0000263C  0000 032A                ori.b      D0, 0x2A /* '*' */
00002640  0000 0032                ori.b      D0, 0x32 /* '2' */
00002644  FFFF                     .invalid   <<F/7/7>>
00002646  0000 0061                ori.b      D0, 0x61 /* 'a' */
0000264A  008B 0001 0000           ori.l      A3, 0x10000
00002650  0000 0000                ori.b      D0, 0x0
00002654  0000 0000                ori.b      D0, 0x0
00002658  0000 008C                ori.b      D0, 0x8C
0000265C  008C 0010 0240           ori.l      A4, 0x100240
00002662  0000 002E                ori.b      D0, 0x2E /* '.' */
00002666  0000 0000                ori.b      D0, 0x0
0000266A  0000 0000                ori.b      D0, 0x0
0000266E  0000 0000                ori.b      D0, 0x0
00002672  0000 0000                ori.b      D0, 0x0
00002676  0000 0000                ori.b      D0, 0x0
0000267A  0000 0000                ori.b      D0, 0x0
0000267E  008C 008C 0010           ori.l      A4, 0x8C0010
00002684  01F8                     .incomplete
00002686  0000 002A                ori.b      D0, 0x2A /* '*' */
0000268A  0000 0000                ori.b      D0, 0x0
0000268E  0000 008D                ori.b      D0, 0x8D
00002692  00FF                     .incomplete
00002694  0001 0000                ori.b      D1, 0x0
00002698  0000 0000                ori.b      D0, 0x0
0000269C  0000 0000                ori.b      D0, 0x0
000026A0  0000 0100                ori.b      D0, 0x0
000026A4  0118                     btst       [A0]+, D0
000026A6  0003 0168                ori.b      D3, 0x68 /* 'h' */
000026AA  0000 0026                ori.b      D0, 0x26 /* '&' */
000026AE  0000 0000                ori.b      D0, 0x0
000026B2  0000 0119                ori.b      D0, 0x19
000026B6  0135 0001                btst       [A5 + D0.w + 0x1], D0
000026BA  0000 0000                ori.b      D0, 0x0
000026BE  0000 0000                ori.b      D0, 0x0
000026C2  0000 0000                ori.b      D0, 0x0
000026C6  0136 0142 0001           btst       [[A6 + <<invalid base displacement size>>] + 0x1], D0
000026CC  00F4                     .incomplete
000026CE  0000 0000                ori.b      D0, 0x0
000026D2  0000 0000                ori.b      D0, 0x0
000026D6  0000 0143                ori.b      D0, 0x43 /* 'C' */
000026DA  01B7 0001                bclr       [A7 + D0.w + 0x1], D0
000026DE  0000 0000                ori.b      D0, 0x0
000026E2  0000 0000                ori.b      D0, 0x0
000026E6  0000 0000                ori.b      D0, 0x0
000026EA  01B8 01C4                bclr       [0x000001C4], D0
000026EE  0001 00F4                ori.b      D1, 0xF4
000026F2  0000 0000                ori.b      D0, 0x0
000026F6  0000 0000                ori.b      D0, 0x0
000026FA  0000 01C5                ori.b      D0, 0xC5
000026FE  01D1                     .incomplete
00002700  0001 00F4                ori.b      D1, 0xF4
00002704  0000 0000                ori.b      D0, 0x0
00002708  0000 0000                ori.b      D0, 0x0
0000270C  0000 01D2                ori.b      D0, 0xD2
00002710  01E0                     .incomplete
00002712  0001 0000                ori.b      D1, 0x0
00002716  0000 0000                ori.b      D0, 0x0
0000271A  0000 0000                ori.b      D0, 0x0
0000271E  0000 01E1                ori.b      D0, 0xE1
00002722  01E1                     .incomplete
00002724  001B 0000                ori.b      [A3]+, 0x0
00002728  0000 0000                ori.b      D0, 0x0
0000272C  0000 0000                ori.b      D0, 0x0
00002730  0000 0000                ori.b      D0, 0x0
00002734  0000 0000                ori.b      D0, 0x0
00002738  0000 0000                ori.b      D0, 0x0
0000273C  0000 0000                ori.b      D0, 0x0
00002740  0000 0000                ori.b      D0, 0x0
00002744  0001 0001                ori.b      D1, 0x1
00002748  0006 0000                ori.b      D6, 0x0
0000274C  0000 0000                ori.b      D0, 0x0
00002750  0000 0000                ori.b      D0, 0x0
00002754  0000 0002                ori.b      D0, 0x2
00002758  0006 0005                ori.b      D6, 0x5
0000275C  0002 0001                ori.b      D2, 0x1
00002760  002A 0000 0000           ori.b      [A2 + 0x0], 0x0
00002766  0000 0007                ori.b      D0, 0x7
0000276A  0017 0001                ori.b      [A7], 0x1
0000276E  0000 0000                ori.b      D0, 0x0
00002772  0000 0000                ori.b      D0, 0x0
00002776  0000 0000                ori.b      D0, 0x0
0000277A  0018 0020                ori.b      [A0]+, 0x20 /* ' ' */
0000277E  000A 01E6                ori.b      A2, 0xE6
00002782  0000 002A                ori.b      D0, 0x2A /* '*' */
00002786  0000 FFFF                ori.b      D0, 0xFF
0000278A  0000 0021                ori.b      D0, 0x21 /* '!' */
0000278E  0078 0006 0000           ori.w      [0x00000000 /* __m68k_reset_stack__ */], 0x6
00002794  0000 0000                ori.b      D0, 0x0
00002798  0000 0000                ori.b      D0, 0x0
0000279C  0000 0079                ori.b      D0, 0x79 /* 'y' */
000027A0  0079 0006 0000 0000      ori.w      [0x00000000 /* __m68k_reset_stack__ */], 0x6
000027A8  0000 0000                ori.b      D0, 0x0
000027AC  0000 0000                ori.b      D0, 0x0
000027B0  007A 01E0 0006           ori.w      [PC + 0x6 /* 000027B8, value 0x0, cstring "" */], 0x1E0
000027B6  0000 0000                ori.b      D0, 0x0
000027BA  0000 0000                ori.b      D0, 0x0
000027BE  0000 0000                ori.b      D0, 0x0
000027C2  01E1                     .incomplete
000027C4  01E1                     .incomplete
000027C6  0006 0000                ori.b      D6, 0x0
000027CA  0000 0000                ori.b      D0, 0x0
000027CE  0000 0000                ori.b      D0, 0x0
000027D2  0000 0000                ori.b      D0, 0x0
000027D6  0000 0000                ori.b      D0, 0x0
000027DA  0000 0000                ori.b      D0, 0x0
000027DE  0000 0000                ori.b      D0, 0x0
000027E2  0000 0000                ori.b      D0, 0x0
000027E6  0003 0156                ori.b      D3, 0x56 /* 'V' */
000027EA  0276 029A 0001           andi.w     [A6 + D0.w + 0x1], 0x29A
000027F0  02AC 007E 006C 0000      andi.l     [A4 + 0x0], 0x7E006C /* '~\0l' */
000027F8  0005 0000                ori.b      D5, 0x0
000027FC  0000 0005                ori.b      D0, 0x5
00002800  0000 0000                ori.b      D0, 0x0
00002804  0005 0000                ori.b      D5, 0x0
00002808  0000 0004                ori.b      D0, 0x4
0000280C  0000 0001                ori.b      D0, 0x1
00002810  0004 0000                ori.b      D4, 0x0
00002814  0001 0003                ori.b      D1, 0x3
00002818  0000 0002                ori.b      D0, 0x2
0000281C  0002 0000                ori.b      D2, 0x0
00002820  0003 0001                ori.b      D3, 0x1
00002824  0000 0004                ori.b      D0, 0x4
00002828  0000 0000                ori.b      D0, 0x0
0000282C  0005 0000                ori.b      D5, 0x0
00002830  0001 0006                ori.b      D1, 0x6
00002834  0001 0001                ori.b      D1, 0x1
00002838  0007 0002                ori.b      D7, 0x2
0000283C  0001 0008                ori.b      D1, 0x8
00002840  0003 0001                ori.b      D3, 0x1
00002844  0009 0004                ori.b      A1, 0x4
00002848  0001 000A                ori.b      D1, 0xA /* '\n' */
0000284C  0004 0001                ori.b      D4, 0x1
00002850  000A 0005                ori.b      A2, 0x5
00002854  0001 000B                ori.b      D1, 0xB
00002858  0005 0001                ori.b      D5, 0x1
0000285C  000B 0005                ori.b      A3, 0x5
00002860  0001 000B                ori.b      D1, 0xB
00002864  0004 0001                ori.b      D4, 0x1
00002868  000C 0004                ori.b      A4, 0x4
0000286C  0001 000C                ori.b      D1, 0xC
00002870  0003 0001                ori.b      D3, 0x1
00002874  000D 0002                ori.b      A5, 0x2
00002878  0001 000E                ori.b      D1, 0xE
0000287C  0001 0001                ori.b      D1, 0x1
00002880  000F 0000                ori.b      A7, 0x0
00002884  0001 0010                ori.b      D1, 0x10
00002888  0000 0000                ori.b      D0, 0x0
0000288C  0011 0001                ori.b      [A1], 0x1
00002890  0000 0012                ori.b      D0, 0x12
00002894  0002 0000                ori.b      D2, 0x0
00002898  0013 0003                ori.b      [A3], 0x3
0000289C  0000 0014                ori.b      D0, 0x14
000028A0  0004 0000                ori.b      D4, 0x0
000028A4  0015 0004                ori.b      [A5], 0x4
000028A8  0000 0015                ori.b      D0, 0x15
000028AC  FFFF                     .invalid   <<F/7/7>>
000028AE  FFFF                     .invalid   <<F/7/7>>
000028B0  FFFF                     .invalid   <<F/7/7>>
000028B2  0090 00FA 0000           ori.l      [A0], 0xFA0000
000028B8  0003 0001                ori.b      D3, 0x1
000028BC  000D 0002                ori.b      A5, 0x2
000028C0  0001 000E                ori.b      D1, 0xE
000028C4  0001 0001                ori.b      D1, 0x1
000028C8  000F 0000                ori.b      A7, 0x0
000028CC  0001 0010                ori.b      D1, 0x10
000028D0  0000 0000                ori.b      D0, 0x0
000028D4  0011 0001                ori.b      [A1], 0x1
000028D8  0000 0012                ori.b      D0, 0x12
000028DC  0002 0000                ori.b      D2, 0x0
000028E0  0013 0003                ori.b      [A3], 0x3
000028E4  0000 0014                ori.b      D0, 0x14
000028E8  0004 0000                ori.b      D4, 0x0
000028EC  0015 0004                ori.b      [A5], 0x4
000028F0  0000 0015                ori.b      D0, 0x15
000028F4  0005 0000                ori.b      D5, 0x0
000028F8  0000 0005                ori.b      D0, 0x5
000028FC  0000 0000                ori.b      D0, 0x0
00002900  0005 0000                ori.b      D5, 0x0
00002904  0000 0004                ori.b      D0, 0x4
00002908  0000 0001                ori.b      D0, 0x1
0000290C  0004 0000                ori.b      D4, 0x0
00002910  0001 0003                ori.b      D1, 0x3
00002914  0000 0002                ori.b      D0, 0x2
00002918  0002 0000                ori.b      D2, 0x0
0000291C  0003 0001                ori.b      D3, 0x1
00002920  0000 0004                ori.b      D0, 0x4
00002924  0000 0000                ori.b      D0, 0x0
00002928  0005 0000                ori.b      D5, 0x0
0000292C  0001 0006                ori.b      D1, 0x6
00002930  0001 0001                ori.b      D1, 0x1
00002934  0007 0002                ori.b      D7, 0x2
00002938  0001 0008                ori.b      D1, 0x8
0000293C  0003 0001                ori.b      D3, 0x1
00002940  0009 0004                ori.b      A1, 0x4
00002944  0001 000A                ori.b      D1, 0xA /* '\n' */
00002948  0004 0001                ori.b      D4, 0x1
0000294C  000A 0005                ori.b      A2, 0x5
00002950  0001 000B                ori.b      D1, 0xB
00002954  0005 0001                ori.b      D5, 0x1
00002958  000B 0005                ori.b      A3, 0x5
0000295C  0001 000B                ori.b      D1, 0xB
00002960  0004 0001                ori.b      D4, 0x1
00002964  000C 0004                ori.b      A4, 0x4
00002968  0001 000C                ori.b      D1, 0xC
0000296C  FFFF                     .invalid   <<F/7/7>>
0000296E  FFFF                     .invalid   <<F/7/7>>
00002970  FFFF                     .invalid   <<F/7/7>>
00002972  4E75                     rts
00002974  0000 0000                ori.b      D0, 0x0
00002978  0000 0000                ori.b      D0, 0x0
0000297C  0000 FE0C                ori.b      D0, 0xC
00002980  0036 002B 005A           ori.b      [A6 + D0.w + 0x5A], 0x2B /* '+' */
00002986  0067 0120                ori.w      -[A7], 0x120
0000298A  00A5 01F8 00BE           ori.l      -[A5], 0x1F800BE
00002990  02AC 00C4 0384 00DC      andi.l     [A4 + 0xDC], 0xC40384
00002998  0318                     btst       [A0]+, D1
0000299A  00F0                     .incomplete
0000299C  03A8 010E                bclr       [A0 + 0x10E], D1
000029A0  0426 0000                subi.b     -[A6], 0x0
000029A4  0000 0000                ori.b      D0, 0x0
000029A8  0000 0000                ori.b      D0, 0x0
000029AC  0000 0000                ori.b      D0, 0x0
000029B0  0000 0000                ori.b      D0, 0x0
000029B4  0000 0000                ori.b      D0, 0x0
000029B8  0000 0000                ori.b      D0, 0x0
000029BC  FE0C FE0E                .unknown   0xFE0C 0xFE0E (W = 7)
000029C0  0001 0000                ori.b      D1, 0x0
000029C4  0000 0000                ori.b      D0, 0x0
000029C8  0000 0000                ori.b      D0, 0x0
000029CC  0000 0000                ori.b      D0, 0x0
000029D0  0000 0000                ori.b      D0, 0x0
000029D4  0000 0000                ori.b      D0, 0x0
000029D8  0000 0000                ori.b      D0, 0x0
000029DC  0000 0000                ori.b      D0, 0x0
000029E0  0003 0003                ori.b      D3, 0x3
000029E4  001B 0000                ori.b      [A3]+, 0x0
000029E8  0000 0000                ori.b      D0, 0x0
000029EC  0000 0000                ori.b      D0, 0x0
000029F0  0000 0004                ori.b      D0, 0x4
000029F4  000E 0001                ori.b      A6, 0x1
000029F8  0000 0000                ori.b      D0, 0x0
000029FC  0000 0000                ori.b      D0, 0x0
00002A00  0000 0000                ori.b      D0, 0x0
00002A04  000F 001B                ori.b      A7, 0x1B
00002A08  0001 002B                ori.b      D1, 0x2B /* '+' */
00002A0C  0000 0000                ori.b      D0, 0x0
00002A10  0000 0000                ori.b      D0, 0x0
00002A14  0000 001C                ori.b      D0, 0x1C
00002A18  0035 0001 0000           ori.b      [A5 + D0.w], 0x1
00002A1E  0000 0000                ori.b      D0, 0x0
00002A22  0000 0000                ori.b      D0, 0x0
00002A26  0000 0036                ori.b      D0, 0x36 /* '6' */
00002A2A  0040 0009                ori.w      D0, 0x9 /* '\t' */
00002A2E  0000 017A                ori.b      D0, 0x7A /* 'z' */
00002A32  0000 0012                ori.b      D0, 0x12
00002A36  0001 0000                ori.b      D1, 0x0
00002A3A  0041 00D2                ori.w      D1, 0xD2
00002A3E  0001 0000                ori.b      D1, 0x0
00002A42  0000 0000                ori.b      D0, 0x0
00002A46  0000 0000                ori.b      D0, 0x0
00002A4A  0000 010E                ori.b      D0, 0xE
00002A4E  01C9                     .incomplete
00002A50  0001 0000                ori.b      D1, 0x0
00002A54  0000 0000                ori.b      D0, 0x0
00002A58  0000 0000                ori.b      D0, 0x0
00002A5C  0000 01CA                ori.b      D0, 0xCA
00002A60  01D4                     .incomplete
00002A62  0001 0000                ori.b      D1, 0x0
00002A66  0000 0000                ori.b      D0, 0x0
00002A6A  0000 0000                ori.b      D0, 0x0
00002A6E  0000 01D5                ori.b      D0, 0xD5
00002A72  01E0                     .incomplete
00002A74  0005 0001                ori.b      D5, 0x1
00002A78  0001 002C                ori.b      D1, 0x2C /* ',' */
00002A7C  0000 0000                ori.b      D0, 0x0
00002A80  0000 01E1                ori.b      D0, 0xE1
00002A84  01E1                     .incomplete
00002A86  0006 0000                ori.b      D6, 0x0
00002A8A  0000 0000                ori.b      D0, 0x0
00002A8E  0000 0000                ori.b      D0, 0x0
00002A92  0000 0000                ori.b      D0, 0x0
00002A96  0000 0000                ori.b      D0, 0x0
00002A9A  0000 0000                ori.b      D0, 0x0
00002A9E  0000 0000                ori.b      D0, 0x0
00002AA2  0000 0000                ori.b      D0, 0x0
00002AA6  007B 007B 001B           ori.w      [PC + D0.w + 0x1B], 0x7B /* '{' */
00002AAC  0000 0000                ori.b      D0, 0x0
00002AB0  0000 0000                ori.b      D0, 0x0
00002AB4  0000 0000                ori.b      D0, 0x0
00002AB8  007C 008B                ori.w      sr, 139
00002ABC  0001 0000                ori.b      D1, 0x0
00002AC0  0000 0000                ori.b      D0, 0x0
00002AC4  0000 0000                ori.b      D0, 0x0
00002AC8  0000 008C                ori.b      D0, 0x8C
00002ACC  0098 0001 0067           ori.l      [A0]+, 0x10067
00002AD2  0000 0000                ori.b      D0, 0x0
00002AD6  0000 0000                ori.b      D0, 0x0
00002ADA  0000 0099                ori.b      D0, 0x99
00002ADE  00A7 0001 0000           ori.l      -[A7], 0x10000
00002AE4  0000 0000                ori.b      D0, 0x0
00002AE8  0000 0000                ori.b      D0, 0x0
00002AEC  0000 00A8                ori.b      D0, 0xA8
00002AF0  00B2 000A 00B4 0000      ori.l      [A2 + D0.w], 0xA00B4
00002AF8  000E 0000                ori.b      A6, 0x0
00002AFC  0001 0000                ori.b      D1, 0x0
00002B00  00B3 017B 0001 0000      ori.l      [A3 + D0.w], 0x17B0001
00002B08  0000 0000                ori.b      D0, 0x0
00002B0C  0000 0000                ori.b      D0, 0x0
00002B10  0000 017C                ori.b      D0, 0x7C /* '|' */
00002B14  0194                     bclr       [A4], D0
00002B16  0002 0000                ori.b      D2, 0x0
00002B1A  0252 0000                andi.w     [A2], 0x0
00002B1E  0016 0000                ori.b      [A6], 0x0
00002B22  0000 0195                ori.b      D0, 0x95
00002B26  01C1                     .incomplete
00002B28  0001 0000                ori.b      D1, 0x0
00002B2C  0000 0000                ori.b      D0, 0x0
00002B30  0000 0000                ori.b      D0, 0x0
00002B34  0000 01C2                ori.b      D0, 0xC2
00002B38  01CE                     .incomplete
00002B3A  0001 0067                ori.b      D1, 0x67 /* 'g' */
00002B3E  0000 0000                ori.b      D0, 0x0
00002B42  0000 0000                ori.b      D0, 0x0
00002B46  0000 01CF                ori.b      D0, 0xCF
00002B4A  01E0                     .incomplete
00002B4C  0001 0000                ori.b      D1, 0x0
00002B50  0000 0000                ori.b      D0, 0x0
00002B54  0000 0000                ori.b      D0, 0x0
00002B58  0000 01E1                ori.b      D0, 0xE1
00002B5C  01E1                     .incomplete
00002B5E  001B 0000                ori.b      [A3]+, 0x0
00002B62  0000 0000                ori.b      D0, 0x0
00002B66  0000 0000                ori.b      D0, 0x0
00002B6A  0000 0000                ori.b      D0, 0x0
00002B6E  0000 0000                ori.b      D0, 0x0
00002B72  0000 0000                ori.b      D0, 0x0
00002B76  0000 0000                ori.b      D0, 0x0
00002B7A  0000 0000                ori.b      D0, 0x0
00002B7E  0083 0083 0006           ori.l      D3, 0x830006
00002B84  0000 0000                ori.b      D0, 0x0
00002B88  0000 0000                ori.b      D0, 0x0
00002B8C  0000 0000                ori.b      D0, 0x0
00002B90  0084 008E 0009           ori.l      D4, 0x8E0009
00002B96  0000 02F4                ori.b      D0, 0xF4
00002B9A  0000 001A                ori.b      D0, 0x1A
00002B9E  FFFF                     .invalid   <<F/7/7>>
00002BA0  0000 008F                ori.b      D0, 0x8F
00002BA4  00D2                     .incomplete
00002BA6  0001 0000                ori.b      D1, 0x0
00002BAA  0000 0000                ori.b      D0, 0x0
00002BAE  0000 0000                ori.b      D0, 0x0
00002BB2  0000 010E                ori.b      D0, 0xE
00002BB6  017B 0001                bchg       [PC + D0.w + 0x1], D0
00002BBA  0000 0000                ori.b      D0, 0x0
00002BBE  0000 0000                ori.b      D0, 0x0
00002BC2  0000 0000                ori.b      D0, 0x0
00002BC6  017C 0194                bchg       0x194, D0
00002BCA  0003 019E                ori.b      D3, 0x9E
00002BCE  0000 0012                ori.b      D0, 0x12
00002BD2  0000 0000                ori.b      D0, 0x0
00002BD6  0000 0195                ori.b      D0, 0x95
00002BDA  01C1                     .incomplete
00002BDC  0001 0000                ori.b      D1, 0x0
00002BE0  0000 0000                ori.b      D0, 0x0
00002BE4  0000 0000                ori.b      D0, 0x0
00002BE8  0000 01C2                ori.b      D0, 0xC2
00002BEC  01CE                     .incomplete
00002BEE  0001 00A5                ori.b      D1, 0xA5
00002BF2  0000 0000                ori.b      D0, 0x0
00002BF6  0000 0000                ori.b      D0, 0x0
00002BFA  0000 01CF                ori.b      D0, 0xCF
00002BFE  01E0                     .incomplete
00002C00  0001 0000                ori.b      D1, 0x0
00002C04  0000 0000                ori.b      D0, 0x0
00002C08  0000 0000                ori.b      D0, 0x0
00002C0C  0000 01E1                ori.b      D0, 0xE1
00002C10  01E1                     .incomplete
00002C12  001B 0000                ori.b      [A3]+, 0x0
00002C16  0000 0000                ori.b      D0, 0x0
00002C1A  0000 0000                ori.b      D0, 0x0
00002C1E  0000 0000                ori.b      D0, 0x0
00002C22  0000 0000                ori.b      D0, 0x0
00002C26  0000 0000                ori.b      D0, 0x0
00002C2A  0000 0000                ori.b      D0, 0x0
00002C2E  0000 0000                ori.b      D0, 0x0
00002C32  0018 0033                ori.b      [A0]+, 0x33 /* '3' */
00002C36  0001 0000                ori.b      D1, 0x0
00002C3A  0000 0000                ori.b      D0, 0x0
00002C3E  0000 0000                ori.b      D0, 0x0
00002C42  0000 0034                ori.b      D0, 0x34 /* '4' */
00002C46  003E 0009                ori.b      <<invalid special address>>, 0x9 /* '\t' */
00002C4A  0000 033C                ori.b      D0, 0x3C /* '<' */
00002C4E  0000 0022                ori.b      D0, 0x22 /* '\"' */
00002C52  0001 0000                ori.b      D1, 0x0
00002C56  003F 0051                ori.b      <<invalid special address>>, 0x51 /* 'Q' */
00002C5A  0001 0000                ori.b      D1, 0x0
00002C5E  0000 0000                ori.b      D0, 0x0
00002C62  0000 0000                ori.b      D0, 0x0
00002C66  0000 0052                ori.b      D0, 0x52 /* 'R' */
00002C6A  005C 000A                ori.w      [A4]+, 0xA /* '\n' */
00002C6E  021C 0000                andi.b     [A4]+, 0x0
00002C72  0016 0000                ori.b      [A6], 0x0
00002C76  FFFF                     .invalid   <<F/7/7>>
00002C78  0000 005D                ori.b      D0, 0x5D /* ']' */
00002C7C  005D 0006                ori.w      [A5]+, 0x6
00002C80  0000 0000                ori.b      D0, 0x0
00002C84  0000 0000                ori.b      D0, 0x0
00002C88  0000 0000                ori.b      D0, 0x0
00002C8C  0000 0000                ori.b      D0, 0x0
00002C90  0000 0000                ori.b      D0, 0x0
00002C94  0000 0000                ori.b      D0, 0x0
00002C98  0000 0000                ori.b      D0, 0x0
00002C9C  0000 006A                ori.b      D0, 0x6A /* 'j' */
00002CA0  006A 0006 0000           ori.w      [A2 + 0x0], 0x6
00002CA6  0000 0000                ori.b      D0, 0x0
00002CAA  0000 0000                ori.b      D0, 0x0
00002CAE  0000 006B                ori.b      D0, 0x6B /* 'k' */
00002CB2  0075 000A 02D0           ori.w      [A5 + D0.w * 2 - 0x30], 0xA /* '\n' */
00002CB8  0000 001A                ori.b      D0, 0x1A
00002CBC  0000 0001                ori.b      D0, 0x1
00002CC0  0000 0076                ori.b      D0, 0x76 /* 'v' */
00002CC4  007A 0001 0000           ori.w      [PC /* 00002CC6 */], 0x1
00002CCA  0000 0000                ori.b      D0, 0x0
00002CCE  0000 0000                ori.b      D0, 0x0
00002CD2  0000 007B                ori.b      D0, 0x7B /* '{' */
00002CD6  0085 0009 0000           ori.l      D5, 0x90000 /* '\t\0\0' */
00002CDC  0402 0000                subi.b     D2, 0x0
00002CE0  0026 FFFF                ori.b      -[A6], 0xFF
00002CE4  0000 0086                ori.b      D0, 0x86
00002CE8  009A 0001 0000           ori.l      [A2]+, 0x10000
00002CEE  0000 0000                ori.b      D0, 0x0
00002CF2  0000 0000                ori.b      D0, 0x0
00002CF6  0000 0000                ori.b      D0, 0x0
00002CFA  0000 0000                ori.b      D0, 0x0
00002CFE  0000 0000                ori.b      D0, 0x0
00002D02  0000 0000                ori.b      D0, 0x0
00002D06  0000 0000                ori.b      D0, 0x0
00002D0A  0000 0014                ori.b      D0, 0x14
00002D0E  021F 0023                andi.b     [A7]+, 0x23 /* '#' */
00002D12  00F0                     .incomplete
00002D14  03CC                     .incomplete
00002D16  0026 0000                ori.b      -[A6], 0x0
00002D1A  0000 0000                ori.b      D0, 0x0
00002D1E  0000 0000                ori.b      D0, 0x0
00002D22  0000 0000                ori.b      D0, 0x0
00002D26  0000 0000                ori.b      D0, 0x0
00002D2A  0000 0000                ori.b      D0, 0x0
00002D2E  0003 0003                ori.b      D3, 0x3
00002D32  001B 0000                ori.b      [A3]+, 0x0
00002D36  0000 0000                ori.b      D0, 0x0
00002D3A  0000 0000                ori.b      D0, 0x0
00002D3E  0000 0004                ori.b      D0, 0x4
00002D42  0033 0001 0000           ori.b      [A3 + D0.w], 0x1
00002D48  0000 0000                ori.b      D0, 0x0
00002D4C  0000 0000                ori.b      D0, 0x0
00002D50  0000 0034                ori.b      D0, 0x34 /* '4' */
00002D54  003E 0009                ori.b      <<invalid special address>>, 0x9 /* '\t' */
00002D58  0000 045C                ori.b      D0, 0x5C /* '\\' */
00002D5C  0000 002A                ori.b      D0, 0x2A /* '*' */
00002D60  0001 0000                ori.b      D1, 0x0
00002D64  003F 0051                ori.b      <<invalid special address>>, 0x51 /* 'Q' */
00002D68  0001 0000                ori.b      D1, 0x0
00002D6C  0000 0000                ori.b      D0, 0x0
00002D70  0000 0000                ori.b      D0, 0x0
00002D74  0000 0052                ori.b      D0, 0x52 /* 'R' */
00002D78  005C 000A                ori.w      [A4]+, 0xA /* '\n' */
00002D7C  0360                     bchg       -[A0], D1
00002D7E  0000 0022                ori.b      D0, 0x22 /* '\"' */
00002D82  0000 FFFF                ori.b      D0, 0xFF
00002D86  0000 005D                ori.b      D0, 0x5D /* ']' */
00002D8A  005D 0006                ori.w      [A5]+, 0x6
00002D8E  0000 0000                ori.b      D0, 0x0
00002D92  0000 0000                ori.b      D0, 0x0
00002D96  0000 0000                ori.b      D0, 0x0
00002D9A  0000 0000                ori.b      D0, 0x0
00002D9E  0000 0000                ori.b      D0, 0x0
00002DA2  0000 0000                ori.b      D0, 0x0
00002DA6  0000 0000                ori.b      D0, 0x0
00002DAA  0000 0003                ori.b      D0, 0x3
00002DAE  0003 0006                ori.b      D3, 0x6
00002DB2  0000 0000                ori.b      D0, 0x0
00002DB6  0000 0000                ori.b      D0, 0x0
00002DBA  0000 0000                ori.b      D0, 0x0
00002DBE  0004 006B                ori.b      D4, 0x6B /* 'k' */
00002DC2  0006 0000                ori.b      D6, 0x0
00002DC6  0000 0000                ori.b      D0, 0x0
00002DCA  0000 0000                ori.b      D0, 0x0
00002DCE  0000 006C                ori.b      D0, 0x6C /* 'l' */
00002DD2  0076 000A 03DE           ori.w      <<invalid full ext with IS == 1 and I/IS == 6>>, 0xA /* '\n' */
00002DD8  0000 0026                ori.b      D0, 0x26 /* '&' */
00002DDC  0000 0001                ori.b      D0, 0x1
00002DE0  0000 0077                ori.b      D0, 0x77 /* 'w' */
00002DE4  0095 0001 0000           ori.l      [A5], 0x10000
00002DEA  0000 0000                ori.b      D0, 0x0
00002DEE  0000 0000                ori.b      D0, 0x0
00002DF2  0000 0096                ori.b      D0, 0x96
00002DF6  00A9 0011 006B 01D4      ori.l      [A1 + 0x1D4], 0x11006B
00002DFE  00EE                     .incomplete
00002E00  0000 0000                ori.b      D0, 0x0
00002E04  0000 00AA                ori.b      D0, 0xAA
00002E08  0103                     btst       D3, D0
00002E0A  0001 0000                ori.b      D1, 0x0
00002E0E  0000 0000                ori.b      D0, 0x0
00002E12  0000 0000                ori.b      D0, 0x0
00002E16  0000 0104                ori.b      D0, 0x4
00002E1A  0114                     btst       [A4], D0
00002E1C  001C 0001                ori.b      [A4]+, 0x1
00002E20  0000 0000                ori.b      D0, 0x0
00002E24  0000 0000                ori.b      D0, 0x0
00002E28  0000 0115                ori.b      D0, 0x15
00002E2C  0115                     btst       [A5], D0
00002E2E  0010 04EC                ori.b      [A0], 0xEC
00002E32  0000 002A                ori.b      D0, 0x2A /* '*' */
00002E36  0000 0000                ori.b      D0, 0x0
00002E3A  0000 0116                ori.b      D0, 0x16
00002E3E  0120                     btst       -[A0], D0
00002E40  001C 0001                ori.b      [A4]+, 0x1
00002E44  0000 0000                ori.b      D0, 0x0
00002E48  0000 0000                ori.b      D0, 0x0
00002E4C  0000 0121                ori.b      D0, 0x21 /* '!' */
00002E50  0121                     btst       -[A1], D0
00002E52  0010 0492                ori.b      [A0], 0x92
00002E56  0000 002A                ori.b      D0, 0x2A /* '*' */
00002E5A  0000 0000                ori.b      D0, 0x0
00002E5E  0000 0122                ori.b      D0, 0x22 /* '\"' */
00002E62  013E                     btst       <<invalid special address>>, D0
00002E64  001C 0001                ori.b      [A4]+, 0x1
00002E68  0000 0000                ori.b      D0, 0x0
00002E6C  0000 0000                ori.b      D0, 0x0
00002E70  0000 013F                ori.b      D0, 0x3F /* '?' */
00002E74  01A3                     bclr       -[A3], D0
00002E76  001C 0000                ori.b      [A4]+, 0x0
00002E7A  0000 0000                ori.b      D0, 0x0
00002E7E  0000 0000                ori.b      D0, 0x0
00002E82  0000 01A4                ori.b      D0, 0xA4
00002E86  01AB 001C                bclr       [A3 + 0x1C], D0
00002E8A  0002 0000                ori.b      D2, 0x0
00002E8E  0000 0000                ori.b      D0, 0x0
00002E92  0000 0000                ori.b      D0, 0x0
00002E96  01AC 01C2                bclr       [A4 + 0x1C2], D0
00002E9A  0012 0000                ori.b      [A2], 0x0
00002E9E  0000 0000                ori.b      D0, 0x0
00002EA2  0000 0000                ori.b      D0, 0x0
00002EA6  0000 01C3                ori.b      D0, 0xC3
00002EAA  01CB                     .incomplete
00002EAC  0001 0000                ori.b      D1, 0x0
00002EB0  0000 0000                ori.b      D0, 0x0
00002EB4  0000 0000                ori.b      D0, 0x0
00002EB8  0000 01CC                ori.b      D0, 0xCC
00002EBC  01E0                     .incomplete
00002EBE  0012 0001                ori.b      [A2], 0x1
00002EC2  0001 0000                ori.b      D1, 0x0
00002EC6  0000 0000                ori.b      D0, 0x0
00002ECA  0000 01E1                ori.b      D0, 0xE1
00002ECE  01E1                     .incomplete
00002ED0  0006 0000                ori.b      D6, 0x0
00002ED4  0000 0000                ori.b      D0, 0x0
00002ED8  0000 0000                ori.b      D0, 0x0
00002EDC  0000 0000                ori.b      D0, 0x0
00002EE0  0000 0000                ori.b      D0, 0x0
00002EE4  0000 0000                ori.b      D0, 0x0
00002EE8  0000 0000                ori.b      D0, 0x0
00002EEC  0000 0000                ori.b      D0, 0x0
00002EF0  0003 0090                ori.b      D3, 0x90
00002EF4  01C2                     .incomplete
00002EF6  0276 0001 0156           andi.w     <<invalid full ext with IS == 1 and I/IS == 6>>, 0x1
00002EFC  4E75                     rts
00002EFE  0000 0000                ori.b      D0, 0x0
00002F02  0000 0000                ori.b      D0, 0x0
00002F06  0000 FE0C                ori.b      D0, 0xC
00002F0A  006C 0028 0090           ori.w      [A4 + 0x90], 0x28 /* '(' */
00002F10  002D 0090 0032           ori.b      [A5 + 0x32 /* export_2, CODE:1 @ 00000022 */], 0x90
00002F16  0090 0037 0090           ori.l      [A0], 0x370090
00002F1C  003C 0090                ori.b      ccr, 144
00002F20  003F 0090                ori.b      <<invalid special address>>, 0x90
00002F24  0040 00B4                ori.w      D0, 0xB4
00002F28  0091 0090 0097           ori.l      [A1], 0x900097
00002F2E  0090 009D 0090           ori.l      [A0], 0x9D0090
00002F34  00A3 0090 00A9           ori.l      -[A3], 0x9000A9
00002F3A  0090 00AF 0090           ori.l      [A0], 0xAF0090
00002F40  00B5 0090 00BB 0090      ori.l      [A5 + D0.w - 0x70], 0x9000BB
00002F48  00BC 010E 00D0 017A 00D8 ori.l      0x17A00D8, 0x10E00D0
00002F52  017A 00E0                bchg       [PC + 0xE0 /* 00003034, value 0x1, cstring "" */], D0
00002F56  017A 00E8                bchg       [PC + 0xE8 /* 00003040, value 0x0, cstring "" */], D0
00002F5A  017A 00F3                bchg       [PC + 0xF3 /* 0000304F, value 0x0, cstring "" */], D0
00002F5E  01C2                     .incomplete
00002F60  00FC                     .incomplete
00002F62  021C 0000                andi.b     [A4]+, 0x0
00002F66  0000 0000                ori.b      D0, 0x0
00002F6A  0000 0000                ori.b      D0, 0x0
00002F6E  0000 0000                ori.b      D0, 0x0
00002F72  0000 0000                ori.b      D0, 0x0
00002F76  0000 0000                ori.b      D0, 0x0
00002F7A  0000 FE0C                ori.b      D0, 0xC
00002F7E  FE0E 0001                .unknown   0xFE0E 0x0001 (W = 7)
00002F82  0000 0000                ori.b      D0, 0x0
00002F86  0000 0000                ori.b      D0, 0x0
00002F8A  0000 0000                ori.b      D0, 0x0
00002F8E  0000 0000                ori.b      D0, 0x0
00002F92  0000 0000                ori.b      D0, 0x0
00002F96  0000 0000                ori.b      D0, 0x0
00002F9A  0000 0000                ori.b      D0, 0x0
00002F9E  0000 0177                ori.b      D0, 0x77 /* 'w' */
00002FA2  018B                     bclr       A3, D0
00002FA4  0208 01B0                andi.b     A0, 0xB0
00002FA8  0000 0026                ori.b      D0, 0x26 /* '&' */
00002FAC  005A 0000                ori.w      [A2]+, 0x0
00002FB0  0000 0000                ori.b      D0, 0x0
00002FB4  0000 0000                ori.b      D0, 0x0
00002FB8  0000 0000                ori.b      D0, 0x0
00002FBC  0000 0000                ori.b      D0, 0x0
00002FC0  0000 0000                ori.b      D0, 0x0
00002FC4  018E                     bclr       A6, D0
00002FC6  01D5                     .incomplete
00002FC8  0001 0000                ori.b      D1, 0x0
00002FCC  0000 0000                ori.b      D0, 0x0
00002FD0  0000 0000                ori.b      D0, 0x0
00002FD4  0000 01D6                ori.b      D0, 0xD6
00002FD8  01E0                     .incomplete
00002FDA  0001 0000                ori.b      D1, 0x0
00002FDE  0000 0000                ori.b      D0, 0x0
00002FE2  0000 0000                ori.b      D0, 0x0
00002FE6  0000 01E1                ori.b      D0, 0xE1
00002FEA  01EA                     .incomplete
00002FEC  0005 0004                ori.b      D5, 0x4
00002FF0  0000 002E                ori.b      D0, 0x2E /* '.' */
00002FF4  0000 0000                ori.b      D0, 0x0
00002FF8  0000 01EB                ori.b      D0, 0xEB
00002FFC  01EB                     .incomplete
00002FFE  0006 0000                ori.b      D6, 0x0
00003002  0000 0000                ori.b      D0, 0x0
00003006  0000 0000                ori.b      D0, 0x0
0000300A  0000 0000                ori.b      D0, 0x0
0000300E  0000 0000                ori.b      D0, 0x0
00003012  0000 0000                ori.b      D0, 0x0
00003016  0000 0000                ori.b      D0, 0x0
0000301A  0000 0000                ori.b      D0, 0x0
0000301E  018C                     bclr       A4, D0
00003020  01B9 0001 0000           bclr       [0x00010000], D0
00003026  0000 0000                ori.b      D0, 0x0
0000302A  0000 0000                ori.b      D0, 0x0
0000302E  0000 01BA                ori.b      D0, 0xBA
00003032  01C6                     .incomplete
00003034  0001 00BC                ori.b      D1, 0xBC
00003038  0000 0000                ori.b      D0, 0x0
0000303C  0000 0000                ori.b      D0, 0x0
00003040  0000 01C7                ori.b      D0, 0xC7
00003044  01D3                     .incomplete
00003046  0001 00BC                ori.b      D1, 0xBC
0000304A  0000 0000                ori.b      D0, 0x0
0000304E  0000 0000                ori.b      D0, 0x0
00003052  0000 01D4                ori.b      D0, 0xD4
00003056  01E0                     .incomplete
00003058  0001 0000                ori.b      D1, 0x0
0000305C  0000 0000                ori.b      D0, 0x0
00003060  0000 0000                ori.b      D0, 0x0
00003064  0000 01E1                ori.b      D0, 0xE1
00003068  01E1                     .incomplete
0000306A  001B 0000                ori.b      [A3]+, 0x0
0000306E  0000 0000                ori.b      D0, 0x0
00003072  0000 0000                ori.b      D0, 0x0
00003076  0000 0000                ori.b      D0, 0x0
0000307A  0000 0000                ori.b      D0, 0x0
0000307E  0000 0000                ori.b      D0, 0x0
00003082  0000 0000                ori.b      D0, 0x0
00003086  0000 0000                ori.b      D0, 0x0
0000308A  013D                     btst       <<invalid special address>>, D0
0000308C  0151                     bchg       [A1], D0
0000308E  0207 0000                andi.b     D7, 0x0
00003092  019E                     bclr       [A6]+, D0
00003094  0035 00E9 0000           ori.b      [A5 + D0.w], 0xE9
0000309A  0000 015A                ori.b      D0, 0x5A /* 'Z' */
0000309E  016E 0207                bchg       [A6 + 0x207], D0
000030A2  018C                     bclr       A4, D0
000030A4  01B0 0035                bclr       [A0 + D0.w + 0x35], D0
000030A8  00E9                     .incomplete
000030AA  0000 0000                ori.b      D0, 0x0
000030AE  0177 018B 0207 019E      bchg       [[ + <<invalid base displacement size>> + D0] + 0x207019E], D0
000030B6  0000 0035                ori.b      D0, 0x35 /* '5' */
000030BA  00E9                     .incomplete
000030BC  0000 0000                ori.b      D0, 0x0
000030C0  0000 0000                ori.b      D0, 0x0
000030C4  0000 0000                ori.b      D0, 0x0
000030C8  0000 0000                ori.b      D0, 0x0
000030CC  0000 0000                ori.b      D0, 0x0
000030D0  0000 0003                ori.b      D0, 0x3
000030D4  0003 0006                ori.b      D3, 0x6
000030D8  0000 0000                ori.b      D0, 0x0
000030DC  0000 0000                ori.b      D0, 0x0
000030E0  0000 0000                ori.b      D0, 0x0
000030E4  0004 000A                ori.b      D4, 0xA /* '\n' */
000030E8  0005 FFFF                ori.b      D5, 0xFF
000030EC  0000 0000                ori.b      D0, 0x0
000030F0  0000 0000                ori.b      D0, 0x0
000030F4  0000 000B                ori.b      D0, 0xB
000030F8  00BC 0001 0000 0000 0000 ori.l      0x0, 0x10000
00003102  0000 0000                ori.b      D0, 0x0
00003106  0000 00BD                ori.b      D0, 0xBD
0000310A  00BD 0010 0276           ori.l      <<invalid special address>>, 0x100276
00003110  0000 0062                ori.b      D0, 0x62 /* 'b' */
00003114  0000 0000                ori.b      D0, 0x0
00003118  0000 0000                ori.b      D0, 0x0
0000311C  0000 0000                ori.b      D0, 0x0
00003120  0000 0000                ori.b      D0, 0x0
00003124  0000 0000                ori.b      D0, 0x0
00003128  0000 0000                ori.b      D0, 0x0
0000312C  0003 0003                ori.b      D3, 0x3
00003130  0006 0000                ori.b      D6, 0x0
00003134  0000 0000                ori.b      D0, 0x0
00003138  0000 0000                ori.b      D0, 0x0
0000313C  0000 0004                ori.b      D0, 0x4
00003140  00B7 0001 0000 0000      ori.l      [A7 + D0.w], 0x10000
00003148  0000 0000                ori.b      D0, 0x0
0000314C  0000 0000                ori.b      D0, 0x0
00003150  00B8 00B8 0006 0000      ori.l      [0x00000000 /* __m68k_reset_stack__ */], 0xB80006
00003158  0000 0000                ori.b      D0, 0x0
0000315C  0000 0000                ori.b      D0, 0x0
00003160  0000 00B8                ori.b      D0, 0xB8
00003164  00B8 0010 01F8 0000      ori.l      [0x00000000 /* __m68k_reset_stack__ */], 0x1001F8
0000316C  005E 0000                ori.w      [A6]+, 0x0
00003170  0000 0000                ori.b      D0, 0x0
00003174  00B9 00D2 0001 0000 0000 ori.l      [0x00000000 /* __m68k_reset_stack__ */], 0xD20001
0000317E  0000 0000                ori.b      D0, 0x0
00003182  0000 0000                ori.b      D0, 0x0
00003186  00D3                     .incomplete
00003188  00DF                     .incomplete
0000318A  0001 00FC                ori.b      D1, 0xFC
0000318E  0000 0000                ori.b      D0, 0x0
00003192  0000 0000                ori.b      D0, 0x0
00003196  0000 00E0                ori.b      D0, 0xE0
0000319A  01B7 0001                bclr       [A7 + D0.w + 0x1], D0
0000319E  0000 0000                ori.b      D0, 0x0
000031A2  0000 0000                ori.b      D0, 0x0
000031A6  0000 0000                ori.b      D0, 0x0
000031AA  01B8 01C4                bclr       [0x000001C4], D0
000031AE  0001 00FC                ori.b      D1, 0xFC
000031B2  0000 0000                ori.b      D0, 0x0
000031B6  0000 0000                ori.b      D0, 0x0
000031BA  0000 01C5                ori.b      D0, 0xC5
000031BE  01E0                     .incomplete
000031C0  0001 0000                ori.b      D1, 0x0
000031C4  0000 0000                ori.b      D0, 0x0
000031C8  0000 0000                ori.b      D0, 0x0
000031CC  0000 01E1                ori.b      D0, 0xE1
000031D0  01E1                     .incomplete
000031D2  001B 0000                ori.b      [A3]+, 0x0
000031D6  0000 0000                ori.b      D0, 0x0
000031DA  0000 0000                ori.b      D0, 0x0
000031DE  0000 0003                ori.b      D0, 0x3
000031E2  0132 0288                btst       [A2 + D0.w * 2 - 0x78], D0
000031E6  02AC 0001 0144 4E75      andi.l     [A4 + 0x4E75], 0x10144
000031EE  0000 0000                ori.b      D0, 0x0
000031F2  0000 0000                ori.b      D0, 0x0
000031F6  0000 FE0C                ori.b      D0, 0xC
000031FA  0036 0025 005A           ori.b      [A6 + D0.w + 0x5A], 0x25 /* '%' */
00003200  0054 00D8                ori.w      [A4], 0xD8
00003204  006E 00FC 0084           ori.w      [A6 + 0x84], 0xFC
0000320A  0120                     btst       -[A0], D0
0000320C  0096 0144 00B3           ori.l      [A6], 0x14400B3
00003212  0168 00E2                bchg       [A0 + 0xE2], D0
00003216  018C                     bclr       A4, D0
00003218  00E3                     .incomplete
0000321A  01B0 0101                bclr       [[A0 + <<invalid base displacement size>> + D0]], D0
0000321E  020A 0000                andi.b     A2, 0x0
00003222  0000 0000                ori.b      D0, 0x0
00003226  0000 0000                ori.b      D0, 0x0
0000322A  0000 0000                ori.b      D0, 0x0
0000322E  0000 0000                ori.b      D0, 0x0
00003232  0000 0000                ori.b      D0, 0x0
00003236  FE0C FE0E                .unknown   0xFE0C 0xFE0E (W = 7)
0000323A  0001 0000                ori.b      D1, 0x0
0000323E  0000 0000                ori.b      D0, 0x0
00003242  0000 0000                ori.b      D0, 0x0
00003246  0000 0000                ori.b      D0, 0x0
0000324A  0000 0000                ori.b      D0, 0x0
0000324E  0000 0000                ori.b      D0, 0x0
00003252  0000 0000                ori.b      D0, 0x0
00003256  0000 0000                ori.b      D0, 0x0
0000325A  0003 0003                ori.b      D3, 0x3
0000325E  0006 0000                ori.b      D6, 0x0
00003262  0000 0000                ori.b      D0, 0x0
00003266  0000 0000                ori.b      D0, 0x0
0000326A  0000 0004                ori.b      D0, 0x4
0000326E  000A 0005                ori.b      A2, 0x5
00003272  0003 0001                ori.b      D3, 0x1
00003276  0000 0000                ori.b      D0, 0x0
0000327A  0000 0000                ori.b      D0, 0x0
0000327E  000B 001E                ori.b      A3, 0x1E
00003282  0001 0000                ori.b      D1, 0x0
00003286  0000 0000                ori.b      D0, 0x0
0000328A  0000 0000                ori.b      D0, 0x0
0000328E  0000 001F                ori.b      D0, 0x1F
00003292  002B 0001 0025           ori.b      [A3 + 0x25], 0x1
00003298  0000 0000                ori.b      D0, 0x0
0000329C  0000 0000                ori.b      D0, 0x0
000032A0  0000 002C                ori.b      D0, 0x2C /* ',' */
000032A4  0044 0001                ori.w      D4, 0x1
000032A8  0000 0000                ori.b      D0, 0x0
000032AC  0000 0000                ori.b      D0, 0x0
000032B0  0000 0000                ori.b      D0, 0x0
000032B4  0096 00B8 000E           ori.l      [A6], 0xB8000E
000032BA  004C 012C                ori.w      A4, 0x12C
000032BE  0025 0004                ori.b      -[A5], 0x4
000032C2  0024 0001                ori.b      -[A4], 0x1
000032C6  0000 0000                ori.b      D0, 0x0
000032CA  0000 0000                ori.b      D0, 0x0
000032CE  0000 0000                ori.b      D0, 0x0
000032D2  0000 0000                ori.b      D0, 0x0
000032D6  0000 00C8                ori.b      D0, 0xC8
000032DA  00EA                     .incomplete
000032DC  000E 003C                ori.b      A6, 0x3C /* '<' */
000032E0  015E                     bchg       [A6]+, D0
000032E2  0052 FFFD                ori.w      [A2], 0xFFFD
000032E6  0024 0000                ori.b      -[A4], 0x0
000032EA  0000 0000                ori.b      D0, 0x0
000032EE  0000 0000                ori.b      D0, 0x0
000032F2  0000 0000                ori.b      D0, 0x0
000032F6  0000 0000                ori.b      D0, 0x0
000032FA  0000 00C8                ori.b      D0, 0xC8
000032FE  00F6                     .incomplete
00003300  000E 0032                ori.b      A6, 0x32 /* '2' */
00003304  00C8                     .incomplete
00003306  0080 0002 0024           ori.l      D0, 0x20024
0000330C  0001 0000                ori.b      D1, 0x0
00003310  0000 0000                ori.b      D0, 0x0
00003314  0000 0000                ori.b      D0, 0x0
00003318  0000 0000                ori.b      D0, 0x0
0000331C  0000 0000                ori.b      D0, 0x0
00003320  00FE                     .incomplete
00003322  012C 000E                btst       [A4 + 0xE], D0
00003326  00FA                     .incomplete
00003328  0190                     bclr       [A0], D0
0000332A  0088 FFFE 0024           ori.l      A0, 0xFFFE0024
00003330  0001 0000                ori.b      D1, 0x0
00003334  0000 0000                ori.b      D0, 0x0
00003338  0000 0000                ori.b      D0, 0x0
0000333C  0000 0000                ori.b      D0, 0x0
00003340  0000 0000                ori.b      D0, 0x0
00003344  00FA                     .incomplete
00003346  011C                     btst       [A4]+, D0
00003348  000E 00E6                ori.b      A6, 0xE6
0000334C  0190                     bclr       [A0], D0
0000334E  00B5 0003 0024 0000      ori.l      [A5 + D0.w], 0x30024
00003356  0000 0000                ori.b      D0, 0x0
0000335A  0000 0000                ori.b      D0, 0x0
0000335E  0000 0000                ori.b      D0, 0x0
00003362  0000 0000                ori.b      D0, 0x0
00003366  0000 00FA                ori.b      D0, 0xFA
0000336A  011C                     btst       [A4]+, D0
0000336C  000E 00E6                ori.b      A6, 0xE6
00003370  0190                     bclr       [A0], D0
00003372  00B5 0003 0024 0000      ori.l      [A5 + D0.w], 0x30024
0000337A  0000 0000                ori.b      D0, 0x0
0000337E  0000 0000                ori.b      D0, 0x0
00003382  0000 0000                ori.b      D0, 0x0
00003386  0000 0000                ori.b      D0, 0x0
0000338A  0000 00C8                ori.b      D0, 0xC8
0000338E  00F6                     .incomplete
00003390  000E 0032                ori.b      A6, 0x32 /* '2' */
00003394  018C                     bclr       A4, D0
00003396  00DE                     .incomplete
00003398  FFFC                     .invalid   <<F/7/7>>
0000339A  0000 0001                ori.b      D0, 0x1
0000339E  0000 0000                ori.b      D0, 0x0
000033A2  0000 0000                ori.b      D0, 0x0
000033A6  0000 0000                ori.b      D0, 0x0
000033AA  0000 0000                ori.b      D0, 0x0
000033AE  0000 01BF                ori.b      D0, 0xBF
000033B2  01CB                     .incomplete
000033B4  0001 0000                ori.b      D1, 0x0
000033B8  0000 0000                ori.b      D0, 0x0
000033BC  0000 0000                ori.b      D0, 0x0
000033C0  0000 01CC                ori.b      D0, 0xCC
000033C4  01D5                     .incomplete
000033C6  0001 0000                ori.b      D1, 0x0
000033CA  0000 0000                ori.b      D0, 0x0
000033CE  0000 0000                ori.b      D0, 0x0
000033D2  0000 01D6                ori.b      D0, 0xD6
000033D6  01E0                     .incomplete
000033D8  0005 0005                ori.b      D5, 0x5
000033DC  0000 0030                ori.b      D0, 0x30 /* '0' */
000033E0  0000 0000                ori.b      D0, 0x0
000033E4  0000 01E1                ori.b      D0, 0xE1
000033E8  01E1                     .incomplete
000033EA  0006 0000                ori.b      D6, 0x0
000033EE  0000 0000                ori.b      D0, 0x0
000033F2  0000 0000                ori.b      D0, 0x0
000033F6  0000 0000                ori.b      D0, 0x0
000033FA  0000 0000                ori.b      D0, 0x0
000033FE  0000 0000                ori.b      D0, 0x0
00003402  0000 0000                ori.b      D0, 0x0
00003406  0000 0000                ori.b      D0, 0x0
0000340A  FFCE                     .invalid   <<F/7/7>>
0000340C  0230 0016 0000           andi.b     [A0 + D0.w], 0x16
00003412  0000 0000                ori.b      D0, 0x0
00003416  0000 0000                ori.b      D0, 0x0
0000341A  0000 0000                ori.b      D0, 0x0
0000341E  0000 0000                ori.b      D0, 0x0
00003422  0000 0000                ori.b      D0, 0x0
00003426  0000 0000                ori.b      D0, 0x0
0000342A  0000 0000                ori.b      D0, 0x0
0000342E  0001 00A2                ori.b      D1, 0xA2
00003432  0005 0064                ori.b      D5, 0x64 /* 'd' */
00003436  0004 0001                ori.b      D4, 0x1
0000343A  0044 00C8                ori.w      D4, 0xC8
0000343E  0004 0002                ori.b      D4, 0x2
00003442  012A 0113                btst       [A2 + 0x113], D0
00003446  0004 0001                ori.b      D4, 0x1
0000344A  0190                     bclr       [A0], D0
0000344C  015E                     bchg       [A6]+, D0
0000344E  0004 0001                ori.b      D4, 0x1
00003452  00DD                     .incomplete
00003454  0190                     bclr       [A0], D0
00003456  0004 0002                ori.b      D4, 0x2
0000345A  012C 0000                btst       [A4 + 0x0], D0
0000345E  0000 0000                ori.b      D0, 0x0
00003462  0000 0005                ori.b      D0, 0x5
00003466  0064 0004                ori.w      -[A4], 0x4
0000346A  0000 0131                ori.b      D0, 0x31 /* '1' */
0000346E  00C8                     .incomplete
00003470  0004 0002                ori.b      D4, 0x2
00003474  00C2                     .incomplete
00003476  0113                     btst       [A3], D0
00003478  0004 0001                ori.b      D4, 0x1
0000347C  00E1                     .incomplete
0000347E  015E                     bchg       [A6]+, D0
00003480  0004 0000                ori.b      D4, 0x0
00003484  017D                     bchg       <<invalid special address>>, D0
00003486  0190                     bclr       [A0], D0
00003488  0004 0002                ori.b      D4, 0x2
0000348C  00AA 0000 0000 0000      ori.l      [A2 + 0x0], 0x0
00003494  0000 0005                ori.b      D0, 0x5
00003498  0064 0004                ori.w      -[A4], 0x4
0000349C  0000 00B8                ori.b      D0, 0xB8
000034A0  00C8                     .incomplete
000034A2  0004 0002                ori.b      D4, 0x2
000034A6  0090 0113 0004           ori.l      [A0], 0x1130004
000034AC  0000 011A                ori.b      D0, 0x1A
000034B0  015E                     bchg       [A6]+, D0
000034B2  0004 0001                ori.b      D4, 0x1
000034B6  00F4                     .incomplete
000034B8  0190                     bclr       [A0], D0
000034BA  0004 0000                ori.b      D4, 0x0
000034BE  01DD                     .incomplete
000034C0  0000 0000                ori.b      D0, 0x0
000034C4  0000 0000                ori.b      D0, 0x0
fn000034C8:
000034C8  41FA FDEA                lea.l      A0, [PC - 0x216 /* 000032B4, value 0x9600B8, cstring "" */]
000034CC  43FA 0026                lea.l      A1, [PC + 0x26 /* 000034F4, value 0xE20110, cstring "" */]
000034D0  C0FC 007E                mulu.w     D0, 0x7E /* '~' */
000034D4  D2C0                     add.w      A1, D0
000034D6  7206                     moveq.l    D1, 0x06
label000034D8:
000034D8  20D9                     move.l     [A0]+, [A1]+
000034DA  20D9                     move.l     [A0]+, [A1]+
000034DC  20D9                     move.l     [A0]+, [A1]+
000034DE  20D9                     move.l     [A0]+, [A1]+
000034E0  30D9                     move.w     [A0]+, [A1]+
000034E2  D0FC 0012                add.w      A0, 0x12
000034E6  51C9 FFF0                dbf        D1, -0x12 /* 000034D8 */
000034EA  4E75                     rts
000034EC  0000 0000                ori.b      D0, 0x0
000034F0  0000 0000                ori.b      D0, 0x0
000034F4  00E2                     .incomplete
000034F6  0110                     btst       [A0], D0
000034F8  000E 004C                ori.b      A6, 0x4C /* 'L' */
000034FC  00E2                     .incomplete
000034FE  0025 0003                ori.b      -[A5], 0x3
00003502  0024 0001                ori.b      -[A4], 0x1
00003506  00C8                     .incomplete
00003508  00F6                     .incomplete
0000350A  000E 00C8                ori.b      A6, 0xC8
0000350E  015E                     bchg       [A6]+, D0
00003510  0054 FFFD                ori.w      [A4], 0xFFFD
00003514  0024 0001                ori.b      -[A4], 0x1
00003518  00C8                     .incomplete
0000351A  00EA                     .incomplete
0000351C  000E 0032                ori.b      A6, 0x32 /* '2' */
00003520  0096 006E 0004           ori.l      [A6], 0x6E0004
00003526  0024 0000                ori.b      -[A4], 0x0
0000352A  00FE                     .incomplete
0000352C  012C 000E                btst       [A4 + 0xE], D0
00003530  00FA                     .incomplete
00003532  0190                     bclr       [A0], D0
00003534  0084 FFFE 0024           ori.l      D4, 0xFFFE0024
0000353A  0001 00DC                ori.b      D1, 0xDC
0000353E  00FE                     .incomplete
00003540  000E 0064                ori.b      A6, 0x64 /* 'd' */
00003544  00FA                     .incomplete
00003546  0096 FFFE 0024           ori.l      [A6], 0xFFFE0024
0000354C  0000 0032                ori.b      D0, 0x32 /* '2' */
00003550  0060 000E                ori.w      -[A0], 0xE
00003554  000A 0036                ori.b      A2, 0x36 /* '6' */
00003558  00B3 FFFD 0024 0001      ori.l      [A3 + D0.w + 0x1], 0xFFFD0024
00003560  00C8                     .incomplete
00003562  00F6                     .incomplete
00003564  000E 0032                ori.b      A6, 0x32 /* '2' */
00003568  0182                     bclr       D2, D0
0000356A  00E2                     .incomplete
0000356C  0004 0000                ori.b      D4, 0x0
00003570  0001 00DC                ori.b      D1, 0xDC
00003574  010A                     btst       A2, D0
00003576  000E 00C8                ori.b      A6, 0xC8
0000357A  0190                     bclr       [A0], D0
0000357C  0025 0004                ori.b      -[A5], 0x4
00003580  0024 0000                ori.b      -[A4], 0x0
00003584  00CC                     .incomplete
00003586  00FA                     .incomplete
00003588  000E 003C                ori.b      A6, 0x3C /* '<' */
0000358C  00CC                     .incomplete
0000358E  0054 FFFD                ori.w      [A4], 0xFFFD
00003592  0024 0001                ori.b      -[A4], 0x1
00003596  00FA                     .incomplete
00003598  011C                     btst       [A4]+, D0
0000359A  000E 00FA                ori.b      A6, 0xFA
0000359E  018A                     bclr       A2, D0
000035A0  006E 0003 0024           ori.w      [A6 + 0x24], 0x3
000035A6  0000 0028                ori.b      D0, 0x28 /* '(' */
000035AA  004A 000E                ori.w      A2, 0xE
000035AE  001E 0064                ori.b      [A6]+, 0x64 /* 'd' */
000035B2  0084 FFFC 0024           ori.l      D4, 0xFFFC0024
000035B8  0000 00FA                ori.b      D0, 0xFA
000035BC  0128 000E                btst       [A0 + 0xE], D0
000035C0  00FA                     .incomplete
000035C2  0172 0096                bchg       [A2 + D0.w - 0x6A], D0
000035C6  0003 0024                ori.b      D3, 0x24 /* '$' */
000035CA  0001 00D8                ori.b      D1, 0xD8
000035CE  00FA                     .incomplete
000035D0  000E 0060                ori.b      A6, 0x60 /* '`' */
000035D4  00D8                     .incomplete
000035D6  00B3 FFFD 0024 0000      ori.l      [A3 + D0.w], 0xFFFD0024
000035DE  00C8                     .incomplete
000035E0  00F6                     .incomplete
000035E2  000E 0032                ori.b      A6, 0x32 /* '2' */
000035E6  0182                     bclr       D2, D0
000035E8  00E2                     .incomplete
000035EA  0002 0000                ori.b      D2, 0x0
000035EE  0001 0096                ori.b      D1, 0x96
000035F2  00B8 000E 004C 012C      ori.l      [0x0000012C /* DskVerify */], 0xE004C
000035FA  0025 0004                ori.b      -[A5], 0x4
000035FE  0024 0000                ori.b      -[A4], 0x0
00003602  012C 014E                btst       [A4 + 0x14E], D0
00003606  000E 00D2                ori.b      A6, 0xD2
0000360A  012C 0054                btst       [A4 + 0x54], D0
0000360E  FFFD                     .invalid   <<F/7/7>>
00003610  0024 0000                ori.b      -[A4], 0x0
00003614  014E                     bchg       A6, D0
00003616  0170 000E                bchg       [A0 + D0.w + 0xE], D0
0000361A  014E                     bchg       A6, D0
0000361C  01A8 006E                bclr       [A0 + 0x6E], D0
00003620  0003 0024                ori.b      D3, 0x24 /* '$' */
00003624  0000 00A6                ori.b      D0, 0xA6
00003628  00C8                     .incomplete
0000362A  000E 0010                ori.b      A6, 0x10
0000362E  00A6 0084 0004           ori.l      -[A6], 0x840004
00003634  0024 0000                ori.b      -[A4], 0x0
00003638  00C8                     .incomplete
0000363A  00F6                     .incomplete
0000363C  000E 00C8                ori.b      A6, 0xC8
00003640  015E                     bchg       [A6]+, D0
00003642  0096 FFFC 0024           ori.l      [A6], 0xFFFC0024
00003648  0001 0032                ori.b      D1, 0x32 /* '2' */
0000364C  0054 000E                ori.w      [A4], 0xE
00003650  0014 006E                ori.b      [A4], 0x6E /* 'n' */
00003654  00B3 FFFD 0024 0000      ori.l      [A3 + D0.w], 0xFFFD0024
0000365C  0064 0086                ori.w      -[A4], 0x86
00003660  000E 0064                ori.b      A6, 0x64 /* 'd' */
00003664  0182                     bclr       D2, D0
00003666  00E2                     .incomplete
00003668  0004 0000                ori.b      D4, 0x0
0000366C  0000 4E75                ori.b      D0, 0x75 /* 'u' */
00003670  0000 0000                ori.b      D0, 0x0
00003674  0000 0000                ori.b      D0, 0x0
00003678  0000 FE0C                ori.b      D0, 0xC
0000367C  0048 0002                ori.w      A0, 0x2
00003680  006C 0050 0090           ori.w      [A4 + 0x90], 0x50 /* 'P' */
00003686  0056 00EA                ori.w      [A6], 0xEA
0000368A  005F 01C2                ori.w      [A7]+, 0x1C2
0000368E  009D 01E6 00E7           ori.l      [A5]+, 0x1E600E7
00003694  020A 00EB                andi.b     A2, 0xEB
00003698  0240 00F0                andi.w     D0, 0xF0
0000369C  029A 00F7 0372           andi.l     [A2]+, 0xF70372
000036A2  0118                     btst       [A0]+, D0
000036A4  0396                     bclr       [A6], D1
000036A6  0000 0000                ori.b      D0, 0x0
000036AA  0000 0000                ori.b      D0, 0x0
000036AE  0000 0000                ori.b      D0, 0x0
000036B2  0000 0000                ori.b      D0, 0x0
000036B6  0000 0000                ori.b      D0, 0x0
000036BA  0000 0000                ori.b      D0, 0x0
000036BE  0000 0000                ori.b      D0, 0x0
000036C2  0000 0000                ori.b      D0, 0x0
000036C6  0000 0000                ori.b      D0, 0x0
000036CA  FE0C FE0E                .unknown   0xFE0C 0xFE0E (W = 7)
000036CE  0001 0000                ori.b      D1, 0x0
000036D2  0000 0000                ori.b      D0, 0x0
000036D6  0000 0000                ori.b      D0, 0x0
000036DA  0000 0000                ori.b      D0, 0x0
000036DE  0000 0000                ori.b      D0, 0x0
000036E2  0000 0000                ori.b      D0, 0x0
000036E6  0000 0000                ori.b      D0, 0x0
000036EA  0000 0000                ori.b      D0, 0x0
000036EE  0140                     bchg       D0, D0
000036F0  0200 0001                andi.b     D0, 0x1
000036F4  0000 0000                ori.b      D0, 0x0
000036F8  0000 0000                ori.b      D0, 0x0
000036FC  0000 0000                ori.b      D0, 0x0
00003700  0000 0000                ori.b      D0, 0x0
00003704  0000 0000                ori.b      D0, 0x0
00003708  0000 0000                ori.b      D0, 0x0
0000370C  0000 0000                ori.b      D0, 0x0
00003710  0000 0003                ori.b      D0, 0x3
00003714  0003 0006                ori.b      D3, 0x6
00003718  0000 0000                ori.b      D0, 0x0
0000371C  0000 0000                ori.b      D0, 0x0
00003720  0000 0000                ori.b      D0, 0x0
00003724  0004 000A                ori.b      D4, 0xA /* '\n' */
00003728  0005 0004                ori.b      D5, 0x4
0000372C  0001 0000                ori.b      D1, 0x0
00003730  0000 0000                ori.b      D0, 0x0
00003734  0000 000B                ori.b      D0, 0xB
00003738  0019 0001                ori.b      [A1]+, 0x1
0000373C  0000 0000                ori.b      D0, 0x0
00003740  0000 0000                ori.b      D0, 0x0
00003744  0000 0000                ori.b      D0, 0x0
00003748  001A 0060                ori.b      [A2]+, 0x60 /* '`' */
0000374C  0001 0000                ori.b      D1, 0x0
00003750  0000 0000                ori.b      D0, 0x0
00003754  0000 0000                ori.b      D0, 0x0
00003758  0000 0000                ori.b      D0, 0x0
0000375C  0000 0000                ori.b      D0, 0x0
00003760  0000 0000                ori.b      D0, 0x0
00003764  0000 0000                ori.b      D0, 0x0
00003768  0000 0000                ori.b      D0, 0x0
0000376C  0000 0000                ori.b      D0, 0x0
00003770  0000 0000                ori.b      D0, 0x0
00003774  0000 0000                ori.b      D0, 0x0
00003778  0000 0000                ori.b      D0, 0x0
0000377C  0000 0000                ori.b      D0, 0x0
00003780  0000 0000                ori.b      D0, 0x0
00003784  0000 0000                ori.b      D0, 0x0
00003788  0000 0000                ori.b      D0, 0x0
0000378C  0000 0000                ori.b      D0, 0x0
00003790  0000 0000                ori.b      D0, 0x0
00003794  0000 0000                ori.b      D0, 0x0
00003798  0000 0000                ori.b      D0, 0x0
0000379C  0000 0000                ori.b      D0, 0x0
000037A0  0000 0000                ori.b      D0, 0x0
000037A4  0000 0000                ori.b      D0, 0x0
000037A8  0000 0000                ori.b      D0, 0x0
000037AC  0000 0000                ori.b      D0, 0x0
000037B0  0000 0000                ori.b      D0, 0x0
000037B4  0000 0000                ori.b      D0, 0x0
000037B8  0000 0000                ori.b      D0, 0x0
000037BC  0000 0000                ori.b      D0, 0x0
000037C0  0000 0000                ori.b      D0, 0x0
000037C4  0000 0000                ori.b      D0, 0x0
000037C8  0000 0000                ori.b      D0, 0x0
000037CC  0000 0000                ori.b      D0, 0x0
000037D0  0000 0000                ori.b      D0, 0x0
000037D4  0000 0000                ori.b      D0, 0x0
000037D8  0000 0000                ori.b      D0, 0x0
000037DC  0000 0000                ori.b      D0, 0x0
000037E0  0000 0000                ori.b      D0, 0x0
000037E4  0000 0000                ori.b      D0, 0x0
000037E8  0000 0000                ori.b      D0, 0x0
000037EC  0000 0000                ori.b      D0, 0x0
000037F0  0000 0000                ori.b      D0, 0x0
000037F4  0000 0000                ori.b      D0, 0x0
000037F8  0000 0000                ori.b      D0, 0x0
000037FC  0000 0000                ori.b      D0, 0x0
00003800  0000 0000                ori.b      D0, 0x0
00003804  0000 0000                ori.b      D0, 0x0
00003808  0000 0000                ori.b      D0, 0x0
0000380C  0000 0000                ori.b      D0, 0x0
00003810  0000 0000                ori.b      D0, 0x0
00003814  0000 0000                ori.b      D0, 0x0
00003818  0000 0000                ori.b      D0, 0x0
0000381C  0000 0000                ori.b      D0, 0x0
00003820  0000 0000                ori.b      D0, 0x0
00003824  0000 0000                ori.b      D0, 0x0
00003828  0000 0000                ori.b      D0, 0x0
0000382C  0000 0000                ori.b      D0, 0x0
00003830  0000 0000                ori.b      D0, 0x0
00003834  0000 0000                ori.b      D0, 0x0
00003838  0000 0000                ori.b      D0, 0x0
0000383C  0000 0000                ori.b      D0, 0x0
00003840  0000 0000                ori.b      D0, 0x0
00003844  FFCE                     .invalid   <<F/7/7>>
00003846  0230 0016 0000           andi.b     [A0 + D0.w], 0x16
0000384C  0000 0000                ori.b      D0, 0x0
00003850  0000 0000                ori.b      D0, 0x0
00003854  0000 0000                ori.b      D0, 0x0
00003858  0000 0000                ori.b      D0, 0x0
0000385C  0000 0000                ori.b      D0, 0x0
00003860  0000 0000                ori.b      D0, 0x0
00003864  0000 0000                ori.b      D0, 0x0
00003868  0001 0013                ori.b      D1, 0x13
0000386C  0001 0000                ori.b      D1, 0x0
00003870  0000 0000                ori.b      D0, 0x0
00003874  0000 0000                ori.b      D0, 0x0
00003878  0000 0000                ori.b      D0, 0x0
0000387C  0000 0000                ori.b      D0, 0x0
00003880  0000 0000                ori.b      D0, 0x0
00003884  0000 0000                ori.b      D0, 0x0
00003888  0000 0000                ori.b      D0, 0x0
0000388C  0101                     btst       D1, D0
0000388E  010D                     btst       A5, D0
00003890  0001 00E7                ori.b      D1, 0xE7
00003894  0000 0000                ori.b      D0, 0x0
00003898  0000 0000                ori.b      D0, 0x0
0000389C  0000 010E                ori.b      D0, 0xE
000038A0  0118                     btst       [A0]+, D0
000038A2  0001 0000                ori.b      D1, 0x0
000038A6  0000 0000                ori.b      D0, 0x0
000038AA  0000 0000                ori.b      D0, 0x0
000038AE  0000 0000                ori.b      D0, 0x0
000038B2  0000 0000                ori.b      D0, 0x0
000038B6  0000 0000                ori.b      D0, 0x0
000038BA  0000 0000                ori.b      D0, 0x0
000038BE  0000 0000                ori.b      D0, 0x0
000038C2  0198                     bclr       [A0]+, D0
000038C4  01E9                     .incomplete
000038C6  0001 0000                ori.b      D1, 0x0
000038CA  0000 0000                ori.b      D0, 0x0
000038CE  0000 0000                ori.b      D0, 0x0
000038D2  0000 01EA                ori.b      D0, 0xEA
000038D6  01F0                     .incomplete
000038D8  0001 0000                ori.b      D1, 0x0
000038DC  0000 0000                ori.b      D0, 0x0
000038E0  0000 0000                ori.b      D0, 0x0
000038E4  0000 01F1                ori.b      D0, 0xF1
000038E8  01FA                     .incomplete
000038EA  0005 0006                ori.b      D5, 0x6
000038EE  0000 0032                ori.b      D0, 0x32 /* '2' */
000038F2  0000 0000                ori.b      D0, 0x0
000038F6  0000 01FB                ori.b      D0, 0xFB
000038FA  01FB                     .incomplete
000038FC  0006 0000                ori.b      D6, 0x0
00003900  0000 0000                ori.b      D0, 0x0
00003904  0000 0000                ori.b      D0, 0x0
00003908  0000 0000                ori.b      D0, 0x0
0000390C  0000 0000                ori.b      D0, 0x0
00003910  0000 0000                ori.b      D0, 0x0
00003914  0000 0000                ori.b      D0, 0x0
00003918  0000 0000                ori.b      D0, 0x0
0000391C  0000 0000                ori.b      D0, 0x0
00003920  0000 0000                ori.b      D0, 0x0
00003924  0000 0000                ori.b      D0, 0x0
00003928  0000 0000                ori.b      D0, 0x0
0000392C  0000 0000                ori.b      D0, 0x0
00003930  0000 0000                ori.b      D0, 0x0
00003934  0000 0000                ori.b      D0, 0x0
00003938  0000 0000                ori.b      D0, 0x0
0000393C  0000 0000                ori.b      D0, 0x0
00003940  0000 0000                ori.b      D0, 0x0
00003944  0000 0000                ori.b      D0, 0x0
00003948  0000 0000                ori.b      D0, 0x0
0000394C  0000 0000                ori.b      D0, 0x0
00003950  0000 0000                ori.b      D0, 0x0
00003954  0000 0000                ori.b      D0, 0x0
00003958  0000 0000                ori.b      D0, 0x0
0000395C  0000 0000                ori.b      D0, 0x0
00003960  0000 0000                ori.b      D0, 0x0
00003964  0000 0000                ori.b      D0, 0x0
00003968  0000 0000                ori.b      D0, 0x0
0000396C  0000 0000                ori.b      D0, 0x0
00003970  0000 0000                ori.b      D0, 0x0
00003974  0000 0000                ori.b      D0, 0x0
00003978  0000 0000                ori.b      D0, 0x0
0000397C  0000 0000                ori.b      D0, 0x0
00003980  0000 0000                ori.b      D0, 0x0
00003984  0000 0000                ori.b      D0, 0x0
00003988  0000 0000                ori.b      D0, 0x0
0000398C  0000 0000                ori.b      D0, 0x0
00003990  0000 0000                ori.b      D0, 0x0
00003994  0000 0000                ori.b      D0, 0x0
00003998  0000 0000                ori.b      D0, 0x0
0000399C  0000 0000                ori.b      D0, 0x0
000039A0  0000 0000                ori.b      D0, 0x0
000039A4  0000 0000                ori.b      D0, 0x0
000039A8  0000 0000                ori.b      D0, 0x0
000039AC  0000 0000                ori.b      D0, 0x0
000039B0  0000 0000                ori.b      D0, 0x0
000039B4  0000 0000                ori.b      D0, 0x0
000039B8  0000 0000                ori.b      D0, 0x0
000039BC  0000 0000                ori.b      D0, 0x0
000039C0  0000 0000                ori.b      D0, 0x0
000039C4  0000 0000                ori.b      D0, 0x0
000039C8  0000 0000                ori.b      D0, 0x0
000039CC  0000 0000                ori.b      D0, 0x0
000039D0  0000 0000                ori.b      D0, 0x0
000039D4  0000 0000                ori.b      D0, 0x0
000039D8  0000 0000                ori.b      D0, 0x0
000039DC  0000 0000                ori.b      D0, 0x0
000039E0  0000 0000                ori.b      D0, 0x0
000039E4  0000 0000                ori.b      D0, 0x0
000039E8  0000 0000                ori.b      D0, 0x0
000039EC  0000 0000                ori.b      D0, 0x0
000039F0  0000 0000                ori.b      D0, 0x0
000039F4  FFCE                     .invalid   <<F/7/7>>
000039F6  0145                     bchg       D5, D0
000039F8  0016 0000                ori.b      [A6], 0x0
000039FC  0000 0000                ori.b      D0, 0x0
00003A00  0000 0000                ori.b      D0, 0x0
00003A04  0000 0000                ori.b      D0, 0x0
00003A08  0000 0000                ori.b      D0, 0x0
00003A0C  0000 0000                ori.b      D0, 0x0
00003A10  0000 0000                ori.b      D0, 0x0
00003A14  0000 0000                ori.b      D0, 0x0
00003A18  FFCE                     .invalid   <<F/7/7>>
00003A1A  0230 001D 0000           andi.b     [A0 + D0.w], 0x1D
00003A20  0000 0000                ori.b      D0, 0x0
00003A24  0000 0000                ori.b      D0, 0x0
00003A28  0000 0000                ori.b      D0, 0x0
00003A2C  0000 0000                ori.b      D0, 0x0
00003A30  0000 0000                ori.b      D0, 0x0
00003A34  0000 0000                ori.b      D0, 0x0
00003A38  0000 0000                ori.b      D0, 0x0
00003A3C  0001 021C                ori.b      D1, 0x1C
00003A40  4E75                     rts
00003A42  0000 0000                ori.b      D0, 0x0
00003A46  0000 0000                ori.b      D0, 0x0
00003A4A  0000 FE0C                ori.b      D0, 0xC
00003A4E  007E 000E                ori.w      <<invalid special address>>, 0xE
00003A52  020A 0018                andi.b     A2, 0x18
00003A56  020A 0022                andi.b     A2, 0x22 /* '\"' */
00003A5A  020A 002C                andi.b     A2, 0x2C /* ',' */
00003A5E  020A 0035                andi.b     A2, 0x35 /* '5' */
00003A62  00A2 0040 018C           ori.l      -[A2], 0x40018C
00003A68  0036 020A 003C           ori.b      [A6 + D0.w + 0x3C], 0xA /* '\n' */
00003A6E  022E 0046 022E           andi.b     [A6 + 0x22E], 0x46 /* 'F' */
00003A74  0050 022E                ori.w      [A0], 0x22E
00003A78  005A 022E                ori.w      [A2]+, 0x22E
00003A7C  0069 0252 006B           ori.w      [A1 + 0x6B], 0x252
00003A82  02D0                     .incomplete
00003A84  0075 02D0 007E           ori.w      [A5 + D0.w + 0x7E], 0x2D0
00003A8A  02AC 007F 02D0 0089      andi.l     [A4 + 0x89], 0x7F02D0
00003A92  02D0                     .incomplete
00003A94  0093 02F4 00A8           ori.l      [A3], 0x2F400A8
00003A9A  0384                     bclr       D4, D1
00003A9C  00DC                     .incomplete
00003A9E  03BA 00E6                bclr       [PC + 0xE6 /* 00003B86, value 0xCF00D4, cstring "" */], D1
00003AA2  03BA 00F0                bclr       [PC + 0xF0 /* 00003B94, value 0x0, cstring "" */], D1
00003AA6  03BA 00F7                bclr       [PC + 0xF7 /* 00003B9F, value 0x0, cstring "" */], D1
00003AAA  03DE                     .incomplete
00003AAC  010B                     btst       A3, D0
00003AAE  044A 011F                subi.w     A2, 0x11F
00003AB2  04B6 0000 0000 0000      subi.l     [A6 + D0.w], 0x0
00003ABA  0000 0000                ori.b      D0, 0x0
00003ABE  0000 0000                ori.b      D0, 0x0
00003AC2  0000 0000                ori.b      D0, 0x0
00003AC6  0000 0000                ori.b      D0, 0x0
00003ACA  0000 0000                ori.b      D0, 0x0
00003ACE  0000 0000                ori.b      D0, 0x0
00003AD2  FE0C FE0E                .unknown   0xFE0C 0xFE0E (W = 7)
00003AD6  0001 0000                ori.b      D1, 0x0
00003ADA  0000 0000                ori.b      D0, 0x0
00003ADE  0000 0000                ori.b      D0, 0x0
00003AE2  0000 0000                ori.b      D0, 0x0
00003AE6  0000 0000                ori.b      D0, 0x0
00003AEA  0000 0000                ori.b      D0, 0x0
00003AEE  0000 0000                ori.b      D0, 0x0
00003AF2  0000 0000                ori.b      D0, 0x0
00003AF6  0038 004F 0208           ori.b      [0x00000208 /* SPVolCtl */], 0x4F /* 'O' */
00003AFC  0240 0000                andi.w     D0, 0x0
00003B00  0022 0036                ori.b      -[A2], 0x36 /* '6' */
00003B04  0000 0000                ori.b      D0, 0x0
00003B08  005E 0066                ori.w      [A6]+, 0x66 /* 'f' */
00003B0C  0001 0000                ori.b      D1, 0x0
00003B10  0000 0000                ori.b      D0, 0x0
00003B14  0000 0000                ori.b      D0, 0x0
00003B18  0000 0067                ori.b      D0, 0x67 /* 'g' */
00003B1C  007B 0023 0000           ori.w      [PC + D0.w], 0x23 /* '#' */
00003B22  0073 0015 0001           ori.w      [A3 + D0.w + 0x1], 0x15
00003B28  0000 0000                ori.b      D0, 0x0
00003B2C  007C 008F                ori.w      sr, 143
00003B30  0001 0000                ori.b      D1, 0x0
00003B34  0000 0000                ori.b      D0, 0x0
00003B38  0000 0000                ori.b      D0, 0x0
00003B3C  0000 0090                ori.b      D0, 0x90
00003B40  00A4 0023 0001           ori.l      -[A4], 0x230001
00003B46  009D 0015 0001           ori.l      [A5]+, 0x150001
00003B4C  0000 0000                ori.b      D0, 0x0
00003B50  00A5 00B1 0001           ori.l      -[A5], 0xB10001
00003B56  0035 0000 0000           ori.b      [A5 + D0.w], 0x0
00003B5C  0000 0000                ori.b      D0, 0x0
00003B60  0000 00B2                ori.b      D0, 0xB2
00003B64  00B9 0001 0000 0000 0000 ori.l      [0x00000000 /* __m68k_reset_stack__ */], 0x10000
00003B6E  0000 0000                ori.b      D0, 0x0
00003B72  0000 00BA                ori.b      D0, 0xBA
00003B76  00CE                     .incomplete
00003B78  0023 0002                ori.b      -[A3], 0x2
00003B7C  00C7                     .incomplete
00003B7E  0015 0001                ori.b      [A5], 0x1
00003B82  0000 0000                ori.b      D0, 0x0
00003B86  00CF                     .incomplete
00003B88  00D4                     .incomplete
00003B8A  0001 0000                ori.b      D1, 0x0
00003B8E  0000 0000                ori.b      D0, 0x0
00003B92  0000 0000                ori.b      D0, 0x0
00003B96  0000 0100                ori.b      D0, 0x0
00003B9A  010E                     btst       A6, D0
00003B9C  0001 0000                ori.b      D1, 0x0
00003BA0  0000 0000                ori.b      D0, 0x0
00003BA4  0000 0000                ori.b      D0, 0x0
00003BA8  0000 010F                ori.b      D0, 0xF
00003BAC  0119                     btst       [A1]+, D0
00003BAE  0009 0000                ori.b      A1, 0x0
00003BB2  01C2                     .incomplete
00003BB4  0000 0022                ori.b      D0, 0x22 /* '\"' */
00003BB8  0001 0000                ori.b      D1, 0x0
00003BBC  011A                     btst       [A2]+, D0
00003BBE  011A                     btst       [A2]+, D0
00003BC0  0006 0000                ori.b      D6, 0x0
00003BC4  0000 0000                ori.b      D0, 0x0
00003BC8  0000 0000                ori.b      D0, 0x0
00003BCC  0000 0000                ori.b      D0, 0x0
00003BD0  0000 0000                ori.b      D0, 0x0
00003BD4  0000 0000                ori.b      D0, 0x0
00003BD8  0000 0000                ori.b      D0, 0x0
00003BDC  0000 0000                ori.b      D0, 0x0
00003BE0  0117                     btst       [A7], D0
00003BE2  0117                     btst       [A7], D0
00003BE4  0006 0000                ori.b      D6, 0x0
00003BE8  0000 0000                ori.b      D0, 0x0
00003BEC  0000 0000                ori.b      D0, 0x0
00003BF0  0000 0118                ori.b      D0, 0x18
00003BF4  0124                     btst       -[A4], D0
00003BF6  0006 0000                ori.b      D6, 0x0
00003BFA  0000 0000                ori.b      D0, 0x0
00003BFE  0000 0000                ori.b      D0, 0x0
00003C02  0000 0125                ori.b      D0, 0x25 /* '%' */
00003C06  012F 000A                btst       [A7 + 0xA], D0
00003C0A  0168 0000                bchg       [A0 + 0x0], D0
00003C0E  001E 0000                ori.b      [A6]+, 0x0
00003C12  0001 0000                ori.b      D1, 0x0
00003C16  0130 014B 0001 0000      btst       [[A0 + <<invalid base displacement size>>] + 0x10000], D0
00003C1E  0000 0000                ori.b      D0, 0x0
00003C22  0000 0000                ori.b      D0, 0x0
00003C26  0000 014C                ori.b      D0, 0x4C /* 'L' */
00003C2A  0166                     bchg       -[A6], D0
00003C2C  0018 FFFF                ori.b      [A0]+, 0xFF
00003C30  0000 0034                ori.b      D0, 0x34 /* '4' */
00003C34  0000 0000                ori.b      D0, 0x0
00003C38  0000 0167                ori.b      D0, 0x67 /* 'g' */
00003C3C  0167                     bchg       -[A7], D0
00003C3E  0006 0000                ori.b      D6, 0x0
00003C42  0000 0000                ori.b      D0, 0x0
00003C46  0000 0000                ori.b      D0, 0x0
00003C4A  0000 0000                ori.b      D0, 0x0
00003C4E  0000 0000                ori.b      D0, 0x0
00003C52  0000 0000                ori.b      D0, 0x0
00003C56  0000 0000                ori.b      D0, 0x0
00003C5A  0000 0000                ori.b      D0, 0x0
00003C5E  003B 004F 0208           ori.b      [PC + D0.w * 2 + 0x8], 0x4F /* 'O' */
00003C64  0240 0000                andi.w     D0, 0x0
00003C68  0022 0036                ori.b      -[A2], 0x36 /* '6' */
00003C6C  0000 0000                ori.b      D0, 0x0
00003C70  0000 0000                ori.b      D0, 0x0
00003C74  0000 0000                ori.b      D0, 0x0
00003C78  0000 0000                ori.b      D0, 0x0
00003C7C  0000 0000                ori.b      D0, 0x0
00003C80  0000 003B                ori.b      D0, 0x3B /* ';' */
00003C84  004F 0207                ori.w      A7, 0x207
00003C88  0000 00B4                ori.b      D0, 0xB4
00003C8C  000A 005A                ori.b      A2, 0x5A /* 'Z' */
00003C90  0000 0000                ori.b      D0, 0x0
00003C94  0000 0000                ori.b      D0, 0x0
00003C98  0000 0000                ori.b      D0, 0x0
00003C9C  0000 0000                ori.b      D0, 0x0
00003CA0  0000 0000                ori.b      D0, 0x0
00003CA4  0000 0003                ori.b      D0, 0x3
00003CA8  0003 001B                ori.b      D3, 0x1B
00003CAC  0000 0000                ori.b      D0, 0x0
00003CB0  0000 0000                ori.b      D0, 0x0
00003CB4  0000 0000                ori.b      D0, 0x0
00003CB8  0004 000E                ori.b      D4, 0xE
00003CBC  0001 0000                ori.b      D1, 0x0
00003CC0  0000 0000                ori.b      D0, 0x0
00003CC4  0000 0000                ori.b      D0, 0x0
00003CC8  0000 000F                ori.b      D0, 0xF
00003CCC  001B 0001                ori.b      [A3]+, 0x1
00003CD0  0069 0000 0000           ori.w      [A1 + 0x0], 0x0
00003CD6  0000 0000                ori.b      D0, 0x0
00003CDA  0000 001C                ori.b      D0, 0x1C
00003CDE  0041 0001                ori.w      D1, 0x1
00003CE2  0000 0000                ori.b      D0, 0x0
00003CE6  0000 0000                ori.b      D0, 0x0
00003CEA  0000 0000                ori.b      D0, 0x0
00003CEE  0000 0000                ori.b      D0, 0x0
00003CF2  0000 0000                ori.b      D0, 0x0
00003CF6  0000 0000                ori.b      D0, 0x0
00003CFA  0000 0000                ori.b      D0, 0x0
00003CFE  0000 005C                ori.b      D0, 0x5C /* '\\' */
00003D02  0077 0001 0000           ori.w      [A7 + D0.w], 0x1
00003D08  0000 0000                ori.b      D0, 0x0
00003D0C  0000 0000                ori.b      D0, 0x0
00003D10  0000 0000                ori.b      D0, 0x0
00003D14  0000 0000                ori.b      D0, 0x0
00003D18  0000 0000                ori.b      D0, 0x0
00003D1C  0000 0000                ori.b      D0, 0x0
00003D20  0000 0000                ori.b      D0, 0x0
00003D24  01BF                     bclr       <<invalid special address>>, D0
00003D26  01D3                     .incomplete
00003D28  0208 03CC                andi.b     A0, 0xCC
00003D2C  0000 0052                ori.b      D0, 0x52 /* 'R' */
00003D30  0062 0000                ori.w      -[A2], 0x0
00003D34  0000 0000                ori.b      D0, 0x0
00003D38  0000 0000                ori.b      D0, 0x0
00003D3C  0000 0000                ori.b      D0, 0x0
00003D40  0000 0000                ori.b      D0, 0x0
00003D44  0000 0000                ori.b      D0, 0x0
00003D48  0091 00B4 0001           ori.l      [A1], 0xB40001
00003D4E  0000 0000                ori.b      D0, 0x0
00003D52  0000 0000                ori.b      D0, 0x0
00003D56  0000 0000                ori.b      D0, 0x0
00003D5A  0103                     btst       D3, D0
00003D5C  0113                     btst       [A3], D0
00003D5E  0001 0093                ori.b      D1, 0x93
00003D62  0000 0000                ori.b      D0, 0x0
00003D66  0000 0000                ori.b      D0, 0x0
00003D6A  0000 0114                ori.b      D0, 0x14
00003D6E  0126                     btst       -[A6], D0
00003D70  0001 0000                ori.b      D1, 0x0
00003D74  0000 0000                ori.b      D0, 0x0
00003D78  0000 0000                ori.b      D0, 0x0
00003D7C  0000 0172                ori.b      D0, 0x72 /* 'r' */
00003D80  018F                     bclr       A7, D0
00003D82  0001 0000                ori.b      D1, 0x0
00003D86  0000 0000                ori.b      D0, 0x0
00003D8A  0000 0000                ori.b      D0, 0x0
00003D8E  0000 0190                ori.b      D0, 0x90
00003D92  019C                     bclr       [A4]+, D0
00003D94  0001 0093                ori.b      D1, 0x93
00003D98  0000 0000                ori.b      D0, 0x0
00003D9C  0000 0000                ori.b      D0, 0x0
00003DA0  0000 019D                ori.b      D0, 0x9D
00003DA4  01AE 0001                bclr       [A6 + 0x1], D0
00003DA8  0000 0000                ori.b      D0, 0x0
00003DAC  0000 0000                ori.b      D0, 0x0
00003DB0  0000 0000                ori.b      D0, 0x0
00003DB4  01BF                     bclr       <<invalid special address>>, D0
00003DB6  01D3                     .incomplete
00003DB8  0208 03CC                andi.b     A0, 0xCC
00003DBC  0000 0052                ori.b      D0, 0x52 /* 'R' */
00003DC0  0062 0000                ori.w      -[A2], 0x0
00003DC4  0000 0000                ori.b      D0, 0x0
00003DC8  0000 0000                ori.b      D0, 0x0
00003DCC  0000 0000                ori.b      D0, 0x0
00003DD0  0000 0000                ori.b      D0, 0x0
00003DD4  0000 0000                ori.b      D0, 0x0
00003DD8  00CA                     .incomplete
00003DDA  00E6                     .incomplete
00003DDC  0001 0000                ori.b      D1, 0x0
00003DE0  0000 0000                ori.b      D0, 0x0
00003DE4  0000 0000                ori.b      D0, 0x0
00003DE8  0000 0138                ori.b      D0, 0x38 /* '8' */
00003DEC  0154                     bchg       [A4], D0
00003DEE  0001 0000                ori.b      D1, 0x0
00003DF2  0000 0000                ori.b      D0, 0x0
00003DF6  0000 0000                ori.b      D0, 0x0
00003DFA  0000 0000                ori.b      D0, 0x0
00003DFE  0000 0000                ori.b      D0, 0x0
00003E02  0000 0000                ori.b      D0, 0x0
00003E06  0000 0000                ori.b      D0, 0x0
00003E0A  0000 0000                ori.b      D0, 0x0
00003E0E  01BF                     bclr       <<invalid special address>>, D0
00003E10  01D3                     .incomplete
00003E12  0207 0372                andi.b     D7, 0x72 /* 'r' */
00003E16  0000 007A                ori.b      D0, 0x7A /* 'z' */
00003E1A  00EB                     .incomplete
00003E1C  0000 0000                ori.b      D0, 0x0
00003E20  0000 0000                ori.b      D0, 0x0
00003E24  0000 0000                ori.b      D0, 0x0
00003E28  0000 0000                ori.b      D0, 0x0
00003E2C  0000 0000                ori.b      D0, 0x0
00003E30  0000 0003                ori.b      D0, 0x3
00003E34  0003 0006                ori.b      D3, 0x6
00003E38  0000 0000                ori.b      D0, 0x0
00003E3C  0000 0000                ori.b      D0, 0x0
00003E40  0000 0000                ori.b      D0, 0x0
00003E44  0004 000A                ori.b      D4, 0xA /* '\n' */
00003E48  0005 0005                ori.b      D5, 0x5
00003E4C  0001 0000                ori.b      D1, 0x0
00003E50  0000 0000                ori.b      D0, 0x0
00003E54  0000 000B                ori.b      D0, 0xB
00003E58  0026 0001                ori.b      -[A6], 0x1
00003E5C  0000 0000                ori.b      D0, 0x0
00003E60  0000 0000                ori.b      D0, 0x0
00003E64  0000 0000                ori.b      D0, 0x0
00003E68  0027 0031                ori.b      -[A7], 0x31 /* '1' */
00003E6C  0009 0000                ori.b      A1, 0x0
00003E70  0492 0000 006A           subi.l     [A2], 0x6A /* 'j' */
00003E76  0001 0000                ori.b      D1, 0x0
00003E7A  0032 0032 0006           ori.b      [A2 + D0.w + 0x6], 0x32 /* '2' */
00003E80  0000 0000                ori.b      D0, 0x0
00003E84  0000 0000                ori.b      D0, 0x0
00003E88  0000 0000                ori.b      D0, 0x0
00003E8C  0000 0000                ori.b      D0, 0x0
00003E90  0000 0000                ori.b      D0, 0x0
00003E94  0000 0000                ori.b      D0, 0x0
00003E98  0000 0000                ori.b      D0, 0x0
00003E9C  0000 0003                ori.b      D0, 0x3
00003EA0  0003 0006                ori.b      D3, 0x6
00003EA4  0000 0000                ori.b      D0, 0x0
00003EA8  0000 0000                ori.b      D0, 0x0
00003EAC  0000 0000                ori.b      D0, 0x0
00003EB0  0004 004C                ori.b      D4, 0x4C /* 'L' */
00003EB4  0001 0000                ori.b      D1, 0x0
00003EB8  0000 0000                ori.b      D0, 0x0
00003EBC  0000 0000                ori.b      D0, 0x0
00003EC0  0000 004D                ori.b      D0, 0x4D /* 'M' */
00003EC4  004D 0006                ori.w      A5, 0x6
00003EC8  0000 0000                ori.b      D0, 0x0
00003ECC  0000 0000                ori.b      D0, 0x0
00003ED0  0000 0000                ori.b      D0, 0x0
00003ED4  004E 0058                ori.w      A6, 0x58 /* 'X' */
00003ED8  000A 0426                ori.b      A2, 0x26 /* '&' */
00003EDC  0000 0066                ori.b      D0, 0x66 /* 'f' */
00003EE0  0000 0001                ori.b      D0, 0x1
00003EE4  0000 0059                ori.b      D0, 0x59 /* 'Y' */
00003EE8  01B8 0001                bclr       [0x00000001], D0
00003EEC  0000 0000                ori.b      D0, 0x0
00003EF0  0000 0000                ori.b      D0, 0x0
00003EF4  0000 0000                ori.b      D0, 0x0
00003EF8  0000 0000                ori.b      D0, 0x0
00003EFC  0000 0000                ori.b      D0, 0x0
00003F00  0000 0000                ori.b      D0, 0x0
00003F04  0000 0000                ori.b      D0, 0x0
00003F08  0000 0001                ori.b      D0, 0x1
00003F0C  01FF                     .incomplete
00003F0E  001D 0000                ori.b      [A5]+, 0x0
00003F12  0000 0000                ori.b      D0, 0x0
00003F16  0000 0000                ori.b      D0, 0x0
00003F1A  0000 0000                ori.b      D0, 0x0
00003F1E  0000 0000                ori.b      D0, 0x0
00003F22  0000 0000                ori.b      D0, 0x0
00003F26  0000 0000                ori.b      D0, 0x0
00003F2A  0000 0000                ori.b      D0, 0x0
00003F2E  0003 010E                ori.b      D3, 0xE
00003F32  0288 034E 0001           andi.l     A0, 0x34E0001
00003F38  0318                     btst       [A0]+, D1
00003F3A  4E75                     rts
00003F3C  0000 0000                ori.b      D0, 0x0
00003F40  0000 0000                ori.b      D0, 0x0
00003F44  0000 FE0C                ori.b      D0, 0xC
00003F48  0036 001D 005A           ori.b      [A6 + D0.w + 0x5A], 0x1D
00003F4E  0052 0144                ori.w      [A2], 0x144
00003F52  008E 020A 00CA           ori.l      A6, 0x20A00CA
00003F58  02AC 0108 032A 011F      andi.l     [A4 + 0x11F], 0x108032A
00003F60  03DE                     .incomplete
00003F62  0000 0000                ori.b      D0, 0x0
00003F66  0000 0000                ori.b      D0, 0x0
00003F6A  0000 0000                ori.b      D0, 0x0
00003F6E  0000 0000                ori.b      D0, 0x0
00003F72  0000 0000                ori.b      D0, 0x0
00003F76  0000 0000                ori.b      D0, 0x0
00003F7A  0000 0000                ori.b      D0, 0x0
00003F7E  0000 0000                ori.b      D0, 0x0
00003F82  0000 FE0C                ori.b      D0, 0xC
00003F86  FE0E 0001                .unknown   0xFE0E 0x0001 (W = 7)
00003F8A  0000 0000                ori.b      D0, 0x0
00003F8E  0000 0000                ori.b      D0, 0x0
00003F92  0000 0000                ori.b      D0, 0x0
00003F96  0000 0000                ori.b      D0, 0x0
00003F9A  0000 0000                ori.b      D0, 0x0
00003F9E  0000 0000                ori.b      D0, 0x0
00003FA2  0000 0000                ori.b      D0, 0x0
00003FA6  0000 0091                ori.b      D0, 0x91
00003FAA  009B 0001 0000           ori.l      [A3]+, 0x10000
00003FB0  0000 0000                ori.b      D0, 0x0
00003FB4  0000 0000                ori.b      D0, 0x0
00003FB8  0000 009C                ori.b      D0, 0x9C
00003FBC  00A8 0001 001D 0000      ori.l      [A0 + 0x0], 0x1001D
00003FC4  0000 0000                ori.b      D0, 0x0
00003FC8  0000 0000                ori.b      D0, 0x0
00003FCC  00A9 00B0 0001 0000      ori.l      [A1 + 0x0], 0xB00001
00003FD4  0000 0000                ori.b      D0, 0x0
00003FD8  0000 0000                ori.b      D0, 0x0
00003FDC  0000 00B1                ori.b      D0, 0xB1
00003FE0  00C9                     .incomplete
00003FE2  0002 0000                ori.b      D2, 0x0
00003FE6  019E                     bclr       [A6]+, D0
00003FE8  0000 0012                ori.b      D0, 0x12
00003FEC  0000 0000                ori.b      D0, 0x0
00003FF0  00CA                     .incomplete
00003FF2  00E2                     .incomplete
00003FF4  0001 0000                ori.b      D1, 0x0
00003FF8  0000 0000                ori.b      D0, 0x0
00003FFC  0000 0000                ori.b      D0, 0x0
00004000  0000 011A                ori.b      D0, 0x1A
00004004  013F                     btst       <<invalid special address>>, D0
00004006  0001 0000                ori.b      D1, 0x0
0000400A  0000 0000                ori.b      D0, 0x0
0000400E  0000 0000                ori.b      D0, 0x0
00004012  0000 0140                ori.b      D0, 0x40 /* '@' */
00004016  014C                     bchg       A4, D0
00004018  0001 001D                ori.b      D1, 0x1D
0000401C  0000 0000                ori.b      D0, 0x0
00004020  0000 0000                ori.b      D0, 0x0
00004024  0000 014D                ori.b      D0, 0x4D /* 'M' */
00004028  0168 0001                bchg       [A0 + 0x1], D0
0000402C  0000 0000                ori.b      D0, 0x0
00004030  0000 0000                ori.b      D0, 0x0
00004034  0000 0000                ori.b      D0, 0x0
00004038  0195                     bclr       [A5], D0
0000403A  01BE                     bclr       <<invalid special address>>, D0
0000403C  0001 0000                ori.b      D1, 0x0
00004040  0000 0000                ori.b      D0, 0x0
00004044  0000 0000                ori.b      D0, 0x0
00004048  0000 01BF                ori.b      D0, 0xBF
0000404C  01D5                     .incomplete
0000404E  0001 0000                ori.b      D1, 0x0
00004052  0000 0000                ori.b      D0, 0x0
00004056  0000 0000                ori.b      D0, 0x0
0000405A  0000 01D6                ori.b      D0, 0xD6
0000405E  01E0                     .incomplete
00004060  0005 0008                ori.b      D5, 0x8
00004064  0000 0036                ori.b      D0, 0x36 /* '6' */
00004068  0000 0000                ori.b      D0, 0x0
0000406C  0000 01E1                ori.b      D0, 0xE1
00004070  01E1                     .incomplete
00004072  0006 0000                ori.b      D6, 0x0
00004076  0000 0000                ori.b      D0, 0x0
0000407A  0000 0000                ori.b      D0, 0x0
0000407E  0000 0000                ori.b      D0, 0x0
00004082  0000 0000                ori.b      D0, 0x0
00004086  0000 0000                ori.b      D0, 0x0
0000408A  0000 0000                ori.b      D0, 0x0
0000408E  0000 0000                ori.b      D0, 0x0
00004092  0040 0063                ori.w      D0, 0x63 /* 'c' */
00004096  0001 0000                ori.b      D1, 0x0
0000409A  0000 0000                ori.b      D0, 0x0
0000409E  0000 0000                ori.b      D0, 0x0
000040A2  0000 0064                ori.b      D0, 0x64 /* 'd' */
000040A6  0070 0001 0052           ori.w      [A0 + D0.w + 0x52], 0x1
000040AC  0000 0000                ori.b      D0, 0x0
000040B0  0000 0000                ori.b      D0, 0x0
000040B4  0000 0071                ori.b      D0, 0x71 /* 'q' */
000040B8  007D 0001                ori.w      <<invalid special address>>, 0x1
000040BC  0052 0000                ori.w      [A2], 0x0
000040C0  0000 0000                ori.b      D0, 0x0
000040C4  0000 0000                ori.b      D0, 0x0
000040C8  007E 00B0                ori.w      <<invalid special address>>, 0xB0
000040CC  0001 0000                ori.b      D1, 0x0
000040D0  0000 0000                ori.b      D0, 0x0
000040D4  0000 0000                ori.b      D0, 0x0
000040D8  0000 00B1                ori.b      D0, 0xB1
000040DC  00C9                     .incomplete
000040DE  0003 00A2                ori.b      D3, 0xA2
000040E2  0000 000E                ori.b      D0, 0xE
000040E6  0000 0000                ori.b      D0, 0x0
000040EA  0000 00CA                ori.b      D0, 0xCA
000040EE  01A4                     bclr       -[A4], D0
000040F0  0001 0000                ori.b      D1, 0x0
000040F4  0000 0000                ori.b      D0, 0x0
000040F8  0000 0000                ori.b      D0, 0x0
000040FC  0000 01A5                ori.b      D0, 0xA5
00004100  01BD                     bclr       <<invalid special address>>, D0
00004102  0002 0000                ori.b      D2, 0x0
00004106  0288 0000 0016           andi.l     A0, 0x16
0000410C  0000 0000                ori.b      D0, 0x0
00004110  01BE                     bclr       <<invalid special address>>, D0
00004112  01E0                     .incomplete
00004114  0001 0000                ori.b      D1, 0x0
00004118  0000 0000                ori.b      D0, 0x0
0000411C  0000 0000                ori.b      D0, 0x0
00004120  0000 01E1                ori.b      D0, 0xE1
00004124  01E1                     .incomplete
00004126  001B 0000                ori.b      [A3]+, 0x0
0000412A  0000 0000                ori.b      D0, 0x0
0000412E  0000 0000                ori.b      D0, 0x0
00004132  0000 01E2                ori.b      D0, 0xE2
00004136  0320                     btst       -[A0], D1
00004138  0001 0000                ori.b      D1, 0x0
0000413C  0000 0000                ori.b      D0, 0x0
00004140  0000 0000                ori.b      D0, 0x0
00004144  0000 0000                ori.b      D0, 0x0
00004148  0000 0000                ori.b      D0, 0x0
0000414C  0000 0000                ori.b      D0, 0x0
00004150  0000 0000                ori.b      D0, 0x0
00004154  0000 0000                ori.b      D0, 0x0
00004158  0003 0003                ori.b      D3, 0x3
0000415C  001B 0000                ori.b      [A3]+, 0x0
00004160  0000 0000                ori.b      D0, 0x0
00004164  0000 0000                ori.b      D0, 0x0
00004168  0000 0004                ori.b      D0, 0x4
0000416C  000E 0001                ori.b      A6, 0x1
00004170  0000 0000                ori.b      D0, 0x0
00004174  0000 0000                ori.b      D0, 0x0
00004178  0000 0000                ori.b      D0, 0x0
0000417C  000F 001B                ori.b      A7, 0x1B
00004180  0001 008E                ori.b      D1, 0x8E
00004184  0000 0000                ori.b      D0, 0x0
00004188  0000 0000                ori.b      D0, 0x0
0000418C  0000 001C                ori.b      D0, 0x1C
00004190  003B 0001 0000           ori.b      [PC + D0.w], 0x1
00004196  0000 0000                ori.b      D0, 0x0
0000419A  0000 0000                ori.b      D0, 0x0
0000419E  0000 003C                ori.b      D0, 0x3C /* '<' */
000041A2  0054 0002                ori.w      [A4], 0x2
000041A6  0000 02D0                ori.b      D0, 0xD0
000041AA  0000 001A                ori.b      D0, 0x1A
000041AE  0000 0000                ori.b      D0, 0x0
000041B2  0055 01A4                ori.w      [A5], 0x1A4
000041B6  0001 0000                ori.b      D1, 0x0
000041BA  0000 0000                ori.b      D0, 0x0
000041BE  0000 0000                ori.b      D0, 0x0
000041C2  0000 01A5                ori.b      D0, 0xA5
000041C6  01BD                     bclr       <<invalid special address>>, D0
000041C8  0003 01C2                ori.b      D3, 0xC2
000041CC  0000 0012                ori.b      D0, 0x12
000041D0  0000 0000                ori.b      D0, 0x0
000041D4  0000 01BE                ori.b      D0, 0xBE
000041D8  01C6                     .incomplete
000041DA  0001 0000                ori.b      D1, 0x0
000041DE  0000 0000                ori.b      D0, 0x0
000041E2  0000 0000                ori.b      D0, 0x0
000041E6  0000 0000                ori.b      D0, 0x0
000041EA  0000 0000                ori.b      D0, 0x0
000041EE  0000 0000                ori.b      D0, 0x0
000041F2  0000 0000                ori.b      D0, 0x0
000041F6  0000 0000                ori.b      D0, 0x0
000041FA  002B 003B 0001           ori.b      [A3 + 0x1], 0x3B /* ';' */
00004200  0000 0000                ori.b      D0, 0x0
00004204  0000 0000                ori.b      D0, 0x0
00004208  0000 0000                ori.b      D0, 0x0
0000420C  003C 0054                ori.b      ccr, 84
00004210  0003 0264                ori.b      D3, 0x64 /* 'd' */
00004214  0000 0016                ori.b      D0, 0x16
00004218  0000 0000                ori.b      D0, 0x0
0000421C  0000 0055                ori.b      D0, 0x55 /* 'U' */
00004220  01B9 0001 0000           bclr       [0x00010000], D0
00004226  0000 0000                ori.b      D0, 0x0
0000422A  0000 0000                ori.b      D0, 0x0
0000422E  0000 01BA                ori.b      D0, 0xBA
00004232  01D2                     .incomplete
00004234  0002 0000                ori.b      D2, 0x0
00004238  0384                     bclr       D4, D1
0000423A  0000 001E                ori.b      D0, 0x1E
0000423E  0000 0000                ori.b      D0, 0x0
00004242  01D3                     .incomplete
00004244  01E0                     .incomplete
00004246  0001 0000                ori.b      D1, 0x0
0000424A  0000 0000                ori.b      D0, 0x0
0000424E  0000 0000                ori.b      D0, 0x0
00004252  0000 01E1                ori.b      D0, 0xE1
00004256  01E1                     .incomplete
00004258  001B 0000                ori.b      [A3]+, 0x0
0000425C  0000 0000                ori.b      D0, 0x0
00004260  0000 0000                ori.b      D0, 0x0
00004264  0000 0000                ori.b      D0, 0x0
00004268  0000 0000                ori.b      D0, 0x0
0000426C  0000 0000                ori.b      D0, 0x0
00004270  0000 0000                ori.b      D0, 0x0
00004274  0000 0000                ori.b      D0, 0x0
00004278  FFFC                     .invalid   <<F/7/7>>
0000427A  FFFC                     .invalid   <<F/7/7>>
0000427C  0006 0000                ori.b      D6, 0x0
00004280  0000 0000                ori.b      D0, 0x0
00004284  0000 0000                ori.b      D0, 0x0
00004288  0000 FFFD                ori.b      D0, 0xFD
0000428C  0003 0005                ori.b      D3, 0x5
00004290  FFFF                     .invalid   <<F/7/7>>
00004292  0000 0037                ori.b      D0, 0x37 /* '7' */
00004296  0000 0000                ori.b      D0, 0x0
0000429A  0000 0004                ori.b      D0, 0x4
0000429E  002A 0001 0004           ori.b      [A2 + 0x4], 0x1
000042A4  002A 0003 0003           ori.b      [A2 + 0x3], 0x3
000042AA  0000 0000                ori.b      D0, 0x0
000042AE  002B 01B9 0001           ori.b      [A3 + 0x1], 0xB9
000042B4  0000 0000                ori.b      D0, 0x0
000042B8  0000 0000                ori.b      D0, 0x0
000042BC  0000 0000                ori.b      D0, 0x0
000042C0  01BA 01D2                bclr       [PC + 0x1D2 /* 00004494, value 0x0, cstring "" */], D0
000042C4  0003 02F4                ori.b      D3, 0xF4
000042C8  0000 001A                ori.b      D0, 0x1A
000042CC  0000 0000                ori.b      D0, 0x0
000042D0  0000 01D3                ori.b      D0, 0xD3
000042D4  01DF                     .incomplete
000042D6  0001 0108                ori.b      D1, 0x8
000042DA  0000 0000                ori.b      D0, 0x0
000042DE  0000 0000                ori.b      D0, 0x0
000042E2  0000 01E0                ori.b      D0, 0xE0
000042E6  01E0                     .incomplete
000042E8  0001 0000                ori.b      D1, 0x0
000042EC  0000 0000                ori.b      D0, 0x0
000042F0  0000 0000                ori.b      D0, 0x0
000042F4  0000 01E1                ori.b      D0, 0xE1
000042F8  01E1                     .incomplete
000042FA  001B 0000                ori.b      [A3]+, 0x0
000042FE  0000 0000                ori.b      D0, 0x0
00004302  0000 0000                ori.b      D0, 0x0
00004306  0000 01E2                ori.b      D0, 0xE2
0000430A  0258 0001                andi.w     [A0]+, 0x1
0000430E  0000 0000                ori.b      D0, 0x0
00004312  0000 0000                ori.b      D0, 0x0
00004316  0000 0000                ori.b      D0, 0x0
0000431A  0000 0000                ori.b      D0, 0x0
0000431E  0000 0000                ori.b      D0, 0x0
00004322  0000 0000                ori.b      D0, 0x0
00004326  0000 0000                ori.b      D0, 0x0
0000432A  0000 0003                ori.b      D0, 0x3
0000432E  0258 001D                andi.w     [A0]+, 0x1D
00004332  0000 0000                ori.b      D0, 0x0
00004336  0000 0000                ori.b      D0, 0x0
0000433A  0000 0000                ori.b      D0, 0x0
0000433E  0000 0000                ori.b      D0, 0x0
00004342  0000 0000                ori.b      D0, 0x0
00004346  0000 0000                ori.b      D0, 0x0
0000434A  0000 0000                ori.b      D0, 0x0
0000434E  0000 0003                ori.b      D0, 0x3
00004352  00D8                     .incomplete
00004354  017A 0240                bchg       [PC + 0x240 /* 00004596, value 0x158 */], D0
00004358  0003 0168                ori.b      D3, 0x68 /* 'h' */
0000435C  007E 0396                ori.w      <<invalid special address>>, 0x396
fn00004360:
00004360  41FA FF3A                lea.l      A0, [PC - 0xC6 /* 0000429C, value 0x4002A, cstring "" */]
00004364  20A8 0006                move.l     [A0], [A0 + 0x6]
00004368  600E                     bra        +0x10 /* 00004378 */
export_130:
0000436A  5340                     subq.w     D0, 1
0000436C  660A                     bne        +0xC /* 00004378 */
0000436E  41FA FF2C                lea.l      A0, [PC - 0xD4 /* 0000429C, value 0x4002A, cstring "" */]
00004372  20A8 000A                move.l     [A0], [A0 + 0xA]
00004376  4E71                     nop
label00004378:
00004378  4E75                     rts
0000437A  0000 0000                ori.b      D0, 0x0
0000437E  0000 0000                ori.b      D0, 0x0
00004382  0000 FE0C                ori.b      D0, 0xC
00004386  0036 0030 005A           ori.b      [A6 + D0.w + 0x5A], 0x30 /* '0' */
0000438C  0044 00D8                ori.w      D4, 0xD8
00004390  0094 0156 00DF           ori.l      [A4], 0x15600DF
00004396  01F8                     .incomplete
00004398  0107                     btst       D7, D0
0000439A  0264 011F                andi.w     -[A4], 0x11F
0000439E  033C 0000                btst       0x0, D1
000043A2  0000 0000                ori.b      D0, 0x0
000043A6  0000 0000                ori.b      D0, 0x0
000043AA  0000 0000                ori.b      D0, 0x0
000043AE  0000 0000                ori.b      D0, 0x0
000043B2  0000 0000                ori.b      D0, 0x0
000043B6  0000 0000                ori.b      D0, 0x0
000043BA  0000 0000                ori.b      D0, 0x0
000043BE  0000 0000                ori.b      D0, 0x0
000043C2  FE0C FE0E                .unknown   0xFE0C 0xFE0E (W = 7)
000043C6  0001 0000                ori.b      D1, 0x0
000043CA  0000 0000                ori.b      D0, 0x0
000043CE  0000 0000                ori.b      D0, 0x0
000043D2  0000 0000                ori.b      D0, 0x0
000043D6  0000 0000                ori.b      D0, 0x0
000043DA  0000 0000                ori.b      D0, 0x0
000043DE  0000 0000                ori.b      D0, 0x0
000043E2  0000 0000                ori.b      D0, 0x0
000043E6  0120                     btst       -[A0], D0
000043E8  0130 0001                btst       [A0 + D0.w + 0x1], D0
000043EC  0000 0000                ori.b      D0, 0x0
000043F0  0000 0000                ori.b      D0, 0x0
000043F4  0000 0000                ori.b      D0, 0x0
000043F8  0131 0149                btst       [[A1 + <<invalid base displacement size>>]], D0
000043FC  0002 0000                ori.b      D2, 0x0
00004400  017A 0000                bchg       [PC /* 00004402 */], D0
00004404  0016 0000                ori.b      [A6], 0x0
00004408  0000 014A                ori.b      D0, 0x4A /* 'J' */
0000440C  0154                     bchg       [A4], D0
0000440E  0001 0030                ori.b      D1, 0x30 /* '0' */
00004412  0000 0000                ori.b      D0, 0x0
00004416  0000 0000                ori.b      D0, 0x0
0000441A  0000 0155                ori.b      D0, 0x55 /* 'U' */
0000441E  016B 0001                bchg       [A3 + 0x1], D0
00004422  0000 0000                ori.b      D0, 0x0
00004426  0000 0000                ori.b      D0, 0x0
0000442A  0000 0000                ori.b      D0, 0x0
0000442E  016C 0176                bchg       [A4 + 0x176], D0
00004432  0009 0000                ori.b      A1, 0x0
00004436  00FC                     .incomplete
00004438  0000 0012                ori.b      D0, 0x12
0000443C  0001 0000                ori.b      D1, 0x0
00004440  0177 0177                bchg       <<invalid full ext with IS == 1 and I/IS == 7>>, D0
00004444  0006 0000                ori.b      D6, 0x0
00004448  0000 0000                ori.b      D0, 0x0
0000444C  0000 0000                ori.b      D0, 0x0
00004450  0000 0000                ori.b      D0, 0x0
00004454  0000 0000                ori.b      D0, 0x0
00004458  0000 0000                ori.b      D0, 0x0
0000445C  0000 0000                ori.b      D0, 0x0
00004460  0000 0000                ori.b      D0, 0x0
00004464  018F                     bclr       A7, D0
00004466  0193                     bclr       [A3], D0
00004468  0006 0000                ori.b      D6, 0x0
0000446C  0000 0000                ori.b      D0, 0x0
00004470  0000 0000                ori.b      D0, 0x0
00004474  0000 0194                ori.b      D0, 0x94
00004478  019E                     bclr       [A6]+, D0
0000447A  000A 00B4                ori.b      A2, 0xB4
0000447E  0000 000E                ori.b      D0, 0xE
00004482  0000 0001                ori.b      D0, 0x1
00004486  0000 019F                ori.b      D0, 0x9F
0000448A  01B9 0001 0000           bclr       [0x00010000], D0
00004490  0000 0000                ori.b      D0, 0x0
00004494  0000 0000                ori.b      D0, 0x0
00004498  0000 01BA                ori.b      D0, 0xBA
0000449C  01C8                     .incomplete
0000449E  0017 0000                ori.b      [A7], 0x0
000044A2  0000 0000                ori.b      D0, 0x0
000044A6  0000 0000                ori.b      D0, 0x0
000044AA  0000 01C9                ori.b      D0, 0xC9
000044AE  01D4                     .incomplete
000044B0  0001 0000                ori.b      D1, 0x0
000044B4  0000 0000                ori.b      D0, 0x0
000044B8  0000 0000                ori.b      D0, 0x0
000044BC  0000 01D5                ori.b      D0, 0xD5
000044C0  01E1                     .incomplete
000044C2  001B 0000                ori.b      [A3]+, 0x0
000044C6  0000 0000                ori.b      D0, 0x0
000044CA  0000 0000                ori.b      D0, 0x0
000044CE  0000 0000                ori.b      D0, 0x0
000044D2  0000 0000                ori.b      D0, 0x0
000044D6  0000 0000                ori.b      D0, 0x0
000044DA  0000 0000                ori.b      D0, 0x0
000044DE  0000 0000                ori.b      D0, 0x0
000044E2  0120                     btst       -[A0], D0
000044E4  0130 0001                btst       [A0 + D0.w + 0x1], D0
000044E8  0000 0000                ori.b      D0, 0x0
000044EC  0000 0000                ori.b      D0, 0x0
000044F0  0000 0000                ori.b      D0, 0x0
000044F4  0131 0149                btst       [[A1 + <<invalid base displacement size>>]], D0
000044F8  0003 007E                ori.b      D3, 0x7E /* '~' */
000044FC  0000 000E                ori.b      D0, 0xE
00004500  0000 0000                ori.b      D0, 0x0
00004504  0000 014A                ori.b      D0, 0x4A /* 'J' */
00004508  0157                     bchg       [A7], D0
0000450A  0001 0000                ori.b      D1, 0x0
0000450E  0000 0000                ori.b      D0, 0x0
00004512  0000 0000                ori.b      D0, 0x0
00004516  0000 0158                ori.b      D0, 0x58 /* 'X' */
0000451A  0170 0002                bchg       [A0 + D0.w + 0x2], D0
0000451E  0000 021C                ori.b      D0, 0x1C
00004522  0000 001A                ori.b      D0, 0x1A
00004526  0000 0000                ori.b      D0, 0x0
0000452A  0171 01CB 0001 0000      bchg       [[ + <<invalid base displacement size>>] + 0x10000], D0
00004532  0000 0000                ori.b      D0, 0x0
00004536  0000 0000                ori.b      D0, 0x0
0000453A  0000 01CC                ori.b      D0, 0xCC
0000453E  01D4                     .incomplete
00004540  0001 0000                ori.b      D1, 0x0
00004544  0000 0000                ori.b      D0, 0x0
00004548  0000 0000                ori.b      D0, 0x0
0000454C  0000 01D5                ori.b      D0, 0xD5
00004550  01E0                     .incomplete
00004552  0005 0009                ori.b      D5, 0x9 /* '\t' */
00004556  0000 0038                ori.b      D0, 0x38 /* '8' */
0000455A  0000 0000                ori.b      D0, 0x0
0000455E  0000 01E1                ori.b      D0, 0xE1
00004562  01E1                     .incomplete
00004564  0006 0000                ori.b      D6, 0x0
00004568  0000 0000                ori.b      D0, 0x0
0000456C  0000 0000                ori.b      D0, 0x0
00004570  0000 0000                ori.b      D0, 0x0
00004574  0000 0000                ori.b      D0, 0x0
00004578  0000 0000                ori.b      D0, 0x0
0000457C  0000 0000                ori.b      D0, 0x0
00004580  0000 0000                ori.b      D0, 0x0
00004584  0140                     bchg       D0, D0
00004586  0157                     bchg       [A7], D0
00004588  0001 0000                ori.b      D1, 0x0
0000458C  0000 0000                ori.b      D0, 0x0
00004590  0000 0000                ori.b      D0, 0x0
00004594  0000 0158                ori.b      D0, 0x58 /* 'X' */
00004598  0170 0003                bchg       [A0 + D0.w + 0x3], D0
0000459C  019E                     bclr       [A6]+, D0
0000459E  0000 0016                ori.b      D0, 0x16
000045A2  0000 0000                ori.b      D0, 0x0
000045A6  0000 0171                ori.b      D0, 0x71 /* 'q' */
000045AA  01E0                     .incomplete
000045AC  0001 0000                ori.b      D1, 0x0
000045B0  0000 0000                ori.b      D0, 0x0
000045B4  0000 0000                ori.b      D0, 0x0
000045B8  0000 01E1                ori.b      D0, 0xE1
000045BC  01EB                     .incomplete
000045BE  0009 0000                ori.b      A1, 0x0
000045C2  02D0                     .incomplete
000045C4  0000 001E                ori.b      D0, 0x1E
000045C8  FFFF                     .invalid   <<F/7/7>>
000045CA  0000 01EC                ori.b      D0, 0xEC
000045CE  01EE                     .incomplete
000045D0  0006 0000                ori.b      D6, 0x0
000045D4  0000 0000                ori.b      D0, 0x0
000045D8  0000 0000                ori.b      D0, 0x0
000045DC  0000 0000                ori.b      D0, 0x0
000045E0  0000 0000                ori.b      D0, 0x0
000045E4  0000 0000                ori.b      D0, 0x0
000045E8  0000 0000                ori.b      D0, 0x0
000045EC  0000 0000                ori.b      D0, 0x0
000045F0  0003 0003                ori.b      D3, 0x3
000045F4  0006 0000                ori.b      D6, 0x0
000045F8  0000 0000                ori.b      D0, 0x0
000045FC  0000 0000                ori.b      D0, 0x0
00004600  0000 0004                ori.b      D0, 0x4
00004604  000A 0005                ori.b      A2, 0x5
00004608  0007 0001                ori.b      D7, 0x1
0000460C  0039 0000 0000 0000      ori.b      [0x00000000 /* __m68k_reset_stack__ */], 0x0
00004614  000B 00EE                ori.b      A3, 0xEE
00004618  0001 0000                ori.b      D1, 0x0
0000461C  0000 0000                ori.b      D0, 0x0
00004620  0000 0000                ori.b      D0, 0x0
00004624  0000 00EF                ori.b      D0, 0xEF
00004628  0126                     btst       -[A6], D0
0000462A  0001 00EF                ori.b      D1, 0xEF
0000462E  0126                     btst       -[A6], D0
00004630  00EE                     .incomplete
00004632  00EE                     .incomplete
00004634  0000 0000                ori.b      D0, 0x0
00004638  0127                     btst       -[A7], D0
0000463A  0194                     bclr       [A4], D0
0000463C  0001 0000                ori.b      D1, 0x0
00004640  0000 0000                ori.b      D0, 0x0
00004644  0000 0000                ori.b      D0, 0x0
00004648  0000 0195                ori.b      D0, 0x95
0000464C  019F                     bclr       [A7]+, D0
0000464E  000A 0240                ori.b      A2, 0x40 /* '@' */
00004652  0000 001A                ori.b      D0, 0x1A
00004656  0000 FFFF                ori.b      D0, 0xFF
0000465A  0000 01A0                ori.b      D0, 0xA0
0000465E  01B4 0001                bclr       [A4 + D0.w + 0x1], D0
00004662  0000 0000                ori.b      D0, 0x0
00004666  0000 0000                ori.b      D0, 0x0
0000466A  0000 0000                ori.b      D0, 0x0
0000466E  01B5 01C1                bclr       [[ + <<invalid base displacement size>>]], D0
00004672  0001 0106                ori.b      D1, 0x6
00004676  0000 0000                ori.b      D0, 0x0
0000467A  0000 0000                ori.b      D0, 0x0
0000467E  0000 01C2                ori.b      D0, 0xC2
00004682  01D3                     .incomplete
00004684  0001 0000                ori.b      D1, 0x0
00004688  0000 0000                ori.b      D0, 0x0
0000468C  0000 0000                ori.b      D0, 0x0
00004690  0000 01D4                ori.b      D0, 0xD4
00004694  01E0                     .incomplete
00004696  0001 0106                ori.b      D1, 0x6
0000469A  0000 0000                ori.b      D0, 0x0
0000469E  0000 0000                ori.b      D0, 0x0
000046A2  0000 01E1                ori.b      D0, 0xE1
000046A6  01E1                     .incomplete
000046A8  001B 0000                ori.b      [A3]+, 0x0
000046AC  0000 0000                ori.b      D0, 0x0
000046B0  0000 0000                ori.b      D0, 0x0
000046B4  0000 0000                ori.b      D0, 0x0
000046B8  0000 0000                ori.b      D0, 0x0
000046BC  0000 0000                ori.b      D0, 0x0
000046C0  0000 0000                ori.b      D0, 0x0
000046C4  0000 0000                ori.b      D0, 0x0
000046C8  0001 01FF                ori.b      D1, 0xFF
000046CC  001D 0000                ori.b      [A5]+, 0x0
000046D0  0000 0000                ori.b      D0, 0x0
000046D4  0000 0000                ori.b      D0, 0x0
000046D8  0000 0001                ori.b      D0, 0x1
000046DC  02F4                     .incomplete
000046DE  0002 0090                ori.b      D2, 0x90
000046E2  0318                     btst       [A0]+, D1
fn000046E4:
000046E4  41FA FF40                lea.l      A0, [PC - 0xC0 /* 00004626, value 0xEF0126, cstring "" */]
000046E8  20A8 0006                move.l     [A0], [A0 + 0x6]
000046EC  600E                     bra        +0x10 /* 000046FC */
export_131:
000046EE  5340                     subq.w     D0, 1
000046F0  660A                     bne        +0xC /* 000046FC */
000046F2  41FA FF32                lea.l      A0, [PC - 0xCE /* 00004626, value 0xEF0126, cstring "" */]
000046F6  20A8 000A                move.l     [A0], [A0 + 0xA]
000046FA  4E71                     nop
label000046FC:
000046FC  4E75                     rts
000046FE  0000 0000                ori.b      D0, 0x0
00004702  0000 0000                ori.b      D0, 0x0
00004706  0000 FE0C                ori.b      D0, 0xC
0000470A  0090 FFC4 020A           ori.l      [A0], 0xFFC4020A
00004710  0003 017A                ori.b      D3, 0x7A /* 'z' */
00004714  0009 017A                ori.b      A1, 0x7A /* 'z' */
00004718  000F 017A                ori.b      A7, 0x7A /* 'z' */
0000471C  0015 017A                ori.b      [A5], 0x7A /* 'z' */
00004720  001B 017A                ori.b      [A3]+, 0x7A /* 'z' */
00004724  0021 017A                ori.b      -[A1], 0x7A /* 'z' */
00004728  0022 0264                ori.b      -[A2], 0x64 /* 'd' */
0000472C  0039 017A 003F 017A      ori.b      [0x003F017A], 0x7A /* 'z' */
00004734  0045 017A                ori.w      D5, 0x17A
00004738  004B 017A                ori.w      A3, 0x17A
0000473C  0051 017A                ori.w      [A1], 0x17A
00004740  0057 017A                ori.w      [A7], 0x17A
00004744  005D 017A                ori.w      [A5]+, 0x17A
00004748  0063 017A                ori.w      -[A3], 0x17A
0000474C  0066 02AC                ori.w      -[A6], 0x2AC
00004750  0090 017A 0093           ori.l      [A0], 0x17A0093
00004756  017A 0099                bchg       [PC + 0x99 /* 000047F1, value 0xFC00 */], D0
0000475A  017A 009F                bchg       [PC + 0x9F /* 000047FB, value 0x9400 */], D0
0000475E  017A 00A5                bchg       [PC + 0xA5 /* 00004805, value 0x0, cstring "" */], D0
00004762  017A 00BC                bchg       [PC + 0xBC /* 00004820, value 0xFB, cstring "" */], D0
00004766  02F4                     .incomplete
00004768  00D4                     .incomplete
0000476A  00B4 00DA 00B4 00E0      ori.l      [A4 + D0.w - 0x20], 0xDA00B4
00004772  00B4 00E6 00B4 00EC      ori.l      [A4 + D0.w - 0x14], 0xE600B4
0000477A  00B4 00F2 00B4 00FF      ori.l      [A4 + D0.w - 0x1], 0xF200B4
00004782  0360                     bchg       -[A0], D1
00004784  011F                     btst       [A7]+, D0
00004786  044A 0000                subi.w     A2, 0x0
0000478A  0000 0000                ori.b      D0, 0x0
0000478E  0000 0000                ori.b      D0, 0x0
00004792  0000 0000                ori.b      D0, 0x0
00004796  0000 0000                ori.b      D0, 0x0
0000479A  0000 0000                ori.b      D0, 0x0
0000479E  0000 FE0C                ori.b      D0, 0xC
000047A2  FE0E 0001                .unknown   0xFE0E 0x0001 (W = 7)
000047A6  0000 0000                ori.b      D0, 0x0
000047AA  0000 0000                ori.b      D0, 0x0
000047AE  0000 0000                ori.b      D0, 0x0
000047B2  0000 0000                ori.b      D0, 0x0
000047B6  0000 0000                ori.b      D0, 0x0
000047BA  0000 0000                ori.b      D0, 0x0
000047BE  0000 0000                ori.b      D0, 0x0
000047C2  0000 0020                ori.b      D0, 0x20 /* ' ' */
000047C6  0030 0221 0000           ori.b      [A0 + D0.w], 0x21 /* '!' */
000047CC  01C2                     .incomplete
000047CE  0000 0000                ori.b      D0, 0x0
000047D2  0008 00E6                ori.b      A0, 0xE6
000047D6  005A 006B                ori.w      [A2]+, 0x6B /* 'k' */
000047DA  0221 01C2                andi.b     -[A1], 0xC2
000047DE  00EA                     .incomplete
000047E0  0000 0000                ori.b      D0, 0x0
000047E4  0008 00E6                ori.b      A0, 0xE6
000047E8  0077 0087 0221           ori.w      [A7 + D0.w * 2 + 0x21], 0x87
000047EE  00D8                     .incomplete
000047F0  00FC                     .incomplete
000047F2  0000 0000                ori.b      D0, 0x0
000047F6  008C 00E6 0094           ori.l      A4, 0xE60094
000047FC  00A4 0221 00EA           ori.l      -[A4], 0x22100EA
00004802  01D4                     .incomplete
00004804  0000 0000                ori.b      D0, 0x0
00004808  0008 00E6                ori.b      A0, 0xE6
0000480C  00CE                     .incomplete
0000480E  00DE                     .incomplete
00004810  0221 01D4                andi.b     -[A1], 0xD4
00004814  0120                     btst       -[A0], D0
00004816  0000 0000                ori.b      D0, 0x0
0000481A  0008 00E6                ori.b      A0, 0xE6
0000481E  00EB                     .incomplete
00004820  00FB                     .incomplete
00004822  0221 010E                andi.b     -[A1], 0xE
00004826  0132 0000                btst       [A2 + D0.w], D0
0000482A  0000 008C                ori.b      D0, 0x8C
0000482E  00E6                     .incomplete
00004830  0108                     btst       A0, D0
00004832  0118                     btst       [A0]+, D0
00004834  0221 0120                andi.b     -[A1], 0x20 /* ' ' */
00004838  0144                     bchg       D4, D0
0000483A  0000 0000                ori.b      D0, 0x0
0000483E  0008 00E6                ori.b      A0, 0xE6
00004842  0125                     btst       -[A5], D0
00004844  0135 0221                btst       [A5 + D0.w * 2 + 0x21], D0
00004848  0132 01E6                btst       <<invalid full ext with IS == 1 and I/IS == 6>>, D0
0000484C  0000 0000                ori.b      D0, 0x0
00004850  0008 00E6                ori.b      A0, 0xE6
00004854  015F                     bchg       [A7]+, D0
00004856  016F 0221                bchg       [A7 + 0x221], D0
0000485A  01E6                     .incomplete
0000485C  0168 018C                bchg       [A0 + 0x18C], D0
00004860  0000 0071                ori.b      D0, 0x71 /* 'q' */
00004864  00E6                     .incomplete
00004866  017C 018C                bchg       0x18C, D0
0000486A  0221 0156                andi.b     -[A1], 0x56 /* 'V' */
0000486E  019E                     bclr       [A6]+, D0
00004870  0000 0000                ori.b      D0, 0x0
00004874  0091 00E6 0000           ori.l      [A1], 0xE60000
0000487A  0000 0000                ori.b      D0, 0x0
0000487E  0000 0000                ori.b      D0, 0x0
00004882  0000 0000                ori.b      D0, 0x0
00004886  0000 0000                ori.b      D0, 0x0
0000488A  015F                     bchg       [A7]+, D0
0000488C  016F 0221                bchg       [A7 + 0x221], D0
00004890  01E6                     .incomplete
00004892  0168 0000                bchg       [A0 + 0x0], D0
00004896  0156                     bchg       [A6], D0
00004898  0008 0070                ori.b      A0, 0x70 /* 'p' */
0000489C  0199                     bclr       [A1]+, D0
0000489E  01A9 0221                bclr       [A1 + 0x221], D0
000048A2  0168 01F8                bchg       [A0 + 0x1F8], D0
000048A6  0000 0000                ori.b      D0, 0x0
000048AA  0008 00A5                ori.b      A0, 0xA5
000048AE  0000 0000                ori.b      D0, 0x0
000048B2  0000 0000                ori.b      D0, 0x0
000048B6  0000 0000                ori.b      D0, 0x0
000048BA  0000 0000                ori.b      D0, 0x0
000048BE  0000 003D                ori.b      D0, 0x3D /* '=' */
000048C2  004D 0221                ori.w      A5, 0x221
000048C6  00C6                     .incomplete
000048C8  00D8                     .incomplete
000048CA  0000 0000                ori.b      D0, 0x0
000048CE  0008 0073                ori.b      A0, 0x73 /* 's' */
000048D2  00B1 00C1 0221 00FC      ori.l      [A1 + D0.w - 0x4], 0xC10221
000048DA  010E                     btst       A6, D0
000048DC  0000 0000                ori.b      D0, 0x0
000048E0  0008 0073                ori.b      A0, 0x73 /* 's' */
000048E4  0142                     bchg       D2, D0
000048E6  0152                     bchg       [A2], D0
000048E8  0221 0144                andi.b     -[A1], 0x44 /* 'D' */
000048EC  018C                     bclr       A4, D0
000048EE  0000 0000                ori.b      D0, 0x0
000048F2  0008 0073                ori.b      A0, 0x73 /* 's' */
000048F6  01B6 0221                bclr       [A6 + D0.w * 2 + 0x21], D0
000048FA  0221 019E                andi.b     -[A1], 0x9E
000048FE  0000 0000                ori.b      D0, 0x0
00004902  0000 004C                ori.b      D0, 0x4C /* 'L' */
00004906  0087 0000 0000           ori.l      D7, 0x0
0000490C  0000 0000                ori.b      D0, 0x0
00004910  0000 0000                ori.b      D0, 0x0
00004914  0000 0000                ori.b      D0, 0x0
00004918  0000 01D2                ori.b      D0, 0xD2
0000491C  01D2                     .incomplete
0000491E  0006 0000                ori.b      D6, 0x0
00004922  0000 0000                ori.b      D0, 0x0
00004926  0000 0000                ori.b      D0, 0x0
0000492A  0000 01D3                ori.b      D0, 0xD3
0000492E  01DB                     .incomplete
00004930  0026 0000                ori.b      -[A6], 0x0
00004934  0288 0000 002A           andi.l     A0, 0x2A /* '*' */
0000493A  0000 0000                ori.b      D0, 0x0
0000493E  01DC                     .incomplete
00004940  01E2                     .incomplete
00004942  0005 000A                ori.b      D5, 0xA /* '\n' */
00004946  0000 003A                ori.b      D0, 0x3A /* ':' */
0000494A  0000 0000                ori.b      D0, 0x0
0000494E  0000 01E3                ori.b      D0, 0xE3
00004952  01E3                     .incomplete
00004954  0006 0000                ori.b      D6, 0x0
00004958  0000 0000                ori.b      D0, 0x0
0000495C  0000 0000                ori.b      D0, 0x0
00004960  0000 0000                ori.b      D0, 0x0
00004964  0000 0000                ori.b      D0, 0x0
00004968  0000 0000                ori.b      D0, 0x0
0000496C  0000 0000                ori.b      D0, 0x0
00004970  0000 0000                ori.b      D0, 0x0
00004974  01A3                     bclr       -[A3], D0
00004976  01D2                     .incomplete
00004978  0001 0000                ori.b      D1, 0x0
0000497C  0000 0000                ori.b      D0, 0x0
00004980  0000 0000                ori.b      D0, 0x0
00004984  0000 01D3                ori.b      D0, 0xD3
00004988  01DF                     .incomplete
0000498A  0003 022E                ori.b      D3, 0x2E /* '.' */
0000498E  0000 000E                ori.b      D0, 0xE
00004992  0000 0000                ori.b      D0, 0x0
00004996  0000 01E0                ori.b      D0, 0xE0
0000499A  01E0                     .incomplete
0000499C  001B 0000                ori.b      [A3]+, 0x0
000049A0  0000 0000                ori.b      D0, 0x0
000049A4  0000 0000                ori.b      D0, 0x0
000049A8  0000 0000                ori.b      D0, 0x0
000049AC  0000 0000                ori.b      D0, 0x0
000049B0  0000 0000                ori.b      D0, 0x0
000049B4  0000 0000                ori.b      D0, 0x0
000049B8  0000 0000                ori.b      D0, 0x0
000049BC  0169 0173                bchg       [A1 + 0x173], D0
000049C0  0001 0000                ori.b      D1, 0x0
000049C4  0000 0000                ori.b      D0, 0x0
000049C8  0000 0000                ori.b      D0, 0x0
000049CC  0000 0174                ori.b      D0, 0x74 /* 't' */
000049D0  0180                     bclr       D0, D0
000049D2  0001 0066                ori.b      D1, 0x66 /* 'f' */
000049D6  0000 0000                ori.b      D0, 0x0
000049DA  0000 0000                ori.b      D0, 0x0
000049DE  0000 0181                ori.b      D0, 0x81
000049E2  019F                     bclr       [A7]+, D0
000049E4  0001 0000                ori.b      D1, 0x0
000049E8  0000 0000                ori.b      D0, 0x0
000049EC  0000 0000                ori.b      D0, 0x0
000049F0  0000 0000                ori.b      D0, 0x0
000049F4  0000 0000                ori.b      D0, 0x0
000049F8  0000 0000                ori.b      D0, 0x0
000049FC  0000 0000                ori.b      D0, 0x0
00004A00  0000 0000                ori.b      D0, 0x0
00004A04  01B9 01C3 0001           bclr       [0x01C30001], D0
00004A0A  0000 0000                ori.b      D0, 0x0
00004A0E  0000 0000                ori.b      D0, 0x0
00004A12  0000 0000                ori.b      D0, 0x0
00004A16  01C4                     .incomplete
00004A18  01D0                     .incomplete
00004A1A  0001 00BC                ori.b      D1, 0xBC
00004A1E  0000 0000                ori.b      D0, 0x0
00004A22  0000 0000                ori.b      D0, 0x0
00004A26  0000 01D1                ori.b      D0, 0xD1
00004A2A  01DD                     .incomplete
00004A2C  0001 00BC                ori.b      D1, 0xBC
00004A30  0000 0000                ori.b      D0, 0x0
00004A34  0000 0000                ori.b      D0, 0x0
00004A38  0000 01DE                ori.b      D0, 0xDE
00004A3C  01E0                     .incomplete
00004A3E  0001 0000                ori.b      D1, 0x0
00004A42  0000 0000                ori.b      D0, 0x0
00004A46  0000 0000                ori.b      D0, 0x0
00004A4A  0000 01E1                ori.b      D0, 0xE1
00004A4E  01E1                     .incomplete
00004A50  001B 0000                ori.b      [A3]+, 0x0
00004A54  0000 0000                ori.b      D0, 0x0
00004A58  0000 0000                ori.b      D0, 0x0
00004A5C  0000 0000                ori.b      D0, 0x0
00004A60  0000 0000                ori.b      D0, 0x0
00004A64  0000 0000                ori.b      D0, 0x0
00004A68  0000 0000                ori.b      D0, 0x0
00004A6C  0000 0000                ori.b      D0, 0x0
00004A70  0003 0003                ori.b      D3, 0x3
00004A74  0006 0000                ori.b      D6, 0x0
00004A78  0000 0000                ori.b      D0, 0x0
00004A7C  0000 0000                ori.b      D0, 0x0
00004A80  0000 0004                ori.b      D0, 0x4
00004A84  0008 0005                ori.b      A0, 0x5
00004A88  0008 0001                ori.b      A0, 0x1
00004A8C  003B 0000 0000           ori.b      [PC + D0.w], 0x0
00004A92  0000 0009                ori.b      D0, 0x9 /* '\t' */
00004A96  0029 0001 0000           ori.b      [A1 + 0x0], 0x1
00004A9C  0000 0000                ori.b      D0, 0x0
00004AA0  0000 0000                ori.b      D0, 0x0
00004AA4  0000 00A1                ori.b      D0, 0xA1
00004AA8  00B5 0001 0000 0000      ori.l      [A5 + D0.w], 0x10000
00004AB0  0000 0000                ori.b      D0, 0x0
00004AB4  0000 0000                ori.b      D0, 0x0
00004AB8  00B6 00C2 0001 00FF      ori.l      [A6 + D0.w - 0x1], 0xC20001
00004AC0  0000 0000                ori.b      D0, 0x0
00004AC4  0000 0000                ori.b      D0, 0x0
00004AC8  0000 00C3                ori.b      D0, 0xC3
00004ACC  00D0                     .incomplete
00004ACE  0001 0000                ori.b      D1, 0x0
00004AD2  0000 0000                ori.b      D0, 0x0
00004AD6  0000 0000                ori.b      D0, 0x0
00004ADA  0000 016D                ori.b      D0, 0x6D /* 'm' */
00004ADE  0190                     bclr       [A0], D0
00004AE0  0001 0000                ori.b      D1, 0x0
00004AE4  0000 0000                ori.b      D0, 0x0
00004AE8  0000 0000                ori.b      D0, 0x0
00004AEC  0000 0191                ori.b      D0, 0x91
00004AF0  019D                     bclr       [A5]+, D0
00004AF2  0001 00FF                ori.b      D1, 0xFF
00004AF6  0000 0000                ori.b      D0, 0x0
00004AFA  0000 0000                ori.b      D0, 0x0
00004AFE  0000 019E                ori.b      D0, 0x9E
00004B02  01C2                     .incomplete
00004B04  0001 0000                ori.b      D1, 0x0
00004B08  0000 0000                ori.b      D0, 0x0
00004B0C  0000 0000                ori.b      D0, 0x0
00004B10  0000 01C3                ori.b      D0, 0xC3
00004B14  01CF                     .incomplete
00004B16  0001 00FF                ori.b      D1, 0xFF
00004B1A  0000 0000                ori.b      D0, 0x0
00004B1E  0000 0000                ori.b      D0, 0x0
00004B22  0000 01D0                ori.b      D0, 0xD0
00004B26  01E0                     .incomplete
00004B28  0001 0000                ori.b      D1, 0x0
00004B2C  0000 0000                ori.b      D0, 0x0
00004B30  0000 0000                ori.b      D0, 0x0
00004B34  0000 01E1                ori.b      D0, 0xE1
00004B38  01E1                     .incomplete
00004B3A  001B 0000                ori.b      [A3]+, 0x0
00004B3E  0000 0000                ori.b      D0, 0x0
00004B42  0000 0000                ori.b      D0, 0x0
00004B46  0000 0000                ori.b      D0, 0x0
00004B4A  0000 0000                ori.b      D0, 0x0
00004B4E  0000 0000                ori.b      D0, 0x0
00004B52  0000 0000                ori.b      D0, 0x0
00004B56  0000 0000                ori.b      D0, 0x0
00004B5A  0001 0200                ori.b      D1, 0x0
00004B5E  001D 0000                ori.b      [A5]+, 0x0
00004B62  0000 0000                ori.b      D0, 0x0
00004B66  0000 0000                ori.b      D0, 0x0
00004B6A  0000 0000                ori.b      D0, 0x0
00004B6E  0000 0000                ori.b      D0, 0x0
00004B72  0000 0000                ori.b      D0, 0x0
00004B76  0000 0000                ori.b      D0, 0x0
00004B7A  0000 0000                ori.b      D0, 0x0
00004B7E  4E75                     rts
00004B80  0003 02D0                ori.b      D3, 0xD0
00004B84  0318                     btst       [A0]+, D1
00004B86  03F0                     .incomplete
00004B88  0003 032A                ori.b      D3, 0x2A /* '*' */
00004B8C  03BA 0414                bclr       [PC + 0x414 /* 00004FA2, value 0x18C, cstring "" */], D1
00004B90  0000 0000                ori.b      D0, 0x0
00004B94  0000 0000                ori.b      D0, 0x0
00004B98  0000 FE0C                ori.b      D0, 0xC
00004B9C  0036 0033 005A           ori.b      [A6 + D0.w + 0x5A], 0x33 /* '3' */
00004BA2  007F 00EA                ori.w      <<invalid special address>>, 0xEA
00004BA6  0094 0132 00A9           ori.l      [A4], 0x13200A9
00004BAC  01D4                     .incomplete
00004BAE  00BE 021C 00D3           ori.l      <<invalid special address>>, 0x21C00D3
00004BB4  0288 00E8 02D0           andi.l     A0, 0xE802D0
00004BBA  00FD                     .incomplete
00004BBC  033C 012C                btst       0x2C /* ',' */, D1
00004BC0  03CC                     .incomplete
00004BC2  0000 0000                ori.b      D0, 0x0
00004BC6  0000 0000                ori.b      D0, 0x0
00004BCA  0000 0000                ori.b      D0, 0x0
00004BCE  0000 0000                ori.b      D0, 0x0
00004BD2  0000 0000                ori.b      D0, 0x0
00004BD6  0000 FE0C                ori.b      D0, 0xC
00004BDA  FE0E 0001                .unknown   0xFE0E 0x0001 (W = 7)
00004BDE  0000 0000                ori.b      D0, 0x0
00004BE2  0000 0000                ori.b      D0, 0x0
00004BE6  0000 0000                ori.b      D0, 0x0
00004BEA  0000 0000                ori.b      D0, 0x0
00004BEE  0000 0000                ori.b      D0, 0x0
00004BF2  0000 0000                ori.b      D0, 0x0
00004BF6  0000 0000                ori.b      D0, 0x0
00004BFA  0000 0037                ori.b      D0, 0x37 /* '7' */
00004BFE  0037 001B 0000           ori.b      [A7 + D0.w], 0x1B
00004C04  0000 0000                ori.b      D0, 0x0
00004C08  0000 0000                ori.b      D0, 0x0
00004C0C  0000 0038                ori.b      D0, 0x38 /* '8' */
00004C10  0049 0001                ori.w      A1, 0x1
00004C14  0000 0000                ori.b      D0, 0x0
00004C18  0000 0000                ori.b      D0, 0x0
00004C1C  0000 0000                ori.b      D0, 0x0
00004C20  004A 0062                ori.w      A2, 0x62 /* 'b' */
00004C24  0002 0000                ori.b      D2, 0x0
00004C28  0168 0000                bchg       [A0 + 0x0], D0
00004C2C  0016 0000                ori.b      [A6], 0x0
00004C30  0000 0063                ori.b      D0, 0x63 /* 'c' */
00004C34  016D 0001                bchg       [A5 + 0x1], D0
00004C38  0000 0000                ori.b      D0, 0x0
00004C3C  0000 0000                ori.b      D0, 0x0
00004C40  0000 0000                ori.b      D0, 0x0
00004C44  016E 0182                bchg       [A6 + 0x182], D0
00004C48  0019 FFFF                ori.b      [A1]+, 0xFF
00004C4C  0000 003C                ori.b      D0, 0x3C /* '<' */
00004C50  0000 0000                ori.b      D0, 0x0
00004C54  0000 0183                ori.b      D0, 0x83
00004C58  01B3 0001                bclr       [A3 + D0.w + 0x1], D0
00004C5C  0000 0000                ori.b      D0, 0x0
00004C60  0000 0000                ori.b      D0, 0x0
00004C64  0000 0000                ori.b      D0, 0x0
00004C68  01B4 01B4                bclr       <<invalid full ext with I/IS == 4>>, D0
00004C6C  001B 0000                ori.b      [A3]+, 0x0
00004C70  0000 0000                ori.b      D0, 0x0
00004C74  0000 0000                ori.b      D0, 0x0
00004C78  0000 0000                ori.b      D0, 0x0
00004C7C  0000 0000                ori.b      D0, 0x0
00004C80  0000 0000                ori.b      D0, 0x0
00004C84  0000 0000                ori.b      D0, 0x0
00004C88  0000 0000                ori.b      D0, 0x0
00004C8C  0080 0080 0001           ori.l      D0, 0x800001
00004C92  0000 0000                ori.b      D0, 0x0
00004C96  0000 0000                ori.b      D0, 0x0
00004C9A  0000 0000                ori.b      D0, 0x0
00004C9E  00F0                     .incomplete
00004CA0  00F0                     .incomplete
00004CA2  0001 007F                ori.b      D1, 0x7F
00004CA6  0000 0000                ori.b      D0, 0x0
00004CAA  0000 0000                ori.b      D0, 0x0
00004CAE  0000 0160                ori.b      D0, 0x60 /* '`' */
00004CB2  0160                     bchg       -[A0], D0
00004CB4  0001 0000                ori.b      D1, 0x0
00004CB8  0000 0000                ori.b      D0, 0x0
00004CBC  0000 0000                ori.b      D0, 0x0
00004CC0  0000 0000                ori.b      D0, 0x0
00004CC4  0000 0000                ori.b      D0, 0x0
00004CC8  0000 0000                ori.b      D0, 0x0
00004CCC  0000 0000                ori.b      D0, 0x0
00004CD0  0000 0000                ori.b      D0, 0x0
00004CD4  0037 0037 001B           ori.b      [A7 + D0.w + 0x1B], 0x37 /* '7' */
00004CDA  0000 0000                ori.b      D0, 0x0
00004CDE  0000 0000                ori.b      D0, 0x0
00004CE2  0000 0000                ori.b      D0, 0x0
00004CE6  0038 0049 0001           ori.b      [0x00000001], 0x49 /* 'I' */
00004CEC  0000 0000                ori.b      D0, 0x0
00004CF0  0000 0000                ori.b      D0, 0x0
00004CF4  0000 0000                ori.b      D0, 0x0
00004CF8  004A 0062                ori.w      A2, 0x62 /* 'b' */
00004CFC  0003 0090                ori.b      D3, 0x90
00004D00  0000 000E                ori.b      D0, 0xE
00004D04  0000 0000                ori.b      D0, 0x0
00004D08  0000 0063                ori.b      D0, 0x63 /* 'c' */
00004D0C  006C 0001 0000           ori.w      [A4 + 0x0], 0x1
00004D12  0000 0000                ori.b      D0, 0x0
00004D16  0000 0000                ori.b      D0, 0x0
00004D1A  0000 00B8                ori.b      D0, 0xB8
00004D1E  00B8 0001 0000 0000      ori.l      [0x00000000 /* __m68k_reset_stack__ */], 0x10000
00004D26  0000 0000                ori.b      D0, 0x0
00004D2A  0000 0000                ori.b      D0, 0x0
00004D2E  0128 0128                btst       [A0 + 0x128], D0
00004D32  0001 0094                ori.b      D1, 0x94
00004D36  0000 0000                ori.b      D0, 0x0
00004D3A  0000 0000                ori.b      D0, 0x0
00004D3E  0000 0198                ori.b      D0, 0x98
00004D42  0198                     bclr       [A0]+, D0
00004D44  0001 0000                ori.b      D1, 0x0
00004D48  0000 0000                ori.b      D0, 0x0
00004D4C  0000 0000                ori.b      D0, 0x0
00004D50  0000 01BD                ori.b      D0, 0xBD
00004D54  01BD                     bclr       <<invalid special address>>, D0
00004D56  0006 0000                ori.b      D6, 0x0
00004D5A  0000 0000                ori.b      D0, 0x0
00004D5E  0000 0000                ori.b      D0, 0x0
00004D62  0000 0000                ori.b      D0, 0x0
00004D66  0000 0000                ori.b      D0, 0x0
00004D6A  0000 0000                ori.b      D0, 0x0
00004D6E  0000 0000                ori.b      D0, 0x0
00004D72  0000 0000                ori.b      D0, 0x0
00004D76  0080 0080 0001           ori.l      D0, 0x800001
00004D7C  0000 0000                ori.b      D0, 0x0
00004D80  0000 0000                ori.b      D0, 0x0
00004D84  0000 0000                ori.b      D0, 0x0
00004D88  00F0                     .incomplete
00004D8A  00F0                     .incomplete
00004D8C  0001 0000                ori.b      D1, 0x0
00004D90  0000 0000                ori.b      D0, 0x0
00004D94  0000 0000                ori.b      D0, 0x0
00004D98  0000 0160                ori.b      D0, 0x60 /* '`' */
00004D9C  0160                     bchg       -[A0], D0
00004D9E  0001 0000                ori.b      D1, 0x0
00004DA2  0000 0000                ori.b      D0, 0x0
00004DA6  0000 0000                ori.b      D0, 0x0
00004DAA  0000 0000                ori.b      D0, 0x0
00004DAE  0000 0000                ori.b      D0, 0x0
00004DB2  0000 0000                ori.b      D0, 0x0
00004DB6  0000 0000                ori.b      D0, 0x0
00004DBA  0000 0000                ori.b      D0, 0x0
00004DBE  0048 0048                ori.w      A0, 0x48 /* 'H' */
00004DC2  0001 0000                ori.b      D1, 0x0
00004DC6  0000 0000                ori.b      D0, 0x0
00004DCA  0000 0000                ori.b      D0, 0x0
00004DCE  0000 00B8                ori.b      D0, 0xB8
00004DD2  00B8 0001 0000 0000      ori.l      [0x00000000 /* __m68k_reset_stack__ */], 0x10000
00004DDA  0000 0000                ori.b      D0, 0x0
00004DDE  0000 0000                ori.b      D0, 0x0
00004DE2  0128 0128                btst       [A0 + 0x128], D0
00004DE6  0001 0000                ori.b      D1, 0x0
00004DEA  0000 0000                ori.b      D0, 0x0
00004DEE  0000 0000                ori.b      D0, 0x0
00004DF2  0000 0198                ori.b      D0, 0x98
00004DF6  0198                     bclr       [A0]+, D0
00004DF8  0001 00BE                ori.b      D1, 0xBE
00004DFC  0000 0000                ori.b      D0, 0x0
00004E00  0000 0000                ori.b      D0, 0x0
00004E04  0000 01BD                ori.b      D0, 0xBD
00004E08  01BD                     bclr       <<invalid special address>>, D0
00004E0A  001B 0000                ori.b      [A3]+, 0x0
00004E0E  0000 0000                ori.b      D0, 0x0
00004E12  0000 0000                ori.b      D0, 0x0
00004E16  0000 0000                ori.b      D0, 0x0
00004E1A  0000 0000                ori.b      D0, 0x0
00004E1E  0000 0000                ori.b      D0, 0x0
00004E22  0000 0000                ori.b      D0, 0x0
00004E26  0000 0000                ori.b      D0, 0x0
00004E2A  0080 0080 0001           ori.l      D0, 0x800001
00004E30  0000 0000                ori.b      D0, 0x0
00004E34  0000 0000                ori.b      D0, 0x0
00004E38  0000 0000                ori.b      D0, 0x0
00004E3C  00F0                     .incomplete
00004E3E  00F0                     .incomplete
00004E40  0001 0000                ori.b      D1, 0x0
00004E44  0000 0000                ori.b      D0, 0x0
00004E48  0000 0000                ori.b      D0, 0x0
00004E4C  0000 0160                ori.b      D0, 0x60 /* '`' */
00004E50  0160                     bchg       -[A0], D0
00004E52  0001 0000                ori.b      D1, 0x0
00004E56  0000 0000                ori.b      D0, 0x0
00004E5A  0000 0000                ori.b      D0, 0x0
00004E5E  0000 0000                ori.b      D0, 0x0
00004E62  0000 0000                ori.b      D0, 0x0
00004E66  0000 0000                ori.b      D0, 0x0
00004E6A  0000 0000                ori.b      D0, 0x0
00004E6E  0000 0000                ori.b      D0, 0x0
00004E72  0048 0048                ori.w      A0, 0x48 /* 'H' */
00004E76  0001 0000                ori.b      D1, 0x0
00004E7A  0000 0000                ori.b      D0, 0x0
00004E7E  0000 0000                ori.b      D0, 0x0
00004E82  0000 00B8                ori.b      D0, 0xB8
00004E86  00B8 0001 0000 0000      ori.l      [0x00000000 /* __m68k_reset_stack__ */], 0x10000
00004E8E  0000 0000                ori.b      D0, 0x0
00004E92  0000 0000                ori.b      D0, 0x0
00004E96  0128 0128                btst       [A0 + 0x128], D0
00004E9A  0001 00E8                ori.b      D1, 0xE8
00004E9E  0000 0000                ori.b      D0, 0x0
00004EA2  0000 0000                ori.b      D0, 0x0
00004EA6  0000 0198                ori.b      D0, 0x98
00004EAA  0198                     bclr       [A0]+, D0
00004EAC  0001 0000                ori.b      D1, 0x0
00004EB0  0000 0000                ori.b      D0, 0x0
00004EB4  0000 0000                ori.b      D0, 0x0
00004EB8  0000 01BD                ori.b      D0, 0xBD
00004EBC  01BD                     bclr       <<invalid special address>>, D0
00004EBE  001B 0000                ori.b      [A3]+, 0x0
00004EC2  0000 0000                ori.b      D0, 0x0
00004EC6  0000 0000                ori.b      D0, 0x0
00004ECA  0000 0000                ori.b      D0, 0x0
00004ECE  0000 0000                ori.b      D0, 0x0
00004ED2  0000 0000                ori.b      D0, 0x0
00004ED6  0000 0000                ori.b      D0, 0x0
00004EDA  0000 0000                ori.b      D0, 0x0
00004EDE  0037 0037 0006           ori.b      [A7 + D0.w + 0x6], 0x37 /* '7' */
00004EE4  0000 0000                ori.b      D0, 0x0
00004EE8  0000 0000                ori.b      D0, 0x0
00004EEC  0000 0000                ori.b      D0, 0x0
00004EF0  0038 0048 0006           ori.b      [0x00000006], 0x48 /* 'H' */
00004EF6  0000 0000                ori.b      D0, 0x0
00004EFA  0000 0000                ori.b      D0, 0x0
00004EFE  0000 0000                ori.b      D0, 0x0
00004F02  0049 0053                ori.w      A1, 0x53 /* 'S' */
00004F06  0015 0000                ori.b      [A5], 0x0
00004F0A  0000 0000                ori.b      D0, 0x0
00004F0E  0000 0000                ori.b      D0, 0x0
00004F12  0000 0054                ori.b      D0, 0x54 /* 'T' */
00004F16  0172 0001                bchg       [A2 + D0.w + 0x1], D0
00004F1A  0000 0000                ori.b      D0, 0x0
00004F1E  0000 0000                ori.b      D0, 0x0
00004F22  0000 0000                ori.b      D0, 0x0
00004F26  0173 018B 0002 0000      bchg       [[ + <<invalid base displacement size>> + D0] + 0x20000], D0
00004F2E  0402 0000                subi.b     D2, 0x0
00004F32  002E 0000 0000           ori.b      [A6 + 0x0], 0x0
00004F38  018C                     bclr       A4, D0
00004F3A  01B3 0001                bclr       [A3 + D0.w + 0x1], D0
00004F3E  0000 0000                ori.b      D0, 0x0
00004F42  0000 0000                ori.b      D0, 0x0
00004F46  0000 0000                ori.b      D0, 0x0
00004F4A  01B4 01B4                bclr       <<invalid full ext with I/IS == 4>>, D0
00004F4E  001B 0000                ori.b      [A3]+, 0x0
00004F52  0000 0000                ori.b      D0, 0x0
00004F56  0000 0000                ori.b      D0, 0x0
00004F5A  0000 0000                ori.b      D0, 0x0
00004F5E  0000 0000                ori.b      D0, 0x0
00004F62  0000 0000                ori.b      D0, 0x0
00004F66  0000 0000                ori.b      D0, 0x0
00004F6A  0000 0000                ori.b      D0, 0x0
00004F6E  0003 0003                ori.b      D3, 0x3
00004F72  0006 0000                ori.b      D6, 0x0
00004F76  0000 0000                ori.b      D0, 0x0
00004F7A  0000 0000                ori.b      D0, 0x0
00004F7E  0000 0004                ori.b      D0, 0x4
00004F82  0172 0005                bchg       [A2 + D0.w + 0x5], D0
00004F86  0009 0001                ori.b      A1, 0x1
00004F8A  003D 0000                ori.b      <<invalid special address>>, 0x0
00004F8E  0000 0000                ori.b      D0, 0x0
00004F92  0173 018B 0027 0396      bchg       [[ + <<invalid base displacement size>> + D0] + 0x270396], D0
00004F9A  0000 002A                ori.b      D0, 0x2A /* '*' */
00004F9E  0000 0000                ori.b      D0, 0x0
00004FA2  0000 018C                ori.b      D0, 0x8C
00004FA6  01D4                     .incomplete
00004FA8  0005 0009                ori.b      D5, 0x9 /* '\t' */
00004FAC  0001 003D                ori.b      D1, 0x3D /* '=' */
00004FB0  0000 0000                ori.b      D0, 0x0
00004FB4  0000 01D5                ori.b      D0, 0xD5
00004FB8  01D5                     .incomplete
00004FBA  0006 0000                ori.b      D6, 0x0
00004FBE  0000 0000                ori.b      D0, 0x0
00004FC2  0000 0000                ori.b      D0, 0x0
00004FC6  0000 0004                ori.b      D0, 0x4
00004FCA  010E                     btst       A6, D0
00004FCC  019E                     bclr       [A6]+, D0
00004FCE  0264 0306                andi.w     -[A4], 0x306
00004FD2  0008 0004                ori.b      A0, 0x4
00004FD6  B399                     xor.l      [A1]+, D1
00004FD8  000A A8E8                ori.b      A2, 0xE8
00004FDC  0009 6D1B                ori.b      A1, 0x1B
00004FE0  0005 95F4                ori.b      D5, 0xF4
00004FE4  000D 495A                ori.b      A5, 0x5A /* 'Z' */
00004FE8  0009 A8E8                ori.b      A1, 0xE8
00004FEC  0006 A8E8                ori.b      D6, 0xE8
00004FF0  0007 F199                ori.b      D7, 0x99
00004FF4  0008 0004                ori.b      A0, 0x4
00004FF8  F158                     .extension 0x158 <<F/4-5/0>> // unimplemented
00004FFA  0006 F11B                ori.b      D6, 0x1B
00004FFE  0009 F1C7                ori.b      A1, 0xC7
00005002  000F 5F38                ori.b      A7, 0x38 /* '8' */
00005006  0005 B989                ori.b      D5, 0x89
0000500A  000A 6D1B                ori.b      A2, 0x1B
0000500E  0001 FF1F                ori.b      D1, 0x1F
00005012  0004 D399                ori.b      D4, 0x99
00005016  0008 000A                ori.b      A0, 0xA /* '\n' */
0000501A  3F27                     move.w     -[A7], -[A7]
0000501C  0001 F1D5                ori.b      D1, 0xD5
00005020  000E 2F2E                ori.b      A6, 0x2E /* '.' */
00005024  0001 F1F6                ori.b      D1, 0xF6
00005028  000A 2F1D                ori.b      A2, 0x1D
0000502C  000A 2F8D                ori.b      A2, 0x8D
00005030  0001 F15D                ori.b      D1, 0x5D /* ']' */
00005034  000A 27A7                ori.b      A2, 0xA7
00005038  0024 00FC                ori.b      -[A4], 0xFC
0000503C  010E                     btst       A6, D0
0000503E  0120                     btst       -[A0], D0
00005040  018C                     bclr       A4, D0
00005042  019E                     bclr       [A6]+, D0
00005044  01B0 01E6                bclr       <<invalid full ext with IS == 1 and I/IS == 6>>, D0
00005048  01F8                     .incomplete
0000504A  020A 022E                andi.b     A2, 0x2E /* '.' */
0000504E  0240 0252                andi.w     D0, 0x252
00005052  0264 029A                andi.w     -[A4], 0x29A
00005056  02AC 02BE 02E2 02F4      andi.l     [A4 + 0x2F4], 0x2BE02E2
0000505E  0306                     btst       D6, D1
00005060  0318                     btst       [A0]+, D1
00005062  0090 00A7 0100           ori.l      [A0], 0xA70100
00005068  00A7 0170 00A7           ori.l      -[A7], 0x17000A7
0000506E  00C8                     .incomplete
00005070  00BC 0138 00BC 01A8 00BC ori.l      0x1A800BC, 0x13800BC
0000507A  0090 00D1 0100           ori.l      [A0], 0xD10100
00005080  00D1                     .incomplete
00005082  0170 00D1                bchg       [A0 + D0.w - 0x2F], D0
00005086  0058 00E6                ori.w      [A0]+, 0xE6
0000508A  00C8                     .incomplete
0000508C  00E6                     .incomplete
0000508E  0138 00E6                btst       [0x000000E6], D0
00005092  01A8 00E6                bclr       [A0 + 0xE6], D0
00005096  0090 00FB 0100           ori.l      [A0], 0xFB0100
0000509C  00FB                     .incomplete
0000509E  0170 00FB                bchg       [A0 + D0.w - 0x5], D0
000050A2  0058 0110                ori.w      [A0]+, 0x110
000050A6  00C8                     .incomplete
000050A8  0110                     btst       [A0], D0
000050AA  0138 0110                btst       [0x00000110 /* StkLowPt */], D0
000050AE  01A8 0110                bclr       [A0 + 0x110], D0
000050B2  4E75                     rts
000050B4  0000 0000                ori.b      D0, 0x0
000050B8  0000 0000                ori.b      D0, 0x0
000050BC  0000 FE0C                ori.b      D0, 0xC
000050C0  018C                     bclr       A4, D0
000050C2  FFC4                     .invalid   <<F/7/7>>
000050C4  04B6 0008 01B0 000B      subi.l     [A6 + D0.w + 0xB], 0x801B0
000050CC  01B0 0011                bclr       [A0 + D0.w + 0x11], D0
000050D0  01B0 0017                bclr       [A0 + D0.w + 0x17], D0
000050D4  01B0 001D                bclr       [A0 + D0.w + 0x1D], D0
000050D8  01B0 0023                bclr       [A0 + D0.w + 0x23], D0
000050DC  01B0 0029                bclr       [A0 + D0.w + 0x29], D0
000050E0  01B0 002A                bclr       [A0 + D0.w + 0x2A], D0
000050E4  0510                     btst       [A0], D2
000050E6  003E 0318                ori.b      <<invalid special address>>, 0x18
000050EA  0042 0318                ori.w      D2, 0x318
000050EE  0048 0318                ori.w      A0, 0x318
000050F2  004E 0318                ori.w      A6, 0x318
000050F6  004E 01D4                ori.w      A6, 0x1D4
000050FA  0052 01D4                ori.w      [A2], 0x1D4
000050FE  0054 0318                ori.w      [A4], 0x318
00005102  0058 01D4                ori.w      [A0]+, 0x1D4
00005106  005A 0318                ori.w      [A2]+, 0x318
0000510A  005B 01D4                ori.w      [A3]+, 0x1D4
0000510E  0060 0318                ori.w      -[A0], 0x318
00005112  0061 01D4                ori.w      -[A1], 0x1D4
00005116  0067 01D4                ori.w      -[A7], 0x1D4
0000511A  0068 02AC 006A           ori.w      [A0 + 0x6A], 0x2AC
00005120  057C 006D                bchg       0x6D /* 'm' */, D2
00005124  01D4                     .incomplete
00005126  006E 02AC 0073           ori.w      [A6 + 0x73], 0x2AC
0000512C  01D4                     .incomplete
0000512E  0074 02AC 0079           ori.w      [A4 + D0.w + 0x79], 0x2AC
00005134  01D4                     .incomplete
00005136  007A 05FA 007A           ori.w      [PC + 0x7A /* 000051B2, value 0xBB, cstring "" */], 0x5FA
0000513C  02AC 0080 02AC 007C      andi.l     [A4 + 0x7C], 0x8002AC
00005144  02F4                     .incomplete
00005146  0082 02F4 0086           ori.l      D2, 0x2F40086
0000514C  02AC 0088 02F4 008C      andi.l     [A4 + 0x8C], 0x8802F4
00005154  02AC 008E 02F4 0092      andi.l     [A4 + 0x92], 0x8E02F4
0000515C  02AC 0093 0642 0094      andi.l     [A4 + 0x94], 0x930642
00005164  02F4                     .incomplete
00005166  0097 0252 0099           ori.l      [A7], 0x2520099
0000516C  0276 009A 0252           andi.w     [A6 + D0.w * 2 + 0x52], 0x9A
00005172  009A 02F4 009E           ori.l      [A2]+, 0x2F4009E
00005178  01D4                     .incomplete
0000517A  00A0 02F4 00A0           ori.l      -[A0], 0x2F400A0
00005180  0276 00A4 01D4           andi.w     <<invalid full ext with I/IS == 4>>, 0xA4
00005186  00A5 068A 00A6           ori.l      -[A5], 0x68A00A6
0000518C  0276 00AA 01D4           andi.w     <<invalid full ext with I/IS == 4>>, 0xAA
00005192  00AA 0252 00AC 0276      ori.l      [A2 + 0x276], 0x25200AC
0000519A  00B0 01D4 00B0 0252      ori.l      [A0 + D0.w * 2 + 0x52], 0x1D400B0
000051A2  00B2 0276 00B6 0252      ori.l      [A2 + D0.w * 2 + 0x52], 0x27600B6
000051AA  00B6 01D4 00B8 0276      ori.l      [A6 + D0.w * 2 + 0x76], 0x1D400B8
000051B2  00BB 02AC 00BE 0276      ori.l      [PC + D0.w * 2 + 0x76], 0x2AC00BE
000051BA  00C0                     .incomplete
000051BC  02AC 00C3 06D2 00C6      andi.l     [A4 + 0xC6], 0xC306D2
000051C4  02AC 00C8 06F6 00CC      andi.l     [A4 + 0xCC], 0xC806F6
000051CC  02AC 00D1 02D0 00D2      andi.l     [A4 + 0xD2], 0xD102D0
000051D4  02AC 00D2 01F8 00D7      andi.l     [A4 + 0xD7], 0xD201F8
000051DC  02D0                     .incomplete
000051DE  00D8                     .incomplete
000051E0  02AC 00D8 01F8 00DD      andi.l     [A4 + 0xDD], 0xD801F8
000051E8  02D0                     .incomplete
000051EA  00DE                     .incomplete
000051EC  01F8                     .incomplete
000051EE  00E0                     .incomplete
000051F0  0762                     bchg       -[A2], D3
000051F2  00E3                     .incomplete
000051F4  02D0                     .incomplete
000051F6  00E4                     .incomplete
000051F8  01F8                     .incomplete
000051FA  00E7                     .incomplete
000051FC  07CE                     .incomplete
000051FE  00E9                     .incomplete
00005200  02D0                     .incomplete
00005202  00EA                     .incomplete
00005204  01F8                     .incomplete
00005206  00EB                     .incomplete
00005208  022E 00EF 02D0           andi.b     [A6 + 0x2D0], 0xEF
0000520E  00F0                     .incomplete
00005210  022E 00F1 01F8           andi.b     [A6 + 0x1F8], 0xF1
00005216  00F5                     .incomplete
00005218  02D0                     .incomplete
0000521A  00F6                     .incomplete
0000521C  022E 00FC 022E           andi.b     [A6 + 0x22E], 0xFC
00005222  00FD                     .incomplete
00005224  07F2                     .incomplete
00005226  00FE                     .incomplete
00005228  0828 0107 0882           btst.b     [A0 + 0x882], 0x7
0000522E  0118                     btst       [A0]+, D0
00005230  08DC 0000                bset.b     [A4]+, 0x0
00005234  0000 0000                ori.b      D0, 0x0
00005238  0000 0000                ori.b      D0, 0x0
0000523C  0000 0000                ori.b      D0, 0x0
00005240  0000 0000                ori.b      D0, 0x0
00005244  0000 0000                ori.b      D0, 0x0
00005248  0000 0000                ori.b      D0, 0x0
0000524C  0000 0000                ori.b      D0, 0x0
00005250  0000 FE0C                ori.b      D0, 0xC
00005254  FE0E 0001                .unknown   0xFE0E 0x0001 (W = 7)
00005258  0000 0000                ori.b      D0, 0x0
0000525C  0000 0000                ori.b      D0, 0x0
00005260  0000 0000                ori.b      D0, 0x0
00005264  0000 0000                ori.b      D0, 0x0
00005268  0000 0000                ori.b      D0, 0x0
0000526C  0000 0000                ori.b      D0, 0x0
00005270  0000 0000                ori.b      D0, 0x0
00005274  0000 002A                ori.b      D0, 0x2A /* '*' */
00005278  003A 0221 034E           ori.b      [PC + 0x34E /* 000055C8, value 0x0, cstring "" */], 0x21 /* '!' */
0000527E  0360                     bchg       -[A0], D1
00005280  0000 01E6                ori.b      D0, 0xE6
00005284  0008 0054                ori.b      A0, 0x54 /* 'T' */
00005288  0000 0000                ori.b      D0, 0x0
0000528C  0000 0000                ori.b      D0, 0x0
00005290  0000 0000                ori.b      D0, 0x0
00005294  0000 0000                ori.b      D0, 0x0
00005298  0000 002A                ori.b      D0, 0x2A /* '*' */
0000529C  003A 0221 034E           ori.b      [PC + 0x34E /* 000055EC, value 0x0, cstring "" */], 0x21 /* '!' */
000052A2  020A 01C2                andi.b     A2, 0xC2
000052A6  0000 0055                ori.b      D0, 0x55 /* 'U' */
000052AA  00B6 0000 0000 0000      ori.l      [A6 + D0.w], 0x0
000052B2  0000 0000                ori.b      D0, 0x0
000052B6  0000 0000                ori.b      D0, 0x0
000052BA  0000 0000                ori.b      D0, 0x0
000052BE  0047 0057                ori.w      D7, 0x57 /* 'W' */
000052C2  0221 01E6                andi.b     -[A1], 0xE6
000052C6  021C 0000                andi.b     [A4]+, 0x0
000052CA  0000 00A5                ori.b      D0, 0xA5
000052CE  00F1                     .incomplete
000052D0  0064 0074                ori.w      -[A4], 0x74 /* 't' */
000052D4  0222 020A                andi.b     -[A2], 0xA /* '\n' */
000052D8  03CC                     .incomplete
000052DA  0000 0000                ori.b      D0, 0x0
000052DE  00A5 00EA 0000           ori.l      -[A5], 0xEA0000
000052E4  0000 0000                ori.b      D0, 0x0
000052E8  0000 0000                ori.b      D0, 0x0
000052EC  0000 0000                ori.b      D0, 0x0
000052F0  0000 0000                ori.b      D0, 0x0
000052F4  00BB 00CB 0221 04A4      ori.l      [PC + D0.w * 4 - 0x5C], 0xCB0221
000052FC  0000 0000                ori.b      D0, 0x0
00005300  0000 00EA                ori.b      D0, 0xEA
00005304  0104                     btst       D4, D0
00005306  0000 0000                ori.b      D0, 0x0
0000530A  0000 0000                ori.b      D0, 0x0
0000530E  0000 0000                ori.b      D0, 0x0
00005312  0000 0000                ori.b      D0, 0x0
00005316  0000 00BB                ori.b      D0, 0xBB
0000531A  00CB                     .incomplete
0000531C  0221 FFFF                andi.b     -[A1], 0xFF
00005320  0000 0414                ori.b      D0, 0x14
00005324  0000 008D                ori.b      D0, 0x8D
00005328  00B6 0000 0000 0000      ori.l      [A6 + D0.w], 0x0
00005330  0000 0000                ori.b      D0, 0x0
00005334  0000 0000                ori.b      D0, 0x0
00005338  0000 0000                ori.b      D0, 0x0
0000533C  00F5                     .incomplete
0000533E  0105                     btst       D5, D0
00005340  0221 0000                andi.b     -[A1], 0x0
00005344  029A 0000 0000           andi.l     [A2]+, 0x0
0000534A  008B 00BE 0112           ori.l      A3, 0xBE0112
00005350  0122                     btst       -[A2], D0
00005352  0221 0288                andi.b     -[A1], 0x88
00005356  02BE 0000 0000           andi.l     <<invalid special address>>, 0x0
0000535C  007A 00BE 0000           ori.w      [PC /* 0000535E */], 0xBE
00005362  0000 0000                ori.b      D0, 0x0
00005366  0000 0000                ori.b      D0, 0x0
0000536A  0000 0000                ori.b      D0, 0x0
0000536E  0000 0000                ori.b      D0, 0x0
00005372  012F 013F                btst       [A7 + 0x13F], D0
00005376  0221 029A                andi.b     -[A1], 0x9A
0000537A  0000 0000                ori.b      D0, 0x0
0000537E  0000 006F                ori.b      D0, 0x6F /* 'o' */
00005382  00D8                     .incomplete
00005384  0000 0000                ori.b      D0, 0x0
00005388  0000 0000                ori.b      D0, 0x0
0000538C  0000 0000                ori.b      D0, 0x0
00005390  0000 0000                ori.b      D0, 0x0
00005394  0000 0169                ori.b      D0, 0x69 /* 'i' */
00005398  0179 0221 FFFF           bchg       [0x0221FFFF], D0
0000539E  0000 0480                ori.b      D0, 0x80
000053A2  0000 004E                ori.b      D0, 0x4E /* 'N' */
000053A6  00F6                     .incomplete
000053A8  0000 0000                ori.b      D0, 0x0
000053AC  0000 0000                ori.b      D0, 0x0
000053B0  0000 0000                ori.b      D0, 0x0
000053B4  0000 0000                ori.b      D0, 0x0
000053B8  0000 0186                ori.b      D0, 0x86
000053BC  0196                     bclr       [A6], D0
000053BE  0221 FFFF                andi.b     -[A1], 0xFF
000053C2  0492 0000 0000           subi.l     [A2], 0x0
000053C8  0008 00A0                ori.b      A0, 0xA0
000053CC  0000 0000                ori.b      D0, 0x0
000053D0  0000 0000                ori.b      D0, 0x0
000053D4  0000 0000                ori.b      D0, 0x0
000053D8  0000 0000                ori.b      D0, 0x0
000053DC  0000 01A3                ori.b      D0, 0xA3
000053E0  01B3 0221                bclr       [A3 + D0.w * 2 + 0x21], D0
000053E4  FFFF                     .invalid   <<F/7/7>>
000053E6  0000 0492                ori.b      D0, 0x92
000053EA  0000 002B                ori.b      D0, 0x2B /* '+' */
000053EE  0060 0000                ori.w      -[A0], 0x0
000053F2  0000 0000                ori.b      D0, 0x0
000053F6  0000 0000                ori.b      D0, 0x0
000053FA  0000 0000                ori.b      D0, 0x0
000053FE  0000 0000                ori.b      D0, 0x0
00005402  000D 001D                ori.b      A5, 0x1D
00005406  0221 0000                andi.b     -[A1], 0x0
0000540A  01E6                     .incomplete
0000540C  0000 0000                ori.b      D0, 0x0
00005410  0055 0093                ori.w      [A5], 0x93
00005414  0047 0057                ori.w      D7, 0x57 /* 'W' */
00005418  0221 01C2                andi.b     -[A1], 0xC2
0000541C  0372 0000                bchg       [A2 + D0.w], D1
00005420  0000 0008                ori.b      D0, 0x8
00005424  003B 0064 0074           ori.b      [PC + D0.w + 0x74], 0x64 /* 'd' */
0000542A  0221 0360                andi.b     -[A1], 0x60 /* '`' */
0000542E  0384                     bclr       D4, D1
00005430  0000 0000                ori.b      D0, 0x0
00005434  0008 003B                ori.b      A0, 0x3B /* ';' */
00005438  0081 0091 0221           ori.l      D1, 0x910221
0000543E  0372 03DE                bchg       <<invalid full ext with IS == 1 and I/IS == 6>>, D1
00005442  0000 0396                ori.b      D0, 0x96
00005446  0008 0030                ori.b      A0, 0x30 /* '0' */
0000544A  0081 0091 0221           ori.l      D1, 0x910221
00005450  FFFF                     .invalid   <<F/7/7>>
00005452  03DE                     .incomplete
00005454  0384                     bclr       D4, D1
00005456  03A8 0031                bclr       [A0 + 0x31], D1
0000545A  0077 0081 0091           ori.w      [A7 + D0.w - 0x6F], 0x81
00005460  0221 0000                andi.b     -[A1], 0x0
00005464  03DE                     .incomplete
00005466  0396                     bclr       [A6], D1
00005468  03BA 0078                bclr       [PC + 0x78 /* 000054E2, value 0x4380000 */], D1
0000546C  0088 0081 0091           ori.l      A0, 0x810091
00005472  0221 0000                andi.b     -[A1], 0x0
00005476  FFFF                     .invalid   <<F/7/7>>
00005478  03A8 03CC                bclr       [A0 + 0x3CC], D1
0000547C  0089 00B0 0081           ori.l      A1, 0xB00081
00005482  0091 0221 021C           ori.l      [A1], 0x221021C
00005488  04A4 03BA 0000           subi.l     -[A4], 0x3BA0000
0000548E  00B1 00FD 009E 00AE      ori.l      [A1 + D0.w - 0x52], 0xFD009E
00005496  0222 0384                andi.b     -[A2], 0x84
0000549A  03F0                     .incomplete
0000549C  0000 0000                ori.b      D0, 0x0
000054A0  0008 0031                ori.b      A0, 0x31 /* '1' */
000054A4  00BB 00CB 0221 03DE      ori.l      <<invalid full ext with IS == 1 and I/IS == 6>>, 0xCB0221
000054AC  0426 0000                subi.b     -[A6], 0x0
000054B0  0402 0008                subi.b     D2, 0x8
000054B4  002E 00BB 00CB           ori.b      [A6 + 0xCB], 0xBB
000054BA  0221 03DE                andi.b     -[A1], 0xDE
000054BE  FFFF                     .invalid   <<F/7/7>>
000054C0  03F0                     .incomplete
000054C2  0414 002F                subi.b     [A4], 0x2F /* '/' */
000054C6  0074 00BB 00CB           ori.w      [A4 + D0.w - 0x35], 0xBB
000054CC  0221 0000                andi.b     -[A1], 0x0
000054D0  0000 0402                ori.b      D0, 0x2
000054D4  0264 0075                andi.w     -[A4], 0x75 /* 'u' */
000054D8  008C 00D8 00E8           ori.l      A4, 0xD800E8
000054DE  0221 03F0                andi.b     -[A1], 0xF0
000054E2  0438 0000 0000           subi.b     [0x00000000 /* __m68k_reset_stack__ */], 0x0
000054E8  0008 006E                ori.b      A0, 0x6E /* 'n' */
000054EC  00F5                     .incomplete
000054EE  0105                     btst       D5, D0
000054F0  0221 0426                andi.b     -[A1], 0x26 /* '&' */
000054F4  044A 0000                subi.w     A2, 0x0
000054F8  FFFF                     .invalid   <<F/7/7>>
000054FA  0008 006E                ori.b      A0, 0x6E /* 'n' */
000054FE  0112                     btst       [A2], D0
00005500  0122                     btst       -[A2], D0
00005502  0221 0438                andi.b     -[A1], 0x38 /* '8' */
00005506  045C 0000                subi.w     [A4]+, 0x0
0000550A  FFFF                     .invalid   <<F/7/7>>
0000550C  0008 005F                ori.b      A0, 0x5F /* '_' */
00005510  012F 013F                btst       [A7 + 0x13F], D0
00005514  0221 044A                andi.b     -[A1], 0x4A /* 'J' */
00005518  046E 0000 FFFF           subi.w     [A6 - 0x1], 0x0
0000551E  0008 0052                ori.b      A0, 0x52 /* 'R' */
00005522  014C                     bchg       A4, D0
00005524  015C                     bchg       [A4]+, D0
00005526  0221 045C                andi.b     -[A1], 0x5C /* '\\' */
0000552A  0480 0000 0000           subi.l     D0, 0x0
00005530  0008 003B                ori.b      A0, 0x3B /* ';' */
00005534  0169 0179                bchg       [A1 + 0x179], D0
00005538  0221 046E                andi.b     -[A1], 0x6E /* 'n' */
0000553C  0000 0000                ori.b      D0, 0x0
00005540  02E2                     .incomplete
00005542  0008 004D                ori.b      A0, 0x4D /* 'M' */
00005546  01A3                     bclr       -[A3], D0
00005548  01B3 0221                bclr       [A3 + D0.w * 2 + 0x21], D0
0000554C  0306                     btst       D6, D1
0000554E  0000 0000                ori.b      D0, 0x0
00005552  032A 0008                btst       [A2 + 0x8], D1
00005556  002A 009E 00AE           ori.b      [A2 + 0xAE], 0x9E
0000555C  0221 03CC                andi.b     -[A1], 0xCC
00005560  0240 0000                andi.w     D0, 0x0
00005564  0000 00CF                ori.b      D0, 0xCF
00005568  0104                     btst       D4, D0
0000556A  0000 0000                ori.b      D0, 0x0
0000556E  0000 0000                ori.b      D0, 0x0
00005572  0000 0000                ori.b      D0, 0x0
00005576  0000 0000                ori.b      D0, 0x0
0000557A  0000 01D9                ori.b      D0, 0xD9
0000557E  01D9                     .incomplete
00005580  0006 0000                ori.b      D6, 0x0
00005584  0000 0000                ori.b      D0, 0x0
00005588  0000 0000                ori.b      D0, 0x0
0000558C  0000 01DA                ori.b      D0, 0xDA
00005590  01E5                     .incomplete
00005592  0026 0000                ori.b      -[A6], 0x0
00005596  05D6                     .incomplete
00005598  0000 006A                ori.b      D0, 0x6A /* 'j' */
0000559C  0000 0000                ori.b      D0, 0x0
000055A0  01E6                     .incomplete
000055A2  01F4                     .incomplete
000055A4  0005 000C                ori.b      D5, 0xC
000055A8  0000 003E                ori.b      D0, 0x3E /* '>' */
000055AC  0000 0000                ori.b      D0, 0x0
000055B0  0000 01F5                ori.b      D0, 0xF5
000055B4  01F5                     .incomplete
000055B6  0006 0000                ori.b      D6, 0x0
000055BA  0000 0000                ori.b      D0, 0x0
000055BE  0000 0000                ori.b      D0, 0x0
000055C2  0000 0000                ori.b      D0, 0x0
000055C6  0000 0000                ori.b      D0, 0x0
000055CA  0000 0000                ori.b      D0, 0x0
000055CE  0000 0000                ori.b      D0, 0x0
000055D2  0000 0000                ori.b      D0, 0x0
000055D6  0003 0003                ori.b      D3, 0x3
000055DA  001B 0000                ori.b      [A3]+, 0x0
000055DE  0000 0000                ori.b      D0, 0x0
000055E2  0000 0000                ori.b      D0, 0x0
000055E6  0000 0004                ori.b      D0, 0x4
000055EA  000A 0001                ori.b      A2, 0x1
000055EE  0000 0000                ori.b      D0, 0x0
000055F2  0000 0000                ori.b      D0, 0x0
000055F6  0000 0000                ori.b      D0, 0x0
000055FA  000B 0017                ori.b      A3, 0x17
000055FE  0001 002A                ori.b      D1, 0x2A /* '*' */
00005602  0000 0000                ori.b      D0, 0x0
00005606  0000 0000                ori.b      D0, 0x0
0000560A  0000 0018                ori.b      D0, 0x18
0000560E  0024 0001                ori.b      -[A4], 0x1
00005612  002A 0000 0000           ori.b      [A2 + 0x0], 0x0
00005618  0000 0000                ori.b      D0, 0x0
0000561C  0000 0025                ori.b      D0, 0x25 /* '%' */
00005620  0039 0001 0000 0000      ori.b      [0x00000000 /* __m68k_reset_stack__ */], 0x1
00005628  0000 0000                ori.b      D0, 0x0
0000562C  0000 0000                ori.b      D0, 0x0
00005630  0000 0000                ori.b      D0, 0x0
00005634  0000 0000                ori.b      D0, 0x0
00005638  0000 0000                ori.b      D0, 0x0
0000563C  0000 0000                ori.b      D0, 0x0
00005640  0000 01A3                ori.b      D0, 0xA3
00005644  01A3                     bclr       -[A3], D0
00005646  001B 0000                ori.b      [A3]+, 0x0
0000564A  0000 0000                ori.b      D0, 0x0
0000564E  0000 0000                ori.b      D0, 0x0
00005652  0000 01A4                ori.b      D0, 0xA4
00005656  01B1 001B                bclr       [A1 + D0.w + 0x1B], D0
0000565A  0000 0000                ori.b      D0, 0x0
0000565E  0000 0000                ori.b      D0, 0x0
00005662  0000 0000                ori.b      D0, 0x0
00005666  01B2 01CC                bclr       <<invalid full ext with I/IS == 4>>, D0
0000566A  0001 0000                ori.b      D1, 0x0
0000566E  0000 0000                ori.b      D0, 0x0
00005672  0000 0000                ori.b      D0, 0x0
00005676  0000 01CD                ori.b      D0, 0xCD
0000567A  01D9                     .incomplete
0000567C  0001 006A                ori.b      D1, 0x6A /* 'j' */
00005680  0000 0000                ori.b      D0, 0x0
00005684  0000 0000                ori.b      D0, 0x0
00005688  0000 01DA                ori.b      D0, 0xDA
0000568C  01E5                     .incomplete
0000568E  0003 04DA                ori.b      D3, 0xDA
00005692  0000 000E                ori.b      D0, 0xE
00005696  0000 0000                ori.b      D0, 0x0
0000569A  0000 01E6                ori.b      D0, 0xE6
0000569E  01E6                     .incomplete
000056A0  001B 0000                ori.b      [A3]+, 0x0
000056A4  0000 0000                ori.b      D0, 0x0
000056A8  0000 0000                ori.b      D0, 0x0
000056AC  0000 0000                ori.b      D0, 0x0
000056B0  0000 0000                ori.b      D0, 0x0
000056B4  0000 0000                ori.b      D0, 0x0
000056B8  0000 0000                ori.b      D0, 0x0
000056BC  0000 0000                ori.b      D0, 0x0
000056C0  0033 0046 0001           ori.b      [A3 + D0.w + 0x1], 0x46 /* 'F' */
000056C6  0000 0000                ori.b      D0, 0x0
000056CA  0000 0000                ori.b      D0, 0x0
000056CE  0000 0000                ori.b      D0, 0x0
000056D2  0047 0053                ori.w      D7, 0x53 /* 'S' */
000056D6  0001 007A                ori.b      D1, 0x7A /* 'z' */
000056DA  0000 0000                ori.b      D0, 0x0
000056DE  0000 0000                ori.b      D0, 0x0
000056E2  0000 0054                ori.b      D0, 0x54 /* 'T' */
000056E6  006C 0001 0000           ori.w      [A4 + 0x0], 0x1
000056EC  0000 0000                ori.b      D0, 0x0
000056F0  0000 0000                ori.b      D0, 0x0
000056F4  0000 0000                ori.b      D0, 0x0
000056F8  0000 0000                ori.b      D0, 0x0
000056FC  0000 0000                ori.b      D0, 0x0
00005700  0000 0000                ori.b      D0, 0x0
00005704  0000 0000                ori.b      D0, 0x0
00005708  0138 0145                btst       [0x00000145], D0
0000570C  0001 0000                ori.b      D1, 0x0
00005710  0000 0000                ori.b      D0, 0x0
00005714  0000 0000                ori.b      D0, 0x0
00005718  0000 0146                ori.b      D0, 0x46 /* 'F' */
0000571C  0152                     bchg       [A2], D0
0000571E  0001 0093                ori.b      D1, 0x93
00005722  0000 0000                ori.b      D0, 0x0
00005726  0000 0000                ori.b      D0, 0x0
0000572A  0000 0153                ori.b      D0, 0x53 /* 'S' */
0000572E  015F                     bchg       [A7]+, D0
00005730  0001 0000                ori.b      D1, 0x0
00005734  0000 0000                ori.b      D0, 0x0
00005738  0000 0000                ori.b      D0, 0x0
0000573C  0000 0000                ori.b      D0, 0x0
00005740  0000 0000                ori.b      D0, 0x0
00005744  0000 0000                ori.b      D0, 0x0
00005748  0000 0000                ori.b      D0, 0x0
0000574C  0000 0000                ori.b      D0, 0x0
00005750  019A                     bclr       [A2]+, D0
00005752  01D9                     .incomplete
00005754  0001 0000                ori.b      D1, 0x0
00005758  0000 0000                ori.b      D0, 0x0
0000575C  0000 0000                ori.b      D0, 0x0
00005760  0000 01DA                ori.b      D0, 0xDA
00005764  01E4                     .incomplete
00005766  0002 0000                ori.b      D2, 0x0
0000576A  07AA 0000                bclr       [A2 + 0x0], D3
0000576E  013A 0000                btst       [PC /* 00005770 */], D0
00005772  0000 01E5                ori.b      D0, 0xE5
00005776  01E5                     .incomplete
00005778  001B 0000                ori.b      [A3]+, 0x0
0000577C  0000 0000                ori.b      D0, 0x0
00005780  0000 0000                ori.b      D0, 0x0
00005784  0000 0000                ori.b      D0, 0x0
00005788  0000 0000                ori.b      D0, 0x0
0000578C  0000 0000                ori.b      D0, 0x0
00005790  0000 0000                ori.b      D0, 0x0
00005794  0000 0000                ori.b      D0, 0x0
00005798  00C0                     .incomplete
0000579A  00F0                     .incomplete
0000579C  0001 0000                ori.b      D1, 0x0
000057A0  0000 0000                ori.b      D0, 0x0
000057A4  0000 0000                ori.b      D0, 0x0
000057A8  0000 0000                ori.b      D0, 0x0
000057AC  0000 0000                ori.b      D0, 0x0
000057B0  0000 0000                ori.b      D0, 0x0
000057B4  0000 0000                ori.b      D0, 0x0
000057B8  0000 0000                ori.b      D0, 0x0
000057BC  0003 0003                ori.b      D3, 0x3
000057C0  001B 0000                ori.b      [A3]+, 0x0
000057C4  0000 0000                ori.b      D0, 0x0
000057C8  0000 0000                ori.b      D0, 0x0
000057CC  0000 0004                ori.b      D0, 0x4
000057D0  000A 0001                ori.b      A2, 0x1
000057D4  0000 0000                ori.b      D0, 0x0
000057D8  0000 0000                ori.b      D0, 0x0
000057DC  0000 0000                ori.b      D0, 0x0
000057E0  000B 0017                ori.b      A3, 0x17
000057E4  0001 00C8                ori.b      D1, 0xC8
000057E8  0000 0000                ori.b      D0, 0x0
000057EC  0000 0000                ori.b      D0, 0x0
000057F0  0000 0018                ori.b      D0, 0x18
000057F4  0024 0001                ori.b      -[A4], 0x1
000057F8  00C8                     .incomplete
000057FA  0000 0000                ori.b      D0, 0x0
000057FE  0000 0000                ori.b      D0, 0x0
00005802  0000 0025                ori.b      D0, 0x25 /* '%' */
00005806  002A 0001 0000           ori.b      [A2 + 0x0], 0x1
0000580C  0000 0000                ori.b      D0, 0x0
00005810  0000 0000                ori.b      D0, 0x0
00005814  0000 0000                ori.b      D0, 0x0
00005818  0000 0000                ori.b      D0, 0x0
0000581C  0000 0000                ori.b      D0, 0x0
00005820  0000 0000                ori.b      D0, 0x0
00005824  0000 0000                ori.b      D0, 0x0
00005828  019A                     bclr       [A2]+, D0
0000582A  01CA                     .incomplete
0000582C  0001 0000                ori.b      D1, 0x0
00005830  0000 0000                ori.b      D0, 0x0
00005834  0000 0000                ori.b      D0, 0x0
00005838  0000 01CB                ori.b      D0, 0xCB
0000583C  01D5                     .incomplete
0000583E  0009 0000                ori.b      A1, 0x0
00005842  084C 0000                bchg.b     A4, 0x0
00005846  0172 FFFF                bchg       <<invalid full ext with IS == 1 and I/IS == 7>>, D0
0000584A  0000 01D6                ori.b      D0, 0xD6
0000584E  01D7                     .incomplete
00005850  0001 0000                ori.b      D1, 0x0
00005854  0000 0000                ori.b      D0, 0x0
00005858  0000 0000                ori.b      D0, 0x0
0000585C  0000 01D8                ori.b      D0, 0xD8
00005860  01E4                     .incomplete
00005862  0003 06AE                ori.b      D3, 0xAE
00005866  0000 00D2                ori.b      D0, 0xD2
0000586A  0000 0000                ori.b      D0, 0x0
0000586E  0000 01E5                ori.b      D0, 0xE5
00005872  01E5                     .incomplete
00005874  001B 0000                ori.b      [A3]+, 0x0
00005878  0000 0000                ori.b      D0, 0x0
0000587C  0000 0000                ori.b      D0, 0x0
00005880  0000 0000                ori.b      D0, 0x0
00005884  0000 0000                ori.b      D0, 0x0
00005888  0000 0000                ori.b      D0, 0x0
0000588C  0000 0000                ori.b      D0, 0x0
00005890  0000 0000                ori.b      D0, 0x0
00005894  013E                     btst       <<invalid special address>>, D0
00005896  015C                     bchg       [A4]+, D0
00005898  0001 0000                ori.b      D1, 0x0
0000589C  0000 0000                ori.b      D0, 0x0
000058A0  0000 0000                ori.b      D0, 0x0
000058A4  0000 0000                ori.b      D0, 0x0
000058A8  0000 0000                ori.b      D0, 0x0
000058AC  0000 0000                ori.b      D0, 0x0
000058B0  0000 0000                ori.b      D0, 0x0
000058B4  0000 0000                ori.b      D0, 0x0
000058B8  00CF                     .incomplete
000058BA  00EC                     .incomplete
000058BC  0001 0000                ori.b      D1, 0x0
000058C0  0000 0000                ori.b      D0, 0x0
000058C4  0000 0000                ori.b      D0, 0x0
000058C8  0000 0104                ori.b      D0, 0x4
000058CC  0125                     btst       -[A5], D0
000058CE  0001 0000                ori.b      D1, 0x0
000058D2  0000 0000                ori.b      D0, 0x0
000058D6  0000 0000                ori.b      D0, 0x0
000058DA  0000 0000                ori.b      D0, 0x0
000058DE  0000 0000                ori.b      D0, 0x0
000058E2  0000 0000                ori.b      D0, 0x0
000058E6  0000 0000                ori.b      D0, 0x0
000058EA  0000 0000                ori.b      D0, 0x0
000058EE  0178 018E                bchg       [0x0000018E /* KeyThresh */], D0
000058F2  0001 0000                ori.b      D1, 0x0
000058F6  0000 0000                ori.b      D0, 0x0
000058FA  0000 0000                ori.b      D0, 0x0
000058FE  0000 018F                ori.b      D0, 0x8F
00005902  0199                     bclr       [A1]+, D0
00005904  000A 0786                ori.b      A2, 0x86
00005908  0000 013A                ori.b      D0, 0x3A /* ':' */
0000590C  0000 FFFF                ori.b      D0, 0xFF
00005910  0000 019A                ori.b      D0, 0x9A
00005914  01E0                     .incomplete
00005916  0001 0000                ori.b      D1, 0x0
0000591A  0000 0000                ori.b      D0, 0x0
0000591E  0000 0000                ori.b      D0, 0x0
00005922  0000 01E1                ori.b      D0, 0xE1
00005926  01E1                     .incomplete
00005928  001B 0000                ori.b      [A3]+, 0x0
0000592C  0000 0000                ori.b      D0, 0x0
00005930  0000 0000                ori.b      D0, 0x0
00005934  0000 0000                ori.b      D0, 0x0
00005938  0000 0000                ori.b      D0, 0x0
0000593C  0000 0000                ori.b      D0, 0x0
00005940  0000 0000                ori.b      D0, 0x0
00005944  0000 0000                ori.b      D0, 0x0
00005948  FFFC                     .invalid   <<F/7/7>>
0000594A  FFFC                     .invalid   <<F/7/7>>
0000594C  0006 0000                ori.b      D6, 0x0
00005950  0000 0000                ori.b      D0, 0x0
00005954  0000 0000                ori.b      D0, 0x0
00005958  0000 FFFD                ori.b      D0, 0xFD
0000595C  0003 0005                ori.b      D3, 0x5
00005960  FFFF                     .invalid   <<F/7/7>>
00005962  0000 003F                ori.b      D0, 0x3F /* '?' */
00005966  0000 0000                ori.b      D0, 0x0
0000596A  0000 0004                ori.b      D0, 0x4
0000596E  0025 0001                ori.b      -[A5], 0x1
00005972  0004 0025                ori.b      D4, 0x25 /* '%' */
00005976  0003 0003                ori.b      D3, 0x3
0000597A  0000 0000                ori.b      D0, 0x0
0000597E  0026 004A                ori.b      -[A6], 0x4A /* 'J' */
00005982  0001 0000                ori.b      D1, 0x0
00005986  0000 0000                ori.b      D0, 0x0
0000598A  0000 0000                ori.b      D0, 0x0
0000598E  0000 0000                ori.b      D0, 0x0
00005992  0000 0000                ori.b      D0, 0x0
00005996  0000 0000                ori.b      D0, 0x0
0000599A  0000 0000                ori.b      D0, 0x0
0000599E  0000 0000                ori.b      D0, 0x0
000059A2  FFCE                     .invalid   <<F/7/7>>
000059A4  0320                     btst       -[A0], D1
000059A6  001D 0000                ori.b      [A5]+, 0x0
000059AA  0000 0000                ori.b      D0, 0x0
000059AE  0000 0000                ori.b      D0, 0x0
000059B2  0000 41FA                ori.b      D0, 0xFA
// begin alternate branch 000059B4-000059B8
fn000059B4:
000059B4  41FA FFB6                lea.l      A0, [PC - 0x4A /* 0000596C, value 0x40025, cstring "" */]
// end alternate branch 000059B4-000059B8
fn000059B4: // (misaligned)
000059B6  FFB6                     .invalid   <<F/6/7>>
000059B8  20A8 0006                move.l     [A0], [A0 + 0x6]
000059BC  600E                     bra        +0x10 /* 000059CC */
export_132:
000059BE  5340                     subq.w     D0, 1
000059C0  660A                     bne        +0xC /* 000059CC */
000059C2  41FA FFA8                lea.l      A0, [PC - 0x58 /* 0000596C, value 0x40025, cstring "" */]
000059C6  20A8 000A                move.l     [A0], [A0 + 0xA]
000059CA  4E71                     nop
label000059CC:
000059CC  4E75                     rts
000059CE  0004 0546                ori.b      D4, 0x46 /* 'F' */
000059D2  05C4                     .incomplete
000059D4  061E 073E                addi.b     [A6]+, 0x3E /* '>' */
000059D8  0003 0558                ori.b      D3, 0x58 /* 'X' */
000059DC  0666 072C                addi.w     -[A6], 0x72C
000059E0  0000 0000                ori.b      D0, 0x0
000059E4  0000 0000                ori.b      D0, 0x0
000059E8  0000 FE0C                ori.b      D0, 0xC
000059EC  0036 000C 005A           ori.b      [A6 + D0.w + 0x5A], 0xC
000059F2  0034 00EA 003C           ori.b      [A4 + D0.w + 0x3C], 0xEA
000059F8  0168 0062                bchg       [A0 + 0x62], D0
000059FC  017A 0077                bchg       [PC + 0x77 /* 00005A75, value 0x900 '\t\0', cstring "\	" */], D0
00005A00  019E                     bclr       [A6]+, D0
00005A02  00C4                     .incomplete
00005A04  02AC 0108 03BA 0118      andi.l     [A4 + 0x118], 0x10803BA
00005A0C  04A4 0000 0000           subi.l     -[A4], 0x0
00005A12  0000 0000                ori.b      D0, 0x0
00005A16  0000 0000                ori.b      D0, 0x0
00005A1A  0000 0000                ori.b      D0, 0x0
00005A1E  0000 0000                ori.b      D0, 0x0
00005A22  0000 0000                ori.b      D0, 0x0
00005A26  0000 FE0C                ori.b      D0, 0xC
00005A2A  FE0E 0001                .unknown   0xFE0E 0x0001 (W = 7)
00005A2E  0000 0000                ori.b      D0, 0x0
00005A32  0000 0000                ori.b      D0, 0x0
00005A36  0000 0000                ori.b      D0, 0x0
00005A3A  0000 0000                ori.b      D0, 0x0
00005A3E  0000 0000                ori.b      D0, 0x0
00005A42  0000 0000                ori.b      D0, 0x0
00005A46  0000 0000                ori.b      D0, 0x0
00005A4A  0000 0108                ori.b      D0, 0x8
00005A4E  0114                     btst       [A4], D0
00005A50  0001 000C                ori.b      D1, 0xC
00005A54  0000 0000                ori.b      D0, 0x0
00005A58  0000 0000                ori.b      D0, 0x0
00005A5C  0000 0115                ori.b      D0, 0x15
00005A60  0127                     btst       -[A7], D0
00005A62  0001 0000                ori.b      D1, 0x0
00005A66  0000 0000                ori.b      D0, 0x0
00005A6A  0000 0000                ori.b      D0, 0x0
00005A6E  0000 0128                ori.b      D0, 0x28 /* '(' */
00005A72  0132 0009                btst       [A2 + D0.w + 0x9], D0
00005A76  0000 010E                ori.b      D0, 0xE
00005A7A  0000 0012                ori.b      D0, 0x12
00005A7E  0001 0000                ori.b      D1, 0x0
00005A82  0133 01CA 0001           btst       [[ + <<invalid base displacement size>>] + 0x1], D0
00005A88  0000 0000                ori.b      D0, 0x0
00005A8C  0000 0000                ori.b      D0, 0x0
00005A90  0000 0000                ori.b      D0, 0x0
00005A94  01CB                     .incomplete
00005A96  01D5                     .incomplete
00005A98  0001 0000                ori.b      D1, 0x0
00005A9C  0000 0000                ori.b      D0, 0x0
00005AA0  0000 0000                ori.b      D0, 0x0
00005AA4  0000 01D6                ori.b      D0, 0xD6
00005AA8  01E0                     .incomplete
00005AAA  0005 000D                ori.b      D5, 0xD /* '\r' */
00005AAE  0000 0040                ori.b      D0, 0x40 /* '@' */
00005AB2  0000 0000                ori.b      D0, 0x0
00005AB6  0000 01E1                ori.b      D0, 0xE1
00005ABA  01E1                     .incomplete
00005ABC  001B 0000                ori.b      [A3]+, 0x0
00005AC0  0000 0000                ori.b      D0, 0x0
00005AC4  0000 0000                ori.b      D0, 0x0
00005AC8  0000 0000                ori.b      D0, 0x0
00005ACC  0000 0000                ori.b      D0, 0x0
00005AD0  0000 0000                ori.b      D0, 0x0
00005AD4  0000 0000                ori.b      D0, 0x0
00005AD8  0000 0000                ori.b      D0, 0x0
00005ADC  0173 0173 0006 0000 0... bchg       [[A3 + 0x60000]], D0
00005AE8  0000 0000                ori.b      D0, 0x0
00005AEC  0000 0174                ori.b      D0, 0x74 /* 't' */
00005AF0  017E                     bchg       <<invalid special address>>, D0
00005AF2  000A 0090                ori.b      A2, 0x90
00005AF6  0000 000E                ori.b      D0, 0xE
00005AFA  0000 0001                ori.b      D0, 0x1
00005AFE  0000 017F                ori.b      D0, 0x7F
00005B02  01C0                     .incomplete
00005B04  0001 0000                ori.b      D1, 0x0
00005B08  0000 0000                ori.b      D0, 0x0
00005B0C  0000 0000                ori.b      D0, 0x0
00005B10  0000 01C1                ori.b      D0, 0xC1
00005B14  01D8                     .incomplete
00005B16  0002 0000                ori.b      D2, 0x0
00005B1A  0264 0000                andi.w     -[A4], 0x0
00005B1E  001E 0000                ori.b      [A6]+, 0x0
00005B22  0000 01D9                ori.b      D0, 0xD9
00005B26  01E0                     .incomplete
00005B28  001B 0000                ori.b      [A3]+, 0x0
00005B2C  0000 0000                ori.b      D0, 0x0
00005B30  0000 0000                ori.b      D0, 0x0
00005B34  0000 01E1                ori.b      D0, 0xE1
00005B38  01E1                     .incomplete
00005B3A  001B 0000                ori.b      [A3]+, 0x0
00005B3E  0000 0000                ori.b      D0, 0x0
00005B42  0000 0000                ori.b      D0, 0x0
00005B46  0000 0000                ori.b      D0, 0x0
00005B4A  0000 0000                ori.b      D0, 0x0
00005B4E  0000 0000                ori.b      D0, 0x0
00005B52  0000 0000                ori.b      D0, 0x0
00005B56  0000 0000                ori.b      D0, 0x0
00005B5A  0000 0000                ori.b      D0, 0x0
00005B5E  0000 0000                ori.b      D0, 0x0
00005B62  0000 0000                ori.b      D0, 0x0
00005B66  0000 0000                ori.b      D0, 0x0
00005B6A  0000 00AC                ori.b      D0, 0xAC
00005B6E  00D2                     .incomplete
00005B70  0023 0000                ori.b      -[A3], 0x0
00005B74  00BA 0040 0000 0000      ori.l      [PC /* 00005B76 */], 0x400000 /* '@\0\0' */
00005B7C  0000 0000                ori.b      D0, 0x0
00005B80  0000 0000                ori.b      D0, 0x0
00005B84  0000 0000                ori.b      D0, 0x0
00005B88  0000 0000                ori.b      D0, 0x0
00005B8C  0000 0000                ori.b      D0, 0x0
00005B90  FFCE                     .invalid   <<F/7/7>>
00005B92  0002 0001                ori.b      D2, 0x1
00005B96  0000 0000                ori.b      D0, 0x0
00005B9A  0000 0000                ori.b      D0, 0x0
00005B9E  0000 0000                ori.b      D0, 0x0
00005BA2  0003 0003                ori.b      D3, 0x3
00005BA6  001B 0000                ori.b      [A3]+, 0x0
00005BAA  0000 0000                ori.b      D0, 0x0
00005BAE  0000 0000                ori.b      D0, 0x0
00005BB2  0000 0004                ori.b      D0, 0x4
00005BB6  001C 0001                ori.b      [A4]+, 0x1
00005BBA  0000 0000                ori.b      D0, 0x0
00005BBE  0000 0000                ori.b      D0, 0x0
00005BC2  0000 0000                ori.b      D0, 0x0
00005BC6  001D 0035                ori.b      [A5]+, 0x35 /* '5' */
00005BCA  0002 0000                ori.b      D2, 0x0
00005BCE  02F4                     .incomplete
00005BD0  0000 0022                ori.b      D0, 0x22 /* '\"' */
00005BD4  0000 0000                ori.b      D0, 0x0
00005BD8  0036 0064 0001           ori.b      [A6 + D0.w + 0x1], 0x64 /* 'd' */
00005BDE  0000 0000                ori.b      D0, 0x0
00005BE2  0000 0000                ori.b      D0, 0x0
00005BE6  0000 0000                ori.b      D0, 0x0
00005BEA  006E 00A2 000E           ori.w      [A6 + 0xE], 0xA2
00005BF0  006E 00BE 0075           ori.w      [A6 + 0x75], 0xBE
00005BF6  0003 0012                ori.b      D3, 0x12
00005BFA  0000 014F                ori.b      D0, 0x4F /* 'O' */
00005BFE  0183                     bclr       D3, D0
00005C00  000E 00FF                ori.b      A6, 0xFF
00005C04  014F                     bchg       A7, D0
00005C06  0075 FFFD 0120 0001      ori.w      [A5 + 0x1 + D0], 0xFFFD
00005C0E  0189                     bclr       A1, D0
00005C10  019A                     bclr       [A2]+, D0
00005C12  0001 0000                ori.b      D1, 0x0
00005C16  0000 0000                ori.b      D0, 0x0
00005C1A  0000 0000                ori.b      D0, 0x0
00005C1E  0000 019B                ori.b      D0, 0x9B
00005C22  01A7                     bclr       -[A7], D0
00005C24  0001 0077                ori.b      D1, 0x77 /* 'w' */
00005C28  0000 0000                ori.b      D0, 0x0
00005C2C  0000 0000                ori.b      D0, 0x0
00005C30  0000 01A8                ori.b      D0, 0xA8
00005C34  01C0                     .incomplete
00005C36  0001 0000                ori.b      D1, 0x0
00005C3A  0000 0000                ori.b      D0, 0x0
00005C3E  0000 0000                ori.b      D0, 0x0
00005C42  0000 01C1                ori.b      D0, 0xC1
00005C46  01D8                     .incomplete
00005C48  0003 0132                ori.b      D3, 0x32 /* '2' */
00005C4C  0000 0012                ori.b      D0, 0x12
00005C50  0000 0000                ori.b      D0, 0x0
00005C54  0000 01D9                ori.b      D0, 0xD9
00005C58  01E0                     .incomplete
00005C5A  0001 0000                ori.b      D1, 0x0
00005C5E  0000 0000                ori.b      D0, 0x0
00005C62  0000 0000                ori.b      D0, 0x0
00005C66  0000 01E1                ori.b      D0, 0xE1
00005C6A  01E1                     .incomplete
00005C6C  001B 0000                ori.b      [A3]+, 0x0
00005C70  0000 0000                ori.b      D0, 0x0
00005C74  0000 0000                ori.b      D0, 0x0
00005C78  0000 01E2                ori.b      D0, 0xE2
00005C7C  0320                     btst       -[A0], D1
00005C7E  0001 0000                ori.b      D1, 0x0
00005C82  0000 0000                ori.b      D0, 0x0
00005C86  0000 0000                ori.b      D0, 0x0
00005C8A  0000 0000                ori.b      D0, 0x0
00005C8E  0000 0000                ori.b      D0, 0x0
00005C92  0000 0000                ori.b      D0, 0x0
00005C96  0000 0000                ori.b      D0, 0x0
00005C9A  0000 0000                ori.b      D0, 0x0
00005C9E  FFCE                     .invalid   <<F/7/7>>
00005CA0  0002 0001                ori.b      D2, 0x1
00005CA4  0000 0000                ori.b      D0, 0x0
00005CA8  0000 0000                ori.b      D0, 0x0
00005CAC  0000 0000                ori.b      D0, 0x0
00005CB0  0003 0003                ori.b      D3, 0x3
00005CB4  001B 0000                ori.b      [A3]+, 0x0
00005CB8  0000 0000                ori.b      D0, 0x0
00005CBC  0000 0000                ori.b      D0, 0x0
00005CC0  0000 0004                ori.b      D0, 0x4
00005CC4  001C 0001                ori.b      [A4]+, 0x1
00005CC8  0000 0000                ori.b      D0, 0x0
00005CCC  0000 0000                ori.b      D0, 0x0
00005CD0  0000 0000                ori.b      D0, 0x0
00005CD4  001D 0035                ori.b      [A5]+, 0x35 /* '5' */
00005CD8  0003 01E6                ori.b      D3, 0xE6
00005CDC  0000 001E                ori.b      D0, 0x1E
00005CE0  0000 0000                ori.b      D0, 0x0
00005CE4  0000 0036                ori.b      D0, 0x36 /* '6' */
00005CE8  0045 0001                ori.w      D5, 0x1
00005CEC  0000 0000                ori.b      D0, 0x0
00005CF0  0000 0000                ori.b      D0, 0x0
00005CF4  0000 0000                ori.b      D0, 0x0
00005CF8  0046 0052                ori.w      D6, 0x52 /* 'R' */
00005CFC  0001 00C4                ori.b      D1, 0xC4
00005D00  0000 0000                ori.b      D0, 0x0
00005D04  0000 0000                ori.b      D0, 0x0
00005D08  0000 0053                ori.b      D0, 0x53 /* 'S' */
00005D0C  0064 0001                ori.w      -[A4], 0x1
00005D10  0000 0000                ori.b      D0, 0x0
00005D14  0000 0000                ori.b      D0, 0x0
00005D18  0000 0000                ori.b      D0, 0x0
00005D1C  00BE 00F2 000E           ori.l      <<invalid special address>>, 0xF2000E
00005D22  006E 00BE 00C2           ori.w      [A6 + 0xC2], 0xBE
00005D28  FFFD                     .invalid   <<F/7/7>>
00005D2A  0012 0000                ori.b      [A2], 0x0
00005D2E  00FF                     .incomplete
00005D30  0133 000E                btst       [A3 + D0.w + 0xE], D0
00005D34  00FF                     .incomplete
00005D36  014F                     bchg       A7, D0
00005D38  00C2                     .incomplete
00005D3A  0003 0000                ori.b      D3, 0x0
00005D3E  0001 0189                ori.b      D1, 0x89
00005D42  01B8 0001                bclr       [0x00000001], D0
00005D46  0000 0000                ori.b      D0, 0x0
00005D4A  0000 0000                ori.b      D0, 0x0
00005D4E  0000 0000                ori.b      D0, 0x0
00005D52  01B9 01D1 0002           bclr       [0x01D10002], D0
00005D58  0000 044A                ori.b      D0, 0x4A /* 'J' */
00005D5C  0000 0026                ori.b      D0, 0x26 /* '&' */
00005D60  0000 0000                ori.b      D0, 0x0
00005D64  01D2                     .incomplete
00005D66  01E0                     .incomplete
00005D68  0001 0000                ori.b      D1, 0x0
00005D6C  0000 0000                ori.b      D0, 0x0
00005D70  0000 0000                ori.b      D0, 0x0
00005D74  0000 01E1                ori.b      D0, 0xE1
00005D78  01E1                     .incomplete
00005D7A  001B 0000                ori.b      [A3]+, 0x0
00005D7E  0000 0000                ori.b      D0, 0x0
00005D82  0000 0000                ori.b      D0, 0x0
00005D86  0000 01E2                ori.b      D0, 0xE2
00005D8A  0320                     btst       -[A0], D1
00005D8C  0001 0000                ori.b      D1, 0x0
00005D90  0000 0000                ori.b      D0, 0x0
00005D94  0000 0000                ori.b      D0, 0x0
00005D98  0000 0000                ori.b      D0, 0x0
00005D9C  0000 0000                ori.b      D0, 0x0
00005DA0  0000 0000                ori.b      D0, 0x0
00005DA4  0000 0000                ori.b      D0, 0x0
00005DA8  0000 0000                ori.b      D0, 0x0
00005DAC  FFCE                     .invalid   <<F/7/7>>
00005DAE  FFFB                     .invalid   <<F/7/7>>
00005DB0  0001 0000                ori.b      D1, 0x0
00005DB4  0000 0000                ori.b      D0, 0x0
00005DB8  0000 0000                ori.b      D0, 0x0
00005DBC  0000 FFFC                ori.b      D0, 0xFC
00005DC0  FFFC                     .invalid   <<F/7/7>>
00005DC2  0006 0000                ori.b      D6, 0x0
00005DC6  0000 0000                ori.b      D0, 0x0
00005DCA  0000 0000                ori.b      D0, 0x0
00005DCE  0000 FFFD                ori.b      D0, 0xFD
00005DD2  0003 0005                ori.b      D3, 0x5
00005DD6  000B 0001                ori.b      A3, 0x1
00005DDA  0041 0000                ori.w      D1, 0x0
00005DDE  0000 0000                ori.b      D0, 0x0
00005DE2  0004 002A                ori.b      D4, 0x2A /* '*' */
00005DE6  0001 0004                ori.b      D1, 0x4
00005DEA  002A 0003 0003           ori.b      [A2 + 0x3], 0x3
00005DF0  0000 0000                ori.b      D0, 0x0
00005DF4  002B 00DC 0001           ori.b      [A3 + 0x1], 0xDC
00005DFA  0000 0000                ori.b      D0, 0x0
00005DFE  0000 0000                ori.b      D0, 0x0
00005E02  0000 0000                ori.b      D0, 0x0
00005E06  00DD                     .incomplete
00005E08  010C                     btst       A4, D0
00005E0A  0001 00DD                ori.b      D1, 0xDD
00005E0E  010C                     btst       A4, D0
00005E10  00DC                     .incomplete
00005E12  00DC                     .incomplete
00005E14  0000 0000                ori.b      D0, 0x0
00005E18  010D                     btst       A5, D0
00005E1A  01B8 0001                bclr       [0x00000001], D0
00005E1E  0000 0000                ori.b      D0, 0x0
00005E22  0000 0000                ori.b      D0, 0x0
00005E26  0000 0000                ori.b      D0, 0x0
00005E2A  01B9 01D1 0003           bclr       [0x01D10003], D0
00005E30  0372 0000                bchg       [A2 + D0.w], D1
00005E34  0022 0000                ori.b      -[A2], 0x0
00005E38  0000 0000                ori.b      D0, 0x0
00005E3C  01D2                     .incomplete
00005E3E  01DE                     .incomplete
00005E40  0001 0108                ori.b      D1, 0x8
00005E44  0000 0000                ori.b      D0, 0x0
00005E48  0000 0000                ori.b      D0, 0x0
00005E4C  0000 01DF                ori.b      D0, 0xDF
00005E50  01E0                     .incomplete
00005E52  0001 0000                ori.b      D1, 0x0
00005E56  0000 0000                ori.b      D0, 0x0
00005E5A  0000 0000                ori.b      D0, 0x0
00005E5E  0000 01E1                ori.b      D0, 0xE1
00005E62  01E1                     .incomplete
00005E64  001B 0000                ori.b      [A3]+, 0x0
00005E68  0000 0000                ori.b      D0, 0x0
00005E6C  0000 0000                ori.b      D0, 0x0
00005E70  0000 01E2                ori.b      D0, 0xE2
00005E74  0320                     btst       -[A0], D1
00005E76  0001 0000                ori.b      D1, 0x0
00005E7A  0000 0000                ori.b      D0, 0x0
00005E7E  0000 0000                ori.b      D0, 0x0
00005E82  0000 0000                ori.b      D0, 0x0
00005E86  0000 0000                ori.b      D0, 0x0
00005E8A  0000 0000                ori.b      D0, 0x0
00005E8E  0000 0000                ori.b      D0, 0x0
00005E92  0000 0000                ori.b      D0, 0x0
00005E96  FFCE                     .invalid   <<F/7/7>>
00005E98  0320                     btst       -[A0], D1
00005E9A  001D 0000                ori.b      [A5]+, 0x0
00005E9E  0000 0000                ori.b      D0, 0x0
00005EA2  0000 0000                ori.b      D0, 0x0
00005EA6  0000 41FA                ori.b      D0, 0xFA
// begin alternate branch 00005EA8-00005EAC
fn00005EA8:
00005EA8  41FA FD40                lea.l      A0, [PC - 0x2C0 /* 00005BEA, value 0x6E00A2, cstring "" */]
// end alternate branch 00005EA8-00005EAC
fn00005EA8: // (misaligned)
00005EAA  FD40                     .extension 0xD40 <<F/4-5/6>> // unimplemented
00005EAC  43FA 003A                lea.l      A1, [PC + 0x3A /* 00005EE8, value 0x6E00A2, cstring "" */]
00005EB0  6100 002A                bsr        +0x2C /* 00005EDC */
00005EB4  41FA FD46                lea.l      A0, [PC - 0x2BA /* 00005BFC, value 0x14F0183 */]
00005EB8  43FA 0040                lea.l      A1, [PC + 0x40 /* 00005EFA, value 0x14F0183 */]
00005EBC  6100 001E                bsr        +0x20 /* 00005EDC */
00005EC0  41FA FE5A                lea.l      A0, [PC - 0x1A6 /* 00005D1C, value 0xBE00F2, cstring "" */]
00005EC4  43FA 0046                lea.l      A1, [PC + 0x46 /* 00005F0C, value 0xBE00F2, cstring "" */]
00005EC8  6100 0012                bsr        +0x14 /* 00005EDC */
00005ECC  41FA FE60                lea.l      A0, [PC - 0x1A0 /* 00005D2E, value 0xFF0133, cstring "" */]
00005ED0  43FA 004C                lea.l      A1, [PC + 0x4C /* 00005F1E, value 0xFF0133, cstring "" */]
00005ED4  6100 0006                bsr        +0x8 /* 00005EDC */
00005ED8  6000 0084                bra        +0x86 /* 00005F5E */
fn00005EDC:
00005EDC  20D9                     move.l     [A0]+, [A1]+
00005EDE  20D9                     move.l     [A0]+, [A1]+
00005EE0  20D9                     move.l     [A0]+, [A1]+
00005EE2  20D9                     move.l     [A0]+, [A1]+
00005EE4  30D9                     move.w     [A0]+, [A1]+
00005EE6  4E75                     rts
00005EE8  006E 00A2 000E           ori.w      [A6 + 0xE], 0xA2
00005EEE  006E 00BE 0075           ori.w      [A6 + 0x75], 0xBE
00005EF4  0003 0012                ori.b      D3, 0x12
00005EF8  0000 014F                ori.b      D0, 0x4F /* 'O' */
00005EFC  0183                     bclr       D3, D0
00005EFE  000E 00FF                ori.b      A6, 0xFF
00005F02  014F                     bchg       A7, D0
00005F04  0075 FFFD 0120 0001      ori.w      [A5 + 0x1 + D0], 0xFFFD
00005F0C  00BE 00F2 000E           ori.l      <<invalid special address>>, 0xF2000E
00005F12  006E 00BE 00C2           ori.w      [A6 + 0xC2], 0xBE
00005F18  FFFD                     .invalid   <<F/7/7>>
00005F1A  0012 0000                ori.b      [A2], 0x0
00005F1E  00FF                     .incomplete
00005F20  0133 000E                btst       [A3 + D0.w + 0xE], D0
00005F24  00FF                     .incomplete
00005F26  014F                     bchg       A7, D0
00005F28  00C2                     .incomplete
00005F2A  0003 0000                ori.b      D3, 0x0
00005F2E  0001 41FA                ori.b      D1, 0xFA
// begin alternate branch 00005F30-00005F42
fn00005F30:
00005F30  41FA FEB0                lea.l      A0, [PC - 0x150 /* 00005DE2, value 0x4002A, cstring "" */]
00005F34  20A8 0006                move.l     [A0], [A0 + 0x6]
00005F38  41FA FECC                lea.l      A0, [PC - 0x134 /* 00005E06, value 0xDD010C, cstring "" */]
00005F3C  20A8 0006                move.l     [A0], [A0 + 0x6]
00005F40  601C                     bra        +0x1E /* 00005F5E */
// end alternate branch 00005F30-00005F42
fn00005F30: // (misaligned)
00005F32  FEB0 20A8                .extension 0xEB0 <<F/2-3/7>> // unimplemented
00005F36  0006 41FA                ori.b      D6, 0xFA
00005F3A  FECC 20A8                .extension 0xECC <<F/2-3/7>> // unimplemented
00005F3E  0006 601C                ori.b      D6, 0x1C
export_133:
00005F42  5340                     subq.w     D0, 1
00005F44  660A                     bne        +0xC /* 00005F50 */
00005F46  41FA FE9A                lea.l      A0, [PC - 0x166 /* 00005DE2, value 0x4002A, cstring "" */]
00005F4A  20A8 000A                move.l     [A0], [A0 + 0xA]
00005F4E  600E                     bra        +0x10 /* 00005F5E */
label00005F50:
00005F50  5340                     subq.w     D0, 1
00005F52  660A                     bne        +0xC /* 00005F5E */
00005F54  41FA FEB0                lea.l      A0, [PC - 0x150 /* 00005E06, value 0xDD010C, cstring "" */]
00005F58  20A8 000A                move.l     [A0], [A0 + 0xA]
00005F5C  4E71                     nop
label00005F5E:
00005F5E  4E75                     rts
00005F60  0002 006C                ori.b      D2, 0x6C /* 'l' */
00005F64  0318                     btst       [A0]+, D1
00005F66  0002 045C                ori.b      D2, 0x5C /* '\\' */
00005F6A  0240 0000                andi.w     D0, 0x0
00005F6E  0000 0000                ori.b      D0, 0x0
00005F72  0000 0000                ori.b      D0, 0x0
00005F76  FE0C 00B4                .unknown   0xFE0C 0x00B4 (W = 7)
00005F7A  0001 0144                ori.b      D1, 0x44 /* 'D' */
00005F7E  0007 0144                ori.b      D7, 0x44 /* 'D' */
00005F82  000D 0144                ori.b      A5, 0x44 /* 'D' */
00005F86  0013 0144                ori.b      [A3], 0x44 /* 'D' */
00005F8A  0019 0144                ori.b      [A1]+, 0x44 /* 'D' */
00005F8E  001F 0144                ori.b      [A7]+, 0x44 /* 'D' */
00005F92  0025 0144                ori.b      -[A5], 0x44 /* 'D' */
00005F96  0028 01D4 002B           ori.b      [A0 + 0x2B], 0xD4
00005F9C  0144                     bchg       D4, D0
00005F9E  0031 0144 0037           ori.b      [A1 + D0.w + 0x37], 0x44 /* 'D' */
00005FA4  0144                     bchg       D4, D0
00005FA6  003D 0144                ori.b      <<invalid special address>>, 0x44 /* 'D' */
00005FAA  0043 0144                ori.w      D3, 0x144
00005FAE  0060 0144                ori.w      -[A0], 0x144
00005FB2  0066 0144                ori.w      -[A6], 0x144
00005FB6  006C 0144 0071           ori.w      [A4 + 0x71], 0x144
00005FBC  02E2                     .incomplete
00005FBE  0072 0144 0078           ori.w      [A2 + D0.w + 0x78], 0x144
00005FC4  0144                     bchg       D4, D0
00005FC6  007C 0144                ori.w      sr, 324
00005FCA  0085 0384 0087           ori.l      D5, 0x3840087
00005FD0  0438 009B 04B6           subi.b     [0x000004B6], 0x9B
00005FD6  009F 00D8 00A5           ori.l      [A7]+, 0xD800A5
00005FDC  00D8                     .incomplete
00005FDE  00AB 00D8 00B1 00D8      ori.l      [A3 + 0xD8], 0xD800B1
00005FE6  00B7 00D8 00BE 00D8      ori.l      [A7 + D0.w - 0x28], 0xD800BE
00005FEE  00C4                     .incomplete
00005FF0  00D8                     .incomplete
00005FF2  00C9                     .incomplete
00005FF4  0534 00CA                btst       [A4 + D0.w - 0x36], D2
00005FF8  00D8                     .incomplete
00005FFA  00D9                     .incomplete
00005FFC  05B2 00DF                bclr       [A2 + D0.w - 0x21], D2
00006000  010E                     btst       A6, D0
00006002  00E5                     .incomplete
00006004  010E                     btst       A6, D0
00006006  00EB                     .incomplete
00006008  010E                     btst       A6, D0
0000600A  00F1                     .incomplete
0000600C  010E                     btst       A6, D0
0000600E  00F7                     .incomplete
00006010  010E                     btst       A6, D0
00006012  0107                     btst       D7, D0
00006014  069C 0118 07E0           addi.l     [A4]+, 0x11807E0
0000601A  0000 0000                ori.b      D0, 0x0
0000601E  0000 0000                ori.b      D0, 0x0
00006022  0000 0000                ori.b      D0, 0x0
00006026  0000 0000                ori.b      D0, 0x0
0000602A  0000 0000                ori.b      D0, 0x0
0000602E  0000 0000                ori.b      D0, 0x0
00006032  FE0C FE0E                .unknown   0xFE0C 0xFE0E (W = 7)
00006036  0001 0000                ori.b      D1, 0x0
0000603A  0000 0000                ori.b      D0, 0x0
0000603E  0000 0000                ori.b      D0, 0x0
00006042  0000 0000                ori.b      D0, 0x0
00006046  0000 0000                ori.b      D0, 0x0
0000604A  0000 0000                ori.b      D0, 0x0
0000604E  0000 0000                ori.b      D0, 0x0
00006052  0000 0000                ori.b      D0, 0x0
00006056  0020 0030                ori.b      -[A0], 0x30 /* '0' */
0000605A  0221 0000                andi.b     -[A1], 0x0
0000605E  FFFF                     .invalid   <<F/7/7>>
00006060  018C                     bclr       A4, D0
00006062  0000 0081                ori.b      D0, 0x81
00006066  00BE 01BA 01CA           ori.l      <<invalid special address>>, 0x1BA01CA
0000606C  0221 FFFF                andi.b     -[A1], 0xFF
00006070  0000 019E                ori.b      D0, 0x9E
00006074  0000 0081                ori.b      D0, 0x81
00006078  00BE 0000 0000           ori.l      <<invalid special address>>, 0x0
0000607E  0000 0000                ori.b      D0, 0x0
00006082  0000 0000                ori.b      D0, 0x0
00006086  0000 0000                ori.b      D0, 0x0
0000608A  0000 003D                ori.b      D0, 0x3D /* '=' */
0000608E  004D 0221                ori.w      A5, 0x221
00006092  0000 0000                ori.b      D0, 0x0
00006096  01B0 0000                bclr       [A0 + D0.w], D0
0000609A  00DF                     .incomplete
0000609C  00F7                     .incomplete
0000609E  019D                     bclr       [A5]+, D0
000060A0  01AD 0221                bclr       [A5 + 0x221], D0
000060A4  0000 0000                ori.b      D0, 0x0
000060A8  01C2                     .incomplete
000060AA  0000 00DF                ori.b      D0, 0xDF
000060AE  00F7                     .incomplete
000060B0  0000 0000                ori.b      D0, 0x0
000060B4  0000 0000                ori.b      D0, 0x0
000060B8  0000 0000                ori.b      D0, 0x0
000060BC  0000 0000                ori.b      D0, 0x0
000060C0  0000 005A                ori.b      D0, 0x5A /* 'Z' */
000060C4  006A 0221 0000           ori.w      [A2 + 0x0], 0x221
000060CA  0000 0000                ori.b      D0, 0x0
000060CE  0000 0005                ori.b      D0, 0x5
000060D2  007C 0180                ori.w      sr, 384
000060D6  0190                     bclr       [A0], D0
000060D8  0221 0000                andi.b     -[A1], 0x0
000060DC  0000 0000                ori.b      D0, 0x0
000060E0  0000 0005                ori.b      D0, 0x5
000060E4  007C 0000                ori.w      sr, 0
000060E8  0000 0000                ori.b      D0, 0x0
000060EC  0000 0000                ori.b      D0, 0x0
000060F0  0000 0000                ori.b      D0, 0x0
000060F4  0000 0000                ori.b      D0, 0x0
000060F8  0020 0030                ori.b      -[A0], 0x30 /* '0' */
000060FC  0221 0000                andi.b     -[A1], 0x0
00006100  01B0 0000                bclr       [A0 + D0.w], D0
00006104  00EA                     .incomplete
00006106  0053 0080                ori.w      [A3], 0x80
0000610A  01BA 01CA                bclr       [PC + 0x1CA /* 000062D6, value 0x5E '^', cstring "" */], D0
0000610E  0221 01C2                andi.b     -[A1], 0xC2
00006112  0000 0000                ori.b      D0, 0x0
00006116  00FC                     .incomplete
00006118  0053 0080                ori.w      [A3], 0x80
0000611C  003D 004D                ori.b      <<invalid special address>>, 0x4D /* 'M' */
00006120  0221 018C                andi.b     -[A1], 0x8C
00006124  FFFF                     .invalid   <<F/7/7>>
00006126  0000 0120                ori.b      D0, 0x20 /* ' ' */
0000612A  0053 00E0                ori.w      [A3], 0xE0
0000612E  019D                     bclr       [A5]+, D0
00006130  01AD 0221                bclr       [A5 + 0x221], D0
00006134  FFFF                     .invalid   <<F/7/7>>
00006136  019E                     bclr       [A6]+, D0
00006138  0000 0132                ori.b      D0, 0x32 /* '2' */
0000613C  0053 00E0                ori.w      [A3], 0xE0
00006140  0000 0000                ori.b      D0, 0x0
00006144  0000 0000                ori.b      D0, 0x0
00006148  0000 0000                ori.b      D0, 0x0
0000614C  0000 0000                ori.b      D0, 0x0
00006150  0000 FFFE                ori.b      D0, 0xFE
00006154  FFFE                     .invalid   <<F/7/7>>
00006156  0006 0000                ori.b      D6, 0x0
0000615A  0000 0000                ori.b      D0, 0x0
0000615E  0000 0000                ori.b      D0, 0x0
00006162  0000 FFFF                ori.b      D0, 0xFF
00006166  0014 0002                ori.b      [A4], 0x2
0000616A  0000 0558                ori.b      D0, 0x58 /* 'X' */
0000616E  0000 0086                ori.b      D0, 0x86
00006172  0000 0000                ori.b      D0, 0x0
00006176  0015 0020                ori.b      [A5], 0x20 /* ' ' */
0000617A  0001 0000                ori.b      D1, 0x0
0000617E  0000 0000                ori.b      D0, 0x0
00006182  0000 0000                ori.b      D0, 0x0
00006186  0000 0021                ori.b      D0, 0x21 /* '!' */
0000618A  0035 0023 0000           ori.b      [A5 + D0.w], 0x23 /* '#' */
00006190  002E 0008 0000           ori.b      [A6 + 0x0], 0x8
00006196  0000 0000                ori.b      D0, 0x0
0000619A  0036 003D 0001           ori.b      [A6 + D0.w + 0x1], 0x3D /* '=' */
000061A0  0000 0000                ori.b      D0, 0x0
000061A4  0000 0000                ori.b      D0, 0x0
000061A8  0000 0000                ori.b      D0, 0x0
000061AC  003E 004A                ori.b      <<invalid special address>>, 0x4A /* 'J' */
000061B0  0001 0028                ori.b      D1, 0x28 /* '(' */
000061B4  0000 0000                ori.b      D0, 0x0
000061B8  0000 0000                ori.b      D0, 0x0
000061BC  0000 004B                ori.b      D0, 0x4B /* 'K' */
000061C0  0059 0001                ori.w      [A1]+, 0x1
000061C4  0000 0000                ori.b      D0, 0x0
000061C8  0000 0000                ori.b      D0, 0x0
000061CC  0000 0000                ori.b      D0, 0x0
000061D0  0191                     bclr       [A1], D0
000061D2  01A0                     bclr       -[A0], D0
000061D4  0001 0000                ori.b      D1, 0x0
000061D8  0000 0000                ori.b      D0, 0x0
000061DC  0000 0000                ori.b      D0, 0x0
000061E0  0000 01A1                ori.b      D0, 0xA1
000061E4  01AD 0001                bclr       [A5 + 0x1], D0
000061E8  0028 0000 0000           ori.b      [A0 + 0x0], 0x0
000061EE  0000 0000                ori.b      D0, 0x0
000061F2  0000 01AE                ori.b      D0, 0xAE
000061F6  01B6 0001                bclr       [A6 + D0.w + 0x1], D0
000061FA  0000 0000                ori.b      D0, 0x0
000061FE  0000 0000                ori.b      D0, 0x0
00006202  0000 0000                ori.b      D0, 0x0
00006206  01B7 01CB 0023 0004      bclr       [[ + <<invalid base displacement size>>] + 0x230004], D0
0000620E  01C5                     .incomplete
00006210  0008 0000                ori.b      A0, 0x0
00006214  0000 0000                ori.b      D0, 0x0
00006218  01CC                     .incomplete
0000621A  01E1                     .incomplete
0000621C  0001 0000                ori.b      D1, 0x0
00006220  0000 0000                ori.b      D0, 0x0
00006224  0000 0000                ori.b      D0, 0x0
00006228  0000 01E2                ori.b      D0, 0xE2
0000622C  01E6                     .incomplete
0000622E  0002 0000                ori.b      D2, 0x0
00006232  058E                     bclr       A6, D2
00006234  0000 0086                ori.b      D0, 0x86
00006238  0000 0000                ori.b      D0, 0x0
0000623C  01E7                     .incomplete
0000623E  01E7                     .incomplete
00006240  0006 0000                ori.b      D6, 0x0
00006244  0000 0000                ori.b      D0, 0x0
00006248  0000 0000                ori.b      D0, 0x0
0000624C  0000 0000                ori.b      D0, 0x0
00006250  0000 0000                ori.b      D0, 0x0
00006254  0000 0000                ori.b      D0, 0x0
00006258  0000 0000                ori.b      D0, 0x0
0000625C  0000 0000                ori.b      D0, 0x0
00006260  00A1 00A1 0006           ori.l      -[A1], 0xA10006
00006266  0000 0000                ori.b      D0, 0x0
0000626A  0000 0000                ori.b      D0, 0x0
0000626E  0000 0000                ori.b      D0, 0x0
00006272  00A2 00AB 0009           ori.l      -[A2], 0xAB0009
00006278  0000 03CC                ori.b      D0, 0xCC
0000627C  0000 005E                ori.b      D0, 0x5E /* '^' */
00006280  FFFF                     .invalid   <<F/7/7>>
00006282  0000 00AC                ori.b      D0, 0xAC
00006286  00B8 0001 0071 0000      ori.l      [0x00000000 /* __m68k_reset_stack__ */], 0x10071
0000628E  0000 0000                ori.b      D0, 0x0
00006292  0000 0000                ori.b      D0, 0x0
00006296  00B9 00CB 0001 0000 0000 ori.l      [0x00000000 /* __m68k_reset_stack__ */], 0xCB0001
000062A0  0000 0000                ori.b      D0, 0x0
000062A4  0000 0000                ori.b      D0, 0x0
000062A8  011D                     btst       [A5]+, D0
000062AA  0127                     btst       -[A7], D0
000062AC  0001 0000                ori.b      D1, 0x0
000062B0  0000 0000                ori.b      D0, 0x0
000062B4  0000 0000                ori.b      D0, 0x0
000062B8  0000 0128                ori.b      D0, 0x28 /* '(' */
000062BC  0134 0001                btst       [A4 + D0.w + 0x1], D0
000062C0  0071 0000 0000           ori.w      [A1 + D0.w], 0x0
000062C6  0000 0000                ori.b      D0, 0x0
000062CA  0000 0135                ori.b      D0, 0x35 /* '5' */
000062CE  013F                     btst       <<invalid special address>>, D0
000062D0  0009 0000                ori.b      A1, 0x0
000062D4  0402 0000                subi.b     D2, 0x0
000062D8  005E 0001                ori.w      [A6]+, 0x1
000062DC  0000 0140                ori.b      D0, 0x40 /* '@' */
000062E0  0140                     bchg       D0, D0
000062E2  0006 0000                ori.b      D6, 0x0
000062E6  0000 0000                ori.b      D0, 0x0
000062EA  0000 0000                ori.b      D0, 0x0
000062EE  0000 0000                ori.b      D0, 0x0
000062F2  0000 0000                ori.b      D0, 0x0
000062F6  0000 0000                ori.b      D0, 0x0
000062FA  0000 0000                ori.b      D0, 0x0
000062FE  0000 0000                ori.b      D0, 0x0
00006302  0059 0059                ori.w      [A1]+, 0x59 /* 'Y' */
00006306  001B 0000                ori.b      [A3]+, 0x0
0000630A  0000 0000                ori.b      D0, 0x0
0000630E  0000 0000                ori.b      D0, 0x0
00006312  0000 0059                ori.b      D0, 0x59 /* 'Y' */
00006316  0059 001B                ori.w      [A1]+, 0x1B
0000631A  0000 0000                ori.b      D0, 0x0
0000631E  0000 0000                ori.b      D0, 0x0
00006322  0000 0000                ori.b      D0, 0x0
00006326  005A 0078                ori.w      [A2]+, 0x78 /* 'x' */
0000632A  0001 0000                ori.b      D1, 0x0
0000632E  0000 0000                ori.b      D0, 0x0
00006332  0000 0000                ori.b      D0, 0x0
00006336  0000 0079                ori.b      D0, 0x79 /* 'y' */
0000633A  0082 000A 0306           ori.l      D2, 0xA0306
00006340  0000 004E                ori.b      D0, 0x4E /* 'N' */
00006344  0000 FFFF                ori.b      D0, 0xFF
00006348  0000 0083                ori.b      D0, 0x83
0000634C  008E 0006 0000           ori.l      A6, 0x60000
00006352  0000 0000                ori.b      D0, 0x0
00006356  0000 0000                ori.b      D0, 0x0
0000635A  0000 015B                ori.b      D0, 0x5B /* '[' */
0000635E  015B                     bchg       [A3]+, D0
00006360  0006 0000                ori.b      D6, 0x0
00006364  0000 0000                ori.b      D0, 0x0
00006368  0000 0000                ori.b      D0, 0x0
0000636C  0000 015C                ori.b      D0, 0x5C /* '\\' */
00006370  0166                     bchg       -[A6], D0
00006372  000A 0360                ori.b      A2, 0x60 /* '`' */
00006376  0000 004E                ori.b      D0, 0x4E /* 'N' */
0000637A  0000 0001                ori.b      D0, 0x1
0000637E  0000 0167                ori.b      D0, 0x67 /* 'g' */
00006382  018E                     bclr       A6, D0
00006384  0001 0000                ori.b      D1, 0x0
00006388  0000 0000                ori.b      D0, 0x0
0000638C  0000 0000                ori.b      D0, 0x0
00006390  0000 018F                ori.b      D0, 0x8F
00006394  018F                     bclr       A7, D0
00006396  001B 0000                ori.b      [A3]+, 0x0
0000639A  0000 0000                ori.b      D0, 0x0
0000639E  0000 0000                ori.b      D0, 0x0
000063A2  0000 0000                ori.b      D0, 0x0
000063A6  0000 0000                ori.b      D0, 0x0
000063AA  0000 0000                ori.b      D0, 0x0
000063AE  0000 0000                ori.b      D0, 0x0
000063B2  0000 0000                ori.b      D0, 0x0
000063B6  0000 0000                ori.b      D0, 0x0
000063BA  0000 0000                ori.b      D0, 0x0
000063BE  0000 0000                ori.b      D0, 0x0
000063C2  0000 0000                ori.b      D0, 0x0
000063C6  0000 00E7                ori.b      D0, 0xE7
000063CA  0102                     btst       D2, D0
000063CC  0023 0002                ori.b      -[A3], 0x2
000063D0  00F9                     .incomplete
000063D2  0066 0000                ori.w      -[A6], 0x0
000063D6  0000 0000                ori.b      D0, 0x0
000063DA  0000 0000                ori.b      D0, 0x0
000063DE  0000 0000                ori.b      D0, 0x0
000063E2  0000 0000                ori.b      D0, 0x0
000063E6  0000 0000                ori.b      D0, 0x0
000063EA  0000 00E7                ori.b      D0, 0xE7
000063EE  00F5                     .incomplete
000063F0  0025 0000                ori.b      -[A5], 0x0
000063F4  0000 0000                ori.b      D0, 0x0
000063F8  0000 0000                ori.b      D0, 0x0
000063FC  0000 0000                ori.b      D0, 0x0
00006400  0000 0000                ori.b      D0, 0x0
00006404  0000 0000                ori.b      D0, 0x0
00006408  0000 0000                ori.b      D0, 0x0
0000640C  0000 0000                ori.b      D0, 0x0
00006410  00F4                     .incomplete
00006412  0102                     btst       D2, D0
00006414  0025 0000                ori.b      -[A5], 0x0
00006418  0000 0000                ori.b      D0, 0x0
0000641C  0000 0000                ori.b      D0, 0x0
00006420  0000 0000                ori.b      D0, 0x0
00006424  0000 0000                ori.b      D0, 0x0
00006428  0000 0000                ori.b      D0, 0x0
0000642C  0000 0000                ori.b      D0, 0x0
00006430  0000 0000                ori.b      D0, 0x0
00006434  0092 009C 0001           ori.l      [A2], 0x9C0001
0000643A  0000 0000                ori.b      D0, 0x0
0000643E  0000 0000                ori.b      D0, 0x0
00006442  0000 0000                ori.b      D0, 0x0
00006446  009D 00B1 0002           ori.l      [A5]+, 0xB10002
0000644C  0000 060C                ori.b      D0, 0xC
00006450  0000 008E                ori.b      D0, 0x8E
00006454  0000 0000                ori.b      D0, 0x0
00006458  00B2 00CC 0001 0000      ori.l      [A2 + D0.w], 0xCC0001
00006460  0000 0000                ori.b      D0, 0x0
00006464  0000 0000                ori.b      D0, 0x0
00006468  0000 011E                ori.b      D0, 0x1E
0000646C  0142                     bchg       D2, D0
0000646E  0001 0000                ori.b      D1, 0x0
00006472  0000 0000                ori.b      D0, 0x0
00006476  0000 0000                ori.b      D0, 0x0
0000647A  0000 0143                ori.b      D0, 0x43 /* 'C' */
0000647E  0157                     bchg       [A7], D0
00006480  0002 0000                ori.b      D2, 0x0
00006484  0642 0000                addi.w     D2, 0x0
00006488  008E 0000 0000           ori.l      A6, 0x0
0000648E  0158                     bchg       [A0]+, D0
00006490  015A                     bchg       [A2]+, D0
00006492  0001 0000                ori.b      D1, 0x0
00006496  0000 0000                ori.b      D0, 0x0
0000649A  0000 0000                ori.b      D0, 0x0
0000649E  0000 0000                ori.b      D0, 0x0
000064A2  0000 0000                ori.b      D0, 0x0
000064A6  0000 0000                ori.b      D0, 0x0
000064AA  0000 0000                ori.b      D0, 0x0
000064AE  0000 0000                ori.b      D0, 0x0
000064B2  FFFE                     .invalid   <<F/7/7>>
000064B4  FFFE                     .invalid   <<F/7/7>>
000064B6  0006 0000                ori.b      D6, 0x0
000064BA  0000 0000                ori.b      D0, 0x0
000064BE  0000 0000                ori.b      D0, 0x0
000064C2  0000 FFFF                ori.b      D0, 0xFF
000064C6  0014 0003                ori.b      [A4], 0x3
000064CA  01F8                     .incomplete
000064CC  0000 002A                ori.b      D0, 0x2A /* '*' */
000064D0  0000 0000                ori.b      D0, 0x0
000064D4  0000 0015                ori.b      D0, 0x15
000064D8  0022 0001                ori.b      -[A2], 0x1
000064DC  0000 0000                ori.b      D0, 0x0
000064E0  0000 0000                ori.b      D0, 0x0
000064E4  0000 0000                ori.b      D0, 0x0
000064E8  01C6                     .incomplete
000064EA  01E1                     .incomplete
000064EC  0001 0000                ori.b      D1, 0x0
000064F0  0000 0000                ori.b      D0, 0x0
000064F4  0000 0000                ori.b      D0, 0x0
000064F8  0000 01E2                ori.b      D0, 0xE2
000064FC  01E6                     .incomplete
000064FE  0003 02BE                ori.b      D3, 0xBE
00006502  0000 002A                ori.b      D0, 0x2A /* '*' */
00006506  0000 0000                ori.b      D0, 0x0
0000650A  0000 01E7                ori.b      D0, 0xE7
0000650E  01E7                     .incomplete
00006510  0006 0000                ori.b      D6, 0x0
00006514  0000 0000                ori.b      D0, 0x0
00006518  0000 0000                ori.b      D0, 0x0
0000651C  0000 0000                ori.b      D0, 0x0
00006520  0000 0000                ori.b      D0, 0x0
00006524  0000 0000                ori.b      D0, 0x0
00006528  0000 0000                ori.b      D0, 0x0
0000652C  0000 0000                ori.b      D0, 0x0
00006530  0059 0059                ori.w      [A1]+, 0x59 /* 'Y' */
00006534  001B 0000                ori.b      [A3]+, 0x0
00006538  0000 0000                ori.b      D0, 0x0
0000653C  0000 0000                ori.b      D0, 0x0
00006540  0000 005A                ori.b      D0, 0x5A /* 'Z' */
00006544  0063 0001                ori.w      -[A3], 0x1
00006548  0000 0000                ori.b      D0, 0x0
0000654C  0000 0000                ori.b      D0, 0x0
00006550  0000 0000                ori.b      D0, 0x0
00006554  0064 0078                ori.w      -[A4], 0x78 /* 'x' */
00006558  0023 0001                ori.b      -[A3], 0x1
0000655C  0072 00BA 0000           ori.w      [A2 + D0.w], 0xBA
00006562  0000 0000                ori.b      D0, 0x0
00006566  0079 009C 0001 0000      ori.w      [0x00010000], 0x9C
0000656E  0000 0000                ori.b      D0, 0x0
00006572  0000 0000                ori.b      D0, 0x0
00006576  0000 009D                ori.b      D0, 0x9D
0000657A  00B1 0003 04DA 0000      ori.l      [A1 + D0.w], 0x304DA
00006582  0066 0000                ori.w      -[A6], 0x0
00006586  0000 0000                ori.b      D0, 0x0
0000658A  00B2 00CC 0001 0000      ori.l      [A2 + D0.w], 0xCC0001
00006592  0000 0000                ori.b      D0, 0x0
00006596  0000 0000                ori.b      D0, 0x0
0000659A  0000 011E                ori.b      D0, 0x1E
0000659E  0142                     bchg       D2, D0
000065A0  0001 0000                ori.b      D1, 0x0
000065A4  0000 0000                ori.b      D0, 0x0
000065A8  0000 0000                ori.b      D0, 0x0
000065AC  0000 0143                ori.b      D0, 0x43 /* 'C' */
000065B0  0157                     bchg       [A7], D0
000065B2  0003 0510                ori.b      D3, 0x10
000065B6  0000 0066                ori.b      D0, 0x66 /* 'f' */
000065BA  0000 0000                ori.b      D0, 0x0
000065BE  0000 0158                ori.b      D0, 0x58 /* 'X' */
000065C2  0173 0001                bchg       [A3 + D0.w + 0x1], D0
000065C6  0000 0000                ori.b      D0, 0x0
000065CA  0000 0000                ori.b      D0, 0x0
000065CE  0000 0000                ori.b      D0, 0x0
000065D2  0174 0188                bchg       [ + <<invalid base displacement size>> + D0], D0
000065D6  0023 0003                ori.b      -[A3], 0x3
000065DA  0182                     bclr       D2, D0
000065DC  00BA 0000 0000 0000      ori.l      [PC /* 000065DE */], 0x0
000065E4  0189                     bclr       A1, D0
000065E6  018E                     bclr       A6, D0
000065E8  0001 0000                ori.b      D1, 0x0
000065EC  0000 0000                ori.b      D0, 0x0
000065F0  0000 0000                ori.b      D0, 0x0
000065F4  0000 018F                ori.b      D0, 0x8F
000065F8  018F                     bclr       A7, D0
000065FA  001B 0000                ori.b      [A3]+, 0x0
000065FE  0000 0000                ori.b      D0, 0x0
00006602  0000 0000                ori.b      D0, 0x0
00006606  0000 0000                ori.b      D0, 0x0
0000660A  0000 0000                ori.b      D0, 0x0
0000660E  0000 0000                ori.b      D0, 0x0
00006612  0000 0000                ori.b      D0, 0x0
00006616  0000 0000                ori.b      D0, 0x0
0000661A  0003 0003                ori.b      D3, 0x3
0000661E  0006 0000                ori.b      D6, 0x0
00006622  0000 0000                ori.b      D0, 0x0
00006626  0000 0000                ori.b      D0, 0x0
0000662A  0000 0004                ori.b      D0, 0x4
0000662E  000A 0006                ori.b      A2, 0x6
00006632  0000 0000                ori.b      D0, 0x0
00006636  0000 0000                ori.b      D0, 0x0
0000663A  0000 0000                ori.b      D0, 0x0
0000663E  000B 0015                ori.b      A3, 0x15
00006642  0024 0000                ori.b      -[A4], 0x0
00006646  00D8                     .incomplete
00006648  0000 0100                ori.b      D0, 0x0
0000664C  00F0                     .incomplete
0000664E  00AC 0016 0025 0001      ori.l      [A4 + 0x1], 0x160025
00006656  0000 0000                ori.b      D0, 0x0
0000665A  0000 0000                ori.b      D0, 0x0
0000665E  0000 0000                ori.b      D0, 0x0
00006662  0026 0032                ori.b      -[A6], 0x32 /* '2' */
00006666  0001 0107                ori.b      D1, 0x7
0000666A  0000 0000                ori.b      D0, 0x0
0000666E  0000 0000                ori.b      D0, 0x0
00006672  0000 0033                ori.b      D0, 0x33 /* '3' */
00006676  003D 0001                ori.b      <<invalid special address>>, 0x1
0000667A  0000 0000                ori.b      D0, 0x0
0000667E  0000 0000                ori.b      D0, 0x0
00006682  0000 0000                ori.b      D0, 0x0
00006686  003E 0072                ori.b      <<invalid special address>>, 0x72 /* 'r' */
0000668A  0001 003E                ori.b      D1, 0x3E /* '>' */
0000668E  0072 003D 003D           ori.w      [A2 + D0.w + 0x3D], 0x3D /* '=' */
00006694  0000 0000                ori.b      D0, 0x0
00006698  0073 00D9 0001           ori.w      [A3 + D0.w + 0x1], 0xD9
0000669E  0000 0000                ori.b      D0, 0x0
000066A2  0000 0000                ori.b      D0, 0x0
000066A6  0000 0000                ori.b      D0, 0x0
000066AA  00DA                     .incomplete
000066AC  010E                     btst       A6, D0
000066AE  0001 00DA                ori.b      D1, 0xDA
000066B2  010E                     btst       A6, D0
000066B4  00D9                     .incomplete
000066B6  00D9                     .incomplete
000066B8  0000 0000                ori.b      D0, 0x0
000066BC  010F                     btst       A7, D0
000066BE  0177 0001                bchg       [A7 + D0.w + 0x1], D0
000066C2  0000 0000                ori.b      D0, 0x0
000066C6  0000 0000                ori.b      D0, 0x0
000066CA  0000 0000                ori.b      D0, 0x0
000066CE  0178 01AC                bchg       [0x000001AC], D0
000066D2  0001 0178                ori.b      D1, 0x78 /* 'x' */
000066D6  01AC 0177                bclr       [A4 + 0x177], D0
000066DA  0177 0000                bchg       [A7 + D0.w], D0
000066DE  0000 01AD                ori.b      D0, 0xAD
000066E2  01B7 0001                bclr       [A7 + D0.w + 0x1], D0
000066E6  0000 0000                ori.b      D0, 0x0
000066EA  0000 0000                ori.b      D0, 0x0
000066EE  0000 0000                ori.b      D0, 0x0
000066F2  01B8 01C4                bclr       [0x000001C4], D0
000066F6  0001 0107                ori.b      D1, 0x7
000066FA  0000 0000                ori.b      D0, 0x0
000066FE  0000 0000                ori.b      D0, 0x0
00006702  0000 01C5                ori.b      D0, 0xC5
00006706  01CE                     .incomplete
00006708  0001 0000                ori.b      D1, 0x0
0000670C  0000 0000                ori.b      D0, 0x0
00006710  0000 0000                ori.b      D0, 0x0
00006714  0000 01CF                ori.b      D0, 0xCF
00006718  01D9                     .incomplete
0000671A  0024 0000                ori.b      -[A4], 0x0
0000671E  FF28                     .extension 0xF28 <<F/4-5/7>> // unimplemented
00006720  01E0                     .incomplete
00006722  0100                     btst       D0, D0
00006724  00FF                     .incomplete
00006726  00AC 01DA 01E0 0006      ori.l      [A4 + 0x6], 0x1DA01E0
0000672E  0000 0000                ori.b      D0, 0x0
00006732  0000 0000                ori.b      D0, 0x0
00006736  0000 0000                ori.b      D0, 0x0
0000673A  01E1                     .incomplete
0000673C  01E1                     .incomplete
0000673E  0006 0000                ori.b      D6, 0x0
00006742  0000 0000                ori.b      D0, 0x0
00006746  0000 0000                ori.b      D0, 0x0
0000674A  0000 0000                ori.b      D0, 0x0
0000674E  0000 0000                ori.b      D0, 0x0
00006752  0000 0000                ori.b      D0, 0x0
00006756  0000 0000                ori.b      D0, 0x0
0000675A  0000 0000                ori.b      D0, 0x0
0000675E  0001 0200                ori.b      D1, 0x0
00006762  001D 0000                ori.b      [A5]+, 0x0
00006766  0000 0000                ori.b      D0, 0x0
0000676A  0000 0000                ori.b      D0, 0x0
0000676E  0000 41FA                ori.b      D0, 0xFA
// begin alternate branch 00006770-00006774
fn00006770:
00006770  41FA FF14                lea.l      A0, [PC - 0xEC /* 00006686, value 0x3E0072 '>\0r', cstring "" */]
// end alternate branch 00006770-00006774
fn00006770: // (misaligned)
00006772  FF14                     .extension 0xF14 <<F/4-5/7>> // unimplemented
00006774  20A8 0006                move.l     [A0], [A0 + 0x6]
00006778  41FA FF30                lea.l      A0, [PC - 0xD0 /* 000066AA, value 0xDA010E, cstring "" */]
0000677C  20A8 0006                move.l     [A0], [A0 + 0x6]
00006780  41FA FF4C                lea.l      A0, [PC - 0xB4 /* 000066CE, value 0x17801AC */]
00006784  20A8 0006                move.l     [A0], [A0 + 0x6]
00006788  41FA F844                lea.l      A0, [PC - 0x7BC /* 00005FCE, value 0x870438, cstring "" */]
0000678C  317A 0018 0002           move.w     [A0 + 0x2], [PC + 0x18 /* 000067A6, value 0x438 */]
00006792  41FA FEAA                lea.l      A0, [PC - 0x156 /* 0000663E, value 0xB0015, cstring "" */]
00006796  4268 0006                clr.w      [A0 + 0x6]
0000679A  41FA FF7A                lea.l      A0, [PC - 0x86 /* 00006716, value 0x1CF01D9 */]
0000679E  4268 0006                clr.w      [A0 + 0x6]
000067A2  6000 0064                bra        +0x66 /* 00006808 */
000067A6  0438 044A 046E           subi.b     [0x0000046E], 0x4A /* 'J' */
000067AC  0492 303A 0004           subi.l     [A2], 0x303A0004
000067B2  6054                     bra        +0x56 /* 00006808 */
000067B4  00A6 2F08 41FA           ori.l      -[A6], 0x2F0841FA
// begin alternate branch 000067B6-000067BE
export_134:
000067B6  2F08                     move.l     -[A7], A0
000067B8  41FA F814                lea.l      A0, [PC - 0x7EC /* 00005FCE, value 0x870438, cstring "" */]
000067BC  5347                     subq.w     D7, 1
// end alternate branch 000067B6-000067BE
export_134: // at 000067B6 (misaligned)
000067BA  F814 5347                .tblXX     0xF814, 0x5347 // unimplemented
000067BE  6C08                     bge        +0xA /* 000067C8 */
000067C0  317A FFE8 0002           move.w     [A0 + 0x2], [PC - 0x18 /* 000067AA, value 0x46E */]
000067C6  6012                     bra        +0x14 /* 000067DA */
label000067C8:
000067C8  5347                     subq.w     D7, 1
000067CA  6C08                     bge        +0xA /* 000067D4 */
000067CC  317A FFDE 0002           move.w     [A0 + 0x2], [PC - 0x22 /* 000067AC, value 0x492 */]
000067D2  6006                     bra        +0x8 /* 000067DA */
label000067D4:
000067D4  317A FFD2 0002           move.w     [A0 + 0x2], [PC - 0x2E /* 000067A8, value 0x44A */]
label000067DA:
000067DA  205F                     movea.l    A0, [A7]+
000067DC  602A                     bra        +0x2C /* 00006808 */
export_135:
000067DE  5340                     subq.w     D0, 1
000067E0  660A                     bne        +0xC /* 000067EC */
000067E2  41FA FEA2                lea.l      A0, [PC - 0x15E /* 00006686, value 0x3E0072 '>\0r', cstring "" */]
000067E6  20A8 000A                move.l     [A0], [A0 + 0xA]
000067EA  601C                     bra        +0x1E /* 00006808 */
label000067EC:
000067EC  5340                     subq.w     D0, 1
000067EE  660A                     bne        +0xC /* 000067FA */
000067F0  41FA FEB8                lea.l      A0, [PC - 0x148 /* 000066AA, value 0xDA010E, cstring "" */]
000067F4  20A8 000A                move.l     [A0], [A0 + 0xA]
000067F8  600E                     bra        +0x10 /* 00006808 */
label000067FA:
000067FA  5340                     subq.w     D0, 1
000067FC  660A                     bne        +0xC /* 00006808 */
000067FE  41FA FECE                lea.l      A0, [PC - 0x132 /* 000066CE, value 0x17801AC */]
00006802  20A8 000A                move.l     [A0], [A0 + 0xA]
00006806  4E71                     nop
label00006808:
00006808  4E75                     rts
0000680A  0003 0240                ori.b      D3, 0x40 /* '@' */
0000680E  0276 0786 0003           andi.w     [A6 + D0.w + 0x3], 0x786
00006814  0318                     btst       [A0]+, D1
00006816  034E                     bchg       A6, D1
00006818  06F6                     .incomplete
