# near model CODE resource
# jump table entries: 480-545 (66 of them)
export_60:
fn00000000:
00000000  48E7 FF7E                movem.l    -[A7], D0,D1,D2,D3,D4,D5,D6,D7,A1,A2,A3,A4,A5,A6
00000004  3E00                     move.w     D7, D0
00000006  0240 000F                andi.w     D0, 0xF
0000000A  0440 0010                subi.w     D0, 0x10
0000000E  4440                     neg.w      D0
00000010  E647                     asr        D7.w, 3
00000012  0247 FFFE                andi.w     D7, 0xFFFE
00000016  3629 0004                move.w     D3, [A1 + 0x4]
0000001A  3829 0006                move.w     D4, [A1 + 0x6]
0000001E  E342                     asl        D2.w, 1
00000020  C4E9 0008                mulu.w     D2, [A1 + 0x8]
00000024  0642 000E                addi.w     D2, 0xE
00000028  2449                     movea.l    A2, A1
0000002A  D4E9 0008                add.w      A2, [A1 + 0x8]
0000002E  D2C2                     add.w      A1, D2
00000030  D4C2                     add.w      A2, D2
00000032  4A41                     tst.w      D1
00000034  6C10                     bge        +0x12 /* 00000046 */
00000036  D841                     add.w      D4, D1
00000038  6F00 01AC                ble        +0x1AE /* 000001E6 */
0000003C  C2C3                     mulu.w     D1, D3
0000003E  E341                     asl        D1.w, 1
00000040  92C1                     sub.w      A1, D1
00000042  94C1                     sub.w      A2, D1
00000044  4241                     clr.w      D1
label00000046:
00000046  3C01                     move.w     D6, D1
00000048  DC44                     add.w      D6, D4
0000004A  0446 0136                subi.w     D6, 0x136
0000004E  6F06                     ble        +0x8 /* 00000056 */
00000050  9846                     sub.w      D4, D6
00000052  6F00 0192                ble        +0x194 /* 000001E6 */
label00000056:
00000056  3C7C 0040                movea.w    A6, 0x40 /* '@' */
0000005A  2668 0002                movea.l    A3, [A0 + 0x2]
0000005E  2868 0006                movea.l    A4, [A0 + 0x6]
00000062  ED41                     asl        D1.w, 6
00000064  4A47                     tst.w      D7
00000066  6D00 0080                blt        +0x82 /* 000000E8 */
0000006A  3A03                     move.w     D5, D3
0000006C  E345                     asl        D5.w, 1
0000006E  DA47                     add.w      D5, D7
00000070  0445 003E                subi.w     D5, 0x3E /* '>' */
00000074  6E00 00F6                bgt        +0xF8 /* 0000016C */
00000078  D247                     add.w      D1, D7
0000007A  D6C1                     add.w      A3, D1
0000007C  D8C1                     add.w      A4, D1
0000007E  2A68 000A                movea.l    A5, [A0 + 0xA]
00000082  3AC3                     move.w     [A5]+, D3
00000084  3A84                     move.w     [A5], D4
00000086  535D                     subq.w     [A5]+, 1
00000088  48C1                     ext.l      D1
0000008A  2AC1                     move.l     [A5]+, D1
0000008C  E343                     asl        D3.w, 1
0000008E  9CC3                     sub.w      A6, D3
00000090  E243                     asr        D3.w, 1
00000092  554E                     subq.w     A6, 2
00000094  2ACE                     move.l     [A5]+, A6
00000096  5343                     subq.w     D3, 1
00000098  5344                     subq.w     D4, 1
label0000009A:
0000009A  3403                     move.w     D2, D3
0000009C  3E1B                     move.w     D7, [A3]+
0000009E  3AC7                     move.w     [A5]+, D7
000000A0  321C                     move.w     D1, [A4]+
000000A2  4847                     swap.w     D7
000000A4  4841                     swap.w     D1
label000000A6:
000000A6  3E1B                     move.w     D7, [A3]+
000000A8  3AC7                     move.w     [A5]+, D7
000000AA  321C                     move.w     D1, [A4]+
000000AC  7C00                     moveq.l    D6, 0x00
000000AE  3C1A                     move.w     D6, [A2]+
000000B0  E1BE                     rol        D6, D0
000000B2  CC81                     and.l      D6, D1
000000B4  4686                     not.l      D6
000000B6  CE86                     and.l      D7, D6
000000B8  7C00                     moveq.l    D6, 0x00
000000BA  3C19                     move.w     D6, [A1]+
000000BC  E1BE                     rol        D6, D0
000000BE  CC81                     and.l      D6, D1
000000C0  8E86                     or.l       D7, D6
000000C2  4847                     swap.w     D7
000000C4  3747 FFFC                move.w     [A3 - 0x4], D7
000000C8  4841                     swap.w     D1
000000CA  51CA FFDA                dbf        D2, -0x28 /* 000000A6 */
000000CE  4847                     swap.w     D7
000000D0  3747 FFFE                move.w     [A3 - 0x2], D7
000000D4  D6CE                     add.w      A3, A6
000000D6  D8CE                     add.w      A4, A6
000000D8  51CC FFC0                dbf        D4, -0x42 /* 0000009A */
000000DC  2AE8 000A                move.l     [A5]+, [A0 + 0xA]
000000E0  214D 000A                move.l     [A0 + 0xA], A5
000000E4  6000 0100                bra        +0x102 /* 000001E6 */
label000000E8:
000000E8  3A07                     move.w     D5, D7
000000EA  E245                     asr        D5.w, 1
000000EC  4445                     neg.w      D5
000000EE  B645                     cmp.w      D3, D5
000000F0  6D00 00F4                blt        +0xF6 /* 000001E6 */
000000F4  9A43                     sub.w      D5, D3
000000F6  4445                     neg.w      D5
000000F8  D247                     add.w      D1, D7
000000FA  D6C1                     add.w      A3, D1
000000FC  D8C1                     add.w      A4, D1
000000FE  2A68 000A                movea.l    A5, [A0 + 0xA]
00000102  3AC3                     move.w     [A5]+, D3
00000104  3A84                     move.w     [A5], D4
00000106  535D                     subq.w     [A5]+, 1
00000108  48C1                     ext.l      D1
0000010A  2AC1                     move.l     [A5]+, D1
0000010C  E343                     asl        D3.w, 1
0000010E  9CC3                     sub.w      A6, D3
00000110  E243                     asr        D3.w, 1
00000112  554E                     subq.w     A6, 2
00000114  2ACE                     move.l     [A5]+, A6
00000116  5343                     subq.w     D3, 1
00000118  5344                     subq.w     D4, 1
label0000011A:
0000011A  3403                     move.w     D2, D3
0000011C  3E1B                     move.w     D7, [A3]+
0000011E  3AC7                     move.w     [A5]+, D7
00000120  321C                     move.w     D1, [A4]+
00000122  4847                     swap.w     D7
00000124  4841                     swap.w     D1
label00000126:
00000126  3E1B                     move.w     D7, [A3]+
00000128  3AC7                     move.w     [A5]+, D7
0000012A  321C                     move.w     D1, [A4]+
0000012C  7C00                     moveq.l    D6, 0x00
0000012E  3C1A                     move.w     D6, [A2]+
00000130  E1BE                     rol        D6, D0
00000132  CC81                     and.l      D6, D1
00000134  4686                     not.l      D6
00000136  CE86                     and.l      D7, D6
00000138  7C00                     moveq.l    D6, 0x00
0000013A  3C19                     move.w     D6, [A1]+
0000013C  E1BE                     rol        D6, D0
0000013E  CC81                     and.l      D6, D1
00000140  8E86                     or.l       D7, D6
00000142  4847                     swap.w     D7
00000144  B445                     cmp.w      D2, D5
00000146  6C04                     bge        +0x6 /* 0000014C */
00000148  3747 FFFC                move.w     [A3 - 0x4], D7
label0000014C:
0000014C  4841                     swap.w     D1
0000014E  51CA FFD6                dbf        D2, -0x2C /* 00000126 */
00000152  4847                     swap.w     D7
00000154  3747 FFFE                move.w     [A3 - 0x2], D7
00000158  D6CE                     add.w      A3, A6
0000015A  D8CE                     add.w      A4, A6
0000015C  51CC FFBC                dbf        D4, -0x46 /* 0000011A */
00000160  2AE8 000A                move.l     [A5]+, [A0 + 0xA]
00000164  214D 000A                move.l     [A0 + 0xA], A5
00000168  6000 007C                bra        +0x7E /* 000001E6 */
label0000016C:
0000016C  E245                     asr        D5.w, 1
0000016E  B645                     cmp.w      D3, D5
00000170  6F00 0074                ble        +0x76 /* 000001E6 */
00000174  D247                     add.w      D1, D7
00000176  D6C1                     add.w      A3, D1
00000178  D8C1                     add.w      A4, D1
0000017A  2A68 000A                movea.l    A5, [A0 + 0xA]
0000017E  3AC3                     move.w     [A5]+, D3
00000180  3A84                     move.w     [A5], D4
00000182  535D                     subq.w     [A5]+, 1
00000184  48C1                     ext.l      D1
00000186  2AC1                     move.l     [A5]+, D1
00000188  E343                     asl        D3.w, 1
0000018A  9CC3                     sub.w      A6, D3
0000018C  E243                     asr        D3.w, 1
0000018E  554E                     subq.w     A6, 2
00000190  2ACE                     move.l     [A5]+, A6
00000192  5343                     subq.w     D3, 1
00000194  5344                     subq.w     D4, 1
00000196  5345                     subq.w     D5, 1
label00000198:
00000198  3403                     move.w     D2, D3
0000019A  3E1B                     move.w     D7, [A3]+
0000019C  3AC7                     move.w     [A5]+, D7
0000019E  321C                     move.w     D1, [A4]+
000001A0  4847                     swap.w     D7
000001A2  4841                     swap.w     D1
label000001A4:
000001A4  3E1B                     move.w     D7, [A3]+
000001A6  3AC7                     move.w     [A5]+, D7
000001A8  321C                     move.w     D1, [A4]+
000001AA  7C00                     moveq.l    D6, 0x00
000001AC  3C1A                     move.w     D6, [A2]+
000001AE  E1BE                     rol        D6, D0
000001B0  CC81                     and.l      D6, D1
000001B2  4686                     not.l      D6
000001B4  CE86                     and.l      D7, D6
000001B6  7C00                     moveq.l    D6, 0x00
000001B8  3C19                     move.w     D6, [A1]+
000001BA  E1BE                     rol        D6, D0
000001BC  CC81                     and.l      D6, D1
000001BE  8E86                     or.l       D7, D6
000001C0  4847                     swap.w     D7
000001C2  BA42                     cmp.w      D5, D2
000001C4  6E04                     bgt        +0x6 /* 000001CA */
000001C6  3747 FFFC                move.w     [A3 - 0x4], D7
label000001CA:
000001CA  4841                     swap.w     D1
000001CC  51CA FFD6                dbf        D2, -0x2C /* 000001A4 */
000001D0  4847                     swap.w     D7
000001D2  D6CE                     add.w      A3, A6
000001D4  D8CE                     add.w      A4, A6
000001D6  51CC FFC0                dbf        D4, -0x42 /* 00000198 */
000001DA  2AE8 000A                move.l     [A5]+, [A0 + 0xA]
000001DE  214D 000A                move.l     [A0 + 0xA], A5
000001E2  6000 0002                bra        +0x4 /* 000001E6 */
label000001E6:
000001E6  4CDF 7EFF                movem.l    D0,D1,D2,D3,D4,D5,D6,D7,A1,A2,A3,A4,A5,A6, [A7]+
000001EA  4E75                     rts
fn000001EC:
000001EC  48E7 FF7A                movem.l    -[A7], D0,D1,D2,D3,D4,D5,D6,D7,A1,A2,A3,A4,A6
000001F0  3600                     move.w     D3, D0
000001F2  0240 000F                andi.w     D0, 0xF
000001F6  E643                     asr        D3.w, 3
000001F8  0243 FFFE                andi.w     D3, 0xFFFE
000001FC  3829 0004                move.w     D4, [A1 + 0x4]
00000200  5344                     subq.w     D4, 1
00000202  48C4                     ext.l      D4
00000204  3A29 0006                move.w     D5, [A1 + 0x6]
00000208  5345                     subq.w     D5, 1
0000020A  48C5                     ext.l      D5
0000020C  E342                     asl        D2.w, 1
0000020E  C4E9 0008                mulu.w     D2, [A1 + 0x8]
00000212  2649                     movea.l    A3, A1
00000214  D6FC 000E                add.w      A3, 0xE
00000218  D7C2                     add.l      A3, D2
0000021A  284B                     movea.l    A4, A3
0000021C  D8E9 0008                add.w      A4, [A1 + 0x8]
00000220  4A41                     tst.w      D1
00000222  6C16                     bge        +0x18 /* 0000023A */
00000224  4441                     neg.w      D1
00000226  9A41                     sub.w      D5, D1
00000228  6F00 005C                ble        +0x5E /* 00000286 */
0000022C  5284                     addq.l     D4, 1
0000022E  C2C4                     mulu.w     D1, D4
00000230  5384                     subq.l     D4, 1
00000232  E381                     asl        D1, 1
00000234  D7C1                     add.l      A3, D1
00000236  D9C1                     add.l      A4, D1
00000238  7200                     moveq.l    D1, 0x00
label0000023A:
0000023A  3C10                     move.w     D6, [A0]
0000023C  48C6                     ext.l      D6
0000023E  2268 0002                movea.l    A1, [A0 + 0x2]
00000242  C2C6                     mulu.w     D1, D6
00000244  48C3                     ext.l      D3
00000246  D283                     add.l      D1, D3
00000248  D3C1                     add.l      A1, D1
0000024A  E384                     asl        D4, 1
0000024C  9C84                     sub.l      D6, D4
0000024E  E284                     asr        D4, 1
00000250  5986                     subq.l     D6, 4
label00000252:
00000252  2E04                     move.l     D7, D4
00000254  3219                     move.w     D1, [A1]+
00000256  4841                     swap.w     D1
label00000258:
00000258  3219                     move.w     D1, [A1]+
0000025A  361C                     move.w     D3, [A4]+
0000025C  4843                     swap.w     D3
0000025E  4243                     clr.w      D3
00000260  E0BB                     ror        D3, D0
00000262  4683                     not.l      D3
00000264  C283                     and.l      D1, D3
00000266  361B                     move.w     D3, [A3]+
00000268  4843                     swap.w     D3
0000026A  4243                     clr.w      D3
0000026C  E0BB                     ror        D3, D0
0000026E  8283                     or.l       D1, D3
00000270  4841                     swap.w     D1
00000272  3341 FFFC                move.w     [A1 - 0x4], D1
00000276  51CF FFE0                dbf        D7, -0x22 /* 00000258 */
0000027A  4841                     swap.w     D1
0000027C  3341 FFFE                move.w     [A1 - 0x2], D1
00000280  D3C6                     add.l      A1, D6
00000282  51CD FFCE                dbf        D5, -0x34 /* 00000252 */
label00000286:
00000286  4CDF 5EFF                movem.l    D0,D1,D2,D3,D4,D5,D6,D7,A1,A2,A3,A4,A6, [A7]+
0000028A  4E75                     rts
fn0000028C:
0000028C  48E7 FF7A                movem.l    -[A7], D0,D1,D2,D3,D4,D5,D6,D7,A1,A2,A3,A4,A6
00000290  3600                     move.w     D3, D0
00000292  0240 000F                andi.w     D0, 0xF
00000296  E643                     asr        D3.w, 3
00000298  0243 FFFE                andi.w     D3, 0xFFFE
0000029C  3829 0004                move.w     D4, [A1 + 0x4]
000002A0  5344                     subq.w     D4, 1
000002A2  48C4                     ext.l      D4
000002A4  3A29 0006                move.w     D5, [A1 + 0x6]
000002A8  5345                     subq.w     D5, 1
000002AA  48C5                     ext.l      D5
000002AC  E342                     asl        D2.w, 1
000002AE  C4E9 0008                mulu.w     D2, [A1 + 0x8]
000002B2  2649                     movea.l    A3, A1
000002B4  D6FC 000E                add.w      A3, 0xE
000002B8  D7C2                     add.l      A3, D2
000002BA  284B                     movea.l    A4, A3
000002BC  D8E9 0008                add.w      A4, [A1 + 0x8]
000002C0  4A41                     tst.w      D1
000002C2  6C16                     bge        +0x18 /* 000002DA */
000002C4  4441                     neg.w      D1
000002C6  9A41                     sub.w      D5, D1
000002C8  6F00 0050                ble        +0x52 /* 0000031A */
000002CC  5284                     addq.l     D4, 1
000002CE  C2C4                     mulu.w     D1, D4
000002D0  5384                     subq.l     D4, 1
000002D2  E381                     asl        D1, 1
000002D4  D7C1                     add.l      A3, D1
000002D6  D9C1                     add.l      A4, D1
000002D8  7200                     moveq.l    D1, 0x00
label000002DA:
000002DA  3C10                     move.w     D6, [A0]
000002DC  48C6                     ext.l      D6
000002DE  2268 0002                movea.l    A1, [A0 + 0x2]
000002E2  C2C6                     mulu.w     D1, D6
000002E4  48C3                     ext.l      D3
000002E6  D283                     add.l      D1, D3
000002E8  D3C1                     add.l      A1, D1
000002EA  E384                     asl        D4, 1
000002EC  9C84                     sub.l      D6, D4
000002EE  E284                     asr        D4, 1
000002F0  5986                     subq.l     D6, 4
label000002F2:
000002F2  2E04                     move.l     D7, D4
000002F4  3219                     move.w     D1, [A1]+
000002F6  4841                     swap.w     D1
label000002F8:
000002F8  3219                     move.w     D1, [A1]+
000002FA  361C                     move.w     D3, [A4]+
000002FC  4843                     swap.w     D3
000002FE  4243                     clr.w      D3
00000300  E0BB                     ror        D3, D0
00000302  8283                     or.l       D1, D3
00000304  4841                     swap.w     D1
00000306  3341 FFFC                move.w     [A1 - 0x4], D1
0000030A  51CF FFEC                dbf        D7, -0x16 /* 000002F8 */
0000030E  4841                     swap.w     D1
00000310  3341 FFFE                move.w     [A1 - 0x2], D1
00000314  D3C6                     add.l      A1, D6
00000316  51CD FFDA                dbf        D5, -0x28 /* 000002F2 */
label0000031A:
0000031A  4CDF 5EFF                movem.l    D0,D1,D2,D3,D4,D5,D6,D7,A1,A2,A3,A4,A6, [A7]+
0000031E  4E75                     rts
export_61:
fn00000320:
00000320  48E7 FF7A                movem.l    -[A7], D0,D1,D2,D3,D4,D5,D6,D7,A1,A2,A3,A4,A6
00000324  3600                     move.w     D3, D0
00000326  0240 000F                andi.w     D0, 0xF
0000032A  E643                     asr        D3.w, 3
0000032C  0243 FFFE                andi.w     D3, 0xFFFE
00000330  3829 0004                move.w     D4, [A1 + 0x4]
00000334  5344                     subq.w     D4, 1
00000336  48C4                     ext.l      D4
00000338  3A29 0006                move.w     D5, [A1 + 0x6]
0000033C  5345                     subq.w     D5, 1
0000033E  48C5                     ext.l      D5
00000340  E342                     asl        D2.w, 1
00000342  C4E9 0008                mulu.w     D2, [A1 + 0x8]
00000346  2649                     movea.l    A3, A1
00000348  D6FC 000E                add.w      A3, 0xE
0000034C  D7C2                     add.l      A3, D2
0000034E  284B                     movea.l    A4, A3
00000350  D8E9 0008                add.w      A4, [A1 + 0x8]
00000354  4A41                     tst.w      D1
00000356  6C16                     bge        +0x18 /* 0000036E */
00000358  4441                     neg.w      D1
0000035A  9A41                     sub.w      D5, D1
0000035C  6F00 0076                ble        +0x78 /* 000003D4 */
00000360  5284                     addq.l     D4, 1
00000362  C2C4                     mulu.w     D1, D4
00000364  5384                     subq.l     D4, 1
00000366  E381                     asl        D1, 1
00000368  D7C1                     add.l      A3, D1
0000036A  D9C1                     add.l      A4, D1
0000036C  7200                     moveq.l    D1, 0x00
label0000036E:
0000036E  2C68 000A                movea.l    A6, [A0 + 0xA]
00000372  3C84                     move.w     [A6], D4
00000374  525E                     addq.w     [A6]+, 1
00000376  3CC5                     move.w     [A6]+, D5
00000378  3C10                     move.w     D6, [A0]
0000037A  48C6                     ext.l      D6
0000037C  2268 0002                movea.l    A1, [A0 + 0x2]
00000380  C2C6                     mulu.w     D1, D6
00000382  48C3                     ext.l      D3
00000384  D283                     add.l      D1, D3
00000386  2CC1                     move.l     [A6]+, D1
00000388  D3C1                     add.l      A1, D1
0000038A  E384                     asl        D4, 1
0000038C  9C84                     sub.l      D6, D4
0000038E  E284                     asr        D4, 1
00000390  5986                     subq.l     D6, 4
00000392  2CC6                     move.l     [A6]+, D6
label00000394:
00000394  2E04                     move.l     D7, D4
00000396  3219                     move.w     D1, [A1]+
00000398  3CC1                     move.w     [A6]+, D1
0000039A  4841                     swap.w     D1
label0000039C:
0000039C  3219                     move.w     D1, [A1]+
0000039E  3CC1                     move.w     [A6]+, D1
000003A0  361C                     move.w     D3, [A4]+
000003A2  4843                     swap.w     D3
000003A4  4243                     clr.w      D3
000003A6  E0BB                     ror        D3, D0
000003A8  4683                     not.l      D3
000003AA  C283                     and.l      D1, D3
000003AC  361B                     move.w     D3, [A3]+
000003AE  4843                     swap.w     D3
000003B0  4243                     clr.w      D3
000003B2  E0BB                     ror        D3, D0
000003B4  8283                     or.l       D1, D3
000003B6  4841                     swap.w     D1
000003B8  3341 FFFC                move.w     [A1 - 0x4], D1
000003BC  51CF FFDE                dbf        D7, -0x24 /* 0000039C */
000003C0  4841                     swap.w     D1
000003C2  3341 FFFE                move.w     [A1 - 0x2], D1
000003C6  D3C6                     add.l      A1, D6
000003C8  51CD FFCA                dbf        D5, -0x38 /* 00000394 */
000003CC  2CE8 000A                move.l     [A6]+, [A0 + 0xA]
000003D0  214E 000A                move.l     [A0 + 0xA], A6
label000003D4:
000003D4  4CDF 5EFF                movem.l    D0,D1,D2,D3,D4,D5,D6,D7,A1,A2,A3,A4,A6, [A7]+
000003D8  4E75                     rts
label000003DA:
000003DA  48E7 FF7A                movem.l    -[A7], D0,D1,D2,D3,D4,D5,D6,D7,A1,A2,A3,A4,A6
000003DE  3600                     move.w     D3, D0
000003E0  0240 000F                andi.w     D0, 0xF
000003E4  E643                     asr        D3.w, 3
000003E6  0243 FFFE                andi.w     D3, 0xFFFE
000003EA  3829 0004                move.w     D4, [A1 + 0x4]
000003EE  5344                     subq.w     D4, 1
000003F0  48C4                     ext.l      D4
000003F2  3A29 0006                move.w     D5, [A1 + 0x6]
000003F6  5345                     subq.w     D5, 1
000003F8  48C5                     ext.l      D5
000003FA  C4E9 0008                mulu.w     D2, [A1 + 0x8]
000003FE  2649                     movea.l    A3, A1
00000400  D6FC 000E                add.w      A3, 0xE
00000404  D7C2                     add.l      A3, D2
00000406  4A41                     tst.w      D1
00000408  6C14                     bge        +0x16 /* 0000041E */
0000040A  4441                     neg.w      D1
0000040C  9A41                     sub.w      D5, D1
0000040E  6F00 008A                ble        +0x8C /* 0000049A */
00000412  5284                     addq.l     D4, 1
00000414  C2C4                     mulu.w     D1, D4
00000416  5384                     subq.l     D4, 1
00000418  E381                     asl        D1, 1
0000041A  D7C1                     add.l      A3, D1
0000041C  7200                     moveq.l    D1, 0x00
label0000041E:
0000041E  2C68 000A                movea.l    A6, [A0 + 0xA]
00000422  3C84                     move.w     [A6], D4
00000424  525E                     addq.w     [A6]+, 1
00000426  3CC5                     move.w     [A6]+, D5
00000428  3C10                     move.w     D6, [A0]
0000042A  48C6                     ext.l      D6
0000042C  2468 0006                movea.l    A2, [A0 + 0x6]
00000430  2268 0002                movea.l    A1, [A0 + 0x2]
00000434  C2C6                     mulu.w     D1, D6
00000436  48C3                     ext.l      D3
00000438  D283                     add.l      D1, D3
0000043A  2CC1                     move.l     [A6]+, D1
0000043C  D3C1                     add.l      A1, D1
0000043E  D5C1                     add.l      A2, D1
00000440  E384                     asl        D4, 1
00000442  9C84                     sub.l      D6, D4
00000444  E284                     asr        D4, 1
00000446  5986                     subq.l     D6, 4
00000448  2CC6                     move.l     [A6]+, D6
label0000044A:
0000044A  2E04                     move.l     D7, D4
0000044C  3219                     move.w     D1, [A1]+
0000044E  3CC1                     move.w     [A6]+, D1
00000450  341A                     move.w     D2, [A2]+
00000452  4841                     swap.w     D1
00000454  4842                     swap.w     D2
label00000456:
00000456  3219                     move.w     D1, [A1]+
00000458  3CC1                     move.w     [A6]+, D1
0000045A  341A                     move.w     D2, [A2]+
0000045C  363C FFFF                move.w     D3, 0xFFFF
00000460  4843                     swap.w     D3
00000462  4243                     clr.w      D3
00000464  E0BB                     ror        D3, D0
00000466  C682                     and.l      D3, D2
00000468  4683                     not.l      D3
0000046A  C283                     and.l      D1, D3
0000046C  361B                     move.w     D3, [A3]+
0000046E  4843                     swap.w     D3
00000470  4243                     clr.w      D3
00000472  E0BB                     ror        D3, D0
00000474  C682                     and.l      D3, D2
00000476  8283                     or.l       D1, D3
00000478  4841                     swap.w     D1
0000047A  3341 FFFC                move.w     [A1 - 0x4], D1
0000047E  4842                     swap.w     D2
00000480  51CF FFD4                dbf        D7, -0x2E /* 00000456 */
00000484  4841                     swap.w     D1
00000486  3341 FFFE                move.w     [A1 - 0x2], D1
0000048A  D3C6                     add.l      A1, D6
0000048C  D5C6                     add.l      A2, D6
0000048E  51CD FFBA                dbf        D5, -0x48 /* 0000044A */
00000492  2CE8 000A                move.l     [A6]+, [A0 + 0xA]
00000496  214E 000A                move.l     [A0 + 0xA], A6
label0000049A:
0000049A  4CDF 5EFF                movem.l    D0,D1,D2,D3,D4,D5,D6,D7,A1,A2,A3,A4,A6, [A7]+
0000049E  4E75                     rts
export_62:
label000004A0:
000004A0  48E7 FC38                movem.l    -[A7], D0,D1,D2,D3,D4,D5,A2,A3,A4
000004A4  45E9 000E                lea.l      A2, [A1 + 0xE]
000004A8  C4E9 0008                mulu.w     D2, [A1 + 0x8]
000004AC  D5C2                     add.l      A2, D2
000004AE  E640                     asr        D0.w, 3
000004B0  0240 FFFE                andi.w     D0, 0xFFFE
000004B4  48C0                     ext.l      D0
000004B6  2868 0002                movea.l    A4, [A0 + 0x2]
000004BA  3801                     move.w     D4, D1
000004BC  C8D0                     mulu.w     D4, [A0]
000004BE  D9C4                     add.l      A4, D4
000004C0  D9C0                     add.l      A4, D0
000004C2  3229 0004                move.w     D1, [A1 + 0x4]
000004C6  E241                     asr        D1.w, 1
000004C8  5341                     subq.w     D1, 1
000004CA  48C1                     ext.l      D1
000004CC  3429 0006                move.w     D2, [A1 + 0x6]
000004D0  5342                     subq.w     D2, 1
000004D2  48C2                     ext.l      D2
000004D4  3A10                     move.w     D5, [A0]
000004D6  E541                     asl        D1.w, 2
000004D8  9A41                     sub.w      D5, D1
000004DA  5945                     subq.w     D5, 4
000004DC  48C5                     ext.l      D5
000004DE  E441                     asr        D1.w, 2
label000004E0:
000004E0  2601                     move.l     D3, D1
label000004E2:
000004E2  28DA                     move.l     [A4]+, [A2]+
000004E4  51CB FFFC                dbf        D3, -0x6 /* 000004E2 */
000004E8  D9C5                     add.l      A4, D5
000004EA  51CA FFF4                dbf        D2, -0xE /* 000004E0 */
000004EE  4CDF 1C3F                movem.l    D0,D1,D2,D3,D4,D5,A2,A3,A4, [A7]+
000004F2  4E75                     rts
fn000004F4:
000004F4  48E7 FC38                movem.l    -[A7], D0,D1,D2,D3,D4,D5,A2,A3,A4
000004F8  45E9 000E                lea.l      A2, [A1 + 0xE]
000004FC  C4E9 0008                mulu.w     D2, [A1 + 0x8]
00000500  D5C2                     add.l      A2, D2
00000502  E640                     asr        D0.w, 3
00000504  0240 FFFE                andi.w     D0, 0xFFFE
00000508  48C0                     ext.l      D0
0000050A  2868 0002                movea.l    A4, [A0 + 0x2]
0000050E  3801                     move.w     D4, D1
00000510  C8D0                     mulu.w     D4, [A0]
00000512  D9C4                     add.l      A4, D4
00000514  D9C0                     add.l      A4, D0
00000516  3229 0004                move.w     D1, [A1 + 0x4]
0000051A  E241                     asr        D1.w, 1
0000051C  5341                     subq.w     D1, 1
0000051E  48C1                     ext.l      D1
00000520  3429 0006                move.w     D2, [A1 + 0x6]
00000524  5342                     subq.w     D2, 1
00000526  48C2                     ext.l      D2
00000528  3A10                     move.w     D5, [A0]
0000052A  E541                     asl        D1.w, 2
0000052C  9A41                     sub.w      D5, D1
0000052E  5945                     subq.w     D5, 4
00000530  48C5                     ext.l      D5
00000532  E441                     asr        D1.w, 2
label00000534:
00000534  2601                     move.l     D3, D1
label00000536:
00000536  201A                     move.l     D0, [A2]+
00000538  B19C                     xor.l      [A4]+, D0
0000053A  51CB FFFA                dbf        D3, -0x8 /* 00000536 */
0000053E  D9C5                     add.l      A4, D5
00000540  51CA FFF2                dbf        D2, -0x10 /* 00000534 */
00000544  4CDF 1C3F                movem.l    D0,D1,D2,D3,D4,D5,A2,A3,A4, [A7]+
00000548  4E75                     rts
label0000054A:
0000054A  48E7 FC38                movem.l    -[A7], D0,D1,D2,D3,D4,D5,A2,A3,A4
0000054E  45E9 000E                lea.l      A2, [A1 + 0xE]
00000552  C4E9 0008                mulu.w     D2, [A1 + 0x8]
00000556  D5C2                     add.l      A2, D2
00000558  E640                     asr        D0.w, 3
0000055A  0240 FFFE                andi.w     D0, 0xFFFE
0000055E  48C0                     ext.l      D0
00000560  2868 0006                movea.l    A4, [A0 + 0x6]
00000564  3801                     move.w     D4, D1
00000566  C8D0                     mulu.w     D4, [A0]
00000568  D9C4                     add.l      A4, D4
0000056A  D9C0                     add.l      A4, D0
0000056C  3229 0004                move.w     D1, [A1 + 0x4]
00000570  E241                     asr        D1.w, 1
00000572  5341                     subq.w     D1, 1
00000574  48C1                     ext.l      D1
00000576  3429 0006                move.w     D2, [A1 + 0x6]
0000057A  5342                     subq.w     D2, 1
0000057C  48C2                     ext.l      D2
0000057E  3A10                     move.w     D5, [A0]
00000580  E541                     asl        D1.w, 2
00000582  9A41                     sub.w      D5, D1
00000584  5945                     subq.w     D5, 4
00000586  48C5                     ext.l      D5
00000588  E441                     asr        D1.w, 2
label0000058A:
0000058A  2601                     move.l     D3, D1
label0000058C:
0000058C  28DA                     move.l     [A4]+, [A2]+
0000058E  51CB FFFC                dbf        D3, -0x6 /* 0000058C */
00000592  D9C5                     add.l      A4, D5
00000594  51CA FFF4                dbf        D2, -0xE /* 0000058A */
00000598  4CDF 1C3F                movem.l    D0,D1,D2,D3,D4,D5,A2,A3,A4, [A7]+
0000059C  4E75                     rts
fn0000059E:
0000059E  48E7 1830                movem.l    -[A7], D3,D4,A2,A3
000005A2  2069 000A                movea.l    A0, [A1 + 0xA]
label000005A6:
000005A6  2060                     movea.l    A0, -[A0]
000005A8  B0FC 0000                cmpa.w     A0, 0x0
000005AC  6742                     beq        +0x44 /* 000005F0 */
000005AE  2348 000A                move.l     [A1 + 0xA], A0
000005B2  2448                     movea.l    A2, A0
000005B4  301A                     move.w     D0, [A2]+
000005B6  321A                     move.w     D1, [A2]+
000005B8  241A                     move.l     D2, [A2]+
000005BA  261A                     move.l     D3, [A2]+
000005BC  2669 0002                movea.l    A3, [A1 + 0x2]
000005C0  D7C2                     add.l      A3, D2
000005C2  5340                     subq.w     D0, 1
000005C4  0800 0000                btst.b     D0, 0x0
000005C8  6714                     beq        +0x16 /* 000005DE */
000005CA  E240                     asr        D0.w, 1
label000005CC:
000005CC  3800                     move.w     D4, D0
label000005CE:
000005CE  26DA                     move.l     [A3]+, [A2]+
000005D0  51CC FFFC                dbf        D4, -0x6 /* 000005CE */
000005D4  36DA                     move.w     [A3]+, [A2]+
000005D6  D7C3                     add.l      A3, D3
000005D8  51C9 FFF2                dbf        D1, -0x10 /* 000005CC */
000005DC  60C8                     bra        -0x36 /* 000005A6 */
label000005DE:
000005DE  E240                     asr        D0.w, 1
label000005E0:
000005E0  3800                     move.w     D4, D0
label000005E2:
000005E2  26DA                     move.l     [A3]+, [A2]+
000005E4  51CC FFFC                dbf        D4, -0x6 /* 000005E2 */
000005E8  D7C3                     add.l      A3, D3
000005EA  51C9 FFF4                dbf        D1, -0xE /* 000005E0 */
000005EE  60B6                     bra        -0x48 /* 000005A6 */
label000005F0:
000005F0  4CDF 0C18                movem.l    D3,D4,A2,A3, [A7]+
000005F4  4E75                     rts
export_63:
000005F6  2F0D                     move.l     -[A7], A5
000005F8  2A78 0904                movea.l    A5, [0x00000904 /* CurrentA5 */]
000005FC  226D FF9C                movea.l    A1, [A5 - 0x64]
00000600  B2FC 0000                cmpa.w     A1, 0x0
00000604  6720                     beq        +0x22 /* 00000626 */
00000606  206D FFA0                movea.l    A0, [A5 - 0x60]
0000060A  317C 0005 000A           move.w     [A0 + 0xA], 0x5
00000610  202D FF96                move.l     D0, [A5 - 0x6A]
00000614  6704                     beq        +0x6 /* 0000061A */
00000616  2040                     movea.l    A0, D0
00000618  4E90                     jsr        [A0]
label0000061A:
0000061A  6182                     bsr        -0x7C /* 0000059E */
0000061C  42AD FF9C                clr.l      [A5 - 0x64]
00000620  51ED FF9B                sf         [A5 - 0x65]
00000624  600A                     bra        +0xC /* 00000630 */
label00000626:
00000626  206D FFA0                movea.l    A0, [A5 - 0x60]
0000062A  317C 0001 000A           move.w     [A0 + 0xA], 0x1
label00000630:
00000630  2A5F                     movea.l    A5, [A7]+
00000632  4E75                     rts
export_64:
00000634  2F0D                     move.l     -[A7], A5
00000636  2A78 0904                movea.l    A5, [0x00000904 /* CurrentA5 */]
0000063A  4A2D FF93                tst.b      [A5 - 0x6D]
0000063E  6606                     bne        +0x8 /* 00000646 */
00000640  4A2D FF9B                tst.b      [A5 - 0x65]
00000644  6742                     beq        +0x44 /* 00000688 */
label00000646:
00000646  2078 01D4                movea.l    A0, [0x000001D4 /* VIA */]
0000064A  D0FC 1E00                add.w      A0, 0x1E00
0000064E  202D FFA8                move.l     D0, [A5 - 0x58]
00000652  43ED FFEE                lea.l      A1, [A5 - 0x12]
00000656  B3C0                     cmpa.l     A1, D0
00000658  6612                     bne        +0x14 /* 0000066C */
0000065A  43ED FFDC                lea.l      A1, [A5 - 0x24]
0000065E  2B49 FFA8                move.l     [A5 - 0x58], A1
00000662  08D0 0006                bset.b     [A0], 0x6
00000666  2B49 FF9C                move.l     [A5 - 0x64], A1
0000066A  6010                     bra        +0x12 /* 0000067C */
label0000066C:
0000066C  43ED FFEE                lea.l      A1, [A5 - 0x12]
00000670  2B49 FFA8                move.l     [A5 - 0x58], A1
00000674  0890 0006                bclr.b     [A0], 0x6
00000678  2B49 FF9C                move.l     [A5 - 0x64], A1
label0000067C:
0000067C  206D FFA4                movea.l    A0, [A5 - 0x5C]
00000680  317C 0005 000A           move.w     [A0 + 0xA], 0x5
00000686  600E                     bra        +0x10 /* 00000696 */
label00000688:
00000688  206D FFA4                movea.l    A0, [A5 - 0x5C]
0000068C  317C 0001 000A           move.w     [A0 + 0xA], 0x1
00000692  526D FF94                addq.w     [A5 - 0x6C], 1
label00000696:
00000696  4CDF 2000                movem.l    A5, [A7]+
0000069A  4E75                     rts
export_65:
0000069C  2F0D                     move.l     -[A7], A5
0000069E  2A78 0904                movea.l    A5, [0x00000904 /* CurrentA5 */]
000006A2  4A2D FF93                tst.b      [A5 - 0x6D]
000006A6  6606                     bne        +0x8 /* 000006AE */
000006A8  4A2D FF9B                tst.b      [A5 - 0x65]
000006AC  6714                     beq        +0x16 /* 000006C2 */
label000006AE:
000006AE  226D FFA8                movea.l    A1, [A5 - 0x58]
000006B2  2B49 FF9C                move.l     [A5 - 0x64], A1
000006B6  226D FFA4                movea.l    A1, [A5 - 0x5C]
000006BA  337C 0005 000A           move.w     [A1 + 0xA], 0x5
000006C0  600E                     bra        +0x10 /* 000006D0 */
label000006C2:
000006C2  226D FFA4                movea.l    A1, [A5 - 0x5C]
000006C6  337C 0001 000A           move.w     [A1 + 0xA], 0x1
000006CC  526D FF94                addq.w     [A5 - 0x6C], 1
label000006D0:
000006D0  2A5F                     movea.l    A5, [A7]+
000006D2  4E75                     rts
export_66:
000006D4  2F0D                     move.l     -[A7], A5
000006D6  2A78 0904                movea.l    A5, [0x00000904 /* CurrentA5 */]
000006DA  4A2D FF9B                tst.b      [A5 - 0x65]
000006DE  6732                     beq        +0x34 /* 00000712 */
000006E0  202D FFA8                move.l     D0, [A5 - 0x58]
000006E4  43ED FFEE                lea.l      A1, [A5 - 0x12]
000006E8  B3C0                     cmpa.l     A1, D0
000006EA  660E                     bne        +0x10 /* 000006FA */
000006EC  43ED FFDC                lea.l      A1, [A5 - 0x24]
000006F0  2B49 FFA8                move.l     [A5 - 0x58], A1
000006F4  2B49 FF9C                move.l     [A5 - 0x64], A1
000006F8  600C                     bra        +0xE /* 00000706 */
label000006FA:
000006FA  43ED FFEE                lea.l      A1, [A5 - 0x12]
000006FE  2B49 FFA8                move.l     [A5 - 0x58], A1
00000702  2B49 FF9C                move.l     [A5 - 0x64], A1
label00000706:
00000706  206D FFA4                movea.l    A0, [A5 - 0x5C]
0000070A  317C 0005 000A           move.w     [A0 + 0xA], 0x5
00000710  600E                     bra        +0x10 /* 00000720 */
label00000712:
00000712  206D FFA4                movea.l    A0, [A5 - 0x5C]
00000716  317C 0001 000A           move.w     [A0 + 0xA], 0x1
0000071C  526D FF94                addq.w     [A5 - 0x6C], 1
label00000720:
00000720  4CDF 2000                movem.l    A5, [A7]+
00000724  4E75                     rts
export_67:
fn00000726:
00000726  50ED FF9B                st         [A5 - 0x65]
0000072A  4A2D FA89                tst.b      [A5 - 0x577]
0000072E  661A                     bne        +0x1C /* 0000074A */
00000730  426D FE7A                clr.w      [A5 - 0x186]
label00000734:
00000734  526D FE7A                addq.w     [A5 - 0x186], 1
00000738  303C 0005                move.w     D0, 0x5
label0000073C:
0000073C  4E71                     nop
0000073E  51C8 FFFC                dbf        D0, -0x6 /* 0000073C */
00000742  4A2D FF9B                tst.b      [A5 - 0x65]
00000746  66EC                     bne        -0x12 /* 00000734 */
00000748  6050                     bra        +0x52 /* 0000079A */
label0000074A:
0000074A  426D FE7A                clr.w      [A5 - 0x186]
label0000074E:
0000074E  526D FE7A                addq.w     [A5 - 0x186], 1
00000752  303C 0005                move.w     D0, 0x5
label00000756:
00000756  4E71                     nop
00000758  51C8 FFFC                dbf        D0, -0x6 /* 00000756 */
0000075C  226D FF9C                movea.l    A1, [A5 - 0x64]
00000760  B2FC 0000                cmpa.w     A1, 0x0
00000764  67E8                     beq        -0x16 /* 0000074E */
00000766  202D FFA8                move.l     D0, [A5 - 0x58]
0000076A  43ED FFEE                lea.l      A1, [A5 - 0x12]
0000076E  B3C0                     cmpa.l     A1, D0
00000770  6606                     bne        +0x8 /* 00000778 */
00000772  486D FFCE                pea.l      [A5 - 0x32]
00000776  6004                     bra        +0x6 /* 0000077C */
label00000778:
00000778  486D FFC0                pea.l      [A5 - 0x40]
label0000077C:
0000077C  4EAD 01BA                jsr        [A5 + 0x1BA /* export_51, CODE:1 @ 00001DB4 */]
00000780  226D FF9C                movea.l    A1, [A5 - 0x64]
00000784  202D FF96                move.l     D0, [A5 - 0x6A]
00000788  6704                     beq        +0x6 /* 0000078E */
0000078A  2040                     movea.l    A0, D0
0000078C  4E90                     jsr        [A0]
label0000078E:
0000078E  4EBA FE0E                jsr        [PC - 0x1F2 /* 0000059E */]
00000792  42AD FF9C                clr.l      [A5 - 0x64]
00000796  51ED FF9B                sf         [A5 - 0x65]
label0000079A:
0000079A  4E75                     rts
fn0000079C:
0000079C  2F03                     move.l     -[A7], D3
0000079E  3611                     move.w     D3, [A1]
000007A0  E543                     asl        D3.w, 2
000007A2  4EBB 3006                jsr        [PC + D3.w + 0x6]
000007A6  261F                     move.l     D3, [A7]+
000007A8  4E75                     rts
000007AA  4EFA F854                jmp        [PC - 0x7AC /* 00000000 */]
000007AE  4EFA FCF0                jmp        [PC - 0x310 /* 000004A0 */]
000007B2  4EFA FD96                jmp        [PC - 0x26A /* 0000054A */]
000007B6  4EFA FB68                jmp        [PC - 0x498 /* 00000320 */]
000007BA  4EFA FC1E                jmp        [PC - 0x3E2 /* 000003DA */]
export_68:
000007BE  21DF 0A80                move.l     [0x00000A80], [A7]+
000007C2  225F                     movea.l    A1, [A7]+
000007C4  205F                     movea.l    A0, [A7]+
000007C6  341F                     move.w     D2, [A7]+
000007C8  321F                     move.w     D1, [A7]+
000007CA  301F                     move.w     D0, [A7]+
000007CC  2F38 0A80                move.l     -[A7], [0x00000A80]
000007D0  48E7 1F38                movem.l    -[A7], D3,D4,D5,D6,D7,A2,A3,A4
000007D4  4EBA FFC6                jsr        [PC - 0x3A /* 0000079C */]
000007D8  4CDF 1CF8                movem.l    D3,D4,D5,D6,D7,A2,A3,A4, [A7]+
000007DC  4E75                     rts
export_69:
000007DE  4A2D FA89                tst.b      [A5 - 0x577]
000007E2  660C                     bne        +0xE /* 000007F0 */
000007E4  2078 01D4                movea.l    A0, [0x000001D4 /* VIA */]
000007E8  D0FC 1E00                add.w      A0, 0x1E00
000007EC  08D0 0006                bset.b     [A0], 0x6
label000007F0:
000007F0  4E75                     rts
export_70:
000007F2  4A2D FA89                tst.b      [A5 - 0x577]
000007F6  660C                     bne        +0xE /* 00000804 */
000007F8  2078 01D4                movea.l    A0, [0x000001D4 /* VIA */]
000007FC  D0FC 1E00                add.w      A0, 0x1E00
00000800  0890 0006                bclr.b     [A0], 0x6
label00000804:
00000804  4E75                     rts
export_71:
00000806  3C00                     move.w     D6, D0
00000808  3E01                     move.w     D7, D1
0000080A  7022                     moveq.l    D0, 0x22
0000080C  A31E                     syscall    NewPtrClear, flags=3
0000080E  43FA 0068                lea.l      A1, [PC + 0x68 /* 00000878, value 0x3016322E */]
00000812  2149 0004                move.l     [A0 + 0x4], A1
00000816  3146 0008                move.w     [A0 + 0x8], D6
0000081A  0647 001E                addi.w     D7, 0x1E
0000081E  3147 000A                move.w     [A0 + 0xA], D7
00000822  4268 000C                clr.w      [A0 + 0xC]
00000826  4268 000E                clr.w      [A0 + 0xE]
0000082A  3142 0012                move.w     [A0 + 0x12], D2
0000082E  3143 0010                move.w     [A0 + 0x10], D3
00000832  4268 0014                clr.w      [A0 + 0x14]
00000836  4268 0016                clr.w      [A0 + 0x16]
0000083A  3147 0018                move.w     [A0 + 0x18], D7
0000083E  3146 001A                move.w     [A0 + 0x1A], D6
00000842  3147 001C                move.w     [A0 + 0x1C], D7
00000846  0646 0012                addi.w     D6, 0x12
0000084A  3146 001E                move.w     [A0 + 0x1E], D6
0000084E  3147 0020                move.w     [A0 + 0x20], D7
00000852  20AD FE7E                move.l     [A0], [A5 - 0x182]
00000856  2B48 FE7E                move.l     [A5 - 0x182], A0
0000085A  41E8 001A                lea.l      A0, [A0 + 0x1A]
0000085E  2E3C 0300 0000           move.l     D7, 0x3000000
00000864  4EBA 50E4                jsr        [PC + 0x50E4 /* 0000594A */]
00000868  41E8 001E                lea.l      A0, [A0 + 0x1E]
0000086C  2E3C 0300 0000           move.l     D7, 0x3000000
00000872  4EBA 50D6                jsr        [PC + 0x50D6 /* 0000594A */]
00000876  4E75                     rts
00000878  3016                     move.w     D0, [A6]
0000087A  322E 0002                move.w     D1, [A6 + 0x2]
0000087E  0441 0021                subi.w     D1, 0x21 /* '!' */
00000882  362E 000C                move.w     D3, [A6 + 0xC]
00000886  E543                     asl        D3.w, 2
00000888  4EFB 3002                jmp        [PC + D3.w + 0x2]
0000088C  4EFA 001A                jmp        [PC + 0x1A /* 000008A8 */]
00000890  4EFA 0046                jmp        [PC + 0x46 /* 000008D8 */]
00000894  4EFA 0122                jmp        [PC + 0x122 /* 000009B8 */]
00000898  4EFA 014E                jmp        [PC + 0x14E /* 000009E8 */]
0000089C  4EFA 01B8                jmp        [PC + 0x1B8 /* 00000A56 */]
000008A0  4EFA 0066                jmp        [PC + 0x66 /* 00000908 */]
000008A4  4EFA 009A                jmp        [PC + 0x9A /* 00000940 */]
label000008A8:
000008A8  536E 0006                subq.w     [A6 + 0x6], 1
000008AC  6E00 0290                bgt        +0x292 /* 00000B3E */
000008B0  3D7C 0004 000C           move.w     [A6 + 0xC], 0x4
000008B6  426E 0004                clr.w      [A6 + 0x4]
000008BA  3D6E 0016 000E           move.w     [A6 + 0xE], [A6 + 0x16]
000008C0  3D6E 0002 0010           move.w     [A6 + 0x10], [A6 + 0x2]
000008C6  41EE 000E                lea.l      A0, [A6 + 0xE]
000008CA  2E3C 0100 0000           move.l     D7, 0x1000000
000008D0  4EBA 5078                jsr        [PC + 0x5078 /* 0000594A */]
000008D4  6000 0268                bra        +0x26A /* 00000B3E */
label000008D8:
000008D8  536E 0006                subq.w     [A6 + 0x6], 1
000008DC  6E00 0260                bgt        +0x262 /* 00000B3E */
000008E0  3D7C 0003 000C           move.w     [A6 + 0xC], 0x3
000008E6  426E 0004                clr.w      [A6 + 0x4]
000008EA  3D6E 0012 000E           move.w     [A6 + 0xE], [A6 + 0x12]
000008F0  3D6E 0002 0010           move.w     [A6 + 0x10], [A6 + 0x2]
000008F6  41EE 000E                lea.l      A0, [A6 + 0xE]
000008FA  2E3C 0100 0000           move.l     D7, 0x1000000
00000900  4EBA 5048                jsr        [PC + 0x5048 /* 0000594A */]
00000904  6000 0238                bra        +0x23A /* 00000B3E */
label00000908:
00000908  226D FDF8                movea.l    A1, [A5 - 0x208]
0000090C  206D FFA8                movea.l    A0, [A5 - 0x58]
00000910  342E 0004                move.w     D2, [A6 + 0x4]
00000914  0440 001A                subi.w     D0, 0x1A
00000918  0641 0010                addi.w     D1, 0x10
0000091C  E442                     asr        D2.w, 2
0000091E  4EBA F6E0                jsr        [PC - 0x920 /* 00000000 */]
00000922  526E 0004                addq.w     [A6 + 0x4], 1
00000926  0C6E 0008 0004           cmpi.w     [A6 + 0x4], 0x8
0000092C  6D00 02D8                blt        +0x2DA /* 00000C06 */
00000930  3D7C 0002 000C           move.w     [A6 + 0xC], 0x2
00000936  3D7C 005A 0006           move.w     [A6 + 0x6], 0x5A /* 'Z' */
0000093C  6000 02C8                bra        +0x2CA /* 00000C06 */
label00000940:
00000940  226D FDF8                movea.l    A1, [A5 - 0x208]
00000944  206D FFA8                movea.l    A0, [A5 - 0x58]
00000948  342E 0004                move.w     D2, [A6 + 0x4]
0000094C  0440 001A                subi.w     D0, 0x1A
00000950  0641 0010                addi.w     D1, 0x10
00000954  E442                     asr        D2.w, 2
00000956  4EBA F6A8                jsr        [PC - 0x958 /* 00000000 */]
0000095A  526E 0004                addq.w     [A6 + 0x4], 1
0000095E  0C6E 0014 0004           cmpi.w     [A6 + 0x4], 0x14
00000964  6D00 02A0                blt        +0x2A2 /* 00000C06 */
00000968  41EE 0012                lea.l      A0, [A6 + 0x12]
0000096C  2E3C 0300 0000           move.l     D7, 0x3000000
00000972  4EBA 4FD6                jsr        [PC + 0x4FD6 /* 0000594A */]
00000976  41EE 0016                lea.l      A0, [A6 + 0x16]
0000097A  2E3C 0300 0000           move.l     D7, 0x3000000
00000980  4EBA 4FC8                jsr        [PC + 0x4FC8 /* 0000594A */]
00000984  3D7C 0002 0006           move.w     [A6 + 0x6], 0x2
0000098A  3C01                     move.w     D6, D1
0000098C  0646 0014                addi.w     D6, 0x14
00000990  EA46                     asr        D6.w, 5
00000992  286D FF7A                movea.l    A4, [A5 - 0x86]
00000996  3E2C 0016                move.w     D7, [A4 + 0x16]
0000099A  EA47                     asr        D7.w, 5
0000099C  BC47                     cmp.w      D6, D7
0000099E  6610                     bne        +0x12 /* 000009B0 */
000009A0  B06C 0014                cmp.w      D0, [A4 + 0x14]
000009A4  6D0A                     blt        +0xC /* 000009B0 */
000009A6  3D7C 0001 000C           move.w     [A6 + 0xC], 0x1
000009AC  6000 0258                bra        +0x25A /* 00000C06 */
label000009B0:
000009B0  426E 000C                clr.w      [A6 + 0xC]
000009B4  6000 0250                bra        +0x252 /* 00000C06 */
label000009B8:
000009B8  226D FDF8                movea.l    A1, [A5 - 0x208]
000009BC  206D FFA8                movea.l    A0, [A5 - 0x58]
000009C0  343C 0002                move.w     D2, 0x2
000009C4  0440 001A                subi.w     D0, 0x1A
000009C8  0641 0010                addi.w     D1, 0x10
000009CC  4EBA F632                jsr        [PC - 0x9CE /* 00000000 */]
000009D0  536E 0006                subq.w     [A6 + 0x6], 1
000009D4  6E00 0230                bgt        +0x232 /* 00000C06 */
000009D8  3D7C 0006 000C           move.w     [A6 + 0xC], 0x6
000009DE  3D7C 000C 0004           move.w     [A6 + 0x4], 0xC
000009E4  6000 0220                bra        +0x222 /* 00000C06 */
label000009E8:
000009E8  49FA 021E                lea.l      A4, [PC + 0x21E /* 00000C08, value 0x0, cstring "" */]
000009EC  D8EE 0004                add.w      A4, [A6 + 0x4]
000009F0  1414                     move.b     D2, [A4]
000009F2  4882                     ext.w      D2
000009F4  6C20                     bge        +0x22 /* 00000A16 */
000009F6  0C42 FFFF                cmpi.w     D2, 0xFFFF
000009FA  6700 00F0                beq        +0xF2 /* 00000AEC */
000009FE  4442                     neg.w      D2
00000A00  0C42 002C                cmpi.w     D2, 0x2C /* ',' */
00000A04  6610                     bne        +0x12 /* 00000A16 */
00000A06  3F00                     move.w     -[A7], D0
00000A08  303C 0041                move.w     D0, 0x41 /* 'A' */
00000A0C  4EAD 0052                jsr        [A5 + 0x52 /* export_6, CODE:1 @ 00000114 */]
00000A10  301F                     move.w     D0, [A7]+
00000A12  343C 0004                move.w     D2, 0x4
label00000A16:
00000A16  526E 0004                addq.w     [A6 + 0x4], 1
00000A1A  183B 2034                move.b     D4, [PC + D2.w + 0x34]
00000A1E  4884                     ext.w      D4
00000A20  D044                     add.w      D0, D4
00000A22  226D FE00                movea.l    A1, [A5 - 0x200]
00000A26  206D FFA8                movea.l    A0, [A5 - 0x58]
00000A2A  4EBA F5D4                jsr        [PC - 0xA2C /* 00000000 */]
00000A2E  0C2C 0003 0001           cmpi.b     [A4 + 0x1], 0x3
00000A34  6608                     bne        +0xA /* 00000A3E */
00000A36  3D6E 0012 000E           move.w     [A6 + 0xE], [A6 + 0x12]
00000A3C  600E                     bra        +0x10 /* 00000A4C */
label00000A3E:
00000A3E  0C2C 0004 0001           cmpi.b     [A4 + 0x1], 0x4
00000A44  6606                     bne        +0x8 /* 00000A4C */
00000A46  046E 0015 000E           subi.w     [A6 + 0xE], 0x15
label00000A4C:
00000A4C  6000 0106                bra        +0x108 /* 00000B54 */
00000A50  C3C2                     muls.w     D1, D2
00000A52  CCD6                     mulu.w     D6, [A6]
00000A54  C200                     and.b      D1, D0
label00000A56:
00000A56  49FA 01B0                lea.l      A4, [PC + 0x1B0 /* 00000C08, value 0x0, cstring "" */]
00000A5A  D8EE 0004                add.w      A4, [A6 + 0x4]
00000A5E  1414                     move.b     D2, [A4]
00000A60  4882                     ext.w      D2
00000A62  6C2E                     bge        +0x30 /* 00000A92 */
00000A64  0C42 FFFF                cmpi.w     D2, 0xFFFF
00000A68  6700 0082                beq        +0x84 /* 00000AEC */
00000A6C  4442                     neg.w      D2
00000A6E  0C42 002C                cmpi.w     D2, 0x2C /* ',' */
00000A72  6612                     bne        +0x14 /* 00000A86 */
00000A74  3F00                     move.w     -[A7], D0
00000A76  303C 0041                move.w     D0, 0x41 /* 'A' */
00000A7A  4EAD 0052                jsr        [A5 + 0x52 /* export_6, CODE:1 @ 00000114 */]
00000A7E  301F                     move.w     D0, [A7]+
00000A80  343C 0004                move.w     D2, 0x4
00000A84  600C                     bra        +0xE /* 00000A92 */
label00000A86:
00000A86  3F00                     move.w     -[A7], D0
00000A88  303C 002F                move.w     D0, 0x2F /* '/' */
00000A8C  4EAD 0052                jsr        [A5 + 0x52 /* export_6, CODE:1 @ 00000114 */]
00000A90  301F                     move.w     D0, [A7]+
label00000A92:
00000A92  526E 0004                addq.w     [A6 + 0x4], 1
00000A96  0C42 0004                cmpi.w     D2, 0x4
00000A9A  660E                     bne        +0x10 /* 00000AAA */
00000A9C  48E7 E0C0                movem.l    -[A7], D0,D1,D2,A0,A1
00000AA0  4242                     clr.w      D2
00000AA2  4EBA 51A4                jsr        [PC + 0x51A4 /* 00005C48 */]
00000AA6  4CDF 0307                movem.l    D0,D1,D2,A0,A1, [A7]+
label00000AAA:
00000AAA  183B 2034                move.b     D4, [PC + D2.w + 0x34]
00000AAE  4884                     ext.w      D4
00000AB0  D044                     add.w      D0, D4
00000AB2  226D FE04                movea.l    A1, [A5 - 0x1FC]
00000AB6  206D FFA8                movea.l    A0, [A5 - 0x58]
00000ABA  4EBA F544                jsr        [PC - 0xABC /* 00000000 */]
00000ABE  0C2C 0003 0001           cmpi.b     [A4 + 0x1], 0x3
00000AC4  6608                     bne        +0xA /* 00000ACE */
00000AC6  3D6E 0016 000E           move.w     [A6 + 0xE], [A6 + 0x16]
00000ACC  600E                     bra        +0x10 /* 00000ADC */
label00000ACE:
00000ACE  0C2C 0004 0001           cmpi.b     [A4 + 0x1], 0x4
00000AD4  6606                     bne        +0x8 /* 00000ADC */
00000AD6  066E 0014 000E           addi.w     [A6 + 0xE], 0x14
label00000ADC:
00000ADC  6000 0076                bra        +0x78 /* 00000B54 */
00000AE0  FDFE                     .invalid   <<F/7/6>>
00000AE2  F4EA                     cpushl     DATA+INST, [A2]
00000AE4  FE00 0B19                .unknown   0xFE00 0x0B19 (W = 7)
00000AE8  1C2B 4B00                move.b     D6, [A3 + 0x4B00]
label00000AEC:
00000AEC  4EBA 517A                jsr        [PC + 0x517A /* 00005C68 */]
00000AF0  3600                     move.w     D3, D0
00000AF2  C66E 000A                and.w      D3, [A6 + 0xA]
00000AF6  D66E 0008                add.w      D3, [A6 + 0x8]
00000AFA  3D43 0006                move.w     [A6 + 0x6], D3
00000AFE  41EE 000E                lea.l      A0, [A6 + 0xE]
00000B02  4EBA 4E78                jsr        [PC + 0x4E78 /* 0000597C */]
00000B06  3016                     move.w     D0, [A6]
00000B08  322E 0002                move.w     D1, [A6 + 0x2]
00000B0C  0441 0021                subi.w     D1, 0x21 /* '!' */
00000B10  3C01                     move.w     D6, D1
00000B12  0646 0014                addi.w     D6, 0x14
00000B16  EA46                     asr        D6.w, 5
00000B18  286D FF7A                movea.l    A4, [A5 - 0x86]
00000B1C  3E2C 0016                move.w     D7, [A4 + 0x16]
00000B20  EA47                     asr        D7.w, 5
00000B22  BC47                     cmp.w      D6, D7
00000B24  6610                     bne        +0x12 /* 00000B36 */
00000B26  B06C 0014                cmp.w      D0, [A4 + 0x14]
00000B2A  6D0A                     blt        +0xC /* 00000B36 */
00000B2C  3D7C 0001 000C           move.w     [A6 + 0xC], 0x1
00000B32  6000 000A                bra        +0xC /* 00000B3E */
label00000B36:
00000B36  426E 000C                clr.w      [A6 + 0xC]
00000B3A  6000 0002                bra        +0x4 /* 00000B3E */
label00000B3E:
00000B3E  0440 001A                subi.w     D0, 0x1A
00000B42  0641 0010                addi.w     D1, 0x10
00000B46  4242                     clr.w      D2
00000B48  206D FFA8                movea.l    A0, [A5 - 0x58]
00000B4C  226D FDFC                movea.l    A1, [A5 - 0x204]
00000B50  4EBA F4AE                jsr        [PC - 0xB52 /* 00000000 */]
label00000B54:
00000B54  3016                     move.w     D0, [A6]
00000B56  322E 0002                move.w     D1, [A6 + 0x2]
00000B5A  0441 0021                subi.w     D1, 0x21 /* '!' */
00000B5E  226D FDFC                movea.l    A1, [A5 - 0x204]
00000B62  41ED FE6C                lea.l      A0, [A5 - 0x194]
00000B66  4EBA 4D68                jsr        [PC + 0x4D68 /* 000058D0 */]
00000B6A  6734                     beq        +0x36 /* 00000BA0 */
00000B6C  3F00                     move.w     -[A7], D0
00000B6E  303C 0038                move.w     D0, 0x38 /* '8' */
00000B72  4EAD 0052                jsr        [A5 + 0x52 /* export_6, CODE:1 @ 00000114 */]
00000B76  301F                     move.w     D0, [A7]+
00000B78  2E28 0010                move.l     D7, [A0 + 0x10]
00000B7C  4487                     neg.l      D7
00000B7E  E487                     asr        D7, 2
00000B80  2147 0010                move.l     [A0 + 0x10], D7
00000B84  2E28 0014                move.l     D7, [A0 + 0x14]
00000B88  4487                     neg.l      D7
00000B8A  E487                     asr        D7, 2
00000B8C  0687 0000 0000           addi.l     D7, 0x0
00000B92  2147 0014                move.l     [A0 + 0x14], D7
00000B96  2E28 001E                move.l     D7, [A0 + 0x1E]
00000B9A  E387                     asl        D7, 1
00000B9C  2147 001E                move.l     [A0 + 0x1E], D7
label00000BA0:
00000BA0  4A6D FD8C                tst.w      [A5 - 0x274]
00000BA4  6760                     beq        +0x62 /* 00000C06 */
00000BA6  426D FD8C                clr.w      [A5 - 0x274]
00000BAA  6024                     bra        +0x26 /* 00000BD0 */
00000BAC  082D 0000 FD8A           btst.b     [A5 - 0x276], 0x0
00000BB2  6752                     beq        +0x54 /* 00000C06 */
00000BB4  3016                     move.w     D0, [A6]
00000BB6  322E 0002                move.w     D1, [A6 + 0x2]
00000BBA  0441 0021                subi.w     D1, 0x21 /* '!' */
00000BBE  226D FDFC                movea.l    A1, [A5 - 0x204]
00000BC2  41ED FE6C                lea.l      A0, [A5 - 0x194]
00000BC6  4EBA 4D08                jsr        [PC + 0x4D08 /* 000058D0 */]
00000BCA  673A                     beq        +0x3C /* 00000C06 */
00000BCC  42A8 0008                clr.l      [A0 + 0x8]
label00000BD0:
00000BD0  426E 0004                clr.w      [A6 + 0x4]
00000BD4  3D7C 0005 000C           move.w     [A6 + 0xC], 0x5
00000BDA  41EE 0012                lea.l      A0, [A6 + 0x12]
00000BDE  4EBA 4D9C                jsr        [PC + 0x4D9C /* 0000597C */]
00000BE2  41EE 0016                lea.l      A0, [A6 + 0x16]
00000BE6  4EBA 4D94                jsr        [PC + 0x4D94 /* 0000597C */]
00000BEA  41EE 000E                lea.l      A0, [A6 + 0xE]
00000BEE  4EBA 4D8C                jsr        [PC + 0x4D8C /* 0000597C */]
00000BF2  303C 0002                move.w     D0, 0x2
00000BF6  4EBA 501C                jsr        [PC + 0x501C /* 00005C14 */]
00000BFA  3F00                     move.w     -[A7], D0
00000BFC  303C 0039                move.w     D0, 0x39 /* '9' */
00000C00  4EAD 0052                jsr        [A5 + 0x52 /* export_6, CODE:1 @ 00000114 */]
00000C04  301F                     move.w     D0, [A7]+
label00000C06:
00000C06  4E75                     rts
00000C08  0000 0000                ori.b      D0, 0x0
00000C0C  0101                     btst       D1, D0
00000C0E  0101                     btst       D1, D0
00000C10  0101                     btst       D1, D0
00000C12  0101                     btst       D1, D0
00000C14  0102                     btst       D2, D0
00000C16  0202 0202                andi.b     D2, 0x2
00000C1A  0303                     btst       D3, D1
00000C1C  03D4                     .incomplete
00000C1E  04FC                     .incomplete
00000C20  0303                     btst       D3, D1
00000C22  0301                     btst       D1, D1
00000C24  0102                     btst       D2, D0
00000C26  0202 0303                andi.b     D2, 0x3
00000C2A  03D4                     .incomplete
00000C2C  04FC                     .incomplete
00000C2E  0303                     btst       D3, D1
00000C30  0303                     btst       D3, D1
00000C32  0101                     btst       D1, D0
00000C34  0101                     btst       D1, D0
00000C36  0101                     btst       D1, D0
00000C38  0101                     btst       D1, D0
00000C3A  FF00                     .extension 0xF00 <<F/4-5/7>> // unimplemented
00000C3C  536E 000E                subq.w     [A6 + 0xE], 1
00000C40  6E0E                     bgt        +0x10 /* 00000C50 */
00000C42  4EBA 5024                jsr        [PC + 0x5024 /* 00005C68 */]
00000C46  3600                     move.w     D3, D0
00000C48  3D7C 000A 000E           move.w     [A6 + 0xE], 0xA /* '\n' */
00000C4E  6004                     bra        +0x6 /* 00000C54 */
label00000C50:
00000C50  363C 7FFF                move.w     D3, 0x7FFF
label00000C54:
00000C54  3016                     move.w     D0, [A6]
00000C56  0440 000A                subi.w     D0, 0xA /* '\n' */
00000C5A  322E 0002                move.w     D1, [A6 + 0x2]
00000C5E  342E 000A                move.w     D2, [A6 + 0xA]
00000C62  6C74                     bge        +0x76 /* 00000CD8 */
00000C64  5242                     addq.w     D2, 1
00000C66  3D42 000A                move.w     [A6 + 0xA], D2
00000C6A  4442                     neg.w      D2
00000C6C  082D 0000 FD8A           btst.b     [A5 - 0x276], 0x0
00000C72  671E                     beq        +0x20 /* 00000C92 */
00000C74  0C42 0014                cmpi.w     D2, 0x14
00000C78  671E                     beq        +0x20 /* 00000C98 */
00000C7A  4A42                     tst.w      D2
00000C7C  6E24                     bgt        +0x26 /* 00000CA2 */
00000C7E  42AE FFFC                clr.l      [A6 - 0x4]
00000C82  206E 0012                movea.l    A0, [A6 + 0x12]
00000C86  B0FC 0000                cmpa.w     A0, 0x0
00000C8A  6716                     beq        +0x18 /* 00000CA2 */
00000C8C  5268 0010                addq.w     [A0 + 0x10], 1
00000C90  6010                     bra        +0x12 /* 00000CA2 */
label00000C92:
00000C92  B46E 0016                cmp.w      D2, [A6 + 0x16]
00000C96  6604                     bne        +0x6 /* 00000C9C */
label00000C98:
00000C98  4242                     clr.w      D2
00000C9A  601C                     bra        +0x1E /* 00000CB8 */
label00000C9C:
00000C9C  0C42 0000                cmpi.w     D2, 0x0
00000CA0  6706                     beq        +0x8 /* 00000CA8 */
label00000CA2:
00000CA2  343C 0001                move.w     D2, 0x1
00000CA6  6010                     bra        +0x12 /* 00000CB8 */
label00000CA8:
00000CA8  343C 0002                move.w     D2, 0x2
00000CAC  41D6                     lea.l      A0, [A6]
00000CAE  2E3C 0200 0000           move.l     D7, 0x2000000
00000CB4  4EBA 4C94                jsr        [PC + 0x4C94 /* 0000594A */]
label00000CB8:
00000CB8  206D FFA8                movea.l    A0, [A5 - 0x58]
00000CBC  4A6E 0004                tst.w      [A6 + 0x4]
00000CC0  6E06                     bgt        +0x8 /* 00000CC8 */
00000CC2  226D FE28                movea.l    A1, [A5 - 0x1D8]
00000CC6  6004                     bra        +0x6 /* 00000CCC */
label00000CC8:
00000CC8  226D FE24                movea.l    A1, [A5 - 0x1DC]
label00000CCC:
00000CCC  0441 0018                subi.w     D1, 0x18
00000CD0  4EBA F32E                jsr        [PC - 0xCD2 /* 00000000 */]
00000CD4  6000 019C                bra        +0x19E /* 00000E72 */
label00000CD8:
00000CD8  0C43 03E8                cmpi.w     D3, 0x3E8
00000CDC  6348                     bls        +0x4A /* 00000D26 */
00000CDE  D06E 0004                add.w      D0, [A6 + 0x4]
00000CE2  B06E 0006                cmp.w      D0, [A6 + 0x6]
00000CE6  6E1C                     bgt        +0x1E /* 00000D04 */
00000CE8  4A6E 0004                tst.w      [A6 + 0x4]
00000CEC  6E0C                     bgt        +0xE /* 00000CFA */
00000CEE  3F00                     move.w     -[A7], D0
00000CF0  303C 0042                move.w     D0, 0x42 /* 'B' */
00000CF4  4EAD 0052                jsr        [A5 + 0x52 /* export_6, CODE:1 @ 00000114 */]
00000CF8  301F                     move.w     D0, [A7]+
label00000CFA:
00000CFA  3D7C 0004 0004           move.w     [A6 + 0x4], 0x4
00000D00  6000 00CE                bra        +0xD0 /* 00000DD0 */
label00000D04:
00000D04  B06E 0008                cmp.w      D0, [A6 + 0x8]
00000D08  6D30                     blt        +0x32 /* 00000D3A */
00000D0A  4A6E 0004                tst.w      [A6 + 0x4]
00000D0E  6D0C                     blt        +0xE /* 00000D1C */
00000D10  3F00                     move.w     -[A7], D0
00000D12  303C 0042                move.w     D0, 0x42 /* 'B' */
00000D16  4EAD 0052                jsr        [A5 + 0x52 /* export_6, CODE:1 @ 00000114 */]
00000D1A  301F                     move.w     D0, [A7]+
label00000D1C:
00000D1C  3D7C FFFC 0004           move.w     [A6 + 0x4], 0xFFFC
00000D22  6000 00AC                bra        +0xAE /* 00000DD0 */
label00000D26:
00000D26  446E 0004                neg.w      [A6 + 0x4]
00000D2A  3F00                     move.w     -[A7], D0
00000D2C  303C 0042                move.w     D0, 0x42 /* 'B' */
00000D30  4EAD 0052                jsr        [A5 + 0x52 /* export_6, CODE:1 @ 00000114 */]
00000D34  301F                     move.w     D0, [A7]+
00000D36  6000 0098                bra        +0x9A /* 00000DD0 */
label00000D3A:
00000D3A  536E 0010                subq.w     [A6 + 0x10], 1
00000D3E  6E00 0090                bgt        +0x92 /* 00000DD0 */
00000D42  B66E 000C                cmp.w      D3, [A6 + 0xC]
00000D46  6200 0088                bhi        +0x8A /* 00000DD0 */
00000D4A  286D FF7A                movea.l    A4, [A5 - 0x86]
00000D4E  3801                     move.w     D4, D1
00000D50  0644 FFFA                addi.w     D4, 0xFFFA
00000D54  EA44                     asr        D4.w, 5
00000D56  3A2C 0016                move.w     D5, [A4 + 0x16]
00000D5A  0645 0010                addi.w     D5, 0x10
00000D5E  EA45                     asr        D5.w, 5
00000D60  BA44                     cmp.w      D5, D4
00000D62  6600 006C                bne        +0x6E /* 00000DD0 */
00000D66  4A6E 0004                tst.w      [A6 + 0x4]
00000D6A  6D0A                     blt        +0xC /* 00000D76 */
00000D6C  B06C 0014                cmp.w      D0, [A4 + 0x14]
00000D70  6E00 005E                bgt        +0x60 /* 00000DD0 */
00000D74  6008                     bra        +0xA /* 00000D7E */
label00000D76:
00000D76  B06C 0014                cmp.w      D0, [A4 + 0x14]
00000D7A  6D00 0054                blt        +0x56 /* 00000DD0 */
label00000D7E:
00000D7E  48E7 E000                movem.l    -[A7], D0,D1,D2
00000D82  0441 000A                subi.w     D1, 0xA /* '\n' */
00000D86  263C FFFD 8000           move.l     D3, 0xFFFD8000
00000D8C  43ED FE64                lea.l      A1, [A5 - 0x19C]
00000D90  4A6E 0004                tst.w      [A6 + 0x4]
00000D94  6E0E                     bgt        +0x10 /* 00000DA4 */
00000D96  243C FFF0 0000           move.l     D2, 0xFFF00000
00000D9C  5B40                     subq.w     D0, 5
00000D9E  206D FE20                movea.l    A0, [A5 - 0x1E0]
00000DA2  600C                     bra        +0xE /* 00000DB0 */
label00000DA4:
00000DA4  243C 0010 0000           move.l     D2, 0x100000
00000DAA  5A40                     addq.w     D0, 5
00000DAC  206D FE1C                movea.l    A0, [A5 - 0x1E4]
label00000DB0:
00000DB0  283C 0000 4000           move.l     D4, 0x4000 /* '@\0' */
00000DB6  4EAD 01EA                jsr        [A5 + 0x1EA /* export_57, CODE:2 @ 000032EE */]
00000DBA  3F00                     move.w     -[A7], D0
00000DBC  303C 003A                move.w     D0, 0x3A /* ':' */
00000DC0  4EAD 0052                jsr        [A5 + 0x52 /* export_6, CODE:1 @ 00000114 */]
00000DC4  301F                     move.w     D0, [A7]+
00000DC6  3D7C 0028 0010           move.w     [A6 + 0x10], 0x28 /* '(' */
00000DCC  4CDF 0007                movem.l    D0,D1,D2, [A7]+
label00000DD0:
00000DD0  4A6E 0004                tst.w      [A6 + 0x4]
00000DD4  6E10                     bgt        +0x12 /* 00000DE6 */
00000DD6  43ED FE38                lea.l      A1, [A5 - 0x1C8]
00000DDA  5342                     subq.w     D2, 1
00000DDC  6C16                     bge        +0x18 /* 00000DF4 */
00000DDE  343C 0002                move.w     D2, 0x2
00000DE2  5342                     subq.w     D2, 1
00000DE4  600E                     bra        +0x10 /* 00000DF4 */
label00000DE6:
00000DE6  43ED FE34                lea.l      A1, [A5 - 0x1CC]
00000DEA  5342                     subq.w     D2, 1
00000DEC  6C06                     bge        +0x8 /* 00000DF4 */
00000DEE  343C 0002                move.w     D2, 0x2
00000DF2  5342                     subq.w     D2, 1
label00000DF4:
00000DF4  286D FF7A                movea.l    A4, [A5 - 0x86]
00000DF8  3801                     move.w     D4, D1
00000DFA  0644 FFFA                addi.w     D4, 0xFFFA
00000DFE  EA44                     asr        D4.w, 5
00000E00  3A2C 0016                move.w     D5, [A4 + 0x16]
00000E04  0645 0010                addi.w     D5, 0x10
00000E08  EA45                     asr        D5.w, 5
00000E0A  BA44                     cmp.w      D5, D4
00000E0C  6602                     bne        +0x4 /* 00000E10 */
00000E0E  5189                     subq.l     A1, 8
label00000E10:
00000E10  2251                     movea.l    A1, [A1]
00000E12  206D FFA8                movea.l    A0, [A5 - 0x58]
00000E16  0640 000A                addi.w     D0, 0xA /* '\n' */
00000E1A  3C80                     move.w     [A6], D0
00000E1C  0440 000A                subi.w     D0, 0xA /* '\n' */
00000E20  3D42 000A                move.w     [A6 + 0xA], D2
00000E24  0441 0018                subi.w     D1, 0x18
00000E28  4EBA F1D6                jsr        [PC - 0xE2A /* 00000000 */]
00000E2C  41ED FE6C                lea.l      A0, [A5 - 0x194]
00000E30  4EBA 4A9E                jsr        [PC + 0x4A9E /* 000058D0 */]
00000E34  673C                     beq        +0x3E /* 00000E72 */
00000E36  42A8 0008                clr.l      [A0 + 0x8]
00000E3A  082D 0000 FD8A           btst.b     [A5 - 0x276], 0x0
00000E40  6608                     bne        +0xA /* 00000E4A */
00000E42  3D6E 0016 000A           move.w     [A6 + 0xA], [A6 + 0x16]
00000E48  6006                     bra        +0x8 /* 00000E50 */
label00000E4A:
00000E4A  3D7C 0014 000A           move.w     [A6 + 0xA], 0x14
label00000E50:
00000E50  526E 000A                addq.w     [A6 + 0xA], 1
00000E54  446E 000A                neg.w      [A6 + 0xA]
00000E58  3F00                     move.w     -[A7], D0
00000E5A  303C 0052                move.w     D0, 0x52 /* 'R' */
00000E5E  4EAD 0052                jsr        [A5 + 0x52 /* export_6, CODE:1 @ 00000114 */]
00000E62  301F                     move.w     D0, [A7]+
00000E64  41D6                     lea.l      A0, [A6]
00000E66  4EBA 4B14                jsr        [PC + 0x4B14 /* 0000597C */]
00000E6A  303C 0004                move.w     D0, 0x4
00000E6E  4EBA 4DA4                jsr        [PC + 0x4DA4 /* 00005C14 */]
label00000E72:
00000E72  4E75                     rts
export_73:
00000E74  3E00                     move.w     D7, D0
00000E76  7020                     moveq.l    D0, 0x20
00000E78  A31E                     syscall    NewPtrClear, flags=3
00000E7A  43FA FDC0                lea.l      A1, [PC - 0x240 /* 00000C3C, value 0x536E000E, cstring "Sn" */]
00000E7E  2149 0004                move.l     [A0 + 0x4], A1
00000E82  0647 000A                addi.w     D7, 0xA /* '\n' */
00000E86  3147 0008                move.w     [A0 + 0x8], D7
00000E8A  0641 0010                addi.w     D1, 0x10
00000E8E  3141 000A                move.w     [A0 + 0xA], D1
00000E92  3144 000C                move.w     [A0 + 0xC], D4
00000E96  3142 000E                move.w     [A0 + 0xE], D2
00000E9A  3143 0010                move.w     [A0 + 0x10], D3
00000E9E  3146 0014                move.w     [A0 + 0x14], D6
00000EA2  4268 0016                clr.w      [A0 + 0x16]
00000EA6  4268 0018                clr.w      [A0 + 0x18]
00000EAA  4268 0012                clr.w      [A0 + 0x12]
00000EAE  42A8 001A                clr.l      [A0 + 0x1A]
00000EB2  3145 001E                move.w     [A0 + 0x1E], D5
00000EB6  20AD FE7E                move.l     [A0], [A5 - 0x182]
00000EBA  2B48 FE7E                move.l     [A5 - 0x182], A0
00000EBE  4E75                     rts
export_72:
00000EC0  3840                     movea.w    A4, D0
00000EC2  7020                     moveq.l    D0, 0x20
00000EC4  A31E                     syscall    NewPtrClear, flags=3
00000EC6  43FA 003C                lea.l      A1, [PC + 0x3C /* 00000F04, value 0x4A6E000A 'Jn\0\n', cstring "Jn" */]
00000ECA  2149 0004                move.l     [A0 + 0x4], A1
00000ECE  314C 0008                move.w     [A0 + 0x8], A4
00000ED2  3141 000A                move.w     [A0 + 0xA], D1
00000ED6  3144 000C                move.w     [A0 + 0xC], D4
00000EDA  3142 000E                move.w     [A0 + 0xE], D2
00000EDE  3143 0010                move.w     [A0 + 0x10], D3
00000EE2  4268 0012                clr.w      [A0 + 0x12]
00000EE6  1147 0013                move.b     [A0 + 0x13], D7
00000EEA  3146 0014                move.w     [A0 + 0x14], D6
00000EEE  3147 0016                move.w     [A0 + 0x16], D7
00000EF2  3145 0018                move.w     [A0 + 0x18], D5
00000EF6  314A 001E                move.w     [A0 + 0x1E], A2
00000EFA  20AD FE7E                move.l     [A0], [A5 - 0x182]
00000EFE  2B48 FE7E                move.l     [A5 - 0x182], A0
00000F02  4E75                     rts
00000F04  4A6E 000A                tst.w      [A6 + 0xA]
00000F08  6B00 0052                bmi        +0x54 /* 00000F5C */
00000F0C  4A6E 0010                tst.w      [A6 + 0x10]
00000F10  6F00 00F4                ble        +0xF6 /* 00001006 */
00000F14  536E 000A                subq.w     [A6 + 0xA], 1
00000F18  6E00 00EC                bgt        +0xEE /* 00001006 */
00000F1C  226D FE40                movea.l    A1, [A5 - 0x1C0]
00000F20  3D69 0002 000A           move.w     [A6 + 0xA], [A1 + 0x2]
00000F26  E1EE 000A                asl   .w   [A6 + 0xA]
00000F2A  E1EE 000A                asl   .w   [A6 + 0xA]
00000F2E  446E 000A                neg.w      [A6 + 0xA]
00000F32  4242                     clr.w      D2
00000F34  322E 0002                move.w     D1, [A6 + 0x2]
00000F38  5141                     subq.w     D1, 8
00000F3A  206D FFA8                movea.l    A0, [A5 - 0x58]
00000F3E  4A6E 0004                tst.w      [A6 + 0x4]
00000F42  6D08                     blt        +0xA /* 00000F4C */
00000F44  226D FE40                movea.l    A1, [A5 - 0x1C0]
00000F48  4240                     clr.w      D0
00000F4A  6008                     bra        +0xA /* 00000F54 */
label00000F4C:
00000F4C  226D FE3C                movea.l    A1, [A5 - 0x1C4]
00000F50  303C 01E0                move.w     D0, 0x1E0
label00000F54:
00000F54  4EBA F0AA                jsr        [PC - 0xF56 /* 00000000 */]
00000F58  6000 00AC                bra        +0xAE /* 00001006 */
label00000F5C:
00000F5C  342E 000A                move.w     D2, [A6 + 0xA]
00000F60  5242                     addq.w     D2, 1
00000F62  3D42 000A                move.w     [A6 + 0xA], D2
00000F66  4442                     neg.w      D2
00000F68  322E 0002                move.w     D1, [A6 + 0x2]
00000F6C  5141                     subq.w     D1, 8
00000F6E  206D FFA8                movea.l    A0, [A5 - 0x58]
00000F72  4A6E 0004                tst.w      [A6 + 0x4]
00000F76  6D08                     blt        +0xA /* 00000F80 */
00000F78  226D FE40                movea.l    A1, [A5 - 0x1C0]
00000F7C  4240                     clr.w      D0
00000F7E  6008                     bra        +0xA /* 00000F88 */
label00000F80:
00000F80  226D FE3C                movea.l    A1, [A5 - 0x1C4]
00000F84  303C 01E0                move.w     D0, 0x1E0
label00000F88:
00000F88  E442                     asr        D2.w, 2
00000F8A  4EBA F074                jsr        [PC - 0xF8C /* 00000000 */]
00000F8E  4A42                     tst.w      D2
00000F90  6E74                     bgt        +0x76 /* 00001006 */
00000F92  7020                     moveq.l    D0, 0x20
00000F94  A31E                     syscall    NewPtrClear, flags=3
00000F96  43FA FCA4                lea.l      A1, [PC - 0x35C /* 00000C3C, value 0x536E000E, cstring "Sn" */]
00000F9A  2149 0004                move.l     [A0 + 0x4], A1
00000F9E  700B                     moveq.l    D0, 0x0B
00000FA0  244E                     movea.l    A2, A6
00000FA2  2248                     movea.l    A1, A0
00000FA4  5049                     addq.w     A1, 8
label00000FA6:
00000FA6  32DA                     move.w     [A1]+, [A2]+
00000FA8  51C8 FFFC                dbf        D0, -0x6 /* 00000FA6 */
00000FAC  0668 000A 0008           addi.w     [A0 + 0x8], 0xA /* '\n' */
00000FB2  0668 0018 000A           addi.w     [A0 + 0xA], 0x18
00000FB8  4268 0016                clr.w      [A0 + 0x16]
00000FBC  4268 0018                clr.w      [A0 + 0x18]
00000FC0  4268 0012                clr.w      [A0 + 0x12]
00000FC4  214E 001A                move.l     [A0 + 0x1A], A6
00000FC8  20AD FE7E                move.l     [A0], [A5 - 0x182]
00000FCC  2B48 FE7E                move.l     [A5 - 0x182], A0
00000FD0  3F00                     move.w     -[A7], D0
00000FD2  303C 003C                move.w     D0, 0x3C /* '<' */
00000FD6  4EAD 0052                jsr        [A5 + 0x52 /* export_6, CODE:1 @ 00000114 */]
00000FDA  301F                     move.w     D0, [A7]+
00000FDC  41E8 0008                lea.l      A0, [A0 + 0x8]
00000FE0  2E3C 0200 0000           move.l     D7, 0x2000000
00000FE6  4EBA 4962                jsr        [PC + 0x4962 /* 0000594A */]
00000FEA  536E 0010                subq.w     [A6 + 0x10], 1
00000FEE  4EBA 4C78                jsr        [PC + 0x4C78 /* 00005C68 */]
00000FF2  1C2E 000E                move.b     D6, [A6 + 0xE]
00000FF6  4886                     ext.w      D6
00000FF8  1E2E 000F                move.b     D7, [A6 + 0xF]
00000FFC  4886                     ext.w      D6
00000FFE  C046                     and.w      D0, D6
00001000  D047                     add.w      D0, D7
00001002  3D40 000A                move.w     [A6 + 0xA], D0
label00001006:
00001006  4E75                     rts
export_74:
00001008  48A7 E000                movem.w    -[A7], D0,D1,D2
0000100C  7024                     moveq.l    D0, 0x24
0000100E  A31E                     syscall    NewPtrClear, flags=3
00001010  4C9F 0007                movem.w    D0,D1,D2, [A7]+
00001014  43FA 0046                lea.l      A1, [PC + 0x46 /* 0000105C, value 0x4A6E0014, cstring "Jn" */]
00001018  2149 0004                move.l     [A0 + 0x4], A1
0000101C  3140 0008                move.w     [A0 + 0x8], D0
00001020  3141 000A                move.w     [A0 + 0xA], D1
00001024  4268 000C                clr.w      [A0 + 0xC]
00001028  3142 0016                move.w     [A0 + 0x16], D2
0000102C  3143 0018                move.w     [A0 + 0x18], D3
00001030  3142 001A                move.w     [A0 + 0x1A], D2
00001034  3144 001E                move.w     [A0 + 0x1E], D4
00001038  4268 000E                clr.w      [A0 + 0xE]
0000103C  4268 0010                clr.w      [A0 + 0x10]
00001040  4268 001C                clr.w      [A0 + 0x1C]
00001044  216D FE58 0012           move.l     [A0 + 0x12], [A5 - 0x1A8]
0000104A  3145 0020                move.w     [A0 + 0x20], D5
0000104E  3146 0022                move.w     [A0 + 0x22], D6
00001052  20AD FE7E                move.l     [A0], [A5 - 0x182]
00001056  2B48 FE7E                move.l     [A5 - 0x182], A0
0000105A  4E75                     rts
0000105C  4A6E 0014                tst.w      [A6 + 0x14]
00001060  6D00 018A                blt        +0x18C /* 000011EC */
00001064  6E00 01C4                bgt        +0x1C6 /* 0000122A */
00001068  3016                     move.w     D0, [A6]
0000106A  322E 0002                move.w     D1, [A6 + 0x2]
0000106E  342E 0004                move.w     D2, [A6 + 0x4]
00001072  226E 000A                movea.l    A1, [A6 + 0xA]
00001076  206D FFA8                movea.l    A0, [A5 - 0x58]
0000107A  536E 0016                subq.w     [A6 + 0x16], 1
0000107E  6E00 0294                bgt        +0x296 /* 00001314 */
00001082  426E 0016                clr.w      [A6 + 0x16]
00001086  D06E 0006                add.w      D0, [A6 + 0x6]
0000108A  D26E 0008                add.w      D1, [A6 + 0x8]
0000108E  5242                     addq.w     D2, 1
00001090  0C42 0003                cmpi.w     D2, 0x3
00001094  6D04                     blt        +0x6 /* 0000109A */
00001096  343C 0001                move.w     D2, 0x1
label0000109A:
0000109A  3D42 0004                move.w     [A6 + 0x4], D2
0000109E  3C80                     move.w     [A6], D0
000010A0  3D41 0002                move.w     [A6 + 0x2], D1
000010A4  4EBA EF5A                jsr        [PC - 0x10A6 /* 00000000 */]
000010A8  0C40 0005                cmpi.w     D0, 0x5
000010AC  6E02                     bgt        +0x4 /* 000010B0 */
000010AE  6026                     bra        +0x28 /* 000010D6 */
label000010B0:
000010B0  0C40 01F4                cmpi.w     D0, 0x1F4
000010B4  6D02                     blt        +0x4 /* 000010B8 */
000010B6  601E                     bra        +0x20 /* 000010D6 */
label000010B8:
000010B8  B26E 0018                cmp.w      D1, [A6 + 0x18]
000010BC  6E02                     bgt        +0x4 /* 000010C0 */
000010BE  600E                     bra        +0x10 /* 000010CE */
label000010C0:
000010C0  B26E 001A                cmp.w      D1, [A6 + 0x1A]
000010C4  6D14                     blt        +0x16 /* 000010DA */
000010C6  3D7C FFFD 0008           move.w     [A6 + 0x8], 0xFFFD
000010CC  600C                     bra        +0xE /* 000010DA */
label000010CE:
000010CE  3D7C 0003 0008           move.w     [A6 + 0x8], 0x3
000010D4  6004                     bra        +0x6 /* 000010DA */
label000010D6:
000010D6  426E 0012                clr.w      [A6 + 0x12]
label000010DA:
000010DA  5040                     addq.w     D0, 8
000010DC  5C41                     addq.w     D1, 6
000010DE  266D FF7A                movea.l    A3, [A5 - 0x86]
000010E2  504B                     addq.w     A3, 8
000010E4  382B 000C                move.w     D4, [A3 + 0xC]
000010E8  3A2B 000E                move.w     D5, [A3 + 0xE]
000010EC  3404                     move.w     D2, D4
000010EE  3605                     move.w     D3, D5
000010F0  246B 001A                movea.l    A2, [A3 + 0x1A]
000010F4  D46A 000A                add.w      D2, [A2 + 0xA]
000010F8  D66A 000C                add.w      D3, [A2 + 0xC]
000010FC  536E 0012                subq.w     [A6 + 0x12], 1
00001100  6E00 00E8                bgt        +0xEA /* 000011EA */
00001104  3F00                     move.w     -[A7], D0
00001106  303C 0045                move.w     D0, 0x45 /* 'E' */
0000110A  4EAD 0052                jsr        [A5 + 0x52 /* export_6, CODE:1 @ 00000114 */]
0000110E  301F                     move.w     D0, [A7]+
00001110  3D6E 000E 0012           move.w     [A6 + 0x12], [A6 + 0xE]
00001116  3F00                     move.w     -[A7], D0
00001118  4EBA 4B4E                jsr        [PC + 0x4B4E /* 00005C68 */]
0000111C  3600                     move.w     D3, D0
0000111E  301F                     move.w     D0, [A7]+
00001120  C66E 0010                and.w      D3, [A6 + 0x10]
00001124  D76E 0012                add.w      [A6 + 0x12], D3
00001128  0644 0010                addi.w     D4, 0x10
0000112C  0645 0014                addi.w     D5, 0x14
00001130  3C3C 0200                move.w     D6, 0x200
00001134  E246                     asr        D6.w, 1
00001136  3E3C 0136                move.w     D7, 0x136
0000113A  E247                     asr        D7.w, 1
0000113C  343C 0006                move.w     D2, 0x6
label00001140:
00001140  5342                     subq.w     D2, 1
00001142  6D6A                     blt        +0x6C /* 000011AE */
00001144  BE45                     cmp.w      D7, D5
00001146  6F14                     ble        +0x16 /* 0000115C */
00001148  BE41                     cmp.w      D7, D1
0000114A  6E08                     bgt        +0xA /* 00001154 */
0000114C  3D7C FFFD 0008           move.w     [A6 + 0x8], 0xFFFD
00001152  6020                     bra        +0x22 /* 00001174 */
label00001154:
00001154  426E 0008                clr.w      [A6 + 0x8]
00001158  E247                     asr        D7.w, 1
0000115A  6018                     bra        +0x1A /* 00001174 */
label0000115C:
0000115C  BE41                     cmp.w      D7, D1
0000115E  6F08                     ble        +0xA /* 00001168 */
00001160  3D7C 0003 0008           move.w     [A6 + 0x8], 0x3
00001166  600C                     bra        +0xE /* 00001174 */
label00001168:
00001168  426E 0008                clr.w      [A6 + 0x8]
0000116C  3607                     move.w     D3, D7
0000116E  E247                     asr        D7.w, 1
00001170  DE43                     add.w      D7, D3
00001172  4E71                     nop
label00001174:
00001174  BC44                     cmp.w      D6, D4
00001176  6F14                     ble        +0x16 /* 0000118C */
00001178  BC40                     cmp.w      D6, D0
0000117A  6E08                     bgt        +0xA /* 00001184 */
0000117C  3D7C FFFD 0006           move.w     [A6 + 0x6], 0xFFFD
00001182  6020                     bra        +0x22 /* 000011A4 */
label00001184:
00001184  426E 0006                clr.w      [A6 + 0x6]
00001188  E246                     asr        D6.w, 1
0000118A  6018                     bra        +0x1A /* 000011A4 */
label0000118C:
0000118C  BC40                     cmp.w      D6, D0
0000118E  6F08                     ble        +0xA /* 00001198 */
00001190  3D7C 0003 0006           move.w     [A6 + 0x6], 0x3
00001196  600C                     bra        +0xE /* 000011A4 */
label00001198:
00001198  426E 0006                clr.w      [A6 + 0x6]
0000119C  3606                     move.w     D3, D6
0000119E  E246                     asr        D6.w, 1
000011A0  DC43                     add.w      D6, D3
000011A2  4E71                     nop
label000011A4:
000011A4  4AAE 0006                tst.l      [A6 + 0x6]
000011A8  6600 016E                bne        +0x170 /* 00001318 */
000011AC  6092                     bra        -0x6C /* 00001140 */
label000011AE:
000011AE  B044                     cmp.w      D0, D4
000011B0  6D34                     blt        +0x36 /* 000011E6 */
000011B2  B245                     cmp.w      D1, D5
000011B4  6D30                     blt        +0x32 /* 000011E6 */
000011B6  B042                     cmp.w      D0, D2
000011B8  6E2C                     bgt        +0x2E /* 000011E6 */
000011BA  B243                     cmp.w      D1, D3
000011BC  6E28                     bgt        +0x2A /* 000011E6 */
000011BE  3D7C FFFF 0014           move.w     [A6 + 0x14], 0xFFFF
000011C4  526D FDA2                addq.w     [A5 - 0x25E], 1
000011C8  3F00                     move.w     -[A7], D0
000011CA  4EBA 4A9C                jsr        [PC + 0x4A9C /* 00005C68 */]
000011CE  3E00                     move.w     D7, D0
000011D0  301F                     move.w     D0, [A7]+
000011D2  3C07                     move.w     D6, D7
000011D4  0246 000F                andi.w     D6, 0xF
000011D8  3D46 0006                move.w     [A6 + 0x6], D6
000011DC  0247 00F0                andi.w     D7, 0xF0
000011E0  E847                     asr        D7.w, 4
000011E2  3D47 0008                move.w     [A6 + 0x8], D7
label000011E6:
000011E6  6000 0130                bra        +0x132 /* 00001318 */
label000011EA:
000011EA  60C2                     bra        -0x3C /* 000011AE */
label000011EC:
000011EC  266D FF7A                movea.l    A3, [A5 - 0x86]
000011F0  302B 0014                move.w     D0, [A3 + 0x14]
000011F4  322B 0016                move.w     D1, [A3 + 0x16]
000011F8  342E 0004                move.w     D2, [A6 + 0x4]
000011FC  226E 000A                movea.l    A1, [A6 + 0xA]
00001200  206D FFA8                movea.l    A0, [A5 - 0x58]
00001204  D06E 0006                add.w      D0, [A6 + 0x6]
00001208  D26E 0008                add.w      D1, [A6 + 0x8]
0000120C  5242                     addq.w     D2, 1
0000120E  0C42 0003                cmpi.w     D2, 0x3
00001212  6D04                     blt        +0x6 /* 00001218 */
00001214  343C 0001                move.w     D2, 0x1
label00001218:
00001218  3D42 0004                move.w     [A6 + 0x4], D2
0000121C  3C80                     move.w     [A6], D0
0000121E  3D41 0002                move.w     [A6 + 0x2], D1
00001222  4EBA EDDC                jsr        [PC - 0x1224 /* 00000000 */]
00001226  6000 00F0                bra        +0xF2 /* 00001318 */
label0000122A:
0000122A  3016                     move.w     D0, [A6]
0000122C  322E 0002                move.w     D1, [A6 + 0x2]
00001230  226E 000A                movea.l    A1, [A6 + 0xA]
00001234  206D FFA8                movea.l    A0, [A5 - 0x58]
00001238  4A6E 0016                tst.w      [A6 + 0x16]
0000123C  6E00 00BA                bgt        +0xBC /* 000012F8 */
00001240  6D00 008E                blt        +0x90 /* 000012D0 */
00001244  286D FF7A                movea.l    A4, [A5 - 0x86]
00001248  246C 0008                movea.l    A2, [A4 + 0x8]
0000124C  343C 0004                move.w     D2, 0x4
00001250  4EBA 47C0                jsr        [PC + 0x47C0 /* 00005A12 */]
00001254  4A47                     tst.w      D7
00001256  6756                     beq        +0x58 /* 000012AE */
00001258  6D0C                     blt        +0xE /* 00001266 */
0000125A  4847                     swap.w     D7
0000125C  3A32 7004                move.w     D5, [A2 + D7.w + 0x4]
00001260  0C45 0016                cmpi.w     D5, 0x16
00001264  6608                     bne        +0xA /* 0000126E */
label00001266:
00001266  42AE FFFC                clr.l      [A6 - 0x4]
0000126A  6000 00EE                bra        +0xF0 /* 0000135A */
label0000126E:
0000126E  0C45 000E                cmpi.w     D5, 0xE
00001272  6614                     bne        +0x16 /* 00001288 */
00001274  3D7C FFFF 0016           move.w     [A6 + 0x16], 0xFFFF
0000127A  2D4A 000E                move.l     [A6 + 0xE], A2
0000127E  3D47 0012                move.w     [A6 + 0x12], D7
00001282  3D41 0002                move.w     [A6 + 0x2], D1
00001286  6048                     bra        +0x4A /* 000012D0 */
label00001288:
00001288  0C45 000F                cmpi.w     D5, 0xF
0000128C  6614                     bne        +0x16 /* 000012A2 */
0000128E  3D7C FFFE 0016           move.w     [A6 + 0x16], 0xFFFE
00001294  2D4A 000E                move.l     [A6 + 0xE], A2
00001298  3D47 0012                move.w     [A6 + 0x12], D7
0000129C  3D41 0002                move.w     [A6 + 0x2], D1
000012A0  602E                     bra        +0x30 /* 000012D0 */
label000012A2:
000012A2  3D7C 0002 0016           move.w     [A6 + 0x16], 0x2
000012A8  3D41 0002                move.w     [A6 + 0x2], D1
000012AC  604A                     bra        +0x4C /* 000012F8 */
label000012AE:
000012AE  0641 001E                addi.w     D1, 0x1E
000012B2  4242                     clr.w      D2
000012B4  0C41 0136                cmpi.w     D1, 0x136
000012B8  6D08                     blt        +0xA /* 000012C2 */
000012BA  42AE FFFC                clr.l      [A6 - 0x4]
000012BE  6000 009A                bra        +0x9C /* 0000135A */
label000012C2:
000012C2  4EBA ED3C                jsr        [PC - 0x12C4 /* 00000000 */]
000012C6  066E 000F 0002           addi.w     [A6 + 0x2], 0xF
000012CC  6000 008C                bra        +0x8E /* 0000135A */
label000012D0:
000012D0  0C6E FFFE 0016           cmpi.w     [A6 + 0x16], 0xFFFE
000012D6  671E                     beq        +0x20 /* 000012F6 */
000012D8  246E 000E                movea.l    A2, [A6 + 0xE]
000012DC  382E 0012                move.w     D4, [A6 + 0x12]
000012E0  4A72 4000                tst.w      [A2 + D4.w]
000012E4  6E08                     bgt        +0xA /* 000012EE */
000012E6  42AE FFFC                clr.l      [A6 - 0x4]
000012EA  6000 006E                bra        +0x70 /* 0000135A */
label000012EE:
000012EE  D072 400C                add.w      D0, [A2 + D4.w + 0xC]
000012F2  3C80                     move.w     [A6], D0
000012F4  6002                     bra        +0x4 /* 000012F8 */
label000012F6:
000012F6  5456                     addq.w     [A6], 2
label000012F8:
000012F8  0641 001E                addi.w     D1, 0x1E
000012FC  343C 0005                move.w     D2, 0x5
00001300  4EBA ECFE                jsr        [PC - 0x1302 /* 00000000 */]
00001304  536E 0004                subq.w     [A6 + 0x4], 1
00001308  6E00 0050                bgt        +0x52 /* 0000135A */
0000130C  42AE FFFC                clr.l      [A6 - 0x4]
00001310  6000 0048                bra        +0x4A /* 0000135A */
label00001314:
00001314  4EBA ECEA                jsr        [PC - 0x1316 /* 00000000 */]
label00001318:
00001318  41ED FE6C                lea.l      A0, [A5 - 0x194]
0000131C  4EBA 45B2                jsr        [PC + 0x45B2 /* 000058D0 */]
00001320  6738                     beq        +0x3A /* 0000135A */
00001322  42A8 0008                clr.l      [A0 + 0x8]
00001326  3F00                     move.w     -[A7], D0
00001328  303C 0055                move.w     D0, 0x55 /* 'U' */
0000132C  4EAD 0052                jsr        [A5 + 0x52 /* export_6, CODE:1 @ 00000114 */]
00001330  301F                     move.w     D0, [A7]+
00001332  4A6E 0014                tst.w      [A6 + 0x14]
00001336  6704                     beq        +0x6 /* 0000133C */
00001338  536D FDA2                subq.w     [A5 - 0x25E], 1
label0000133C:
0000133C  3D7C 0001 0014           move.w     [A6 + 0x14], 0x1
00001342  3D7C 003C 0004           move.w     [A6 + 0x4], 0x3C /* '<' */
00001348  426E 0016                clr.w      [A6 + 0x16]
0000134C  046E 0014 0002           subi.w     [A6 + 0x2], 0x14
00001352  303C 0006                move.w     D0, 0x6
00001356  4EBA 48BC                jsr        [PC + 0x48BC /* 00005C14 */]
label0000135A:
0000135A  4E75                     rts
export_75:
0000135C  3E00                     move.w     D7, D0
0000135E  7034                     moveq.l    D0, 0x34
00001360  A31E                     syscall    NewPtrClear, flags=3
00001362  43FA 029E                lea.l      A1, [PC + 0x29E /* 00001602, value 0x4A6E0016, cstring "Jn" */]
00001366  2149 0004                move.l     [A0 + 0x4], A1
0000136A  3147 0008                move.w     [A0 + 0x8], D7
0000136E  3141 000A                move.w     [A0 + 0xA], D1
00001372  4268 0010                clr.w      [A0 + 0x10]
00001376  3142 000C                move.w     [A0 + 0xC], D2
0000137A  3143 000E                move.w     [A0 + 0xE], D3
0000137E  3144 001C                move.w     [A0 + 0x1C], D4
00001382  3145 001A                move.w     [A0 + 0x1A], D5
00001386  4268 002E                clr.w      [A0 + 0x2E]
0000138A  216D FE54 0012           move.l     [A0 + 0x12], [A5 - 0x1AC]
00001390  216D FE50 0016           move.l     [A0 + 0x16], [A5 - 0x1B0]
00001396  3146 001E                move.w     [A0 + 0x1E], D6
0000139A  4268 0022                clr.w      [A0 + 0x22]
0000139E  317C FFFF 0024           move.w     [A0 + 0x24], 0xFFFF
000013A4  20AD FE7E                move.l     [A0], [A5 - 0x182]
000013A8  2B48 FE7E                move.l     [A5 - 0x182], A0
000013AC  4E75                     rts
export_76:
000013AE  2448                     movea.l    A2, A0
000013B0  7034                     moveq.l    D0, 0x34
000013B2  A31E                     syscall    NewPtrClear, flags=3
000013B4  43FA 024C                lea.l      A1, [PC + 0x24C /* 00001602, value 0x4A6E0016, cstring "Jn" */]
000013B8  2149 0004                move.l     [A0 + 0x4], A1
000013BC  7013                     moveq.l    D0, 0x13
000013BE  2248                     movea.l    A1, A0
000013C0  5049                     addq.w     A1, 8
label000013C2:
000013C2  32DA                     move.w     [A1]+, [A2]+
000013C4  51C8 FFFC                dbf        D0, -0x6 /* 000013C2 */
000013C8  216D FE54 0012           move.l     [A0 + 0x12], [A5 - 0x1AC]
000013CE  216D FE50 0016           move.l     [A0 + 0x16], [A5 - 0x1B0]
000013D4  20AD FE7E                move.l     [A0], [A5 - 0x182]
000013D8  2B48 FE7E                move.l     [A5 - 0x182], A0
000013DC  4E75                     rts
000013DE  3016                     move.w     D0, [A6]
000013E0  322E 0002                move.w     D1, [A6 + 0x2]
000013E4  206D FFA8                movea.l    A0, [A5 - 0x58]
000013E8  3E2E 001A                move.w     D7, [A6 + 0x1A]
000013EC  E547                     asl        D7.w, 2
000013EE  4EFB 7002                jmp        [PC + D7.w + 0x2]
000013F2  4EFA 0116                jmp        [PC + 0x116 /* 0000150A */]
000013F6  4EFA 00BE                jmp        [PC + 0xBE /* 000014B6 */]
000013FA  4EFA 0076                jmp        [PC + 0x76 /* 00001472 */]
000013FE  4EFA 0044                jmp        [PC + 0x44 /* 00001444 */]
00001402  4EFA 0002                jmp        [PC + 0x2 /* 00001406 */]
label00001406:
00001406  343C 0003                move.w     D2, 0x3
0000140A  0641 000F                addi.w     D1, 0xF
0000140E  0C41 012C                cmpi.w     D1, 0x12C
00001412  6D18                     blt        +0x1A /* 0000142C */
00001414  41EE 0028                lea.l      A0, [A6 + 0x28]
00001418  4EBA 4562                jsr        [PC + 0x4562 /* 0000597C */]
0000141C  42AE FFFC                clr.l      [A6 - 0x4]
00001420  206E 0016                movea.l    A0, [A6 + 0x16]
00001424  5268 0016                addq.w     [A0 + 0x16], 1
00001428  6000 01D6                bra        +0x1D8 /* 00001600 */
label0000142C:
0000142C  4A6E 0008                tst.w      [A6 + 0x8]
00001430  6E06                     bgt        +0x8 /* 00001438 */
00001432  226E 000A                movea.l    A1, [A6 + 0xA]
00001436  6004                     bra        +0x6 /* 0000143C */
label00001438:
00001438  226E 000E                movea.l    A1, [A6 + 0xE]
label0000143C:
0000143C  4EBA EBC2                jsr        [PC - 0x143E /* 00000000 */]
00001440  6000 0174                bra        +0x176 /* 000015B6 */
label00001444:
00001444  343C 0003                move.w     D2, 0x3
00001448  0641 000F                addi.w     D1, 0xF
0000144C  B26E 001E                cmp.w      D1, [A6 + 0x1E]
00001450  6D08                     blt        +0xA /* 0000145A */
00001452  426E 001A                clr.w      [A6 + 0x1A]
00001456  322E 001E                move.w     D1, [A6 + 0x1E]
label0000145A:
0000145A  4A6E 0008                tst.w      [A6 + 0x8]
0000145E  6E06                     bgt        +0x8 /* 00001466 */
00001460  226E 000A                movea.l    A1, [A6 + 0xA]
00001464  6004                     bra        +0x6 /* 0000146A */
label00001466:
00001466  226E 000E                movea.l    A1, [A6 + 0xE]
label0000146A:
0000146A  4EBA EB94                jsr        [PC - 0x146C /* 00000000 */]
0000146E  6000 0146                bra        +0x148 /* 000015B6 */
label00001472:
00001472  343C 0002                move.w     D2, 0x2
00001476  0641 000A                addi.w     D1, 0xA /* '\n' */
0000147A  B26E 001C                cmp.w      D1, [A6 + 0x1C]
0000147E  6D1E                     blt        +0x20 /* 0000149E */
00001480  B06E 0004                cmp.w      D0, [A6 + 0x4]
00001484  6D0E                     blt        +0x10 /* 00001494 */
00001486  B06E 0006                cmp.w      D0, [A6 + 0x6]
0000148A  6E08                     bgt        +0xA /* 00001494 */
0000148C  3D7C 0003 001A           move.w     [A6 + 0x1A], 0x3
00001492  6006                     bra        +0x8 /* 0000149A */
label00001494:
00001494  3D7C 0004 001A           move.w     [A6 + 0x1A], 0x4
label0000149A:
0000149A  322E 001C                move.w     D1, [A6 + 0x1C]
label0000149E:
0000149E  4A6E 0008                tst.w      [A6 + 0x8]
000014A2  6E06                     bgt        +0x8 /* 000014AA */
000014A4  226E 000A                movea.l    A1, [A6 + 0xA]
000014A8  6004                     bra        +0x6 /* 000014AE */
label000014AA:
000014AA  226E 000E                movea.l    A1, [A6 + 0xE]
label000014AE:
000014AE  4EBA EB50                jsr        [PC - 0x14B0 /* 00000000 */]
000014B2  6000 0102                bra        +0x104 /* 000015B6 */
label000014B6:
000014B6  342E 0014                move.w     D2, [A6 + 0x14]
000014BA  D06E 0008                add.w      D0, [A6 + 0x8]
000014BE  4A6E 0008                tst.w      [A6 + 0x8]
000014C2  6E1E                     bgt        +0x20 /* 000014E2 */
000014C4  B06E 0020                cmp.w      D0, [A6 + 0x20]
000014C8  6E0A                     bgt        +0xC /* 000014D4 */
000014CA  3D7C 0002 001A           move.w     [A6 + 0x1A], 0x2
000014D0  302E 0020                move.w     D0, [A6 + 0x20]
label000014D4:
000014D4  226E 000A                movea.l    A1, [A6 + 0xA]
000014D8  5342                     subq.w     D2, 1
000014DA  6C22                     bge        +0x24 /* 000014FE */
000014DC  343C 0001                move.w     D2, 0x1
000014E0  601C                     bra        +0x1E /* 000014FE */
label000014E2:
000014E2  B06E 0020                cmp.w      D0, [A6 + 0x20]
000014E6  6D0A                     blt        +0xC /* 000014F2 */
000014E8  3D7C 0002 001A           move.w     [A6 + 0x1A], 0x2
000014EE  302E 0020                move.w     D0, [A6 + 0x20]
label000014F2:
000014F2  226E 000E                movea.l    A1, [A6 + 0xE]
000014F6  5342                     subq.w     D2, 1
000014F8  6C04                     bge        +0x6 /* 000014FE */
000014FA  343C 0001                move.w     D2, 0x1
label000014FE:
000014FE  3D42 0014                move.w     [A6 + 0x14], D2
00001502  4EBA EAFC                jsr        [PC - 0x1504 /* 00000000 */]
00001506  6000 00AE                bra        +0xB0 /* 000015B6 */
label0000150A:
0000150A  536E 0012                subq.w     [A6 + 0x12], 1
0000150E  6E18                     bgt        +0x1A /* 00001528 */
00001510  446E 0008                neg.w      [A6 + 0x8]
00001514  4EBA 4752                jsr        [PC + 0x4752 /* 00005C68 */]
00001518  3E00                     move.w     D7, D0
0000151A  3016                     move.w     D0, [A6]
0000151C  0247 003F                andi.w     D7, 0x3F /* '?' */
00001520  0647 000A                addi.w     D7, 0xA /* '\n' */
00001524  3D47 0012                move.w     [A6 + 0x12], D7
label00001528:
00001528  342E 0014                move.w     D2, [A6 + 0x14]
0000152C  D06E 0008                add.w      D0, [A6 + 0x8]
00001530  B06E 0004                cmp.w      D0, [A6 + 0x4]
00001534  6E14                     bgt        +0x16 /* 0000154A */
00001536  3D7C 0002 0008           move.w     [A6 + 0x8], 0x2
0000153C  3F00                     move.w     -[A7], D0
0000153E  303C 0046                move.w     D0, 0x46 /* 'F' */
00001542  4EAD 0052                jsr        [A5 + 0x52 /* export_6, CODE:1 @ 00000114 */]
00001546  301F                     move.w     D0, [A7]+
00001548  6040                     bra        +0x42 /* 0000158A */
label0000154A:
0000154A  B06E 0006                cmp.w      D0, [A6 + 0x6]
0000154E  6D3A                     blt        +0x3C /* 0000158A */
00001550  246E 0016                movea.l    A2, [A6 + 0x16]
00001554  4A6A 001C                tst.w      [A2 + 0x1C]
00001558  6D1E                     blt        +0x20 /* 00001578 */
0000155A  0C40 01D6                cmpi.w     D0, 0x1D6
0000155E  6F18                     ble        +0x1A /* 00001578 */
00001560  41EE 0028                lea.l      A0, [A6 + 0x28]
00001564  4EBA 4416                jsr        [PC + 0x4416 /* 0000597C */]
00001568  42AE FFFC                clr.l      [A6 - 0x4]
0000156C  246E 0016                movea.l    A2, [A6 + 0x16]
00001570  526A 0016                addq.w     [A2 + 0x16], 1
00001574  6000 008A                bra        +0x8C /* 00001600 */
label00001578:
00001578  3D7C FFFE 0008           move.w     [A6 + 0x8], 0xFFFE
0000157E  3F00                     move.w     -[A7], D0
00001580  303C 0046                move.w     D0, 0x46 /* 'F' */
00001584  4EAD 0052                jsr        [A5 + 0x52 /* export_6, CODE:1 @ 00000114 */]
00001588  301F                     move.w     D0, [A7]+
label0000158A:
0000158A  4A6E 0008                tst.w      [A6 + 0x8]
0000158E  6E0E                     bgt        +0x10 /* 0000159E */
00001590  226E 000A                movea.l    A1, [A6 + 0xA]
00001594  5342                     subq.w     D2, 1
00001596  6C12                     bge        +0x14 /* 000015AA */
00001598  343C 0001                move.w     D2, 0x1
0000159C  600C                     bra        +0xE /* 000015AA */
label0000159E:
0000159E  226E 000E                movea.l    A1, [A6 + 0xE]
000015A2  5342                     subq.w     D2, 1
000015A4  6C04                     bge        +0x6 /* 000015AA */
000015A6  343C 0001                move.w     D2, 0x1
label000015AA:
000015AA  3D42 0014                move.w     [A6 + 0x14], D2
000015AE  4EBA EA50                jsr        [PC - 0x15B0 /* 00000000 */]
000015B2  6000 0002                bra        +0x4 /* 000015B6 */
label000015B6:
000015B6  3C80                     move.w     [A6], D0
000015B8  3D41 0002                move.w     [A6 + 0x2], D1
000015BC  3D40 0028                move.w     [A6 + 0x28], D0
000015C0  3D41 002A                move.w     [A6 + 0x2A], D1
000015C4  506E 0028                addq.w     [A6 + 0x28], 8
000015C8  5C6E 002A                addq.w     [A6 + 0x2A], 6
000015CC  41ED FE6C                lea.l      A0, [A5 - 0x194]
000015D0  4EBA 42FE                jsr        [PC + 0x42FE /* 000058D0 */]
000015D4  672A                     beq        +0x2C /* 00001600 */
000015D6  42A8 0008                clr.l      [A0 + 0x8]
000015DA  3F00                     move.w     -[A7], D0
000015DC  303C 0057                move.w     D0, 0x57 /* 'W' */
000015E0  4EAD 0052                jsr        [A5 + 0x52 /* export_6, CODE:1 @ 00000114 */]
000015E4  301F                     move.w     D0, [A7]+
000015E6  41EE 0028                lea.l      A0, [A6 + 0x28]
000015EA  4EBA 4390                jsr        [PC + 0x4390 /* 0000597C */]
000015EE  42AE FFFC                clr.l      [A6 - 0x4]
000015F2  206E 0016                movea.l    A0, [A6 + 0x16]
000015F6  5268 0016                addq.w     [A0 + 0x16], 1
000015FA  4240                     clr.w      D0
000015FC  4EBA 4616                jsr        [PC + 0x4616 /* 00005C14 */]
label00001600:
00001600  4E75                     rts
00001602  4A6E 0016                tst.w      [A6 + 0x16]
00001606  6F00 00C8                ble        +0xCA /* 000016D0 */
0000160A  536E 0026                subq.w     [A6 + 0x26], 1
0000160E  6E00 00C0                bgt        +0xC2 /* 000016D0 */
00001612  4EBA 4654                jsr        [PC + 0x4654 /* 00005C68 */]
00001616  3E00                     move.w     D7, D0
00001618  7034                     moveq.l    D0, 0x34
0000161A  A31E                     syscall    NewPtrClear, flags=3
0000161C  43FA FDC0                lea.l      A1, [PC - 0x240 /* 000013DE, value 0x3016322E */]
00001620  2149 0004                move.l     [A0 + 0x4], A1
00001624  316E 0004 000C           move.w     [A0 + 0xC], [A6 + 0x4]
0000162A  316E 0006 000E           move.w     [A0 + 0xE], [A6 + 0x6]
00001630  3156 0008                move.w     [A0 + 0x8], [A6]
00001634  316E 0002 000A           move.w     [A0 + 0xA], [A6 + 0x2]
0000163A  4268 001C                clr.w      [A0 + 0x1C]
0000163E  216E 000A 0012           move.l     [A0 + 0x12], [A6 + 0xA]
00001644  216E 000E 0016           move.l     [A0 + 0x16], [A6 + 0xE]
0000164A  3C07                     move.w     D6, D7
0000164C  0246 000F                andi.w     D6, 0xF
00001650  5846                     addq.w     D6, 4
00001652  3146 001A                move.w     [A0 + 0x1A], D6
00001656  214E 001E                move.l     [A0 + 0x1E], A6
0000165A  316E 001A 0022           move.w     [A0 + 0x22], [A6 + 0x1A]
00001660  6736                     beq        +0x38 /* 00001698 */
00001662  316E 001C 0024           move.w     [A0 + 0x24], [A6 + 0x1C]
00001668  316E 001E 0026           move.w     [A0 + 0x26], [A6 + 0x1E]
0000166E  316E 0008 0010           move.w     [A0 + 0x10], [A6 + 0x8]
00001674  0C47 5555                cmpi.w     D7, 0x5555 /* 'UU' */
00001678  6208                     bhi        +0xA /* 00001682 */
0000167A  316E 0020 0028           move.w     [A0 + 0x28], [A6 + 0x20]
00001680  601C                     bra        +0x1E /* 0000169E */
label00001682:
00001682  0C47 AAAA                cmpi.w     D7, 0xAAAA
00001686  6208                     bhi        +0xA /* 00001690 */
00001688  316E 0022 0028           move.w     [A0 + 0x28], [A6 + 0x22]
0000168E  600E                     bra        +0x10 /* 0000169E */
label00001690:
00001690  316E 0024 0028           move.w     [A0 + 0x28], [A6 + 0x24]
00001696  6006                     bra        +0x8 /* 0000169E */
label00001698:
00001698  317C 0002 0010           move.w     [A0 + 0x10], 0x2
label0000169E:
0000169E  20AD FE7E                move.l     [A0], [A5 - 0x182]
000016A2  2B48 FE7E                move.l     [A5 - 0x182], A0
000016A6  536E 0016                subq.w     [A6 + 0x16], 1
000016AA  CE6E 0014                and.w      D7, [A6 + 0x14]
000016AE  DE6E 0012                add.w      D7, [A6 + 0x12]
000016B2  3D47 0026                move.w     [A6 + 0x26], D7
000016B6  41E8 0030                lea.l      A0, [A0 + 0x30]
000016BA  2E3C 0500 0000           move.l     D7, 0x5000000
000016C0  4EBA 4288                jsr        [PC + 0x4288 /* 0000594A */]
000016C4  3F00                     move.w     -[A7], D0
000016C6  303C 0046                move.w     D0, 0x46 /* 'F' */
000016CA  4EAD 0052                jsr        [A5 + 0x52 /* export_6, CODE:1 @ 00000114 */]
000016CE  301F                     move.w     D0, [A7]+
label000016D0:
000016D0  4E75                     rts
export_77:
000016D2  48A7 0600                movem.w    -[A7], D5,D6
000016D6  2848                     movea.l    A4, A0
000016D8  3643                     movea.w    A3, D3
000016DA  3E04                     move.w     D7, D4
000016DC  3800                     move.w     D4, D0
000016DE  3A01                     move.w     D5, D1
000016E0  3C02                     move.w     D6, D2
000016E2  7022                     moveq.l    D0, 0x22
000016E4  A31E                     syscall    NewPtrClear, flags=3
000016E6  43FA 0042                lea.l      A1, [PC + 0x42 /* 0000172A, value 0x302E000A '0.\0\n', cstring "0." */]
000016EA  2149 0004                move.l     [A0 + 0x4], A1
000016EE  214C 000A                move.l     [A0 + 0xA], A4
000016F2  3146 000E                move.w     [A0 + 0xE], D6
000016F6  4268 0008                clr.w      [A0 + 0x8]
000016FA  3144 0012                move.w     [A0 + 0x12], D4
000016FE  3145 0014                move.w     [A0 + 0x14], D5
00001702  4268 0010                clr.w      [A0 + 0x10]
00001706  314B 0018                move.w     [A0 + 0x18], A3
0000170A  3147 001A                move.w     [A0 + 0x1A], D7
0000170E  317C FFFF 0020           move.w     [A0 + 0x20], 0xFFFF
00001714  4C9F 0060                movem.w    D5,D6, [A7]+
00001718  3145 001C                move.w     [A0 + 0x1C], D5
0000171C  3146 001E                move.w     [A0 + 0x1E], D6
00001720  20AD FE7E                move.l     [A0], [A5 - 0x182]
00001724  2B48 FE7E                move.l     [A5 - 0x182], A0
00001728  4E75                     rts
0000172A  302E 000A                move.w     D0, [A6 + 0xA]
0000172E  322E 000C                move.w     D1, [A6 + 0xC]
00001732  3E2E 0008                move.w     D7, [A6 + 0x8]
00001736  4EFB 7002                jmp        [PC + D7.w + 0x2]
0000173A  4EFA 000A                jmp        [PC + 0xA /* 00001746 */]
0000173E  4EFA 002A                jmp        [PC + 0x2A /* 0000176A */]
00001742  4EFA 00C2                jmp        [PC + 0xC2 /* 00001806 */]
label00001746:
00001746  5356                     subq.w     [A6], 1
00001748  6E0A                     bgt        +0xC /* 00001754 */
0000174A  3D7C 0004 0008           move.w     [A6 + 0x8], 0x4
00001750  426E 000E                clr.w      [A6 + 0xE]
label00001754:
00001754  4242                     clr.w      D2
00001756  206D FFA8                movea.l    A0, [A5 - 0x58]
0000175A  226D FD40                movea.l    A1, [A5 - 0x2C0]
0000175E  0641 0010                addi.w     D1, 0x10
00001762  4EBA E89C                jsr        [PC - 0x1764 /* 00000000 */]
00001766  6000 009E                bra        +0xA0 /* 00001806 */
label0000176A:
0000176A  47FA 00F2                lea.l      A3, [PC + 0xF2 /* 0000185E, value 0x10FC00, cstring "" */]
0000176E  D6EE 000E                add.w      A3, [A6 + 0xE]
00001772  586E 000E                addq.w     [A6 + 0xE], 4
00001776  4A2B 0003                tst.b      [A3 + 0x3]
0000177A  6C1C                     bge        +0x1E /* 00001798 */
0000177C  48A7 C000                movem.w    -[A7], D0,D1
00001780  4EBA 44E6                jsr        [PC + 0x44E6 /* 00005C68 */]
00001784  C06E 0016                and.w      D0, [A6 + 0x16]
00001788  D06E 0014                add.w      D0, [A6 + 0x14]
0000178C  3C80                     move.w     [A6], D0
0000178E  4C9F 0003                movem.w    D0,D1, [A7]+
00001792  426E 0008                clr.w      [A6 + 0x8]
00001796  60AE                     bra        -0x50 /* 00001746 */
label00001798:
00001798  161B                     move.b     D3, [A3]+
0000179A  4883                     ext.w      D3
0000179C  D043                     add.w      D0, D3
0000179E  161B                     move.b     D3, [A3]+
000017A0  4883                     ext.w      D3
000017A2  D243                     add.w      D1, D3
000017A4  161B                     move.b     D3, [A3]+
000017A6  4883                     ext.w      D3
000017A8  43ED FD44                lea.l      A1, [A5 - 0x2BC]
000017AC  2271 3000                movea.l    A1, [A1 + D3.w]
000017B0  141B                     move.b     D2, [A3]+
000017B2  4882                     ext.w      D2
000017B4  206D FFA8                movea.l    A0, [A5 - 0x58]
000017B8  4EBA E846                jsr        [PC - 0x17BA /* 00000000 */]
000017BC  0C42 0003                cmpi.w     D2, 0x3
000017C0  6644                     bne        +0x46 /* 00001806 */
000017C2  3F00                     move.w     -[A7], D0
000017C4  303C 0030                move.w     D0, 0x30 /* '0' */
000017C8  4EAD 0052                jsr        [A5 + 0x52 /* export_6, CODE:1 @ 00000114 */]
000017CC  301F                     move.w     D0, [A7]+
000017CE  206E 0002                movea.l    A0, [A6 + 0x2]
000017D2  342E 0006                move.w     D2, [A6 + 0x6]
000017D6  0640 0028                addi.w     D0, 0x28 /* '(' */
000017DA  0641 FFFC                addi.w     D1, 0xFFFC
000017DE  48E7 E080                movem.l    -[A7], D0,D1,D2,A0
000017E2  4EBA 4484                jsr        [PC + 0x4484 /* 00005C68 */]
000017E6  C06E 0012                and.w      D0, [A6 + 0x12]
000017EA  D06E 0010                add.w      D0, [A6 + 0x10]
000017EE  3600                     move.w     D3, D0
000017F0  48C3                     ext.l      D3
000017F2  E183                     asl        D3, 8
000017F4  0683 0004 FFFB           addi.l     D3, 0x4FFFB
000017FA  4CDF 0107                movem.l    D0,D1,D2,A0, [A7]+
000017FE  4EBA 00AE                jsr        [PC + 0xAE /* 000018AE */]
00001802  6000 0002                bra        +0x4 /* 00001806 */
label00001806:
00001806  4A6E 0018                tst.w      [A6 + 0x18]
0000180A  6D44                     blt        +0x46 /* 00001850 */
0000180C  206D FFA8                movea.l    A0, [A5 - 0x58]
00001810  226D FE48                movea.l    A1, [A5 - 0x1B8]
00001814  303C 001F                move.w     D0, 0x1F
00001818  322E 0018                move.w     D1, [A6 + 0x18]
0000181C  4242                     clr.w      D2
0000181E  4EBA E7E0                jsr        [PC - 0x1820 /* 00000000 */]
00001822  0C41 0049                cmpi.w     D1, 0x49 /* 'I' */
00001826  6C34                     bge        +0x36 /* 0000185C */
00001828  066E 000E 0018           addi.w     [A6 + 0x18], 0xE
0000182E  0C41 002B                cmpi.w     D1, 0x2B /* '+' */
00001832  6D28                     blt        +0x2A /* 0000185C */
00001834  3D7C 0008 0008           move.w     [A6 + 0x8], 0x8
0000183A  3F00                     move.w     -[A7], D0
0000183C  303C 0020                move.w     D0, 0x20 /* ' ' */
00001840  4EAD 0052                jsr        [A5 + 0x52 /* export_6, CODE:1 @ 00000114 */]
00001844  301F                     move.w     D0, [A7]+
00001846  303C 001E                move.w     D0, 0x1E
0000184A  4EBA 43C8                jsr        [PC + 0x43C8 /* 00005C14 */]
0000184E  600C                     bra        +0xE /* 0000185C */
label00001850:
00001850  4A2D FC66                tst.b      [A5 - 0x39A]
00001854  6706                     beq        +0x8 /* 0000185C */
00001856  3D7C 0003 0018           move.w     [A6 + 0x18], 0x3
label0000185C:
0000185C  4E75                     rts
0000185E  0010 FC00                ori.b      [A0], 0x0
00001862  0010 FC01                ori.b      [A0], 0x1
00001866  0010 FC01                ori.b      [A0], 0x1
0000186A  0010 FC01                ori.b      [A0], 0x1
0000186E  0000 0000                ori.b      D0, 0x0
00001872  0000 0000                ori.b      D0, 0x0
00001876  0000 0000                ori.b      D0, 0x0
0000187A  0000 0000                ori.b      D0, 0x0
0000187E  0000 0001                ori.b      D0, 0x1
00001882  0000 0001                ori.b      D0, 0x1
00001886  0000 0001                ori.b      D0, 0x1
0000188A  0000 0002                ori.b      D0, 0x2
0000188E  0000 0002                ori.b      D0, 0x2
00001892  0000 0002                ori.b      D0, 0x2
00001896  0400 0003                subi.b     D0, 0x3
0000189A  0410 FC02                subi.b     [A0], 0x2
0000189E  0410 FC02                subi.b     [A0], 0x2
000018A2  0410 FC02                subi.b     [A0], 0x2
000018A6  0010 FC00                ori.b      [A0], 0x0
000018AA  0000 00FF                ori.b      D0, 0xFF
fn000018AE:
000018AE  2848                     movea.l    A4, A0
000018B0  3800                     move.w     D4, D0
000018B2  3A01                     move.w     D5, D1
000018B4  3C02                     move.w     D6, D2
000018B6  2E03                     move.l     D7, D3
000018B8  7024                     moveq.l    D0, 0x24
000018BA  A31E                     syscall    NewPtrClear, flags=3
000018BC  43FA 004E                lea.l      A1, [PC + 0x4E /* 0000190C, value 0x3016322E */]
000018C0  2149 0004                move.l     [A0 + 0x4], A1
000018C4  3144 0010                move.w     [A0 + 0x10], D4
000018C8  4844                     swap.w     D4
000018CA  4244                     clr.w      D4
000018CC  2144 0008                move.l     [A0 + 0x8], D4
000018D0  3145 0012                move.w     [A0 + 0x12], D5
000018D4  4845                     swap.w     D5
000018D6  4245                     clr.w      D5
000018D8  2145 000C                move.l     [A0 + 0xC], D5
000018DC  3146 0014                move.w     [A0 + 0x14], D6
000018E0  214C 0016                move.l     [A0 + 0x16], A4
000018E4  4268 001A                clr.w      [A0 + 0x1A]
000018E8  2147 001C                move.l     [A0 + 0x1C], D7
000018EC  217C FFFE 0002 0020      move.l     [A0 + 0x20], 0xFFFE0002
000018F4  20AD FE7E                move.l     [A0], [A5 - 0x182]
000018F8  2B48 FE7E                move.l     [A5 - 0x182], A0
000018FC  41E8 0010                lea.l      A0, [A0 + 0x10]
00001900  2E3C 0700 0000           move.l     D7, 0x7000000
00001906  4EBA 4042                jsr        [PC + 0x4042 /* 0000594A */]
0000190A  4E75                     rts
0000190C  3016                     move.w     D0, [A6]
0000190E  322E 0004                move.w     D1, [A6 + 0x4]
00001912  0641 0018                addi.w     D1, 0x18
00001916  3D40 0008                move.w     [A6 + 0x8], D0
0000191A  506E 0008                addq.w     [A6 + 0x8], 8
0000191E  3D41 000A                move.w     [A6 + 0xA], D1
00001922  506E 000A                addq.w     [A6 + 0xA], 8
00001926  0C40 0004                cmpi.w     D0, 0x4
0000192A  6E12                     bgt        +0x14 /* 0000193E */
label0000192C:
0000192C  44AE 0014                neg.l      [A6 + 0x14]
00001930  3F00                     move.w     -[A7], D0
00001932  303C 0023                move.w     D0, 0x23 /* '#' */
00001936  4EAD 0052                jsr        [A5 + 0x52 /* export_6, CODE:1 @ 00000114 */]
0000193A  301F                     move.w     D0, [A7]+
0000193C  6010                     bra        +0x12 /* 0000194E */
label0000193E:
0000193E  0C40 01EA                cmpi.w     D0, 0x1EA
00001942  6D0A                     blt        +0xC /* 0000194E */
00001944  0C41 00E6                cmpi.w     D1, 0xE6
00001948  6DE2                     blt        -0x1C /* 0000192C */
0000194A  6000 00DE                bra        +0xE0 /* 00001A2A */
label0000194E:
0000194E  226D FD48                movea.l    A1, [A5 - 0x2B8]
00001952  206D FFA8                movea.l    A0, [A5 - 0x58]
00001956  342E 0012                move.w     D2, [A6 + 0x12]
0000195A  5242                     addq.w     D2, 1
0000195C  0C42 0004                cmpi.w     D2, 0x4
00001960  6D02                     blt        +0x4 /* 00001964 */
00001962  4242                     clr.w      D2
label00001964:
00001964  3D42 0012                move.w     [A6 + 0x12], D2
00001968  4EBA E696                jsr        [PC - 0x196A /* 00000000 */]
0000196C  2016                     move.l     D0, [A6]
0000196E  222E 0004                move.l     D1, [A6 + 0x4]
00001972  D0AE 0014                add.l      D0, [A6 + 0x14]
00001976  2A2E 0018                move.l     D5, [A6 + 0x18]
0000197A  0685 0000 AAAA           addi.l     D5, 0xAAAA
00001980  D285                     add.l      D1, D5
00001982  2D45 0018                move.l     [A6 + 0x18], D5
00001986  2C80                     move.l     [A6], D0
00001988  2D41 0004                move.l     [A6 + 0x4], D1
0000198C  4840                     swap.w     D0
0000198E  4841                     swap.w     D1
00001990  362E 000C                move.w     D3, [A6 + 0xC]
00001994  246E 000E                movea.l    A2, [A6 + 0xE]
00001998  3832 3002                move.w     D4, [A2 + D3.w + 0x2]
0000199C  4A85                     tst.l      D5
0000199E  6C12                     bge        +0x14 /* 000019B2 */
label000019A0:
000019A0  3E32 30FC                move.w     D7, [A2 + D3.w - 0x4]
000019A4  6700 007E                beq        +0x80 /* 00001A24 */
000019A8  BE41                     cmp.w      D7, D1
000019AA  6D00 0078                blt        +0x7A /* 00001A24 */
000019AE  5943                     subq.w     D3, 4
000019B0  60EE                     bra        -0x10 /* 000019A0 */
label000019B2:
000019B2  3E32 3000                move.w     D7, [A2 + D3.w]
000019B6  BE41                     cmp.w      D7, D1
000019B8  6004                     bra        +0x6 /* 000019BE */
label000019BA:
000019BA  5843                     addq.w     D3, 4
000019BC  60F4                     bra        -0xA /* 000019B2 */
label000019BE:
000019BE  6E00 0064                bgt        +0x66 /* 00001A24 */
000019C2  3832 3002                move.w     D4, [A2 + D3.w + 0x2]
label000019C6:
000019C6  3E32 4002                move.w     D7, [A2 + D4.w + 0x2]
000019CA  0647 0010                addi.w     D7, 0x10
000019CE  B047                     cmp.w      D0, D7
000019D0  6E0E                     bgt        +0x10 /* 000019E0 */
000019D2  B072 4000                cmp.w      D0, [A2 + D4.w]
000019D6  6DE2                     blt        -0x1C /* 000019BA */
000019D8  3232 3000                move.w     D1, [A2 + D3.w]
000019DC  6000 000E                bra        +0x10 /* 000019EC */
label000019E0:
000019E0  0644 0012                addi.w     D4, 0x12
000019E4  4A72 4000                tst.w      [A2 + D4.w]
000019E8  67D0                     beq        -0x2E /* 000019BA */
000019EA  60DA                     bra        -0x24 /* 000019C6 */
label000019EC:
000019EC  0C72 001D 4004           cmpi.w     [A2 + D4.w + 0x4], 0x1D
000019F2  6700 0036                beq        +0x38 /* 00001A2A */
000019F6  0CAE 0001 5554 0018      cmpi.l     [A6 + 0x18], 0x15554
000019FE  6F0C                     ble        +0xE /* 00001A0C */
00001A00  3F00                     move.w     -[A7], D0
00001A02  303C 0023                move.w     D0, 0x23 /* '#' */
00001A06  4EAD 0052                jsr        [A5 + 0x52 /* export_6, CODE:1 @ 00000114 */]
00001A0A  301F                     move.w     D0, [A7]+
label00001A0C:
00001A0C  4841                     swap.w     D1
00001A0E  4241                     clr.w      D1
00001A10  2D41 0004                move.l     [A6 + 0x4], D1
00001A14  0485 0001 FFFE           subi.l     D5, 0x1FFFE
00001A1A  6E02                     bgt        +0x4 /* 00001A1E */
00001A1C  7A00                     moveq.l    D5, 0x00
label00001A1E:
00001A1E  4485                     neg.l      D5
00001A20  2D45 0018                move.l     [A6 + 0x18], D5
label00001A24:
00001A24  3D43 000C                move.w     [A6 + 0xC], D3
00001A28  4E75                     rts
label00001A2A:
00001A2A  41EE 0008                lea.l      A0, [A6 + 0x8]
00001A2E  4EBA 3F4C                jsr        [PC + 0x3F4C /* 0000597C */]
00001A32  42AE FFFC                clr.l      [A6 - 0x4]
00001A36  60EC                     bra        -0x12 /* 00001A24 */
export_78:
00001A38  3800                     move.w     D4, D0
00001A3A  3A01                     move.w     D5, D1
00001A3C  3C02                     move.w     D6, D2
00001A3E  701C                     moveq.l    D0, 0x1C
00001A40  A31E                     syscall    NewPtrClear, flags=3
00001A42  43FA 0038                lea.l      A1, [PC + 0x38 /* 00001A7C, value 0x3016322E */]
00001A46  2149 0004                move.l     [A0 + 0x4], A1
00001A4A  3144 0008                move.w     [A0 + 0x8], D4
00001A4E  3145 000A                move.w     [A0 + 0xA], D5
00001A52  3146 0014                move.w     [A0 + 0x14], D6
00001A56  3143 0016                move.w     [A0 + 0x16], D3
00001A5A  5C44                     addq.w     D4, 6
00001A5C  3144 000E                move.w     [A0 + 0xE], D4
00001A60  0645 0014                addi.w     D5, 0x14
00001A64  3145 0010                move.w     [A0 + 0x10], D5
00001A68  4268 000C                clr.w      [A0 + 0xC]
00001A6C  317C 000A 0012           move.w     [A0 + 0x12], 0xA /* '\n' */
00001A72  20AD FE7E                move.l     [A0], [A5 - 0x182]
00001A76  2B48 FE7E                move.l     [A5 - 0x182], A0
00001A7A  4E75                     rts
00001A7C  3016                     move.w     D0, [A6]
00001A7E  322E 0002                move.w     D1, [A6 + 0x2]
00001A82  3E2E 0004                move.w     D7, [A6 + 0x4]
00001A86  4EFB 7002                jmp        [PC + D7.w + 0x2]
00001A8A  4EFA 0012                jmp        [PC + 0x12 /* 00001A9E */]
00001A8E  4EFA 00F4                jmp        [PC + 0xF4 /* 00001B84 */]
00001A92  4EFA 002E                jmp        [PC + 0x2E /* 00001AC2 */]
00001A96  4EFA 0098                jmp        [PC + 0x98 /* 00001B30 */]
00001A9A  4EFA 01D4                jmp        [PC + 0x1D4 /* 00001C70 */]
label00001A9E:
00001A9E  536E 000A                subq.w     [A6 + 0xA], 1
00001AA2  6E00 01FC                bgt        +0x1FE /* 00001CA0 */
00001AA6  0C6D FFFE FCE4           cmpi.w     [A5 - 0x31C], 0xFFFE
00001AAC  6700 01F2                beq        +0x1F4 /* 00001CA0 */
00001AB0  3D7C 0008 0004           move.w     [A6 + 0x4], 0x8
00001AB6  3CBC 01C0                move.w     [A6], 0x1C0
00001ABA  426E 000A                clr.w      [A6 + 0xA]
00001ABE  6000 01E0                bra        +0x1E2 /* 00001CA0 */
label00001AC2:
00001AC2  226D FD18                movea.l    A1, [A5 - 0x2E8]
00001AC6  206D FFA8                movea.l    A0, [A5 - 0x58]
00001ACA  362E 000A                move.w     D3, [A6 + 0xA]
00001ACE  0C43 0004                cmpi.w     D3, 0x4
00001AD2  6C06                     bge        +0x8 /* 00001ADA */
00001AD4  4242                     clr.w      D2
00001AD6  5D56                     subq.w     [A6], 6
00001AD8  6004                     bra        +0x6 /* 00001ADE */
label00001ADA:
00001ADA  343C 0001                move.w     D2, 0x1
label00001ADE:
00001ADE  4EBA E520                jsr        [PC - 0x1AE0 /* 00000000 */]
00001AE2  526E 000A                addq.w     [A6 + 0xA], 1
00001AE6  0C43 0008                cmpi.w     D3, 0x8
00001AEA  6D00 01B4                blt        +0x1B6 /* 00001CA0 */
00001AEE  3D7C 0004 0004           move.w     [A6 + 0x4], 0x4
00001AF4  426E 000A                clr.w      [A6 + 0xA]
00001AF8  3F00                     move.w     -[A7], D0
00001AFA  303C 001E                move.w     D0, 0x1E
00001AFE  4EAD 0052                jsr        [A5 + 0x52 /* export_6, CODE:1 @ 00000114 */]
00001B02  301F                     move.w     D0, [A7]+
00001B04  3D7C 0384 0006           move.w     [A6 + 0x6], 0x384
00001B0A  41EE 0006                lea.l      A0, [A6 + 0x6]
00001B0E  2E3C 0400 0000           move.l     D7, 0x4000000
00001B14  4EBA 3E34                jsr        [PC + 0x3E34 /* 0000594A */]
00001B18  3D7C 0384 0010           move.w     [A6 + 0x10], 0x384
00001B1E  41EE 0010                lea.l      A0, [A6 + 0x10]
00001B22  2E3C 0400 0000           move.l     D7, 0x4000000
00001B28  4EBA 3E20                jsr        [PC + 0x3E20 /* 0000594A */]
00001B2C  6000 0172                bra        +0x174 /* 00001CA0 */
label00001B30:
00001B30  0C6D FFFF FCE4           cmpi.w     [A5 - 0x31C], 0xFFFF
00001B36  6700 0100                beq        +0x102 /* 00001C38 */
00001B3A  226D FD18                movea.l    A1, [A5 - 0x2E8]
00001B3E  206D FFA8                movea.l    A0, [A5 - 0x58]
00001B42  362E 000A                move.w     D3, [A6 + 0xA]
00001B46  0C43 0005                cmpi.w     D3, 0x5
00001B4A  6C0A                     bge        +0xC /* 00001B56 */
00001B4C  426D FCE4                clr.w      [A5 - 0x31C]
00001B50  4242                     clr.w      D2
00001B52  5C56                     addq.w     [A6], 6
00001B54  600A                     bra        +0xC /* 00001B60 */
label00001B56:
00001B56  3B7C 0001 FCE4           move.w     [A5 - 0x31C], 0x1
00001B5C  343C 0001                move.w     D2, 0x1
label00001B60:
00001B60  4EBA E49E                jsr        [PC - 0x1B62 /* 00000000 */]
00001B64  536E 000A                subq.w     [A6 + 0xA], 1
00001B68  6C00 0136                bge        +0x138 /* 00001CA0 */
00001B6C  426E 0004                clr.w      [A6 + 0x4]
00001B70  4EBA 40F6                jsr        [PC + 0x40F6 /* 00005C68 */]
00001B74  C06E 000C                and.w      D0, [A6 + 0xC]
00001B78  D06E 000E                add.w      D0, [A6 + 0xE]
00001B7C  3D40 000A                move.w     [A6 + 0xA], D0
00001B80  6000 011E                bra        +0x120 /* 00001CA0 */
label00001B84:
00001B84  0C6D FFFF FCE4           cmpi.w     [A5 - 0x31C], 0xFFFF
00001B8A  6700 00AC                beq        +0xAE /* 00001C38 */
00001B8E  3B7C 0001 FCE4           move.w     [A5 - 0x31C], 0x1
00001B94  206D FFA8                movea.l    A0, [A5 - 0x58]
00001B98  362E 000A                move.w     D3, [A6 + 0xA]
00001B9C  303C 014F                move.w     D0, 0x14F
00001BA0  323C 0096                move.w     D1, 0x96
00001BA4  143B 3074                move.b     D2, [PC + D3.w + 0x74]
00001BA8  4882                     ext.w      D2
00001BAA  6712                     beq        +0x14 /* 00001BBE */
00001BAC  6E06                     bgt        +0x8 /* 00001BB4 */
00001BAE  4442                     neg.w      D2
00001BB0  303C 0164                move.w     D0, 0x164
label00001BB4:
00001BB4  5342                     subq.w     D2, 1
00001BB6  226D FCE0                movea.l    A1, [A5 - 0x320]
00001BBA  4EBA E444                jsr        [PC - 0x1BBC /* 00000000 */]
label00001BBE:
00001BBE  303C 0183                move.w     D0, 0x183
00001BC2  323C 0090                move.w     D1, 0x90
00001BC6  143B 305C                move.b     D2, [PC + D3.w + 0x5C]
00001BCA  4882                     ext.w      D2
00001BCC  226D FD14                movea.l    A1, [A5 - 0x2EC]
00001BD0  4EBA E42E                jsr        [PC - 0x1BD2 /* 00000000 */]
00001BD4  383C 0166                move.w     D4, 0x166
00001BD8  1A3B 3054                move.b     D5, [PC + D3.w + 0x54]
00001BDC  4885                     ext.w      D5
00001BDE  D845                     add.w      D4, D5
00001BE0  3D44 0006                move.w     [A6 + 0x6], D4
00001BE4  0644 000E                addi.w     D4, 0xE
00001BE8  3D44 0010                move.w     [A6 + 0x10], D4
00001BEC  5243                     addq.w     D3, 1
00001BEE  3D43 000A                move.w     [A6 + 0xA], D3
00001BF2  1E3B 3030                move.b     D7, [PC + D3.w + 0x30]
00001BF6  6C00 00A8                bge        +0xAA /* 00001CA0 */
00001BFA  3D7C 0007 000A           move.w     [A6 + 0xA], 0x7
00001C00  3D7C 000C 0004           move.w     [A6 + 0x4], 0xC
00001C06  41EE 0006                lea.l      A0, [A6 + 0x6]
00001C0A  4EBA 3D70                jsr        [PC + 0x3D70 /* 0000597C */]
00001C0E  41EE 0010                lea.l      A0, [A6 + 0x10]
00001C12  4EBA 3D68                jsr        [PC + 0x3D68 /* 0000597C */]
00001C16  6000 0088                bra        +0x8A /* 00001CA0 */
00001C1A  00FF                     .incomplete
00001C1C  0201 0201                andi.b     D1, 0x1
00001C20  FE00 0000                .unknown   0xFE00 0x0000 (W = 7)
00001C24  0001 0001                ori.b      D1, 0x1
00001C28  0001 0001                ori.b      D1, 0x1
00001C2C  00FF                     .incomplete
00001C2E  3C24                     move.w     D6, -[A4]
00001C30  1006                     move.b     D0, D6
00001C32  000E 2239                ori.b      A6, 0x39 /* '9' */
00001C36  4000                     negx.b     D0
label00001C38:
00001C38  3D7C 0064 000A           move.w     [A6 + 0xA], 0x64 /* 'd' */
00001C3E  3D7C 0010 0004           move.w     [A6 + 0x4], 0x10
00001C44  41EE 0006                lea.l      A0, [A6 + 0x6]
00001C48  4EBA 3D32                jsr        [PC + 0x3D32 /* 0000597C */]
00001C4C  41EE 0010                lea.l      A0, [A6 + 0x10]
00001C50  4EBA 3D2A                jsr        [PC + 0x3D2A /* 0000597C */]
00001C54  303C 0018                move.w     D0, 0x18
00001C58  4EBA 3FBA                jsr        [PC + 0x3FBA /* 00005C14 */]
00001C5C  206D FFA8                movea.l    A0, [A5 - 0x58]
00001C60  3F00                     move.w     -[A7], D0
00001C62  303C 001F                move.w     D0, 0x1F
00001C66  4EAD 0052                jsr        [A5 + 0x52 /* export_6, CODE:1 @ 00000114 */]
00001C6A  301F                     move.w     D0, [A7]+
00001C6C  6000 0002                bra        +0x4 /* 00001C70 */
label00001C70:
00001C70  226D FD18                movea.l    A1, [A5 - 0x2E8]
00001C74  206D FFA8                movea.l    A0, [A5 - 0x58]
00001C78  343C 0002                move.w     D2, 0x2
00001C7C  303C 01A9                move.w     D0, 0x1A9
00001C80  0641 000A                addi.w     D1, 0xA /* '\n' */
00001C84  4EBA E37A                jsr        [PC - 0x1C86 /* 00000000 */]
00001C88  536E 000A                subq.w     [A6 + 0xA], 1
00001C8C  6E00 0012                bgt        +0x14 /* 00001CA0 */
00001C90  3D7C 0008 000A           move.w     [A6 + 0xA], 0x8
00001C96  3D7C 000C 0004           move.w     [A6 + 0x4], 0xC
00001C9C  6000 0002                bra        +0x4 /* 00001CA0 */
label00001CA0:
00001CA0  4E75                     rts
export_79:
00001CA2  2848                     movea.l    A4, A0
00001CA4  7018                     moveq.l    D0, 0x18
00001CA6  A31E                     syscall    NewPtrClear, flags=3
00001CA8  43FA 0026                lea.l      A1, [PC + 0x26 /* 00001CD0, value 0x206DFFA8 */]
00001CAC  2149 0004                move.l     [A0 + 0x4], A1
00001CB0  214C 0008                move.l     [A0 + 0x8], A4
00001CB4  317C FFFF 000C           move.w     [A0 + 0xC], 0xFFFF
00001CBA  4268 000E                clr.w      [A0 + 0xE]
00001CBE  20AD FE7E                move.l     [A0], [A5 - 0x182]
00001CC2  2B48 FE7E                move.l     [A5 - 0x182], A0
00001CC6  426C 0006                clr.w      [A4 + 0x6]
00001CCA  426D FCE4                clr.w      [A5 - 0x31C]
00001CCE  4E75                     rts
00001CD0  206D FFA8                movea.l    A0, [A5 - 0x58]
00001CD4  226D FCDC                movea.l    A1, [A5 - 0x324]
00001CD8  303C 01B2                move.w     D0, 0x1B2
00001CDC  323C 004D                move.w     D1, 0x4D /* 'M' */
00001CE0  4A6E 0004                tst.w      [A6 + 0x4]
00001CE4  6C20                     bge        +0x22 /* 00001D06 */
00001CE6  2456                     movea.l    A2, [A6]
00001CE8  4A6A 0006                tst.w      [A2 + 0x6]
00001CEC  6710                     beq        +0x12 /* 00001CFE */
00001CEE  357C FFFF 0006           move.w     [A2 + 0x6], 0xFFFF
00001CF4  426E 0004                clr.w      [A6 + 0x4]
00001CF8  3B7C FFFE FCE4           move.w     [A5 - 0x31C], 0xFFFE
label00001CFE:
00001CFE  4242                     clr.w      D2
00001D00  4EBA E2FE                jsr        [PC - 0x1D02 /* 00000000 */]
00001D04  6030                     bra        +0x32 /* 00001D36 */
label00001D06:
00001D06  362E 0004                move.w     D3, [A6 + 0x4]
00001D0A  143B 3034                move.b     D2, [PC + D3.w + 0x34]
00001D0E  4882                     ext.w      D2
00001D10  6C0E                     bge        +0x10 /* 00001D20 */
00001D12  4242                     clr.w      D2
00001D14  3D7C FFFE 0004           move.w     [A6 + 0x4], 0xFFFE
00001D1A  2456                     movea.l    A2, [A6]
00001D1C  426A 0006                clr.w      [A2 + 0x6]
label00001D20:
00001D20  0C42 002A                cmpi.w     D2, 0x2A /* '*' */
00001D24  6608                     bne        +0xA /* 00001D2E */
00001D26  6100 0032                bsr        +0x34 /* 00001D5A */
00001D2A  343C 0003                move.w     D2, 0x3
label00001D2E:
00001D2E  4EBA E2D0                jsr        [PC - 0x1D30 /* 00000000 */]
00001D32  526E 0004                addq.w     [A6 + 0x4], 1
label00001D36:
00001D36  4A6E 0006                tst.w      [A6 + 0x6]
00001D3A  6600 0036                bne        +0x38 /* 00001D72 */
00001D3E  4E75                     rts
00001D40  0001 0102                ori.b      D1, 0x2
00001D44  022A 0303 0303           andi.b     [A2 + 0x303], 0x3
00001D4A  0303                     btst       D3, D1
00001D4C  0303                     btst       D3, D1
00001D4E  0303                     btst       D3, D1
00001D50  0303                     btst       D3, D1
00001D52  0303                     btst       D3, D1
00001D54  0202 0101                andi.b     D2, 0x1
00001D58  FF00                     .extension 0xF00 <<F/4-5/7>> // unimplemented
fn00001D5A:
00001D5A  3D7C 0001 0006           move.w     [A6 + 0x6], 0x1
00001D60  3D7C FFDA 0008           move.w     [A6 + 0x8], 0xFFDA
00001D66  3D7C 005C 000A           move.w     [A6 + 0xA], 0x5C /* '\\' */
00001D6C  426E 000C                clr.w      [A6 + 0xC]
00001D70  4E75                     rts
label00001D72:
00001D72  206D FFA8                movea.l    A0, [A5 - 0x58]
00001D76  226D FCD8                movea.l    A1, [A5 - 0x328]
00001D7A  303C 01B8                move.w     D0, 0x1B8
00001D7E  322E 0008                move.w     D1, [A6 + 0x8]
00001D82  0C41 005C                cmpi.w     D1, 0x5C /* '\\' */
00001D86  6E0E                     bgt        +0x10 /* 00001D96 */
00001D88  323C 005C                move.w     D1, 0x5C /* '\\' */
00001D8C  4242                     clr.w      D2
00001D8E  4EBA E270                jsr        [PC - 0x1D90 /* 00000000 */]
00001D92  0641 000D                addi.w     D1, 0xD /* '\r' */
label00001D96:
00001D96  343C 0001                move.w     D2, 0x1
label00001D9A:
00001D9A  B26E 000A                cmp.w      D1, [A6 + 0xA]
00001D9E  6E0A                     bgt        +0xC /* 00001DAA */
00001DA0  4EBA E25E                jsr        [PC - 0x1DA2 /* 00000000 */]
00001DA4  0641 000E                addi.w     D1, 0xE
00001DA8  60F0                     bra        -0xE /* 00001D9A */
label00001DAA:
00001DAA  3E2E 000C                move.w     D7, [A6 + 0xC]
00001DAE  4EFB 7002                jmp        [PC + D7.w + 0x2]
00001DB2  4EFA 000A                jmp        [PC + 0xA /* 00001DBE */]
00001DB6  4EFA 0050                jmp        [PC + 0x50 /* 00001E08 */]
00001DBA  4EFA 0076                jmp        [PC + 0x76 /* 00001E32 */]
label00001DBE:
00001DBE  0C41 00A2                cmpi.w     D1, 0xA2
00001DC2  6C0A                     bge        +0xC /* 00001DCE */
00001DC4  066E 000E 000A           addi.w     [A6 + 0xA], 0xE
00001DCA  6000 009C                bra        +0x9E /* 00001E68 */
label00001DCE:
00001DCE  0C6D 0001 FCE4           cmpi.w     [A5 - 0x31C], 0x1
00001DD4  661C                     bne        +0x1E /* 00001DF2 */
00001DD6  3F00                     move.w     -[A7], D0
00001DD8  303C 0056                move.w     D0, 0x56 /* 'V' */
00001DDC  4EAD 0052                jsr        [A5 + 0x52 /* export_6, CODE:1 @ 00000114 */]
00001DE0  301F                     move.w     D0, [A7]+
00001DE2  3D7C 0004 000C           move.w     [A6 + 0xC], 0x4
00001DE8  3B7C FFFF FCE4           move.w     [A5 - 0x31C], 0xFFFF
00001DEE  6000 0078                bra        +0x7A /* 00001E68 */
label00001DF2:
00001DF2  3D7C 0008 000C           move.w     [A6 + 0xC], 0x8
00001DF8  3F00                     move.w     -[A7], D0
00001DFA  303C 0056                move.w     D0, 0x56 /* 'V' */
00001DFE  4EAD 0052                jsr        [A5 + 0x52 /* export_6, CODE:1 @ 00000114 */]
00001E02  301F                     move.w     D0, [A7]+
00001E04  6000 0062                bra        +0x64 /* 00001E68 */
label00001E08:
00001E08  323C 00A2                move.w     D1, 0xA2
00001E0C  0440 000E                subi.w     D0, 0xE
00001E10  226D FCD4                movea.l    A1, [A5 - 0x32C]
00001E14  526E 000E                addq.w     [A6 + 0xE], 1
00001E18  342E 000E                move.w     D2, [A6 + 0xE]
00001E1C  0242 0001                andi.w     D2, 0x1
00001E20  4EBA E1DE                jsr        [PC - 0x1E22 /* 00000000 */]
00001E24  0C6E 00A2 0008           cmpi.w     [A6 + 0x8], 0xA2
00001E2A  6C00 0044                bge        +0x46 /* 00001E70 */
00001E2E  6000 0038                bra        +0x3A /* 00001E68 */
label00001E32:
00001E32  0C41 00AF                cmpi.w     D1, 0xAF
00001E36  6C0A                     bge        +0xC /* 00001E42 */
00001E38  066E 000E 000A           addi.w     [A6 + 0xA], 0xE
00001E3E  6000 0028                bra        +0x2A /* 00001E68 */
label00001E42:
00001E42  323C 00AF                move.w     D1, 0xAF
00001E46  0440 000E                subi.w     D0, 0xE
00001E4A  226D FCD4                movea.l    A1, [A5 - 0x32C]
00001E4E  526E 000E                addq.w     [A6 + 0xE], 1
00001E52  342E 000E                move.w     D2, [A6 + 0xE]
00001E56  0242 0001                andi.w     D2, 0x1
00001E5A  4EBA E1A4                jsr        [PC - 0x1E5C /* 00000000 */]
00001E5E  0C6E 00AF 0008           cmpi.w     [A6 + 0x8], 0xAF
00001E64  6C00 000A                bge        +0xC /* 00001E70 */
label00001E68:
00001E68  066E 000E 0008           addi.w     [A6 + 0x8], 0xE
00001E6E  4E75                     rts
label00001E70:
00001E70  426E 0006                clr.w      [A6 + 0x6]
00001E74  426D FCE4                clr.w      [A5 - 0x31C]
00001E78  60EE                     bra        -0x10 /* 00001E68 */
export_80:
00001E7A  2448                     movea.l    A2, A0
00001E7C  702E                     moveq.l    D0, 0x2E
00001E7E  A31E                     syscall    NewPtrClear, flags=3
00001E80  43FA 0416                lea.l      A1, [PC + 0x416 /* 00002298, value 0x4A6E000E, cstring "Jn" */]
00001E84  2149 0004                move.l     [A0 + 0x4], A1
00001E88  7012                     moveq.l    D0, 0x12
00001E8A  2248                     movea.l    A1, A0
00001E8C  5049                     addq.w     A1, 8
label00001E8E:
00001E8E  32DA                     move.w     [A1]+, [A2]+
00001E90  51C8 FFFC                dbf        D0, -0x6 /* 00001E8E */
00001E94  20AD FE7E                move.l     [A0], [A5 - 0x182]
00001E98  2B48 FE7E                move.l     [A5 - 0x182], A0
00001E9C  4E75                     rts
00001E9E  3016                     move.w     D0, [A6]
00001EA0  322E 0002                move.w     D1, [A6 + 0x2]
00001EA4  206D FFA8                movea.l    A0, [A5 - 0x58]
00001EA8  3E2E 000A                move.w     D7, [A6 + 0xA]
00001EAC  4EFB 7002                jmp        [PC + D7.w + 0x2]
00001EB0  4EFA 0306                jmp        [PC + 0x306 /* 000021B8 */]
00001EB4  4EFA 0266                jmp        [PC + 0x266 /* 0000211C */]
00001EB8  4EFA 01DC                jmp        [PC + 0x1DC /* 00002096 */]
00001EBC  4EFA 01B0                jmp        [PC + 0x1B0 /* 0000206E */]
00001EC0  4EFA 0164                jmp        [PC + 0x164 /* 00002026 */]
00001EC4  4EFA 028C                jmp        [PC + 0x28C /* 00002152 */]
00001EC8  4EFA 0234                jmp        [PC + 0x234 /* 000020FE */]
00001ECC  4EFA 000E                jmp        [PC + 0xE /* 00001EDC */]
00001ED0  4EFA 0098                jmp        [PC + 0x98 /* 00001F6A */]
00001ED4  4EFA 00F0                jmp        [PC + 0xF0 /* 00001FC6 */]
00001ED8  4EFA 02A6                jmp        [PC + 0x2A6 /* 00002180 */]
label00001EDC:
00001EDC  D06E 0008                add.w      D0, [A6 + 0x8]
00001EE0  382E 000E                move.w     D4, [A6 + 0xE]
00001EE4  123B 4060                move.b     D1, [PC + D4.w + 0x60]
00001EE8  4881                     ext.w      D1
00001EEA  526E 000E                addq.w     [A6 + 0xE], 1
00001EEE  4A6E 0008                tst.w      [A6 + 0x8]
00001EF2  6E12                     bgt        +0x14 /* 00001F06 */
00001EF4  47FA 0312                lea.l      A3, [PC + 0x312 /* 00002208, value 0x10203, cstring "" */]
00001EF8  B06E 0018                cmp.w      D0, [A6 + 0x18]
00001EFC  6E18                     bgt        +0x1A /* 00001F16 */
00001EFE  3D7C 0010 000A           move.w     [A6 + 0xA], 0x10
00001F04  6010                     bra        +0x12 /* 00001F16 */
label00001F06:
00001F06  47FA 0305                lea.l      A3, [PC + 0x305 /* 0000220D, value 0x4050607 */]
00001F0A  B06E 0018                cmp.w      D0, [A6 + 0x18]
00001F0E  6D06                     blt        +0x8 /* 00001F16 */
00001F10  3D7C 0010 000A           move.w     [A6 + 0xA], 0x10
label00001F16:
00001F16  362E 000C                move.w     D3, [A6 + 0xC]
label00001F1A:
00001F1A  1433 3000                move.b     D2, [A3 + D3.w]
00001F1E  4882                     ext.w      D2
00001F20  6C04                     bge        +0x6 /* 00001F26 */
00001F22  4243                     clr.w      D3
00001F24  60F4                     bra        -0xA /* 00001F1A */
label00001F26:
00001F26  226D FCCC                movea.l    A1, [A5 - 0x334]
00001F2A  4EBA E0D4                jsr        [PC - 0x1F2C /* 00000000 */]
00001F2E  5243                     addq.w     D3, 1
00001F30  3D43 000C                move.w     [A6 + 0xC], D3
00001F34  0C6E 0010 000A           cmpi.w     [A6 + 0xA], 0x10
00001F3A  6600 02D6                bne        +0x2D8 /* 00002212 */
00001F3E  426E 000C                clr.w      [A6 + 0xC]
00001F42  6000 02CE                bra        +0x2D0 /* 00002212 */
00001F46  1818                     move.b     D4, [A0]+
00001F48  1717                     move.b     -[A3], [A7]
00001F4A  1819                     move.b     D4, [A1]+
00001F4C  1B1B                     move.b     -[A5], [A3]+
00001F4E  1B19                     move.b     -[A5], [A1]+
00001F50  1816                     move.b     D4, [A6]
00001F52  1413                     move.b     D2, [A3]
00001F54  1211                     move.b     D1, [A1]
00001F56  1111                     move.b     -[A0], [A1]
00001F58  1112                     move.b     -[A0], [A2]
00001F5A  1313                     move.b     -[A1], [A3]
00001F5C  1313                     move.b     -[A1], [A3]
00001F5E  1414                     move.b     D2, [A4]
00001F60  1414                     move.b     D2, [A4]
00001F62  1414                     move.b     D2, [A4]
00001F64  1414                     move.b     D2, [A4]
00001F66  1414                     move.b     D2, [A4]
00001F68  1414                     move.b     D2, [A4]
label00001F6A:
00001F6A  D06E 0008                add.w      D0, [A6 + 0x8]
00001F6E  4A6E 0008                tst.w      [A6 + 0x8]
00001F72  6E12                     bgt        +0x14 /* 00001F86 */
00001F74  47FA 0292                lea.l      A3, [PC + 0x292 /* 00002208, value 0x10203, cstring "" */]
00001F78  B06E 0018                cmp.w      D0, [A6 + 0x18]
00001F7C  6E18                     bgt        +0x1A /* 00001F96 */
00001F7E  3D7C 0010 000A           move.w     [A6 + 0xA], 0x10
00001F84  6010                     bra        +0x12 /* 00001F96 */
label00001F86:
00001F86  47FA 0285                lea.l      A3, [PC + 0x285 /* 0000220D, value 0x4050607 */]
00001F8A  B06E 0018                cmp.w      D0, [A6 + 0x18]
00001F8E  6D06                     blt        +0x8 /* 00001F96 */
00001F90  3D7C 0010 000A           move.w     [A6 + 0xA], 0x10
label00001F96:
00001F96  362E 000C                move.w     D3, [A6 + 0xC]
label00001F9A:
00001F9A  1433 3000                move.b     D2, [A3 + D3.w]
00001F9E  4882                     ext.w      D2
00001FA0  6C04                     bge        +0x6 /* 00001FA6 */
00001FA2  4243                     clr.w      D3
00001FA4  60F4                     bra        -0xA /* 00001F9A */
label00001FA6:
00001FA6  226D FCCC                movea.l    A1, [A5 - 0x334]
00001FAA  4EBA E054                jsr        [PC - 0x1FAC /* 00000000 */]
00001FAE  5243                     addq.w     D3, 1
00001FB0  3D43 000C                move.w     [A6 + 0xC], D3
00001FB4  0C6E 0010 000A           cmpi.w     [A6 + 0xA], 0x10
00001FBA  6600 0256                bne        +0x258 /* 00002212 */
00001FBE  426E 000C                clr.w      [A6 + 0xC]
00001FC2  6000 024E                bra        +0x250 /* 00002212 */
label00001FC6:
00001FC6  362E 000C                move.w     D3, [A6 + 0xC]
00001FCA  303B 3036                move.w     D0, [PC + D3.w + 0x36]
00001FCE  5443                     addq.w     D3, 2
00001FD0  323B 3030                move.w     D1, [PC + D3.w + 0x30]
00001FD4  5443                     addq.w     D3, 2
00001FD6  343B 302A                move.w     D2, [PC + D3.w + 0x2A]
00001FDA  5443                     addq.w     D3, 2
00001FDC  226D FCC8                movea.l    A1, [A5 - 0x338]
00001FE0  4EBA E01E                jsr        [PC - 0x1FE2 /* 00000000 */]
00001FE4  3D43 000C                move.w     [A6 + 0xC], D3
00001FE8  3E3B 3018                move.w     D7, [PC + D3.w + 0x18]
00001FEC  6E00 0224                bgt        +0x226 /* 00002212 */
00001FF0  426E 000C                clr.w      [A6 + 0xC]
00001FF4  426E 000E                clr.w      [A6 + 0xE]
00001FF8  3D7C 001C 000A           move.w     [A6 + 0xA], 0x1C
00001FFE  6000 0212                bra        +0x214 /* 00002212 */
00002002  01CA                     .incomplete
00002004  FFFA                     .invalid   <<F/7/7>>
00002006  0005 01C4                ori.b      D5, 0xC4
0000200A  FFFE                     .invalid   <<F/7/7>>
0000200C  0005 01BD                ori.b      D5, 0xBD
00002010  0004 0005                ori.b      D4, 0x5
00002014  01B6 000B                bclr       [A6 + D0.w + 0xB], D0
00002018  0005 01AE                ori.b      D5, 0xAE
0000201C  0017 0006                ori.b      [A7], 0x6
00002020  FFFF                     .invalid   <<F/7/7>>
00002022  FFFF                     .invalid   <<F/7/7>>
00002024  FFFF                     .invalid   <<F/7/7>>
label00002026:
00002026  362E 000C                move.w     D3, [A6 + 0xC]
0000202A  143B 302E                move.b     D2, [PC + D3.w + 0x2E]
0000202E  4882                     ext.w      D2
00002030  183B 3032                move.b     D4, [PC + D3.w + 0x32]
00002034  4884                     ext.w      D4
00002036  D244                     add.w      D1, D4
00002038  226D FCC8                movea.l    A1, [A5 - 0x338]
0000203C  4EBA DFC2                jsr        [PC - 0x203E /* 00000000 */]
00002040  5243                     addq.w     D3, 1
00002042  3D43 000C                move.w     [A6 + 0xC], D3
00002046  143B 3012                move.b     D2, [PC + D3.w + 0x12]
0000204A  6C00 01C6                bge        +0x1C8 /* 00002212 */
0000204E  3D7C 0008 000A           move.w     [A6 + 0xA], 0x8
00002054  5D40                     subq.w     D0, 6
00002056  6000 01BA                bra        +0x1BC /* 00002212 */
0000205A  0000 0101                ori.b      D0, 0x1
0000205E  0202 0203                andi.b     D2, 0x3
00002062  03FF                     .incomplete
00002064  0800 0200                btst.b     D0, 0x0
00002068  0B00                     btst       D0, D5
0000206A  0000 0000                ori.b      D0, 0x0
label0000206E:
0000206E  226D FCCC                movea.l    A1, [A5 - 0x334]
00002072  343C 0001                move.w     D2, 0x1
00002076  4EBA DF88                jsr        [PC - 0x2078 /* 00000000 */]
0000207A  0641 000F                addi.w     D1, 0xF
0000207E  B26E 0016                cmp.w      D1, [A6 + 0x16]
00002082  6D00 018E                blt        +0x190 /* 00002212 */
00002086  426E 000A                clr.w      [A6 + 0xA]
0000208A  322E 0016                move.w     D1, [A6 + 0x16]
0000208E  426E 000C                clr.w      [A6 + 0xC]
00002092  6000 017E                bra        +0x180 /* 00002212 */
label00002096:
00002096  226D FCC8                movea.l    A1, [A5 - 0x338]
0000209A  343C 0004                move.w     D2, 0x4
0000209E  4EBA DF60                jsr        [PC - 0x20A0 /* 00000000 */]
000020A2  0641 000A                addi.w     D1, 0xA /* '\n' */
000020A6  B26E 0014                cmp.w      D1, [A6 + 0x14]
000020AA  6D00 0166                blt        +0x168 /* 00002212 */
000020AE  3D7C 000C 000A           move.w     [A6 + 0xA], 0xC
000020B4  322E 0014                move.w     D1, [A6 + 0x14]
000020B8  6000 0158                bra        +0x15A /* 00002212 */
label000020BC:
000020BC  3F00                     move.w     -[A7], D0
000020BE  4EBA 3BA8                jsr        [PC + 0x3BA8 /* 00005C68 */]
000020C2  0C40 4650                cmpi.w     D0, 0x4650 /* 'FP' */
000020C6  6D14                     blt        +0x16 /* 000020DC */
000020C8  3D7C 0004 000A           move.w     [A6 + 0xA], 0x4
000020CE  3F00                     move.w     -[A7], D0
000020D0  303C 0044                move.w     D0, 0x44 /* 'D' */
000020D4  4EAD 0052                jsr        [A5 + 0x52 /* export_6, CODE:1 @ 00000114 */]
000020D8  301F                     move.w     D0, [A7]+
000020DA  6018                     bra        +0x1A /* 000020F4 */
label000020DC:
000020DC  0C40 F060                cmpi.w     D0, 0xF060
000020E0  6D04                     blt        +0x6 /* 000020E6 */
000020E2  446E 0008                neg.w      [A6 + 0x8]
label000020E6:
000020E6  0240 000F                andi.w     D0, 0xF
000020EA  5640                     addq.w     D0, 3
000020EC  3D40 000E                move.w     [A6 + 0xE], D0
000020F0  426E 000A                clr.w      [A6 + 0xA]
label000020F4:
000020F4  426E 000C                clr.w      [A6 + 0xC]
000020F8  301F                     move.w     D0, [A7]+
000020FA  6000 0116                bra        +0x118 /* 00002212 */
label000020FE:
000020FE  3F00                     move.w     -[A7], D0
00002100  4EBA 3B66                jsr        [PC + 0x3B66 /* 00005C68 */]
00002104  0240 000F                andi.w     D0, 0xF
00002108  5640                     addq.w     D0, 3
0000210A  3D40 000E                move.w     [A6 + 0xE], D0
0000210E  426E 000A                clr.w      [A6 + 0xA]
00002112  426E 000C                clr.w      [A6 + 0xC]
00002116  301F                     move.w     D0, [A7]+
00002118  6000 0166                bra        +0x168 /* 00002280 */
label0000211C:
0000211C  362E 000C                move.w     D3, [A6 + 0xC]
00002120  143B 301C                move.b     D2, [PC + D3.w + 0x1C]
00002124  4882                     ext.w      D2
00002126  226D FCD0                movea.l    A1, [A5 - 0x330]
0000212A  4EBA DED4                jsr        [PC - 0x212C /* 00000000 */]
0000212E  5243                     addq.w     D3, 1
00002130  3D43 000C                move.w     [A6 + 0xC], D3
00002134  143B 3008                move.b     D2, [PC + D3.w + 0x8]
00002138  6D82                     blt        -0x7C /* 000020BC */
0000213A  6000 00D6                bra        +0xD8 /* 00002212 */
0000213E  0001 0001                ori.b      D1, 0x1
00002142  0001 0203                ori.b      D1, 0x3
00002146  0201 0000                andi.b     D1, 0x0
0000214A  0203 0201                andi.b     D3, 0x1
0000214E  0000 FF00                ori.b      D0, 0x0
label00002152:
00002152  362E 000C                move.w     D3, [A6 + 0xC]
00002156  143B 301E                move.b     D2, [PC + D3.w + 0x1E]
0000215A  4882                     ext.w      D2
0000215C  226D FCD0                movea.l    A1, [A5 - 0x330]
00002160  4EBA DE9E                jsr        [PC - 0x2162 /* 00000000 */]
00002164  5243                     addq.w     D3, 1
00002166  3D43 000C                move.w     [A6 + 0xC], D3
0000216A  143B 300A                move.b     D2, [PC + D3.w + 0xA]
0000216E  6D00 00FA                blt        +0xFC /* 0000226A */
00002172  6000 010C                bra        +0x10E /* 00002280 */
00002176  0404 0505                subi.b     D4, 0x5
0000217A  0607 0809                addi.b     D7, 0x9 /* '\t' */
0000217E  FF00                     .extension 0xF00 <<F/4-5/7>> // unimplemented
label00002180:
00002180  226D FCCC                movea.l    A1, [A5 - 0x334]
00002184  343C 0001                move.w     D2, 0x1
00002188  4EBA DE76                jsr        [PC - 0x218A /* 00000000 */]
0000218C  0641 000F                addi.w     D1, 0xF
00002190  B26E 0016                cmp.w      D1, [A6 + 0x16]
00002194  6D00 00EA                blt        +0xEC /* 00002280 */
00002198  3D7C 0014 000A           move.w     [A6 + 0xA], 0x14
0000219E  322E 0016                move.w     D1, [A6 + 0x16]
000021A2  3D7C 0002 000C           move.w     [A6 + 0xC], 0x2
000021A8  3F00                     move.w     -[A7], D0
000021AA  303C 003D                move.w     D0, 0x3D /* '=' */
000021AE  4EAD 0052                jsr        [A5 + 0x52 /* export_6, CODE:1 @ 00000114 */]
000021B2  301F                     move.w     D0, [A7]+
000021B4  6000 00CA                bra        +0xCC /* 00002280 */
label000021B8:
000021B8  D06E 0008                add.w      D0, [A6 + 0x8]
000021BC  4A6E 0008                tst.w      [A6 + 0x8]
000021C0  6E0C                     bgt        +0xE /* 000021CE */
000021C2  47FA 0044                lea.l      A3, [PC + 0x44 /* 00002208, value 0x10203, cstring "" */]
000021C6  B06E 0004                cmp.w      D0, [A6 + 0x4]
000021CA  6F36                     ble        +0x38 /* 00002202 */
000021CC  600A                     bra        +0xC /* 000021D8 */
label000021CE:
000021CE  47FA 003D                lea.l      A3, [PC + 0x3D /* 0000220D, value 0x4050607 */]
000021D2  B06E 0006                cmp.w      D0, [A6 + 0x6]
000021D6  6C2A                     bge        +0x2C /* 00002202 */
label000021D8:
000021D8  362E 000C                move.w     D3, [A6 + 0xC]
label000021DC:
000021DC  1433 3000                move.b     D2, [A3 + D3.w]
000021E0  4882                     ext.w      D2
000021E2  6C04                     bge        +0x6 /* 000021E8 */
000021E4  4243                     clr.w      D3
000021E6  60F4                     bra        -0xA /* 000021DC */
label000021E8:
000021E8  226D FCCC                movea.l    A1, [A5 - 0x334]
000021EC  4EBA DE12                jsr        [PC - 0x21EE /* 00000000 */]
000021F0  5243                     addq.w     D3, 1
000021F2  3D43 000C                move.w     [A6 + 0xC], D3
000021F6  536E 000E                subq.w     [A6 + 0xE], 1
000021FA  6D00 FEC0                blt        -0x13E /* 000020BC */
000021FE  6000 0012                bra        +0x14 /* 00002212 */
label00002202:
00002202  446E 0008                neg.w      [A6 + 0x8]
00002206  60B0                     bra        -0x4E /* 000021B8 */
00002208  0001 0203                ori.b      D1, 0x3
0000220C  FF04                     .extension 0xF04 <<F/4-5/7>> // unimplemented
0000220E  0506                     btst       D6, D2
00002210  07FF                     .incomplete
label00002212:
00002212  48A7 C000                movem.w    -[A7], D0,D1
00002216  41ED FE6C                lea.l      A0, [A5 - 0x194]
0000221A  4EBA 36B4                jsr        [PC + 0x36B4 /* 000058D0 */]
0000221E  6742                     beq        +0x44 /* 00002262 */
00002220  42A8 0008                clr.l      [A0 + 0x8]
00002224  3F00                     move.w     -[A7], D0
00002226  303C 0043                move.w     D0, 0x43 /* 'C' */
0000222A  4EAD 0052                jsr        [A5 + 0x52 /* export_6, CODE:1 @ 00000114 */]
0000222E  301F                     move.w     D0, [A7]+
00002230  303C 0016                move.w     D0, 0x16
00002234  4EBA 39DE                jsr        [PC + 0x39DE /* 00005C14 */]
00002238  41EE 001E                lea.l      A0, [A6 + 0x1E]
0000223C  4EBA 373E                jsr        [PC + 0x373E /* 0000597C */]
00002240  0C6E 0000 000A           cmpi.w     [A6 + 0xA], 0x0
00002246  6710                     beq        +0x12 /* 00002258 */
00002248  0C6E 0004 000A           cmpi.w     [A6 + 0xA], 0x4
0000224E  6708                     beq        +0xA /* 00002258 */
00002250  3D7C 0028 000A           move.w     [A6 + 0xA], 0x28 /* '(' */
00002256  600A                     bra        +0xC /* 00002262 */
label00002258:
00002258  3D7C 0014 000A           move.w     [A6 + 0xA], 0x14
0000225E  426E 000C                clr.w      [A6 + 0xC]
label00002262:
00002262  4C9F 0003                movem.w    D0,D1, [A7]+
00002266  6000 0018                bra        +0x1A /* 00002280 */
label0000226A:
0000226A  41EE 001E                lea.l      A0, [A6 + 0x1E]
0000226E  4EBA 370C                jsr        [PC + 0x370C /* 0000597C */]
00002272  42AE FFFC                clr.l      [A6 - 0x4]
00002276  206E 0022                movea.l    A0, [A6 + 0x22]
0000227A  5268 000E                addq.w     [A0 + 0xE], 1
0000227E  4E71                     nop
label00002280:
00002280  3C80                     move.w     [A6], D0
00002282  3D41 0002                move.w     [A6 + 0x2], D1
00002286  0640 000C                addi.w     D0, 0xC
0000228A  3D40 001E                move.w     [A6 + 0x1E], D0
0000228E  0641 000A                addi.w     D1, 0xA /* '\n' */
00002292  3D41 0020                move.w     [A6 + 0x20], D1
00002296  4E75                     rts
00002298  4A6E 000E                tst.w      [A6 + 0xE]
0000229C  6F00 00C4                ble        +0xC6 /* 00002362 */
000022A0  536E 000C                subq.w     [A6 + 0xC], 1
000022A4  6E00 00BC                bgt        +0xBE /* 00002362 */
000022A8  702E                     moveq.l    D0, 0x2E
000022AA  A31E                     syscall    NewPtrClear, flags=3
000022AC  43FA FBF0                lea.l      A1, [PC - 0x410 /* 00001E9E, value 0x3016322E */]
000022B0  2149 0004                move.l     [A0 + 0x4], A1
000022B4  316E 0004 000C           move.w     [A0 + 0xC], [A6 + 0x4]
000022BA  316E 0006 000E           move.w     [A0 + 0xE], [A6 + 0x6]
000022C0  3156 0008                move.w     [A0 + 0x8], [A6]
000022C4  316E 0002 000A           move.w     [A0 + 0xA], [A6 + 0x2]
000022CA  316E 0008 0010           move.w     [A0 + 0x10], [A6 + 0x8]
000022D0  317C FF9C 0026           move.w     [A0 + 0x26], 0xFF9C
000022D6  317C FF9C 0028           move.w     [A0 + 0x28], 0xFF9C
000022DC  214E 002A                move.l     [A0 + 0x2A], A6
000022E0  4A6E 000A                tst.w      [A6 + 0xA]
000022E4  6E08                     bgt        +0xA /* 000022EE */
000022E6  317C 0018 0012           move.w     [A0 + 0x12], 0x18
000022EC  604A                     bra        +0x4C /* 00002338 */
label000022EE:
000022EE  0C6E 0001 000A           cmpi.w     [A6 + 0xA], 0x1
000022F4  6608                     bne        +0xA /* 000022FE */
000022F6  317C 0024 0012           move.w     [A0 + 0x12], 0x24 /* '$' */
000022FC  6006                     bra        +0x8 /* 00002304 */
label000022FE:
000022FE  317C 0020 0012           move.w     [A0 + 0x12], 0x20 /* ' ' */
label00002304:
00002304  316E 0014 001C           move.w     [A0 + 0x1C], [A6 + 0x14]
0000230A  316E 0016 001E           move.w     [A0 + 0x1E], [A6 + 0x16]
00002310  4EBA 3956                jsr        [PC + 0x3956 /* 00005C68 */]
00002314  0C40 5555                cmpi.w     D0, 0x5555 /* 'UU' */
00002318  6208                     bhi        +0xA /* 00002322 */
0000231A  316E 0018 0020           move.w     [A0 + 0x20], [A6 + 0x18]
00002320  6016                     bra        +0x18 /* 00002338 */
label00002322:
00002322  0C40 AAAA                cmpi.w     D0, 0xAAAA
00002326  6208                     bhi        +0xA /* 00002330 */
00002328  316E 001A 0020           move.w     [A0 + 0x20], [A6 + 0x1A]
0000232E  6008                     bra        +0xA /* 00002338 */
label00002330:
00002330  316E 001C 0020           move.w     [A0 + 0x20], [A6 + 0x1C]
00002336  4E71                     nop
label00002338:
00002338  20AD FE7E                move.l     [A0], [A5 - 0x182]
0000233C  2B48 FE7E                move.l     [A5 - 0x182], A0
00002340  41E8 0026                lea.l      A0, [A0 + 0x26]
00002344  2E3C 0B00 0000           move.l     D7, 0xB000000
0000234A  4EBA 35FE                jsr        [PC + 0x35FE /* 0000594A */]
0000234E  536E 000E                subq.w     [A6 + 0xE], 1
00002352  4EBA 3914                jsr        [PC + 0x3914 /* 00005C68 */]
00002356  C06E 0012                and.w      D0, [A6 + 0x12]
0000235A  D06E 0010                add.w      D0, [A6 + 0x10]
0000235E  3D40 000C                move.w     [A6 + 0xC], D0
label00002362:
00002362  4E75                     rts
export_81:
00002364  700A                     moveq.l    D0, 0x0A
00002366  A31E                     syscall    NewPtrClear, flags=3
00002368  43FA 0016                lea.l      A1, [PC + 0x16 /* 00002380, value 0x4242226D 'BB\"m' */]
0000236C  2149 0004                move.l     [A0 + 0x4], A1
00002370  317C 0019 0008           move.w     [A0 + 0x8], 0x19
00002376  20AD FE7E                move.l     [A0], [A5 - 0x182]
0000237A  2B48 FE7E                move.l     [A5 - 0x182], A0
0000237E  4E75                     rts
00002380  4242                     clr.w      D2
00002382  226D FCEA                movea.l    A1, [A5 - 0x316]
00002386  5356                     subq.w     [A6], 1
00002388  6F12                     ble        +0x14 /* 0000239C */
0000238A  303C 0001                move.w     D0, 0x1
0000238E  323C 012F                move.w     D1, 0x12F
00002392  206D FFA8                movea.l    A0, [A5 - 0x58]
00002396  4EBA DC68                jsr        [PC - 0x2398 /* 00000000 */]
0000239A  600C                     bra        +0xE /* 000023A8 */
label0000239C:
0000239C  303C 0001                move.w     D0, 0x1
000023A0  4EAD 0442                jsr        [A5 + 0x442 /* export_132, CODE:5 @ 000059BE */]
000023A4  42AE FFFC                clr.l      [A6 - 0x4]
label000023A8:
000023A8  4E75                     rts
export_82:
000023AA  700C                     moveq.l    D0, 0x0C
000023AC  A31E                     syscall    NewPtrClear, flags=3
000023AE  43FA 001C                lea.l      A1, [PC + 0x1C /* 000023CC, value 0x76FF4242 */]
000023B2  2149 0004                move.l     [A0 + 0x4], A1
000023B6  317C 0019 0008           move.w     [A0 + 0x8], 0x19
000023BC  317C 0028 000A           move.w     [A0 + 0xA], 0x28 /* '(' */
000023C2  20AD FE7E                move.l     [A0], [A5 - 0x182]
000023C6  2B48 FE7E                move.l     [A5 - 0x182], A0
000023CA  4E75                     rts
000023CC  76FF                     moveq.l    D3, 0xFFFFFFFF
000023CE  4242                     clr.w      D2
000023D0  226D FCEA                movea.l    A1, [A5 - 0x316]
000023D4  5356                     subq.w     [A6], 1
000023D6  6714                     beq        +0x16 /* 000023EC */
000023D8  6D1A                     blt        +0x1C /* 000023F4 */
000023DA  303C 0002                move.w     D0, 0x2
000023DE  323C 0130                move.w     D1, 0x130
000023E2  206D FFA8                movea.l    A0, [A5 - 0x58]
000023E6  4EBA DC18                jsr        [PC - 0x23E8 /* 00000000 */]
000023EA  600C                     bra        +0xE /* 000023F8 */
label000023EC:
000023EC  303C 0001                move.w     D0, 0x1
000023F0  4EAD 044A                jsr        [A5 + 0x44A /* export_133, CODE:5 @ 00005F42 */]
label000023F4:
000023F4  0243 00FF                andi.w     D3, 0xFF
label000023F8:
000023F8  536E 0002                subq.w     [A6 + 0x2], 1
000023FC  6714                     beq        +0x16 /* 00002412 */
000023FE  6D1A                     blt        +0x1C /* 0000241A */
00002400  303C 00E7                move.w     D0, 0xE7
00002404  323C 0130                move.w     D1, 0x130
00002408  206D FFA8                movea.l    A0, [A5 - 0x58]
0000240C  4EBA DBF2                jsr        [PC - 0x240E /* 00000000 */]
00002410  600C                     bra        +0xE /* 0000241E */
label00002412:
00002412  303C 0002                move.w     D0, 0x2
00002416  4EAD 044A                jsr        [A5 + 0x44A /* export_133, CODE:5 @ 00005F42 */]
label0000241A:
0000241A  0243 FF00                andi.w     D3, 0xFF00
label0000241E:
0000241E  4A43                     tst.w      D3
00002420  6604                     bne        +0x6 /* 00002426 */
00002422  42AE FFFC                clr.l      [A6 - 0x4]
label00002426:
00002426  4E75                     rts
export_83:
00002428  700E                     moveq.l    D0, 0x0E
0000242A  A31E                     syscall    NewPtrClear, flags=3
0000242C  43FA 0022                lea.l      A1, [PC + 0x22 /* 00002450, value 0x363C0FFF */]
00002430  2149 0004                move.l     [A0 + 0x4], A1
00002434  317C 0028 0008           move.w     [A0 + 0x8], 0x28 /* '(' */
0000243A  317C 0019 000A           move.w     [A0 + 0xA], 0x19
00002440  317C 003C 000C           move.w     [A0 + 0xC], 0x3C /* '<' */
00002446  20AD FE7E                move.l     [A0], [A5 - 0x182]
0000244A  2B48 FE7E                move.l     [A5 - 0x182], A0
0000244E  4E75                     rts
00002450  363C 0FFF                move.w     D3, 0xFFF
00002454  4242                     clr.w      D2
00002456  226D FCEA                movea.l    A1, [A5 - 0x316]
0000245A  5356                     subq.w     [A6], 1
0000245C  6714                     beq        +0x16 /* 00002472 */
0000245E  6D1A                     blt        +0x1C /* 0000247A */
00002460  303C 0048                move.w     D0, 0x48 /* 'H' */
00002464  323C 012F                move.w     D1, 0x12F
00002468  206D FFA8                movea.l    A0, [A5 - 0x58]
0000246C  4EBA DB92                jsr        [PC - 0x246E /* 00000000 */]
00002470  600C                     bra        +0xE /* 0000247E */
label00002472:
00002472  303C 0001                move.w     D0, 0x1
00002476  4EAD 045A                jsr        [A5 + 0x45A /* export_135, CODE:5 @ 000067DE */]
label0000247A:
0000247A  0243 0FF0                andi.w     D3, 0xFF0
label0000247E:
0000247E  536E 0002                subq.w     [A6 + 0x2], 1
00002482  6714                     beq        +0x16 /* 00002498 */
00002484  6D1A                     blt        +0x1C /* 000024A0 */
00002486  303C 00E4                move.w     D0, 0xE4
0000248A  323C 012F                move.w     D1, 0x12F
0000248E  206D FFA8                movea.l    A0, [A5 - 0x58]
00002492  4EBA DB6C                jsr        [PC - 0x2494 /* 00000000 */]
00002496  600C                     bra        +0xE /* 000024A4 */
label00002498:
00002498  303C 0002                move.w     D0, 0x2
0000249C  4EAD 045A                jsr        [A5 + 0x45A /* export_135, CODE:5 @ 000067DE */]
label000024A0:
000024A0  0243 0F0F                andi.w     D3, 0xF0F
label000024A4:
000024A4  536E 0004                subq.w     [A6 + 0x4], 1
000024A8  6714                     beq        +0x16 /* 000024BE */
000024AA  6D1A                     blt        +0x1C /* 000024C6 */
000024AC  303C 0183                move.w     D0, 0x183
000024B0  323C 012F                move.w     D1, 0x12F
000024B4  206D FFA8                movea.l    A0, [A5 - 0x58]
000024B8  4EBA DB46                jsr        [PC - 0x24BA /* 00000000 */]
000024BC  600C                     bra        +0xE /* 000024CA */
label000024BE:
000024BE  303C 0003                move.w     D0, 0x3
000024C2  4EAD 045A                jsr        [A5 + 0x45A /* export_135, CODE:5 @ 000067DE */]
label000024C6:
000024C6  0243 00FF                andi.w     D3, 0xFF
label000024CA:
000024CA  4A43                     tst.w      D3
000024CC  6604                     bne        +0x6 /* 000024D2 */
000024CE  42AE FFFC                clr.l      [A6 - 0x4]
label000024D2:
000024D2  4E75                     rts
export_84:
000024D4  3E00                     move.w     D7, D0
000024D6  2848                     movea.l    A4, A0
000024D8  7010                     moveq.l    D0, 0x10
000024DA  A31E                     syscall    NewPtrClear, flags=3
000024DC  43FA 001E                lea.l      A1, [PC + 0x1E /* 000024FC, value 0x286E0002, cstring "(n" */]
000024E0  2149 0004                move.l     [A0 + 0x4], A1
000024E4  3147 0008                move.w     [A0 + 0x8], D7
000024E8  214C 000A                move.l     [A0 + 0xA], A4
000024EC  317C 0001 000E           move.w     [A0 + 0xE], 0x1
000024F2  20AD FE7E                move.l     [A0], [A5 - 0x182]
000024F6  2B48 FE7E                move.l     [A5 - 0x182], A0
000024FA  4E75                     rts
000024FC  286E 0002                movea.l    A4, [A6 + 0x2]
00002500  302C 000A                move.w     D0, [A4 + 0xA]
00002504  322C 000C                move.w     D1, [A4 + 0xC]
00002508  206D FFA8                movea.l    A0, [A5 - 0x58]
0000250C  4A56                     tst.w      [A6]
0000250E  6E06                     bgt        +0x8 /* 00002516 */
00002510  226D FCE6                movea.l    A1, [A5 - 0x31A]
00002514  6004                     bra        +0x6 /* 0000251A */
label00002516:
00002516  226D FC74                movea.l    A1, [A5 - 0x38C]
label0000251A:
0000251A  342C 0006                move.w     D2, [A4 + 0x6]
0000251E  6E14                     bgt        +0x16 /* 00002534 */
00002520  6D08                     blt        +0xA /* 0000252A */
00002522  4242                     clr.w      D2
00002524  4EBA DADA                jsr        [PC - 0x2526 /* 00000000 */]
00002528  602E                     bra        +0x30 /* 00002558 */
label0000252A:
0000252A  343C 0004                move.w     D2, 0x4
0000252E  4EBA DAD0                jsr        [PC - 0x2530 /* 00000000 */]
00002532  6024                     bra        +0x26 /* 00002558 */
label00002534:
00002534  526C 0006                addq.w     [A4 + 0x6], 1
00002538  5342                     subq.w     D2, 1
0000253A  660C                     bne        +0xE /* 00002548 */
0000253C  3F00                     move.w     -[A7], D0
0000253E  303C 001D                move.w     D0, 0x1D
00002542  4EAD 0052                jsr        [A5 + 0x52 /* export_6, CODE:1 @ 00000114 */]
00002546  301F                     move.w     D0, [A7]+
label00002548:
00002548  0C42 0004                cmpi.w     D2, 0x4
0000254C  6606                     bne        +0x8 /* 00002554 */
0000254E  397C FFFF 0006           move.w     [A4 + 0x6], 0xFFFF
label00002554:
00002554  4EBA DAAA                jsr        [PC - 0x2556 /* 00000000 */]
label00002558:
00002558  4A6C 0006                tst.w      [A4 + 0x6]
0000255C  6C5E                     bge        +0x60 /* 000025BC */
0000255E  302C 000E                move.w     D0, [A4 + 0xE]
00002562  322C 0010                move.w     D1, [A4 + 0x10]
00002566  226D FC70                movea.l    A1, [A5 - 0x390]
0000256A  342E 0006                move.w     D2, [A6 + 0x6]
0000256E  6D3A                     blt        +0x3C /* 000025AA */
00002570  526E 0006                addq.w     [A6 + 0x6], 1
00002574  0C6E 0003 0006           cmpi.w     [A6 + 0x6], 0x3
0000257A  6D32                     blt        +0x34 /* 000025AE */
0000257C  3D7C FFFF 0006           move.w     [A6 + 0x6], 0xFFFF
00002582  3F00                     move.w     -[A7], D0
00002584  303C 0022                move.w     D0, 0x22 /* '\"' */
00002588  4EBA 368A                jsr        [PC + 0x368A /* 00005C14 */]
0000258C  301F                     move.w     D0, [A7]+
0000258E  D8EC 0008                add.w      A4, [A4 + 0x8]
00002592  4A6C 0006                tst.w      [A4 + 0x6]
00002596  6C0A                     bge        +0xC /* 000025A2 */
00002598  3E3C 0002                move.w     D7, 0x2
0000259C  4EAD 0452                jsr        [A5 + 0x452 /* export_134, CODE:5 @ 000067B6 */]
000025A0  600C                     bra        +0xE /* 000025AE */
label000025A2:
000025A2  3E16                     move.w     D7, [A6]
000025A4  4EAD 0452                jsr        [A5 + 0x452 /* export_134, CODE:5 @ 000067B6 */]
000025A8  6004                     bra        +0x6 /* 000025AE */
label000025AA:
000025AA  343C 0003                move.w     D2, 0x3
label000025AE:
000025AE  4A56                     tst.w      [A6]
000025B0  6E04                     bgt        +0x6 /* 000025B6 */
000025B2  5342                     subq.w     D2, 1
000025B4  6002                     bra        +0x4 /* 000025B8 */
label000025B6:
000025B6  5442                     addq.w     D2, 2
label000025B8:
000025B8  4EBA DD66                jsr        [PC - 0x229A /* 00000320 */]
label000025BC:
000025BC  4E75                     rts
export_85:
000025BE  3C00                     move.w     D6, D0
000025C0  7024                     moveq.l    D0, 0x24
000025C2  A31E                     syscall    NewPtrClear, flags=3
000025C4  43FA 0050                lea.l      A1, [PC + 0x50 /* 00002616, value 0x206DFFA8 */]
000025C8  2149 0004                move.l     [A0 + 0x4], A1
000025CC  317C 00E6 0008           move.w     [A0 + 0x8], 0xE6
000025D2  317C 001A 000A           move.w     [A0 + 0xA], 0x1A
000025D8  4268 000C                clr.w      [A0 + 0xC]
000025DC  4268 000E                clr.w      [A0 + 0xE]
000025E0  42A8 0010                clr.l      [A0 + 0x10]
000025E4  317C 00EB 0014           move.w     [A0 + 0x14], 0xEB
000025EA  317C FFFE 0016           move.w     [A0 + 0x16], 0xFFFE
000025F0  4268 0018                clr.w      [A0 + 0x18]
000025F4  4268 001A                clr.w      [A0 + 0x1A]
000025F8  317C 00B9 001C           move.w     [A0 + 0x1C], 0xB9
000025FE  317C 004A 001E           move.w     [A0 + 0x1E], 0x4A /* 'J' */
00002604  4268 0020                clr.w      [A0 + 0x20]
00002608  3146 0022                move.w     [A0 + 0x22], D6
0000260C  20AD FE7E                move.l     [A0], [A5 - 0x182]
00002610  2B48 FE7E                move.l     [A5 - 0x182], A0
00002614  4E75                     rts
00002616  206D FFA8                movea.l    A0, [A5 - 0x58]
0000261A  3E2E 0010                move.w     D7, [A6 + 0x10]
0000261E  4EFB 7002                jmp        [PC + D7.w + 0x2]
00002622  4EFA 000E                jmp        [PC + 0xE /* 00002632 */]
00002626  4EFA 0036                jmp        [PC + 0x36 /* 0000265E */]
0000262A  4EFA 00DC                jmp        [PC + 0xDC /* 00002708 */]
0000262E  4EFA 016A                jmp        [PC + 0x16A /* 0000279A */]
label00002632:
00002632  4EBA 05A0                jsr        [PC + 0x5A0 /* 00002BD4 */]
00002636  302E 0014                move.w     D0, [A6 + 0x14]
0000263A  322E 0016                move.w     D1, [A6 + 0x16]
0000263E  4242                     clr.w      D2
00002640  226D FCAC                movea.l    A1, [A5 - 0x354]
00002644  4EBA D9BA                jsr        [PC - 0x2646 /* 00000000 */]
00002648  302E 000C                move.w     D0, [A6 + 0xC]
0000264C  322E 000E                move.w     D1, [A6 + 0xE]
00002650  4242                     clr.w      D2
00002652  226D FCB0                movea.l    A1, [A5 - 0x350]
00002656  4EBA D9A8                jsr        [PC - 0x2658 /* 00000000 */]
0000265A  6000 01B4                bra        +0x1B6 /* 00002810 */
label0000265E:
0000265E  382E 0012                move.w     D4, [A6 + 0x12]
00002662  0C44 0014                cmpi.w     D4, 0x14
00002666  6D1C                     blt        +0x1E /* 00002684 */
00002668  0C2E 001F 0018           cmpi.b     [A6 + 0x18], 0x1F
0000266E  6706                     beq        +0x8 /* 00002676 */
00002670  426E 0010                clr.w      [A6 + 0x10]
00002674  60BC                     bra        -0x42 /* 00002632 */
label00002676:
00002676  3D7C 0008 0010           move.w     [A6 + 0x10], 0x8
0000267C  426E 0012                clr.w      [A6 + 0x12]
00002680  6000 0086                bra        +0x88 /* 00002708 */
label00002684:
00002684  4A44                     tst.w      D4
00002686  660C                     bne        +0xE /* 00002694 */
00002688  3F00                     move.w     -[A7], D0
0000268A  303C 0027                move.w     D0, 0x27 /* '\'' */
0000268E  4EAD 0052                jsr        [A5 + 0x52 /* export_6, CODE:1 @ 00000114 */]
00002692  301F                     move.w     D0, [A7]+
label00002694:
00002694  546E 0012                addq.w     [A6 + 0x12], 2
00002698  4EBA 053A                jsr        [PC + 0x53A /* 00002BD4 */]
0000269C  302E 0014                move.w     D0, [A6 + 0x14]
000026A0  D07B 402A                add.w      D0, [PC + D4.w + 0x2A]
000026A4  322E 0016                move.w     D1, [A6 + 0x16]
000026A8  4242                     clr.w      D2
000026AA  226D FCAC                movea.l    A1, [A5 - 0x354]
000026AE  4EBA D950                jsr        [PC - 0x26B0 /* 00000000 */]
000026B2  302E 000C                move.w     D0, [A6 + 0xC]
000026B6  D07B 4028                add.w      D0, [PC + D4.w + 0x28]
000026BA  322E 000E                move.w     D1, [A6 + 0xE]
000026BE  4242                     clr.w      D2
000026C0  226D FCB0                movea.l    A1, [A5 - 0x350]
000026C4  4EBA D93A                jsr        [PC - 0x26C6 /* 00000000 */]
000026C8  6000 0146                bra        +0x148 /* 00002810 */
000026CC  FFFF                     .invalid   <<F/7/7>>
000026CE  0000 0001                ori.b      D0, 0x1
000026D2  0000 0000                ori.b      D0, 0x0
000026D6  FFFF                     .invalid   <<F/7/7>>
000026D8  0000 0001                ori.b      D0, 0x1
000026DC  0000 0000                ori.b      D0, 0x0
000026E0  FFFF                     .invalid   <<F/7/7>>
000026E2  0000 0001                ori.b      D0, 0x1
000026E6  0000 0000                ori.b      D0, 0x0
000026EA  FFFF                     .invalid   <<F/7/7>>
000026EC  0000 0001                ori.b      D0, 0x1
000026F0  0000 0000                ori.b      D0, 0x0
000026F4  0000 0001                ori.b      D0, 0x1
000026F8  0001 FFFF                ori.b      D1, 0xFF
000026FC  FFFF                     .invalid   <<F/7/7>>
000026FE  0000 0001                ori.b      D0, 0x1
00002702  0001 FFFF                ori.b      D1, 0xFF
00002706  FFFF                     .invalid   <<F/7/7>>
label00002708:
00002708  382E 0012                move.w     D4, [A6 + 0x12]
0000270C  0C44 0010                cmpi.w     D4, 0x10
00002710  6616                     bne        +0x18 /* 00002728 */
00002712  3F00                     move.w     -[A7], D0
00002714  303C 0037                move.w     D0, 0x37 /* '7' */
00002718  4EAD 0052                jsr        [A5 + 0x52 /* export_6, CODE:1 @ 00000114 */]
0000271C  301F                     move.w     D0, [A7]+
0000271E  3D7C 0014 0004           move.w     [A6 + 0x4], 0x14
00002724  426E 0006                clr.w      [A6 + 0x6]
label00002728:
00002728  343B 4056                move.w     D2, [PC + D4.w + 0x56]
0000272C  6C1A                     bge        +0x1C /* 00002748 */
0000272E  3F00                     move.w     -[A7], D0
00002730  303C 0024                move.w     D0, 0x24 /* '$' */
00002734  4EAD 0052                jsr        [A5 + 0x52 /* export_6, CODE:1 @ 00000114 */]
00002738  301F                     move.w     D0, [A7]+
0000273A  3D7C 000C 0010           move.w     [A6 + 0x10], 0xC
00002740  426E 0012                clr.w      [A6 + 0x12]
00002744  6000 0054                bra        +0x56 /* 0000279A */
label00002748:
00002748  4EBA 048A                jsr        [PC + 0x48A /* 00002BD4 */]
0000274C  343B 4032                move.w     D2, [PC + D4.w + 0x32]
00002750  546E 0012                addq.w     [A6 + 0x12], 2
00002754  302E 0014                move.w     D0, [A6 + 0x14]
00002758  322E 0016                move.w     D1, [A6 + 0x16]
0000275C  3D41 0016                move.w     [A6 + 0x16], D1
00002760  226D FCAC                movea.l    A1, [A5 - 0x354]
00002764  4EBA D89A                jsr        [PC - 0x2766 /* 00000000 */]
00002768  302E 000C                move.w     D0, [A6 + 0xC]
0000276C  322E 000E                move.w     D1, [A6 + 0xE]
00002770  3D41 000E                move.w     [A6 + 0xE], D1
00002774  226D FCB0                movea.l    A1, [A5 - 0x350]
00002778  4EBA D886                jsr        [PC - 0x277A /* 00000000 */]
0000277C  6000 0092                bra        +0x94 /* 00002810 */
00002780  0000 0001                ori.b      D0, 0x1
00002784  0001 0000                ori.b      D1, 0x0
00002788  0002 0002                ori.b      D2, 0x2
0000278C  0000 0001                ori.b      D0, 0x1
00002790  0001 0000                ori.b      D1, 0x0
00002794  0002 0002                ori.b      D2, 0x2
00002798  FFFF                     .invalid   <<F/7/7>>
label0000279A:
0000279A  382E 0012                move.w     D4, [A6 + 0x12]
0000279E  343B 405C                move.w     D2, [PC + D4.w + 0x5C]
000027A2  6D34                     blt        +0x36 /* 000027D8 */
000027A4  546E 0012                addq.w     [A6 + 0x12], 2
000027A8  302E 0014                move.w     D0, [A6 + 0x14]
000027AC  322E 0016                move.w     D1, [A6 + 0x16]
000027B0  D27B 4054                add.w      D1, [PC + D4.w + 0x54]
000027B4  3D41 0016                move.w     [A6 + 0x16], D1
000027B8  226D FCAC                movea.l    A1, [A5 - 0x354]
000027BC  4EBA D842                jsr        [PC - 0x27BE /* 00000000 */]
000027C0  302E 000C                move.w     D0, [A6 + 0xC]
000027C4  322E 000E                move.w     D1, [A6 + 0xE]
000027C8  D27B 403C                add.w      D1, [PC + D4.w + 0x3C]
000027CC  3D41 000E                move.w     [A6 + 0xE], D1
000027D0  226D FCB0                movea.l    A1, [A5 - 0x350]
000027D4  4EBA D82A                jsr        [PC - 0x27D6 /* 00000000 */]
label000027D8:
000027D8  343B 400E                move.w     D2, [PC + D4.w + 0xE]
000027DC  323B 4014                move.w     D1, [PC + D4.w + 0x14]
000027E0  4EBA 047A                jsr        [PC + 0x47A /* 00002C5C */]
000027E4  6000 002A                bra        +0x2C /* 00002810 */
000027E8  0000 0000                ori.b      D0, 0x0
000027EC  0001 0001                ori.b      D1, 0x1
000027F0  0001 0059                ori.b      D1, 0x59 /* 'Y' */
000027F4  0055 005A                ori.w      [A5], 0x5A /* 'Z' */
000027F8  005A 005A                ori.w      [A2]+, 0x5A /* 'Z' */
000027FC  0000 0001                ori.b      D0, 0x1
00002800  0001 0001                ori.b      D1, 0x1
00002804  FFFF                     .invalid   <<F/7/7>>
00002806  0005 000A                ori.b      D5, 0xA /* '\n' */
0000280A  000C 002E                ori.b      A4, 0x2E /* '.' */
0000280E  FFFF                     .invalid   <<F/7/7>>
label00002810:
00002810  3E2E 0004                move.w     D7, [A6 + 0x4]
00002814  4EFB 7002                jmp        [PC + D7.w + 0x2]
00002818  4EFA 001E                jmp        [PC + 0x1E /* 00002838 */]
0000281C  4EFA 0086                jmp        [PC + 0x86 /* 000028A4 */]
00002820  4EFA 0180                jmp        [PC + 0x180 /* 000029A2 */]
00002824  4EFA 0272                jmp        [PC + 0x272 /* 00002A98 */]
00002828  4EFA 02BE                jmp        [PC + 0x2BE /* 00002AE8 */]
0000282C  4EFA 0300                jmp        [PC + 0x300 /* 00002B2E */]
00002830  4EFA 036A                jmp        [PC + 0x36A /* 00002B9C */]
00002834  4EFA 0238                jmp        [PC + 0x238 /* 00002A6E */]
label00002838:
00002838  362E 0006                move.w     D3, [A6 + 0x6]
0000283C  546E 0006                addq.w     [A6 + 0x6], 2
00002840  343B 3050                move.w     D2, [PC + D3.w + 0x50]
00002844  6C24                     bge        +0x26 /* 0000286A */
00002846  343C 0001                move.w     D2, 0x1
0000284A  426E 0006                clr.w      [A6 + 0x6]
0000284E  0C6E 0004 0010           cmpi.w     [A6 + 0x10], 0x4
00002854  670A                     beq        +0xC /* 00002860 */
00002856  3D7C 0004 0004           move.w     [A6 + 0x4], 0x4
0000285C  6000 001E                bra        +0x20 /* 0000287C */
label00002860:
00002860  3D7C 0010 0004           move.w     [A6 + 0x4], 0x10
00002866  6000 0014                bra        +0x16 /* 0000287C */
label0000286A:
0000286A  303C 00D9                move.w     D0, 0xD9
0000286E  323C 0026                move.w     D1, 0x26 /* '&' */
00002872  226D FC68                movea.l    A1, [A5 - 0x398]
00002876  4EBA D788                jsr        [PC - 0x2878 /* 00000000 */]
0000287A  4242                     clr.w      D2
label0000287C:
0000287C  3016                     move.w     D0, [A6]
0000287E  0440 000A                subi.w     D0, 0xA /* '\n' */
00002882  322E 0002                move.w     D1, [A6 + 0x2]
00002886  226D FC94                movea.l    A1, [A5 - 0x36C]
0000288A  4EBA D774                jsr        [PC - 0x288C /* 00000000 */]
0000288E  6000 0342                bra        +0x344 /* 00002BD2 */
00002892  0003 0003                ori.b      D3, 0x3
00002896  0002 0002                ori.b      D2, 0x2
0000289A  0001 0001                ori.b      D1, 0x1
0000289E  0000 0000                ori.b      D0, 0x0
000028A2  FFFF                     .invalid   <<F/7/7>>
label000028A4:
000028A4  362E 0006                move.w     D3, [A6 + 0x6]
000028A8  546E 0006                addq.w     [A6 + 0x6], 2
000028AC  343B 3030                move.w     D2, [PC + D3.w + 0x30]
000028B0  6C18                     bge        +0x1A /* 000028CA */
000028B2  0C6E 0004 0010           cmpi.w     [A6 + 0x10], 0x4
000028B8  6600 0044                bne        +0x46 /* 000028FE */
000028BC  3D7C 0010 0004           move.w     [A6 + 0x4], 0x10
000028C2  426E 0006                clr.w      [A6 + 0x6]
000028C6  6000 0220                bra        +0x222 /* 00002AE8 */
label000028CA:
000028CA  3016                     move.w     D0, [A6]
000028CC  322E 0002                move.w     D1, [A6 + 0x2]
000028D0  5341                     subq.w     D1, 1
000028D2  226D FC98                movea.l    A1, [A5 - 0x368]
000028D6  4EBA D728                jsr        [PC - 0x28D8 /* 00000000 */]
000028DA  6000 02F6                bra        +0x2F8 /* 00002BD2 */
000028DE  0000 0000                ori.b      D0, 0x0
000028E2  0001 0001                ori.b      D1, 0x1
000028E6  0002 0002                ori.b      D2, 0x2
000028EA  0002 0002                ori.b      D2, 0x2
000028EE  0002 0002                ori.b      D2, 0x2
000028F2  0001 0001                ori.b      D1, 0x1
000028F6  0000 0000                ori.b      D0, 0x0
000028FA  0000 FFFF                ori.b      D0, 0xFF
label000028FE:
000028FE  3D7C 0008 0004           move.w     [A6 + 0x4], 0x8
00002904  426E 0006                clr.w      [A6 + 0x6]
00002908  286D FF7A                movea.l    A4, [A5 - 0x86]
0000290C  382C 0014                move.w     D4, [A4 + 0x14]
00002910  3A2C 0016                move.w     D5, [A4 + 0x16]
00002914  0C45 0046                cmpi.w     D5, 0x46 /* 'F' */
00002918  6E12                     bgt        +0x14 /* 0000292C */
0000291A  0C44 00F6                cmpi.w     D4, 0xF6
0000291E  6E06                     bgt        +0x8 /* 00002926 */
00002920  45FA 0038                lea.l      A2, [PC + 0x38 /* 0000295A, value 0x40004, cstring "" */]
00002924  602E                     bra        +0x30 /* 00002954 */
label00002926:
00002926  45FA 003E                lea.l      A2, [PC + 0x3E /* 00002966, value 0x1180118 */]
0000292A  6028                     bra        +0x2A /* 00002954 */
label0000292C:
0000292C  0C44 007F                cmpi.w     D4, 0x7F
00002930  6E06                     bgt        +0x8 /* 00002938 */
00002932  45FA 003E                lea.l      A2, [PC + 0x3E /* 00002972, value 0x40004, cstring "" */]
00002936  601C                     bra        +0x1E /* 00002954 */
label00002938:
00002938  0C44 00F6                cmpi.w     D4, 0xF6
0000293C  6E06                     bgt        +0x8 /* 00002944 */
0000293E  45FA 003E                lea.l      A2, [PC + 0x3E /* 0000297E, value 0x0, cstring "" */]
00002942  6010                     bra        +0x12 /* 00002954 */
label00002944:
00002944  0C44 0167                cmpi.w     D4, 0x167
00002948  6E06                     bgt        +0x8 /* 00002950 */
0000294A  45FA 003E                lea.l      A2, [PC + 0x3E /* 0000298A, value 0x0, cstring "" */]
0000294E  6004                     bra        +0x6 /* 00002954 */
label00002950:
00002950  45FA 0044                lea.l      A2, [PC + 0x44 /* 00002996, value 0x1000100 */]
label00002954:
00002954  2D4A 0008                move.l     [A6 + 0x8], A2
00002958  6048                     bra        +0x4A /* 000029A2 */
0000295A  0004 0004                ori.b      D4, 0x4
0000295E  FF81                     .invalid   <<F/6/7>>
00002960  0F00                     btst       D0, D7
00002962  18FE                     move.b     [A4]+, <<invalid special address>>
00002964  0018 0118                ori.b      [A0]+, 0x18
00002968  0118                     btst       [A0]+, D0
0000296A  FF7F                     .extension 0xF7F <<F/4-5/7>> // unimplemented
0000296C  0F04                     btst       D4, D7
0000296E  04FE                     .incomplete
00002970  0404 0004                subi.b     D4, 0x4
00002974  0004 FFB9                ori.b      D4, 0xB9
00002978  4001                     negx.b     D1
0000297A  04FE                     .incomplete
0000297C  0104                     btst       D4, D0
0000297E  0000 0000                ori.b      D0, 0x0
00002982  FFF1                     .invalid   <<F/7/7>>
00002984  7F02                     moveq.l    D7, 0x02
00002986  04FE                     .incomplete
00002988  0204 0000                andi.b     D4, 0x0
0000298C  0000 FF0F                ori.b      D0, 0xF
00002990  7F02                     moveq.l    D7, 0x02
00002992  04FE                     .incomplete
00002994  0204 0100                andi.b     D4, 0x0
00002998  0100                     btst       D0, D0
0000299A  FF47                     .extension 0xF47 <<F/4-5/7>> // unimplemented
0000299C  4003                     negx.b     D3
0000299E  04FE                     .incomplete
000029A0  0304                     btst       D4, D1
label000029A2:
000029A2  3016                     move.w     D0, [A6]
000029A4  322E 0002                move.w     D1, [A6 + 0x2]
000029A8  246E 0008                movea.l    A2, [A6 + 0x8]
label000029AC:
000029AC  141A                     move.b     D2, [A2]+
000029AE  6C7C                     bge        +0x7E /* 00002A2C */
000029B0  0C02 00FF                cmpi.b     D2, 0xFF
000029B4  6654                     bne        +0x56 /* 00002A0A */
000029B6  3F00                     move.w     -[A7], D0
000029B8  303C 0035                move.w     D0, 0x35 /* '5' */
000029BC  4EAD 0052                jsr        [A5 + 0x52 /* export_6, CODE:1 @ 00000114 */]
000029C0  301F                     move.w     D0, [A7]+
000029C2  48E7 C080                movem.l    -[A7], D0,D1,A0
000029C6  0640 0017                addi.w     D0, 0x17
000029CA  0641 0015                addi.w     D1, 0x15
000029CE  7E0E                     moveq.l    D7, 0x0E
000029D0  141A                     move.b     D2, [A2]+
000029D2  4882                     ext.w      D2
000029D4  48C2                     ext.l      D2
000029D6  EFA2                     asl        D2, D7
000029D8  4842                     swap.w     D2
000029DA  D042                     add.w      D0, D2
000029DC  4842                     swap.w     D2
000029DE  E282                     asr        D2, 1
000029E0  161A                     move.b     D3, [A2]+
000029E2  4883                     ext.w      D3
000029E4  48C3                     ext.l      D3
000029E6  EFA3                     asl        D3, D7
000029E8  4843                     swap.w     D3
000029EA  D243                     add.w      D1, D3
000029EC  4843                     swap.w     D3
000029EE  E283                     asr        D3, 1
000029F0  383C 2AAA                move.w     D4, 0x2AAA
000029F4  206D FC78                movea.l    A0, [A5 - 0x388]
000029F8  43ED FE64                lea.l      A1, [A5 - 0x19C]
000029FC  3C2E 001A                move.w     D6, [A6 + 0x1A]
00002A00  4EBA 0894                jsr        [PC + 0x894 /* 00003296 */]
00002A04  4CDF 0103                movem.l    D0,D1,A0, [A7]+
00002A08  60A2                     bra        -0x5C /* 000029AC */
label00002A0A:
00002A0A  426E 0006                clr.w      [A6 + 0x6]
00002A0E  0C6E 0004 0010           cmpi.w     [A6 + 0x10], 0x4
00002A14  670E                     beq        +0x10 /* 00002A24 */
00002A16  3D7C 001C 0004           move.w     [A6 + 0x4], 0x1C
00002A1C  3D7C 000C 0006           move.w     [A6 + 0x6], 0xC
00002A22  6088                     bra        -0x76 /* 000029AC */
label00002A24:
00002A24  3D7C 000C 0004           move.w     [A6 + 0x4], 0xC
00002A2A  6080                     bra        -0x7E /* 000029AC */
label00002A2C:
00002A2C  4882                     ext.w      D2
00002A2E  161A                     move.b     D3, [A2]+
00002A30  4883                     ext.w      D3
00002A32  47ED FC7C                lea.l      A3, [A5 - 0x384]
00002A36  2273 3000                movea.l    A1, [A3 + D3.w]
00002A3A  D07B 3012                add.w      D0, [PC + D3.w + 0x12]
00002A3E  D27B 3010                add.w      D1, [PC + D3.w + 0x10]
00002A42  4EBA D5BC                jsr        [PC - 0x2A44 /* 00000000 */]
00002A46  2D4A 0008                move.l     [A6 + 0x8], A2
00002A4A  6000 0186                bra        +0x188 /* 00002BD2 */
00002A4E  FFF9                     .invalid   <<F/7/7>>
00002A50  FFF7                     .invalid   <<F/7/7>>
00002A52  0000 0000                ori.b      D0, 0x0
00002A56  FFFB                     .invalid   <<F/7/7>>
00002A58  FFE6                     .invalid   <<F/7/7>>
00002A5A  FFFB                     .invalid   <<F/7/7>>
00002A5C  FFF5                     .invalid   <<F/7/7>>
00002A5E  0000 FFFF                ori.b      D0, 0xFF
00002A62  0000 FFFF                ori.b      D0, 0xFF
00002A66  FFF6                     .invalid   <<F/7/7>>
00002A68  0000 0000                ori.b      D0, 0x0
00002A6C  FFFF                     .invalid   <<F/7/7>>
label00002A6E:
00002A6E  536E 0006                subq.w     [A6 + 0x6], 1
00002A72  6E0C                     bgt        +0xE /* 00002A80 */
00002A74  426E 0004                clr.w      [A6 + 0x4]
00002A78  426E 0006                clr.w      [A6 + 0x6]
00002A7C  6000 FDBA                bra        -0x244 /* 00002838 */
label00002A80:
00002A80  3016                     move.w     D0, [A6]
00002A82  322E 0002                move.w     D1, [A6 + 0x2]
00002A86  5341                     subq.w     D1, 1
00002A88  226D FC8C                movea.l    A1, [A5 - 0x374]
00002A8C  343C 0001                move.w     D2, 0x1
00002A90  4EBA D56E                jsr        [PC - 0x2A92 /* 00000000 */]
00002A94  6000 013C                bra        +0x13E /* 00002BD2 */
label00002A98:
00002A98  362E 0006                move.w     D3, [A6 + 0x6]
00002A9C  546E 0006                addq.w     [A6 + 0x6], 2
00002AA0  343B 3024                move.w     D2, [PC + D3.w + 0x24]
00002AA4  6C0C                     bge        +0xE /* 00002AB2 */
00002AA6  426E 0004                clr.w      [A6 + 0x4]
00002AAA  426E 0006                clr.w      [A6 + 0x6]
00002AAE  6000 FD88                bra        -0x276 /* 00002838 */
label00002AB2:
00002AB2  3016                     move.w     D0, [A6]
00002AB4  322E 0002                move.w     D1, [A6 + 0x2]
00002AB8  5341                     subq.w     D1, 1
00002ABA  226D FC8C                movea.l    A1, [A5 - 0x374]
00002ABE  4EBA D540                jsr        [PC - 0x2AC0 /* 00000000 */]
00002AC2  6000 010E                bra        +0x110 /* 00002BD2 */
00002AC6  0000 0000                ori.b      D0, 0x0
00002ACA  0001 0001                ori.b      D1, 0x1
00002ACE  0002 0002                ori.b      D2, 0x2
00002AD2  0001 0001                ori.b      D1, 0x1
00002AD6  0000 0000                ori.b      D0, 0x0
00002ADA  0001 0001                ori.b      D1, 0x1
00002ADE  0002 0002                ori.b      D2, 0x2
00002AE2  0001 0001                ori.b      D1, 0x1
00002AE6  FFFF                     .invalid   <<F/7/7>>
label00002AE8:
00002AE8  362E 0006                move.w     D3, [A6 + 0x6]
00002AEC  546E 0006                addq.w     [A6 + 0x6], 2
00002AF0  343B 301A                move.w     D2, [PC + D3.w + 0x1A]
00002AF4  6D00 FE08                blt        -0x1F6 /* 000028FE */
00002AF8  3016                     move.w     D0, [A6]
00002AFA  322E 0002                move.w     D1, [A6 + 0x2]
00002AFE  5341                     subq.w     D1, 1
00002B00  226D FC90                movea.l    A1, [A5 - 0x370]
00002B04  4EBA D4FA                jsr        [PC - 0x2B06 /* 00000000 */]
00002B08  6000 00C8                bra        +0xCA /* 00002BD2 */
00002B0C  0000 0000                ori.b      D0, 0x0
00002B10  0001 0001                ori.b      D1, 0x1
00002B14  0002 0002                ori.b      D2, 0x2
00002B18  0001 0001                ori.b      D1, 0x1
00002B1C  0000 0000                ori.b      D0, 0x0
00002B20  0001 0001                ori.b      D1, 0x1
00002B24  0002 0002                ori.b      D2, 0x2
00002B28  0001 0001                ori.b      D1, 0x1
00002B2C  FFFF                     .invalid   <<F/7/7>>
label00002B2E:
00002B2E  362E 0006                move.w     D3, [A6 + 0x6]
00002B32  546E 0006                addq.w     [A6 + 0x6], 2
00002B36  343B 305A                move.w     D2, [PC + D3.w + 0x5A]
00002B3A  6C00 0030                bge        +0x32 /* 00002B6C */
00002B3E  3F00                     move.w     -[A7], D0
00002B40  303C 0036                move.w     D0, 0x36 /* '6' */
00002B44  4EAD 0052                jsr        [A5 + 0x52 /* export_6, CODE:1 @ 00000114 */]
00002B48  301F                     move.w     D0, [A7]+
00002B4A  3D7C 0018 0004           move.w     [A6 + 0x4], 0x18
00002B50  426E 0006                clr.w      [A6 + 0x6]
00002B54  303C 0026                move.w     D0, 0x26 /* '&' */
00002B58  4EBA 30BA                jsr        [PC + 0x30BA /* 00005C14 */]
00002B5C  2F08                     move.l     -[A7], A0
00002B5E  202D FDC8                move.l     D0, [A5 - 0x238]
00002B62  4EBA 308C                jsr        [PC + 0x308C /* 00005BF0 */]
00002B66  205F                     movea.l    A0, [A7]+
00002B68  6000 0032                bra        +0x34 /* 00002B9C */
label00002B6C:
00002B6C  3016                     move.w     D0, [A6]
00002B6E  322E 0002                move.w     D1, [A6 + 0x2]
00002B72  D27B 3014                add.w      D1, [PC + D3.w + 0x14]
00002B76  3D41 0002                move.w     [A6 + 0x2], D1
00002B7A  226D FC88                movea.l    A1, [A5 - 0x378]
00002B7E  5A40                     addq.w     D0, 5
00002B80  4EBA D47E                jsr        [PC - 0x2B82 /* 00000000 */]
00002B84  6000 004C                bra        +0x4E /* 00002BD2 */
00002B88  FFF6                     .invalid   <<F/7/7>>
00002B8A  0000 0000                ori.b      D0, 0x0
00002B8E  0000 0000                ori.b      D0, 0x0
00002B92  0000 0001                ori.b      D0, 0x1
00002B96  0002 0003                ori.b      D2, 0x3
00002B9A  FFFF                     .invalid   <<F/7/7>>
label00002B9C:
00002B9C  362E 0006                move.w     D3, [A6 + 0x6]
00002BA0  0C43 000A                cmpi.w     D3, 0xA /* '\n' */
00002BA4  6C00 002C                bge        +0x2E /* 00002BD2 */
00002BA8  546E 0006                addq.w     [A6 + 0x6], 2
00002BAC  3016                     move.w     D0, [A6]
00002BAE  322E 0002                move.w     D1, [A6 + 0x2]
00002BB2  D27B 3014                add.w      D1, [PC + D3.w + 0x14]
00002BB6  3D41 0002                move.w     [A6 + 0x2], D1
00002BBA  226D FC84                movea.l    A1, [A5 - 0x37C]
00002BBE  4242                     clr.w      D2
00002BC0  4EBA D43E                jsr        [PC - 0x2BC2 /* 00000000 */]
00002BC4  6000 000C                bra        +0xE /* 00002BD2 */
00002BC8  FFF8                     .invalid   <<F/7/7>>
00002BCA  000D 000C                ori.b      A5, 0xC
00002BCE  001F 0019                ori.b      [A7]+, 0x19
label00002BD2:
00002BD2  4E75                     rts
fn00002BD4:
00002BD4  323C 0058                move.w     D1, 0x58 /* 'X' */
00002BD8  226D FCA8                movea.l    A1, [A5 - 0x358]
00002BDC  3E3C 000A                move.w     D7, 0xA /* '\n' */
00002BE0  3C3C 0004                move.w     D6, 0x4
label00002BE4:
00002BE4  5547                     subq.w     D7, 2
00002BE6  303B 7056                move.w     D0, [PC + D7.w + 0x56]
00002BEA  0D2E 0018                btst       [A6 + 0x18], D6
00002BEE  6630                     bne        +0x32 /* 00002C20 */
00002BF0  0D2D FC66                btst       [A5 - 0x39A], D6
00002BF4  6606                     bne        +0x8 /* 00002BFC */
00002BF6  343B 7050                move.w     D2, [PC + D7.w + 0x50]
00002BFA  6028                     bra        +0x2A /* 00002C24 */
label00002BFC:
00002BFC  0DAD FC66                bclr       [A5 - 0x39A], D6
00002C00  3D7C 0004 0010           move.w     [A6 + 0x10], 0x4
00002C06  426E 0012                clr.w      [A6 + 0x12]
00002C0A  0DEE                     .incomplete
00002C0C  0018 1B6E                ori.b      [A0]+, 0x6E /* 'n' */
00002C10  0018 FC67                ori.b      [A0]+, 0x67 /* 'g' */
00002C14  3F00                     move.w     -[A7], D0
00002C16  303C 0020                move.w     D0, 0x20 /* ' ' */
00002C1A  4EBA 2FF8                jsr        [PC + 0x2FF8 /* 00005C14 */]
00002C1E  301F                     move.w     D0, [A7]+
label00002C20:
00002C20  343B 7030                move.w     D2, [PC + D7.w + 0x30]
label00002C24:
00002C24  0C46 0002                cmpi.w     D6, 0x2
00002C28  6602                     bne        +0x4 /* 00002C2C */
00002C2A  5541                     subq.w     D1, 2
label00002C2C:
00002C2C  4EBA D3D2                jsr        [PC - 0x2C2E /* 00000000 */]
00002C30  0C46 0002                cmpi.w     D6, 0x2
00002C34  6602                     bne        +0x4 /* 00002C38 */
00002C36  5441                     addq.w     D1, 2
label00002C38:
00002C38  51CE FFAA                dbf        D6, -0x58 /* 00002BE4 */
00002C3C  4E75                     rts
00002C3E  00C5                     .incomplete
00002C40  00DF                     .incomplete
00002C42  00FA                     .incomplete
00002C44  0115                     btst       [A5], D0
00002C46  0130 0000                btst       [A0 + D0.w], D0
00002C4A  0001 0002                ori.b      D1, 0x2
00002C4E  0003 0004                ori.b      D3, 0x4
00002C52  0005 0007                ori.b      D5, 0x7
00002C56  0006 0005                ori.b      D6, 0x5
00002C5A  0007 226D                ori.b      D7, 0x6D /* 'm' */
// begin alternate branch 00002C5C-00002C68
fn00002C5C:
00002C5C  226D FCA4                movea.l    A1, [A5 - 0x35C]
00002C60  3E3C 000A                move.w     D7, 0xA /* '\n' */
00002C64  3C3C 0004                move.w     D6, 0x4
// end alternate branch 00002C5C-00002C68
fn00002C5C: // (misaligned)
00002C5E  FCA4 3E3C                .extension 0xCA4 <<F/2-3/6>> // unimplemented
00002C62  000A 3C3C                ori.b      A2, 0x3C /* '<' */
00002C66  0004 5547                ori.b      D4, 0x47 /* 'G' */
// begin alternate branch 00002C68-00002C6A
label00002C68:
00002C68  5547                     subq.w     D7, 2
// end alternate branch 00002C68-00002C6A
label00002C68: // (misaligned)
00002C6A  303B 70D2                move.w     D0, [PC + D7.w - 0x2E]
00002C6E  5F40                     subq.w     D0, 7
00002C70  0C46 0002                cmpi.w     D6, 0x2
00002C74  660A                     bne        +0xC /* 00002C80 */
00002C76  5141                     subq.w     D1, 8
00002C78  4EBA D386                jsr        [PC - 0x2C7A /* 00000000 */]
00002C7C  5041                     addq.w     D1, 8
00002C7E  6004                     bra        +0x6 /* 00002C84 */
label00002C80:
00002C80  4EBA D37E                jsr        [PC - 0x2C82 /* 00000000 */]
label00002C84:
00002C84  51CE FFE2                dbf        D6, -0x20 /* 00002C68 */
00002C88  4E75                     rts
export_86:
00002C8A  701A                     moveq.l    D0, 0x1A
00002C8C  A31E                     syscall    NewPtrClear, flags=3
00002C8E  43FA 007C                lea.l      A1, [PC + 0x7C /* 00002D0C, value 0x206DFFA8 */]
00002C92  2149 0004                move.l     [A0 + 0x4], A1
00002C96  266D FF7A                movea.l    A3, [A5 - 0x86]
00002C9A  3A2B 0016                move.w     D5, [A3 + 0x16]
00002C9E  0445 0028                subi.w     D5, 0x28 /* '(' */
00002CA2  3145 000A                move.w     [A0 + 0xA], D5
00002CA6  382B 0014                move.w     D4, [A3 + 0x14]
00002CAA  0C44 00F6                cmpi.w     D4, 0xF6
00002CAE  6E1E                     bgt        +0x20 /* 00002CCE */
00002CB0  317C 0010 000E           move.w     [A0 + 0xE], 0x10
00002CB6  317C FFEE 0008           move.w     [A0 + 0x8], 0xFFEE
00002CBC  216D FCA0 0010           move.l     [A0 + 0x10], [A5 - 0x360]
00002CC2  317C 018B 0014           move.w     [A0 + 0x14], 0x18B
00002CC8  0444 0028                subi.w     D4, 0x28 /* '(' */
00002CCC  601C                     bra        +0x1E /* 00002CEA */
label00002CCE:
00002CCE  317C FFF0 000E           move.w     [A0 + 0xE], 0xFFF0
00002CD4  317C 01DE 0008           move.w     [A0 + 0x8], 0x1DE
00002CDA  216D FC9C 0010           move.l     [A0 + 0x10], [A5 - 0x364]
00002CE0  317C 0069 0014           move.w     [A0 + 0x14], 0x69 /* 'i' */
00002CE6  0644 001E                addi.w     D4, 0x1E
label00002CEA:
00002CEA  3144 0016                move.w     [A0 + 0x16], D4
00002CEE  4268 000C                clr.w      [A0 + 0xC]
00002CF2  4268 0018                clr.w      [A0 + 0x18]
00002CF6  20AE FFF8                move.l     [A0], [A6 - 0x8]
00002CFA  2D48 FFF8                move.l     [A6 - 0x8], A0
00002CFE  3F00                     move.w     -[A7], D0
00002D00  303C 0033                move.w     D0, 0x33 /* '3' */
00002D04  4EAD 0052                jsr        [A5 + 0x52 /* export_6, CODE:1 @ 00000114 */]
00002D08  301F                     move.w     D0, [A7]+
00002D0A  4E75                     rts
00002D0C  206D FFA8                movea.l    A0, [A5 - 0x58]
00002D10  226E 0008                movea.l    A1, [A6 + 0x8]
00002D14  3016                     move.w     D0, [A6]
00002D16  322E 0002                move.w     D1, [A6 + 0x2]
00002D1A  3E2E 0004                move.w     D7, [A6 + 0x4]
00002D1E  4EFB 7002                jmp        [PC + D7.w + 0x2]
00002D22  4EFA 000A                jmp        [PC + 0xA /* 00002D2E */]
00002D26  4EFA 007A                jmp        [PC + 0x7A /* 00002DA2 */]
00002D2A  4EFA 00E0                jmp        [PC + 0xE0 /* 00002E0C */]
label00002D2E:
00002D2E  4A6E 0006                tst.w      [A6 + 0x6]
00002D32  6E0A                     bgt        +0xC /* 00002D3E */
00002D34  B06E 000E                cmp.w      D0, [A6 + 0xE]
00002D38  6E00 0058                bgt        +0x5A /* 00002D92 */
00002D3C  6008                     bra        +0xA /* 00002D46 */
label00002D3E:
00002D3E  B06E 000E                cmp.w      D0, [A6 + 0xE]
00002D42  6D00 004E                blt        +0x50 /* 00002D92 */
label00002D46:
00002D46  266D FF7A                movea.l    A3, [A5 - 0x86]
00002D4A  377C 000C 0034           move.w     [A3 + 0x34], 0xC
00002D50  3D7C 0004 0004           move.w     [A6 + 0x4], 0x4
00002D56  526D FE72                addq.w     [A5 - 0x18E], 1
00002D5A  0C6D 0003 FE72           cmpi.w     [A5 - 0x18E], 0x3
00002D60  6F06                     ble        +0x8 /* 00002D68 */
00002D62  3B7C 0003 FE72           move.w     [A5 - 0x18E], 0x3
label00002D68:
00002D68  48E7 C0C2                movem.l    -[A7], D0,D1,A0,A1,A6
00002D6C  2C4B                     movea.l    A6, A3
00002D6E  504E                     addq.w     A6, 8
00002D70  4240                     clr.w      D0
00002D72  4EBA 236A                jsr        [PC + 0x236A /* 000050DE */]
00002D76  303C 0001                move.w     D0, 0x1
00002D7A  4EBA 2362                jsr        [PC + 0x2362 /* 000050DE */]
00002D7E  4CDF 4303                movem.l    D0,D1,A0,A1,A6, [A7]+
00002D82  3F00                     move.w     -[A7], D0
00002D84  303C 0033                move.w     D0, 0x33 /* '3' */
00002D88  4EAD 0052                jsr        [A5 + 0x52 /* export_6, CODE:1 @ 00000114 */]
00002D8C  301F                     move.w     D0, [A7]+
00002D8E  6000 0012                bra        +0x14 /* 00002DA2 */
label00002D92:
00002D92  D06E 0006                add.w      D0, [A6 + 0x6]
00002D96  3C80                     move.w     [A6], D0
00002D98  4242                     clr.w      D2
00002D9A  4EBA D584                jsr        [PC - 0x2A7C /* 00000320 */]
00002D9E  6000 0098                bra        +0x9A /* 00002E38 */
label00002DA2:
00002DA2  D06E 0006                add.w      D0, [A6 + 0x6]
00002DA6  3C80                     move.w     [A6], D0
00002DA8  342E 0010                move.w     D2, [A6 + 0x10]
00002DAC  0242 0003                andi.w     D2, 0x3
00002DB0  4E71                     nop
00002DB2  526E 0010                addq.w     [A6 + 0x10], 1
00002DB6  0242 0001                andi.w     D2, 0x1
00002DBA  5242                     addq.w     D2, 1
00002DBC  4EBA D562                jsr        [PC - 0x2A9E /* 00000320 */]
00002DC0  266D FF7A                movea.l    A3, [A5 - 0x86]
00002DC4  0641 0026                addi.w     D1, 0x26 /* '&' */
00002DC8  3741 0016                move.w     [A3 + 0x16], D1
00002DCC  4A6E 0006                tst.w      [A6 + 0x6]
00002DD0  6E10                     bgt        +0x12 /* 00002DE2 */
00002DD2  5140                     subq.w     D0, 8
00002DD4  3740 0014                move.w     [A3 + 0x14], D0
00002DD8  B06E 000C                cmp.w      D0, [A6 + 0xC]
00002DDC  6E00 005A                bgt        +0x5C /* 00002E38 */
00002DE0  6010                     bra        +0x12 /* 00002DF2 */
label00002DE2:
00002DE2  0640 0024                addi.w     D0, 0x24 /* '$' */
00002DE6  3740 0014                move.w     [A3 + 0x14], D0
00002DEA  B06E 000C                cmp.w      D0, [A6 + 0xC]
00002DEE  6D00 0048                blt        +0x4A /* 00002E38 */
label00002DF2:
00002DF2  4EAD 01D2                jsr        [A5 + 0x1D2 /* export_54, CODE:2 @ 00000BC2 */]
00002DF6  3D7C 0008 0004           move.w     [A6 + 0x4], 0x8
00002DFC  3F00                     move.w     -[A7], D0
00002DFE  303C 0033                move.w     D0, 0x33 /* '3' */
00002E02  4EAD 0052                jsr        [A5 + 0x52 /* export_6, CODE:1 @ 00000114 */]
00002E06  301F                     move.w     D0, [A7]+
00002E08  6000 002E                bra        +0x30 /* 00002E38 */
label00002E0C:
00002E0C  D06E 0006                add.w      D0, [A6 + 0x6]
00002E10  3C80                     move.w     [A6], D0
00002E12  4242                     clr.w      D2
00002E14  4EBA D50A                jsr        [PC - 0x2AF6 /* 00000320 */]
00002E18  4A6E 0006                tst.w      [A6 + 0x6]
00002E1C  6E0A                     bgt        +0xC /* 00002E28 */
00002E1E  0C40 0000                cmpi.w     D0, 0x0
00002E22  6E00 0014                bgt        +0x16 /* 00002E38 */
00002E26  6008                     bra        +0xA /* 00002E30 */
label00002E28:
00002E28  0C40 01D8                cmpi.w     D0, 0x1D8
00002E2C  6D00 000A                blt        +0xC /* 00002E38 */
label00002E30:
00002E30  42AE FFFC                clr.l      [A6 - 0x4]
00002E34  6000 0002                bra        +0x4 /* 00002E38 */
label00002E38:
00002E38  4E75                     rts
export_87:
00002E3A  3800                     move.w     D4, D0
00002E3C  3A01                     move.w     D5, D1
00002E3E  701C                     moveq.l    D0, 0x1C
00002E40  A31E                     syscall    NewPtrClear, flags=3
00002E42  43FA 0034                lea.l      A1, [PC + 0x34 /* 00002E78, value 0x3E2E0004, cstring ">." */]
00002E46  2149 0004                move.l     [A0 + 0x4], A1
00002E4A  3144 0008                move.w     [A0 + 0x8], D4
00002E4E  3145 000A                move.w     [A0 + 0xA], D5
00002E52  4268 000C                clr.w      [A0 + 0xC]
00002E56  3142 0010                move.w     [A0 + 0x10], D2
00002E5A  3143 0012                move.w     [A0 + 0x12], D3
00002E5E  4EBA 2E08                jsr        [PC + 0x2E08 /* 00005C68 */]
00002E62  C068 000A                and.w      D0, [A0 + 0xA]
00002E66  D068 0008                add.w      D0, [A0 + 0x8]
00002E6A  3140 000E                move.w     [A0 + 0xE], D0
00002E6E  20AD FE7E                move.l     [A0], [A5 - 0x182]
00002E72  2B48 FE7E                move.l     [A5 - 0x182], A0
00002E76  4E75                     rts
00002E78  3E2E 0004                move.w     D7, [A6 + 0x4]
00002E7C  4EFB 7002                jmp        [PC + D7.w + 0x2]
00002E80  4EFA 0022                jmp        [PC + 0x22 /* 00002EA4 */]
00002E84  4EFA 0036                jmp        [PC + 0x36 /* 00002EBC */]
00002E88  4EFA 0098                jmp        [PC + 0x98 /* 00002F22 */]
00002E8C  4EFA 01D2                jmp        [PC + 0x1D2 /* 00003060 */]
00002E90  4EFA 02EC                jmp        [PC + 0x2EC /* 0000317E */]
00002E94  4EFA 0254                jmp        [PC + 0x254 /* 000030EA */]
00002E98  4EFA 033C                jmp        [PC + 0x33C /* 000031D6 */]
00002E9C  4EFA 0366                jmp        [PC + 0x366 /* 00003204 */]
00002EA0  4EFA 03B2                jmp        [PC + 0x3B2 /* 00003254 */]
label00002EA4:
00002EA4  536E 0006                subq.w     [A6 + 0x6], 1
00002EA8  6E00 03EA                bgt        +0x3EC /* 00003294 */
00002EAC  3D7C 0030 0006           move.w     [A6 + 0x6], 0x30 /* '0' */
00002EB2  3D7C 0004 0004           move.w     [A6 + 0x4], 0x4
00002EB8  6000 03DA                bra        +0x3DC /* 00003294 */
label00002EBC:
00002EBC  342E 0006                move.w     D2, [A6 + 0x6]
00002EC0  0242 000F                andi.w     D2, 0xF
00002EC4  660C                     bne        +0xE /* 00002ED2 */
00002EC6  3F00                     move.w     -[A7], D0
00002EC8  303C 0033                move.w     D0, 0x33 /* '3' */
00002ECC  4EAD 0052                jsr        [A5 + 0x52 /* export_6, CODE:1 @ 00000114 */]
00002ED0  301F                     move.w     D0, [A7]+
label00002ED2:
00002ED2  536E 0006                subq.w     [A6 + 0x6], 1
00002ED6  6E00 03BC                bgt        +0x3BE /* 00003294 */
00002EDA  3D7C 0008 0004           move.w     [A6 + 0x4], 0x8
00002EE0  3F00                     move.w     -[A7], D0
00002EE2  303C 0033                move.w     D0, 0x33 /* '3' */
00002EE6  4EAD 0052                jsr        [A5 + 0x52 /* export_6, CODE:1 @ 00000114 */]
00002EEA  301F                     move.w     D0, [A7]+
00002EEC  266D FF7A                movea.l    A3, [A5 - 0x86]
00002EF0  3A2B 0016                move.w     D5, [A3 + 0x16]
00002EF4  0445 0024                subi.w     D5, 0x24 /* '$' */
00002EF8  3D45 000E                move.w     [A6 + 0xE], D5
00002EFC  382B 0014                move.w     D4, [A3 + 0x14]
00002F00  0C44 00F6                cmpi.w     D4, 0xF6
00002F04  6D0C                     blt        +0xE /* 00002F12 */
00002F06  3D7C 0010 0010           move.w     [A6 + 0x10], 0x10
00002F0C  426E 000C                clr.w      [A6 + 0xC]
00002F10  600C                     bra        +0xE /* 00002F1E */
label00002F12:
00002F12  3D7C FFF0 0010           move.w     [A6 + 0x10], 0xFFF0
00002F18  3D7C 01DE 000C           move.w     [A6 + 0xC], 0x1DE
label00002F1E:
00002F1E  6000 0374                bra        +0x376 /* 00003294 */
label00002F22:
00002F22  206D FFA8                movea.l    A0, [A5 - 0x58]
00002F26  302E 000C                move.w     D0, [A6 + 0xC]
00002F2A  D06E 0010                add.w      D0, [A6 + 0x10]
00002F2E  3D40 000C                move.w     [A6 + 0xC], D0
00002F32  322E 000E                move.w     D1, [A6 + 0xE]
00002F36  266D FF7A                movea.l    A3, [A5 - 0x86]
00002F3A  3A2B 0016                move.w     D5, [A3 + 0x16]
00002F3E  0445 0024                subi.w     D5, 0x24 /* '$' */
00002F42  3D45 000E                move.w     [A6 + 0xE], D5
00002F46  382B 0014                move.w     D4, [A3 + 0x14]
00002F4A  4A6E 0010                tst.w      [A6 + 0x10]
00002F4E  6E18                     bgt        +0x1A /* 00002F68 */
00002F50  0644 0014                addi.w     D4, 0x14
00002F54  B044                     cmp.w      D0, D4
00002F56  6E00 00BA                bgt        +0xBC /* 00003012 */
00002F5A  B86E 0008                cmp.w      D4, [A6 + 0x8]
00002F5E  6F68                     ble        +0x6A /* 00002FC8 */
00002F60  3D6E 0008 0012           move.w     [A6 + 0x12], [A6 + 0x8]
00002F66  6016                     bra        +0x18 /* 00002F7E */
label00002F68:
00002F68  0444 0028                subi.w     D4, 0x28 /* '(' */
00002F6C  B044                     cmp.w      D0, D4
00002F6E  6D00 00A2                blt        +0xA4 /* 00003012 */
00002F72  B86E 000A                cmp.w      D4, [A6 + 0xA]
00002F76  6C50                     bge        +0x52 /* 00002FC8 */
00002F78  3D6E 000A 0012           move.w     [A6 + 0x12], [A6 + 0xA]
label00002F7E:
00002F7E  0C6B 000D 001A           cmpi.w     [A3 + 0x1A], 0xD /* '\r' */
00002F84  6700 0082                beq        +0x84 /* 00003008 */
00002F88  0C6B 0032 001A           cmpi.w     [A3 + 0x1A], 0x32 /* '2' */
00002F8E  6700 0078                beq        +0x7A /* 00003008 */
00002F92  0C6B 0025 001A           cmpi.w     [A3 + 0x1A], 0x25 /* '%' */
00002F98  660C                     bne        +0xE /* 00002FA6 */
00002F9A  3F00                     move.w     -[A7], D0
00002F9C  303C 0063                move.w     D0, 0x63 /* 'c' */
00002FA0  4EAD 005A                jsr        [A5 + 0x5A /* export_7, CODE:1 @ 00000150 */]
00002FA4  301F                     move.w     D0, [A7]+
label00002FA6:
00002FA6  377C 0032 001A           move.w     [A3 + 0x1A], 0x32 /* '2' */
00002FAC  377C 0010 0034           move.w     [A3 + 0x34], 0x10
00002FB2  3D7C 000C 0004           move.w     [A6 + 0x4], 0xC
00002FB8  3F00                     move.w     -[A7], D0
00002FBA  303C 0033                move.w     D0, 0x33 /* '3' */
00002FBE  4EAD 0052                jsr        [A5 + 0x52 /* export_6, CODE:1 @ 00000114 */]
00002FC2  301F                     move.w     D0, [A7]+
00002FC4  6000 009A                bra        +0x9C /* 00003060 */
label00002FC8:
00002FC8  0C6B 000D 001A           cmpi.w     [A3 + 0x1A], 0xD /* '\r' */
00002FCE  6700 0038                beq        +0x3A /* 00003008 */
00002FD2  0C6B 0025 001A           cmpi.w     [A3 + 0x1A], 0x25 /* '%' */
00002FD8  660C                     bne        +0xE /* 00002FE6 */
00002FDA  3F00                     move.w     -[A7], D0
00002FDC  303C 0063                move.w     D0, 0x63 /* 'c' */
00002FE0  4EAD 005A                jsr        [A5 + 0x5A /* export_7, CODE:1 @ 00000150 */]
00002FE4  301F                     move.w     D0, [A7]+
label00002FE6:
00002FE6  377C 0032 001A           move.w     [A3 + 0x1A], 0x32 /* '2' */
00002FEC  377C 0010 0034           move.w     [A3 + 0x34], 0x10
00002FF2  3D7C 0014 0004           move.w     [A6 + 0x4], 0x14
00002FF8  3F00                     move.w     -[A7], D0
00002FFA  303C 0033                move.w     D0, 0x33 /* '3' */
00002FFE  4EAD 0052                jsr        [A5 + 0x52 /* export_6, CODE:1 @ 00000114 */]
00003002  301F                     move.w     D0, [A7]+
00003004  6000 00E4                bra        +0xE6 /* 000030EA */
label00003008:
00003008  3D7C 0010 0004           move.w     [A6 + 0x4], 0x10
0000300E  6000 016E                bra        +0x170 /* 0000317E */
label00003012:
00003012  4A6E 0010                tst.w      [A6 + 0x10]
00003016  6D06                     blt        +0x8 /* 0000301E */
00003018  226D FCA0                movea.l    A1, [A5 - 0x360]
0000301C  6004                     bra        +0x6 /* 00003022 */
label0000301E:
0000301E  226D FC9C                movea.l    A1, [A5 - 0x364]
label00003022:
00003022  4242                     clr.w      D2
00003024  4EBA D2FA                jsr        [PC - 0x2D06 /* 00000320 */]
00003028  082D 0000 FD8A           btst.b     [A5 - 0x276], 0x0
0000302E  672C                     beq        +0x2E /* 0000305C */
00003030  41ED FE6C                lea.l      A0, [A5 - 0x194]
00003034  4EBA 289A                jsr        [PC + 0x289A /* 000058D0 */]
00003038  6722                     beq        +0x24 /* 0000305C */
0000303A  42A8 0008                clr.l      [A0 + 0x8]
0000303E  3D7C 0018 0004           move.w     [A6 + 0x4], 0x18
00003044  426E 0006                clr.w      [A6 + 0x6]
00003048  303C 0024                move.w     D0, 0x24 /* '$' */
0000304C  4EBA 2BC6                jsr        [PC + 0x2BC6 /* 00005C14 */]
00003050  3F00                     move.w     -[A7], D0
00003052  303C 001E                move.w     D0, 0x1E
00003056  4EAD 0052                jsr        [A5 + 0x52 /* export_6, CODE:1 @ 00000114 */]
0000305A  301F                     move.w     D0, [A7]+
label0000305C:
0000305C  6000 0236                bra        +0x238 /* 00003294 */
label00003060:
00003060  206D FFA8                movea.l    A0, [A5 - 0x58]
00003064  302E 000C                move.w     D0, [A6 + 0xC]
00003068  D06E 0010                add.w      D0, [A6 + 0x10]
0000306C  3D40 000C                move.w     [A6 + 0xC], D0
00003070  322E 000E                move.w     D1, [A6 + 0xE]
00003074  4A6E 0010                tst.w      [A6 + 0x10]
00003078  6D06                     blt        +0x8 /* 00003080 */
0000307A  226D FCA0                movea.l    A1, [A5 - 0x360]
0000307E  6004                     bra        +0x6 /* 00003084 */
label00003080:
00003080  226D FC9C                movea.l    A1, [A5 - 0x364]
label00003084:
00003084  526E 0006                addq.w     [A6 + 0x6], 1
00003088  342E 0006                move.w     D2, [A6 + 0x6]
0000308C  0242 0003                andi.w     D2, 0x3
00003090  4E71                     nop
00003092  0242 0001                andi.w     D2, 0x1
00003096  5242                     addq.w     D2, 1
00003098  4EBA D286                jsr        [PC - 0x2D7A /* 00000320 */]
0000309C  266D FF7A                movea.l    A3, [A5 - 0x86]
000030A0  0641 0026                addi.w     D1, 0x26 /* '&' */
000030A4  3741 0016                move.w     [A3 + 0x16], D1
000030A8  4A6E 0010                tst.w      [A6 + 0x10]
000030AC  6E12                     bgt        +0x14 /* 000030C0 */
000030AE  0640 FFF4                addi.w     D0, 0xFFF4
000030B2  3740 0014                move.w     [A3 + 0x14], D0
000030B6  B06E 0012                cmp.w      D0, [A6 + 0x12]
000030BA  6E00 01D8                bgt        +0x1DA /* 00003294 */
000030BE  6010                     bra        +0x12 /* 000030D0 */
label000030C0:
000030C0  0640 0021                addi.w     D0, 0x21 /* '!' */
000030C4  3740 0014                move.w     [A3 + 0x14], D0
000030C8  B06E 0012                cmp.w      D0, [A6 + 0x12]
000030CC  6D00 01C6                blt        +0x1C8 /* 00003294 */
label000030D0:
000030D0  4EAD 01D2                jsr        [A5 + 0x1D2 /* export_54, CODE:2 @ 00000BC2 */]
000030D4  3D7C 0010 0004           move.w     [A6 + 0x4], 0x10
000030DA  3F00                     move.w     -[A7], D0
000030DC  303C 0033                move.w     D0, 0x33 /* '3' */
000030E0  4EAD 0052                jsr        [A5 + 0x52 /* export_6, CODE:1 @ 00000114 */]
000030E4  301F                     move.w     D0, [A7]+
000030E6  6000 01AC                bra        +0x1AE /* 00003294 */
label000030EA:
000030EA  206D FFA8                movea.l    A0, [A5 - 0x58]
000030EE  302E 000C                move.w     D0, [A6 + 0xC]
000030F2  D06E 0010                add.w      D0, [A6 + 0x10]
000030F6  3D40 000C                move.w     [A6 + 0xC], D0
000030FA  322E 000E                move.w     D1, [A6 + 0xE]
000030FE  4A6E 0010                tst.w      [A6 + 0x10]
00003102  6D06                     blt        +0x8 /* 0000310A */
00003104  226D FCA0                movea.l    A1, [A5 - 0x360]
00003108  6004                     bra        +0x6 /* 0000310E */
label0000310A:
0000310A  226D FC9C                movea.l    A1, [A5 - 0x364]
label0000310E:
0000310E  526E 0006                addq.w     [A6 + 0x6], 1
00003112  342E 0006                move.w     D2, [A6 + 0x6]
00003116  0242 0003                andi.w     D2, 0x3
0000311A  4E71                     nop
0000311C  0242 0001                andi.w     D2, 0x1
00003120  5242                     addq.w     D2, 1
00003122  4EBA D1FC                jsr        [PC - 0x2E04 /* 00000320 */]
00003126  266D FF7A                movea.l    A3, [A5 - 0x86]
0000312A  0641 0026                addi.w     D1, 0x26 /* '&' */
0000312E  3741 0016                move.w     [A3 + 0x16], D1
00003132  4A6E 0010                tst.w      [A6 + 0x10]
00003136  6E18                     bgt        +0x1A /* 00003150 */
00003138  0640 FFF4                addi.w     D0, 0xFFF4
0000313C  3740 0014                move.w     [A3 + 0x14], D0
00003140  0C40 0008                cmpi.w     D0, 0x8
00003144  6E00 014E                bgt        +0x150 /* 00003294 */
00003148  3D6E 000A 0012           move.w     [A6 + 0x12], [A6 + 0xA]
0000314E  6016                     bra        +0x18 /* 00003166 */
label00003150:
00003150  0640 001E                addi.w     D0, 0x1E
00003154  3740 0014                move.w     [A3 + 0x14], D0
00003158  0C40 01E0                cmpi.w     D0, 0x1E0
0000315C  6D00 0136                blt        +0x138 /* 00003294 */
00003160  3D6E 0008 0012           move.w     [A6 + 0x12], [A6 + 0x8]
label00003166:
00003166  446E 0010                neg.w      [A6 + 0x10]
0000316A  3D7C 000C 0004           move.w     [A6 + 0x4], 0xC
00003170  3E2E 0010                move.w     D7, [A6 + 0x10]
00003174  E347                     asl        D7.w, 1
00003176  DF6B 0014                add.w      [A3 + 0x14], D7
0000317A  6000 0118                bra        +0x11A /* 00003294 */
label0000317E:
0000317E  206D FFA8                movea.l    A0, [A5 - 0x58]
00003182  302E 000C                move.w     D0, [A6 + 0xC]
00003186  D06E 0010                add.w      D0, [A6 + 0x10]
0000318A  3D40 000C                move.w     [A6 + 0xC], D0
0000318E  322E 000E                move.w     D1, [A6 + 0xE]
00003192  4A6E 0010                tst.w      [A6 + 0x10]
00003196  6D06                     blt        +0x8 /* 0000319E */
00003198  226D FCA0                movea.l    A1, [A5 - 0x360]
0000319C  6004                     bra        +0x6 /* 000031A2 */
label0000319E:
0000319E  226D FC9C                movea.l    A1, [A5 - 0x364]
label000031A2:
000031A2  4242                     clr.w      D2
000031A4  4EBA D17A                jsr        [PC - 0x2E86 /* 00000320 */]
000031A8  4A6E 0010                tst.w      [A6 + 0x10]
000031AC  6E0A                     bgt        +0xC /* 000031B8 */
000031AE  0C40 0000                cmpi.w     D0, 0x0
000031B2  6E00 00E0                bgt        +0xE2 /* 00003294 */
000031B6  6008                     bra        +0xA /* 000031C0 */
label000031B8:
000031B8  0C40 01D8                cmpi.w     D0, 0x1D8
000031BC  6D00 00D6                blt        +0xD8 /* 00003294 */
label000031C0:
000031C0  426E 0004                clr.w      [A6 + 0x4]
000031C4  4EBA 2AA2                jsr        [PC + 0x2AA2 /* 00005C68 */]
000031C8  C06E 0002                and.w      D0, [A6 + 0x2]
000031CC  D056                     add.w      D0, [A6]
000031CE  3D40 0006                move.w     [A6 + 0x6], D0
000031D2  6000 00C0                bra        +0xC2 /* 00003294 */
label000031D6:
000031D6  206D FFA8                movea.l    A0, [A5 - 0x58]
000031DA  302E 000C                move.w     D0, [A6 + 0xC]
000031DE  322E 000E                move.w     D1, [A6 + 0xE]
000031E2  226D FC62                movea.l    A1, [A5 - 0x39E]
000031E6  342E 0006                move.w     D2, [A6 + 0x6]
000031EA  E242                     asr        D2.w, 1
000031EC  526E 0006                addq.w     [A6 + 0x6], 1
000031F0  0C42 0004                cmpi.w     D2, 0x4
000031F4  6D06                     blt        +0x8 /* 000031FC */
000031F6  3D7C 001C 0004           move.w     [A6 + 0x4], 0x1C
label000031FC:
000031FC  4EBA CE02                jsr        [PC - 0x31FE /* 00000000 */]
00003200  6000 0092                bra        +0x94 /* 00003294 */
label00003204:
00003204  206D FFA8                movea.l    A0, [A5 - 0x58]
00003208  302E 000C                move.w     D0, [A6 + 0xC]
0000320C  066E 000C 000E           addi.w     [A6 + 0xE], 0xC
00003212  322E 000E                move.w     D1, [A6 + 0xE]
00003216  226D FC62                movea.l    A1, [A5 - 0x39E]
0000321A  286D FF7A                movea.l    A4, [A5 - 0x86]
0000321E  246C 0008                movea.l    A2, [A4 + 0x8]
00003222  343C 0004                move.w     D2, 0x4
00003226  4EBA 27EA                jsr        [PC + 0x27EA /* 00005A12 */]
0000322A  4A47                     tst.w      D7
0000322C  671A                     beq        +0x1C /* 00003248 */
0000322E  4847                     swap.w     D7
00003230  0C72 000E 7004           cmpi.w     [A2 + D7.w + 0x4], 0xE
00003236  6710                     beq        +0x12 /* 00003248 */
00003238  3D41 000E                move.w     [A6 + 0xE], D1
0000323C  3D7C 0020 0004           move.w     [A6 + 0x4], 0x20 /* ' ' */
00003242  343C 0005                move.w     D2, 0x5
00003246  6004                     bra        +0x6 /* 0000324C */
label00003248:
00003248  343C 0004                move.w     D2, 0x4
label0000324C:
0000324C  4EBA CDB2                jsr        [PC - 0x324E /* 00000000 */]
00003250  6000 0042                bra        +0x44 /* 00003294 */
label00003254:
00003254  206D FFA8                movea.l    A0, [A5 - 0x58]
00003258  302E 000C                move.w     D0, [A6 + 0xC]
0000325C  322E 000E                move.w     D1, [A6 + 0xE]
00003260  5941                     subq.w     D1, 4
00003262  226D FC62                movea.l    A1, [A5 - 0x39E]
00003266  343C 0006                move.w     D2, 0x6
0000326A  526E 0006                addq.w     [A6 + 0x6], 1
0000326E  0C6E 0014 0006           cmpi.w     [A6 + 0x6], 0x14
00003274  6D16                     blt        +0x18 /* 0000328C */
00003276  426E 0004                clr.w      [A6 + 0x4]
0000327A  4EBA 29EC                jsr        [PC + 0x29EC /* 00005C68 */]
0000327E  C06E 0002                and.w      D0, [A6 + 0x2]
00003282  D056                     add.w      D0, [A6]
00003284  3D40 0006                move.w     [A6 + 0x6], D0
00003288  6000 000A                bra        +0xC /* 00003294 */
label0000328C:
0000328C  4EBA CD72                jsr        [PC - 0x328E /* 00000000 */]
00003290  6000 0002                bra        +0x4 /* 00003294 */
label00003294:
00003294  4E75                     rts
fn00003296:
00003296  48E7 84B0                movem.l    -[A7], D0,D5,A0,A2,A3
0000329A  3A00                     move.w     D5, D0
0000329C  2448                     movea.l    A2, A0
0000329E  702C                     moveq.l    D0, 0x2C
000032A0  A31E                     syscall    NewPtrClear, flags=3
000032A2  47FA 006C                lea.l      A3, [PC + 0x6C /* 00003310, value 0x202E0008, cstring " ." */]
000032A6  214B 0004                move.l     [A0 + 0x4], A3
000032AA  4845                     swap.w     D5
000032AC  4245                     clr.w      D5
000032AE  2145 0010                move.l     [A0 + 0x10], D5
000032B2  4841                     swap.w     D1
000032B4  4241                     clr.w      D1
000032B6  2141 0014                move.l     [A0 + 0x14], D1
000032BA  2142 0018                move.l     [A0 + 0x18], D2
000032BE  2143 001C                move.l     [A0 + 0x1C], D3
000032C2  95A8 0010                sub.l      [A0 + 0x10], D2
000032C6  97A8 0014                sub.l      [A0 + 0x14], D3
000032CA  214A 0020                move.l     [A0 + 0x20], A2
000032CE  4268 0024                clr.w      [A0 + 0x24]
000032D2  2144 0026                move.l     [A0 + 0x26], D4
000032D6  3146 002A                move.w     [A0 + 0x2A], D6
000032DA  B2FC 0000                cmpa.w     A1, 0x0
000032DE  671A                     beq        +0x1C /* 000032FA */
000032E0  2651                     movea.l    A3, [A1]
000032E2  214B 0008                move.l     [A0 + 0x8], A3
000032E6  2149 000C                move.l     [A0 + 0xC], A1
000032EA  2288                     move.l     [A1], A0
000032EC  5091                     addq.l     [A1], 8
000032EE  B6FC 0000                cmpa.w     A3, 0x0
000032F2  670E                     beq        +0x10 /* 00003302 */
000032F4  2751 0004                move.l     [A3 + 0x4], [A1]
000032F8  6008                     bra        +0xA /* 00003302 */
label000032FA:
000032FA  42A8 0008                clr.l      [A0 + 0x8]
000032FE  42A8 000C                clr.l      [A0 + 0xC]
label00003302:
00003302  20AE FFF8                move.l     [A0], [A6 - 0x8]
00003306  2D48 FFF8                move.l     [A6 - 0x8], A0
0000330A  4CDF 0D21                movem.l    D0,D5,A0,A2,A3, [A7]+
0000330E  4E75                     rts
00003310  202E 0008                move.l     D0, [A6 + 0x8]
00003314  6700 0096                beq        +0x98 /* 000033AC */
00003318  222E 000C                move.l     D1, [A6 + 0xC]
0000331C  262E 001E                move.l     D3, [A6 + 0x1E]
00003320  D7AE 0014                add.l      [A6 + 0x14], D3
00003324  D0AE 0010                add.l      D0, [A6 + 0x10]
00003328  D2AE 0014                add.l      D1, [A6 + 0x14]
0000332C  0C80 0002 0000           cmpi.l     D0, 0x20000
00003332  6F48                     ble        +0x4A /* 0000337C */
00003334  0C80 01F6 0000           cmpi.l     D0, 0x1F60000
0000333A  6C40                     bge        +0x42 /* 0000337C */
0000333C  0C81 0002 0000           cmpi.l     D1, 0x20000
00003342  6F50                     ble        +0x52 /* 00003394 */
00003344  0C81 012C 0000           cmpi.l     D1, 0x12C0000
0000334A  6C48                     bge        +0x4A /* 00003394 */
label0000334C:
0000334C  226E 0018                movea.l    A1, [A6 + 0x18]
00003350  206D FFA8                movea.l    A0, [A5 - 0x58]
00003354  342E 001C                move.w     D2, [A6 + 0x1C]
00003358  5242                     addq.w     D2, 1
0000335A  B469 0002                cmp.w      D2, [A1 + 0x2]
0000335E  6D02                     blt        +0x4 /* 00003362 */
00003360  4242                     clr.w      D2
label00003362:
00003362  2D40 0008                move.l     [A6 + 0x8], D0
00003366  2D41 000C                move.l     [A6 + 0xC], D1
0000336A  3D42 001C                move.w     [A6 + 0x1C], D2
0000336E  4840                     swap.w     D0
00003370  4841                     swap.w     D1
00003372  5940                     subq.w     D0, 4
00003374  5941                     subq.w     D1, 4
00003376  4EBA CC88                jsr        [PC - 0x3378 /* 00000000 */]
label0000337A:
0000337A  4E75                     rts
label0000337C:
0000337C  536E 0022                subq.w     [A6 + 0x22], 1
00003380  6F2A                     ble        +0x2C /* 000033AC */
00003382  3F00                     move.w     -[A7], D0
00003384  303C 0025                move.w     D0, 0x25 /* '%' */
00003388  4EAD 0052                jsr        [A5 + 0x52 /* export_6, CODE:1 @ 00000114 */]
0000338C  301F                     move.w     D0, [A7]+
0000338E  44AE 0010                neg.l      [A6 + 0x10]
00003392  60B8                     bra        -0x46 /* 0000334C */
label00003394:
00003394  536E 0022                subq.w     [A6 + 0x22], 1
00003398  6F12                     ble        +0x14 /* 000033AC */
0000339A  3F00                     move.w     -[A7], D0
0000339C  303C 0025                move.w     D0, 0x25 /* '%' */
000033A0  4EAD 0052                jsr        [A5 + 0x52 /* export_6, CODE:1 @ 00000114 */]
000033A4  301F                     move.w     D0, [A7]+
000033A6  44AE 0014                neg.l      [A6 + 0x14]
000033AA  60A0                     bra        -0x5E /* 0000334C */
label000033AC:
000033AC  266E 0004                movea.l    A3, [A6 + 0x4]
000033B0  B6FC 0000                cmpa.w     A3, 0x0
000033B4  6708                     beq        +0xA /* 000033BE */
000033B6  2856                     movea.l    A4, [A6]
000033B8  268C                     move.l     [A3], A4
000033BA  294B 0004                move.l     [A4 + 0x4], A3
label000033BE:
000033BE  42AE FFFC                clr.l      [A6 - 0x4]
000033C2  60B6                     bra        -0x48 /* 0000337A */
export_88:
000033C4  2848                     movea.l    A4, A0
000033C6  700C                     moveq.l    D0, 0x0C
000033C8  A31E                     syscall    NewPtrClear, flags=3
000033CA  43FA 0032                lea.l      A1, [PC + 0x32 /* 000033FE, value 0x2856206D '(V m' */]
000033CE  2149 0004                move.l     [A0 + 0x4], A1
000033D2  214C 0008                move.l     [A0 + 0x8], A4
000033D6  20AD FE7E                move.l     [A0], [A5 - 0x182]
000033DA  2B48 FE7E                move.l     [A5 - 0x182], A0
label000033DE:
000033DE  3014                     move.w     D0, [A4]
000033E0  6E00 000C                bgt        +0xE /* 000033EE */
000033E4  0654 03E8                addi.w     [A4], 0x3E8
000033E8  066C 03E8 0002           addi.w     [A4 + 0x2], 0x3E8
label000033EE:
000033EE  366C 000E                movea.w    A3, [A4 + 0xE]
000033F2  B6FC 0000                cmpa.w     A3, 0x0
000033F6  6704                     beq        +0x6 /* 000033FC */
000033F8  D8CB                     add.w      A4, A3
000033FA  60E2                     bra        -0x1C /* 000033DE */
label000033FC:
000033FC  4E75                     rts
000033FE  2856                     movea.l    A4, [A6]
00003400  206D FFA8                movea.l    A0, [A5 - 0x58]
00003404  226D FE18                movea.l    A1, [A5 - 0x1E8]
label00003408:
00003408  3014                     move.w     D0, [A4]
0000340A  6F00 003C                ble        +0x3E /* 00003448 */
0000340E  322C 000A                move.w     D1, [A4 + 0xA]
00003412  0641 0028                addi.w     D1, 0x28 /* '(' */
00003416  342C 0010                move.w     D2, [A4 + 0x10]
0000341A  4A6C 000C                tst.w      [A4 + 0xC]
0000341E  6E08                     bgt        +0xA /* 00003428 */
00003420  B06C 0006                cmp.w      D0, [A4 + 0x6]
00003424  6E0C                     bgt        +0xE /* 00003432 */
00003426  6006                     bra        +0x8 /* 0000342E */
label00003428:
00003428  B06C 0008                cmp.w      D0, [A4 + 0x8]
0000342C  6D04                     blt        +0x6 /* 00003432 */
label0000342E:
0000342E  446C 000C                neg.w      [A4 + 0xC]
label00003432:
00003432  362C 000C                move.w     D3, [A4 + 0xC]
00003436  D043                     add.w      D0, D3
00003438  3880                     move.w     [A4], D0
0000343A  D76C 0002                add.w      [A4 + 0x2], D3
0000343E  0640 000E                addi.w     D0, 0xE
00003442  9043                     sub.w      D0, D3
00003444  4EBA CBBA                jsr        [PC - 0x3446 /* 00000000 */]
label00003448:
00003448  366C 000E                movea.w    A3, [A4 + 0xE]
0000344C  B6FC 0000                cmpa.w     A3, 0x0
00003450  6704                     beq        +0x6 /* 00003456 */
00003452  D8CB                     add.w      A4, A3
00003454  60B2                     bra        -0x4C /* 00003408 */
label00003456:
00003456  4E75                     rts
export_89:
00003458  2648                     movea.l    A3, A0
0000345A  3013                     move.w     D0, [A3]
0000345C  C0FC 000E                mulu.w     D0, 0xE
00003460  0680 0000 0012           addi.l     D0, 0x12
00003466  A31E                     syscall    NewPtrClear, flags=3
00003468  43FA 002E                lea.l      A1, [PC + 0x2E /* 00003498, value 0x47EE0006 */]
0000346C  2149 0004                move.l     [A0 + 0x4], A1
00003470  381B                     move.w     D4, [A3]+
00003472  5344                     subq.w     D4, 1
00003474  3144 0008                move.w     [A0 + 0x8], D4
00003478  214A 000A                move.l     [A0 + 0xA], A2
0000347C  43E8 000E                lea.l      A1, [A0 + 0xE]
label00003480:
00003480  22DB                     move.l     [A1]+, [A3]+
00003482  22DB                     move.l     [A1]+, [A3]+
00003484  4299                     clr.l      [A1]+
00003486  32FC 000E                move.w     [A1]+, 0xE
0000348A  51CC FFF4                dbf        D4, -0xE /* 00003480 */
0000348E  20AD FE7E                move.l     [A0], [A5 - 0x182]
00003492  2B48 FE7E                move.l     [A5 - 0x182], A0
00003496  4E75                     rts
00003498  47EE 0006                lea.l      A3, [A6 + 0x6]
0000349C  246E 0002                movea.l    A2, [A6 + 0x2]
000034A0  3C16                     move.w     D6, [A6]
label000034A2:
000034A2  382B 0008                move.w     D4, [A3 + 0x8]
000034A6  6D00 0240                blt        +0x242 /* 000036E8 */
000034AA  206D FFA8                movea.l    A0, [A5 - 0x58]
000034AE  3013                     move.w     D0, [A3]
000034B0  322B 0002                move.w     D1, [A3 + 0x2]
000034B4  E544                     asl        D4.w, 2
000034B6  4EFB 4002                jmp        [PC + D4.w + 0x2]
000034BA  4EFA 0016                jmp        [PC + 0x16 /* 000034D2 */]
000034BE  4EFA 0046                jmp        [PC + 0x46 /* 00003506 */]
000034C2  4EFA 0074                jmp        [PC + 0x74 /* 00003538 */]
000034C6  4EFA 0126                jmp        [PC + 0x126 /* 000035EE */]
000034CA  4EFA 013E                jmp        [PC + 0x13E /* 0000360A */]
000034CE  4EFA 0176                jmp        [PC + 0x176 /* 00003646 */]
label000034D2:
000034D2  342B 0004                move.w     D2, [A3 + 0x4]
000034D6  226D FDEE                movea.l    A1, [A5 - 0x212]
000034DA  5D40                     subq.w     D0, 6
000034DC  4EBA CB22                jsr        [PC - 0x34DE /* 00000000 */]
000034E0  5C40                     addq.w     D0, 6
000034E2  536B 0006                subq.w     [A3 + 0x6], 1
000034E6  6E00 0200                bgt        +0x202 /* 000036E8 */
000034EA  41D3                     lea.l      A0, [A3]
000034EC  2E3C 0600 0000           move.l     D7, 0x6000000
000034F2  4EBA 2456                jsr        [PC + 0x2456 /* 0000594A */]
000034F6  377C 0014 0006           move.w     [A3 + 0x6], 0x14
000034FC  377C 0001 0008           move.w     [A3 + 0x8], 0x1
00003502  6000 01E4                bra        +0x1E6 /* 000036E8 */
label00003506:
00003506  342B 0004                move.w     D2, [A3 + 0x4]
0000350A  226D FDEE                movea.l    A1, [A5 - 0x212]
0000350E  362B 0006                move.w     D3, [A3 + 0x6]
00003512  0243 0001                andi.w     D3, 0x1
00003516  5D43                     subq.w     D3, 6
00003518  D043                     add.w      D0, D3
0000351A  4EBA CAE4                jsr        [PC - 0x351C /* 00000000 */]
0000351E  9043                     sub.w      D0, D3
00003520  536B 0006                subq.w     [A3 + 0x6], 1
00003524  6E00 01C2                bgt        +0x1C4 /* 000036E8 */
00003528  377C 0003 0006           move.w     [A3 + 0x6], 0x3
0000352E  377C 0002 0008           move.w     [A3 + 0x8], 0x2
00003534  6000 01B2                bra        +0x1B4 /* 000036E8 */
label00003538:
00003538  342B 0004                move.w     D2, [A3 + 0x4]
0000353C  226D FDEE                movea.l    A1, [A5 - 0x212]
00003540  5D40                     subq.w     D0, 6
00003542  4EBA CABC                jsr        [PC - 0x3544 /* 00000000 */]
00003546  5C40                     addq.w     D0, 6
00003548  D26B 0006                add.w      D1, [A3 + 0x6]
0000354C  566B 0006                addq.w     [A3 + 0x6], 3
00003550  3741 0002                move.w     [A3 + 0x2], D1
00003554  362B 000C                move.w     D3, [A3 + 0xC]
00003558  3832 3002                move.w     D4, [A2 + D3.w + 0x2]
label0000355C:
0000355C  3E32 3000                move.w     D7, [A2 + D3.w]
00003560  BE41                     cmp.w      D7, D1
00003562  6004                     bra        +0x6 /* 00003568 */
label00003564:
00003564  5843                     addq.w     D3, 4
00003566  60F4                     bra        -0xA /* 0000355C */
label00003568:
00003568  6E00 007C                bgt        +0x7E /* 000035E6 */
0000356C  3832 3002                move.w     D4, [A2 + D3.w + 0x2]
label00003570:
00003570  3E32 4002                move.w     D7, [A2 + D4.w + 0x2]
00003574  0647 0014                addi.w     D7, 0x14
00003578  B047                     cmp.w      D0, D7
0000357A  6E14                     bgt        +0x16 /* 00003590 */
0000357C  3E32 4000                move.w     D7, [A2 + D4.w]
00003580  0647 0010                addi.w     D7, 0x10
00003584  B047                     cmp.w      D0, D7
00003586  6DDC                     blt        -0x22 /* 00003564 */
00003588  3232 3000                move.w     D1, [A2 + D3.w]
0000358C  6000 000E                bra        +0x10 /* 0000359C */
label00003590:
00003590  0644 0012                addi.w     D4, 0x12
00003594  4A72 4000                tst.w      [A2 + D4.w]
00003598  67CA                     beq        -0x34 /* 00003564 */
0000359A  60D4                     bra        -0x2A /* 00003570 */
label0000359C:
0000359C  3741 0002                move.w     [A3 + 0x2], D1
000035A0  0C72 0016 4004           cmpi.w     [A2 + D4.w + 0x4], 0x16
000035A6  660E                     bne        +0x10 /* 000035B6 */
000035A8  426B 0006                clr.w      [A3 + 0x6]
000035AC  377C 0005 0008           move.w     [A3 + 0x8], 0x5
000035B2  6000 0134                bra        +0x136 /* 000036E8 */
label000035B6:
000035B6  0C6B 0000 0004           cmpi.w     [A3 + 0x4], 0x0
000035BC  661A                     bne        +0x1C /* 000035D8 */
000035BE  0C72 000E 4004           cmpi.w     [A2 + D4.w + 0x4], 0xE
000035C4  6612                     bne        +0x14 /* 000035D8 */
000035C6  377C 0004 0008           move.w     [A3 + 0x8], 0x4
000035CC  3744 000A                move.w     [A3 + 0xA], D4
000035D0  426B 0006                clr.w      [A3 + 0x6]
000035D4  6000 0112                bra        +0x114 /* 000036E8 */
label000035D8:
000035D8  377C 0003 0008           move.w     [A3 + 0x8], 0x3
000035DE  426B 0006                clr.w      [A3 + 0x6]
000035E2  6000 0104                bra        +0x106 /* 000036E8 */
label000035E6:
000035E6  3743 000C                move.w     [A3 + 0xC], D3
000035EA  6000 00FC                bra        +0xFE /* 000036E8 */
label000035EE:
000035EE  49FA 00D0                lea.l      A4, [PC + 0xD0 /* 000036C0, value 0xEF11FC00 */]
000035F2  0C6B 0004 0006           cmpi.w     [A3 + 0x6], 0x4
000035F8  660C                     bne        +0xE /* 00003606 */
000035FA  3F00                     move.w     -[A7], D0
000035FC  303C 0021                move.w     D0, 0x21 /* '!' */
00003600  4EAD 0052                jsr        [A5 + 0x52 /* export_6, CODE:1 @ 00000114 */]
00003604  301F                     move.w     D0, [A7]+
label00003606:
00003606  6000 0056                bra        +0x58 /* 0000365E */
label0000360A:
0000360A  49FA 00C4                lea.l      A4, [PC + 0xC4 /* 000036D0, value 0xEF11FC00 */]
0000360E  0C6B 0004 0006           cmpi.w     [A3 + 0x6], 0x4
00003614  660C                     bne        +0xE /* 00003622 */
00003616  3F00                     move.w     -[A7], D0
00003618  303C 0021                move.w     D0, 0x21 /* '!' */
0000361C  4EAD 0052                jsr        [A5 + 0x52 /* export_6, CODE:1 @ 00000114 */]
00003620  301F                     move.w     D0, [A7]+
label00003622:
00003622  0C6B 0008 0006           cmpi.w     [A3 + 0x6], 0x8
00003628  6600 0034                bne        +0x36 /* 0000365E */
0000362C  382B 000A                move.w     D4, [A3 + 0xA]
00003630  3032 4000                move.w     D0, [A2 + D4.w]
00003634  3680                     move.w     [A3], D0
00003636  0472 03E8 4000           subi.w     [A2 + D4.w], 0x3E8
0000363C  0472 03E8 4002           subi.w     [A2 + D4.w + 0x2], 0x3E8
00003642  6000 001A                bra        +0x1C /* 0000365E */
label00003646:
00003646  49FA 005C                lea.l      A4, [PC + 0x5C /* 000036A4, value 0xEF13FC03 */]
0000364A  0C6B 0004 0006           cmpi.w     [A3 + 0x6], 0x4
00003650  660C                     bne        +0xE /* 0000365E */
00003652  3F00                     move.w     -[A7], D0
00003654  303C 0056                move.w     D0, 0x56 /* 'V' */
00003658  4EAD 0052                jsr        [A5 + 0x52 /* export_6, CODE:1 @ 00000114 */]
0000365C  301F                     move.w     D0, [A7]+
label0000365E:
0000365E  D8EB 0006                add.w      A4, [A3 + 0x6]
00003662  586B 0006                addq.w     [A3 + 0x6], 4
00003666  161C                     move.b     D3, [A4]+
00003668  4883                     ext.w      D3
0000366A  D043                     add.w      D0, D3
0000366C  161C                     move.b     D3, [A4]+
0000366E  4883                     ext.w      D3
00003670  D243                     add.w      D1, D3
00003672  161C                     move.b     D3, [A4]+
00003674  4883                     ext.w      D3
00003676  41ED FDEE                lea.l      A0, [A5 - 0x212]
0000367A  2270 3000                movea.l    A1, [A0 + D3.w]
0000367E  141C                     move.b     D2, [A4]+
00003680  4882                     ext.w      D2
00003682  6C14                     bge        +0x16 /* 00003698 */
00003684  377C FFFF 0008           move.w     [A3 + 0x8], 0xFFFF
0000368A  41D3                     lea.l      A0, [A3]
0000368C  4EBA 22EE                jsr        [PC + 0x22EE /* 0000597C */]
00003690  206D FFA8                movea.l    A0, [A5 - 0x58]
00003694  6000 0052                bra        +0x54 /* 000036E8 */
label00003698:
00003698  206D FFA8                movea.l    A0, [A5 - 0x58]
0000369C  4EBA C962                jsr        [PC - 0x369E /* 00000000 */]
000036A0  6000 0046                bra        +0x48 /* 000036E8 */
000036A4  EF13                     roxl       D3.b, 7
000036A6  FC03 EF13                .unknown   0xFC03 0xEF13 (W = 6)
000036AA  FC04 E816                .unknown   0xFC04 0xE816 (W = 6)
000036AE  F800 E816                .tblXX     0xF800, 0xE816 // unimplemented
000036B2  F801 E816                .tblXX     0xF801, 0xE816 // unimplemented
000036B6  F802 E816                .tblXX     0xF802, 0xE816 // unimplemented
000036BA  F803 0000                .tblXX     0xF803, 0x0000 // unimplemented
000036BE  00FF                     .incomplete
000036C0  EF11                     roxl       D1.b, 7
000036C2  FC00 EF11                .unknown   0xFC00 0xEF11 (W = 6)
000036C6  FC01 EF11                .unknown   0xFC01 0xEF11 (W = 6)
000036CA  FC02 0000                .unknown   0xFC02 0x0000 (W = 6)
000036CE  00FF                     .incomplete
000036D0  EF11                     roxl       D1.b, 7
000036D2  FC00 EF11                .unknown   0xFC00 0xEF11 (W = 6)
000036D6  FC01 0A28                .unknown   0xFC01 0x0A28 (W = 6)
000036DA  F400                     .invalid   <<cinv/cpush with scope=0>>
000036DC  0A2B F401 0A30           xori.b     [A3 + 0xA30], 0x1
000036E2  F402                     .invalid   <<cinv/cpush with scope=0>>
000036E4  0000 00FF                ori.b      D0, 0xFF
label000036E8:
000036E8  D6FC 000E                add.w      A3, 0xE
000036EC  51CE FDB4                dbf        D6, -0x24E /* 000034A2 */
000036F0  4E75                     rts
export_90:
000036F2  2648                     movea.l    A3, A0
000036F4  2849                     movea.l    A4, A1
000036F6  3800                     move.w     D4, D0
000036F8  3A01                     move.w     D5, D1
000036FA  701E                     moveq.l    D0, 0x1E
000036FC  A31E                     syscall    NewPtrClear, flags=3
000036FE  43FA 004A                lea.l      A1, [PC + 0x4A /* 0000374A, value 0x536E0008, cstring "Sn" */]
00003702  2149 0004                move.l     [A0 + 0x4], A1
00003706  224A                     movea.l    A1, A2
00003708  D2EB 0002                add.w      A1, [A3 + 0x2]
0000370C  D2FC 0012                add.w      A1, 0x12
00003710  2149 0008                move.l     [A0 + 0x8], A1
00003714  4291                     clr.l      [A1]
00003716  224A                     movea.l    A1, A2
00003718  D2EC 0002                add.w      A1, [A4 + 0x2]
0000371C  D2FC 0012                add.w      A1, 0x12
00003720  2149 000C                move.l     [A0 + 0xC], A1
00003724  4291                     clr.l      [A1]
00003726  214C 001A                move.l     [A0 + 0x1A], A4
0000372A  3153 0016                move.w     [A0 + 0x16], [A3]
0000372E  3154 0018                move.w     [A0 + 0x18], [A4]
00003732  3144 0012                move.w     [A0 + 0x12], D4
00003736  3145 0014                move.w     [A0 + 0x14], D5
0000373A  317C 0002 0010           move.w     [A0 + 0x10], 0x2
00003740  20AD FE7E                move.l     [A0], [A5 - 0x182]
00003744  2B48 FE7E                move.l     [A5 - 0x182], A0
00003748  4E75                     rts
0000374A  536E 0008                subq.w     [A6 + 0x8], 1
0000374E  6E00 00C6                bgt        +0xC8 /* 00003816 */
00003752  6D00 00AE                blt        +0xB0 /* 00003802 */
00003756  4EBA 2510                jsr        [PC + 0x2510 /* 00005C68 */]
0000375A  C06E 000A                and.w      D0, [A6 + 0xA]
0000375E  D06E 000C                add.w      D0, [A6 + 0xC]
00003762  4440                     neg.w      D0
00003764  3D40 0008                move.w     [A6 + 0x8], D0
00003768  2056                     movea.l    A0, [A6]
0000376A  7200                     moveq.l    D1, 0x00
label0000376C:
0000376C  4A90                     tst.l      [A0]
0000376E  6708                     beq        +0xA /* 00003778 */
00003770  D0FC 0012                add.w      A0, 0x12
00003774  5241                     addq.w     D1, 1
00003776  60F4                     bra        -0xA /* 0000376C */
label00003778:
00003778  0C41 0009                cmpi.w     D1, 0x9 /* '\t' */
0000377C  6C00 0098                bge        +0x9A /* 00003816 */
00003780  42A8 0012                clr.l      [A0 + 0x12]
label00003784:
00003784  90FC 0012                sub.w      A0, 0x12
00003788  4A90                     tst.l      [A0]
0000378A  671A                     beq        +0x1C /* 000037A6 */
0000378C  2248                     movea.l    A1, A0
0000378E  D2FC 0012                add.w      A1, 0x12
00003792  2649                     movea.l    A3, A1
00003794  2448                     movea.l    A2, A0
00003796  7002                     moveq.l    D0, 0x02
label00003798:
00003798  22DA                     move.l     [A1]+, [A2]+
0000379A  51C8 FFFC                dbf        D0, -0x6 /* 00003798 */
0000379E  377C 0012 000A           move.w     [A3 + 0xA], 0x12
000037A4  60DE                     bra        -0x20 /* 00003784 */
label000037A6:
000037A6  2456                     movea.l    A2, [A6]
000037A8  34BC FFFB                move.w     [A2], 0xFFFB
000037AC  357C 0022 0002           move.w     [A2 + 0x2], 0x22 /* '\"' */
000037B2  357C 000F 0004           move.w     [A2 + 0x4], 0xF
000037B8  357C 0002 0006           move.w     [A2 + 0x6], 0x2
000037BE  357C 0012 000A           move.w     [A2 + 0xA], 0x12
000037C4  356E 000E 0008           move.w     [A2 + 0x8], [A6 + 0xE]
000037CA  701A                     moveq.l    D0, 0x1A
000037CC  A31E                     syscall    NewPtrClear, flags=3
000037CE  43FA 0048                lea.l      A1, [PC + 0x48 /* 00003818, value 0xC6E0002 */]
000037D2  2149 0004                move.l     [A0 + 0x4], A1
000037D6  214A 0008                move.l     [A0 + 0x8], A2
000037DA  216E 0004 000C           move.l     [A0 + 0xC], [A6 + 0x4]
000037E0  4268 0012                clr.w      [A0 + 0x12]
000037E4  316E 0010 0010           move.w     [A0 + 0x10], [A6 + 0x10]
000037EA  317C 0001 0014           move.w     [A0 + 0x14], 0x1
000037F0  216E 0012 0016           move.l     [A0 + 0x16], [A6 + 0x12]
000037F6  20AD FE7E                move.l     [A0], [A5 - 0x182]
000037FA  2B48 FE7E                move.l     [A5 - 0x182], A0
000037FE  6000 0016                bra        +0x18 /* 00003816 */
label00003802:
00003802  2056                     movea.l    A0, [A6]
00003804  446E 0008                neg.w      [A6 + 0x8]
label00003808:
00003808  4A90                     tst.l      [A0]
0000380A  670A                     beq        +0xC /* 00003816 */
0000380C  4268 000A                clr.w      [A0 + 0xA]
00003810  D0FC 0012                add.w      A0, 0x12
00003814  60F2                     bra        -0xC /* 00003808 */
label00003816:
00003816  4E75                     rts
00003818  0C6E 0002 000A           cmpi.w     [A6 + 0xA], 0x2
0000381E  6700 0122                beq        +0x124 /* 00003942 */
00003822  2856                     movea.l    A4, [A6]
00003824  4A6E 000C                tst.w      [A6 + 0xC]
00003828  6706                     beq        +0x8 /* 00003830 */
0000382A  426E 000C                clr.w      [A6 + 0xC]
0000382E  6006                     bra        +0x8 /* 00003836 */
label00003830:
00003830  D8EC 000A                add.w      A4, [A4 + 0xA]
00003834  2C8C                     move.l     [A6], A4
label00003836:
00003836  362E 000A                move.w     D3, [A6 + 0xA]
0000383A  E543                     asl        D3.w, 2
0000383C  4EFB 3004                jmp        [PC + D3.w + 0x4]
00003840  0000 4EFA                ori.b      D0, 0xFA
00003844  0034 4EFA 016E           ori.b      <<invalid full ext with IS == 1 and I/IS == 6>>, 0xFA
0000384A  4EFA 00F6                jmp        [PC + 0xF6 /* 00003942 */]
0000384E  4EFA 00D8                jmp        [PC + 0xD8 /* 00003928 */]
fn00003852:
00003852  4242                     clr.w      D2
00003854  206D FFA8                movea.l    A0, [A5 - 0x58]
00003858  226D FE10                movea.l    A1, [A5 - 0x1F0]
0000385C  3014                     move.w     D0, [A4]
0000385E  322C 0008                move.w     D1, [A4 + 0x8]
00003862  0641 0028                addi.w     D1, 0x28 /* '(' */
00003866  5040                     addq.w     D0, 8
00003868  4EBA C796                jsr        [PC - 0x386A /* 00000000 */]
0000386C  362C 0006                move.w     D3, [A4 + 0x6]
00003870  D754                     add.w      [A4], D3
00003872  D76C 0002                add.w      [A4 + 0x2], D3
00003876  4E75                     rts
00003878  61D8                     bsr        -0x26 /* 00003852 */
0000387A  3614                     move.w     D3, [A4]
0000387C  0C43 01EA                cmpi.w     D3, 0x1EA
00003880  6F00 0160                ble        +0x162 /* 000039E2 */
00003884  206E 0004                movea.l    A0, [A6 + 0x4]
label00003888:
00003888  4A90                     tst.l      [A0]
0000388A  6706                     beq        +0x8 /* 00003892 */
0000388C  D0FC 0012                add.w      A0, 0x12
00003890  60F6                     bra        -0x8 /* 00003888 */
label00003892:
00003892  42A8 0012                clr.l      [A0 + 0x12]
label00003896:
00003896  90FC 0012                sub.w      A0, 0x12
0000389A  4A90                     tst.l      [A0]
0000389C  671A                     beq        +0x1C /* 000038B8 */
0000389E  2248                     movea.l    A1, A0
000038A0  D2FC 0012                add.w      A1, 0x12
000038A4  2649                     movea.l    A3, A1
000038A6  2448                     movea.l    A2, A0
000038A8  7002                     moveq.l    D0, 0x02
label000038AA:
000038AA  22DA                     move.l     [A1]+, [A2]+
000038AC  51C8 FFFC                dbf        D0, -0x6 /* 000038AA */
000038B0  377C 0012 000A           move.w     [A3 + 0xA], 0x12
000038B6  60DE                     bra        -0x20 /* 00003896 */
label000038B8:
000038B8  266E 0004                movea.l    A3, [A6 + 0x4]
000038BC  36BC FFE7                move.w     [A3], 0xFFE7
000038C0  377C 000E 0002           move.w     [A3 + 0x2], 0xE
000038C6  376C 0004 0004           move.w     [A3 + 0x4], [A4 + 0x4]
000038CC  376C 0006 0006           move.w     [A3 + 0x6], [A4 + 0x6]
000038D2  376E 0008 0008           move.w     [A3 + 0x8], [A6 + 0x8]
000038D8  377C 0012 000A           move.w     [A3 + 0xA], 0x12
000038DE  2C8B                     move.l     [A6], A3
000038E0  3D7C 0001 000C           move.w     [A6 + 0xC], 0x1
000038E6  226D FF7A                movea.l    A1, [A5 - 0x86]
000038EA  5049                     addq.w     A1, 8
000038EC  2451                     movea.l    A2, [A1]
000038EE  D4E9 0004                add.w      A2, [A1 + 0x4]
000038F2  B5CC                     cmpa.l     A2, A4
000038F4  6626                     bne        +0x28 /* 0000391C */
000038F6  204B                     movea.l    A0, A3
000038F8  91D1                     sub.l      A0, [A1]
000038FA  3348 0004                move.w     [A1 + 0x4], A0
000038FE  206E 000E                movea.l    A0, [A6 + 0xE]
00003902  91D1                     sub.l      A0, [A1]
00003904  3348 0006                move.w     [A1 + 0x6], A0
00003908  336B 0008 000E           move.w     [A1 + 0xE], [A3 + 0x8]
0000390E  3029 000C                move.w     D0, [A1 + 0xC]
00003912  9054                     sub.w      D0, [A4]
00003914  D053                     add.w      D0, [A3]
00003916  5540                     subq.w     D0, 2
00003918  3340 000C                move.w     [A1 + 0xC], D0
label0000391C:
0000391C  3D7C 0003 000A           move.w     [A6 + 0xA], 0x3
00003922  4294                     clr.l      [A4]
00003924  6000 00BC                bra        +0xBE /* 000039E2 */
label00003928:
00003928  206E 0004                movea.l    A0, [A6 + 0x4]
0000392C  3D7C 0001 000A           move.w     [A6 + 0xA], 0x1
label00003932:
00003932  4A90                     tst.l      [A0]
00003934  6700 00AC                beq        +0xAE /* 000039E2 */
00003938  4268 000A                clr.w      [A0 + 0xA]
0000393C  D0FC 0012                add.w      A0, 0x12
00003940  60F0                     bra        -0xE /* 00003932 */
label00003942:
00003942  3816                     move.w     D4, [A6]
00003944  E744                     asl        D4.w, 3
00003946  49FA 002E                lea.l      A4, [PC + 0x2E /* 00003976, value 0x80008, cstring "" */]
0000394A  D8C4                     add.w      A4, D4
0000394C  4A94                     tst.l      [A4]
0000394E  671E                     beq        +0x20 /* 0000396E */
00003950  302E 0002                move.w     D0, [A6 + 0x2]
00003954  322E 0008                move.w     D1, [A6 + 0x8]
00003958  206D FFA8                movea.l    A0, [A5 - 0x58]
0000395C  226D FE0C                movea.l    A1, [A5 - 0x1F4]
00003960  D05C                     add.w      D0, [A4]+
00003962  D25C                     add.w      D1, [A4]+
00003964  3414                     move.w     D2, [A4]
00003966  4EBA C698                jsr        [PC - 0x3968 /* 00000000 */]
0000396A  5256                     addq.w     [A6], 1
0000396C  6004                     bra        +0x6 /* 00003972 */
label0000396E:
0000396E  42AE FFFC                clr.l      [A6 - 0x4]
label00003972:
00003972  6000 006E                bra        +0x70 /* 000039E2 */
00003976  0008 0008                ori.b      A0, 0x8
0000397A  0000 0000                ori.b      D0, 0x0
0000397E  000C 000E                ori.b      A4, 0xE
00003982  0001 0000                ori.b      D1, 0x0
00003986  0010 0008                ori.b      [A0], 0x8
0000398A  0002 0000                ori.b      D2, 0x0
0000398E  001C 000A                ori.b      [A4]+, 0xA /* '\n' */
00003992  0003 0000                ori.b      D3, 0x0
00003996  0020 000E                ori.b      -[A0], 0xE
0000399A  0004 0000                ori.b      D4, 0x0
0000399E  0022 0012                ori.b      -[A2], 0x12
000039A2  0005 0000                ori.b      D5, 0x0
000039A6  0022 0016                ori.b      -[A2], 0x16
000039AA  0005 0000                ori.b      D5, 0x0
000039AE  0000 0000                ori.b      D0, 0x0
000039B2  0000 0000                ori.b      D0, 0x0
000039B6  4EBA FE9A                jsr        [PC - 0x166 /* 00003852 */]
000039BA  362C 0002                move.w     D3, [A4 + 0x2]
000039BE  0C43 0172                cmpi.w     D3, 0x172
000039C2  6F1E                     ble        +0x20 /* 000039E2 */
000039C4  4256                     clr.w      [A6]
000039C6  3D54 0002                move.w     [A6 + 0x2], [A4]
000039CA  3D6E 0008 0008           move.w     [A6 + 0x8], [A6 + 0x8]
000039D0  066E 0018 0008           addi.w     [A6 + 0x8], 0x18
000039D6  4294                     clr.l      [A4]
000039D8  3D7C 0002 000A           move.w     [A6 + 0xA], 0x2
000039DE  6000 0002                bra        +0x4 /* 000039E2 */
label000039E2:
000039E2  4E75                     rts
export_91:
000039E4  7016                     moveq.l    D0, 0x16
000039E6  A31E                     syscall    NewPtrClear, flags=3
000039E8  43FA 006C                lea.l      A1, [PC + 0x6C /* 00003A56, value 0x4A6E000C, cstring "Jn" */]
000039EC  2149 0004                move.l     [A0 + 0x4], A1
000039F0  4EBA 2276                jsr        [PC + 0x2276 /* 00005C68 */]
000039F4  4840                     swap.w     D0
000039F6  4240                     clr.w      D0
000039F8  4840                     swap.w     D0
000039FA  80FC 0006                divu.w     D0, 0x6
000039FE  4840                     swap.w     D0
00003A00  E540                     asl        D0.w, 2
00003A02  217B 003A 0008           move.l     [A0 + 0x8], [PC + D0.w + 0x3A]
00003A08  4268 0010                clr.w      [A0 + 0x10]
00003A0C  42A8 000C                clr.l      [A0 + 0xC]
00003A10  4268 0012                clr.w      [A0 + 0x12]
00003A14  4268 0014                clr.w      [A0 + 0x14]
00003A18  20AD FE7E                move.l     [A0], [A5 - 0x182]
00003A1C  2B48 FE7E                move.l     [A5 - 0x182], A0
00003A20  2B7C 0001 0000 FCBC      move.l     [A5 - 0x344], 0x10000
00003A28  2B7C 0049 00FF FCC0      move.l     [A5 - 0x340], 0x4900FF
00003A30  42AD FCB4                clr.l      [A5 - 0x34C]
00003A34  42AD FCB8                clr.l      [A5 - 0x348]
00003A38  426D FC66                clr.w      [A5 - 0x39A]
00003A3C  4E75                     rts
00003A3E  0001 0200                ori.b      D1, 0x0
00003A42  0002 0100                ori.b      D2, 0x0
00003A46  0100                     btst       D0, D0
00003A48  0200 0102                andi.b     D0, 0x2
00003A4C  0000 0201                ori.b      D0, 0x1
00003A50  0000 0200                ori.b      D0, 0x0
00003A54  0100                     btst       D0, D0
00003A56  4A6E 000C                tst.w      [A6 + 0xC]
00003A5A  6728                     beq        +0x2A /* 00003A84 */
00003A5C  6D14                     blt        +0x16 /* 00003A72 */
00003A5E  536E 000C                subq.w     [A6 + 0xC], 1
00003A62  6E20                     bgt        +0x22 /* 00003A84 */
00003A64  3F00                     move.w     -[A7], D0
00003A66  303C 0029                move.w     D0, 0x29 /* ')' */
00003A6A  4EAD 0052                jsr        [A5 + 0x52 /* export_6, CODE:1 @ 00000114 */]
00003A6E  301F                     move.w     D0, [A7]+
00003A70  6012                     bra        +0x14 /* 00003A84 */
label00003A72:
00003A72  526E 000C                addq.w     [A6 + 0xC], 1
00003A76  6D0C                     blt        +0xE /* 00003A84 */
00003A78  3F00                     move.w     -[A7], D0
00003A7A  303C 0028                move.w     D0, 0x28 /* '(' */
00003A7E  4EAD 0052                jsr        [A5 + 0x52 /* export_6, CODE:1 @ 00000114 */]
00003A82  301F                     move.w     D0, [A7]+
label00003A84:
00003A84  122D FC66                move.b     D1, [A5 - 0x39A]
00003A88  6762                     beq        +0x64 /* 00003AEC */
00003A8A  422D FC66                clr.b      [A5 - 0x39A]
00003A8E  4240                     clr.w      D0
label00003A90:
00003A90  E209                     lsr        D1.b, 1
00003A92  6504                     bcs        +0x6 /* 00003A98 */
00003A94  5240                     addq.w     D0, 1
00003A96  60F8                     bra        -0x6 /* 00003A90 */
label00003A98:
00003A98  47EE 0004                lea.l      A3, [A6 + 0x4]
00003A9C  362E 0008                move.w     D3, [A6 + 0x8]
00003AA0  1780 3000                move.b     [A3 + D3.w], D0
00003AA4  5243                     addq.w     D3, 1
00003AA6  3D43 0008                move.w     [A6 + 0x8], D3
00003AAA  0C43 0003                cmpi.w     D3, 0x3
00003AAE  6D00 003C                blt        +0x3E /* 00003AEC */
00003AB2  2A2E 0004                move.l     D5, [A6 + 0x4]
00003AB6  BA96                     cmp.l      D5, [A6]
00003AB8  6600 0020                bne        +0x22 /* 00003ADA */
00003ABC  3D7C 0001 000A           move.w     [A6 + 0xA], 0x1
00003AC2  303C 000E                move.w     D0, 0xE
00003AC6  4EBA 214C                jsr        [PC + 0x214C /* 00005C14 */]
00003ACA  2CBC FFFF FFFF           move.l     [A6], 0xFFFFFFFF
00003AD0  3D7C 0002 000C           move.w     [A6 + 0xC], 0x2
00003AD6  6000 0014                bra        +0x16 /* 00003AEC */
label00003ADA:
00003ADA  42AE 0004                clr.l      [A6 + 0x4]
00003ADE  426E 0008                clr.w      [A6 + 0x8]
00003AE2  3D7C FFFE 000C           move.w     [A6 + 0xC], 0xFFFE
00003AE8  6000 003E                bra        +0x40 /* 00003B28 */
label00003AEC:
00003AEC  362E 000A                move.w     D3, [A6 + 0xA]
00003AF0  6D36                     blt        +0x38 /* 00003B28 */
00003AF2  206D FFA8                movea.l    A0, [A5 - 0x58]
00003AF6  226D FC5A                movea.l    A1, [A5 - 0x3A6]
00003AFA  303C 010A                move.w     D0, 0x10A
00003AFE  323C 0016                move.w     D1, 0x16
00003B02  3403                     move.w     D2, D3
00003B04  0242 0001                andi.w     D2, 0x1
00003B08  4EBA C4F6                jsr        [PC - 0x3B0A /* 00000000 */]
00003B0C  4A43                     tst.w      D3
00003B0E  6718                     beq        +0x1A /* 00003B28 */
00003B10  526E 000A                addq.w     [A6 + 0xA], 1
00003B14  0C43 000A                cmpi.w     D3, 0xA /* '\n' */
00003B18  660E                     bne        +0x10 /* 00003B28 */
00003B1A  3D7C FFFF 000A           move.w     [A6 + 0xA], 0xFFFF
00003B20  42AD FCBC                clr.l      [A5 - 0x344]
00003B24  42AD FCC0                clr.l      [A5 - 0x340]
label00003B28:
00003B28  4E75                     rts
export_92:
00003B2A  2848                     movea.l    A4, A0
00003B2C  3E00                     move.w     D7, D0
00003B2E  3A01                     move.w     D5, D1
00003B30  3C02                     move.w     D6, D2
00003B32  701A                     moveq.l    D0, 0x1A
00003B34  A31E                     syscall    NewPtrClear, flags=3
00003B36  43FA 002C                lea.l      A1, [PC + 0x2C /* 00003B64, value 0x53566E26 'SVn&', cstring "SVn& n" */]
00003B3A  2149 0004                move.l     [A0 + 0x4], A1
00003B3E  214C 000A                move.l     [A0 + 0xA], A4
00003B42  3147 000E                move.w     [A0 + 0xE], D7
00003B46  4268 0008                clr.w      [A0 + 0x8]
00003B4A  3145 0010                move.w     [A0 + 0x10], D5
00003B4E  3146 0012                move.w     [A0 + 0x12], D6
00003B52  2143 0014                move.l     [A0 + 0x14], D3
00003B56  3144 0018                move.w     [A0 + 0x18], D4
00003B5A  20AD FE7E                move.l     [A0], [A5 - 0x182]
00003B5E  2B48 FE7E                move.l     [A5 - 0x182], A0
00003B62  4E75                     rts
00003B64  5356                     subq.w     [A6], 1
00003B66  6E26                     bgt        +0x28 /* 00003B8E */
00003B68  206E 0002                movea.l    A0, [A6 + 0x2]
00003B6C  342E 0006                move.w     D2, [A6 + 0x6]
00003B70  302E 0010                move.w     D0, [A6 + 0x10]
00003B74  3230 2000                move.w     D1, [A0 + D2.w]
00003B78  262E 000C                move.l     D3, [A6 + 0xC]
00003B7C  4EBA 0012                jsr        [PC + 0x12 /* 00003B90 */]
00003B80  4EBA 20E6                jsr        [PC + 0x20E6 /* 00005C68 */]
00003B84  C06E 000A                and.w      D0, [A6 + 0xA]
00003B88  D06E 0008                add.w      D0, [A6 + 0x8]
00003B8C  3C80                     move.w     [A6], D0
label00003B8E:
00003B8E  4E75                     rts
fn00003B90:
00003B90  2848                     movea.l    A4, A0
00003B92  3800                     move.w     D4, D0
00003B94  3A01                     move.w     D5, D1
00003B96  3C02                     move.w     D6, D2
00003B98  7026                     moveq.l    D0, 0x26
00003B9A  A31E                     syscall    NewPtrClear, flags=3
00003B9C  43FA 004E                lea.l      A1, [PC + 0x4E /* 00003BEC, value 0x3016322E */]
00003BA0  2149 0004                move.l     [A0 + 0x4], A1
00003BA4  3144 0010                move.w     [A0 + 0x10], D4
00003BA8  4844                     swap.w     D4
00003BAA  4244                     clr.w      D4
00003BAC  2144 0008                move.l     [A0 + 0x8], D4
00003BB0  3145 0012                move.w     [A0 + 0x12], D5
00003BB4  4845                     swap.w     D5
00003BB6  4245                     clr.w      D5
00003BB8  2145 000C                move.l     [A0 + 0xC], D5
00003BBC  3146 0014                move.w     [A0 + 0x14], D6
00003BC0  214C 0016                move.l     [A0 + 0x16], A4
00003BC4  4268 001A                clr.w      [A0 + 0x1A]
00003BC8  2143 001C                move.l     [A0 + 0x1C], D3
00003BCC  42A8 0020                clr.l      [A0 + 0x20]
00003BD0  4268 0024                clr.w      [A0 + 0x24]
00003BD4  20AD FE7E                move.l     [A0], [A5 - 0x182]
00003BD8  2B48 FE7E                move.l     [A5 - 0x182], A0
00003BDC  41E8 0010                lea.l      A0, [A0 + 0x10]
00003BE0  2E3C 0700 0000           move.l     D7, 0x7000000
00003BE6  4EBA 1D62                jsr        [PC + 0x1D62 /* 0000594A */]
00003BEA  4E75                     rts
00003BEC  3016                     move.w     D0, [A6]
00003BEE  322E 0004                move.w     D1, [A6 + 0x4]
00003BF2  4A6E 001C                tst.w      [A6 + 0x1C]
00003BF6  6E00 0150                bgt        +0x152 /* 00003D48 */
00003BFA  0641 0018                addi.w     D1, 0x18
00003BFE  3D40 0008                move.w     [A6 + 0x8], D0
00003C02  506E 0008                addq.w     [A6 + 0x8], 8
00003C06  3D41 000A                move.w     [A6 + 0xA], D1
00003C0A  506E 000A                addq.w     [A6 + 0xA], 8
00003C0E  0C40 0000                cmpi.w     D0, 0x0
00003C12  6F06                     ble        +0x8 /* 00003C1A */
00003C14  0C40 01FE                cmpi.w     D0, 0x1FE
00003C18  6D04                     blt        +0x6 /* 00003C1E */
label00003C1A:
00003C1A  6000 010C                bra        +0x10E /* 00003D28 */
label00003C1E:
00003C1E  226D FD48                movea.l    A1, [A5 - 0x2B8]
00003C22  206D FFA8                movea.l    A0, [A5 - 0x58]
00003C26  342E 0012                move.w     D2, [A6 + 0x12]
00003C2A  5242                     addq.w     D2, 1
00003C2C  0C42 0004                cmpi.w     D2, 0x4
00003C30  6D02                     blt        +0x4 /* 00003C34 */
00003C32  4242                     clr.w      D2
label00003C34:
00003C34  3D42 0012                move.w     [A6 + 0x12], D2
00003C38  4EBA C3C6                jsr        [PC - 0x3C3A /* 00000000 */]
00003C3C  2016                     move.l     D0, [A6]
00003C3E  222E 0004                move.l     D1, [A6 + 0x4]
00003C42  D0AE 0014                add.l      D0, [A6 + 0x14]
00003C46  2A2E 0018                move.l     D5, [A6 + 0x18]
00003C4A  0685 0000 AAAA           addi.l     D5, 0xAAAA
00003C50  D285                     add.l      D1, D5
00003C52  2D45 0018                move.l     [A6 + 0x18], D5
00003C56  2C80                     move.l     [A6], D0
00003C58  2D41 0004                move.l     [A6 + 0x4], D1
00003C5C  4840                     swap.w     D0
00003C5E  4841                     swap.w     D1
00003C60  362E 000C                move.w     D3, [A6 + 0xC]
00003C64  246E 000E                movea.l    A2, [A6 + 0xE]
00003C68  3832 3002                move.w     D4, [A2 + D3.w + 0x2]
00003C6C  4A85                     tst.l      D5
00003C6E  6C3E                     bge        +0x40 /* 00003CAE */
label00003C70:
00003C70  3E32 3000                move.w     D7, [A2 + D3.w]
00003C74  6700 00AC                beq        +0xAE /* 00003D22 */
00003C78  BE41                     cmp.w      D7, D1
00003C7A  6004                     bra        +0x6 /* 00003C80 */
label00003C7C:
00003C7C  5943                     subq.w     D3, 4
00003C7E  60F0                     bra        -0xE /* 00003C70 */
label00003C80:
00003C80  6D00 00A0                blt        +0xA2 /* 00003D22 */
00003C84  3832 3002                move.w     D4, [A2 + D3.w + 0x2]
label00003C88:
00003C88  3E32 4002                move.w     D7, [A2 + D4.w + 0x2]
00003C8C  0647 0010                addi.w     D7, 0x10
00003C90  B047                     cmp.w      D0, D7
00003C92  6E0E                     bgt        +0x10 /* 00003CA2 */
00003C94  B072 4000                cmp.w      D0, [A2 + D4.w]
00003C98  6DE2                     blt        -0x1C /* 00003C7C */
00003C9A  3232 3000                move.w     D1, [A2 + D3.w]
00003C9E  6000 0048                bra        +0x4A /* 00003CE8 */
label00003CA2:
00003CA2  0644 0012                addi.w     D4, 0x12
00003CA6  4A72 4000                tst.w      [A2 + D4.w]
00003CAA  67D0                     beq        -0x2E /* 00003C7C */
00003CAC  60DA                     bra        -0x24 /* 00003C88 */
label00003CAE:
00003CAE  3E32 3000                move.w     D7, [A2 + D3.w]
00003CB2  BE41                     cmp.w      D7, D1
00003CB4  6004                     bra        +0x6 /* 00003CBA */
label00003CB6:
00003CB6  5843                     addq.w     D3, 4
00003CB8  60F4                     bra        -0xA /* 00003CAE */
label00003CBA:
00003CBA  6E00 0066                bgt        +0x68 /* 00003D22 */
00003CBE  3832 3002                move.w     D4, [A2 + D3.w + 0x2]
label00003CC2:
00003CC2  3E32 4002                move.w     D7, [A2 + D4.w + 0x2]
00003CC6  0647 0010                addi.w     D7, 0x10
00003CCA  B047                     cmp.w      D0, D7
00003CCC  6E0E                     bgt        +0x10 /* 00003CDC */
00003CCE  B072 4000                cmp.w      D0, [A2 + D4.w]
00003CD2  6DE2                     blt        -0x1C /* 00003CB6 */
00003CD4  3232 3000                move.w     D1, [A2 + D3.w]
00003CD8  6000 000E                bra        +0x10 /* 00003CE8 */
label00003CDC:
00003CDC  0644 0012                addi.w     D4, 0x12
00003CE0  4A72 4000                tst.w      [A2 + D4.w]
00003CE4  67D0                     beq        -0x2E /* 00003CB6 */
00003CE6  60DA                     bra        -0x24 /* 00003CC2 */
label00003CE8:
00003CE8  4841                     swap.w     D1
00003CEA  4241                     clr.w      D1
00003CEC  2D41 0004                move.l     [A6 + 0x4], D1
00003CF0  0C72 001D 4004           cmpi.w     [A2 + D4.w + 0x4], 0x1D
00003CF6  6700 0030                beq        +0x32 /* 00003D28 */
00003CFA  0C72 0016 4004           cmpi.w     [A2 + D4.w + 0x4], 0x16
00003D00  673A                     beq        +0x3C /* 00003D3C */
00003D02  0485 0001 FFFE           subi.l     D5, 0x1FFFE
00003D08  6E04                     bgt        +0x6 /* 00003D0E */
00003D0A  7A00                     moveq.l    D5, 0x00
00003D0C  600E                     bra        +0x10 /* 00003D1C */
label00003D0E:
00003D0E  3F00                     move.w     -[A7], D0
00003D10  303C 0023                move.w     D0, 0x23 /* '#' */
00003D14  4EAD 0052                jsr        [A5 + 0x52 /* export_6, CODE:1 @ 00000114 */]
00003D18  301F                     move.w     D0, [A7]+
00003D1A  5943                     subq.w     D3, 4
label00003D1C:
00003D1C  4485                     neg.l      D5
00003D1E  2D45 0018                move.l     [A6 + 0x18], D5
label00003D22:
00003D22  3D43 000C                move.w     [A6 + 0xC], D3
00003D26  4E75                     rts
label00003D28:
00003D28  3016                     move.w     D0, [A6]
00003D2A  322E 0004                move.w     D1, [A6 + 0x4]
00003D2E  41EE 0008                lea.l      A0, [A6 + 0x8]
00003D32  4EBA 1C48                jsr        [PC + 0x1C48 /* 0000597C */]
00003D36  42AE FFFC                clr.l      [A6 - 0x4]
00003D3A  60E6                     bra        -0x18 /* 00003D22 */
label00003D3C:
00003D3C  3D7C 0001 001C           move.w     [A6 + 0x1C], 0x1
00003D42  426E 0012                clr.w      [A6 + 0x12]
00003D46  60DA                     bra        -0x24 /* 00003D22 */
label00003D48:
00003D48  342E 0012                move.w     D2, [A6 + 0x12]
00003D4C  660C                     bne        +0xE /* 00003D5A */
00003D4E  3F00                     move.w     -[A7], D0
00003D50  303C 0056                move.w     D0, 0x56 /* 'V' */
00003D54  4EAD 0052                jsr        [A5 + 0x52 /* export_6, CODE:1 @ 00000114 */]
00003D58  301F                     move.w     D0, [A7]+
label00003D5A:
00003D5A  206D FFA8                movea.l    A0, [A5 - 0x58]
00003D5E  226D FD1C                movea.l    A1, [A5 - 0x2E4]
00003D62  0641 0014                addi.w     D1, 0x14
00003D66  0440 0014                subi.w     D0, 0x14
00003D6A  4EBA C294                jsr        [PC - 0x3D6C /* 00000000 */]
00003D6E  526E 0012                addq.w     [A6 + 0x12], 1
00003D72  0C6E 0005 0012           cmpi.w     [A6 + 0x12], 0x5
00003D78  6DA8                     blt        -0x56 /* 00003D22 */
00003D7A  60AC                     bra        -0x52 /* 00003D28 */
export_93:
00003D7C  7018                     moveq.l    D0, 0x18
00003D7E  A31E                     syscall    NewPtrClear, flags=3
00003D80  43FA 005E                lea.l      A1, [PC + 0x5E /* 00003DE0, value 0x303C0198 */]
00003D84  2149 0004                move.l     [A0 + 0x4], A1
00003D88  4268 0008                clr.w      [A0 + 0x8]
00003D8C  4268 000A                clr.w      [A0 + 0xA]
00003D90  4268 000C                clr.w      [A0 + 0xC]
00003D94  4268 000E                clr.w      [A0 + 0xE]
00003D98  4268 0010                clr.w      [A0 + 0x10]
00003D9C  317C 0186 0012           move.w     [A0 + 0x12], 0x186
00003DA2  317C 004E 0014           move.w     [A0 + 0x14], 0x4E /* 'N' */
00003DA8  4268 0016                clr.w      [A0 + 0x16]
00003DAC  20AD FE7E                move.l     [A0], [A5 - 0x182]
00003DB0  2B48 FE7E                move.l     [A5 - 0x182], A0
00003DB4  41E8 0012                lea.l      A0, [A0 + 0x12]
00003DB8  2E3C 0400 0000           move.l     D7, 0x4000000
00003DBE  4EBA 1B8A                jsr        [PC + 0x1B8A /* 0000594A */]
00003DC2  426D FCE4                clr.w      [A5 - 0x31C]
00003DC6  700A                     moveq.l    D0, 0x0A
00003DC8  A31E                     syscall    NewPtrClear, flags=3
00003DCA  43FA 02D0                lea.l      A1, [PC + 0x2D0 /* 0000409C, value 0x303C01C2 */]
00003DCE  2149 0004                move.l     [A0 + 0x4], A1
00003DD2  4268 0008                clr.w      [A0 + 0x8]
00003DD6  20AD FE7E                move.l     [A0], [A5 - 0x182]
00003DDA  2B48 FE7E                move.l     [A5 - 0x182], A0
00003DDE  4E75                     rts
00003DE0  303C 0198                move.w     D0, 0x198
00003DE4  323C 001B                move.w     D1, 0x1B
00003DE8  206D FFA8                movea.l    A0, [A5 - 0x58]
00003DEC  3E16                     move.w     D7, [A6]
00003DEE  4EFB 7002                jmp        [PC + D7.w + 0x2]
00003DF2  4EFA 000A                jmp        [PC + 0xA /* 00003DFE */]
00003DF6  4EFA 003A                jmp        [PC + 0x3A /* 00003E32 */]
00003DFA  4EFA 007C                jmp        [PC + 0x7C /* 00003E78 */]
label00003DFE:
00003DFE  362E 0002                move.w     D3, [A6 + 0x2]
00003E02  143B 301E                move.b     D2, [PC + D3.w + 0x1E]
00003E06  4882                     ext.w      D2
00003E08  226D FCFA                movea.l    A1, [A5 - 0x306]
00003E0C  4EBA C1F2                jsr        [PC - 0x3E0E /* 00000000 */]
00003E10  5243                     addq.w     D3, 1
00003E12  3D43 0002                move.w     [A6 + 0x2], D3
00003E16  1E3B 300A                move.b     D7, [PC + D3.w + 0xA]
00003E1A  6C00 01A8                bge        +0x1AA /* 00003FC4 */
00003E1E  6000 003C                bra        +0x3E /* 00003E5C */
00003E22  0505                     btst       D5, D2
00003E24  0506                     btst       D6, D2
00003E26  0606 0605                addi.b     D6, 0x5
00003E2A  0505                     btst       D5, D2
00003E2C  0707                     btst       D7, D3
00003E2E  0707                     btst       D7, D3
00003E30  FF00                     .extension 0xF00 <<F/4-5/7>> // unimplemented
label00003E32:
00003E32  362E 0002                move.w     D3, [A6 + 0x2]
00003E36  143B 301E                move.b     D2, [PC + D3.w + 0x1E]
00003E3A  4882                     ext.w      D2
00003E3C  226D FCFA                movea.l    A1, [A5 - 0x306]
00003E40  4EBA C1BE                jsr        [PC - 0x3E42 /* 00000000 */]
00003E44  5243                     addq.w     D3, 1
00003E46  3D43 0002                move.w     [A6 + 0x2], D3
00003E4A  1E3B 300A                move.b     D7, [PC + D3.w + 0xA]
00003E4E  6C00 0174                bge        +0x176 /* 00003FC4 */
00003E52  6000 0008                bra        +0xA /* 00003E5C */
00003E56  0001 0203                ori.b      D1, 0x3
00003E5A  04FF                     .incomplete
label00003E5C:
00003E5C  426E 0002                clr.w      [A6 + 0x2]
00003E60  4EBA 1E06                jsr        [PC + 0x1E06 /* 00005C68 */]
00003E64  0C40 3A98                cmpi.w     D0, 0x3A98
00003E68  6E06                     bgt        +0x8 /* 00003E70 */
00003E6A  4256                     clr.w      [A6]
00003E6C  6000 0156                bra        +0x158 /* 00003FC4 */
label00003E70:
00003E70  3CBC 0004                move.w     [A6], 0x4
00003E74  6000 014E                bra        +0x150 /* 00003FC4 */
label00003E78:
00003E78  362E 0002                move.w     D3, [A6 + 0x2]
00003E7C  49FA 00E2                lea.l      A4, [PC + 0xE2 /* 00003F60, value 0x10203, cstring "" */]
00003E80  1434 3000                move.b     D2, [A4 + D3.w]
00003E84  4882                     ext.w      D2
00003E86  6C0E                     bge        +0x10 /* 00003E96 */
00003E88  4256                     clr.w      [A6]
00003E8A  426E 0002                clr.w      [A6 + 0x2]
00003E8E  426D FCE4                clr.w      [A5 - 0x31C]
00003E92  6000 FF6A                bra        -0x94 /* 00003DFE */
label00003E96:
00003E96  0C42 0029                cmpi.w     D2, 0x29 /* ')' */
00003E9A  6620                     bne        +0x22 /* 00003EBC */
00003E9C  286D FF7A                movea.l    A4, [A5 - 0x86]
00003EA0  397C 0004 0034           move.w     [A4 + 0x34], 0x4
00003EA6  426C 0036                clr.w      [A4 + 0x36]
00003EAA  526E 0002                addq.w     [A6 + 0x2], 1
00003EAE  3F00                     move.w     -[A7], D0
00003EB0  303C 0034                move.w     D0, 0x34 /* '4' */
00003EB4  4EAD 0052                jsr        [A5 + 0x52 /* export_6, CODE:1 @ 00000114 */]
00003EB8  301F                     move.w     D0, [A7]+
00003EBA  60BC                     bra        -0x42 /* 00003E78 */
label00003EBC:
00003EBC  0C42 002A                cmpi.w     D2, 0x2A /* '*' */
00003EC0  663C                     bne        +0x3E /* 00003EFE */
00003EC2  48A7 C000                movem.w    -[A7], D0,D1
00003EC6  303C 015E                move.w     D0, 0x15E
00003ECA  323C 003C                move.w     D1, 0x3C /* '<' */
00003ECE  4242                     clr.w      D2
00003ED0  226D FC5E                movea.l    A1, [A5 - 0x3A2]
00003ED4  4EBA C12A                jsr        [PC - 0x3ED6 /* 00000000 */]
00003ED8  4C9F 0003                movem.w    D0,D1, [A7]+
00003EDC  286D FF7A                movea.l    A4, [A5 - 0x86]
00003EE0  397C 000C 0034           move.w     [A4 + 0x34], 0xC
00003EE6  426C 0036                clr.w      [A4 + 0x36]
00003EEA  3F00                     move.w     -[A7], D0
00003EEC  303C 0022                move.w     D0, 0x22 /* '\"' */
00003EF0  4EAD 0052                jsr        [A5 + 0x52 /* export_6, CODE:1 @ 00000114 */]
00003EF4  301F                     move.w     D0, [A7]+
00003EF6  526E 0002                addq.w     [A6 + 0x2], 1
00003EFA  6000 FF7C                bra        -0x82 /* 00003E78 */
label00003EFE:
00003EFE  0C42 002B                cmpi.w     D2, 0x2B /* '+' */
00003F02  6614                     bne        +0x16 /* 00003F18 */
00003F04  3F00                     move.w     -[A7], D0
00003F06  303C 0031                move.w     D0, 0x31 /* '1' */
00003F0A  4EAD 0052                jsr        [A5 + 0x52 /* export_6, CODE:1 @ 00000114 */]
00003F0E  301F                     move.w     D0, [A7]+
00003F10  526E 0002                addq.w     [A6 + 0x2], 1
00003F14  6000 FF62                bra        -0x9C /* 00003E78 */
label00003F18:
00003F18  0C42 0006                cmpi.w     D2, 0x6
00003F1C  6E08                     bgt        +0xA /* 00003F26 */
00003F1E  226D FCF6                movea.l    A1, [A5 - 0x30A]
00003F22  5940                     subq.w     D0, 4
00003F24  600A                     bra        +0xC /* 00003F30 */
label00003F26:
00003F26  226D FCF2                movea.l    A1, [A5 - 0x30E]
00003F2A  5F42                     subq.w     D2, 7
00003F2C  0440 000A                subi.w     D0, 0xA /* '\n' */
label00003F30:
00003F30  5F41                     subq.w     D1, 7
00003F32  4EBA C0CC                jsr        [PC - 0x3F34 /* 00000000 */]
00003F36  0C43 0003                cmpi.w     D3, 0x3
00003F3A  6612                     bne        +0x14 /* 00003F4E */
00003F3C  3D7C 0001 0004           move.w     [A6 + 0x4], 0x1
00003F42  3D7C 01C6 0006           move.w     [A6 + 0x6], 0x1C6
00003F48  3D7C 0035 0008           move.w     [A6 + 0x8], 0x35 /* '5' */
label00003F4E:
00003F4E  5243                     addq.w     D3, 1
00003F50  3D43 0002                move.w     [A6 + 0x2], D3
00003F54  1E3B 300A                move.b     D7, [PC + D3.w + 0xA]
00003F58  6C00 006A                bge        +0x6C /* 00003FC4 */
00003F5C  6000 FEFE                bra        -0x100 /* 00003E5C */
00003F60  0001 0203                ori.b      D1, 0x3
00003F64  0303                     btst       D3, D1
00003F66  0404 0404                subi.b     D4, 0x4
00003F6A  052B 0505                btst       [A3 + 0x505], D2
00003F6E  0506                     btst       D6, D2
00003F70  0606 0606                addi.b     D6, 0x6
00003F74  0707                     btst       D7, D3
00003F76  0707                     btst       D7, D3
00003F78  0708                     btst       A0, D3
00003F7A  0808 0808                btst.b     A0, 0x8
00003F7E  0808 0808                btst.b     A0, 0x8
00003F82  0808 0808                btst.b     A0, 0x8
00003F86  0808 0809                btst.b     A0, 0x9 /* '\t' */
00003F8A  0909                     btst       A1, D4
00003F8C  0A0A 0B0B                xori.b     A2, 0xB
00003F90  0B0B                     btst       A3, D5
00003F92  0B0C                     btst       A4, D5
00003F94  0C0C 290C                cmpi.b     A4, 0xC
00003F98  0C0C 0C0C                cmpi.b     A4, 0xC
00003F9C  0808 0808                btst.b     A0, 0x8
00003FA0  0808 0808                btst.b     A0, 0x8
00003FA4  0808 0808                btst.b     A0, 0x8
00003FA8  0808 0808                btst.b     A0, 0x8
00003FAC  0808 0808                btst.b     A0, 0x8
00003FB0  0808 0808                btst.b     A0, 0x8
00003FB4  0808 0808                btst.b     A0, 0x8
00003FB8  0A0A 0B0B                xori.b     A2, 0xB
00003FBC  0B2A 0C0C                btst       [A2 + 0xC0C], D5
00003FC0  0C0C FF00                cmpi.b     A4, 0x0
label00003FC4:
00003FC4  4A6D FCE4                tst.w      [A5 - 0x31C]
00003FC8  6716                     beq        +0x18 /* 00003FE0 */
00003FCA  4A6E 000E                tst.w      [A6 + 0xE]
00003FCE  6610                     bne        +0x12 /* 00003FE0 */
00003FD0  3CBC 0008                move.w     [A6], 0x8
00003FD4  426E 0002                clr.w      [A6 + 0x2]
00003FD8  3D7C 0001 000E           move.w     [A6 + 0xE], 0x1
00003FDE  4E71                     nop
label00003FE0:
00003FE0  4A6E 0004                tst.w      [A6 + 0x4]
00003FE4  6704                     beq        +0x6 /* 00003FEA */
00003FE6  6100 0004                bsr        +0x6 /* 00003FEC */
label00003FEA:
00003FEA  4E75                     rts
fn00003FEC:
00003FEC  302E 0006                move.w     D0, [A6 + 0x6]
00003FF0  322E 0008                move.w     D1, [A6 + 0x8]
00003FF4  342E 0004                move.w     D2, [A6 + 0x4]
00003FF8  0242 0001                andi.w     D2, 0x1
00003FFC  49ED FE82                lea.l      A4, [A5 - 0x17E]
00004000  226C 00AC                movea.l    A1, [A4 + 0xAC]
00004004  4EBA BFFA                jsr        [PC - 0x4006 /* 00000000 */]
00004008  342E 0004                move.w     D2, [A6 + 0x4]
0000400C  5242                     addq.w     D2, 1
0000400E  3D42 0004                move.w     [A6 + 0x4], D2
00004012  1E3B 201E                move.b     D7, [PC + D2.w + 0x1E]
00004016  0C07 00FF                cmpi.b     D7, 0xFF
0000401A  6604                     bne        +0x6 /* 00004020 */
0000401C  426E 0004                clr.w      [A6 + 0x4]
label00004020:
00004020  4887                     ext.w      D7
00004022  DF6E 0006                add.w      [A6 + 0x6], D7
00004026  1E3B 203F                move.b     D7, [PC + D2.w + 0x3F]
0000402A  4887                     ext.w      D7
0000402C  DF6E 0008                add.w      [A6 + 0x8], D7
00004030  4E75                     rts
00004032  FCFC FCFC                .extension 0xCFC <<F/2-3/6>> // unimplemented
00004036  FCFC FCFC                .extension 0xCFC <<F/2-3/6>> // unimplemented
0000403A  FCFC FCFC                .extension 0xCFC <<F/2-3/6>> // unimplemented
0000403E  FCFC FCFC                .extension 0xCFC <<F/2-3/6>> // unimplemented
00004042  FCFC FCFC                .extension 0xCFC <<F/2-3/6>> // unimplemented
00004046  FCFC FCFC                .extension 0xCFC <<F/2-3/6>> // unimplemented
0000404A  FCFC FCFC                .extension 0xCFC <<F/2-3/6>> // unimplemented
0000404E  FCFC FC00                .extension 0xCFC <<F/2-3/6>> // unimplemented
00004052  0000 0000                ori.b      D0, 0x0
00004056  0000 0000                ori.b      D0, 0x0
0000405A  0000 0000                ori.b      D0, 0x0
0000405E  0000 0000                ori.b      D0, 0x0
00004062  0000 0000                ori.b      D0, 0x0
00004066  FF00                     .extension 0xF00 <<F/4-5/7>> // unimplemented
00004068  0000 0000                ori.b      D0, 0x0
0000406C  0000 0000                ori.b      D0, 0x0
00004070  0000 0000                ori.b      D0, 0x0
00004074  0000 0000                ori.b      D0, 0x0
00004078  0000 0000                ori.b      D0, 0x0
0000407C  0000 0000                ori.b      D0, 0x0
00004080  0000 0000                ori.b      D0, 0x0
00004084  0000 0000                ori.b      D0, 0x0
00004088  0000 0000                ori.b      D0, 0x0
0000408C  FCFC FCF8                .extension 0xCFC <<F/2-3/6>> // unimplemented
00004090  F8F8 0000                .extension 0x8F8 <<F/2-3/4>> // unimplemented
00004094  0000 000C                ori.b      D0, 0xC
00004098  0C0C 02FF                cmpi.b     A4, 0xFF
0000409C  303C 01C2                move.w     D0, 0x1C2
000040A0  323C 0026                move.w     D1, 0x26 /* '&' */
000040A4  3416                     move.w     D2, [A6]
000040A6  206D FFA8                movea.l    A0, [A5 - 0x58]
000040AA  226D FCEE                movea.l    A1, [A5 - 0x312]
000040AE  4EBA BF50                jsr        [PC - 0x40B0 /* 00000000 */]
000040B2  5242                     addq.w     D2, 1
000040B4  0C42 0003                cmpi.w     D2, 0x3
000040B8  6D02                     blt        +0x4 /* 000040BC */
000040BA  4242                     clr.w      D2
label000040BC:
000040BC  3C82                     move.w     [A6], D2
000040BE  4E75                     rts
fn000040C0:
000040C0  3C00                     move.w     D6, D0
000040C2  3E01                     move.w     D7, D1
000040C4  2A08                     move.l     D5, A0
000040C6  2809                     move.l     D4, A1
000040C8  260A                     move.l     D3, A2
000040CA  7028                     moveq.l    D0, 0x28
000040CC  D042                     add.w      D0, D2
000040CE  A31E                     syscall    NewPtrClear, flags=3
000040D0  43FA 004A                lea.l      A1, [PC + 0x4A /* 0000411C, value 0x3016322E */]
000040D4  2149 0004                move.l     [A0 + 0x4], A1
000040D8  214C 0020                move.l     [A0 + 0x20], A4
000040DC  3146 0008                move.w     [A0 + 0x8], D6
000040E0  3147 000A                move.w     [A0 + 0xA], D7
000040E4  49FA 0032                lea.l      A4, [PC + 0x32 /* 00004118, value 0xFF, cstring "" */]
000040E8  214C 000C                move.l     [A0 + 0xC], A4
000040EC  4268 0010                clr.w      [A0 + 0x10]
000040F0  4268 0012                clr.w      [A0 + 0x12]
000040F4  2145 0014                move.l     [A0 + 0x14], D5
000040F8  2144 0018                move.l     [A0 + 0x18], D4
000040FC  2143 001C                move.l     [A0 + 0x1C], D3
00004100  49E8 0028                lea.l      A4, [A0 + 0x28]
00004104  E242                     asr        D2.w, 1
00004106  6002                     bra        +0x4 /* 0000410A */
label00004108:
00004108  38DB                     move.w     [A4]+, [A3]+
label0000410A:
0000410A  51CA FFFC                dbf        D2, -0x6 /* 00004108 */
0000410E  20AD FE7E                move.l     [A0], [A5 - 0x182]
00004112  2B48 FE7E                move.l     [A5 - 0x182], A0
00004116  4E75                     rts
00004118  0000 00FF                ori.b      D0, 0xFF
0000411C  3016                     move.w     D0, [A6]
0000411E  322E 0002                move.w     D1, [A6 + 0x2]
00004122  206E 0018                movea.l    A0, [A6 + 0x18]
00004126  B0FC 0000                cmpa.w     A0, 0x0
0000412A  6702                     beq        +0x4 /* 0000412E */
0000412C  4E90                     jsr        [A0]
label0000412E:
0000412E  266E 0004                movea.l    A3, [A6 + 0x4]
00004132  D6EE 0008                add.w      A3, [A6 + 0x8]
00004136  586E 0008                addq.w     [A6 + 0x8], 4
0000413A  4A2B 0003                tst.b      [A3 + 0x3]
0000413E  6C24                     bge        +0x26 /* 00004164 */
00004140  536E 000A                subq.w     [A6 + 0xA], 1
00004144  6E18                     bgt        +0x1A /* 0000415E */
00004146  206E 000C                movea.l    A0, [A6 + 0xC]
0000414A  4E90                     jsr        [A0]
0000414C  2D48 0004                move.l     [A6 + 0x4], A0
00004150  426E 0008                clr.w      [A6 + 0x8]
00004154  3D42 000A                move.w     [A6 + 0xA], D2
00004158  6D00 003E                blt        +0x40 /* 00004198 */
0000415C  60D0                     bra        -0x2E /* 0000412E */
label0000415E:
0000415E  426E 0008                clr.w      [A6 + 0x8]
00004162  60CA                     bra        -0x34 /* 0000412E */
label00004164:
00004164  161B                     move.b     D3, [A3]+
00004166  4883                     ext.w      D3
00004168  D043                     add.w      D0, D3
0000416A  161B                     move.b     D3, [A3]+
0000416C  4883                     ext.w      D3
0000416E  D243                     add.w      D1, D3
00004170  161B                     move.b     D3, [A3]+
00004172  4883                     ext.w      D3
00004174  226E 0010                movea.l    A1, [A6 + 0x10]
00004178  2271 3000                movea.l    A1, [A1 + D3.w]
0000417C  141B                     move.b     D2, [A3]+
0000417E  4882                     ext.w      D2
00004180  206D FFA8                movea.l    A0, [A5 - 0x58]
00004184  3C80                     move.w     [A6], D0
00004186  3D41 0002                move.w     [A6 + 0x2], D1
0000418A  0440 0010                subi.w     D0, 0x10
0000418E  4EBA BE70                jsr        [PC - 0x4190 /* 00000000 */]
00004192  206E 0014                movea.l    A0, [A6 + 0x14]
00004196  4ED0                     jmp        [A0]
label00004198:
00004198  4E75                     rts
0000419A  3E2E 0020                move.w     D7, [A6 + 0x20]
0000419E  4EFB 7002                jmp        [PC + D7.w + 0x2]
000041A2  4EFA 0030                jmp        [PC + 0x30 /* 000041D4 */]
000041A6  4EFA 0006                jmp        [PC + 0x6 /* 000041AE */]
000041AA  4EFA 0014                jmp        [PC + 0x14 /* 000041C0 */]
label000041AE:
000041AE  41FA 03E0                lea.l      A0, [PC + 0x3E0 /* 00004590, value 0x5, cstring "" */]
000041B2  343C 0046                move.w     D2, 0x46 /* 'F' */
000041B6  3D7C 0008 0020           move.w     [A6 + 0x20], 0x8
000041BC  6000 01D8                bra        +0x1DA /* 00004396 */
label000041C0:
000041C0  41EE 001C                lea.l      A0, [A6 + 0x1C]
000041C4  2E3C 0400 0000           move.l     D7, 0x4000000
000041CA  4EBA 177E                jsr        [PC + 0x177E /* 0000594A */]
000041CE  426E 0020                clr.w      [A6 + 0x20]
000041D2  4E71                     nop
label000041D4:
000041D4  4A6D FCE4                tst.w      [A5 - 0x31C]
000041D8  670C                     beq        +0xE /* 000041E6 */
000041DA  41FA 03B4                lea.l      A0, [PC + 0x3B4 /* 00004590, value 0x5, cstring "" */]
000041DE  343C 7FFF                move.w     D2, 0x7FFF
000041E2  6000 01B2                bra        +0x1B4 /* 00004396 */
label000041E6:
000041E6  48E7 0010                movem.l    -[A7], A3
000041EA  3F00                     move.w     -[A7], D0
000041EC  4EBA 1A7A                jsr        [PC + 0x1A7A /* 00005C68 */]
000041F0  3E00                     move.w     D7, D0
000041F2  301F                     move.w     D0, [A7]+
000041F4  0247 001C                andi.w     D7, 0x1C
000041F8  4EFB 7002                jmp        [PC + D7.w + 0x2]
000041FC  4EFA 001E                jmp        [PC + 0x1E /* 0000421C */]
00004200  4EFA 0026                jmp        [PC + 0x26 /* 00004228 */]
00004204  4EFA 003A                jmp        [PC + 0x3A /* 00004240 */]
00004208  4EFA 002A                jmp        [PC + 0x2A /* 00004234 */]
0000420C  4EFA 00B6                jmp        [PC + 0xB6 /* 000042C4 */]
00004210  4EFA 00B2                jmp        [PC + 0xB2 /* 000042C4 */]
00004214  4EFA 0036                jmp        [PC + 0x36 /* 0000424C */]
00004218  4EFA 0032                jmp        [PC + 0x32 /* 0000424C */]
label0000421C:
0000421C  41FA 02C2                lea.l      A0, [PC + 0x2C2 /* 000044E0, value 0x8, cstring "" */]
00004220  343C 0001                move.w     D2, 0x1
00004224  6000 016C                bra        +0x16E /* 00004392 */
label00004228:
00004228  41FA 02E2                lea.l      A0, [PC + 0x2E2 /* 0000450C, value 0xFC02, cstring "" */]
0000422C  343C 0001                move.w     D2, 0x1
00004230  6000 0160                bra        +0x162 /* 00004392 */
label00004234:
00004234  41FA 02FE                lea.l      A0, [PC + 0x2FE /* 00004534, value 0x8, cstring "" */]
00004238  343C 0001                move.w     D2, 0x1
0000423C  6000 0154                bra        +0x156 /* 00004392 */
label00004240:
00004240  41FA 0322                lea.l      A0, [PC + 0x322 /* 00004564, value 0xFC03, cstring "" */]
00004244  343C 0001                move.w     D2, 0x1
00004248  6000 0148                bra        +0x14A /* 00004392 */
label0000424C:
0000424C  266D FF7A                movea.l    A3, [A5 - 0x86]
00004250  504B                     addq.w     A3, 8
00004252  382B 000C                move.w     D4, [A3 + 0xC]
00004256  3A2B 000E                move.w     D5, [A3 + 0xE]
0000425A  0644 0010                addi.w     D4, 0x10
0000425E  0645 0014                addi.w     D5, 0x14
00004262  0244 FFE0                andi.w     D4, 0xFFE0
00004266  0245 FFE0                andi.w     D5, 0xFFE0
0000426A  3400                     move.w     D2, D0
0000426C  3601                     move.w     D3, D1
0000426E  0242 FFE0                andi.w     D2, 0xFFE0
00004272  0243 FFE0                andi.w     D3, 0xFFE0
00004276  B840                     cmp.w      D4, D0
00004278  6E14                     bgt        +0x16 /* 0000428E */
0000427A  6724                     beq        +0x26 /* 000042A0 */
0000427C  BA41                     cmp.w      D5, D1
0000427E  6D08                     blt        +0xA /* 00004288 */
00004280  672E                     beq        +0x30 /* 000042B0 */
00004282  41FA 0114                lea.l      A0, [PC + 0x114 /* 00004398, value 0xFF01FC02 */]
00004286  6034                     bra        +0x36 /* 000042BC */
label00004288:
00004288  41FA 0166                lea.l      A0, [PC + 0x166 /* 000043F0, value 0xFFFF0002 */]
0000428C  602E                     bra        +0x30 /* 000042BC */
label0000428E:
0000428E  BA41                     cmp.w      D5, D1
00004290  6D08                     blt        +0xA /* 0000429A */
00004292  6722                     beq        +0x24 /* 000042B6 */
00004294  41FA 012A                lea.l      A0, [PC + 0x12A /* 000043C0, value 0x1010009 */]
00004298  6022                     bra        +0x24 /* 000042BC */
label0000429A:
0000429A  41FA 0178                lea.l      A0, [PC + 0x178 /* 00004414, value 0x1FF0008 */]
0000429E  601C                     bra        +0x1E /* 000042BC */
label000042A0:
000042A0  BA41                     cmp.w      D5, D1
000042A2  6D06                     blt        +0x8 /* 000042AA */
000042A4  41FA 0196                lea.l      A0, [PC + 0x196 /* 0000443C, value 0xFF0001, cstring "" */]
000042A8  6012                     bra        +0x14 /* 000042BC */
label000042AA:
000042AA  41FA 01B4                lea.l      A0, [PC + 0x1B4 /* 00004460, value 0x10001, cstring "" */]
000042AE  600C                     bra        +0xE /* 000042BC */
label000042B0:
000042B0  41FA 01D6                lea.l      A0, [PC + 0x1D6 /* 00004488, value 0xFF00FC00 */]
000042B4  6006                     bra        +0x8 /* 000042BC */
label000042B6:
000042B6  41FA 01F8                lea.l      A0, [PC + 0x1F8 /* 000044B0, value 0x1000001 */]
000042BA  4E71                     nop
label000042BC:
000042BC  343C 0003                move.w     D2, 0x3
000042C0  6000 00D0                bra        +0xD2 /* 00004392 */
label000042C4:
000042C4  266D FF7A                movea.l    A3, [A5 - 0x86]
000042C8  504B                     addq.w     A3, 8
000042CA  382B 000C                move.w     D4, [A3 + 0xC]
000042CE  3A2B 000E                move.w     D5, [A3 + 0xE]
000042D2  0644 0010                addi.w     D4, 0x10
000042D6  0645 0014                addi.w     D5, 0x14
000042DA  0244 FFE0                andi.w     D4, 0xFFE0
000042DE  0245 FFE0                andi.w     D5, 0xFFE0
000042E2  3400                     move.w     D2, D0
000042E4  3601                     move.w     D3, D1
000042E6  0242 FFE0                andi.w     D2, 0xFFE0
000042EA  0243 FFE0                andi.w     D3, 0xFFE0
000042EE  B840                     cmp.w      D4, D0
000042F0  6E26                     bgt        +0x28 /* 00004318 */
000042F2  6748                     beq        +0x4A /* 0000433C */
000042F4  243C FFFB 0005           move.l     D2, 0xFFFB0005
000042FA  BA41                     cmp.w      D5, D1
000042FC  6D0E                     blt        +0x10 /* 0000430C */
000042FE  675A                     beq        +0x5C /* 0000435A */
00004300  41FA 0096                lea.l      A0, [PC + 0x96 /* 00004398, value 0xFF01FC02 */]
00004304  263C 0004 FFFB           move.l     D3, 0x4FFFB
0000430A  605E                     bra        +0x60 /* 0000436A */
label0000430C:
0000430C  41FA 00E2                lea.l      A0, [PC + 0xE2 /* 000043F0, value 0xFFFF0002 */]
00004310  263C FFFB 0005           move.l     D3, 0xFFFB0005
00004316  6052                     bra        +0x54 /* 0000436A */
label00004318:
00004318  243C 0004 FFFB           move.l     D2, 0x4FFFB
0000431E  BA41                     cmp.w      D5, D1
00004320  6D0E                     blt        +0x10 /* 00004330 */
00004322  673E                     beq        +0x40 /* 00004362 */
00004324  41FA 009A                lea.l      A0, [PC + 0x9A /* 000043C0, value 0x1010009 */]
00004328  263C 0004 FFFB           move.l     D3, 0x4FFFB
0000432E  603A                     bra        +0x3C /* 0000436A */
label00004330:
00004330  41FA 00E2                lea.l      A0, [PC + 0xE2 /* 00004414, value 0x1FF0008 */]
00004334  263C FFFB 0005           move.l     D3, 0xFFFB0005
0000433A  602E                     bra        +0x30 /* 0000436A */
label0000433C:
0000433C  7400                     moveq.l    D2, 0x00
0000433E  BA41                     cmp.w      D5, D1
00004340  6D0C                     blt        +0xE /* 0000434E */
00004342  41FA 00F8                lea.l      A0, [PC + 0xF8 /* 0000443C, value 0xFF0001, cstring "" */]
00004346  263C FFFB 0005           move.l     D3, 0xFFFB0005
0000434C  601C                     bra        +0x1E /* 0000436A */
label0000434E:
0000434E  41FA 0110                lea.l      A0, [PC + 0x110 /* 00004460, value 0x10001, cstring "" */]
00004352  263C 0004 FFFB           move.l     D3, 0x4FFFB
00004358  6010                     bra        +0x12 /* 0000436A */
label0000435A:
0000435A  41FA 0154                lea.l      A0, [PC + 0x154 /* 000044B0, value 0x1000001 */]
0000435E  7600                     moveq.l    D3, 0x00
00004360  6008                     bra        +0xA /* 0000436A */
label00004362:
00004362  41FA 0124                lea.l      A0, [PC + 0x124 /* 00004488, value 0xFF00FC00 */]
00004366  7600                     moveq.l    D3, 0x00
00004368  4E71                     nop
label0000436A:
0000436A  48E7 C080                movem.l    -[A7], D0,D1,A0
0000436E  7800                     moveq.l    D4, 0x00
00004370  43ED FE64                lea.l      A1, [A5 - 0x19C]
00004374  206D FD50                movea.l    A0, [A5 - 0x2B0]
00004378  4EAD 01EA                jsr        [A5 + 0x1EA /* export_57, CODE:2 @ 000032EE */]
0000437C  4CDF 0103                movem.l    D0,D1,A0, [A7]+
00004380  3F00                     move.w     -[A7], D0
00004382  303C 0009                move.w     D0, 0x9 /* '\t' */
00004386  4EAD 0052                jsr        [A5 + 0x52 /* export_6, CODE:1 @ 00000114 */]
0000438A  301F                     move.w     D0, [A7]+
0000438C  343C 0002                move.w     D2, 0x2
00004390  4E71                     nop
label00004392:
00004392  4CDF 0800                movem.l    A3, [A7]+
label00004396:
00004396  4E75                     rts
00004398  FF01                     .extension 0xF01 <<F/4-5/7>> // unimplemented
0000439A  FC02 FF01                .unknown   0xFC02 0xFF01 (W = 6)
0000439E  FC03 FF01                .unknown   0xFC03 0xFF01 (W = 6)
000043A2  FC06 FF01                .unknown   0xFC06 0xFF01 (W = 6)
000043A6  FC03 FF01                .unknown   0xFC03 0xFF01 (W = 6)
000043AA  FC03 FF01                .unknown   0xFC03 0xFF01 (W = 6)
000043AE  FC03 FF01                .unknown   0xFC03 0xFF01 (W = 6)
000043B2  FC06 FF01                .unknown   0xFC06 0xFF01 (W = 6)
000043B6  FC03 FF01                .unknown   0xFC03 0xFF01 (W = 6)
000043BA  FC02 0000                .unknown   0xFC02 0x0000 (W = 6)
000043BE  00FF                     .incomplete
000043C0  0101                     btst       D1, D0
000043C2  0009 0101                ori.b      A1, 0x1
000043C6  000C 0101                ori.b      A4, 0x1
000043CA  0007 0101                ori.b      D7, 0x1
000043CE  0007 0101                ori.b      D7, 0x1
000043D2  000B 0101                ori.b      A3, 0x1
000043D6  0007 0101                ori.b      D7, 0x1
000043DA  0007 0101                ori.b      D7, 0x1
000043DE  0007 0101                ori.b      D7, 0x1
000043E2  000B 0101                ori.b      A3, 0x1
000043E6  0007 0101                ori.b      D7, 0x1
000043EA  0009 0000                ori.b      A1, 0x0
000043EE  00FF                     .incomplete
000043F0  FFFF                     .invalid   <<F/7/7>>
000043F2  0002 FFFF                ori.b      D2, 0xFF
000043F6  FC00 FFFF                .unknown   0xFC00 0xFFFF (W = 6)
000043FA  FC00 FFFF                .unknown   0xFC00 0xFFFF (W = 6)
000043FE  FC05 FFFF                .unknown   0xFC05 0xFFFF (W = 6)
00004402  FC00 FFFF                .unknown   0xFC00 0xFFFF (W = 6)
00004406  FC05 FFFF                .unknown   0xFC05 0xFFFF (W = 6)
0000440A  FC00 FFFF                .unknown   0xFC00 0xFFFF (W = 6)
0000440E  0000 0000                ori.b      D0, 0x0
00004412  00FF                     .incomplete
00004414  01FF                     .incomplete
00004416  0008 01FF                ori.b      A0, 0xFF
0000441A  0006 01FF                ori.b      D6, 0xFF
0000441E  0006 01FF                ori.b      D6, 0xFF
00004422  000B 01FF                ori.b      A3, 0xFF
00004426  0006 01FF                ori.b      D6, 0xFF
0000442A  000B 01FF                ori.b      A3, 0xFF
0000442E  0006 01FF                ori.b      D6, 0xFF
00004432  0008 01FF                ori.b      A0, 0xFF
00004436  0001 0000                ori.b      D1, 0x0
0000443A  00FF                     .incomplete
0000443C  00FF                     .incomplete
0000443E  0001 00FF                ori.b      D1, 0xFF
00004442  0002 00FF                ori.b      D2, 0xFF
00004446  0004 00FF                ori.b      D4, 0xFF
0000444A  0002 00FF                ori.b      D2, 0xFF
0000444E  0002 00FF                ori.b      D2, 0xFF
00004452  0004 00FF                ori.b      D4, 0xFF
00004456  0002 00FF                ori.b      D2, 0xFF
0000445A  0000 0000                ori.b      D0, 0x0
0000445E  00FF                     .incomplete
00004460  0001 0001                ori.b      D1, 0x1
00004464  0001 0003                ori.b      D1, 0x3
00004468  0001 0003                ori.b      D1, 0x3
0000446C  0001 0005                ori.b      D1, 0x5
00004470  0001 0003                ori.b      D1, 0x3
00004474  0001 0003                ori.b      D1, 0x3
00004478  0001 0005                ori.b      D1, 0x5
0000447C  0001 0003                ori.b      D1, 0x3
00004480  0001 0000                ori.b      D1, 0x0
00004484  0000 00FF                ori.b      D0, 0xFF
00004488  FF00                     .extension 0xF00 <<F/4-5/7>> // unimplemented
0000448A  FC00 FF00                .unknown   0xFC00 0xFF00 (W = 6)
0000448E  FC02 FF00                .unknown   0xFC02 0xFF00 (W = 6)
00004492  FC02 FF00                .unknown   0xFC02 0xFF00 (W = 6)
00004496  FC06 FF00                .unknown   0xFC06 0xFF00 (W = 6)
0000449A  FC02 FF00                .unknown   0xFC02 0xFF00 (W = 6)
0000449E  FC02 FF00                .unknown   0xFC02 0xFF00 (W = 6)
000044A2  FC06 FF00                .unknown   0xFC06 0xFF00 (W = 6)
000044A6  FC02 FF00                .unknown   0xFC02 0xFF00 (W = 6)
000044AA  FC01 0000                .unknown   0xFC01 0x0000 (W = 6)
000044AE  00FF                     .incomplete
000044B0  0100                     btst       D0, D0
000044B2  0001 0100                ori.b      D1, 0x0
000044B6  0009 0100                ori.b      A1, 0x0
000044BA  0007 0100                ori.b      D7, 0x0
000044BE  0008 0100                ori.b      A0, 0x0
000044C2  000B 0100                ori.b      A3, 0x0
000044C6  0008 0100                ori.b      A0, 0x0
000044CA  0008 0100                ori.b      A0, 0x0
000044CE  000B 0100                ori.b      A3, 0x0
000044D2  0008 0100                ori.b      A0, 0x0
000044D6  0007 0100                ori.b      D7, 0x0
000044DA  000A 0000                ori.b      A2, 0x0
000044DE  00FF                     .incomplete
000044E0  0000 0008                ori.b      D0, 0x8
000044E4  0000 0007                ori.b      D0, 0x7
000044E8  0000 0007                ori.b      D0, 0x7
000044EC  0000 000B                ori.b      D0, 0xB
000044F0  0000 0007                ori.b      D0, 0x7
000044F4  0000 0007                ori.b      D0, 0x7
000044F8  0000 0008                ori.b      D0, 0x8
000044FC  0000 0006                ori.b      D0, 0x6
00004500  0000 0002                ori.b      D0, 0x2
00004504  0000 0000                ori.b      D0, 0x0
00004508  0000 00FF                ori.b      D0, 0xFF
0000450C  0000 FC02                ori.b      D0, 0x2
00004510  0000 FC03                ori.b      D0, 0x3
00004514  0000 FC06                ori.b      D0, 0x6
00004518  0000 FC03                ori.b      D0, 0x3
0000451C  0000 FC03                ori.b      D0, 0x3
00004520  0000 FC06                ori.b      D0, 0x6
00004524  0000 FC03                ori.b      D0, 0x3
00004528  0000 FC02                ori.b      D0, 0x2
0000452C  0000 0006                ori.b      D0, 0x6
00004530  0000 00FF                ori.b      D0, 0xFF
00004534  0000 0008                ori.b      D0, 0x8
00004538  0000 0006                ori.b      D0, 0x6
0000453C  0000 000B                ori.b      D0, 0xB
00004540  0000 0006                ori.b      D0, 0x6
00004544  0000 0002                ori.b      D0, 0x2
00004548  0000 0002                ori.b      D0, 0x2
0000454C  0000 FC04                ori.b      D0, 0x4
00004550  0000 FC06                ori.b      D0, 0x6
00004554  0000 FC04                ori.b      D0, 0x4
00004558  0000 FC02                ori.b      D0, 0x2
0000455C  0000 0001                ori.b      D0, 0x1
00004560  0000 00FF                ori.b      D0, 0xFF
00004564  0000 FC03                ori.b      D0, 0x3
00004568  0000 FC03                ori.b      D0, 0x3
0000456C  0000 FC06                ori.b      D0, 0x6
00004570  0000 0003                ori.b      D0, 0x3
00004574  0000 0003                ori.b      D0, 0x3
00004578  0000 0005                ori.b      D0, 0x5
0000457C  0000 0003                ori.b      D0, 0x3
00004580  0000 0007                ori.b      D0, 0x7
00004584  0000 0008                ori.b      D0, 0x8
00004588  0000 0003                ori.b      D0, 0x3
0000458C  0000 00FF                ori.b      D0, 0xFF
00004590  0000 0005                ori.b      D0, 0x5
00004594  0000 00FF                ori.b      D0, 0xFF
00004598  206D FFA8                movea.l    A0, [A5 - 0x58]
0000459C  226D FD5C                movea.l    A1, [A5 - 0x2A4]
000045A0  342E 0022                move.w     D2, [A6 + 0x22]
000045A4  363C 0001                move.w     D3, 0x1
000045A8  B76E 0022                xor.w      [A6 + 0x22], D3
000045AC  0C40 0014                cmpi.w     D0, 0x14
000045B0  6C06                     bge        +0x8 /* 000045B8 */
000045B2  303C 0014                move.w     D0, 0x14
000045B6  6022                     bra        +0x24 /* 000045DA */
label000045B8:
000045B8  0C40 01EC                cmpi.w     D0, 0x1EC
000045BC  6F06                     ble        +0x8 /* 000045C4 */
000045BE  303C 01EC                move.w     D0, 0x1EC
000045C2  6016                     bra        +0x18 /* 000045DA */
label000045C4:
000045C4  0C41 0014                cmpi.w     D1, 0x14
000045C8  6C06                     bge        +0x8 /* 000045D0 */
000045CA  323C 0014                move.w     D1, 0x14
000045CE  600A                     bra        +0xC /* 000045DA */
label000045D0:
000045D0  0C41 0116                cmpi.w     D1, 0x116
000045D4  6F04                     ble        +0x6 /* 000045DA */
000045D6  323C 0116                move.w     D1, 0x116
label000045DA:
000045DA  0440 0010                subi.w     D0, 0x10
000045DE  0441 0010                subi.w     D1, 0x10
000045E2  4EBA BA1C                jsr        [PC - 0x45E4 /* 00000000 */]
000045E6  0640 0010                addi.w     D0, 0x10
000045EA  0641 0010                addi.w     D1, 0x10
000045EE  4E75                     rts
000045F0  3D40 001C                move.w     [A6 + 0x1C], D0
000045F4  3D41 001E                move.w     [A6 + 0x1E], D1
000045F8  066E 0010 001C           addi.w     [A6 + 0x1C], 0x10
000045FE  066E 000B 001E           addi.w     [A6 + 0x1E], 0xB
00004604  41ED FE6C                lea.l      A0, [A5 - 0x194]
00004608  4EBA 12C6                jsr        [PC + 0x12C6 /* 000058D0 */]
0000460C  673C                     beq        +0x3E /* 0000464A */
0000460E  42A8 0008                clr.l      [A0 + 0x8]
00004612  41EE 001C                lea.l      A0, [A6 + 0x1C]
00004616  2E3C 0400 0000           move.l     D7, 0x4000000
0000461C  4EBA 135E                jsr        [PC + 0x135E /* 0000597C */]
00004620  3D7C 0004 0020           move.w     [A6 + 0x20], 0x4
00004626  3F00                     move.w     -[A7], D0
00004628  303C 002B                move.w     D0, 0x2B /* '+' */
0000462C  4EAD 0052                jsr        [A5 + 0x52 /* export_6, CODE:1 @ 00000114 */]
00004630  301F                     move.w     D0, [A7]+
00004632  303C 0012                move.w     D0, 0x12
00004636  4EBA 15DC                jsr        [PC + 0x15DC /* 00005C14 */]
0000463A  41FA FADC                lea.l      A0, [PC - 0x524 /* 00004118, value 0xFF, cstring "" */]
0000463E  2D48 0004                move.l     [A6 + 0x4], A0
00004642  426E 0008                clr.w      [A6 + 0x8]
00004646  426E 000A                clr.w      [A6 + 0xA]
label0000464A:
0000464A  4E75                     rts
export_96:
0000464C  3018                     move.w     D0, [A0]+
0000464E  3218                     move.w     D1, [A0]+
00004650  343C 0004                move.w     D2, 0x4
00004654  2648                     movea.l    A3, A0
00004656  41FA FB42                lea.l      A0, [PC - 0x4BE /* 0000419A, value 0x3E2E0020 '>.\0 ', cstring ">." */]
0000465A  43ED FD58                lea.l      A1, [A5 - 0x2A8]
0000465E  45FA FF90                lea.l      A2, [PC - 0x70 /* 000045F0, value 0x3D40001C, cstring "=@" */]
00004662  49FA FF34                lea.l      A4, [PC - 0xCC /* 00004598, value 0x206DFFA8 */]
00004666  4EBA FA58                jsr        [PC - 0x5A8 /* 000040C0 */]
0000466A  41E8 0024                lea.l      A0, [A0 + 0x24]
0000466E  2E3C 0400 0000           move.l     D7, 0x4000000
00004674  4EBA 12D4                jsr        [PC + 0x12D4 /* 0000594A */]
00004678  4E75                     rts
0000467A  342E 0020                move.w     D2, [A6 + 0x20]
0000467E  E542                     asl        D2.w, 2
00004680  4EFB 2002                jmp        [PC + D2.w + 0x2]
00004684  4EFA 0016                jmp        [PC + 0x16 /* 0000469C */]
00004688  4EFA 003A                jmp        [PC + 0x3A /* 000046C4 */]
0000468C  4EFA 0092                jmp        [PC + 0x92 /* 00004720 */]
00004690  4EFA 00B6                jmp        [PC + 0xB6 /* 00004748 */]
00004694  4EFA 0100                jmp        [PC + 0x100 /* 00004796 */]
00004698  4EFA 012E                jmp        [PC + 0x12E /* 000047C8 */]
label0000469C:
0000469C  3D7C 0001 0020           move.w     [A6 + 0x20], 0x1
000046A2  41D6                     lea.l      A0, [A6]
000046A4  2E3C 0A00 0000           move.l     D7, 0xA000000 /* '\n\0\0\0' */
000046AA  4EBA 129E                jsr        [PC + 0x129E /* 0000594A */]
000046AE  0C6E 0002 0022           cmpi.w     [A6 + 0x22], 0x2
000046B4  670E                     beq        +0x10 /* 000046C4 */
000046B6  41EE 001C                lea.l      A0, [A6 + 0x1C]
000046BA  2E3C 0A00 0000           move.l     D7, 0xA000000 /* '\n\0\0\0' */
000046C0  4EBA 1288                jsr        [PC + 0x1288 /* 0000594A */]
label000046C4:
000046C4  B06E 0028                cmp.w      D0, [A6 + 0x28]
000046C8  6D26                     blt        +0x28 /* 000046F0 */
000046CA  0C6E 0002 0022           cmpi.w     [A6 + 0x22], 0x2
000046D0  6D18                     blt        +0x1A /* 000046EA */
000046D2  536D FD82                subq.w     [A5 - 0x27E], 1
000046D6  6D12                     blt        +0x14 /* 000046EA */
000046D8  3D7C 0005 0020           move.w     [A6 + 0x20], 0x5
000046DE  41FA 01BA                lea.l      A0, [PC + 0x1BA /* 0000489A, value 0x900F400, cstring "\	" */]
000046E2  343C 0001                move.w     D2, 0x1
000046E6  6000 00F4                bra        +0xF6 /* 000047DC */
label000046EA:
000046EA  3D7C FFFE 0024           move.w     [A6 + 0x24], 0xFFFE
label000046F0:
000046F0  B06E 0026                cmp.w      D0, [A6 + 0x26]
000046F4  6E06                     bgt        +0x8 /* 000046FC */
000046F6  3D7C 0002 0024           move.w     [A6 + 0x24], 0x2
label000046FC:
000046FC  3E2E 0022                move.w     D7, [A6 + 0x22]
00004700  5347                     subq.w     D7, 1
00004702  6C06                     bge        +0x8 /* 0000470A */
00004704  41FA 00D8                lea.l      A0, [PC + 0xD8 /* 000047DE, value 0x300FC00 */]
00004708  600E                     bra        +0x10 /* 00004718 */
label0000470A:
0000470A  5347                     subq.w     D7, 1
0000470C  6C06                     bge        +0x8 /* 00004714 */
0000470E  41FA 00EA                lea.l      A0, [PC + 0xEA /* 000047FA, value 0x200F800 */]
00004712  6004                     bra        +0x6 /* 00004718 */
label00004714:
00004714  41FA 0100                lea.l      A0, [PC + 0x100 /* 00004816, value 0x700F400 */]
label00004718:
00004718  343C 0001                move.w     D2, 0x1
0000471C  6000 00BE                bra        +0xC0 /* 000047DC */
label00004720:
00004720  3E2E 0022                move.w     D7, [A6 + 0x22]
00004724  5347                     subq.w     D7, 1
00004726  6C06                     bge        +0x8 /* 0000472E */
00004728  41FA 0108                lea.l      A0, [PC + 0x108 /* 00004832, value 0xFC00, cstring "" */]
0000472C  600E                     bra        +0x10 /* 0000473C */
label0000472E:
0000472E  5347                     subq.w     D7, 1
00004730  6C06                     bge        +0x8 /* 00004738 */
00004732  41FA 011E                lea.l      A0, [PC + 0x11E /* 00004852, value 0xF800, cstring "" */]
00004736  6004                     bra        +0x6 /* 0000473C */
label00004738:
00004738  41FA 0138                lea.l      A0, [PC + 0x138 /* 00004872, value 0xF400, cstring "" */]
label0000473C:
0000473C  4242                     clr.w      D2
0000473E  3D7C 0003 0020           move.w     [A6 + 0x20], 0x3
00004744  6000 0096                bra        +0x98 /* 000047DC */
label00004748:
00004748  526E 0022                addq.w     [A6 + 0x22], 1
0000474C  3D7C 0004 0020           move.w     [A6 + 0x20], 0x4
00004752  0C6E 0003 0022           cmpi.w     [A6 + 0x22], 0x3
00004758  6C2C                     bge        +0x2E /* 00004786 */
0000475A  0640 0010                addi.w     D0, 0x10
0000475E  48E7 F0F0                movem.l    -[A7], D0,D1,D2,D3,A0,A1,A2,A3
00004762  41EE 0020                lea.l      A0, [A6 + 0x20]
00004766  0440 0017                subi.w     D0, 0x17
0000476A  4EBA 01F0                jsr        [PC + 0x1F0 /* 0000495C */]
0000476E  4CDF 0F0F                movem.l    D0,D1,D2,D3,A0,A1,A2,A3, [A7]+
00004772  48E7 F0F0                movem.l    -[A7], D0,D1,D2,D3,A0,A1,A2,A3
00004776  41EE 0020                lea.l      A0, [A6 + 0x20]
0000477A  0640 0017                addi.w     D0, 0x17
0000477E  4EBA 01DC                jsr        [PC + 0x1DC /* 0000495C */]
00004782  4CDF 0F0F                movem.l    D0,D1,D2,D3,A0,A1,A2,A3, [A7]+
label00004786:
00004786  41FA F990                lea.l      A0, [PC - 0x670 /* 00004118, value 0xFF, cstring "" */]
0000478A  4242                     clr.w      D2
0000478C  3D7C 0002 0024           move.w     [A6 + 0x24], 0x2
00004792  6000 0048                bra        +0x4A /* 000047DC */
label00004796:
00004796  3E2E 0022                move.w     D7, [A6 + 0x22]
0000479A  5547                     subq.w     D7, 2
0000479C  6C06                     bge        +0x8 /* 000047A4 */
0000479E  41FA 00E6                lea.l      A0, [PC + 0xE6 /* 00004886, value 0x19FC07, cstring "" */]
000047A2  601A                     bra        +0x1C /* 000047BE */
label000047A4:
000047A4  5347                     subq.w     D7, 1
000047A6  6C06                     bge        +0x8 /* 000047AE */
000047A8  41FA 00E8                lea.l      A0, [PC + 0xE8 /* 00004892, value 0x2BF406, cstring "" */]
000047AC  6010                     bra        +0x12 /* 000047BE */
label000047AE:
000047AE  41FA 00C2                lea.l      A0, [PC + 0xC2 /* 00004872, value 0xF400, cstring "" */]
000047B2  3D7C 0004 0022           move.w     [A6 + 0x22], 0x4
000047B8  343C 0005                move.w     D2, 0x5
000047BC  6002                     bra        +0x4 /* 000047C0 */
label000047BE:
000047BE  4242                     clr.w      D2
label000047C0:
000047C0  426E 0020                clr.w      [A6 + 0x20]
000047C4  6000 0016                bra        +0x18 /* 000047DC */
label000047C8:
000047C8  41D6                     lea.l      A0, [A6]
000047CA  4EBA 11B0                jsr        [PC + 0x11B0 /* 0000597C */]
000047CE  41FA 0046                lea.l      A0, [PC + 0x46 /* 00004816, value 0x700F400 */]
000047D2  4242                     clr.w      D2
000047D4  42AE FFFC                clr.l      [A6 - 0x4]
000047D8  6000 0002                bra        +0x4 /* 000047DC */
label000047DC:
000047DC  4E75                     rts
000047DE  0300                     btst       D0, D1
000047E0  FC00 0600                .unknown   0xFC00 0x0600 (W = 6)
000047E4  FC01 FD00                .unknown   0xFC01 0xFD00 (W = 6)
000047E8  FC02 FD00                .unknown   0xFC02 0xFD00 (W = 6)
000047EC  FC03 FA00                .unknown   0xFC03 0xFA00 (W = 6)
000047F0  FC04 0300                .unknown   0xFC04 0x0300 (W = 6)
000047F4  FC05 0000                .unknown   0xFC05 0x0000 (W = 6)
000047F8  00FF                     .incomplete
000047FA  0200 F800                andi.b     D0, 0x0
000047FE  0400 F801                subi.b     D0, 0x1
00004802  FE00 F802                .unknown   0xFE00 0xF802 (W = 7)
00004806  FE00 F803                .unknown   0xFE00 0xF803 (W = 7)
0000480A  FC00 F804                .unknown   0xFC00 0xF804 (W = 6)
0000480E  0200 F805                andi.b     D0, 0x5
00004812  0000 00FF                ori.b      D0, 0xFF
00004816  0700                     btst       D0, D3
00004818  F400                     .invalid   <<cinv/cpush with scope=0>>
0000481A  0300                     btst       D0, D1
0000481C  F401                     .invalid   <<cinv/cpush with scope=0>>
0000481E  0400 F402                subi.b     D0, 0x2
00004822  F900                     .extension 0x900 <<F/4-5/4>> // unimplemented
00004824  F403                     .invalid   <<cinv/cpush with scope=0>>
00004826  FD00                     .extension 0xD00 <<F/4-5/6>> // unimplemented
00004828  F404                     .invalid   <<cinv/cpush with scope=0>>
0000482A  FC00 F405                .unknown   0xFC00 0xF405 (W = 6)
0000482E  0000 00FF                ori.b      D0, 0xFF
00004832  0000 FC00                ori.b      D0, 0x0
00004836  0000 FC06                ori.b      D0, 0x6
0000483A  0000 FC00                ori.b      D0, 0x0
0000483E  0000 FC06                ori.b      D0, 0x6
00004842  F0E7 0000                .extension 0x0E7 <<F/2-3/0>> // unimplemented
00004846  0000 0001                ori.b      D0, 0x1
0000484A  0000 0002                ori.b      D0, 0x2
0000484E  0000 00FF                ori.b      D0, 0xFF
00004852  0000 F800                ori.b      D0, 0x0
00004856  0000 F806                ori.b      D0, 0x6
0000485A  0000 F800                ori.b      D0, 0x0
0000485E  0000 F806                ori.b      D0, 0x6
00004862  00F5                     .incomplete
00004864  FC07 F0E7                .unknown   0xFC07 0xF0E7 (W = 6)
00004868  0001 0000                ori.b      D1, 0x0
0000486C  0002 0000                ori.b      D2, 0x0
00004870  00FF                     .incomplete
00004872  0000 F400                ori.b      D0, 0x0
00004876  0000 F406                ori.b      D0, 0x6
0000487A  0000 F400                ori.b      D0, 0x0
0000487E  0000 F406                ori.b      D0, 0x6
00004882  0000 00FF                ori.b      D0, 0xFF
00004886  0019 FC07                ori.b      [A1]+, 0x7
0000488A  000B F806                ori.b      A3, 0x6
0000488E  0000 00FF                ori.b      D0, 0xFF
00004892  002B F406 0000           ori.b      [A3 + 0x0], 0x6
00004898  00FF                     .incomplete
0000489A  0900                     btst       D0, D4
0000489C  F400                     .invalid   <<cinv/cpush with scope=0>>
0000489E  0500                     btst       D0, D2
000048A0  F401                     .invalid   <<cinv/cpush with scope=0>>
000048A2  0600 F402                addi.b     D0, 0x2
000048A6  F900                     .extension 0x900 <<F/4-5/4>> // unimplemented
000048A8  F403                     .invalid   <<cinv/cpush with scope=0>>
000048AA  FF00                     .extension 0xF00 <<F/4-5/7>> // unimplemented
000048AC  F404                     .invalid   <<cinv/cpush with scope=0>>
000048AE  FE00 F405                .unknown   0xFE00 0xF405 (W = 7)
000048B2  0000 F400                ori.b      D0, 0x0
000048B6  0608 F400                addi.b     A0, 0x0
000048BA  0008 F400                ori.b      A0, 0x0
000048BE  0008 F400                ori.b      A0, 0x0
000048C2  0000 00FF                ori.b      D0, 0xFF
000048C6  0C6E 0001 0020           cmpi.w     [A6 + 0x20], 0x1
000048CC  6604                     bne        +0x6 /* 000048D2 */
000048CE  D06E 0024                add.w      D0, [A6 + 0x24]
label000048D2:
000048D2  4E75                     rts
000048D4  3D40 001C                move.w     [A6 + 0x1C], D0
000048D8  3D41 001E                move.w     [A6 + 0x1E], D1
000048DC  066E 0010 001E           addi.w     [A6 + 0x1E], 0x10
000048E2  0C6E 0001 0020           cmpi.w     [A6 + 0x20], 0x1
000048E8  666C                     bne        +0x6E /* 00004956 */
000048EA  41ED FE6C                lea.l      A0, [A5 - 0x194]
000048EE  4EBA 0FE0                jsr        [PC + 0xFE0 /* 000058D0 */]
000048F2  6762                     beq        +0x64 /* 00004956 */
000048F4  4A40                     tst.w      D0
000048F6  6D08                     blt        +0xA /* 00004900 */
000048F8  3D7C 0002 0024           move.w     [A6 + 0x24], 0x2
000048FE  6006                     bra        +0x8 /* 00004906 */
label00004900:
00004900  3D7C FFFE 0024           move.w     [A6 + 0x24], 0xFFFE
label00004906:
00004906  42A8 0008                clr.l      [A0 + 0x8]
0000490A  41D6                     lea.l      A0, [A6]
0000490C  4EBA 106E                jsr        [PC + 0x106E /* 0000597C */]
00004910  0C6E 0002 0022           cmpi.w     [A6 + 0x22], 0x2
00004916  6716                     beq        +0x18 /* 0000492E */
00004918  41EE 001C                lea.l      A0, [A6 + 0x1C]
0000491C  4EBA 105E                jsr        [PC + 0x105E /* 0000597C */]
00004920  3F00                     move.w     -[A7], D0
00004922  303C 002E                move.w     D0, 0x2E /* '.' */
00004926  4EAD 0052                jsr        [A5 + 0x52 /* export_6, CODE:1 @ 00000114 */]
0000492A  301F                     move.w     D0, [A7]+
0000492C  600C                     bra        +0xE /* 0000493A */
label0000492E:
0000492E  3F00                     move.w     -[A7], D0
00004930  303C 002D                move.w     D0, 0x2D /* '-' */
00004934  4EAD 0052                jsr        [A5 + 0x52 /* export_6, CODE:1 @ 00000114 */]
00004938  301F                     move.w     D0, [A7]+
label0000493A:
0000493A  7010                     moveq.l    D0, 0x10
0000493C  4EBA 12D6                jsr        [PC + 0x12D6 /* 00005C14 */]
00004940  3D7C 0002 0020           move.w     [A6 + 0x20], 0x2
00004946  41FA F7D0                lea.l      A0, [PC - 0x830 /* 00004118, value 0xFF, cstring "" */]
0000494A  2D48 0004                move.l     [A6 + 0x4], A0
0000494E  426E 0008                clr.w      [A6 + 0x8]
00004952  426E 000A                clr.w      [A6 + 0xA]
label00004956:
00004956  4E75                     rts
export_95:
00004958  3018                     move.w     D0, [A0]+
0000495A  3218                     move.w     D1, [A0]+
fn0000495C:
0000495C  343C 000A                move.w     D2, 0xA /* '\n' */
00004960  2648                     movea.l    A3, A0
00004962  41FA FD16                lea.l      A0, [PC - 0x2EA /* 0000467A, value 0x342E0020 '4.\0 ', cstring "4." */]
00004966  43ED FD6C                lea.l      A1, [A5 - 0x294]
0000496A  45FA FF68                lea.l      A2, [PC - 0x98 /* 000048D4, value 0x3D40001C, cstring "=@" */]
0000496E  49FA FF56                lea.l      A4, [PC - 0xAA /* 000048C6, value 0xC6E0001 */]
00004972  4EBA F74C                jsr        [PC - 0x8B4 /* 000040C0 */]
00004976  4E75                     rts
00004978  342E 002E                move.w     D2, [A6 + 0x2E]
0000497C  E542                     asl        D2.w, 2
0000497E  4EFB 2002                jmp        [PC + D2.w + 0x2]
00004982  4EFA 0036                jmp        [PC + 0x36 /* 000049BA */]
00004986  4EFA 005A                jmp        [PC + 0x5A /* 000049E2 */]
0000498A  4EFA 00AC                jmp        [PC + 0xAC /* 00004A38 */]
0000498E  4EFA 023C                jmp        [PC + 0x23C /* 00004BCC */]
00004992  4EFA 027A                jmp        [PC + 0x27A /* 00004C0E */]
00004996  4EFA 00B8                jmp        [PC + 0xB8 /* 00004A50 */]
0000499A  4EFA 00D2                jmp        [PC + 0xD2 /* 00004A6E */]
0000499E  4EFA 00F8                jmp        [PC + 0xF8 /* 00004A98 */]
000049A2  4EFA 0132                jmp        [PC + 0x132 /* 00004AD6 */]
000049A6  4EFA 0182                jmp        [PC + 0x182 /* 00004B2A */]
000049AA  4EFA 019C                jmp        [PC + 0x19C /* 00004B48 */]
000049AE  4EFA 01AA                jmp        [PC + 0x1AA /* 00004B5A */]
000049B2  4EFA 01C4                jmp        [PC + 0x1C4 /* 00004B78 */]
000049B6  4EFA 01DE                jmp        [PC + 0x1DE /* 00004B96 */]
label000049BA:
000049BA  41FA F75C                lea.l      A0, [PC - 0x8A4 /* 00004118, value 0xFF, cstring "" */]
000049BE  343C FFFF                move.w     D2, 0xFFFF
000049C2  536E 0036                subq.w     [A6 + 0x36], 1
000049C6  6E00 0276                bgt        +0x278 /* 00004C3E */
000049CA  3D7C 0001 002E           move.w     [A6 + 0x2E], 0x1
000049D0  41EE 001C                lea.l      A0, [A6 + 0x1C]
000049D4  2E3C 0800 0000           move.l     D7, 0x8000000
000049DA  4EBA 0F6E                jsr        [PC + 0xF6E /* 0000594A */]
000049DE  6000 0002                bra        +0x4 /* 000049E2 */
label000049E2:
000049E2  4A6E 0024                tst.w      [A6 + 0x24]
000049E6  6706                     beq        +0x8 /* 000049EE */
000049E8  41FA 0256                lea.l      A0, [PC + 0x256 /* 00004C40, value 0xE51E0006 */]
000049EC  6004                     bra        +0x6 /* 000049F2 */
label000049EE:
000049EE  41FA 0270                lea.l      A0, [PC + 0x270 /* 00004C60, value 0x1B1E0005 */]
label000049F2:
000049F2  343C 0001                move.w     D2, 0x1
000049F6  3F00                     move.w     -[A7], D0
000049F8  303C 0040                move.w     D0, 0x40 /* '@' */
000049FC  4EAD 0052                jsr        [A5 + 0x52 /* export_6, CODE:1 @ 00000114 */]
00004A00  301F                     move.w     D0, [A7]+
00004A02  302E 0020                move.w     D0, [A6 + 0x20]
00004A06  322E 0022                move.w     D1, [A6 + 0x22]
00004A0A  3D7C 0002 002E           move.w     [A6 + 0x2E], 0x2
00004A10  48E7 E0E0                movem.l    -[A7], D0,D1,D2,A0,A1,A2
00004A14  4EBA 1252                jsr        [PC + 0x1252 /* 00005C68 */]
00004A18  C06E 0028                and.w      D0, [A6 + 0x28]
00004A1C  5540                     subq.w     D0, 2
00004A1E  3D40 0036                move.w     [A6 + 0x36], D0
00004A22  4CDF 0707                movem.l    D0,D1,D2,A0,A1,A2, [A7]+
00004A26  4A6E 0036                tst.w      [A6 + 0x36]
00004A2A  6E00 0212                bgt        +0x214 /* 00004C3E */
00004A2E  3D7C 0005 002E           move.w     [A6 + 0x2E], 0x5
00004A34  6000 0208                bra        +0x20A /* 00004C3E */
label00004A38:
00004A38  536E 0036                subq.w     [A6 + 0x36], 1
00004A3C  6E06                     bgt        +0x8 /* 00004A44 */
00004A3E  3D7C 0005 002E           move.w     [A6 + 0x2E], 0x5
label00004A44:
00004A44  41FA 033A                lea.l      A0, [PC + 0x33A /* 00004D80, value 0x1, cstring "" */]
00004A48  343C 0003                move.w     D2, 0x3
00004A4C  6000 01F0                bra        +0x1F2 /* 00004C3E */
label00004A50:
00004A50  41FA 022E                lea.l      A0, [PC + 0x22E /* 00004C80, value 0x0, cstring "" */]
00004A54  343C 0001                move.w     D2, 0x1
00004A58  3D7C 0006 002E           move.w     [A6 + 0x2E], 0x6
00004A5E  3F00                     move.w     -[A7], D0
00004A60  303C 003F                move.w     D0, 0x3F /* '?' */
00004A64  4EAD 0052                jsr        [A5 + 0x52 /* export_6, CODE:1 @ 00000114 */]
00004A68  301F                     move.w     D0, [A7]+
00004A6A  6000 01D2                bra        +0x1D4 /* 00004C3E */
label00004A6E:
00004A6E  41FA 0218                lea.l      A0, [PC + 0x218 /* 00004C88, value 0xC000A, cstring "" */]
00004A72  266D FF7A                movea.l    A3, [A5 - 0x86]
00004A76  342B 0016                move.w     D2, [A3 + 0x16]
00004A7A  9441                     sub.w      D2, D1
00004A7C  0442 0012                subi.w     D2, 0x12
00004A80  6E02                     bgt        +0x4 /* 00004A84 */
00004A82  4242                     clr.w      D2
label00004A84:
00004A84  48C2                     ext.l      D2
00004A86  84FC 000C                divu.w     D2, 0xC
00004A8A  3D42 003C                move.w     [A6 + 0x3C], D2
00004A8E  3D7C 0007 002E           move.w     [A6 + 0x2E], 0x7
00004A94  6000 01A8                bra        +0x1AA /* 00004C3E */
label00004A98:
00004A98  266D FF7A                movea.l    A3, [A5 - 0x86]
00004A9C  342B 0014                move.w     D2, [A3 + 0x14]
00004AA0  0C40 006E                cmpi.w     D0, 0x6E /* 'n' */
00004AA4  6D0C                     blt        +0xE /* 00004AB2 */
00004AA6  B440                     cmp.w      D2, D0
00004AA8  6E08                     bgt        +0xA /* 00004AB2 */
00004AAA  3D7C FFFF 0038           move.w     [A6 + 0x38], 0xFFFF
00004AB0  6006                     bra        +0x8 /* 00004AB8 */
label00004AB2:
00004AB2  3D7C 0001 0038           move.w     [A6 + 0x38], 0x1
label00004AB8:
00004AB8  4A6E 0038                tst.w      [A6 + 0x38]
00004ABC  6D06                     blt        +0x8 /* 00004AC4 */
00004ABE  41FA 01D8                lea.l      A0, [PC + 0x1D8 /* 00004C98, value 0x608000F */]
00004AC2  6004                     bra        +0x6 /* 00004AC8 */
label00004AC4:
00004AC4  41FA 01E2                lea.l      A0, [PC + 0x1E2 /* 00004CA8, value 0xFA080010 */]
label00004AC8:
00004AC8  343C 0001                move.w     D2, 0x1
00004ACC  3D7C 0008 002E           move.w     [A6 + 0x2E], 0x8
00004AD2  6000 016A                bra        +0x16C /* 00004C3E */
label00004AD6:
00004AD6  266D FF7A                movea.l    A3, [A5 - 0x86]
00004ADA  342B 0014                move.w     D2, [A3 + 0x14]
00004ADE  0C42 001E                cmpi.w     D2, 0x1E
00004AE2  6C06                     bge        +0x8 /* 00004AEA */
00004AE4  343C 001E                move.w     D2, 0x1E
00004AE8  600A                     bra        +0xC /* 00004AF4 */
label00004AEA:
00004AEA  0C42 017C                cmpi.w     D2, 0x17C
00004AEE  6F04                     ble        +0x6 /* 00004AF4 */
00004AF0  343C 017C                move.w     D2, 0x17C
label00004AF4:
00004AF4  9440                     sub.w      D2, D0
00004AF6  4A6E 0038                tst.w      [A6 + 0x38]
00004AFA  6D0A                     blt        +0xC /* 00004B06 */
00004AFC  41FA 01BA                lea.l      A0, [PC + 0x1BA /* 00004CB8, value 0xC00FC03 */]
00004B00  0642 000C                addi.w     D2, 0xC
00004B04  600A                     bra        +0xC /* 00004B10 */
label00004B06:
00004B06  41FA 01B8                lea.l      A0, [PC + 0x1B8 /* 00004CC0, value 0xF400000B */]
00004B0A  4442                     neg.w      D2
00004B0C  0442 0023                subi.w     D2, 0x23 /* '#' */
label00004B10:
00004B10  4A42                     tst.w      D2
00004B12  6E02                     bgt        +0x4 /* 00004B16 */
00004B14  4242                     clr.w      D2
label00004B16:
00004B16  48C2                     ext.l      D2
00004B18  84FC 000C                divu.w     D2, 0xC
00004B1C  3D42 003A                move.w     [A6 + 0x3A], D2
00004B20  3D7C 0009 002E           move.w     [A6 + 0x2E], 0x9 /* '\t' */
00004B26  6000 0116                bra        +0x118 /* 00004C3E */
label00004B2A:
00004B2A  4A6E 0038                tst.w      [A6 + 0x38]
00004B2E  6D06                     blt        +0x8 /* 00004B36 */
00004B30  41FA 0196                lea.l      A0, [PC + 0x196 /* 00004CC8, value 0x8F8000C */]
00004B34  6004                     bra        +0x6 /* 00004B3A */
label00004B36:
00004B36  41FA 01C4                lea.l      A0, [PC + 0x1C4 /* 00004CFC, value 0xF8F80011 */]
label00004B3A:
00004B3A  343C 0001                move.w     D2, 0x1
00004B3E  3D7C 000A 002E           move.w     [A6 + 0x2E], 0xA /* '\n' */
00004B44  6000 00F8                bra        +0xFA /* 00004C3E */
label00004B48:
00004B48  41FA 0146                lea.l      A0, [PC + 0x146 /* 00004C90, value 0xF40009, cstring "" */]
00004B4C  342E 003C                move.w     D2, [A6 + 0x3C]
00004B50  3D7C 000B 002E           move.w     [A6 + 0x2E], 0xB
00004B56  6000 00E6                bra        +0xE8 /* 00004C3E */
label00004B5A:
00004B5A  4A6E 0038                tst.w      [A6 + 0x38]
00004B5E  6D06                     blt        +0x8 /* 00004B66 */
00004B60  41FA 01CE                lea.l      A0, [PC + 0x1CE /* 00004D30, value 0xF00009, cstring "" */]
00004B64  6004                     bra        +0x6 /* 00004B6A */
label00004B66:
00004B66  41FA 01D8                lea.l      A0, [PC + 0x1D8 /* 00004D40, value 0xF00009, cstring "" */]
label00004B6A:
00004B6A  343C 0001                move.w     D2, 0x1
00004B6E  3D7C 000C 002E           move.w     [A6 + 0x2E], 0xC
00004B74  6000 00C8                bra        +0xCA /* 00004C3E */
label00004B78:
00004B78  4A6E 0038                tst.w      [A6 + 0x38]
00004B7C  6D06                     blt        +0x8 /* 00004B84 */
00004B7E  41FA 0140                lea.l      A0, [PC + 0x140 /* 00004CC0, value 0xF400000B */]
00004B82  6004                     bra        +0x6 /* 00004B88 */
label00004B84:
00004B84  41FA 0132                lea.l      A0, [PC + 0x132 /* 00004CB8, value 0xC00FC03 */]
label00004B88:
00004B88  342E 003A                move.w     D2, [A6 + 0x3A]
00004B8C  3D7C 000D 002E           move.w     [A6 + 0x2E], 0xD /* '\r' */
00004B92  6000 00AA                bra        +0xAC /* 00004C3E */
label00004B96:
00004B96  4A6E 0038                tst.w      [A6 + 0x38]
00004B9A  6D06                     blt        +0x8 /* 00004BA2 */
00004B9C  41FA 01B2                lea.l      A0, [PC + 0x1B2 /* 00004D50, value 0xF60A000E */]
00004BA0  6004                     bra        +0x6 /* 00004BA6 */
label00004BA2:
00004BA2  41FA 01C4                lea.l      A0, [PC + 0x1C4 /* 00004D68, value 0xA0A0013, cstring "\
\
" */]
label00004BA6:
00004BA6  343C 0001                move.w     D2, 0x1
00004BAA  3D7C 0002 002E           move.w     [A6 + 0x2E], 0x2
00004BB0  48E7 E0E0                movem.l    -[A7], D0,D1,D2,A0,A1,A2
00004BB4  4EBA 10B2                jsr        [PC + 0x10B2 /* 00005C68 */]
00004BB8  C06E 0028                and.w      D0, [A6 + 0x28]
00004BBC  D06E 0026                add.w      D0, [A6 + 0x26]
00004BC0  3D40 0036                move.w     [A6 + 0x36], D0
00004BC4  4CDF 0707                movem.l    D0,D1,D2,A0,A1,A2, [A7]+
00004BC8  6000 0074                bra        +0x76 /* 00004C3E */
label00004BCC:
00004BCC  0641 001E                addi.w     D1, 0x1E
00004BD0  B06E 0034                cmp.w      D0, [A6 + 0x34]
00004BD4  6D14                     blt        +0x16 /* 00004BEA */
00004BD6  B26E 0032                cmp.w      D1, [A6 + 0x32]
00004BDA  6D22                     blt        +0x24 /* 00004BFE */
00004BDC  322E 0032                move.w     D1, [A6 + 0x32]
00004BE0  3D7C 0004 002E           move.w     [A6 + 0x2E], 0x4
00004BE6  6000 0026                bra        +0x28 /* 00004C0E */
label00004BEA:
00004BEA  B26E 0030                cmp.w      D1, [A6 + 0x30]
00004BEE  6D0E                     blt        +0x10 /* 00004BFE */
00004BF0  322E 0030                move.w     D1, [A6 + 0x30]
00004BF4  3D7C 0004 002E           move.w     [A6 + 0x2E], 0x4
00004BFA  6000 0012                bra        +0x14 /* 00004C0E */
label00004BFE:
00004BFE  0441 001E                subi.w     D1, 0x1E
00004C02  41FA 01A0                lea.l      A0, [PC + 0x1A0 /* 00004DA4, value 0x190010, cstring "" */]
00004C06  343C 0001                move.w     D2, 0x1
00004C0A  6000 0032                bra        +0x34 /* 00004C3E */
label00004C0E:
00004C0E  41FA 01A0                lea.l      A0, [PC + 0x1A0 /* 00004DB0, value 0xFC00, cstring "" */]
00004C12  343C 0001                move.w     D2, 0x1
00004C16  3F00                     move.w     -[A7], D0
00004C18  303C 003D                move.w     D0, 0x3D /* '=' */
00004C1C  4EAD 0052                jsr        [A5 + 0x52 /* export_6, CODE:1 @ 00000114 */]
00004C20  301F                     move.w     D0, [A7]+
00004C22  426E 002E                clr.w      [A6 + 0x2E]
00004C26  48E7 E0E0                movem.l    -[A7], D0,D1,D2,A0,A1,A2
00004C2A  4EBA 103C                jsr        [PC + 0x103C /* 00005C68 */]
00004C2E  C06E 002C                and.w      D0, [A6 + 0x2C]
00004C32  D06E 002A                add.w      D0, [A6 + 0x2A]
00004C36  3D40 0036                move.w     [A6 + 0x36], D0
00004C3A  4CDF 0707                movem.l    D0,D1,D2,A0,A1,A2, [A7]+
label00004C3E:
00004C3E  4E75                     rts
00004C40  E51E                     rol        D6.b, 2
00004C42  0006 E51E                ori.b      D6, 0x1E
00004C46  0006 EE14                ori.b      D6, 0x14
00004C4A  0006 F808                ori.b      D6, 0x8
00004C4E  0006 F50D                ori.b      D6, 0xD /* '\r' */
00004C52  0000 F70E                ori.b      D0, 0xE
00004C56  0000 FB0D                ori.b      D0, 0xD /* '\r' */
00004C5A  0000 0000                ori.b      D0, 0x0
00004C5E  00FF                     .incomplete
00004C60  1B1E                     move.b     -[A5], [A6]+
00004C62  0005 1B1E                ori.b      D5, 0x1E
00004C66  0005 1214                ori.b      D5, 0x14
00004C6A  0005 0808                ori.b      D5, 0x8
00004C6E  0005 0B0D                ori.b      D5, 0xD /* '\r' */
00004C72  0000 090E                ori.b      D0, 0xE
00004C76  0000 050D                ori.b      D0, 0xD /* '\r' */
00004C7A  0000 0000                ori.b      D0, 0x0
00004C7E  00FF                     .incomplete
00004C80  0000 0000                ori.b      D0, 0x0
00004C84  0000 00FF                ori.b      D0, 0xFF
00004C88  000C 000A                ori.b      A4, 0xA /* '\n' */
00004C8C  0000 00FF                ori.b      D0, 0xFF
00004C90  00F4                     .incomplete
00004C92  0009 0000                ori.b      A1, 0x0
00004C96  00FF                     .incomplete
00004C98  0608 000F                addi.b     A0, 0xF
00004C9C  0608 0005                addi.b     A0, 0x5
00004CA0  0608 FC03                addi.b     A0, 0x3
00004CA4  0000 00FF                ori.b      D0, 0xFF
00004CA8  FA08 0010                .unknown   0xFA08 0x0010 (W = 5)
00004CAC  FA08 0006                .unknown   0xFA08 0x0006 (W = 5)
00004CB0  FA08 000B                .unknown   0xFA08 0x000B (W = 5)
00004CB4  0000 00FF                ori.b      D0, 0xFF
00004CB8  0C00 FC03                cmpi.b     D0, 0x3
00004CBC  0000 00FF                ori.b      D0, 0xFF
00004CC0  F400                     .invalid   <<cinv/cpush with scope=0>>
00004CC2  000B 0000                ori.b      A3, 0x0
00004CC6  00FF                     .incomplete
00004CC8  08F8 000C 00F8           bset.b     [0x000000F8], 0xC
00004CCE  0009 F8F8                ori.b      A1, 0xF8
00004CD2  000D F800                ori.b      A5, 0x0
00004CD6  000B F808                ori.b      A3, 0x8
00004CDA  000E 0008                ori.b      A6, 0x8
00004CDE  000A 0808                ori.b      A2, 0x8
00004CE2  000F 0C00                ori.b      A7, 0x0
00004CE6  FC03 0C00                .unknown   0xFC03 0x0C00 (W = 6)
00004CEA  FC03 08F8                .unknown   0xFC03 0x08F8 (W = 6)
00004CEE  000C 0AF6                ori.b      A4, 0xF6
00004CF2  0007 0AF6                ori.b      D7, 0xF6
00004CF6  0007 0000                ori.b      D7, 0x0
00004CFA  00FF                     .incomplete
00004CFC  F8F8 0011                .extension 0x8F8 <<F/2-3/4>> // unimplemented
00004D00  00F8                     .incomplete
00004D02  0009 08F8                ori.b      A1, 0xF8
00004D06  0012 0800                ori.b      [A2], 0x0
00004D0A  FC03 0808                .unknown   0xFC03 0x0808 (W = 6)
00004D0E  0013 0008                ori.b      [A3], 0x8
00004D12  000A F808                ori.b      A2, 0x8
00004D16  0010 F400                ori.b      [A0], 0x0
00004D1A  000B F400                ori.b      A3, 0x0
00004D1E  000B F8F8                ori.b      A3, 0xF8
00004D22  0011 F6F6                ori.b      [A1], 0xF6
00004D26  0008 F6F6                ori.b      A0, 0xF6
00004D2A  0008 0000                ori.b      A0, 0x0
00004D2E  00FF                     .incomplete
00004D30  00F0                     .incomplete
00004D32  0009 F8F8                ori.b      A1, 0xF8
00004D36  000D F4F4                ori.b      A5, 0xF4
00004D3A  0008 0000                ori.b      A0, 0x0
00004D3E  00FF                     .incomplete
00004D40  00F0                     .incomplete
00004D42  0009 08F8                ori.b      A1, 0xF8
00004D46  0012 0CF4                ori.b      [A2], 0xF4
00004D4A  0007 0000                ori.b      D7, 0x0
00004D4E  00FF                     .incomplete
00004D50  F60A 000E                .move16    0xF60A, 0x000E // unimplemented
00004D54  F60A 0006                .move16    0xF60A, 0x0006 // unimplemented
00004D58  F608 0000                .move16    0xF608, 0x0000 // unimplemented
00004D5C  FA06 0000                .unknown   0xFA06 0x0000 (W = 5)
00004D60  FA06 0000                .unknown   0xFA06 0x0000 (W = 5)
00004D64  0000 00FF                ori.b      D0, 0xFF
00004D68  0A0A 0013                xori.b     A2, 0x13
00004D6C  0A0A 0005                xori.b     A2, 0x5
00004D70  0A08 0000                xori.b     A0, 0x0
00004D74  0606 0000                addi.b     D6, 0x0
00004D78  0606 0000                addi.b     D6, 0x0
00004D7C  0000 00FF                ori.b      D0, 0xFF
00004D80  0000 0001                ori.b      D0, 0x1
00004D84  0000 0001                ori.b      D0, 0x1
00004D88  0000 0002                ori.b      D0, 0x2
00004D8C  0000 0002                ori.b      D0, 0x2
00004D90  0000 0003                ori.b      D0, 0x3
00004D94  0000 0003                ori.b      D0, 0x3
00004D98  0000 0004                ori.b      D0, 0x4
00004D9C  0000 0004                ori.b      D0, 0x4
00004DA0  0000 00FF                ori.b      D0, 0xFF
00004DA4  0019 0010                ori.b      [A1]+, 0x10
00004DA8  0019 000F                ori.b      [A1]+, 0xF
00004DAC  0000 00FF                ori.b      D0, 0xFF
00004DB0  0000 FC00                ori.b      D0, 0x0
00004DB4  0000 FC01                ori.b      D0, 0x1
00004DB8  0000 FC02                ori.b      D0, 0x2
00004DBC  0000 FC01                ori.b      D0, 0x1
00004DC0  0000 00FF                ori.b      D0, 0xFF
00004DC4  3D40 001C                move.w     [A6 + 0x1C], D0
00004DC8  3D41 001E                move.w     [A6 + 0x1E], D1
00004DCC  066E 0010 001C           addi.w     [A6 + 0x1C], 0x10
00004DD2  066E 000A 001E           addi.w     [A6 + 0x1E], 0xA /* '\n' */
00004DD8  41ED FE6C                lea.l      A0, [A5 - 0x194]
00004DDC  4EBA 0AF2                jsr        [PC + 0xAF2 /* 000058D0 */]
00004DE0  6736                     beq        +0x38 /* 00004E18 */
00004DE2  42A8 0008                clr.l      [A0 + 0x8]
00004DE6  41EE 001C                lea.l      A0, [A6 + 0x1C]
00004DEA  4EBA 0B90                jsr        [PC + 0xB90 /* 0000597C */]
00004DEE  303C 0014                move.w     D0, 0x14
00004DF2  4EBA 0E20                jsr        [PC + 0xE20 /* 00005C14 */]
00004DF6  3D7C 0003 002E           move.w     [A6 + 0x2E], 0x3
00004DFC  3F00                     move.w     -[A7], D0
00004DFE  303C 003E                move.w     D0, 0x3E /* '>' */
00004E02  4EAD 0052                jsr        [A5 + 0x52 /* export_6, CODE:1 @ 00000114 */]
00004E06  301F                     move.w     D0, [A7]+
00004E08  41FA F30E                lea.l      A0, [PC - 0xCF2 /* 00004118, value 0xFF, cstring "" */]
00004E0C  2D48 0004                move.l     [A6 + 0x4], A0
00004E10  426E 0008                clr.w      [A6 + 0x8]
00004E14  426E 000A                clr.w      [A6 + 0xA]
label00004E18:
00004E18  4E75                     rts
fn00004E1A:
00004E1A  3010                     move.w     D0, [A0]
00004E1C  3228 0002                move.w     D1, [A0 + 0x2]
00004E20  343C 001E                move.w     D2, 0x1E
00004E24  2648                     movea.l    A3, A0
00004E26  41FA FB50                lea.l      A0, [PC - 0x4B0 /* 00004978, value 0x342E002E '4.\0.', cstring "4." */]
00004E2A  43ED FD74                lea.l      A1, [A5 - 0x28C]
00004E2E  45FA FF94                lea.l      A2, [PC - 0x6C /* 00004DC4, value 0x3D40001C, cstring "=@" */]
00004E32  99CC                     sub.l      A4, A4
00004E34  4EBA F28A                jsr        [PC - 0xD76 /* 000040C0 */]
00004E38  4E75                     rts
export_94:
00004E3A  2848                     movea.l    A4, A0
00004E3C  3E1C                     move.w     D7, [A4]+
00004E3E  5347                     subq.w     D7, 1
00004E40  41FA 0032                lea.l      A0, [PC + 0x32 /* 00004E74, value 0x0, cstring "" */]
00004E44  315C 0010                move.w     [A0 + 0x10], [A4]+
00004E48  315C 0012                move.w     [A0 + 0x12], [A4]+
00004E4C  315C 0014                move.w     [A0 + 0x14], [A4]+
00004E50  4268 0016                clr.w      [A0 + 0x16]
00004E54  4268 000E                clr.w      [A0 + 0xE]
label00004E58:
00004E58  2248                     movea.l    A1, A0
00004E5A  22DC                     move.l     [A1]+, [A4]+
00004E5C  22DC                     move.l     [A1]+, [A4]+
00004E5E  22DC                     move.l     [A1]+, [A4]+
00004E60  32DC                     move.w     [A1]+, [A4]+
00004E62  48E7 0188                movem.l    -[A7], D7,A0,A4
00004E66  4EBA FFB2                jsr        [PC - 0x4E /* 00004E1A */]
00004E6A  4CDF 1180                movem.l    D7,A0,A4, [A7]+
00004E6E  51CF FFE8                dbf        D7, -0x1A /* 00004E58 */
00004E72  4E75                     rts
00004E74  0000 0000                ori.b      D0, 0x0
00004E78  0000 0000                ori.b      D0, 0x0
00004E7C  0000 0000                ori.b      D0, 0x0
00004E80  0000 0000                ori.b      D0, 0x0
00004E84  0000 0000                ori.b      D0, 0x0
00004E88  0000 0000                ori.b      D0, 0x0
00004E8C  0000 0000                ori.b      D0, 0x0
00004E90  0000 48E7                ori.b      D0, 0xE7
// begin alternate branch 00004E92-00004E96
export_97:
00004E92  48E7 FFFA                movem.l    -[A7], D0,D1,D2,D3,D4,D5,D6,D7,A0,A1,A2,A3,A4,A6
// end alternate branch 00004E92-00004E96
export_97: // at 00004E92 (misaligned)
00004E94  FFFA                     .invalid   <<F/7/7>>
00004E96  4EAD 014A                jsr        [A5 + 0x14A /* export_37, CODE:1 @ 00001194 */]
00004E9A  51ED FF9B                sf         [A5 - 0x65]
00004E9E  4EAD 013A                jsr        [A5 + 0x13A /* export_35, CODE:1 @ 0000112A */]
00004EA2  51ED FE7D                sf         [A5 - 0x183]
00004EA6  426D FE7A                clr.w      [A5 - 0x186]
label00004EAA:
00004EAA  47ED FE7E                lea.l      A3, [A5 - 0x182]
00004EAE  2853                     movea.l    A4, [A3]
label00004EB0:
00004EB0  246C 0004                movea.l    A2, [A4 + 0x4]
00004EB4  B4FC 0000                cmpa.w     A2, 0x0
00004EB8  6700 0038                beq        +0x3A /* 00004EF2 */
00004EBC  4DEC 0008                lea.l      A6, [A4 + 0x8]
00004EC0  48E7 0018                movem.l    -[A7], A3,A4
00004EC4  4E92                     jsr        [A2]
00004EC6  4CDF 1800                movem.l    A3,A4, [A7]+
00004ECA  264C                     movea.l    A3, A4
00004ECC  2854                     movea.l    A4, [A4]
label00004ECE:
00004ECE  B8FC 0000                cmpa.w     A4, 0x0
00004ED2  66DC                     bne        -0x22 /* 00004EB0 */
00004ED4  4EBA B850                jsr        [PC - 0x47B0 /* 00000726 */]
00004ED8  4A2D FE7D                tst.b      [A5 - 0x183]
00004EDC  67CC                     beq        -0x32 /* 00004EAA */
00004EDE  266D FE7E                movea.l    A3, [A5 - 0x182]
label00004EE2:
00004EE2  B6FC 0000                cmpa.w     A3, 0x0
00004EE6  671A                     beq        +0x1C /* 00004F02 */
00004EE8  2853                     movea.l    A4, [A3]
00004EEA  204B                     movea.l    A0, A3
00004EEC  A01F                     syscall    DisposPtr/DisposePtr
00004EEE  264C                     movea.l    A3, A4
00004EF0  60F0                     bra        -0xE /* 00004EE2 */
label00004EF2:
00004EF2  2694                     move.l     [A3], [A4]
00004EF4  244B                     movea.l    A2, A3
00004EF6  264C                     movea.l    A3, A4
00004EF8  2854                     movea.l    A4, [A4]
00004EFA  204B                     movea.l    A0, A3
00004EFC  A01F                     syscall    DisposPtr/DisposePtr
00004EFE  264A                     movea.l    A3, A2
00004F00  60CC                     bra        -0x32 /* 00004ECE */
label00004F02:
00004F02  4EAD 006A                jsr        [A5 + 0x6A /* export_9, CODE:1 @ 0000045A */]
00004F06  4EAD 0142                jsr        [A5 + 0x142 /* export_36, CODE:1 @ 00001166 */]
00004F0A  42AD FE7E                clr.l      [A5 - 0x182]
00004F0E  4CDF 5FFF                movem.l    D0,D1,D2,D3,D4,D5,D6,D7,A0,A1,A2,A3,A4,A6, [A7]+
00004F12  4E75                     rts
export_98:
00004F14  2648                     movea.l    A3, A0
00004F16  7024                     moveq.l    D0, 0x24
00004F18  A31E                     syscall    NewPtrClear, flags=3
00004F1A  43FA 0022                lea.l      A1, [PC + 0x22 /* 00004F3E, value 0x286E0002, cstring "(n" */]
00004F1E  2149 0004                move.l     [A0 + 0x4], A1
00004F22  214B 000A                move.l     [A0 + 0xA], A3
00004F26  4268 000E                clr.w      [A0 + 0xE]
00004F2A  20AD FE7E                move.l     [A0], [A5 - 0x182]
00004F2E  2B48 FE7E                move.l     [A5 - 0x182], A0
00004F32  5088                     addq.l     A0, 8
00004F34  43FA 00D0                lea.l      A1, [PC + 0xD0 /* 00005006, value 0x48E7E0D0 */]
00004F38  2B49 FF96                move.l     [A5 - 0x6A], A1
00004F3C  4E75                     rts
00004F3E  286E 0002                movea.l    A4, [A6 + 0x2]
00004F42  362E 0006                move.w     D3, [A6 + 0x6]
00004F46  206D FFA8                movea.l    A0, [A5 - 0x58]
00004F4A  302C FFFC                move.w     D0, [A4 - 0x4]
00004F4E  322C FFFE                move.w     D1, [A4 - 0x2]
00004F52  3434 3000                move.w     D2, [A4 + D3.w]
00004F56  4A74 3002                tst.w      [A4 + D3.w + 0x2]
00004F5A  6E06                     bgt        +0x8 /* 00004F62 */
00004F5C  226D FDD2                movea.l    A1, [A5 - 0x22E]
00004F60  6008                     bra        +0xA /* 00004F6A */
label00004F62:
00004F62  226D FDCE                movea.l    A1, [A5 - 0x232]
00004F66  0640 0050                addi.w     D0, 0x50 /* 'P' */
label00004F6A:
00004F6A  2D49 0008                move.l     [A6 + 0x8], A1
00004F6E  3D40 000C                move.w     [A6 + 0xC], D0
00004F72  3D41 000E                move.w     [A6 + 0xE], D1
00004F76  3D42 0010                move.w     [A6 + 0x10], D2
00004F7A  4EBA B578                jsr        [PC - 0x4A88 /* 000004F4 */]
00004F7E  5C43                     addq.w     D3, 6
00004F80  4A74 3000                tst.w      [A4 + D3.w]
00004F84  6C02                     bge        +0x4 /* 00004F88 */
00004F86  4243                     clr.w      D3
label00004F88:
00004F88  3CB4 3004                move.w     [A6], [A4 + D3.w + 0x4]
00004F8C  3D43 0006                move.w     [A6 + 0x6], D3
00004F90  BDED FDDA                cmpa.l     A6, [A5 - 0x226]
00004F94  6632                     bne        +0x34 /* 00004FC8 */
00004F96  0C56 0014                cmpi.w     [A6], 0x14
00004F9A  6614                     bne        +0x16 /* 00004FB0 */
00004F9C  615E                     bsr        +0x60 /* 00004FFC */
00004F9E  362C FFFA                move.w     D3, [A4 - 0x6]
00004FA2  3032 3000                move.w     D0, [A2 + D3.w]
00004FA6  0640 005F                addi.w     D0, 0x5F /* '_' */
00004FAA  3580 3002                move.w     [A2 + D3.w + 0x2], D0
00004FAE  604A                     bra        +0x4C /* 00004FFA */
label00004FB0:
00004FB0  0C56 0001                cmpi.w     [A6], 0x1
00004FB4  6644                     bne        +0x46 /* 00004FFA */
00004FB6  6144                     bsr        +0x46 /* 00004FFC */
00004FB8  362C FFFA                move.w     D3, [A4 - 0x6]
00004FBC  3032 3000                move.w     D0, [A2 + D3.w]
00004FC0  5340                     subq.w     D0, 1
00004FC2  3580 3002                move.w     [A2 + D3.w + 0x2], D0
00004FC6  6032                     bra        +0x34 /* 00004FFA */
label00004FC8:
00004FC8  0C56 0009                cmpi.w     [A6], 0x9 /* '\t' */
00004FCC  6614                     bne        +0x16 /* 00004FE2 */
00004FCE  612C                     bsr        +0x2E /* 00004FFC */
00004FD0  362C FFFA                move.w     D3, [A4 - 0x6]
00004FD4  3032 3000                move.w     D0, [A2 + D3.w]
00004FD8  0640 005F                addi.w     D0, 0x5F /* '_' */
00004FDC  3580 3002                move.w     [A2 + D3.w + 0x2], D0
00004FE0  6018                     bra        +0x1A /* 00004FFA */
label00004FE2:
00004FE2  0C56 000C                cmpi.w     [A6], 0xC
00004FE6  6612                     bne        +0x14 /* 00004FFA */
00004FE8  6112                     bsr        +0x14 /* 00004FFC */
00004FEA  362C FFFA                move.w     D3, [A4 - 0x6]
00004FEE  3032 3000                move.w     D0, [A2 + D3.w]
00004FF2  5340                     subq.w     D0, 1
00004FF4  3580 3002                move.w     [A2 + D3.w + 0x2], D0
00004FF8  4E71                     nop
label00004FFA:
00004FFA  4E75                     rts
fn00004FFC:
00004FFC  226D FF7A                movea.l    A1, [A5 - 0x86]
00005000  5049                     addq.w     A1, 8
00005002  2451                     movea.l    A2, [A1]
00005004  4E75                     rts
00005006  48E7 E0D0                movem.l    -[A7], D0,D1,D2,A0,A1,A3
0000500A  2049                     movea.l    A0, A1
0000500C  266D FDDA                movea.l    A3, [A5 - 0x226]
00005010  610C                     bsr        +0xE /* 0000501E */
00005012  266D FDD6                movea.l    A3, [A5 - 0x22A]
00005016  6106                     bsr        +0x8 /* 0000501E */
00005018  4CDF 0B07                movem.l    D0,D1,D2,A0,A1,A3, [A7]+
0000501C  4E75                     rts
fn0000501E:
0000501E  226B 0012                movea.l    A1, [A3 + 0x12]
00005022  202B 0016                move.l     D0, [A3 + 0x16]
00005026  670C                     beq        +0xE /* 00005034 */
00005028  2200                     move.l     D1, D0
0000502A  4840                     swap.w     D0
0000502C  342B 001A                move.w     D2, [A3 + 0x1A]
00005030  4EBA B4C2                jsr        [PC - 0x4B3E /* 000004F4 */]
label00005034:
00005034  276B 0008 0012           move.l     [A3 + 0x12], [A3 + 0x8]
0000503A  276B 000C 0016           move.l     [A3 + 0x16], [A3 + 0xC]
00005040  376B 0010 001A           move.w     [A3 + 0x1A], [A3 + 0x10]
00005046  4E75                     rts
export_99:
00005048  3600                     move.w     D3, D0
0000504A  3801                     move.w     D4, D1
0000504C  2649                     movea.l    A3, A1
0000504E  7012                     moveq.l    D0, 0x12
00005050  A31E                     syscall    NewPtrClear, flags=3
00005052  43FA 0020                lea.l      A1, [PC + 0x20 /* 00005074, value 0x3016322E */]
00005056  2149 0004                move.l     [A0 + 0x4], A1
0000505A  3143 0008                move.w     [A0 + 0x8], D3
0000505E  3144 000A                move.w     [A0 + 0xA], D4
00005062  3142 000C                move.w     [A0 + 0xC], D2
00005066  214B 000E                move.l     [A0 + 0xE], A3
0000506A  20AD FE7E                move.l     [A0], [A5 - 0x182]
0000506E  2B48 FE7E                move.l     [A5 - 0x182], A0
00005072  4E75                     rts
00005074  3016                     move.w     D0, [A6]
00005076  322E 0002                move.w     D1, [A6 + 0x2]
0000507A  342E 0004                move.w     D2, [A6 + 0x4]
0000507E  226E 0006                movea.l    A1, [A6 + 0x6]
00005082  206D FFA8                movea.l    A0, [A5 - 0x58]
00005086  4EBA B298                jsr        [PC - 0x4D68 /* 00000320 */]
0000508A  4E75                     rts
export_100:
fn0000508C:
0000508C  48E7 1F3A                movem.l    -[A7], D3,D4,D5,D6,D7,A2,A3,A4,A6
00005090  082D 0000 FD8A           btst.b     [A5 - 0x276], 0x0
00005096  6704                     beq        +0x6 /* 0000509C */
00005098  4EBA 00B0                jsr        [PC + 0xB0 /* 0000514A */]
label0000509C:
0000509C  082D 0001 FD8A           btst.b     [A5 - 0x276], 0x1
000050A2  6704                     beq        +0x6 /* 000050A8 */
000050A4  4EBA 00F4                jsr        [PC + 0xF4 /* 0000519A */]
label000050A8:
000050A8  082D 0002 FD8A           btst.b     [A5 - 0x276], 0x2
000050AE  6704                     beq        +0x6 /* 000050B4 */
000050B0  4EBA 0048                jsr        [PC + 0x48 /* 000050FA */]
label000050B4:
000050B4  4EBA 0134                jsr        [PC + 0x134 /* 000051EA */]
000050B8  4EBA 0186                jsr        [PC + 0x186 /* 00005240 */]
000050BC  4CDF 5CF8                movem.l    D3,D4,D5,D6,D7,A2,A3,A4,A6, [A7]+
000050C0  4E75                     rts
export_103:
000050C2  01EE                     .incomplete
000050C4  0015 01ED                ori.b      [A5], 0xED
000050C8  FD8A                     .invalid   <<F/6/6>>
000050CA  E540                     asl        D0.w, 2
000050CC  4EFB 0002                jmp        [PC + D0.w + 0x2]
000050D0  4EFA 0078                jmp        [PC + 0x78 /* 0000514A */]
000050D4  4EFA 00C4                jmp        [PC + 0xC4 /* 0000519A */]
000050D8  4EFA 0020                jmp        [PC + 0x20 /* 000050FA */]
000050DC  4E75                     rts
export_102:
fn000050DE:
000050DE  01AE 0015                bclr       [A6 + 0x15], D0
000050E2  01AD FD8A                bclr       [A5 - 0x276], D0
000050E6  E540                     asl        D0.w, 2
000050E8  4EFB 0002                jmp        [PC + D0.w + 0x2]
000050EC  4EFA 0084                jmp        [PC + 0x84 /* 00005172 */]
000050F0  4EFA 00D0                jmp        [PC + 0xD0 /* 000051C2 */]
000050F4  4EFA 002C                jmp        [PC + 0x2C /* 00005122 */]
000050F8  4E75                     rts
fn000050FA:
000050FA  303C 01BE                move.w     D0, 0x1BE
000050FE  323C 013E                move.w     D1, 0x13E
00005102  343C 0001                move.w     D2, 0x1
00005106  226D FE44                movea.l    A1, [A5 - 0x1BC]
0000510A  41ED FFEE                lea.l      A0, [A5 - 0x12]
0000510E  4EBA B0DC                jsr        [PC - 0x4F24 /* 000001EC */]
00005112  4A2D FFAD                tst.b      [A5 - 0x53]
00005116  6708                     beq        +0xA /* 00005120 */
00005118  41ED FFDC                lea.l      A0, [A5 - 0x24]
0000511C  4EBA B0CE                jsr        [PC - 0x4F32 /* 000001EC */]
label00005120:
00005120  4E75                     rts
label00005122:
00005122  303C 01BE                move.w     D0, 0x1BE
00005126  323C 013E                move.w     D1, 0x13E
0000512A  343C 0001                move.w     D2, 0x1
0000512E  226D FE44                movea.l    A1, [A5 - 0x1BC]
00005132  41ED FFEE                lea.l      A0, [A5 - 0x12]
00005136  4EBA B154                jsr        [PC - 0x4EAC /* 0000028C */]
0000513A  4A2D FFAD                tst.b      [A5 - 0x53]
0000513E  6708                     beq        +0xA /* 00005148 */
00005140  41ED FFDC                lea.l      A0, [A5 - 0x24]
00005144  4EBA B146                jsr        [PC - 0x4EBA /* 0000028C */]
label00005148:
00005148  4E75                     rts
fn0000514A:
0000514A  303C 01D3                move.w     D0, 0x1D3
0000514E  323C 013E                move.w     D1, 0x13E
00005152  343C 0002                move.w     D2, 0x2
00005156  226D FE44                movea.l    A1, [A5 - 0x1BC]
0000515A  41ED FFEE                lea.l      A0, [A5 - 0x12]
0000515E  4EBA B08C                jsr        [PC - 0x4F74 /* 000001EC */]
00005162  4A2D FFAD                tst.b      [A5 - 0x53]
00005166  6708                     beq        +0xA /* 00005170 */
00005168  41ED FFDC                lea.l      A0, [A5 - 0x24]
0000516C  4EBA B07E                jsr        [PC - 0x4F82 /* 000001EC */]
label00005170:
00005170  4E75                     rts
label00005172:
00005172  303C 01D3                move.w     D0, 0x1D3
00005176  323C 013E                move.w     D1, 0x13E
0000517A  343C 0002                move.w     D2, 0x2
0000517E  226D FE44                movea.l    A1, [A5 - 0x1BC]
00005182  41ED FFEE                lea.l      A0, [A5 - 0x12]
00005186  4EBA B104                jsr        [PC - 0x4EFC /* 0000028C */]
0000518A  4A2D FFAD                tst.b      [A5 - 0x53]
0000518E  6708                     beq        +0xA /* 00005198 */
00005190  41ED FFDC                lea.l      A0, [A5 - 0x24]
00005194  4EBA B0F6                jsr        [PC - 0x4F0A /* 0000028C */]
label00005198:
00005198  4E75                     rts
fn0000519A:
0000519A  303C 01EB                move.w     D0, 0x1EB
0000519E  323C 013E                move.w     D1, 0x13E
000051A2  343C 0003                move.w     D2, 0x3
000051A6  226D FE44                movea.l    A1, [A5 - 0x1BC]
000051AA  41ED FFEE                lea.l      A0, [A5 - 0x12]
000051AE  4EBA B03C                jsr        [PC - 0x4FC4 /* 000001EC */]
000051B2  4A2D FFAD                tst.b      [A5 - 0x53]
000051B6  6708                     beq        +0xA /* 000051C0 */
000051B8  41ED FFDC                lea.l      A0, [A5 - 0x24]
000051BC  4EBA B02E                jsr        [PC - 0x4FD2 /* 000001EC */]
label000051C0:
000051C0  4E75                     rts
label000051C2:
000051C2  303C 01EB                move.w     D0, 0x1EB
000051C6  323C 013E                move.w     D1, 0x13E
000051CA  343C 0003                move.w     D2, 0x3
000051CE  226D FE44                movea.l    A1, [A5 - 0x1BC]
000051D2  41ED FFEE                lea.l      A0, [A5 - 0x12]
000051D6  4EBA B0B4                jsr        [PC - 0x4F4C /* 0000028C */]
000051DA  4A2D FFAD                tst.b      [A5 - 0x53]
000051DE  6708                     beq        +0xA /* 000051E8 */
000051E0  41ED FFDC                lea.l      A0, [A5 - 0x24]
000051E4  4EBA B0A6                jsr        [PC - 0x4F5A /* 0000028C */]
label000051E8:
000051E8  4E75                     rts
fn000051EA:
000051EA  303C 0152                move.w     D0, 0x152
000051EE  323C 0140                move.w     D1, 0x140
000051F2  343C 0005                move.w     D2, 0x5
000051F6  226D FE44                movea.l    A1, [A5 - 0x1BC]
000051FA  3A2D FDCC                move.w     D5, [A5 - 0x234]
000051FE  5345                     subq.w     D5, 1
00005200  3C3C 0005                move.w     D6, 0x5
00005204  6034                     bra        +0x36 /* 0000523A */
label00005206:
00005206  5E40                     addq.w     D0, 7
00005208  5345                     subq.w     D5, 1
0000520A  6D18                     blt        +0x1A /* 00005224 */
0000520C  41ED FFEE                lea.l      A0, [A5 - 0x12]
00005210  4EBA AFDA                jsr        [PC - 0x5026 /* 000001EC */]
00005214  4A2D FFAD                tst.b      [A5 - 0x53]
00005218  6720                     beq        +0x22 /* 0000523A */
0000521A  41ED FFDC                lea.l      A0, [A5 - 0x24]
0000521E  4EBA AFCC                jsr        [PC - 0x5034 /* 000001EC */]
00005222  6016                     bra        +0x18 /* 0000523A */
label00005224:
00005224  41ED FFEE                lea.l      A0, [A5 - 0x12]
00005228  4EBA B062                jsr        [PC - 0x4F9E /* 0000028C */]
0000522C  4A2D FFAD                tst.b      [A5 - 0x53]
00005230  6708                     beq        +0xA /* 0000523A */
00005232  41ED FFDC                lea.l      A0, [A5 - 0x24]
00005236  4EBA B054                jsr        [PC - 0x4FAC /* 0000028C */]
label0000523A:
0000523A  51CE FFCA                dbf        D6, -0x38 /* 00005206 */
0000523E  4E75                     rts
export_101:
fn00005240:
00005240  48E7 E6C0                movem.l    -[A7], D0,D1,D2,D5,D6,A0,A1
00005244  303C 0180                move.w     D0, 0x180
00005248  323C 0140                move.w     D1, 0x140
0000524C  343C 0007                move.w     D2, 0x7
00005250  226D FE44                movea.l    A1, [A5 - 0x1BC]
00005254  3A2D FCC4                move.w     D5, [A5 - 0x33C]
00005258  3C3C 0006                move.w     D6, 0x6
0000525C  6034                     bra        +0x36 /* 00005292 */
label0000525E:
0000525E  5E40                     addq.w     D0, 7
00005260  5345                     subq.w     D5, 1
00005262  6D18                     blt        +0x1A /* 0000527C */
00005264  41ED FFEE                lea.l      A0, [A5 - 0x12]
00005268  4EBA AF82                jsr        [PC - 0x507E /* 000001EC */]
0000526C  4A2D FFAD                tst.b      [A5 - 0x53]
00005270  6720                     beq        +0x22 /* 00005292 */
00005272  41ED FFDC                lea.l      A0, [A5 - 0x24]
00005276  4EBA AF74                jsr        [PC - 0x508C /* 000001EC */]
0000527A  6016                     bra        +0x18 /* 00005292 */
label0000527C:
0000527C  41ED FFEE                lea.l      A0, [A5 - 0x12]
00005280  4EBA B00A                jsr        [PC - 0x4FF6 /* 0000028C */]
00005284  4A2D FFAD                tst.b      [A5 - 0x53]
00005288  6708                     beq        +0xA /* 00005292 */
0000528A  41ED FFDC                lea.l      A0, [A5 - 0x24]
0000528E  4EBA AFFC                jsr        [PC - 0x5004 /* 0000028C */]
label00005292:
00005292  51CE FFCA                dbf        D6, -0x38 /* 0000525E */
00005296  4CDF 0367                movem.l    D0,D1,D2,D5,D6,A0,A1, [A7]+
0000529A  4E75                     rts
export_104:
0000529C  2848                     movea.l    A4, A0
0000529E  3C00                     move.w     D6, D0
000052A0  3E01                     move.w     D7, D1
000052A2  7018                     moveq.l    D0, 0x18
000052A4  A31E                     syscall    NewPtrClear, flags=3
000052A6  43FA 0052                lea.l      A1, [PC + 0x52 /* 000052FA, value 0x3E2E0004, cstring ">." */]
000052AA  2149 0004                move.l     [A0 + 0x4], A1
000052AE  214C 0008                move.l     [A0 + 0x8], A4
000052B2  3A34 1000                move.w     D5, [A4 + D1.w]
000052B6  4EBA 09B0                jsr        [PC + 0x9B0 /* 00005C68 */]
000052BA  5345                     subq.w     D5, 1
000052BC  4268 000C                clr.w      [A0 + 0xC]
000052C0  47E8 000E                lea.l      A3, [A0 + 0xE]
000052C4  45F4 7002                lea.l      A2, [A4 + D7.w + 0x2]
label000052C8:
000052C8  3200                     move.w     D1, D0
000052CA  E640                     asr        D0.w, 3
000052CC  0241 0007                andi.w     D1, 0x7
000052D0  BC41                     cmp.w      D6, D1
000052D2  6D10                     blt        +0x12 /* 000052E4 */
000052D4  361A                     move.w     D3, [A2]+
000052D6  36C3                     move.w     [A3]+, D3
000052D8  39BC 001A 3004           move.w     [A4 + D3.w + 0x4], 0x1A
000052DE  5268 000C                addq.w     [A0 + 0xC], 1
000052E2  6008                     bra        +0xA /* 000052EC */
label000052E4:
000052E4  361A                     move.w     D3, [A2]+
000052E6  39BC 0001 3004           move.w     [A4 + D3.w + 0x4], 0x1
label000052EC:
000052EC  51CD FFDA                dbf        D5, -0x28 /* 000052C8 */
000052F0  20AD FE7E                move.l     [A0], [A5 - 0x182]
000052F4  2B48 FE7E                move.l     [A5 - 0x182], A0
000052F8  4E75                     rts
000052FA  3E2E 0004                move.w     D7, [A6 + 0x4]
000052FE  6740                     beq        +0x42 /* 00005340 */
00005300  2456                     movea.l    A2, [A6]
00005302  49EE 0006                lea.l      A4, [A6 + 0x6]
00005306  4246                     clr.w      D6
00005308  602C                     bra        +0x2E /* 00005336 */
label0000530A:
0000530A  361C                     move.w     D3, [A4]+
0000530C  0C72 001A 3004           cmpi.w     [A2 + D3.w + 0x4], 0x1A
00005312  6622                     bne        +0x24 /* 00005336 */
00005314  3032 3000                move.w     D0, [A2 + D3.w]
00005318  3232 3006                move.w     D1, [A2 + D3.w + 0x6]
0000531C  0640 000C                addi.w     D0, 0xC
00005320  0641 001C                addi.w     D1, 0x1C
00005324  343C 0004                move.w     D2, 0x4
00005328  226D FE44                movea.l    A1, [A5 - 0x1BC]
0000532C  206D FFA8                movea.l    A0, [A5 - 0x58]
00005330  4EBA ACCE                jsr        [PC - 0x5332 /* 00000000 */]
00005334  5246                     addq.w     D6, 1
label00005336:
00005336  51CF FFD2                dbf        D7, -0x30 /* 0000530A */
0000533A  4A46                     tst.w      D6
0000533C  6702                     beq        +0x4 /* 00005340 */
label0000533E:
0000533E  4E75                     rts
label00005340:
00005340  42AE FFFC                clr.l      [A6 - 0x4]
00005344  60F8                     bra        -0x6 /* 0000533E */
export_105:
00005346  7008                     moveq.l    D0, 0x08
00005348  A31E                     syscall    NewPtrClear, flags=3
0000534A  43FA 0016                lea.l      A1, [PC + 0x16 /* 00005362, value 0x4A6DFD38 */]
0000534E  2149 0004                move.l     [A0 + 0x4], A1
00005352  20AD FE7E                move.l     [A0], [A5 - 0x182]
00005356  2B48 FE7E                move.l     [A5 - 0x182], A0
0000535A  3B7C 0002 FD38           move.w     [A5 - 0x2C8], 0x2
00005360  4E75                     rts
00005362  4A6D FD38                tst.w      [A5 - 0x2C8]
00005366  673A                     beq        +0x3C /* 000053A2 */
00005368  0C6D 0001 FD38           cmpi.w     [A5 - 0x2C8], 0x1
0000536E  672E                     beq        +0x30 /* 0000539E */
00005370  102D FD3E                move.b     D0, [A5 - 0x2C2]
00005374  4880                     ext.w      D0
00005376  48C0                     ext.l      D0
00005378  7401                     moveq.l    D2, 0x01
0000537A  41ED FD3A                lea.l      A0, [A5 - 0x2C6]
0000537E  10FC 0002                move.b     [A0]+, 0x2
00005382  10FC 00CA                move.b     [A0]+, 0xCA
00005386  10FC 0030                move.b     [A0]+, 0x30 /* '0' */
label0000538A:
0000538A  2200                     move.l     D1, D0
0000538C  6710                     beq        +0x12 /* 0000539E */
0000538E  E888                     lsr        D0, 4
00005390  0241 000F                andi.w     D1, 0xF
00005394  0641 0030                addi.w     D1, 0x30 /* '0' */
00005398  1101                     move.b     -[A0], D1
0000539A  51CA FFEE                dbf        D2, -0x14 /* 0000538A */
label0000539E:
0000539E  4EAD 01AA                jsr        [A5 + 0x1AA /* export_49, CODE:1 @ 0000193A */]
label000053A2:
000053A2  4E75                     rts
export_106:
000053A4  2848                     movea.l    A4, A0
000053A6  3C00                     move.w     D6, D0
000053A8  3E01                     move.w     D7, D1
000053AA  7018                     moveq.l    D0, 0x18
000053AC  A31E                     syscall    NewPtrClear, flags=3
000053AE  43FA 0058                lea.l      A1, [PC + 0x58 /* 00005408, value 0x3E2E0004, cstring ">." */]
000053B2  2149 0004                move.l     [A0 + 0x4], A1
000053B6  214C 0008                move.l     [A0 + 0x8], A4
000053BA  3A34 1000                move.w     D5, [A4 + D1.w]
000053BE  4EBA 08A8                jsr        [PC + 0x8A8 /* 00005C68 */]
000053C2  5345                     subq.w     D5, 1
000053C4  4268 000C                clr.w      [A0 + 0xC]
000053C8  47E8 000E                lea.l      A3, [A0 + 0xE]
000053CC  45F4 7002                lea.l      A2, [A4 + D7.w + 0x2]
label000053D0:
000053D0  3200                     move.w     D1, D0
000053D2  E640                     asr        D0.w, 3
000053D4  0241 0007                andi.w     D1, 0x7
000053D8  BC41                     cmp.w      D6, D1
000053DA  6D10                     blt        +0x12 /* 000053EC */
000053DC  361A                     move.w     D3, [A2]+
000053DE  36C3                     move.w     [A3]+, D3
000053E0  39BC 0020 3004           move.w     [A4 + D3.w + 0x4], 0x20 /* ' ' */
000053E6  5268 000C                addq.w     [A0 + 0xC], 1
000053EA  6008                     bra        +0xA /* 000053F4 */
label000053EC:
000053EC  361A                     move.w     D3, [A2]+
000053EE  39BC 0001 3004           move.w     [A4 + D3.w + 0x4], 0x1
label000053F4:
000053F4  51CD FFDA                dbf        D5, -0x28 /* 000053D0 */
000053F8  4A68 000C                tst.w      [A0 + 0xC]
000053FC  6708                     beq        +0xA /* 00005406 */
000053FE  20AD FE7E                move.l     [A0], [A5 - 0x182]
00005402  2B48 FE7E                move.l     [A5 - 0x182], A0
label00005406:
00005406  4E75                     rts
00005408  3E2E 0004                move.w     D7, [A6 + 0x4]
0000540C  6740                     beq        +0x42 /* 0000544E */
0000540E  2456                     movea.l    A2, [A6]
00005410  49EE 0006                lea.l      A4, [A6 + 0x6]
00005414  4246                     clr.w      D6
00005416  602C                     bra        +0x2E /* 00005444 */
label00005418:
00005418  361C                     move.w     D3, [A4]+
0000541A  0C72 0020 3004           cmpi.w     [A2 + D3.w + 0x4], 0x20 /* ' ' */
00005420  6622                     bne        +0x24 /* 00005444 */
00005422  3032 3000                move.w     D0, [A2 + D3.w]
00005426  3232 3006                move.w     D1, [A2 + D3.w + 0x6]
0000542A  0640 000C                addi.w     D0, 0xC
0000542E  0641 001C                addi.w     D1, 0x1C
00005432  343C 0006                move.w     D2, 0x6
00005436  226D FE44                movea.l    A1, [A5 - 0x1BC]
0000543A  206D FFA8                movea.l    A0, [A5 - 0x58]
0000543E  4EBA ABC0                jsr        [PC - 0x5440 /* 00000000 */]
00005442  5246                     addq.w     D6, 1
label00005444:
00005444  51CF FFD2                dbf        D7, -0x30 /* 00005418 */
00005448  4A46                     tst.w      D6
0000544A  6702                     beq        +0x4 /* 0000544E */
label0000544C:
0000544C  4E75                     rts
label0000544E:
0000544E  42AE FFFC                clr.l      [A6 - 0x4]
00005452  60F8                     bra        -0x6 /* 0000544C */
export_107:
00005454  3E00                     move.w     D7, D0
00005456  7012                     moveq.l    D0, 0x12
00005458  A31E                     syscall    NewPtrClear, flags=3
0000545A  43FA 0028                lea.l      A1, [PC + 0x28 /* 00005484, value 0x302E0002, cstring "0." */]
0000545E  2149 0004                move.l     [A0 + 0x4], A1
00005462  4268 0008                clr.w      [A0 + 0x8]
00005466  3147 000E                move.w     [A0 + 0xE], D7
0000546A  3147 000C                move.w     [A0 + 0xC], D7
0000546E  3142 000A                move.w     [A0 + 0xA], D2
00005472  3141 0010                move.w     [A0 + 0x10], D1
00005476  2B48 FD8E                move.l     [A5 - 0x272], A0
0000547A  20AD FE7E                move.l     [A0], [A5 - 0x182]
0000547E  2B48 FE7E                move.l     [A5 - 0x182], A0
00005482  4E75                     rts
00005484  302E 0002                move.w     D0, [A6 + 0x2]
00005488  3E16                     move.w     D7, [A6]
0000548A  E547                     asl        D7.w, 2
0000548C  4EFB 7002                jmp        [PC + D7.w + 0x2]
00005490  4EFA 000E                jmp        [PC + 0xE /* 000054A0 */]
00005494  4EFA 0068                jmp        [PC + 0x68 /* 000054FE */]
00005498  4EFA 0138                jmp        [PC + 0x138 /* 000055D2 */]
0000549C  4EFA 01E6                jmp        [PC + 0x1E6 /* 00005684 */]
label000054A0:
000054A0  536E 0006                subq.w     [A6 + 0x6], 1
000054A4  6E14                     bgt        +0x16 /* 000054BA */
000054A6  3CBC 0001                move.w     [A6], 0x1
000054AA  426E 0006                clr.w      [A6 + 0x6]
000054AE  3F00                     move.w     -[A7], D0
000054B0  303C 0022                move.w     D0, 0x22 /* '\"' */
000054B4  4EAD 0052                jsr        [A5 + 0x52 /* export_6, CODE:1 @ 00000114 */]
000054B8  301F                     move.w     D0, [A7]+
label000054BA:
000054BA  D06E 0008                add.w      D0, [A6 + 0x8]
000054BE  0C40 0032                cmpi.w     D0, 0x32 /* '2' */
000054C2  6E06                     bgt        +0x8 /* 000054CA */
000054C4  446E 0008                neg.w      [A6 + 0x8]
000054C8  600A                     bra        +0xC /* 000054D4 */
label000054CA:
000054CA  0C40 015E                cmpi.w     D0, 0x15E
000054CE  6D04                     blt        +0x6 /* 000054D4 */
000054D0  446E 0008                neg.w      [A6 + 0x8]
label000054D4:
000054D4  4241                     clr.w      D1
000054D6  4242                     clr.w      D2
000054D8  206D FFA8                movea.l    A0, [A5 - 0x58]
000054DC  226D FD28                movea.l    A1, [A5 - 0x2D8]
000054E0  3D40 0002                move.w     [A6 + 0x2], D0
000054E4  4EBA AB1A                jsr        [PC - 0x54E6 /* 00000000 */]
000054E8  226D FF7A                movea.l    A1, [A5 - 0x86]
000054EC  5049                     addq.w     A1, 8
000054EE  0C69 0024 0012           cmpi.w     [A1 + 0x12], 0x24 /* '$' */
000054F4  6604                     bne        +0x6 /* 000054FA */
000054F6  3CBC 0002                move.w     [A6], 0x2
label000054FA:
000054FA  6000 0238                bra        +0x23A /* 00005734 */
label000054FE:
000054FE  206D FFA8                movea.l    A0, [A5 - 0x58]
00005502  4241                     clr.w      D1
00005504  382E 0006                move.w     D4, [A6 + 0x6]
00005508  45FA 00B0                lea.l      A2, [PC + 0xB0 /* 000055BA, value 0x100FFFF */]
0000550C  D4C4                     add.w      A2, D4
0000550E  141A                     move.b     D2, [A2]+
00005510  4882                     ext.w      D2
00005512  226D FD28                movea.l    A1, [A5 - 0x2D8]
00005516  4EBA AAE8                jsr        [PC - 0x5518 /* 00000000 */]
0000551A  141A                     move.b     D2, [A2]+
0000551C  6D16                     blt        +0x18 /* 00005534 */
0000551E  4882                     ext.w      D2
00005520  226D FD2C                movea.l    A1, [A5 - 0x2D4]
00005524  323C 000E                move.w     D1, 0xE
00005528  0640 0014                addi.w     D0, 0x14
0000552C  4EBA AAD2                jsr        [PC - 0x552E /* 00000000 */]
00005530  0440 0014                subi.w     D0, 0x14
label00005534:
00005534  141A                     move.b     D2, [A2]+
00005536  6D16                     blt        +0x18 /* 0000554E */
00005538  4882                     ext.w      D2
0000553A  226D FD30                movea.l    A1, [A5 - 0x2D0]
0000553E  323C 000E                move.w     D1, 0xE
00005542  0640 000F                addi.w     D0, 0xF
00005546  4EBA AAB8                jsr        [PC - 0x5548 /* 00000000 */]
0000554A  0440 000F                subi.w     D0, 0xF
label0000554E:
0000554E  141A                     move.b     D2, [A2]+
00005550  6D16                     blt        +0x18 /* 00005568 */
00005552  4882                     ext.w      D2
00005554  226D FD24                movea.l    A1, [A5 - 0x2DC]
00005558  323C 0047                move.w     D1, 0x47 /* 'G' */
0000555C  0640 001E                addi.w     D0, 0x1E
00005560  4EBA AA9E                jsr        [PC - 0x5562 /* 00000000 */]
00005564  0440 001E                subi.w     D0, 0x1E
label00005568:
00005568  5844                     addq.w     D4, 4
0000556A  3D44 0006                move.w     [A6 + 0x6], D4
0000556E  0C44 0008                cmpi.w     D4, 0x8
00005572  6632                     bne        +0x34 /* 000055A6 */
00005574  226D FF7A                movea.l    A1, [A5 - 0x86]
00005578  5049                     addq.w     A1, 8
0000557A  0C69 000D 0012           cmpi.w     [A1 + 0x12], 0xD /* '\r' */
00005580  6724                     beq        +0x26 /* 000055A6 */
00005582  3229 000E                move.w     D1, [A1 + 0xE]
00005586  0C41 0045                cmpi.w     D1, 0x45 /* 'E' */
0000558A  6E1A                     bgt        +0x1C /* 000055A6 */
0000558C  3E29 000C                move.w     D7, [A1 + 0xC]
00005590  0447 0028                subi.w     D7, 0x28 /* '(' */
00005594  BE40                     cmp.w      D7, D0
00005596  6E0E                     bgt        +0x10 /* 000055A6 */
00005598  0647 0032                addi.w     D7, 0x32 /* '2' */
0000559C  BE40                     cmp.w      D7, D0
0000559E  6D06                     blt        +0x8 /* 000055A6 */
000055A0  337C 0027 0012           move.w     [A1 + 0x12], 0x27 /* '\'' */
label000055A6:
000055A6  3E3B 4012                move.w     D7, [PC + D4.w + 0x12]
000055AA  6E00 0188                bgt        +0x18A /* 00005734 */
000055AE  4256                     clr.w      [A6]
000055B0  3D6E 0004 0006           move.w     [A6 + 0x6], [A6 + 0x4]
000055B6  6000 017C                bra        +0x17E /* 00005734 */
000055BA  0100                     btst       D0, D0
000055BC  FFFF                     .invalid   <<F/7/7>>
000055BE  02FF                     .incomplete
000055C0  00FF                     .incomplete
000055C2  0100                     btst       D0, D0
000055C4  FFFF                     .invalid   <<F/7/7>>
000055C6  02FF                     .incomplete
000055C8  0000 02FF                ori.b      D0, 0xFF
000055CC  00FF                     .incomplete
000055CE  FF00                     .extension 0xF00 <<F/4-5/7>> // unimplemented
000055D0  0000 226D                ori.b      D0, 0x6D /* 'm' */
// begin alternate branch 000055D2-000055D6
label000055D2:
000055D2  226D FF7A                movea.l    A1, [A5 - 0x86]
// end alternate branch 000055D2-000055D6
label000055D2: // (misaligned)
000055D4  FF7A                     .extension 0xF7A <<F/4-5/7>> // unimplemented
000055D6  5049                     addq.w     A1, 8
000055D8  0C69 0024 0012           cmpi.w     [A1 + 0x12], 0x24 /* '$' */
000055DE  6706                     beq        +0x8 /* 000055E6 */
000055E0  4256                     clr.w      [A6]
000055E2  6000 FEBC                bra        -0x142 /* 000054A0 */
label000055E6:
000055E6  0C69 000C 002C           cmpi.w     [A1 + 0x2C], 0xC
000055EC  674E                     beq        +0x50 /* 0000563C */
000055EE  0C69 0010 002C           cmpi.w     [A1 + 0x2C], 0x10
000055F4  673C                     beq        +0x3E /* 00005632 */
000055F6  0C69 0014 002C           cmpi.w     [A1 + 0x2C], 0x14
000055FC  6734                     beq        +0x36 /* 00005632 */
000055FE  0C69 0018 002C           cmpi.w     [A1 + 0x2C], 0x18
00005604  672C                     beq        +0x2E /* 00005632 */
00005606  3E29 000C                move.w     D7, [A1 + 0xC]
0000560A  0447 0028                subi.w     D7, 0x28 /* '(' */
0000560E  BE40                     cmp.w      D7, D0
00005610  6E20                     bgt        +0x22 /* 00005632 */
00005612  0647 0032                addi.w     D7, 0x32 /* '2' */
00005616  BE40                     cmp.w      D7, D0
00005618  6D18                     blt        +0x1A /* 00005632 */
0000561A  3CBC 0001                move.w     [A6], 0x1
0000561E  426E 0006                clr.w      [A6 + 0x6]
00005622  3F00                     move.w     -[A7], D0
00005624  303C 0022                move.w     D0, 0x22 /* '\"' */
00005628  4EAD 0052                jsr        [A5 + 0x52 /* export_6, CODE:1 @ 00000114 */]
0000562C  301F                     move.w     D0, [A7]+
0000562E  6000 FECE                bra        -0x130 /* 000054FE */
label00005632:
00005632  3D7C 0032 0006           move.w     [A6 + 0x6], 0x32 /* '2' */
00005638  6000 FE66                bra        -0x198 /* 000054A0 */
label0000563C:
0000563C  3E29 000C                move.w     D7, [A1 + 0xC]
00005640  0447 001E                subi.w     D7, 0x1E
00005644  BE40                     cmp.w      D7, D0
00005646  6E32                     bgt        +0x34 /* 0000567A */
00005648  0647 0032                addi.w     D7, 0x32 /* '2' */
0000564C  BE40                     cmp.w      D7, D0
0000564E  6D2A                     blt        +0x2C /* 0000567A */
00005650  3CBC 0003                move.w     [A6], 0x3
00005654  426E 0006                clr.w      [A6 + 0x6]
00005658  3F00                     move.w     -[A7], D0
0000565A  303C 0022                move.w     D0, 0x22 /* '\"' */
0000565E  4EAD 0052                jsr        [A5 + 0x52 /* export_6, CODE:1 @ 00000114 */]
00005662  301F                     move.w     D0, [A7]+
00005664  226D FF7A                movea.l    A1, [A5 - 0x86]
00005668  5049                     addq.w     A1, 8
0000566A  337C 0010 002C           move.w     [A1 + 0x2C], 0x10
00005670  337C 0006 002E           move.w     [A1 + 0x2E], 0x6
00005676  6000 000C                bra        +0xE /* 00005684 */
label0000567A:
0000567A  3D7C 0032 0006           move.w     [A6 + 0x6], 0x32 /* '2' */
00005680  6000 FE1E                bra        -0x1E0 /* 000054A0 */
label00005684:
00005684  206D FFA8                movea.l    A0, [A5 - 0x58]
00005688  4241                     clr.w      D1
0000568A  382E 0006                move.w     D4, [A6 + 0x6]
0000568E  45FA 0074                lea.l      A2, [PC + 0x74 /* 00005704, value 0x100FFFF */]
00005692  D4C4                     add.w      A2, D4
00005694  141A                     move.b     D2, [A2]+
00005696  4882                     ext.w      D2
00005698  226D FD28                movea.l    A1, [A5 - 0x2D8]
0000569C  4EBA A962                jsr        [PC - 0x569E /* 00000000 */]
000056A0  141A                     move.b     D2, [A2]+
000056A2  6D16                     blt        +0x18 /* 000056BA */
000056A4  4882                     ext.w      D2
000056A6  226D FD2C                movea.l    A1, [A5 - 0x2D4]
000056AA  323C 000E                move.w     D1, 0xE
000056AE  0640 0014                addi.w     D0, 0x14
000056B2  4EBA A94C                jsr        [PC - 0x56B4 /* 00000000 */]
000056B6  0440 0014                subi.w     D0, 0x14
label000056BA:
000056BA  141A                     move.b     D2, [A2]+
000056BC  6D16                     blt        +0x18 /* 000056D4 */
000056BE  4882                     ext.w      D2
000056C0  226D FD30                movea.l    A1, [A5 - 0x2D0]
000056C4  323C 000E                move.w     D1, 0xE
000056C8  0640 000F                addi.w     D0, 0xF
000056CC  4EBA A932                jsr        [PC - 0x56CE /* 00000000 */]
000056D0  0440 000F                subi.w     D0, 0xF
label000056D4:
000056D4  141A                     move.b     D2, [A2]+
000056D6  6D16                     blt        +0x18 /* 000056EE */
000056D8  4882                     ext.w      D2
000056DA  226D FD24                movea.l    A1, [A5 - 0x2DC]
000056DE  323C 0047                move.w     D1, 0x47 /* 'G' */
000056E2  0640 001E                addi.w     D0, 0x1E
000056E6  4EBA A918                jsr        [PC - 0x56E8 /* 00000000 */]
000056EA  0440 001E                subi.w     D0, 0x1E
label000056EE:
000056EE  5844                     addq.w     D4, 4
000056F0  3D44 0006                move.w     [A6 + 0x6], D4
000056F4  3E3B 400E                move.w     D7, [PC + D4.w + 0xE]
000056F8  6E00 003A                bgt        +0x3C /* 00005734 */
000056FC  3CBC 0002                move.w     [A6], 0x2
00005700  6000 0032                bra        +0x34 /* 00005734 */
00005704  0100                     btst       D0, D0
00005706  FFFF                     .invalid   <<F/7/7>>
00005708  00FF                     .incomplete
0000570A  FFFF                     .invalid   <<F/7/7>>
0000570C  0100                     btst       D0, D0
0000570E  FFFF                     .invalid   <<F/7/7>>
00005710  00FF                     .incomplete
00005712  FFFF                     .invalid   <<F/7/7>>
00005714  0100                     btst       D0, D0
00005716  FFFF                     .invalid   <<F/7/7>>
00005718  00FF                     .incomplete
0000571A  FFFF                     .invalid   <<F/7/7>>
0000571C  0100                     btst       D0, D0
0000571E  FFFF                     .invalid   <<F/7/7>>
00005720  02FF                     .incomplete
00005722  00FF                     .incomplete
00005724  0100                     btst       D0, D0
00005726  FFFF                     .invalid   <<F/7/7>>
00005728  02FF                     .incomplete
0000572A  0000 02FF                ori.b      D0, 0xFF
0000572E  00FF                     .incomplete
00005730  FF00                     .extension 0xF00 <<F/4-5/7>> // unimplemented
00005732  0000 4E75                ori.b      D0, 0x75 /* 'u' */
// begin alternate branch 00005734-00005736
label00005734:
00005734  4E75                     rts
// end alternate branch 00005734-00005736
export_108:
label00005734: // (misaligned)
00005736  700A                     moveq.l    D0, 0x0A
00005738  A31E                     syscall    NewPtrClear, flags=3
0000573A  43FA 0016                lea.l      A1, [PC + 0x16 /* 00005752, value 0x4242226D 'BB\"m' */]
0000573E  2149 0004                move.l     [A0 + 0x4], A1
00005742  317C 001E 0008           move.w     [A0 + 0x8], 0x1E
00005748  20AD FE7E                move.l     [A0], [A5 - 0x182]
0000574C  2B48 FE7E                move.l     [A5 - 0x182], A0
00005750  4E75                     rts
00005752  4242                     clr.w      D2
00005754  226D FCEA                movea.l    A1, [A5 - 0x316]
00005758  5356                     subq.w     [A6], 1
0000575A  6F10                     ble        +0x12 /* 0000576C */
0000575C  4240                     clr.w      D0
0000575E  323C 0130                move.w     D1, 0x130
00005762  206D FFA8                movea.l    A0, [A5 - 0x58]
00005766  4EBA A898                jsr        [PC - 0x5768 /* 00000000 */]
0000576A  600C                     bra        +0xE /* 00005778 */
label0000576C:
0000576C  303C 0001                move.w     D0, 0x1
00005770  4EAD 0432                jsr        [A5 + 0x432 /* export_130, CODE:5 @ 0000436A */]
00005774  42AE FFFC                clr.l      [A6 - 0x4]
label00005778:
00005778  4E75                     rts
export_109:
0000577A  700A                     moveq.l    D0, 0x0A
0000577C  A31E                     syscall    NewPtrClear, flags=3
0000577E  43FA 0016                lea.l      A1, [PC + 0x16 /* 00005796, value 0x4242226D 'BB\"m' */]
00005782  2149 0004                move.l     [A0 + 0x4], A1
00005786  317C 001E 0008           move.w     [A0 + 0x8], 0x1E
0000578C  20AD FE7E                move.l     [A0], [A5 - 0x182]
00005790  2B48 FE7E                move.l     [A5 - 0x182], A0
00005794  4E75                     rts
00005796  4242                     clr.w      D2
00005798  226D FCEA                movea.l    A1, [A5 - 0x316]
0000579C  5356                     subq.w     [A6], 1
0000579E  6F12                     ble        +0x14 /* 000057B2 */
000057A0  303C 00F9                move.w     D0, 0xF9
000057A4  323C 012F                move.w     D1, 0x12F
000057A8  206D FFA8                movea.l    A0, [A5 - 0x58]
000057AC  4EBA A852                jsr        [PC - 0x57AE /* 00000000 */]
000057B0  600C                     bra        +0xE /* 000057BE */
label000057B2:
000057B2  303C 0001                move.w     D0, 0x1
000057B6  4EAD 043A                jsr        [A5 + 0x43A /* export_131, CODE:5 @ 000046EE */]
000057BA  42AE FFFC                clr.l      [A6 - 0x4]
label000057BE:
000057BE  4E75                     rts
export_110:
000057C0  4E56 0000                link       A6, 0
000057C4  48E7 3C20                movem.l    -[A7], D2,D3,D4,D5,A2
000057C8  3A2E 0008                move.w     D5, [A6 + 0x8]
000057CC  302E 000A                move.w     D0, [A6 + 0xA]
000057D0  226E 000C                movea.l    A1, [A6 + 0xC]
000057D4  206E 0010                movea.l    A0, [A6 + 0x10]
000057D8  E245                     asr        D5.w, 1
000057DA  2449                     movea.l    A2, A1
label000057DC:
000057DC  425A                     clr.w      [A2]+
000057DE  51CD FFFC                dbf        D5, -0x6 /* 000057DC */
000057E2  323C 0007                move.w     D1, 0x7
label000057E6:
000057E6  1418                     move.b     D2, [A0]+
000057E8  6A64                     bpl        +0x66 /* 0000584E */
000057EA  0242 007F                andi.w     D2, 0x7F
000057EE  6604                     bne        +0x6 /* 000057F4 */
000057F0  6000 007A                bra        +0x7C /* 0000586C */
label000057F4:
000057F4  0802 0006                btst.b     D2, 0x6
000057F8  6736                     beq        +0x38 /* 00005830 */
000057FA  0242 003F                andi.w     D2, 0x3F /* '?' */
000057FE  5E42                     addq.w     D2, 7
00005800  9441                     sub.w      D2, D1
00005802  5342                     subq.w     D2, 1
00005804  76FF                     moveq.l    D3, 0xFFFFFFFF
00005806  7807                     moveq.l    D4, 0x07
00005808  9841                     sub.w      D4, D1
0000580A  E82B                     lsr        D3.b, D4
0000580C  8719                     or.b       [A1]+, D3
0000580E  3602                     move.w     D3, D2
00005810  E643                     asr        D3.w, 3
00005812  6004                     bra        +0x6 /* 00005818 */
label00005814:
00005814  12FC 00FF                move.b     [A1]+, 0xFF
label00005818:
00005818  51CB FFFA                dbf        D3, -0x8 /* 00005814 */
0000581C  323C 0007                move.w     D1, 0x7
00005820  0242 0007                andi.w     D2, 0x7
00005824  363C FF00                move.w     D3, 0xFF00
00005828  E463                     asr        D3.w, D2
0000582A  8711                     or.b       [A1], D3
0000582C  9242                     sub.w      D1, D2
0000582E  60B6                     bra        -0x48 /* 000057E6 */
label00005830:
00005830  0242 003F                andi.w     D2, 0x3F /* '?' */
00005834  5E42                     addq.w     D2, 7
00005836  9441                     sub.w      D2, D1
00005838  5342                     subq.w     D2, 1
0000583A  5249                     addq.w     A1, 1
0000583C  3602                     move.w     D3, D2
0000583E  E643                     asr        D3.w, 3
00005840  D2C3                     add.w      A1, D3
00005842  323C 0007                move.w     D1, 0x7
00005846  0242 0007                andi.w     D2, 0x7
0000584A  9242                     sub.w      D1, D2
0000584C  6098                     bra        -0x66 /* 000057E6 */
label0000584E:
0000584E  0242 007F                andi.w     D2, 0x7F
00005852  3601                     move.w     D3, D1
00005854  5443                     addq.w     D3, 2
00005856  E76A                     lsl        D2.w, D3
00005858  8529 0001                or.b       [A1 + 0x1], D2
0000585C  E04A                     lsr        D2.w, 8
0000585E  8511                     or.b       [A1], D2
00005860  5F41                     subq.w     D1, 7
00005862  6C04                     bge        +0x6 /* 00005868 */
00005864  5041                     addq.w     D1, 8
00005866  5249                     addq.w     A1, 1
label00005868:
00005868  6000 FF7C                bra        -0x82 /* 000057E6 */
label0000586C:
0000586C  4CDF 043C                movem.l    D2,D3,D4,D5,A2, [A7]+
00005870  4E5E                     unlink     A6
00005872  205F                     movea.l    A0, [A7]+
00005874  DEFC 000C                add.w      A7, 0xC
00005878  4ED0                     jmp        [A0]
export_111:
0000587A  4E56 0000                link       A6, 0
0000587E  48E7 0118                movem.l    -[A7], D7,A3,A4
00005882  286E 0008                movea.l    A4, [A6 + 0x8]
00005886  266E 000C                movea.l    A3, [A6 + 0xC]
0000588A  3E14                     move.w     D7, [A4]
0000588C  5347                     subq.w     D7, 1
0000588E  224C                     movea.l    A1, A4
00005890  D2FC 008A                add.w      A1, 0x8A
label00005894:
00005894  1019                     move.b     D0, [A1]+
00005896  670A                     beq        +0xC /* 000058A2 */
00005898  6D0E                     blt        +0x10 /* 000058A8 */
0000589A  4880                     ext.w      D0
0000589C  16F4 0009                move.b     [A3]+, [A4 + D0.w + 0x9]
000058A0  601E                     bra        +0x20 /* 000058C0 */
label000058A2:
000058A2  16D9                     move.b     [A3]+, [A1]+
000058A4  5347                     subq.w     D7, 1
000058A6  6018                     bra        +0x1A /* 000058C0 */
label000058A8:
000058A8  1200                     move.b     D1, D0
000058AA  0201 000F                andi.b     D1, 0xF
000058AE  4881                     ext.w      D1
000058B0  0200 0070                andi.b     D0, 0x70 /* 'p' */
000058B4  E808                     lsr        D0.b, 4
000058B6  4880                     ext.w      D0
label000058B8:
000058B8  16F4 0002                move.b     [A3]+, [A4 + D0.w + 0x2]
000058BC  51C9 FFFA                dbf        D1, -0x8 /* 000058B8 */
label000058C0:
000058C0  51CF FFD2                dbf        D7, -0x30 /* 00005894 */
000058C4  4CDF 1880                movem.l    D7,A3,A4, [A7]+
000058C8  4E5E                     unlink     A6
000058CA  205F                     movea.l    A0, [A7]+
000058CC  504F                     addq.w     A7, 8
000058CE  4ED0                     jmp        [A0]
export_112:
fn000058D0:
000058D0  48E7 3E00                movem.l    -[A7], D2,D3,D4,D5,D6
000058D4  3400                     move.w     D2, D0
000058D6  D469 000A                add.w      D2, [A1 + 0xA]
000058DA  3601                     move.w     D3, D1
000058DC  D669 000C                add.w      D3, [A1 + 0xC]
label000058E0:
000058E0  2050                     movea.l    A0, [A0]
000058E2  B0FC 0000                cmpa.w     A0, 0x0
000058E6  6750                     beq        +0x52 /* 00005938 */
000058E8  3828 0008                move.w     D4, [A0 + 0x8]
000058EC  67F2                     beq        -0xC /* 000058E0 */
000058EE  3A28 000C                move.w     D5, [A0 + 0xC]
000058F2  3C28 0010                move.w     D6, [A0 + 0x10]
000058F6  6D0C                     blt        +0xE /* 00005904 */
000058F8  B444                     cmp.w      D2, D4
000058FA  6DE4                     blt        -0x1A /* 000058E0 */
000058FC  D846                     add.w      D4, D6
000058FE  B044                     cmp.w      D0, D4
00005900  6EDE                     bgt        -0x20 /* 000058E0 */
00005902  600A                     bra        +0xC /* 0000590E */
label00005904:
00005904  B044                     cmp.w      D0, D4
00005906  6ED8                     bgt        -0x26 /* 000058E0 */
00005908  D846                     add.w      D4, D6
0000590A  B444                     cmp.w      D2, D4
0000590C  6DD2                     blt        -0x2C /* 000058E0 */
label0000590E:
0000590E  3C28 0014                move.w     D6, [A0 + 0x14]
00005912  6D0E                     blt        +0x10 /* 00005922 */
00005914  B645                     cmp.w      D3, D5
00005916  6DC8                     blt        -0x36 /* 000058E0 */
00005918  DA68 0014                add.w      D5, [A0 + 0x14]
0000591C  B245                     cmp.w      D1, D5
0000591E  6EC0                     bgt        -0x3E /* 000058E0 */
00005920  600C                     bra        +0xE /* 0000592E */
label00005922:
00005922  B245                     cmp.w      D1, D5
00005924  6EBA                     bgt        -0x44 /* 000058E0 */
00005926  DA68 0014                add.w      D5, [A0 + 0x14]
0000592A  B645                     cmp.w      D3, D5
0000592C  6DB2                     blt        -0x4C /* 000058E0 */
label0000592E:
0000592E  3028 0010                move.w     D0, [A0 + 0x10]
00005932  3228 0014                move.w     D1, [A0 + 0x14]
00005936  6002                     bra        +0x4 /* 0000593A */
label00005938:
00005938  91C8                     sub.l      A0, A0
label0000593A:
0000593A  B0FC 0000                cmpa.w     A0, 0x0
0000593E  4CDF 007C                movem.l    D2,D3,D4,D5,D6, [A7]+
00005942  4E75                     rts
export_113:
00005944  426D FDF2                clr.w      [A5 - 0x20E]
00005948  4E75                     rts
fn0000594A:
0000594A  48E7 4040                movem.l    -[A7], D1,A1
0000594E  2208                     move.l     D1, A0
00005950  8287                     or.l       D1, D7
00005952  2041                     movea.l    A0, D1
00005954  226D FDF4                movea.l    A1, [A5 - 0x20C]
00005958  322D FDF2                move.w     D1, [A5 - 0x20E]
0000595C  44FC 0000 6002           move.b     0x6002, CCR
label00005962:
00005962  4A99                     tst.l      [A1]+
00005964  57C9 FFFC                dbeq       D1, -0x6 /* 00005962 */
00005968  4A41                     tst.w      D1
0000596A  6C08                     bge        +0xA /* 00005974 */
0000596C  526D FDF2                addq.w     [A5 - 0x20E], 1
00005970  2288                     move.l     [A1], A0
00005972  6002                     bra        +0x4 /* 00005976 */
label00005974:
00005974  2308                     move.l     -[A1], A0
label00005976:
00005976  4CDF 0202                movem.l    D1,A1, [A7]+
0000597A  4E75                     rts
fn0000597C:
0000597C  48E7 C040                movem.l    -[A7], D0,D1,A1
00005980  226D FDF4                movea.l    A1, [A5 - 0x20C]
00005984  302D FDF2                move.w     D0, [A5 - 0x20E]
00005988  2208                     move.l     D1, A0
0000598A  0281 00FF FFFF           andi.l     D1, 0xFFFFFF
00005990  2041                     movea.l    A0, D1
label00005992:
00005992  2219                     move.l     D1, [A1]+
00005994  0281 00FF FFFF           andi.l     D1, 0xFFFFFF
0000599A  B1C1                     cmpa.l     A0, D1
0000599C  57C8 FFF4                dbeq       D0, -0xE /* 00005992 */
000059A0  4A40                     tst.w      D0
000059A2  6D02                     blt        +0x4 /* 000059A6 */
000059A4  42A1                     clr.l      -[A1]
label000059A6:
000059A6  4CDF 0203                movem.l    D0,D1,A1, [A7]+
000059AA  4E75                     rts
export_114:
000059AC  48E7 3E30                movem.l    -[A7], D2,D3,D4,D5,D6,A2,A3
000059B0  246D FDF4                movea.l    A2, [A5 - 0x20C]
000059B4  3C2D FDF2                move.w     D6, [A5 - 0x20E]
000059B8  3400                     move.w     D2, D0
000059BA  D469 000A                add.w      D2, [A1 + 0xA]
000059BE  3601                     move.w     D3, D1
000059C0  D669 000C                add.w      D3, [A1 + 0xC]
000059C4  603E                     bra        +0x40 /* 00005A04 */
label000059C6:
000059C6  265A                     movea.l    A3, [A2]+
000059C8  B6FC 0000                cmpa.w     A3, 0x0
000059CC  6736                     beq        +0x38 /* 00005A04 */
000059CE  3813                     move.w     D4, [A3]
000059D0  3A2B 0002                move.w     D5, [A3 + 0x2]
000059D4  B840                     cmp.w      D4, D0
000059D6  6D28                     blt        +0x2A /* 00005A00 */
000059D8  BA41                     cmp.w      D5, D1
000059DA  6D24                     blt        +0x26 /* 00005A00 */
000059DC  B842                     cmp.w      D4, D2
000059DE  6E20                     bgt        +0x22 /* 00005A00 */
000059E0  BA43                     cmp.w      D5, D3
000059E2  6E1C                     bgt        +0x1E /* 00005A00 */
000059E4  986A 0080                sub.w      D4, [A2 + 0x80]
000059E8  3004                     move.w     D0, D4
000059EA  9A6A 0082                sub.w      D5, [A2 + 0x82]
000059EE  3205                     move.w     D1, D5
000059F0  240B                     move.l     D2, A3
000059F2  0282 FF00 0000           andi.l     D2, 0xFF000000
000059F8  2042                     movea.l    A0, D2
000059FA  44FC 0000 600C           move.b     0x600C, CCR
label00005A00:
00005A00  2553 0080                move.l     [A2 + 0x80], [A3]
label00005A04:
00005A04  51CE FFC0                dbf        D6, -0x42 /* 000059C6 */
00005A08  44FC 0004 4CDF           move.b     0x44CDF, CCR
00005A0E  0C7C 4E75 48E7           cmpi.w     0x48E7, 0x4E75 /* 'Nu' */
// begin alternate branch 00005A12-00005A16
fn00005A12:
00005A12  48E7 1C00                movem.l    -[A7], D3,D4,D5
// end alternate branch 00005A12-00005A16
fn00005A12: // (misaligned)
00005A14  1C00                     move.b     D6, D0
00005A16  363C 000A                move.w     D3, 0xA /* '\n' */
00005A1A  3A01                     move.w     D5, D1
00005A1C  E465                     asr        D5.w, D2
label00005A1E:
00005A1E  3E32 3000                move.w     D7, [A2 + D3.w]
00005A22  6740                     beq        +0x42 /* 00005A64 */
00005A24  E467                     asr        D7.w, D2
00005A26  BE45                     cmp.w      D7, D5
00005A28  6C04                     bge        +0x6 /* 00005A2E */
label00005A2A:
00005A2A  5843                     addq.w     D3, 4
00005A2C  60F0                     bra        -0xE /* 00005A1E */
label00005A2E:
00005A2E  6E00 003A                bgt        +0x3C /* 00005A6A */
00005A32  3832 3002                move.w     D4, [A2 + D3.w + 0x2]
label00005A36:
00005A36  B072 4002                cmp.w      D0, [A2 + D4.w + 0x2]
00005A3A  6E1C                     bgt        +0x1E /* 00005A58 */
00005A3C  B072 4000                cmp.w      D0, [A2 + D4.w]
00005A40  6DE8                     blt        -0x16 /* 00005A2A */
00005A42  0C72 0200 4004           cmpi.w     [A2 + D4.w + 0x4], 0x200
00005A48  6C0E                     bge        +0x10 /* 00005A58 */
00005A4A  3232 3000                move.w     D1, [A2 + D3.w]
00005A4E  3E04                     move.w     D7, D4
00005A50  4847                     swap.w     D7
00005A52  3E03                     move.w     D7, D3
00005A54  6000 0016                bra        +0x18 /* 00005A6C */
label00005A58:
00005A58  0644 0012                addi.w     D4, 0x12
00005A5C  4A72 4000                tst.w      [A2 + D4.w]
00005A60  67C8                     beq        -0x36 /* 00005A2A */
00005A62  60D2                     bra        -0x2C /* 00005A36 */
label00005A64:
00005A64  3E3C FFFF                move.w     D7, 0xFFFF
00005A68  6002                     bra        +0x4 /* 00005A6C */
label00005A6A:
00005A6A  4247                     clr.w      D7
label00005A6C:
00005A6C  4A47                     tst.w      D7
00005A6E  4CDF 0038                movem.l    D3,D4,D5, [A7]+
00005A72  4E75                     rts
export_115:
00005A74  700C                     moveq.l    D0, 0x0C
00005A76  A31E                     syscall    NewPtrClear, flags=3
00005A78  43FA 003C                lea.l      A1, [PC + 0x3C /* 00005AB6, value 0x4A6E0002, cstring "Jn" */]
00005A7C  2149 0004                move.l     [A0 + 0x4], A1
00005A80  317C 0006 0008           move.w     [A0 + 0x8], 0x6
00005A86  4268 000A                clr.w      [A0 + 0xA]
00005A8A  20AD FE7E                move.l     [A0], [A5 - 0x182]
00005A8E  2B48 FE7E                move.l     [A5 - 0x182], A0
00005A92  3B7C 0002 FDB8           move.w     [A5 - 0x248], 0x2
00005A98  3B7C 0002 FDC6           move.w     [A5 - 0x23A], 0x2
00005A9E  0CAD 7FFF FFFF FDA4      cmpi.l     [A5 - 0x25C], 0x7FFFFFFF
00005AA6  660C                     bne        +0xE /* 00005AB4 */
00005AA8  206D FDA8                movea.l    A0, [A5 - 0x258]
00005AAC  2050                     movea.l    A0, [A0]
00005AAE  2B68 0044 FDA4           move.l     [A5 - 0x25C], [A0 + 0x44]
label00005AB4:
00005AB4  4E75                     rts
00005AB6  4A6E 0002                tst.w      [A6 + 0x2]
00005ABA  6F12                     ble        +0x14 /* 00005ACE */
00005ABC  536E 0002                subq.w     [A6 + 0x2], 1
00005AC0  660C                     bne        +0xE /* 00005ACE */
00005AC2  3F00                     move.w     -[A7], D0
00005AC4  303C 0008                move.w     D0, 0x8
00005AC8  4EAD 0052                jsr        [A5 + 0x52 /* export_6, CODE:1 @ 00000114 */]
00005ACC  301F                     move.w     D0, [A7]+
label00005ACE:
00005ACE  6100 0008                bsr        +0xA /* 00005AD8 */
00005AD2  6100 00A2                bsr        +0xA4 /* 00005B76 */
00005AD6  4E75                     rts
export_116:
fn00005AD8:
00005AD8  4A6D FDB8                tst.w      [A5 - 0x248]
00005ADC  6700 0096                beq        +0x98 /* 00005B74 */
00005AE0  0C6D 0001 FDB8           cmpi.w     [A5 - 0x248], 0x1
00005AE6  6700 0088                beq        +0x8A /* 00005B70 */
00005AEA  202D FDBA                move.l     D0, [A5 - 0x246]
00005AEE  B0AD FDA4                cmp.l      D0, [A5 - 0x25C]
00005AF2  6D40                     blt        +0x42 /* 00005B34 */
label00005AF4:
00005AF4  526D FDCC                addq.w     [A5 - 0x234], 1
00005AF8  206D FDA8                movea.l    A0, [A5 - 0x258]
00005AFC  2050                     movea.l    A0, [A0]
00005AFE  D0FC 0048                add.w      A0, 0x48 /* 'H' */
00005B02  43ED FDA4                lea.l      A1, [A5 - 0x25C]
00005B06  5889                     addq.l     A1, 4
00005B08  023C 0007                andi.b     ccr, 7
00005B0C  7203                     moveq.l    D1, 0x03
label00005B0E:
00005B0E  C308                     abcd       -[A1], -[A0]
00005B10  51C9 FFFC                dbf        D1, -0x6 /* 00005B0E */
00005B14  B0AD FDA4                cmp.l      D0, [A5 - 0x25C]
00005B18  6CDA                     bge        -0x24 /* 00005AF4 */
00005B1A  4EBA F570                jsr        [PC - 0xA90 /* 0000508C */]
00005B1E  202D FDBA                move.l     D0, [A5 - 0x246]
00005B22  3D7C 000D 0002           move.w     [A6 + 0x2], 0xD /* '\r' */
00005B28  3F00                     move.w     -[A7], D0
00005B2A  303C 0008                move.w     D0, 0x8
00005B2E  4EAD 0052                jsr        [A5 + 0x52 /* export_6, CODE:1 @ 00000114 */]
00005B32  301F                     move.w     D0, [A7]+
label00005B34:
00005B34  41ED FDAC                lea.l      A0, [A5 - 0x254]
00005B38  20FC 0ACA CACA           move.l     [A0]+, 0xACACACA
00005B3E  20FC CACA CACA           move.l     [A0]+, 0xCACACACA
00005B44  30FC CACA                move.w     [A0]+, 0xCACA
00005B48  10FC 0030                move.b     [A0]+, 0x30 /* '0' */
00005B4C  343C 0003                move.w     D2, 0x3
00005B50  2200                     move.l     D1, D0
label00005B52:
00005B52  E888                     lsr        D0, 4
00005B54  0241 000F                andi.w     D1, 0xF
00005B58  0641 0030                addi.w     D1, 0x30 /* '0' */
00005B5C  1101                     move.b     -[A0], D1
00005B5E  2200                     move.l     D1, D0
00005B60  670E                     beq        +0x10 /* 00005B70 */
00005B62  5342                     subq.w     D2, 1
00005B64  6EEC                     bgt        -0x12 /* 00005B52 */
00005B66  343C 0003                move.w     D2, 0x3
00005B6A  113C 002C                move.b     -[A0], 0x2C /* ',' */
00005B6E  60E2                     bra        -0x1C /* 00005B52 */
label00005B70:
00005B70  4EAD 019A                jsr        [A5 + 0x19A /* export_47, CODE:1 @ 000018CA */]
label00005B74:
00005B74  4E75                     rts
fn00005B76:
00005B76  4A6D FDC6                tst.w      [A5 - 0x23A]
00005B7A  6742                     beq        +0x44 /* 00005BBE */
00005B7C  0C6D 0001 FDC6           cmpi.w     [A5 - 0x23A], 0x1
00005B82  6736                     beq        +0x38 /* 00005BBA */
00005B84  202D FDC8                move.l     D0, [A5 - 0x238]
00005B88  41ED FDC0                lea.l      A0, [A5 - 0x240]
00005B8C  20FC 05CA CACA           move.l     [A0]+, 0x5CACACA
00005B92  30FC CA30                move.w     [A0]+, 0xCA30
00005B96  343C 0003                move.w     D2, 0x3
00005B9A  2200                     move.l     D1, D0
label00005B9C:
00005B9C  E848                     lsr        D0.w, 4
00005B9E  0241 000F                andi.w     D1, 0xF
00005BA2  0641 0030                addi.w     D1, 0x30 /* '0' */
00005BA6  1101                     move.b     -[A0], D1
00005BA8  3200                     move.w     D1, D0
00005BAA  670E                     beq        +0x10 /* 00005BBA */
00005BAC  5342                     subq.w     D2, 1
00005BAE  6EEC                     bgt        -0x12 /* 00005B9C */
00005BB0  343C 0003                move.w     D2, 0x3
00005BB4  113C 002C                move.b     -[A0], 0x2C /* ',' */
00005BB8  60E2                     bra        -0x1C /* 00005B9C */
label00005BBA:
00005BBA  4EAD 01A2                jsr        [A5 + 0x1A2 /* export_48, CODE:1 @ 00001902 */]
label00005BBE:
00005BBE  5356                     subq.w     [A6], 1
00005BC0  6E2C                     bgt        +0x2E /* 00005BEE */
00005BC2  3CBC 0006                move.w     [A6], 0x6
00005BC6  4AAD FDC8                tst.l      [A5 - 0x238]
00005BCA  6722                     beq        +0x24 /* 00005BEE */
00005BCC  307C 09FA                movea.w    A0, 0x9FA
00005BD0  20FC 0000 0010           move.l     [A0]+, 0x10
00005BD6  43ED FDC8                lea.l      A1, [A5 - 0x238]
00005BDA  5889                     addq.l     A1, 4
00005BDC  023C 0007                andi.b     ccr, 7
00005BE0  7203                     moveq.l    D1, 0x03
label00005BE2:
00005BE2  8308                     sbcd       -[A1], -[A0]
00005BE4  51C9 FFFC                dbf        D1, -0x6 /* 00005BE2 */
00005BE8  3B7C 0002 FDC6           move.w     [A5 - 0x23A], 0x2
label00005BEE:
00005BEE  4E75                     rts
export_117:
fn00005BF0:
00005BF0  307C 09FA                movea.w    A0, 0x9FA
00005BF4  4298                     clr.l      [A0]+
00005BF6  43ED FDBA                lea.l      A1, [A5 - 0x246]
00005BFA  5889                     addq.l     A1, 4
00005BFC  3140 FFFE                move.w     [A0 - 0x2], D0
00005C00  023C 0007                andi.b     ccr, 7
00005C04  7203                     moveq.l    D1, 0x03
label00005C06:
00005C06  C308                     abcd       -[A1], -[A0]
00005C08  51C9 FFFC                dbf        D1, -0x6 /* 00005C06 */
00005C0C  3B7C 0002 FDB8           move.w     [A5 - 0x248], 0x2
00005C12  4E75                     rts
export_119:
fn00005C14:
00005C14  48E7 40C0                movem.l    -[A7], D1,A0,A1
00005C18  206D FDA8                movea.l    A0, [A5 - 0x258]
00005C1C  2050                     movea.l    A0, [A0]
00005C1E  3030 0000                move.w     D0, [A0 + D0.w]
00005C22  61CC                     bsr        -0x32 /* 00005BF0 */
00005C24  4CDF 0302                movem.l    D1,A0,A1, [A7]+
00005C28  4E75                     rts
export_118:
00005C2A  2F08                     move.l     -[A7], A0
00005C2C  3B40 FDBE                move.w     [A5 - 0x242], D0
00005C30  0240 FFFE                andi.w     D0, 0xFFFE
00005C34  206D FDA8                movea.l    A0, [A5 - 0x258]
00005C38  2050                     movea.l    A0, [A0]
00005C3A  42AD FDC8                clr.l      [A5 - 0x238]
00005C3E  3B70 0000 FDCA           move.w     [A5 - 0x236], [A0 + D0.w]
00005C44  205F                     movea.l    A0, [A7]+
00005C46  4E75                     rts
export_120:
fn00005C48:
00005C48  303C 013D                move.w     D0, 0x13D
00005C4C  323C 00FF                move.w     D1, 0xFF
00005C50  226D FD34                movea.l    A1, [A5 - 0x2CC]
00005C54  206D FFA8                movea.l    A0, [A5 - 0x58]
00005C58  7E02                     moveq.l    D7, 0x02
label00005C5A:
00005C5A  0640 0022                addi.w     D0, 0x22 /* '\"' */
00005C5E  4EBA A3A0                jsr        [PC - 0x5C60 /* 00000000 */]
00005C62  51CF FFF6                dbf        D7, -0xC /* 00005C5A */
00005C66  4E75                     rts
export_121:
fn00005C68:
00005C68  4A6D FD12                tst.w      [A5 - 0x2EE]
00005C6C  671A                     beq        +0x1C /* 00005C88 */
00005C6E  302D FD06                move.w     D0, [A5 - 0x2FA]
00005C72  546D FD06                addq.w     [A5 - 0x2FA], 2
00005C76  026D 000E FD06           andi.w     [A5 - 0x2FA], 0xE
00005C7C  303B 001A                move.w     D0, [PC + D0.w + 0x1A]
00005C80  4640                     not.w      D0
00005C82  0A40 ABCD                xori.w     D0, 0xABCD
00005C86  4E75                     rts
label00005C88:
00005C88  48E7 60E0                movem.l    -[A7], D1,D2,A0,A1,A2
00005C8C  4267                     clr.w      -[A7]
00005C8E  A861                     syscall    Random
00005C90  544F                     addq.w     A7, 2
00005C92  4CDF 0706                movem.l    D1,D2,A0,A1,A2, [A7]+
00005C96  4E75                     rts
00005C98  8510                     or.b       [A0], D2
00005C9A  4058                     negx.w     [A0]+
00005C9C  08D0 0476                bset.b     [A0], 0x76 /* 'v' */
00005CA0  C121                     and.b      -[A1], D0
00005CA2  4195                     .invalid   0, [A5] // invalid opcode 4 with b == 6
00005CA4  B717                     xor.b      [A7], D3
00005CA6  3991 48E7                move.w     [A4 + D4 - 0x19], [A1]
// begin alternate branch 00005CA8-00005CB4
export_122:
00005CA8  48E7 1030                movem.l    -[A7], D3,A2,A3
00005CAC  45FA 003A                lea.l      A2, [PC + 0x3A /* 00005CE8, value 0x2F0D2A78 '/\r*x' */]
00005CB0  47FA 0054                lea.l      A3, [PC + 0x54 /* 00005D06, value 0x206D ' m', cstring "" */]
// end alternate branch 00005CA8-00005CB4
export_122: // at 00005CA8 (misaligned)
00005CAA  1030 45FA 003A 47FA 0054 move.b     D0, [[0x3A47FA] + 0x54]
00005CB4  200B                     move.l     D0, A3
00005CB6  908A                     sub.l      D0, A2
00005CB8  2600                     move.l     D3, D0
00005CBA  5840                     addq.w     D0, 4
00005CBC  A51E                     syscall    NewPtrSys, flags=5
00005CBE  2B48 FD02                move.l     [A5 - 0x2FE], A0
00005CC2  2248                     movea.l    A1, A0
00005CC4  E243                     asr        D3.w, 1
00005CC6  6002                     bra        +0x4 /* 00005CCA */
label00005CC8:
00005CC8  32DA                     move.w     [A1]+, [A2]+
label00005CCA:
00005CCA  51CB FFFC                dbf        D3, -0x6 /* 00005CC8 */
00005CCE  303C 01C9                move.w     D0, 0x1C9
00005CD2  A146                     syscall    GetTrapAddress, flags=1
00005CD4  2B48 FCFE                move.l     [A5 - 0x302], A0
00005CD8  303C 01C9                move.w     D0, 0x1C9
00005CDC  206D FD02                movea.l    A0, [A5 - 0x2FE]
00005CE0  A047                     syscall    SetTrapAddress
00005CE2  4CDF 0C08                movem.l    D3,A2,A3, [A7]+
00005CE6  4E75                     rts
00005CE8  2F0D                     move.l     -[A7], A5
00005CEA  2A78 0904                movea.l    A5, [0x00000904 /* CurrentA5 */]
00005CEE  51ED FF93                sf         [A5 - 0x6D]
00005CF2  2078 01D4                movea.l    A0, [0x000001D4 /* VIA */]
00005CF6  D0FC 1E00                add.w      A0, 0x1E00
00005CFA  08D0 0006                bset.b     [A0], 0x6
00005CFE  206D FCFE                movea.l    A0, [A5 - 0x302]
00005D02  2A5F                     movea.l    A5, [A7]+
00005D04  4ED0                     jmp        [A0]
00005D06  0000 206D                ori.b      D0, 0x6D /* 'm' */
// begin alternate branch 00005D08-00005D10
export_123:
00005D08  206D FCFE                movea.l    A0, [A5 - 0x302]
00005D0C  303C 01C9                move.w     D0, 0x1C9
// end alternate branch 00005D08-00005D10
export_123: // at 00005D08 (misaligned)
00005D0A  FCFE 303C                .extension 0xCFE <<F/2-3/6>> // unimplemented
00005D0E  01C9                     .incomplete
00005D10  A047                     syscall    SetTrapAddress
00005D12  206D FD02                movea.l    A0, [A5 - 0x2FE]
00005D16  A01F                     syscall    DisposPtr/DisposePtr
00005D18  4E75                     rts
export_124:
00005D1A  41FA 000E                lea.l      A0, [PC + 0xE /* 00005D2A, value 0x4A406600 'J@f\0', cstring "J@f" */]
00005D1E  21C8 0A6C                move.l     [0x00000A6C /* DeskHook */], A0
00005D22  4E75                     rts
export_125:
00005D24  42B8 0A6C                clr.l      [0x00000A6C /* DeskHook */]
00005D28  4E75                     rts
00005D2A  4A40                     tst.w      D0
00005D2C  6600 000E                bne        +0x10 /* 00005D3C */
00005D30  48E7 E0E0                movem.l    -[A7], D0,D1,D2,A0,A1,A2
00005D34  4EAD 0122                jsr        [A5 + 0x122 /* export_32, CODE:1 @ 00000FEC */]
00005D38  4CDF 0707                movem.l    D0,D1,D2,A0,A1,A2, [A7]+
label00005D3C:
00005D3C  4E75                     rts
