# near model CODE resource
# jump table entries: 424-428 (5 of them)
label00000000:
00000000  4EBA 196A                jsr        [PC + 0x196A /* 0000196C */]
00000004  266E 002C                movea.l    A3, [A6 + 0x2C]
00000008  161B                     move.b     D3, [A3]+
0000000A  4883                     ext.w      D3
0000000C  D043                     add.w      D0, D3
0000000E  161B                     move.b     D3, [A3]+
00000010  4883                     ext.w      D3
00000012  D243                     add.w      D1, D3
00000014  161B                     move.b     D3, [A3]+
00000016  4883                     ext.w      D3
00000018  286E 0016                movea.l    A4, [A6 + 0x16]
0000001C  2274 306C                movea.l    A1, [A4 + D3.w + 0x6C]
00000020  141B                     move.b     D2, [A3]+
00000022  4882                     ext.w      D2
00000024  6C0A                     bge        +0xC /* 00000030 */
00000026  3A04                     move.w     D5, D4
00000028  4EBA 06F8                jsr        [PC + 0x6F8 /* 00000722 */]
0000002C  4EFA 2A52                jmp        [PC + 0x2A52 /* 00002A80 */]
label00000030:
00000030  206D FFA8                movea.l    A0, [A5 - 0x58]
00000034  2449                     movea.l    A2, A1
00000036  4EAD 0202                jsr        [A5 + 0x202 /* export_60, CODE:4 @ 00000000 */]
0000003A  141B                     move.b     D2, [A3]+
0000003C  0C02 00D6                cmpi.b     D2, 0xD6
00000040  6610                     bne        +0x12 /* 00000052 */
00000042  3F00                     move.w     -[A7], D0
00000044  303C 0002                move.w     D0, 0x2
00000048  4EAD 0052                jsr        [A5 + 0x52 /* export_6, CODE:1 @ 00000114 */]
0000004C  301F                     move.w     D0, [A7]+
0000004E  4202                     clr.b      D2
00000050  6018                     bra        +0x1A /* 0000006A */
label00000052:
00000052  0C02 00D5                cmpi.b     D2, 0xD5
00000056  660E                     bne        +0x10 /* 00000066 */
00000058  3F00                     move.w     -[A7], D0
0000005A  303C 0003                move.w     D0, 0x3
0000005E  4EAD 0052                jsr        [A5 + 0x52 /* export_6, CODE:1 @ 00000114 */]
00000062  301F                     move.w     D0, [A7]+
00000064  601C                     bra        +0x1E /* 00000082 */
label00000066:
00000066  4A02                     tst.b      D2
00000068  6D18                     blt        +0x1A /* 00000082 */
label0000006A:
0000006A  4882                     ext.w      D2
0000006C  302E 000C                move.w     D0, [A6 + 0xC]
00000070  322E 000E                move.w     D1, [A6 + 0xE]
00000074  226C 007C                movea.l    A1, [A4 + 0x7C]
00000078  0441 000A                subi.w     D1, 0xA /* '\n' */
0000007C  5040                     addq.w     D0, 8
0000007E  4EAD 0202                jsr        [A5 + 0x202 /* export_60, CODE:4 @ 00000000 */]
label00000082:
00000082  2D4B 002C                move.l     [A6 + 0x2C], A3
00000086  224A                     movea.l    A1, A2
00000088  302E 000C                move.w     D0, [A6 + 0xC]
0000008C  322E 000E                move.w     D1, [A6 + 0xE]
00000090  4EFA 0482                jmp        [PC + 0x482 /* 00000514 */]
00000094  4E75                     rts
00000096  0010 0400                ori.b      [A0], 0x0
0000009A  FF00                     .extension 0xF00 <<F/4-5/7>> // unimplemented
0000009C  0F04                     btst       D4, D7
0000009E  01FF                     .incomplete
000000A0  000F 0401                ori.b      A7, 0x1
000000A4  FF00                     .extension 0xF00 <<F/4-5/7>> // unimplemented
000000A6  0F04                     btst       D4, D7
000000A8  01FF                     .incomplete
000000AA  0010 0400                ori.b      [A0], 0x0
000000AE  FF00                     .extension 0xF00 <<F/4-5/7>> // unimplemented
000000B0  FF00                     .extension 0xF00 <<F/4-5/7>> // unimplemented
000000B2  01FF                     .incomplete
000000B4  00F9                     .incomplete
000000B6  0001 FF00                ori.b      D1, 0x0
000000BA  0014 00D6                ori.b      [A4], 0xD6
000000BE  0000 1400                ori.b      D0, 0x0
000000C2  0100                     btst       D0, D0
000000C4  000C 0102                ori.b      A4, 0x2
000000C8  0000 0C01                ori.b      D0, 0x1
000000CC  0300                     btst       D0, D1
000000CE  0014 0004                ori.b      [A4], 0x4
000000D2  0200 1401                andi.b     D0, 0x1
000000D6  0502                     btst       D2, D2
000000D8  0014 0100                ori.b      [A4], 0x0
000000DC  F700                     .extension 0x700 <<F/4-5/3>> // unimplemented
000000DE  1402                     move.b     D2, D2
000000E0  01F7                     .incomplete
000000E2  0014 0202                ori.b      [A4], 0x2
000000E6  FA00 1403                .unknown   0xFA00 0x1403 (W = 5)
000000EA  03FA                     .incomplete
000000EC  0014 0304                ori.b      [A4], 0x4
000000F0  FC00 1404                .unknown   0xFC00 0x1404 (W = 6)
000000F4  05FC                     .incomplete
000000F6  0014 04D6                ori.b      [A4], 0xD6
000000FA  0000 1405                ori.b      D0, 0x5
000000FE  0100                     btst       D0, D0
00000100  0014 0502                ori.b      [A4], 0x2
00000104  0000 1800                ori.b      D0, 0x0
00000108  0300                     btst       D0, D1
0000010A  0018 0004                ori.b      [A0]+, 0x4
0000010E  0000 1400                ori.b      D0, 0x0
00000112  0500                     btst       D0, D2
00000114  0014 0000                ori.b      [A4], 0x0
00000118  0000 0C01                ori.b      D0, 0x1
0000011C  0100                     btst       D0, D0
0000011E  000C 0102                ori.b      A4, 0x2
00000122  0000 1400                ori.b      D0, 0x0
00000126  0300                     btst       D0, D1
00000128  0014 0004                ori.b      [A4], 0x4
0000012C  FE00 1801                .unknown   0xFE00 0x1801 (W = 7)
00000130  05FE                     .incomplete
00000132  0018 01D6                ori.b      [A0]+, 0xD6
00000136  0100                     btst       D0, D0
00000138  1802                     move.b     D4, D2
0000013A  0101                     btst       D1, D0
0000013C  0018 0202                ori.b      [A0]+, 0x2
00000140  0300                     btst       D0, D1
00000142  1803                     move.b     D4, D3
00000144  0303                     btst       D3, D1
00000146  0018 0304                ori.b      [A0]+, 0x4
0000014A  0600 1804                addi.b     D0, 0x4
0000014E  0506                     btst       D6, D2
00000150  0018 0400                ori.b      [A0]+, 0x0
00000154  FF00                     .extension 0xF00 <<F/4-5/7>> // unimplemented
00000156  1805                     move.b     D4, D5
00000158  01FF                     .incomplete
0000015A  0018 0502                ori.b      [A0]+, 0x2
0000015E  0000 1401                ori.b      D0, 0x1
00000162  0300                     btst       D0, D1
00000164  0014 0104                ori.b      [A4], 0x4
00000168  0000 0C01                ori.b      D0, 0x1
0000016C  0500                     btst       D0, D2
0000016E  000C 01FF                ori.b      A4, 0xFF
00000172  0000 0C00                ori.b      D0, 0x0
00000176  D500                     addx.b     D2, D0
00000178  000C 02FF                ori.b      A4, 0xFF
0000017C  0000 0C01                ori.b      D0, 0x1
00000180  FF00                     .extension 0xF00 <<F/4-5/7>> // unimplemented
00000182  000C 00FF                ori.b      A4, 0xFF
00000186  0000 0C02                ori.b      D0, 0x2
0000018A  FF00                     .extension 0xF00 <<F/4-5/7>> // unimplemented
0000018C  000C 01FF                ori.b      A4, 0xFF
00000190  0000 0C00                ori.b      D0, 0x0
00000194  FF00                     .extension 0xF00 <<F/4-5/7>> // unimplemented
00000196  000C 02FF                ori.b      A4, 0xFF
0000019A  0000 0C01                ori.b      D0, 0x1
0000019E  FF00                     .extension 0xF00 <<F/4-5/7>> // unimplemented
000001A0  000C 01FF                ori.b      A4, 0xFF
000001A4  0000 0C01                ori.b      D0, 0x1
000001A8  FF00                     .extension 0xF00 <<F/4-5/7>> // unimplemented
000001AA  000C 01FF                ori.b      A4, 0xFF
000001AE  0000 00FF                ori.b      D0, 0xFF
000001B2  FF00                     .extension 0xF00 <<F/4-5/7>> // unimplemented
label000001B4:
000001B4  3D72 400C 0006           move.w     [A6 + 0x6], [A2 + D4.w + 0xC]
000001BA  3832 4008                move.w     D4, [A2 + D4.w + 0x8]
000001BE  3D44 0004                move.w     [A6 + 0x4], D4
000001C2  4A6E 001E                tst.w      [A6 + 0x1E]
000001C6  6D12                     blt        +0x14 /* 000001DA */
000001C8  4A6E 0030                tst.w      [A6 + 0x30]
000001CC  6D06                     blt        +0x8 /* 000001D4 */
000001CE  47FA 00FA                lea.l      A3, [PC + 0xFA /* 000002CA, value 0xFF2000, cstring "" */]
000001D2  6016                     bra        +0x18 /* 000001EA */
label000001D4:
000001D4  47FA 00D0                lea.l      A3, [PC + 0xD0 /* 000002A6, value 0xA3400 '\n4\0', cstring "" */]
000001D8  6010                     bra        +0x12 /* 000001EA */
label000001DA:
000001DA  4A6E 0030                tst.w      [A6 + 0x30]
000001DE  6E06                     bgt        +0x8 /* 000001E6 */
000001E0  47FA 00DC                lea.l      A3, [PC + 0xDC /* 000002BE, value 0xFF1C00, cstring "" */]
000001E4  6004                     bra        +0x6 /* 000001EA */
label000001E6:
000001E6  47FA 00CA                lea.l      A3, [PC + 0xCA /* 000002B2, value 0xA3404, cstring "" */]
label000001EA:
000001EA  3D7C 0021 0012           move.w     [A6 + 0x12], 0x21 /* '!' */
000001F0  2D4B 002C                move.l     [A6 + 0x2C], A3
000001F4  4E75                     rts
label000001F6:
000001F6  266E 002C                movea.l    A3, [A6 + 0x2C]
000001FA  161B                     move.b     D3, [A3]+
000001FC  4883                     ext.w      D3
000001FE  D043                     add.w      D0, D3
00000200  161B                     move.b     D3, [A3]+
00000202  4883                     ext.w      D3
00000204  D243                     add.w      D1, D3
00000206  161B                     move.b     D3, [A3]+
00000208  4883                     ext.w      D3
0000020A  286E 0016                movea.l    A4, [A6 + 0x16]
0000020E  2274 306C                movea.l    A1, [A4 + D3.w + 0x6C]
00000212  141B                     move.b     D2, [A3]+
00000214  4882                     ext.w      D2
00000216  6C16                     bge        +0x18 /* 0000022E */
00000218  4A6E 0030                tst.w      [A6 + 0x30]
0000021C  6E06                     bgt        +0x8 /* 00000224 */
0000021E  47FA 00B6                lea.l      A3, [PC + 0xB6 /* 000002D6, value 0xF7053000 */]
00000222  6004                     bra        +0x6 /* 00000228 */
label00000224:
00000224  47FA 00C4                lea.l      A3, [PC + 0xC4 /* 000002EA, value 0x9053004 */]
label00000228:
00000228  2D4B 002C                move.l     [A6 + 0x2C], A3
0000022C  60C8                     bra        -0x36 /* 000001F6 */
label0000022E:
0000022E  3D40 000C                move.w     [A6 + 0xC], D0
00000232  3D41 000E                move.w     [A6 + 0xE], D1
00000236  362E 0006                move.w     D3, [A6 + 0x6]
0000023A  3C32 3000                move.w     D6, [A2 + D3.w]
0000023E  0646 0009                addi.w     D6, 0x9 /* '\t' */
00000242  B246                     cmp.w      D1, D6
00000244  6D52                     blt        +0x54 /* 00000298 */
00000246  3206                     move.w     D1, D6
00000248  0441 0009                subi.w     D1, 0x9 /* '\t' */
0000024C  3D41 000E                move.w     [A6 + 0xE], D1
00000250  4A6E 001E                tst.w      [A6 + 0x1E]
00000254  6D18                     blt        +0x1A /* 0000026E */
00000256  4A6E 0030                tst.w      [A6 + 0x30]
0000025A  6D08                     blt        +0xA /* 00000264 */
0000025C  47FA 00AC                lea.l      A3, [PC + 0xAC /* 0000030A, value 0x6FE2002 */]
00000260  5840                     addq.w     D0, 4
00000262  6020                     bra        +0x22 /* 00000284 */
label00000264:
00000264  47FA 00B0                lea.l      A3, [PC + 0xB0 /* 00000316, value 0xFC0A3402 */]
00000268  0440 0018                subi.w     D0, 0x18
0000026C  6016                     bra        +0x18 /* 00000284 */
label0000026E:
0000026E  4A6E 0030                tst.w      [A6 + 0x30]
00000272  6D08                     blt        +0xA /* 0000027C */
00000274  47FA 00AC                lea.l      A3, [PC + 0xAC /* 00000322, value 0x40A3406 */]
00000278  5840                     addq.w     D0, 4
0000027A  6008                     bra        +0xA /* 00000284 */
label0000027C:
0000027C  47FA 0080                lea.l      A3, [PC + 0x80 /* 000002FE, value 0xFAFE1C02 */]
00000280  0440 0018                subi.w     D0, 0x18
label00000284:
00000284  3F00                     move.w     -[A7], D0
00000286  303C 004E                move.w     D0, 0x4E /* 'N' */
0000028A  4EAD 0052                jsr        [A5 + 0x52 /* export_6, CODE:1 @ 00000114 */]
0000028E  301F                     move.w     D0, [A7]+
00000290  3D40 000C                move.w     [A6 + 0xC], D0
00000294  4EFA 00CA                jmp        [PC + 0xCA /* 00000360 */]
label00000298:
00000298  206D FFA8                movea.l    A0, [A5 - 0x58]
0000029C  2D4B 002C                move.l     [A6 + 0x2C], A3
000002A0  4EAD 0202                jsr        [A5 + 0x202 /* export_60, CODE:4 @ 00000000 */]
000002A4  4E75                     rts
000002A6  000A 3400                ori.b      A2, 0x0
000002AA  0004 3401                ori.b      D4, 0x1
000002AE  0000 00FF                ori.b      D0, 0xFF
000002B2  000A 3404                ori.b      A2, 0x4
000002B6  0004 3405                ori.b      D4, 0x5
000002BA  0000 00FF                ori.b      D0, 0xFF
000002BE  00FF                     .incomplete
000002C0  1C00                     move.b     D6, D0
000002C2  0A08 3403                xori.b     A0, 0x3
000002C6  0000 00FF                ori.b      D0, 0xFF
000002CA  00FF                     .incomplete
000002CC  2000                     move.l     D0, D0
000002CE  F608 3407                .move16    0xF608, 0x3407 // unimplemented
000002D2  0000 00FF                ori.b      D0, 0xFF
000002D6  F705                     .extension 0x705 <<F/4-5/3>> // unimplemented
000002D8  3000                     move.w     D0, D0
000002DA  F705                     .extension 0x705 <<F/4-5/3>> // unimplemented
000002DC  3001                     move.w     D0, D1
000002DE  F705                     .extension 0x705 <<F/4-5/3>> // unimplemented
000002E0  3002                     move.w     D0, D2
000002E2  F705                     .extension 0x705 <<F/4-5/3>> // unimplemented
000002E4  3003                     move.w     D0, D3
000002E6  0000 00FF                ori.b      D0, 0xFF
000002EA  0905                     btst       D5, D4
000002EC  3004                     move.w     D0, D4
000002EE  0905                     btst       D5, D4
000002F0  3005                     move.w     D0, D5
000002F2  0905                     btst       D5, D4
000002F4  3006                     move.w     D0, D6
000002F6  0905                     btst       D5, D4
000002F8  3007                     move.w     D0, D7
000002FA  0000 00FF                ori.b      D0, 0xFF
000002FE  FAFE 1C02                .extension 0xAFE <<F/2-3/5>> // unimplemented
00000302  0000 00FF                ori.b      D0, 0xFF
00000306  FAFE 1C03                .extension 0xAFE <<F/2-3/5>> // unimplemented
0000030A  06FE                     .incomplete
0000030C  2002                     move.l     D0, D2
0000030E  0000 00FF                ori.b      D0, 0xFF
00000312  06FE                     .incomplete
00000314  2003                     move.l     D0, D3
00000316  FC0A 3402                .unknown   0xFC0A 0x3402 (W = 6)
0000031A  0000 00FF                ori.b      D0, 0xFF
0000031E  F81F 3800                .tblXX     0xF81F, 0x3800 // unimplemented
00000322  040A 3406                subi.b     A2, 0x6
00000326  0000 00FF                ori.b      D0, 0xFF
0000032A  081F 3801                btst.b     [A7]+, 0x1
label0000032E:
0000032E  0C6E 000D 0012           cmpi.w     [A6 + 0x12], 0xD /* '\r' */
00000334  6604                     bne        +0x6 /* 0000033A */
00000336  4EFA 0044                jmp        [PC + 0x44 /* 0000037C */]
label0000033A:
0000033A  3F00                     move.w     -[A7], D0
0000033C  303C 0053                move.w     D0, 0x53 /* 'S' */
00000340  4EAD 0052                jsr        [A5 + 0x52 /* export_6, CODE:1 @ 00000114 */]
00000344  301F                     move.w     D0, [A7]+
00000346  3D7C 000D 0012           move.w     [A6 + 0x12], 0xD /* '\r' */
0000034C  47FA 019A                lea.l      A3, [PC + 0x19A /* 000004E8, value 0xFBFA4400 */]
00000350  2D4B 002C                move.l     [A6 + 0x2C], A3
00000354  3D7C FFFF 0030           move.w     [A6 + 0x30], 0xFFFF
0000035A  4EFA 0004                jmp        [PC + 0x4 /* 00000360 */]
0000035E  4E75                     rts
label00000360:
00000360  3D7C 000D 0012           move.w     [A6 + 0x12], 0xD /* '\r' */
00000366  2D4B 002C                move.l     [A6 + 0x2C], A3
0000036A  3D7C FFFF 0030           move.w     [A6 + 0x30], 0xFFFF
00000370  3A2E 0006                move.w     D5, [A6 + 0x6]
00000374  3232 5000                move.w     D1, [A2 + D5.w]
00000378  3D41 000E                move.w     [A6 + 0xE], D1
label0000037C:
0000037C  4EBA 15EE                jsr        [PC + 0x15EE /* 0000196C */]
00000380  266E 002C                movea.l    A3, [A6 + 0x2C]
00000384  161B                     move.b     D3, [A3]+
00000386  4883                     ext.w      D3
00000388  D043                     add.w      D0, D3
0000038A  161B                     move.b     D3, [A3]+
0000038C  4883                     ext.w      D3
0000038E  D243                     add.w      D1, D3
00000390  161B                     move.b     D3, [A3]+
00000392  4883                     ext.w      D3
00000394  286E 0016                movea.l    A4, [A6 + 0x16]
00000398  2274 306C                movea.l    A1, [A4 + D3.w + 0x6C]
0000039C  141B                     move.b     D2, [A3]+
0000039E  4882                     ext.w      D2
000003A0  6C12                     bge        +0x14 /* 000003B4 */
000003A2  0C42 FFFE                cmpi.w     D2, 0xFFFE
000003A6  670C                     beq        +0xE /* 000003B4 */
000003A8  3D7C 0028 0030           move.w     [A6 + 0x30], 0x28 /* '(' */
000003AE  2D4B 002C                move.l     [A6 + 0x2C], A3
000003B2  60C8                     bra        -0x36 /* 0000037C */
label000003B4:
000003B4  206D FFA8                movea.l    A0, [A5 - 0x58]
000003B8  536E 0030                subq.w     [A6 + 0x30], 1
000003BC  675E                     beq        +0x60 /* 0000041C */
000003BE  6E04                     bgt        +0x6 /* 000003C4 */
000003C0  2D4B 002C                move.l     [A6 + 0x2C], A3
label000003C4:
000003C4  0C42 FFFE                cmpi.w     D2, 0xFFFE
000003C8  6714                     beq        +0x16 /* 000003DE */
000003CA  362E 0004                move.w     D3, [A6 + 0x4]
000003CE  B072 3000                cmp.w      D0, [A2 + D3.w]
000003D2  6D14                     blt        +0x16 /* 000003E8 */
000003D4  B072 3002                cmp.w      D0, [A2 + D3.w + 0x2]
000003D8  6E28                     bgt        +0x2A /* 00000402 */
label000003DA:
000003DA  4EAD 0202                jsr        [A5 + 0x202 /* export_60, CODE:4 @ 00000000 */]
label000003DE:
000003DE  4E75                     rts
label000003E0:
000003E0  3D40 000C                move.w     [A6 + 0xC], D0
000003E4  4EFA 10A8                jmp        [PC + 0x10A8 /* 0000148E */]
label000003E8:
000003E8  B072 4002                cmp.w      D0, [A2 + D4.w + 0x2]
000003EC  6EF2                     bgt        -0xC /* 000003E0 */
000003EE  B072 4000                cmp.w      D0, [A2 + D4.w]
000003F2  6D02                     blt        +0x4 /* 000003F6 */
000003F4  60E4                     bra        -0x1A /* 000003DA */
label000003F6:
000003F6  0444 0012                subi.w     D4, 0x12
000003FA  4A72 4000                tst.w      [A2 + D4.w]
000003FE  67E0                     beq        -0x1E /* 000003E0 */
00000400  60E6                     bra        -0x18 /* 000003E8 */
label00000402:
00000402  B072 4002                cmp.w      D0, [A2 + D4.w + 0x2]
00000406  6E08                     bgt        +0xA /* 00000410 */
00000408  B072 4000                cmp.w      D0, [A2 + D4.w]
0000040C  6DD2                     blt        -0x2C /* 000003E0 */
0000040E  60CA                     bra        -0x34 /* 000003DA */
label00000410:
00000410  0644 0012                addi.w     D4, 0x12
00000414  4A72 4000                tst.w      [A2 + D4.w]
00000418  67C6                     beq        -0x38 /* 000003E0 */
0000041A  60E6                     bra        -0x18 /* 00000402 */
fn0000041C:
0000041C  536D FDCC                subq.w     [A5 - 0x234], 1
00000420  50ED FE7D                st         [A5 - 0x183]
00000424  4A6D FDCC                tst.w      [A5 - 0x234]
00000428  6714                     beq        +0x16 /* 0000043E */
0000042A  3B6D FE78 FE76           move.w     [A5 - 0x18A], [A5 - 0x188]
00000430  0C2D 0010 FD3E           cmpi.b     [A5 - 0x2C2], 0x10
00000436  6206                     bhi        +0x8 /* 0000043E */
00000438  1B7C 0010 FD3E           move.b     [A5 - 0x2C2], 0x10
label0000043E:
0000043E  4E75                     rts
00000440  0010 0400                ori.b      [A0], 0x0
00000444  000F 0401                ori.b      A7, 0x1
00000448  000F 0401                ori.b      A7, 0x1
0000044C  000F 0401                ori.b      A7, 0x1
00000450  0010 0400                ori.b      [A0], 0x0
00000454  0003 0001                ori.b      D3, 0x1
00000458  00F6                     .incomplete
0000045A  0001 0008                ori.b      D1, 0x8
0000045E  0402 000F                subi.b     D2, 0xF
00000462  0403 000F                subi.b     D3, 0xF
00000466  0403 0000                subi.b     D3, 0x0
0000046A  00FF                     .incomplete
0000046C  000F 0403                ori.b      A7, 0x3
00000470  ECFE 1C00                bfclr      <<invalid special address>> {D0:32}
00000474  E8FE 1C01                bftst      <<invalid special address>> {D0:1}
00000478  E8FE 1C02                bftst      <<invalid special address>> {D0:2}
0000047C  E8FE 1C02                bftst      <<invalid special address>> {D0:2}
00000480  0000 00FF                ori.b      D0, 0xFF
00000484  E8FE 1C03                bftst      <<invalid special address>> {D0:3}
00000488  04FE                     .incomplete
0000048A  2000                     move.l     D0, D0
0000048C  06FE                     .incomplete
0000048E  2001                     move.l     D0, D1
00000490  06FE                     .incomplete
00000492  2002                     move.l     D0, D2
00000494  06FE                     .incomplete
00000496  2002                     move.l     D0, D2
00000498  0000 00FF                ori.b      D0, 0xFF
0000049C  06FE                     .incomplete
0000049E  2003                     move.l     D0, D3
000004A0  EE02                     asr        D2.b, 7
000004A2  3400                     move.w     D2, D0
000004A4  DF05                     addx.b     D7, D5
000004A6  3401                     move.w     D2, D1
000004A8  CA0B                     and.b      D5, A3
000004AA  3402                     move.w     D2, D2
000004AC  0000 00FF                ori.b      D0, 0xFF
000004B0  BC1F                     cmp.b      D6, [A7]+
000004B2  3800                     move.w     D4, D0
000004B4  1202                     move.b     D1, D2
000004B6  3404                     move.w     D2, D4
000004B8  2105                     move.l     -[A0], D5
000004BA  3405                     move.w     D2, D5
000004BC  360B                     move.w     D3, A3
000004BE  3406                     move.w     D2, D6
000004C0  0000 00FF                ori.b      D0, 0xFF
000004C4  441F                     neg.b      [A7]+
000004C6  3801                     move.w     D4, D1
000004C8  F000 3C00                .pflush    0xF000, 0x3C00 // unimplemented
000004CC  F000 3C01                .pflush    0xF000, 0x3C01 // unimplemented
000004D0  F000 3C02                .pflush    0xF000, 0x3C02 // unimplemented
000004D4  F000 3C03                .pflush    0xF000, 0x3C03 // unimplemented
000004D8  F000 3C04                .pflush    0xF000, 0x3C04 // unimplemented
000004DC  F000 3C04                .pflush    0xF000, 0x3C04 // unimplemented
000004E0  0000 00FF                ori.b      D0, 0xFF
000004E4  F01E 3CFE                .pflush    0xF01E, 0x3CFE // unimplemented
000004E8  FBFA                     .invalid   <<F/7/5>>
000004EA  4400                     neg.b      D0
000004EC  FBFA                     .invalid   <<F/7/5>>
000004EE  4401                     neg.b      D1
000004F0  FBFA                     .invalid   <<F/7/5>>
000004F2  4400                     neg.b      D0
000004F4  FBFA                     .invalid   <<F/7/5>>
000004F6  4401                     neg.b      D1
000004F8  FBFA                     .invalid   <<F/7/5>>
000004FA  4400                     neg.b      D0
000004FC  FBFA                     .invalid   <<F/7/5>>
000004FE  4402                     neg.b      D2
00000500  FBFE                     .invalid   <<F/7/5>>
00000502  4403                     neg.b      D3
00000504  FB0A                     .extension 0xB0A <<F/4-5/5>> // unimplemented
00000506  4800                     nbcd.b     D0
00000508  FB0A                     .extension 0xB0A <<F/4-5/5>> // unimplemented
0000050A  4801                     nbcd.b     D1
0000050C  0000 00FF                ori.b      D0, 0xFF
00000510  FB0A                     .extension 0xB0A <<F/4-5/5>> // unimplemented
00000512  4802                     nbcd.b     D2
export_53:
fn00000514:
00000514  4A6E 002A                tst.w      [A6 + 0x2A]
00000518  6F04                     ble        +0x6 /* 0000051E */
0000051A  536E 002A                subq.w     [A6 + 0x2A], 1
label0000051E:
0000051E  4EAD 03B2                jsr        [A5 + 0x3B2 /* export_114, CODE:4 @ 000059AC */]
00000522  6742                     beq        +0x44 /* 00000566 */
00000524  B1FC 0400 0000           cmpa.l     A0, 0x4000000
0000052A  6604                     bne        +0x6 /* 00000530 */
0000052C  4EFA 0526                jmp        [PC + 0x526 /* 00000A54 */]
label00000530:
00000530  B1FC 0500 0000           cmpa.l     A0, 0x5000000
00000536  662A                     bne        +0x2C /* 00000562 */
00000538  4A6E 002A                tst.w      [A6 + 0x2A]
0000053C  6E28                     bgt        +0x2A /* 00000566 */
0000053E  4A6D FCC4                tst.w      [A5 - 0x33C]
00000542  6F1E                     ble        +0x20 /* 00000562 */
00000544  3F00                     move.w     -[A7], D0
00000546  303C 000C                move.w     D0, 0xC
0000054A  4EAD 0052                jsr        [A5 + 0x52 /* export_6, CODE:1 @ 00000114 */]
0000054E  301F                     move.w     D0, [A7]+
00000550  536D FCC4                subq.w     [A5 - 0x33C], 1
00000554  3D7C 0014 002A           move.w     [A6 + 0x2A], 0x14
0000055A  4EAD 034A                jsr        [A5 + 0x34A /* export_101, CODE:4 @ 00005240 */]
0000055E  6000 0006                bra        +0x8 /* 00000566 */
label00000562:
00000562  6000 005A                bra        +0x5C /* 000005BE */
label00000566:
00000566  41ED FE64                lea.l      A0, [A5 - 0x19C]
0000056A  4EAD 03A2                jsr        [A5 + 0x3A2 /* export_112, CODE:4 @ 000058D0 */]
0000056E  6712                     beq        +0x14 /* 00000582 */
00000570  42A8 0008                clr.l      [A0 + 0x8]
00000574  0C6D 0006 FE78           cmpi.w     [A5 - 0x188], 0x6
0000057A  6600 0042                bne        +0x44 /* 000005BE */
0000057E  4EFA 04D4                jmp        [PC + 0x4D4 /* 00000A54 */]
label00000582:
00000582  0C6D 0001 FDA2           cmpi.w     [A5 - 0x25E], 0x1
00000588  6D00 0196                blt        +0x198 /* 00000720 */
0000058C  4A6E 002A                tst.w      [A6 + 0x2A]
00000590  6E00 018E                bgt        +0x190 /* 00000720 */
00000594  4A6D FCC4                tst.w      [A5 - 0x33C]
00000598  6F1E                     ble        +0x20 /* 000005B8 */
0000059A  3F00                     move.w     -[A7], D0
0000059C  303C 000C                move.w     D0, 0xC
000005A0  4EAD 0052                jsr        [A5 + 0x52 /* export_6, CODE:1 @ 00000114 */]
000005A4  301F                     move.w     D0, [A7]+
000005A6  536D FCC4                subq.w     [A5 - 0x33C], 1
000005AA  3D7C 0014 002A           move.w     [A6 + 0x2A], 0x14
000005B0  4EAD 034A                jsr        [A5 + 0x34A /* export_101, CODE:4 @ 00005240 */]
000005B4  6000 016A                bra        +0x16C /* 00000720 */
label000005B8:
000005B8  4240                     clr.w      D0
000005BA  6000 0002                bra        +0x4 /* 000005BE */
label000005BE:
000005BE  3F00                     move.w     -[A7], D0
000005C0  303C 000A                move.w     D0, 0xA /* '\n' */
000005C4  4EAD 0052                jsr        [A5 + 0x52 /* export_6, CODE:1 @ 00000114 */]
000005C8  301F                     move.w     D0, [A7]+
000005CA  3E2E 0012                move.w     D7, [A6 + 0x12]
000005CE  E547                     asl        D7.w, 2
000005D0  4EFB 7002                jmp        [PC + D7.w + 0x2]
000005D4  4EFA 00CE                jmp        [PC + 0xCE /* 000006A4 */]
000005D8  4EFA 010E                jmp        [PC + 0x10E /* 000006E8 */]
000005DC  4EFA 00C6                jmp        [PC + 0xC6 /* 000006A4 */]
000005E0  4EFA 00C2                jmp        [PC + 0xC2 /* 000006A4 */]
000005E4  4EFA 011C                jmp        [PC + 0x11C /* 00000702 */]
000005E8  4EFA 010C                jmp        [PC + 0x10C /* 000006F6 */]
000005EC  4EFA 00B6                jmp        [PC + 0xB6 /* 000006A4 */]
000005F0  4EFA 00F2                jmp        [PC + 0xF2 /* 000006E4 */]
000005F4  4EFA 00AE                jmp        [PC + 0xAE /* 000006A4 */]
000005F8  4EFA 00FC                jmp        [PC + 0xFC /* 000006F6 */]
000005FC  4EFA 00F8                jmp        [PC + 0xF8 /* 000006F6 */]
00000600  4EFA 00F4                jmp        [PC + 0xF4 /* 000006F6 */]
00000604  4EFA 00A8                jmp        [PC + 0xA8 /* 000006AE */]
00000608  4EFA 009A                jmp        [PC + 0x9A /* 000006A4 */]
0000060C  4EFA 0096                jmp        [PC + 0x96 /* 000006A4 */]
00000610  4EFA 0092                jmp        [PC + 0x92 /* 000006A4 */]
00000614  4EFA 008E                jmp        [PC + 0x8E /* 000006A4 */]
00000618  4EFA 008A                jmp        [PC + 0x8A /* 000006A4 */]
0000061C  4EFA 00D8                jmp        [PC + 0xD8 /* 000006F6 */]
00000620  4EFA 00D4                jmp        [PC + 0xD4 /* 000006F6 */]
00000624  4EFA 007E                jmp        [PC + 0x7E /* 000006A4 */]
00000628  4EFA 007A                jmp        [PC + 0x7A /* 000006A4 */]
0000062C  4EFA 0076                jmp        [PC + 0x76 /* 000006A4 */]
00000630  4EFA 0072                jmp        [PC + 0x72 /* 000006A4 */]
00000634  4EFA 006E                jmp        [PC + 0x6E /* 000006A4 */]
00000638  4EFA 006A                jmp        [PC + 0x6A /* 000006A4 */]
0000063C  4EFA 0066                jmp        [PC + 0x66 /* 000006A4 */]
00000640  4EFA 0062                jmp        [PC + 0x62 /* 000006A4 */]
00000644  4EFA 005E                jmp        [PC + 0x5E /* 000006A4 */]
00000648  4EFA 005A                jmp        [PC + 0x5A /* 000006A4 */]
0000064C  4EFA 0056                jmp        [PC + 0x56 /* 000006A4 */]
00000650  4EFA 0052                jmp        [PC + 0x52 /* 000006A4 */]
00000654  4EFA 004E                jmp        [PC + 0x4E /* 000006A4 */]
00000658  4EFA 004A                jmp        [PC + 0x4A /* 000006A4 */]
0000065C  4EFA 0046                jmp        [PC + 0x46 /* 000006A4 */]
00000660  4EFA 0042                jmp        [PC + 0x42 /* 000006A4 */]
00000664  4EFA 003E                jmp        [PC + 0x3E /* 000006A4 */]
00000668  4EFA 003A                jmp        [PC + 0x3A /* 000006A4 */]
0000066C  4EFA 0036                jmp        [PC + 0x36 /* 000006A4 */]
00000670  4EFA 0032                jmp        [PC + 0x32 /* 000006A4 */]
00000674  4EFA 002E                jmp        [PC + 0x2E /* 000006A4 */]
00000678  4EFA 002A                jmp        [PC + 0x2A /* 000006A4 */]
0000067C  4EFA 0026                jmp        [PC + 0x26 /* 000006A4 */]
00000680  4EFA 0022                jmp        [PC + 0x22 /* 000006A4 */]
00000684  4EFA 001E                jmp        [PC + 0x1E /* 000006A4 */]
00000688  4EFA 001A                jmp        [PC + 0x1A /* 000006A4 */]
0000068C  4EFA 0016                jmp        [PC + 0x16 /* 000006A4 */]
00000690  4EFA 0064                jmp        [PC + 0x64 /* 000006F6 */]
00000694  4EFA 0060                jmp        [PC + 0x60 /* 000006F6 */]
00000698  4EFA 000A                jmp        [PC + 0xA /* 000006A4 */]
0000069C  4EFA 0006                jmp        [PC + 0x6 /* 000006A4 */]
000006A0  4EFA 007E                jmp        [PC + 0x7E /* 00000720 */]
label000006A4:
000006A4  3E2E 0006                move.w     D7, [A6 + 0x6]
000006A8  3D72 7000 000E           move.w     [A6 + 0xE], [A2 + D7.w]
label000006AE:
000006AE  3D7C 000D 0012           move.w     [A6 + 0x12], 0xD /* '\r' */
000006B4  3D7C FFFF 0030           move.w     [A6 + 0x30], 0xFFFF
000006BA  4A6E 001E                tst.w      [A6 + 0x1E]
000006BE  6D10                     blt        +0x12 /* 000006D0 */
000006C0  4A40                     tst.w      D0
000006C2  6D06                     blt        +0x8 /* 000006CA */
000006C4  47FA FDC2                lea.l      A3, [PC - 0x23E /* 00000488, value 0x4FE2000 */]
000006C8  6014                     bra        +0x16 /* 000006DE */
label000006CA:
000006CA  47FA FDD4                lea.l      A3, [PC - 0x22C /* 000004A0, value 0xEE023400 */]
000006CE  600E                     bra        +0x10 /* 000006DE */
label000006D0:
000006D0  4A40                     tst.w      D0
000006D2  6E06                     bgt        +0x8 /* 000006DA */
000006D4  47FA FD9A                lea.l      A3, [PC - 0x266 /* 00000470, value 0xECFE1C00 */]
000006D8  6004                     bra        +0x6 /* 000006DE */
label000006DA:
000006DA  47FA FDD8                lea.l      A3, [PC - 0x228 /* 000004B4, value 0x12023404 */]
label000006DE:
000006DE  2D4B 002C                move.l     [A6 + 0x2C], A3
000006E2  603C                     bra        +0x3E /* 00000720 */
label000006E4:
000006E4  4EFA FACE                jmp        [PC - 0x532 /* 000001B4 */]
label000006E8:
000006E8  362E 0004                move.w     D3, [A6 + 0x4]
000006EC  3D72 300C 0006           move.w     [A6 + 0x6], [A2 + D3.w + 0xC]
000006F2  6000 0002                bra        +0x4 /* 000006F6 */
label000006F6:
000006F6  302E 000C                move.w     D0, [A6 + 0xC]
000006FA  322E 000E                move.w     D1, [A6 + 0xE]
000006FE  4EFA 0D8E                jmp        [PC + 0xD8E /* 0000148E */]
label00000702:
00000702  302E 000C                move.w     D0, [A6 + 0xC]
00000706  322E 000E                move.w     D1, [A6 + 0xE]
0000070A  362E 0006                move.w     D3, [A6 + 0x6]
label0000070E:
0000070E  B272 3000                cmp.w      D1, [A2 + D3.w]
00000712  6D04                     blt        +0x6 /* 00000718 */
00000714  5843                     addq.w     D3, 4
00000716  60F6                     bra        -0x8 /* 0000070E */
label00000718:
00000718  3D43 0006                move.w     [A6 + 0x6], D3
0000071C  4EFA 0D70                jmp        [PC + 0xD70 /* 0000148E */]
label00000720:
00000720  4E75                     rts
fn00000722:
00000722  3E32 5004                move.w     D7, [A2 + D5.w + 0x4]
00000726  0247 00FF                andi.w     D7, 0xFF
0000072A  5347                     subq.w     D7, 1
0000072C  E747                     asl        D7.w, 3
0000072E  3D45 0004                move.w     [A6 + 0x4], D5
00000732  4EFB 7006                jmp        [PC + D7.w + 0x6]
00000736  4E75                     rts
00000738  0000 426E                ori.b      D0, 0x6E /* 'n' */
0000073C  0012 4E75                ori.b      [A2], 0x75 /* 'u' */
00000740  0000 6000                ori.b      D0, 0x0
00000744  0160                     bchg       -[A0], D0
00000746  0000 0000                ori.b      D0, 0x0
0000074A  6000 0158                bra        +0x15A /* 000008A4 */
0000074E  0000 0000                ori.b      D0, 0x0
00000752  6000 0150                bra        +0x152 /* 000008A4 */
00000756  0000 0000                ori.b      D0, 0x0
0000075A  6000 018C                bra        +0x18E /* 000008E8 */
0000075E  0000 0000                ori.b      D0, 0x0
00000762  426E 0012                clr.w      [A6 + 0x12]
00000766  4E75                     rts
00000768  0000 3D7C                ori.b      D0, 0x7C /* '|' */
0000076C  000A 0012                ori.b      A2, 0x12
00000770  4E75                     rts
00000772  3D7C 000B 0012           move.w     [A6 + 0x12], 0xB
00000778  4E75                     rts
0000077A  3D7C 0008 0012           move.w     [A6 + 0x12], 0x8
00000780  4E75                     rts
00000782  3D7C 0008 0012           move.w     [A6 + 0x12], 0x8
00000788  4E75                     rts
0000078A  3D7C 0008 0012           move.w     [A6 + 0x12], 0x8
00000790  4E75                     rts
00000792  426E 0012                clr.w      [A6 + 0x12]
00000796  4E75                     rts
00000798  0000 3D7C                ori.b      D0, 0x7C /* '|' */
0000079C  0012 0012                ori.b      [A2], 0x12
000007A0  4E75                     rts
000007A2  3D7C 0010 0012           move.w     [A6 + 0x12], 0x10
000007A8  4E75                     rts
000007AA  3D7C 0011 0012           move.w     [A6 + 0x12], 0x11
000007B0  4E75                     rts
000007B2  3D7C 0014 0012           move.w     [A6 + 0x12], 0x14
000007B8  4E75                     rts
000007BA  3D7C 0016 0012           move.w     [A6 + 0x12], 0x16
000007C0  4E75                     rts
000007C2  3D7C 0017 0012           move.w     [A6 + 0x12], 0x17
000007C8  4E75                     rts
000007CA  3D7C 001E 0012           move.w     [A6 + 0x12], 0x1E
000007D0  4E75                     rts
000007D2  3D7C 001F 0012           move.w     [A6 + 0x12], 0x1F
000007D8  4E75                     rts
000007DA  3D7C 0020 0012           move.w     [A6 + 0x12], 0x20 /* ' ' */
000007E0  4E75                     rts
000007E2  4A9F                     tst.l      [A7]+
000007E4  6000 008E                bra        +0x90 /* 00000874 */
000007E8  0000 6000                ori.b      D0, 0x0
000007EC  00A4 0000 0000           ori.l      -[A4], 0x0
000007F2  3D7C 0023 0012           move.w     [A6 + 0x12], 0x23 /* '#' */
000007F8  6074                     bra        +0x76 /* 0000086E */
000007FA  3D7C 0024 0012           move.w     [A6 + 0x12], 0x24 /* '$' */
00000800  606C                     bra        +0x6E /* 0000086E */
00000802  3D7C 002A 0012           move.w     [A6 + 0x12], 0x2A /* '*' */
00000808  6064                     bra        +0x66 /* 0000086E */
0000080A  426E 0012                clr.w      [A6 + 0x12]
0000080E  4E75                     rts
00000810  0000 3D7C                ori.b      D0, 0x7C /* '|' */
00000814  0026 0012                ori.b      -[A6], 0x12
00000818  4E75                     rts
0000081A  3D7C 0028 0012           move.w     [A6 + 0x12], 0x28 /* '(' */
00000820  4E75                     rts
00000822  4E71                     nop
00000824  0000 0000                ori.b      D0, 0x0
00000828  0000 3D7C                ori.b      D0, 0x7C /* '|' */
0000082C  0029 0012 4E75           ori.b      [A1 + 0x4E75], 0x12
00000832  3D7C 002B 0012           move.w     [A6 + 0x12], 0x2B /* '+' */
00000838  6034                     bra        +0x36 /* 0000086E */
0000083A  3D7C 002E 0012           move.w     [A6 + 0x12], 0x2E /* '.' */
00000840  4E75                     rts
00000842  3D7C 002E 0012           move.w     [A6 + 0x12], 0x2E /* '.' */
00000848  4E75                     rts
0000084A  426E 002C                clr.w      [A6 + 0x2C]
0000084E  6000 004C                bra        +0x4E /* 0000089C */
00000852  3D7C 0031 0012           move.w     [A6 + 0x12], 0x31 /* '1' */
00000858  4E75                     rts
0000085A  3D7C 0034 0012           move.w     [A6 + 0x12], 0x34 /* '4' */
00000860  600C                     bra        +0xE /* 0000086E */
00000862  6000 004C                bra        +0x4E /* 000008B0 */
00000866  0000 0000                ori.b      D0, 0x0
0000086A  6000 0060                bra        +0x62 /* 000008CC */
label0000086E:
0000086E  426E 002C                clr.w      [A6 + 0x2C]
00000872  4E75                     rts
label00000874:
00000874  3F00                     move.w     -[A7], D0
00000876  303C 0056                move.w     D0, 0x56 /* 'V' */
0000087A  4EAD 0052                jsr        [A5 + 0x52 /* export_6, CODE:1 @ 00000114 */]
0000087E  301F                     move.w     D0, [A7]+
00000880  47FA FC4A                lea.l      A3, [PC - 0x3B6 /* 000004CC, value 0xF0003C01 */]
00000884  3D40 000C                move.w     [A6 + 0xC], D0
00000888  3D41 000E                move.w     [A6 + 0xE], D1
0000088C  4EFA FAD2                jmp        [PC - 0x52E /* 00000360 */]
00000890  426E 002C                clr.w      [A6 + 0x2C]
00000894  3D7C 0022 0012           move.w     [A6 + 0x12], 0x22 /* '\"' */
0000089A  4E75                     rts
label0000089C:
0000089C  3D7C 0030 0012           move.w     [A6 + 0x12], 0x30 /* '0' */
000008A2  4E75                     rts
label000008A4:
000008A4  426E 002E                clr.w      [A6 + 0x2E]
000008A8  3D7C 0002 0012           move.w     [A6 + 0x12], 0x2
000008AE  4E75                     rts
label000008B0:
000008B0  4A6E 000A                tst.w      [A6 + 0xA]
000008B4  6708                     beq        +0xA /* 000008BE */
000008B6  0645 0012                addi.w     D5, 0x12
000008BA  6000 002C                bra        +0x2E /* 000008E8 */
label000008BE:
000008BE  3D7C 0002 0012           move.w     [A6 + 0x12], 0x2
000008C4  3D7C 0008 002E           move.w     [A6 + 0x2E], 0x8
000008CA  4E75                     rts
label000008CC:
000008CC  4A6E 000A                tst.w      [A6 + 0xA]
000008D0  6708                     beq        +0xA /* 000008DA */
000008D2  0645 0012                addi.w     D5, 0x12
000008D6  6000 0010                bra        +0x12 /* 000008E8 */
label000008DA:
000008DA  3D7C 0002 0012           move.w     [A6 + 0x12], 0x2
000008E0  3D7C FFF8 002E           move.w     [A6 + 0x2E], 0xFFF8
000008E6  4E75                     rts
label000008E8:
000008E8  426E 0012                clr.w      [A6 + 0x12]
000008EC  3E2D FDBE                move.w     D7, [A5 - 0x242]
000008F0  BE72 500A                cmp.w      D7, [A2 + D5.w + 0xA]
000008F4  6610                     bne        +0x12 /* 00000906 */
000008F6  48E7 C0C0                movem.l    -[A7], D0,D1,A0,A1
000008FA  202D FDC8                move.l     D0, [A5 - 0x238]
000008FE  4EAD 03CA                jsr        [A5 + 0x3CA /* export_117, CODE:4 @ 00005BF0 */]
00000902  4CDF 0303                movem.l    D0,D1,A0,A1, [A7]+
label00000906:
00000906  3B72 5006 FE76           move.w     [A5 - 0x18A], [A2 + D5.w + 0x6]
0000090C  3B72 5008 FE74           move.w     [A5 - 0x18C], [A2 + D5.w + 0x8]
00000912  50ED FE7D                st         [A5 - 0x183]
00000916  4E75                     rts
fn00000918:
00000918  3A04                     move.w     D5, D4
0000091A  0445 0012                subi.w     D5, 0x12
0000091E  3C32 5002                move.w     D6, [A2 + D5.w + 0x2]
00000922  5246                     addq.w     D6, 1
00000924  BC72 4000                cmp.w      D6, [A2 + D4.w]
00000928  6700 0006                beq        +0x8 /* 00000930 */
0000092C  4EFA 0CB2                jmp        [PC + 0xCB2 /* 000015E0 */]
label00000930:
00000930  0C72 0006 5004           cmpi.w     [A2 + D5.w + 0x4], 0x6
00000936  660E                     bne        +0x10 /* 00000946 */
label00000938:
00000938  3032 4000                move.w     D0, [A2 + D4.w]
0000093C  3D40 000C                move.w     [A6 + 0xC], D0
00000940  426E 0008                clr.w      [A6 + 0x8]
00000944  4E75                     rts
label00000946:
00000946  0C72 001B 5004           cmpi.w     [A2 + D5.w + 0x4], 0x1B
0000094C  6610                     bne        +0x12 /* 0000095E */
0000094E  3D7C 000C 0012           move.w     [A6 + 0x12], 0xC
00000954  47FA F763                lea.l      A3, [PC - 0x89D /* 000000B9, value 0x1400, cstring "" */]
00000958  2D4B 002C                move.l     [A6 + 0x2C], A3
0000095C  60DA                     bra        -0x24 /* 00000938 */
label0000095E:
0000095E  6000 FDC2                bra        -0x23C /* 00000722 */
fn00000962:
00000962  3A04                     move.w     D5, D4
00000964  0645 0012                addi.w     D5, 0x12
00000968  3C32 5000                move.w     D6, [A2 + D5.w]
0000096C  5346                     subq.w     D6, 1
0000096E  BC72 4002                cmp.w      D6, [A2 + D4.w + 0x2]
00000972  6700 0006                beq        +0x8 /* 0000097A */
00000976  4EFA 0C68                jmp        [PC + 0xC68 /* 000015E0 */]
label0000097A:
0000097A  0C72 0006 5004           cmpi.w     [A2 + D5.w + 0x4], 0x6
00000980  660E                     bne        +0x10 /* 00000990 */
label00000982:
00000982  3032 4002                move.w     D0, [A2 + D4.w + 0x2]
00000986  3D40 000C                move.w     [A6 + 0xC], D0
0000098A  426E 0008                clr.w      [A6 + 0x8]
0000098E  4E75                     rts
label00000990:
00000990  0C72 001B 5004           cmpi.w     [A2 + D5.w + 0x4], 0x1B
00000996  6610                     bne        +0x12 /* 000009A8 */
00000998  3D7C 000C 0012           move.w     [A6 + 0x12], 0xC
0000099E  47FA F719                lea.l      A3, [PC - 0x8E7 /* 000000B9, value 0x1400, cstring "" */]
000009A2  2D4B 002C                move.l     [A6 + 0x2C], A3
000009A6  60DA                     bra        -0x24 /* 00000982 */
label000009A8:
000009A8  6000 FD78                bra        -0x286 /* 00000722 */
label000009AC:
000009AC  3D7C 0005 0012           move.w     [A6 + 0x12], 0x5
000009B2  3D41 002C                move.w     [A6 + 0x2C], D1
000009B6  3D7C 000A 002E           move.w     [A6 + 0x2E], 0xA /* '\n' */
000009BC  4E75                     rts
label000009BE:
000009BE  4A6D FD80                tst.w      [A5 - 0x280]
000009C2  6668                     bne        +0x6A /* 00000A2C */
000009C4  0C41 00C6                cmpi.w     D1, 0xC6
000009C8  6E0C                     bgt        +0xE /* 000009D6 */
000009CA  3F00                     move.w     -[A7], D0
000009CC  303C 004F                move.w     D0, 0x4F /* 'O' */
000009D0  4EAD 0052                jsr        [A5 + 0x52 /* export_6, CODE:1 @ 00000114 */]
000009D4  301F                     move.w     D0, [A7]+
label000009D6:
000009D6  206D FFA8                movea.l    A0, [A5 - 0x58]
000009DA  286E 0016                movea.l    A4, [A6 + 0x16]
000009DE  226C 00D0                movea.l    A1, [A4 + 0xD0]
000009E2  4242                     clr.w      D2
000009E4  4EAD 0202                jsr        [A5 + 0x202 /* export_60, CODE:4 @ 00000000 */]
000009E8  066E 0012 000C           addi.w     [A6 + 0xC], 0x12
000009EE  066E 0010 000E           addi.w     [A6 + 0xE], 0x10
000009F4  0C41 00E0                cmpi.w     D1, 0xE0
000009F8  6D2C                     blt        +0x2E /* 00000A26 */
000009FA  3D7C 000C 0012           move.w     [A6 + 0x12], 0xC
00000A00  47FA F694                lea.l      A3, [PC - 0x96C /* 00000096, value 0x100400, cstring "" */]
00000A04  2D4B 002C                move.l     [A6 + 0x2C], A3
00000A08  3D72 4006 000C           move.w     [A6 + 0xC], [A2 + D4.w + 0x6]
00000A0E  3D72 4008 000E           move.w     [A6 + 0xE], [A2 + D4.w + 0x8]
00000A14  3D72 400A 0004           move.w     [A6 + 0x4], [A2 + D4.w + 0xA]
00000A1A  3D72 400C 0006           move.w     [A6 + 0x6], [A2 + D4.w + 0xC]
00000A20  3B7C FFFF FD80           move.w     [A5 - 0x280], 0xFFFF
label00000A26:
00000A26  4EFA FAEC                jmp        [PC - 0x514 /* 00000514 */]
00000A2A  4E75                     rts
label00000A2C:
00000A2C  426E 0012                clr.w      [A6 + 0x12]
00000A30  3032 4006                move.w     D0, [A2 + D4.w + 0x6]
00000A34  3D40 000C                move.w     [A6 + 0xC], D0
00000A38  3232 4008                move.w     D1, [A2 + D4.w + 0x8]
00000A3C  3D41 000E                move.w     [A6 + 0xE], D1
00000A40  3D72 400A 0004           move.w     [A6 + 0x4], [A2 + D4.w + 0xA]
00000A46  3D72 400C 0006           move.w     [A6 + 0x6], [A2 + D4.w + 0xC]
00000A4C  382E 0004                move.w     D4, [A6 + 0x4]
00000A50  4EFA 021A                jmp        [PC + 0x21A /* 00000C6C */]
label00000A54:
00000A54  3F00                     move.w     -[A7], D0
00000A56  303C 0053                move.w     D0, 0x53 /* 'S' */
00000A5A  4EAD 0052                jsr        [A5 + 0x52 /* export_6, CODE:1 @ 00000114 */]
00000A5E  301F                     move.w     D0, [A7]+
00000A60  47FA 0090                lea.l      A3, [PC + 0x90 /* 00000AF2, value 0xFBFA4400 */]
00000A64  2D4B 002C                move.l     [A6 + 0x2C], A3
00000A68  3D7C 002C 0012           move.w     [A6 + 0x12], 0x2C /* ',' */
00000A6E  3D7C FFFF 0030           move.w     [A6 + 0x30], 0xFFFF
00000A74  4E75                     rts
label00000A76:
00000A76  4EBA 0EF4                jsr        [PC + 0xEF4 /* 0000196C */]
00000A7A  266E 002C                movea.l    A3, [A6 + 0x2C]
00000A7E  161B                     move.b     D3, [A3]+
00000A80  4883                     ext.w      D3
00000A82  D043                     add.w      D0, D3
00000A84  161B                     move.b     D3, [A3]+
00000A86  4883                     ext.w      D3
00000A88  D243                     add.w      D1, D3
00000A8A  161B                     move.b     D3, [A3]+
00000A8C  4883                     ext.w      D3
00000A8E  286E 0016                movea.l    A4, [A6 + 0x16]
00000A92  2274 306C                movea.l    A1, [A4 + D3.w + 0x6C]
00000A96  141B                     move.b     D2, [A3]+
00000A98  4882                     ext.w      D2
00000A9A  6C12                     bge        +0x14 /* 00000AAE */
00000A9C  0C42 FFFE                cmpi.w     D2, 0xFFFE
00000AA0  670C                     beq        +0xE /* 00000AAE */
00000AA2  3D7C 0028 0030           move.w     [A6 + 0x30], 0x28 /* '(' */
00000AA8  2D4B 002C                move.l     [A6 + 0x2C], A3
00000AAC  60C8                     bra        -0x36 /* 00000A76 */
label00000AAE:
00000AAE  0C43 0048                cmpi.w     D3, 0x48 /* 'H' */
00000AB2  6624                     bne        +0x26 /* 00000AD8 */
00000AB4  0C42 0000                cmpi.w     D2, 0x0
00000AB8  661E                     bne        +0x20 /* 00000AD8 */
00000ABA  0C72 0200 4004           cmpi.w     [A2 + D4.w + 0x4], 0x200
00000AC0  6E0E                     bgt        +0x10 /* 00000AD0 */
00000AC2  362E 0006                move.w     D3, [A6 + 0x6]
00000AC6  3A2E 000E                move.w     D5, [A6 + 0xE]
00000ACA  BA72 3000                cmp.w      D5, [A2 + D3.w]
00000ACE  6708                     beq        +0xA /* 00000AD8 */
label00000AD0:
00000AD0  322E 000E                move.w     D1, [A6 + 0xE]
00000AD4  4EFA 0038                jmp        [PC + 0x38 /* 00000B0E */]
label00000AD8:
00000AD8  206D FFA8                movea.l    A0, [A5 - 0x58]
00000ADC  536E 0030                subq.w     [A6 + 0x30], 1
00000AE0  6604                     bne        +0x6 /* 00000AE6 */
00000AE2  4EFA F938                jmp        [PC - 0x6C8 /* 0000041C */]
label00000AE6:
00000AE6  6E04                     bgt        +0x6 /* 00000AEC */
00000AE8  2D4B 002C                move.l     [A6 + 0x2C], A3
label00000AEC:
00000AEC  4EAD 0202                jsr        [A5 + 0x202 /* export_60, CODE:4 @ 00000000 */]
00000AF0  4E75                     rts
00000AF2  FBFA                     .invalid   <<F/7/5>>
00000AF4  4400                     neg.b      D0
00000AF6  FBFA                     .invalid   <<F/7/5>>
00000AF8  4402                     neg.b      D2
00000AFA  FBFE                     .invalid   <<F/7/5>>
00000AFC  4403                     neg.b      D3
00000AFE  FB0A                     .extension 0xB0A <<F/4-5/5>> // unimplemented
00000B00  4800                     nbcd.b     D0
00000B02  FB0A                     .extension 0xB0A <<F/4-5/5>> // unimplemented
00000B04  4801                     nbcd.b     D1
00000B06  0000 00FF                ori.b      D0, 0xFF
00000B0A  FB0A                     .extension 0xB0A <<F/4-5/5>> // unimplemented
00000B0C  4802                     nbcd.b     D2
label00000B0E:
00000B0E  3D7C 002D 0012           move.w     [A6 + 0x12], 0x2D /* '-' */
00000B14  3D7C 000A 002E           move.w     [A6 + 0x2E], 0xA /* '\n' */
label00000B1A:
00000B1A  D26E 002E                add.w      D1, [A6 + 0x2E]
00000B1E  506E 002E                addq.w     [A6 + 0x2E], 8
00000B22  343C 0003                move.w     D2, 0x3
00000B26  362E 0006                move.w     D3, [A6 + 0x6]
label00000B2A:
00000B2A  3E32 3000                move.w     D7, [A2 + D3.w]
00000B2E  BE41                     cmp.w      D7, D1
00000B30  6004                     bra        +0x6 /* 00000B36 */
label00000B32:
00000B32  5843                     addq.w     D3, 4
00000B34  60F4                     bra        -0xA /* 00000B2A */
label00000B36:
00000B36  6E00 0050                bgt        +0x52 /* 00000B88 */
00000B3A  3832 3002                move.w     D4, [A2 + D3.w + 0x2]
label00000B3E:
00000B3E  B072 4002                cmp.w      D0, [A2 + D4.w + 0x2]
00000B42  6E14                     bgt        +0x16 /* 00000B58 */
00000B44  B072 4000                cmp.w      D0, [A2 + D4.w]
00000B48  6DE8                     blt        -0x16 /* 00000B32 */
00000B4A  0C72 0200 4004           cmpi.w     [A2 + D4.w + 0x4], 0x200
00000B50  6C06                     bge        +0x8 /* 00000B58 */
00000B52  3232 3000                move.w     D1, [A2 + D3.w]
00000B56  600C                     bra        +0xE /* 00000B64 */
label00000B58:
00000B58  0644 0012                addi.w     D4, 0x12
00000B5C  4A72 4000                tst.w      [A2 + D4.w]
00000B60  67D0                     beq        -0x2E /* 00000B32 */
00000B62  60DA                     bra        -0x24 /* 00000B3E */
label00000B64:
00000B64  3D41 000E                move.w     [A6 + 0xE], D1
00000B68  3D44 0004                move.w     [A6 + 0x4], D4
00000B6C  3D43 0006                move.w     [A6 + 0x6], D3
00000B70  47FA FF8C                lea.l      A3, [PC - 0x74 /* 00000AFE, value 0xFB0A4800 */]
00000B74  2D4B 002C                move.l     [A6 + 0x2C], A3
00000B78  3D7C 002C 0012           move.w     [A6 + 0x12], 0x2C /* ',' */
00000B7E  3D7C FFFF 0030           move.w     [A6 + 0x30], 0xFFFF
00000B84  4EFA FEF0                jmp        [PC - 0x110 /* 00000A76 */]
label00000B88:
00000B88  3D44 0004                move.w     [A6 + 0x4], D4
00000B8C  3D43 0006                move.w     [A6 + 0x6], D3
00000B90  3D41 000E                move.w     [A6 + 0xE], D1
00000B94  5D41                     subq.w     D1, 6
00000B96  206D FFA8                movea.l    A0, [A5 - 0x58]
00000B9A  286E 0016                movea.l    A4, [A6 + 0x16]
00000B9E  226C 00B0                movea.l    A1, [A4 + 0xB0]
00000BA2  4EAD 0202                jsr        [A5 + 0x202 /* export_60, CODE:4 @ 00000000 */]
00000BA6  4E75                     rts
label00000BA8:
00000BA8  3D7C 0033 0012           move.w     [A6 + 0x12], 0x33 /* '3' */
00000BAE  426E 0036                clr.w      [A6 + 0x36]
00000BB2  3D7C 000A 002E           move.w     [A6 + 0x2E], 0xA /* '\n' */
00000BB8  2D49 0030                move.l     [A6 + 0x30], A1
00000BBC  3D42 0034                move.w     [A6 + 0x34], D2
00000BC0  6024                     bra        +0x26 /* 00000BE6 */
export_54:
00000BC2  377C 0033 001A           move.w     [A3 + 0x1A], 0x33 /* '3' */
00000BC8  377C 000A 0036           move.w     [A3 + 0x36], 0xA /* '\n' */
00000BCE  286B 001E                movea.l    A4, [A3 + 0x1E]
00000BD2  276C 00E8 0038           move.l     [A3 + 0x38], [A4 + 0xE8]
00000BD8  426B 003C                clr.w      [A3 + 0x3C]
00000BDC  377C 0001 003E           move.w     [A3 + 0x3E], 0x1
00000BE2  6000 0086                bra        +0x88 /* 00000C6A */
label00000BE6:
00000BE6  D26E 002E                add.w      D1, [A6 + 0x2E]
00000BEA  506E 002E                addq.w     [A6 + 0x2E], 8
00000BEE  362E 0006                move.w     D3, [A6 + 0x6]
label00000BF2:
00000BF2  3E32 3000                move.w     D7, [A2 + D3.w]
00000BF6  BE41                     cmp.w      D7, D1
00000BF8  6004                     bra        +0x6 /* 00000BFE */
label00000BFA:
00000BFA  5843                     addq.w     D3, 4
00000BFC  60F4                     bra        -0xA /* 00000BF2 */
label00000BFE:
00000BFE  6E00 004C                bgt        +0x4E /* 00000C4C */
00000C02  3832 3002                move.w     D4, [A2 + D3.w + 0x2]
label00000C06:
00000C06  B072 4002                cmp.w      D0, [A2 + D4.w + 0x2]
00000C0A  6E22                     bgt        +0x24 /* 00000C2E */
00000C0C  B072 4000                cmp.w      D0, [A2 + D4.w]
00000C10  6DE8                     blt        -0x16 /* 00000BFA */
00000C12  0C72 0200 4004           cmpi.w     [A2 + D4.w + 0x4], 0x200
00000C18  6C14                     bge        +0x16 /* 00000C2E */
00000C1A  4A6E 0036                tst.w      [A6 + 0x36]
00000C1E  6708                     beq        +0xA /* 00000C28 */
00000C20  0C72 001D 4004           cmpi.w     [A2 + D4.w + 0x4], 0x1D
00000C26  6606                     bne        +0x8 /* 00000C2E */
label00000C28:
00000C28  3232 3000                move.w     D1, [A2 + D3.w]
00000C2C  600C                     bra        +0xE /* 00000C3A */
label00000C2E:
00000C2E  0644 0012                addi.w     D4, 0x12
00000C32  4A72 4000                tst.w      [A2 + D4.w]
00000C36  67C2                     beq        -0x3C /* 00000BFA */
00000C38  60CC                     bra        -0x32 /* 00000C06 */
label00000C3A:
00000C3A  3D41 000E                move.w     [A6 + 0xE], D1
00000C3E  3D44 0004                move.w     [A6 + 0x4], D4
00000C42  3D43 0006                move.w     [A6 + 0x6], D3
00000C46  3A04                     move.w     D5, D4
00000C48  4EFA FAD8                jmp        [PC - 0x528 /* 00000722 */]
label00000C4C:
00000C4C  3D44 0004                move.w     [A6 + 0x4], D4
00000C50  3D43 0006                move.w     [A6 + 0x6], D3
00000C54  3D41 000E                move.w     [A6 + 0xE], D1
00000C58  5D41                     subq.w     D1, 6
00000C5A  206D FFA8                movea.l    A0, [A5 - 0x58]
00000C5E  226E 0030                movea.l    A1, [A6 + 0x30]
00000C62  342E 0034                move.w     D2, [A6 + 0x34]
00000C66  4EAD 0202                jsr        [A5 + 0x202 /* export_60, CODE:4 @ 00000000 */]
label00000C6A:
00000C6A  4E75                     rts
export_55:
label00000C6C:
00000C6C  082E 0002 0014           btst.b     [A6 + 0x14], 0x2
00000C72  6714                     beq        +0x16 /* 00000C88 */
00000C74  082E 0004 0015           btst.b     [A6 + 0x15], 0x4
00000C7A  6708                     beq        +0xA /* 00000C84 */
00000C7C  08AE 0003 0014           bclr.b     [A6 + 0x14], 0x3
00000C82  6004                     bra        +0x6 /* 00000C88 */
label00000C84:
00000C84  4EBA 1904                jsr        [PC + 0x1904 /* 0000258A */]
label00000C88:
00000C88  082E 0004 0015           btst.b     [A6 + 0x15], 0x4
00000C8E  670E                     beq        +0x10 /* 00000C9E */
00000C90  082E 0003 0014           btst.b     [A6 + 0x14], 0x3
00000C96  6720                     beq        +0x22 /* 00000CB8 */
00000C98  343C 0001                move.w     D2, 0x1
00000C9C  602C                     bra        +0x2E /* 00000CCA */
label00000C9E:
00000C9E  082E 0003 0014           btst.b     [A6 + 0x14], 0x3
00000CA4  6744                     beq        +0x46 /* 00000CEA */
00000CA6  08EE 0004 0015           bset.b     [A6 + 0x15], 0x4
00000CAC  4242                     clr.w      D2
00000CAE  5041                     addq.w     D1, 8
00000CB0  066E 0011 000E           addi.w     [A6 + 0xE], 0x11
00000CB6  6012                     bra        +0x14 /* 00000CCA */
label00000CB8:
00000CB8  4242                     clr.w      D2
00000CBA  08AE 0004 0015           bclr.b     [A6 + 0x15], 0x4
00000CC0  0441 0009                subi.w     D1, 0x9 /* '\t' */
00000CC4  046E 0011 000E           subi.w     [A6 + 0xE], 0x11
label00000CCA:
00000CCA  206D FFA8                movea.l    A0, [A5 - 0x58]
00000CCE  286E 0016                movea.l    A4, [A6 + 0x16]
00000CD2  4A6E 001E                tst.w      [A6 + 0x1E]
00000CD6  6D06                     blt        +0x8 /* 00000CDE */
00000CD8  226C 0060                movea.l    A1, [A4 + 0x60]
00000CDC  6004                     bra        +0x6 /* 00000CE2 */
label00000CDE:
00000CDE  226C 005C                movea.l    A1, [A4 + 0x5C]
label00000CE2:
00000CE2  4EAD 0202                jsr        [A5 + 0x202 /* export_60, CODE:4 @ 00000000 */]
00000CE6  6000 00C0                bra        +0xC2 /* 00000DA8 */
label00000CEA:
00000CEA  082E 0000 0014           btst.b     [A6 + 0x14], 0x0
00000CF0  670A                     beq        +0xC /* 00000CFC */
00000CF2  3D7C 0003 0012           move.w     [A6 + 0x12], 0x3
00000CF8  6000 0058                bra        +0x5A /* 00000D52 */
label00000CFC:
00000CFC  D06E 0008                add.w      D0, [A6 + 0x8]
00000D00  B072 4000                cmp.w      D0, [A2 + D4.w]
00000D04  6C08                     bge        +0xA /* 00000D0E */
00000D06  4EBA FC10                jsr        [PC - 0x3F0 /* 00000918 */]
00000D0A  4EFA 1D74                jmp        [PC + 0x1D74 /* 00002A80 */]
label00000D0E:
00000D0E  B072 4002                cmp.w      D0, [A2 + D4.w + 0x2]
00000D12  6F08                     ble        +0xA /* 00000D1C */
00000D14  4EBA FC4C                jsr        [PC - 0x3B4 /* 00000962 */]
00000D18  4EFA 1D66                jmp        [PC + 0x1D66 /* 00002A80 */]
label00000D1C:
00000D1C  3D40 000C                move.w     [A6 + 0xC], D0
00000D20  342E 0010                move.w     D2, [A6 + 0x10]
00000D24  286E 0016                movea.l    A4, [A6 + 0x16]
00000D28  4A6E 0008                tst.w      [A6 + 0x8]
00000D2C  6724                     beq        +0x26 /* 00000D52 */
00000D2E  6E10                     bgt        +0x12 /* 00000D40 */
00000D30  2254                     movea.l    A1, [A4]
00000D32  2D49 001A                move.l     [A6 + 0x1A], A1
00000D36  3D7C FFFF 001E           move.w     [A6 + 0x1E], 0xFFFF
00000D3C  5242                     addq.w     D2, 1
00000D3E  603E                     bra        +0x40 /* 00000D7E */
label00000D40:
00000D40  226C 0004                movea.l    A1, [A4 + 0x4]
00000D44  2D49 001A                move.l     [A6 + 0x1A], A1
00000D48  3D7C 0001 001E           move.w     [A6 + 0x1E], 0x1
00000D4E  5242                     addq.w     D2, 1
00000D50  602C                     bra        +0x2E /* 00000D7E */
label00000D52:
00000D52  206D FFA8                movea.l    A0, [A5 - 0x58]
00000D56  286E 0016                movea.l    A4, [A6 + 0x16]
00000D5A  226C 0030                movea.l    A1, [A4 + 0x30]
00000D5E  4A6E 001E                tst.w      [A6 + 0x1E]
00000D62  6D0E                     blt        +0x10 /* 00000D72 */
00000D64  343C 0003                move.w     D2, 0x3
00000D68  4EAD 0202                jsr        [A5 + 0x202 /* export_60, CODE:4 @ 00000000 */]
00000D6C  4EBA 2678                jsr        [PC + 0x2678 /* 000033E6 */]
00000D70  6036                     bra        +0x38 /* 00000DA8 */
label00000D72:
00000D72  4242                     clr.w      D2
00000D74  4EBA 2670                jsr        [PC + 0x2670 /* 000033E6 */]
00000D78  4EAD 0202                jsr        [A5 + 0x202 /* export_60, CODE:4 @ 00000000 */]
00000D7C  602A                     bra        +0x2C /* 00000DA8 */
label00000D7E:
00000D7E  B469 0002                cmp.w      D2, [A1 + 0x2]
00000D82  6D02                     blt        +0x4 /* 00000D86 */
00000D84  4242                     clr.w      D2
label00000D86:
00000D86  3D42 0010                move.w     [A6 + 0x10], D2
00000D8A  206D FFA8                movea.l    A0, [A5 - 0x58]
00000D8E  0C42 0000                cmpi.w     D2, 0x0
00000D92  6706                     beq        +0x8 /* 00000D9A */
00000D94  0C42 0003                cmpi.w     D2, 0x3
00000D98  660A                     bne        +0xC /* 00000DA4 */
label00000D9A:
00000D9A  3F00                     move.w     -[A7], D0
00000D9C  4240                     clr.w      D0
00000D9E  4EAD 0052                jsr        [A5 + 0x52 /* export_6, CODE:1 @ 00000114 */]
00000DA2  301F                     move.w     D0, [A7]+
label00000DA4:
00000DA4  4EAD 0202                jsr        [A5 + 0x202 /* export_60, CODE:4 @ 00000000 */]
label00000DA8:
00000DA8  4EFA F76A                jmp        [PC - 0x896 /* 00000514 */]
label00000DAC:
00000DAC  342E 0010                move.w     D2, [A6 + 0x10]
00000DB0  3A2E 002C                move.w     D5, [A6 + 0x2C]
00000DB4  286E 0016                movea.l    A4, [A6 + 0x16]
00000DB8  226C 0008                movea.l    A1, [A4 + 0x8]
00000DBC  4A6E 000A                tst.w      [A6 + 0xA]
00000DC0  663A                     bne        +0x3C /* 00000DFC */
00000DC2  4A6E 002E                tst.w      [A6 + 0x2E]
00000DC6  6614                     bne        +0x16 /* 00000DDC */
00000DC8  3F00                     move.w     -[A7], D0
00000DCA  303C 000E                move.w     D0, 0xE
00000DCE  4EAD 005A                jsr        [A5 + 0x5A /* export_7, CODE:1 @ 00000150 */]
00000DD2  301F                     move.w     D0, [A7]+
00000DD4  426E 0030                clr.w      [A6 + 0x30]
00000DD8  6000 00E4                bra        +0xE6 /* 00000EBE */
label00000DDC:
00000DDC  536E 0030                subq.w     [A6 + 0x30], 1
00000DE0  6E12                     bgt        +0x14 /* 00000DF4 */
00000DE2  3F00                     move.w     -[A7], D0
00000DE4  303C 000E                move.w     D0, 0xE
00000DE8  4EAD 0052                jsr        [A5 + 0x52 /* export_6, CODE:1 @ 00000114 */]
00000DEC  301F                     move.w     D0, [A7]+
00000DEE  3D7C 0008 0030           move.w     [A6 + 0x30], 0x8
label00000DF4:
00000DF4  4A6E 002E                tst.w      [A6 + 0x2E]
00000DF8  6D6E                     blt        +0x70 /* 00000E68 */
00000DFA  6E22                     bgt        +0x24 /* 00000E1E */
label00000DFC:
00000DFC  426E 002E                clr.w      [A6 + 0x2E]
00000E00  536E 0030                subq.w     [A6 + 0x30], 1
00000E04  6E12                     bgt        +0x14 /* 00000E18 */
00000E06  3F00                     move.w     -[A7], D0
00000E08  303C 000E                move.w     D0, 0xE
00000E0C  4EAD 0052                jsr        [A5 + 0x52 /* export_6, CODE:1 @ 00000114 */]
00000E10  301F                     move.w     D0, [A7]+
00000E12  3D7C 0008 0030           move.w     [A6 + 0x30], 0x8
label00000E18:
00000E18  4A6E 000A                tst.w      [A6 + 0xA]
00000E1C  6D4A                     blt        +0x4C /* 00000E68 */
label00000E1E:
00000E1E  0641 000A                addi.w     D1, 0xA /* '\n' */
00000E22  3632 400C                move.w     D3, [A2 + D4.w + 0xC]
00000E26  B272 3000                cmp.w      D1, [A2 + D3.w]
00000E2A  6D30                     blt        +0x32 /* 00000E5C */
00000E2C  3232 3000                move.w     D1, [A2 + D3.w]
00000E30  3D41 000E                move.w     [A6 + 0xE], D1
00000E34  0C72 0027 5004           cmpi.w     [A2 + D5.w + 0x4], 0x27 /* '\'' */
00000E3A  6718                     beq        +0x1A /* 00000E54 */
00000E3C  3D7C 0002 0012           move.w     [A6 + 0x12], 0x2
00000E42  3D45 0004                move.w     [A6 + 0x4], D5
00000E46  3805                     move.w     D4, D5
00000E48  3D43 0006                move.w     [A6 + 0x6], D3
00000E4C  426E 002E                clr.w      [A6 + 0x2E]
00000E50  6000 0080                bra        +0x82 /* 00000ED2 */
label00000E54:
00000E54  0645 0012                addi.w     D5, 0x12
00000E58  4EFA FA8E                jmp        [PC - 0x572 /* 000008E8 */]
label00000E5C:
00000E5C  5242                     addq.w     D2, 1
00000E5E  B469 0002                cmp.w      D2, [A1 + 0x2]
00000E62  6D5A                     blt        +0x5C /* 00000EBE */
00000E64  4242                     clr.w      D2
00000E66  6056                     bra        +0x58 /* 00000EBE */
label00000E68:
00000E68  0441 000A                subi.w     D1, 0xA /* '\n' */
00000E6C  3632 500A                move.w     D3, [A2 + D5.w + 0xA]
00000E70  3C32 3000                move.w     D6, [A2 + D3.w]
00000E74  0646 0028                addi.w     D6, 0x28 /* '(' */
00000E78  B246                     cmp.w      D1, D6
00000E7A  6E36                     bgt        +0x38 /* 00000EB2 */
00000E7C  0C72 0026 4004           cmpi.w     [A2 + D4.w + 0x4], 0x26 /* '&' */
00000E82  6724                     beq        +0x26 /* 00000EA8 */
00000E84  3D7C 000F 0012           move.w     [A6 + 0x12], 0xF
00000E8A  426E 0010                clr.w      [A6 + 0x10]
00000E8E  0641 000A                addi.w     D1, 0xA /* '\n' */
00000E92  3206                     move.w     D1, D6
00000E94  3D41 000E                move.w     [A6 + 0xE], D1
00000E98  3D44 0004                move.w     [A6 + 0x4], D4
00000E9C  3D43 0006                move.w     [A6 + 0x6], D3
00000EA0  426E 002E                clr.w      [A6 + 0x2E]
00000EA4  6000 00CA                bra        +0xCC /* 00000F70 */
label00000EA8:
00000EA8  3A04                     move.w     D5, D4
00000EAA  0645 0012                addi.w     D5, 0x12
00000EAE  4EFA FA38                jmp        [PC - 0x5C8 /* 000008E8 */]
label00000EB2:
00000EB2  5342                     subq.w     D2, 1
00000EB4  6C08                     bge        +0xA /* 00000EBE */
00000EB6  3429 0002                move.w     D2, [A1 + 0x2]
00000EBA  5342                     subq.w     D2, 1
00000EBC  4E71                     nop
label00000EBE:
00000EBE  206D FFA8                movea.l    A0, [A5 - 0x58]
00000EC2  3D42 0010                move.w     [A6 + 0x10], D2
00000EC6  3D41 000E                move.w     [A6 + 0xE], D1
00000ECA  4EAD 0202                jsr        [A5 + 0x202 /* export_60, CODE:4 @ 00000000 */]
00000ECE  4EFA F644                jmp        [PC - 0x9BC /* 00000514 */]
label00000ED2:
00000ED2  4A6E 002E                tst.w      [A6 + 0x2E]
00000ED6  6612                     bne        +0x14 /* 00000EEA */
00000ED8  082E 0004 0015           btst.b     [A6 + 0x15], 0x4
00000EDE  6606                     bne        +0x8 /* 00000EE6 */
00000EE0  4A6E 000A                tst.w      [A6 + 0xA]
00000EE4  6604                     bne        +0x6 /* 00000EEA */
label00000EE6:
00000EE6  4EFA FD84                jmp        [PC - 0x27C /* 00000C6C */]
label00000EEA:
00000EEA  6A44                     bpl        +0x46 /* 00000F30 */
00000EEC  363C 0002                move.w     D3, 0x2
00000EF0  B672 4004                cmp.w      D3, [A2 + D4.w + 0x4]
00000EF4  6604                     bne        +0x6 /* 00000EFA */
00000EF6  4EFA FD74                jmp        [PC - 0x28C /* 00000C6C */]
label00000EFA:
00000EFA  0C72 0027 4004           cmpi.w     [A2 + D4.w + 0x4], 0x27 /* '\'' */
00000F00  6704                     beq        +0x6 /* 00000F06 */
00000F02  426E 002E                clr.w      [A6 + 0x2E]
label00000F06:
00000F06  3D7C 0001 0012           move.w     [A6 + 0x12], 0x1
00000F0C  3D44 002C                move.w     [A6 + 0x2C], D4
00000F10  3032 4000                move.w     D0, [A2 + D4.w]
00000F14  3832 4006                move.w     D4, [A2 + D4.w + 0x6]
00000F18  3D44 0004                move.w     [A6 + 0x4], D4
00000F1C  3D40 000C                move.w     [A6 + 0xC], D0
00000F20  526E 000C                addq.w     [A6 + 0xC], 1
00000F24  426E 0010                clr.w      [A6 + 0x10]
00000F28  426E 0030                clr.w      [A6 + 0x30]
00000F2C  6000 FE7E                bra        -0x180 /* 00000DAC */
label00000F30:
00000F30  363C 0003                move.w     D3, 0x3
00000F34  B672 4004                cmp.w      D3, [A2 + D4.w + 0x4]
00000F38  6604                     bne        +0x6 /* 00000F3E */
00000F3A  4EFA FD30                jmp        [PC - 0x2D0 /* 00000C6C */]
label00000F3E:
00000F3E  0C72 0026 4004           cmpi.w     [A2 + D4.w + 0x4], 0x26 /* '&' */
00000F44  6704                     beq        +0x6 /* 00000F4A */
00000F46  426E 002E                clr.w      [A6 + 0x2E]
label00000F4A:
00000F4A  3D7C 000E 0012           move.w     [A6 + 0x12], 0xE
00000F50  3D44 0004                move.w     [A6 + 0x4], D4
00000F54  3D72 4008 002C           move.w     [A6 + 0x2C], [A2 + D4.w + 0x8]
00000F5A  3032 4000                move.w     D0, [A2 + D4.w]
00000F5E  3D40 000C                move.w     [A6 + 0xC], D0
00000F62  526E 000C                addq.w     [A6 + 0xC], 1
00000F66  3D7C 0003 0010           move.w     [A6 + 0x10], 0x3
00000F6C  6000 003E                bra        +0x40 /* 00000FAC */
label00000F70:
00000F70  342E 0010                move.w     D2, [A6 + 0x10]
00000F74  206D FFA8                movea.l    A0, [A5 - 0x58]
00000F78  286E 0016                movea.l    A4, [A6 + 0x16]
00000F7C  226C 000C                movea.l    A1, [A4 + 0xC]
00000F80  0441 000A                subi.w     D1, 0xA /* '\n' */
00000F84  4EAD 0202                jsr        [A5 + 0x202 /* export_60, CODE:4 @ 00000000 */]
00000F88  5242                     addq.w     D2, 1
00000F8A  B469 0002                cmp.w      D2, [A1 + 0x2]
00000F8E  6D10                     blt        +0x12 /* 00000FA0 */
00000F90  4242                     clr.w      D2
00000F92  3D7C 0002 0012           move.w     [A6 + 0x12], 0x2
00000F98  362E 0006                move.w     D3, [A6 + 0x6]
00000F9C  3232 3000                move.w     D1, [A2 + D3.w]
label00000FA0:
00000FA0  3D42 0010                move.w     [A6 + 0x10], D2
00000FA4  3D41 000E                move.w     [A6 + 0xE], D1
00000FA8  4EFA F56A                jmp        [PC - 0xA96 /* 00000514 */]
label00000FAC:
00000FAC  342E 0010                move.w     D2, [A6 + 0x10]
00000FB0  206D FFA8                movea.l    A0, [A5 - 0x58]
00000FB4  286E 0016                movea.l    A4, [A6 + 0x16]
00000FB8  226C 000C                movea.l    A1, [A4 + 0xC]
00000FBC  4EAD 0202                jsr        [A5 + 0x202 /* export_60, CODE:4 @ 00000000 */]
00000FC0  5342                     subq.w     D2, 1
00000FC2  6C12                     bge        +0x14 /* 00000FD6 */
00000FC4  4242                     clr.w      D2
00000FC6  3D7C 0001 0012           move.w     [A6 + 0x12], 0x1
00000FCC  426E 0030                clr.w      [A6 + 0x30]
00000FD0  046E 000A 000E           subi.w     [A6 + 0xE], 0xA /* '\n' */
label00000FD6:
00000FD6  3D42 0010                move.w     [A6 + 0x10], D2
00000FDA  066E 000A 000E           addi.w     [A6 + 0xE], 0xA /* '\n' */
00000FE0  4EFA F532                jmp        [PC - 0xACE /* 00000514 */]
label00000FE4:
00000FE4  342E 0010                move.w     D2, [A6 + 0x10]
00000FE8  3A2E 002C                move.w     D5, [A6 + 0x2C]
00000FEC  286E 0016                movea.l    A4, [A6 + 0x16]
00000FF0  4A6E 000A                tst.w      [A6 + 0xA]
00000FF4  6700 00F0                beq        +0xF2 /* 000010E6 */
00000FF8  6D7C                     blt        +0x7E /* 00001076 */
00000FFA  4A6E 0030                tst.w      [A6 + 0x30]
00000FFE  6D10                     blt        +0x12 /* 00001010 */
00001000  3D7C 0001 001E           move.w     [A6 + 0x1E], 0x1
00001006  3E3C 0012                move.w     D7, 0x12
0000100A  226C 0024                movea.l    A1, [A4 + 0x24]
0000100E  600E                     bra        +0x10 /* 0000101E */
label00001010:
00001010  3D7C FFFF 001E           move.w     [A6 + 0x1E], 0xFFFF
00001016  3E3C FFEE                move.w     D7, 0xFFEE
0000101A  226C 002C                movea.l    A1, [A4 + 0x2C]
label0000101E:
0000101E  3632 400C                move.w     D3, [A2 + D4.w + 0xC]
00001022  3C32 3000                move.w     D6, [A2 + D3.w]
00001026  0446 0009                subi.w     D6, 0x9 /* '\t' */
0000102A  B246                     cmp.w      D1, D6
0000102C  6D1C                     blt        +0x1E /* 0000104A */
0000102E  3D7C 0008 0012           move.w     [A6 + 0x12], 0x8
00001034  3232 3000                move.w     D1, [A2 + D3.w]
00001038  3D41 000E                move.w     [A6 + 0xE], D1
0000103C  3D45 0004                move.w     [A6 + 0x4], D5
00001040  3805                     move.w     D4, D5
00001042  3D43 0006                move.w     [A6 + 0x6], D3
00001046  6000 00C0                bra        +0xC2 /* 00001108 */
label0000104A:
0000104A  5242                     addq.w     D2, 1
0000104C  0C42 0000                cmpi.w     D2, 0x0
00001050  6706                     beq        +0x8 /* 00001058 */
00001052  0C42 0003                cmpi.w     D2, 0x3
00001056  660A                     bne        +0xC /* 00001062 */
label00001058:
00001058  3F00                     move.w     -[A7], D0
0000105A  4240                     clr.w      D0
0000105C  4EAD 0052                jsr        [A5 + 0x52 /* export_6, CODE:1 @ 00000114 */]
00001060  301F                     move.w     D0, [A7]+
label00001062:
00001062  B469 0002                cmp.w      D2, [A1 + 0x2]
00001066  6D00 0082                blt        +0x84 /* 000010EA */
0000106A  D047                     add.w      D0, D7
0000106C  0641 000A                addi.w     D1, 0xA /* '\n' */
00001070  4242                     clr.w      D2
00001072  6000 0076                bra        +0x78 /* 000010EA */
label00001076:
00001076  4A6E 0030                tst.w      [A6 + 0x30]
0000107A  6D10                     blt        +0x12 /* 0000108C */
0000107C  3D7C FFFF 001E           move.w     [A6 + 0x1E], 0xFFFF
00001082  3E3C FFEE                move.w     D7, 0xFFEE
00001086  226C 0028                movea.l    A1, [A4 + 0x28]
0000108A  600E                     bra        +0x10 /* 0000109A */
label0000108C:
0000108C  3D7C 0001 001E           move.w     [A6 + 0x1E], 0x1
00001092  3E3C 0012                move.w     D7, 0x12
00001096  226C 0020                movea.l    A1, [A4 + 0x20]
label0000109A:
0000109A  3632 500A                move.w     D3, [A2 + D5.w + 0xA]
0000109E  B272 3000                cmp.w      D1, [A2 + D3.w]
000010A2  6E1A                     bgt        +0x1C /* 000010BE */
000010A4  3D7C 0008 0012           move.w     [A6 + 0x12], 0x8
000010AA  3232 3000                move.w     D1, [A2 + D3.w]
000010AE  3D41 000E                move.w     [A6 + 0xE], D1
000010B2  3D44 0004                move.w     [A6 + 0x4], D4
000010B6  3D43 0006                move.w     [A6 + 0x6], D3
000010BA  6000 004C                bra        +0x4E /* 00001108 */
label000010BE:
000010BE  5242                     addq.w     D2, 1
000010C0  0C42 0000                cmpi.w     D2, 0x0
000010C4  6706                     beq        +0x8 /* 000010CC */
000010C6  0C42 0003                cmpi.w     D2, 0x3
000010CA  660A                     bne        +0xC /* 000010D6 */
label000010CC:
000010CC  3F00                     move.w     -[A7], D0
000010CE  4240                     clr.w      D0
000010D0  4EAD 0052                jsr        [A5 + 0x52 /* export_6, CODE:1 @ 00000114 */]
000010D4  301F                     move.w     D0, [A7]+
label000010D6:
000010D6  B469 0002                cmp.w      D2, [A1 + 0x2]
000010DA  6D0E                     blt        +0x10 /* 000010EA */
000010DC  4242                     clr.w      D2
000010DE  D047                     add.w      D0, D7
000010E0  0441 000A                subi.w     D1, 0xA /* '\n' */
000010E4  6004                     bra        +0x6 /* 000010EA */
label000010E6:
000010E6  226E 001A                movea.l    A1, [A6 + 0x1A]
label000010EA:
000010EA  206D FFA8                movea.l    A0, [A5 - 0x58]
000010EE  3D42 0010                move.w     [A6 + 0x10], D2
000010F2  3D40 000C                move.w     [A6 + 0xC], D0
000010F6  3D41 000E                move.w     [A6 + 0xE], D1
000010FA  2D49 001A                move.l     [A6 + 0x1A], A1
000010FE  5341                     subq.w     D1, 1
00001100  4EAD 0202                jsr        [A5 + 0x202 /* export_60, CODE:4 @ 00000000 */]
00001104  4EFA F40E                jmp        [PC - 0xBF2 /* 00000514 */]
label00001108:
00001108  082E 0004 0015           btst.b     [A6 + 0x15], 0x4
0000110E  6606                     bne        +0x8 /* 00001116 */
00001110  4A6E 000A                tst.w      [A6 + 0xA]
00001114  6604                     bne        +0x6 /* 0000111A */
label00001116:
00001116  4EFA FB54                jmp        [PC - 0x4AC /* 00000C6C */]
label0000111A:
0000111A  6A4A                     bpl        +0x4C /* 00001166 */
0000111C  363C 0009                move.w     D3, 0x9 /* '\t' */
00001120  B672 4004                cmp.w      D3, [A2 + D4.w + 0x4]
00001124  6604                     bne        +0x6 /* 0000112A */
00001126  4EFA FB44                jmp        [PC - 0x4BC /* 00000C6C */]
label0000112A:
0000112A  3D7C 0007 0012           move.w     [A6 + 0x12], 0x7
00001130  3D44 002C                move.w     [A6 + 0x2C], D4
00001134  3D72 4006 0004           move.w     [A6 + 0x4], [A2 + D4.w + 0x6]
0000113A  426E 0010                clr.w      [A6 + 0x10]
0000113E  3D72 400E 0030           move.w     [A6 + 0x30], [A2 + D4.w + 0xE]
00001144  6A0A                     bpl        +0xC /* 00001150 */
00001146  3032 4002                move.w     D0, [A2 + D4.w + 0x2]
0000114A  3D40 000C                move.w     [A6 + 0xC], D0
0000114E  6008                     bra        +0xA /* 00001158 */
label00001150:
00001150  3032 4000                move.w     D0, [A2 + D4.w]
00001154  3D40 000C                move.w     [A6 + 0xC], D0
label00001158:
00001158  5F41                     subq.w     D1, 7
0000115A  3D41 000E                move.w     [A6 + 0xE], D1
0000115E  382E 0004                move.w     D4, [A6 + 0x4]
00001162  6000 FE80                bra        -0x17E /* 00000FE4 */
label00001166:
00001166  363C 000A                move.w     D3, 0xA /* '\n' */
0000116A  B672 4004                cmp.w      D3, [A2 + D4.w + 0x4]
0000116E  6604                     bne        +0x6 /* 00001174 */
00001170  4EFA FAFA                jmp        [PC - 0x506 /* 00000C6C */]
label00001174:
00001174  3D7C 0007 0012           move.w     [A6 + 0x12], 0x7
0000117A  3D44 0004                move.w     [A6 + 0x4], D4
0000117E  3D72 4008 002C           move.w     [A6 + 0x2C], [A2 + D4.w + 0x8]
00001184  426E 0010                clr.w      [A6 + 0x10]
00001188  3D72 400E 0030           move.w     [A6 + 0x30], [A2 + D4.w + 0xE]
0000118E  6A12                     bpl        +0x14 /* 000011A2 */
00001190  3032 4000                move.w     D0, [A2 + D4.w]
00001194  5140                     subq.w     D0, 8
00001196  3D40 000C                move.w     [A6 + 0xC], D0
0000119A  5541                     subq.w     D1, 2
0000119C  3D41 000E                move.w     [A6 + 0xE], D1
000011A0  6010                     bra        +0x12 /* 000011B2 */
label000011A2:
000011A2  3032 4002                move.w     D0, [A2 + D4.w + 0x2]
000011A6  5A40                     addq.w     D0, 5
000011A8  3D40 000C                move.w     [A6 + 0xC], D0
000011AC  5541                     subq.w     D1, 2
000011AE  3D41 000E                move.w     [A6 + 0xE], D1
label000011B2:
000011B2  6000 FE30                bra        -0x1CE /* 00000FE4 */
label000011B6:
000011B6  08AE 0000 0014           bclr.b     [A6 + 0x14], 0x0
000011BC  3D6E 0008 002C           move.w     [A6 + 0x2C], [A6 + 0x8]
000011C2  670C                     beq        +0xE /* 000011D0 */
000011C4  1D7C 0001 0032           move.b     [A6 + 0x32], 0x1
000011CA  47FA 01D8                lea.l      A3, [PC + 0x1D8 /* 000013A4, value 0x8FFFF, cstring "" */]
000011CE  601A                     bra        +0x1C /* 000011EA */
label000011D0:
000011D0  422E 0032                clr.b      [A6 + 0x32]
000011D4  3D6E 001E 002C           move.w     [A6 + 0x2C], [A6 + 0x1E]
000011DA  4A6E 000A                tst.w      [A6 + 0xA]
000011DE  6E06                     bgt        +0x8 /* 000011E6 */
000011E0  47FA 0202                lea.l      A3, [PC + 0x202 /* 000013E4, value 0x2FFFF, cstring "" */]
000011E4  6004                     bra        +0x6 /* 000011EA */
label000011E6:
000011E6  47FA 024C                lea.l      A3, [PC + 0x24C /* 00001434, value 0x2FFFF, cstring "" */]
label000011EA:
000011EA  2D4B 002E                move.l     [A6 + 0x2E], A3
000011EE  3D7C 0004 0012           move.w     [A6 + 0x12], 0x4
000011F4  596E 0006                subq.w     [A6 + 0x6], 4
000011F8  1D7C 00FF 0033           move.b     [A6 + 0x33], 0xFF
000011FE  4E71                     nop
label00001200:
00001200  266E 002E                movea.l    A3, [A6 + 0x2E]
00001204  50AE 002E                addq.l     [A6 + 0x2E], 8
00001208  4A53                     tst.w      [A3]
0000120A  6C0C                     bge        +0xE /* 00001218 */
label0000120C:
0000120C  0441 000A                subi.w     D1, 0xA /* '\n' */
00001210  3D41 000E                move.w     [A6 + 0xE], D1
00001214  4EFA 0266                jmp        [PC + 0x266 /* 0000147C */]
label00001218:
00001218  286E 0016                movea.l    A4, [A6 + 0x16]
0000121C  3C00                     move.w     D6, D0
0000121E  4A6E 002C                tst.w      [A6 + 0x2C]
00001222  6D2E                     blt        +0x30 /* 00001252 */
00001224  D05B                     add.w      D0, [A3]+
00001226  B06D FD78                cmp.w      D0, [A5 - 0x288]
0000122A  6D14                     blt        +0x16 /* 00001240 */
0000122C  302D FD78                move.w     D0, [A5 - 0x288]
00001230  3D40 000C                move.w     [A6 + 0xC], D0
00001234  4A2E 0033                tst.b      [A6 + 0x33]
00001238  6AD2                     bpl        -0x2C /* 0000120C */
0000123A  586E 0006                addq.w     [A6 + 0x6], 4
0000123E  60CC                     bra        -0x32 /* 0000120C */
label00001240:
00001240  4A2E 0032                tst.b      [A6 + 0x32]
00001244  6706                     beq        +0x8 /* 0000124C */
00001246  226C 0014                movea.l    A1, [A4 + 0x14]
0000124A  6034                     bra        +0x36 /* 00001280 */
label0000124C:
0000124C  226C 001C                movea.l    A1, [A4 + 0x1C]
00001250  602E                     bra        +0x30 /* 00001280 */
label00001252:
00001252  905B                     sub.w      D0, [A3]+
00001254  B06D FD7A                cmp.w      D0, [A5 - 0x286]
00001258  6E14                     bgt        +0x16 /* 0000126E */
0000125A  302D FD7A                move.w     D0, [A5 - 0x286]
0000125E  3D40 000C                move.w     [A6 + 0xC], D0
00001262  4A2E 0033                tst.b      [A6 + 0x33]
00001266  6AA4                     bpl        -0x5A /* 0000120C */
00001268  586E 0006                addq.w     [A6 + 0x6], 4
0000126C  609E                     bra        -0x60 /* 0000120C */
label0000126E:
0000126E  4A2E 0032                tst.b      [A6 + 0x32]
00001272  6706                     beq        +0x8 /* 0000127A */
00001274  226C 0010                movea.l    A1, [A4 + 0x10]
00001278  6006                     bra        +0x8 /* 00001280 */
label0000127A:
0000127A  226C 0018                movea.l    A1, [A4 + 0x18]
0000127E  4E71                     nop
label00001280:
00001280  3E1B                     move.w     D7, [A3]+
00001282  D247                     add.w      D1, D7
00001284  4A47                     tst.w      D7
00001286  6E4C                     bgt        +0x4E /* 000012D4 */
00001288  362E 0006                move.w     D3, [A6 + 0x6]
label0000128C:
0000128C  3E32 3000                move.w     D7, [A2 + D3.w]
00001290  6700 009A                beq        +0x9C /* 0000132C */
00001294  BE41                     cmp.w      D7, D1
00001296  6004                     bra        +0x6 /* 0000129C */
label00001298:
00001298  5943                     subq.w     D3, 4
0000129A  60F0                     bra        -0xE /* 0000128C */
label0000129C:
0000129C  6D00 008E                blt        +0x90 /* 0000132C */
000012A0  3832 3002                move.w     D4, [A2 + D3.w + 0x2]
label000012A4:
000012A4  B072 4002                cmp.w      D0, [A2 + D4.w + 0x2]
000012A8  6E1E                     bgt        +0x20 /* 000012C8 */
000012AA  B072 4000                cmp.w      D0, [A2 + D4.w]
000012AE  6DE8                     blt        -0x16 /* 00001298 */
000012B0  3A04                     move.w     D5, D4
000012B2  3232 3000                move.w     D1, [A2 + D3.w]
000012B6  3F00                     move.w     -[A7], D0
000012B8  303C 0004                move.w     D0, 0x4
000012BC  4EAD 0052                jsr        [A5 + 0x52 /* export_6, CODE:1 @ 00000114 */]
000012C0  301F                     move.w     D0, [A7]+
000012C2  4EBA F45E                jsr        [PC - 0xBA2 /* 00000722 */]
000012C6  6064                     bra        +0x66 /* 0000132C */
label000012C8:
000012C8  0644 0012                addi.w     D4, 0x12
000012CC  4A72 4000                tst.w      [A2 + D4.w]
000012D0  67C6                     beq        -0x38 /* 00001298 */
000012D2  60D0                     bra        -0x2E /* 000012A4 */
label000012D4:
000012D4  362E 0006                move.w     D3, [A6 + 0x6]
000012D8  4A2E 0033                tst.b      [A6 + 0x33]
000012DC  6A08                     bpl        +0xA /* 000012E6 */
000012DE  5843                     addq.w     D3, 4
000012E0  1D7C 0001 0033           move.b     [A6 + 0x33], 0x1
label000012E6:
000012E6  3E32 3000                move.w     D7, [A2 + D3.w]
000012EA  BE41                     cmp.w      D7, D1
000012EC  6004                     bra        +0x6 /* 000012F2 */
label000012EE:
000012EE  5843                     addq.w     D3, 4
000012F0  60F4                     bra        -0xA /* 000012E6 */
label000012F2:
000012F2  6E00 0038                bgt        +0x3A /* 0000132C */
000012F6  3832 3002                move.w     D4, [A2 + D3.w + 0x2]
000012FA  67F2                     beq        -0xC /* 000012EE */
label000012FC:
000012FC  B072 4002                cmp.w      D0, [A2 + D4.w + 0x2]
00001300  6E1E                     bgt        +0x20 /* 00001320 */
00001302  B072 4000                cmp.w      D0, [A2 + D4.w]
00001306  6DE6                     blt        -0x18 /* 000012EE */
00001308  3A04                     move.w     D5, D4
0000130A  3232 3000                move.w     D1, [A2 + D3.w]
0000130E  3F00                     move.w     -[A7], D0
00001310  303C 0004                move.w     D0, 0x4
00001314  4EAD 0052                jsr        [A5 + 0x52 /* export_6, CODE:1 @ 00000114 */]
00001318  301F                     move.w     D0, [A7]+
0000131A  4EBA F406                jsr        [PC - 0xBFA /* 00000722 */]
0000131E  600C                     bra        +0xE /* 0000132C */
label00001320:
00001320  0644 0012                addi.w     D4, 0x12
00001324  4A72 4000                tst.w      [A2 + D4.w]
00001328  67C4                     beq        -0x3A /* 000012EE */
0000132A  60D0                     bra        -0x2E /* 000012FC */
label0000132C:
0000132C  3D44 0004                move.w     [A6 + 0x4], D4
00001330  3D43 0006                move.w     [A6 + 0x6], D3
00001334  3D40 000C                move.w     [A6 + 0xC], D0
00001338  3D41 000E                move.w     [A6 + 0xE], D1
0000133C  206D FFA8                movea.l    A0, [A5 - 0x58]
00001340  4A6D FCBC                tst.w      [A5 - 0x344]
00001344  6D4C                     blt        +0x4E /* 00001392 */
00001346  B26D FCBE                cmp.w      D1, [A5 - 0x342]
0000134A  6D1A                     blt        +0x1C /* 00001366 */
0000134C  B26D FCC0                cmp.w      D1, [A5 - 0x340]
00001350  6E14                     bgt        +0x16 /* 00001366 */
00001352  3A2D FCC2                move.w     D5, [A5 - 0x33E]
00001356  B045                     cmp.w      D0, D5
00001358  6D06                     blt        +0x8 /* 00001360 */
0000135A  BC45                     cmp.w      D6, D5
0000135C  6E08                     bgt        +0xA /* 00001366 */
0000135E  6024                     bra        +0x26 /* 00001384 */
label00001360:
00001360  BC45                     cmp.w      D6, D5
00001362  6D02                     blt        +0x4 /* 00001366 */
00001364  601E                     bra        +0x20 /* 00001384 */
label00001366:
00001366  B26D FCB6                cmp.w      D1, [A5 - 0x34A]
0000136A  6D26                     blt        +0x28 /* 00001392 */
0000136C  B26D FCB8                cmp.w      D1, [A5 - 0x348]
00001370  6E20                     bgt        +0x22 /* 00001392 */
00001372  3A2D FCBA                move.w     D5, [A5 - 0x346]
00001376  B045                     cmp.w      D0, D5
00001378  6D06                     blt        +0x8 /* 00001380 */
0000137A  BC45                     cmp.w      D6, D5
0000137C  6E14                     bgt        +0x16 /* 00001392 */
0000137E  6004                     bra        +0x6 /* 00001384 */
label00001380:
00001380  BC45                     cmp.w      D6, D5
00001382  6D0E                     blt        +0x10 /* 00001392 */
label00001384:
00001384  9A6E 002C                sub.w      D5, [A6 + 0x2C]
00001388  3D45 000C                move.w     [A6 + 0xC], D5
0000138C  3005                     move.w     D0, D5
0000138E  4EFA 00EC                jmp        [PC + 0xEC /* 0000147C */]
label00001392:
00001392  341B                     move.w     D2, [A3]+
00001394  D25B                     add.w      D1, [A3]+
00001396  3D42 0010                move.w     [A6 + 0x10], D2
0000139A  4EAD 0202                jsr        [A5 + 0x202 /* export_60, CODE:4 @ 00000000 */]
0000139E  4EFA F174                jmp        [PC - 0xE8C /* 00000514 */]
000013A2  4E75                     rts
000013A4  0008 FFFF                ori.b      A0, 0xFF
000013A8  0000 FFFC                ori.b      D0, 0xFC
000013AC  0008 FFF8                ori.b      A0, 0xF8
000013B0  0001 FFFC                ori.b      D1, 0xFC
000013B4  0020 FFF2                ori.b      -[A0], 0xF2
000013B8  0002 FFFC                ori.b      D2, 0xFC
000013BC  0017 0002                ori.b      [A7], 0x2
000013C0  0003 FFFC                ori.b      D3, 0xFC
000013C4  001F 000B                ori.b      [A7]+, 0xB
000013C8  0004 FFFC                ori.b      D4, 0xFC
000013CC  0008 000E                ori.b      A0, 0xE
000013D0  0005 FFFC                ori.b      D5, 0xFC
000013D4  0000 0006                ori.b      D0, 0x6
000013D8  0005 FFFC                ori.b      D5, 0xFC
000013DC  FFFF                     .invalid   <<F/7/7>>
000013DE  0000 0000                ori.b      D0, 0x0
000013E2  0000 0002                ori.b      D0, 0x2
000013E6  FFFF                     .invalid   <<F/7/7>>
000013E8  0000 FFF8                ori.b      D0, 0xF8
000013EC  0004 FFF6                ori.b      D4, 0xF6
000013F0  0001 FFF7                ori.b      D1, 0xF7
000013F4  0009 FFFB                ori.b      A1, 0xFB
000013F8  0002 FFF7                ori.b      D2, 0xF7
000013FC  0010 FFE7                ori.b      [A0], 0xE7
00001400  0003 FFF7                ori.b      D3, 0xF7
00001404  0010 FFFD                ori.b      [A0], 0xFD
00001408  0004 FFF7                ori.b      D4, 0xF7
0000140C  0001 000C                ori.b      D1, 0xC
00001410  0005 FFF7                ori.b      D5, 0xF7
00001414  000A 000C                ori.b      A2, 0xC
00001418  0006 FFF7                ori.b      D6, 0xF7
0000141C  0008 0013                ori.b      A0, 0x13
00001420  0000 FFF7                ori.b      D0, 0xF7
00001424  0000 0006                ori.b      D0, 0x6
00001428  0000 FFF7                ori.b      D0, 0xF7
0000142C  FFFF                     .invalid   <<F/7/7>>
0000142E  0000 0000                ori.b      D0, 0x0
00001432  0000 0002                ori.b      D0, 0x2
00001436  FFFF                     .invalid   <<F/7/7>>
00001438  0000 FFF8                ori.b      D0, 0xF8
0000143C  0004 FFF6                ori.b      D4, 0xF6
00001440  0001 FFF7                ori.b      D1, 0xF7
00001444  0010 FFFE                ori.b      [A0], 0xFE
00001448  0003 FFF7                ori.b      D3, 0xF7
0000144C  0010 FFFF                ori.b      [A0], 0xFF
00001450  0004 FFF7                ori.b      D4, 0xF7
00001454  0001 000C                ori.b      D1, 0xC
00001458  0005 FFF7                ori.b      D5, 0xF7
0000145C  000A 000C                ori.b      A2, 0xC
00001460  0006 FFF7                ori.b      D6, 0xF7
00001464  0008 0013                ori.b      A0, 0x13
00001468  0000 FFF7                ori.b      D0, 0xF7
0000146C  0008 0006                ori.b      A0, 0x6
00001470  0000 FFF7                ori.b      D0, 0xF7
00001474  FFFF                     .invalid   <<F/7/7>>
00001476  0000 0000                ori.b      D0, 0x0
0000147A  0000 3D41                ori.b      D0, 0x41 /* 'A' */
// begin alternate branch 0000147C-0000148C
label0000147C:
0000147C  3D41 002C                move.w     [A6 + 0x2C], D1
00001480  3F00                     move.w     -[A7], D0
00001482  303C 0001                move.w     D0, 0x1
00001486  4EAD 0052                jsr        [A5 + 0x52 /* export_6, CODE:1 @ 00000114 */]
0000148A  301F                     move.w     D0, [A7]+
// end alternate branch 0000147C-0000148C
label0000147C: // (misaligned)
0000147E  002C 3F00 303C           ori.b      [A4 + 0x303C], 0x0
00001484  0001 4EAD                ori.b      D1, 0xAD
00001488  0052 301F                ori.w      [A2], 0x301F
0000148C  6006                     bra        +0x8 /* 00001494 */
label0000148E:
0000148E  3D7C FF38 002C           move.w     [A6 + 0x2C], 0xFF38
label00001494:
00001494  3D7C 0005 0012           move.w     [A6 + 0x12], 0x5
0000149A  3D7C 000A 002E           move.w     [A6 + 0x2E], 0xA /* '\n' */
000014A0  B06D FD7A                cmp.w      D0, [A5 - 0x286]
000014A4  6C0A                     bge        +0xC /* 000014B0 */
000014A6  302D FD7A                move.w     D0, [A5 - 0x286]
000014AA  3D40 000C                move.w     [A6 + 0xC], D0
000014AE  600E                     bra        +0x10 /* 000014BE */
label000014B0:
000014B0  B06D FD78                cmp.w      D0, [A5 - 0x288]
000014B4  6F08                     ble        +0xA /* 000014BE */
000014B6  302D FD78                move.w     D0, [A5 - 0x288]
000014BA  3D40 000C                move.w     [A6 + 0xC], D0
label000014BE:
000014BE  D26E 002E                add.w      D1, [A6 + 0x2E]
000014C2  506E 002E                addq.w     [A6 + 0x2E], 8
000014C6  4242                     clr.w      D2
000014C8  362E 0006                move.w     D3, [A6 + 0x6]
label000014CC:
000014CC  3E32 3000                move.w     D7, [A2 + D3.w]
000014D0  BE41                     cmp.w      D7, D1
000014D2  6004                     bra        +0x6 /* 000014D8 */
label000014D4:
000014D4  5843                     addq.w     D3, 4
000014D6  60F4                     bra        -0xA /* 000014CC */
label000014D8:
000014D8  6E00 00DA                bgt        +0xDC /* 000015B4 */
000014DC  3832 3002                move.w     D4, [A2 + D3.w + 0x2]
000014E0  67F2                     beq        -0xC /* 000014D4 */
label000014E2:
000014E2  B072 4002                cmp.w      D0, [A2 + D4.w + 0x2]
000014E6  6E14                     bgt        +0x16 /* 000014FC */
000014E8  B072 4000                cmp.w      D0, [A2 + D4.w]
000014EC  6DE6                     blt        -0x18 /* 000014D4 */
000014EE  0C72 0200 4004           cmpi.w     [A2 + D4.w + 0x4], 0x200
000014F4  6C06                     bge        +0x8 /* 000014FC */
000014F6  3232 3000                move.w     D1, [A2 + D3.w]
000014FA  600C                     bra        +0xE /* 00001508 */
label000014FC:
000014FC  0644 0012                addi.w     D4, 0x12
00001500  4A72 4000                tst.w      [A2 + D4.w]
00001504  67CE                     beq        -0x30 /* 000014D4 */
00001506  60DA                     bra        -0x24 /* 000014E2 */
label00001508:
00001508  3D41 000E                move.w     [A6 + 0xE], D1
0000150C  3D44 0004                move.w     [A6 + 0x4], D4
00001510  3D43 0006                move.w     [A6 + 0x6], D3
00001514  0C72 0016 4004           cmpi.w     [A2 + D4.w + 0x4], 0x16
0000151A  6614                     bne        +0x16 /* 00001530 */
0000151C  3F00                     move.w     -[A7], D0
0000151E  303C 0056                move.w     D0, 0x56 /* 'V' */
00001522  4EAD 0052                jsr        [A5 + 0x52 /* export_6, CODE:1 @ 00000114 */]
00001526  301F                     move.w     D0, [A7]+
00001528  47FA EF9E                lea.l      A3, [PC - 0x1062 /* 000004C8, value 0xF0003C00 */]
0000152C  4EFA EE32                jmp        [PC - 0x11CE /* 00000360 */]
label00001530:
00001530  0C72 001D 4004           cmpi.w     [A2 + D4.w + 0x4], 0x1D
00001536  662A                     bne        +0x2C /* 00001562 */
00001538  0C6E FF38 002C           cmpi.w     [A6 + 0x2C], 0xFF38
0000153E  6710                     beq        +0x12 /* 00001550 */
label00001540:
00001540  3D7C 0028 0012           move.w     [A6 + 0x12], 0x28 /* '(' */
00001546  3D7C 0004 002C           move.w     [A6 + 0x2C], 0x4
0000154C  4EFA 102A                jmp        [PC + 0x102A /* 00002578 */]
label00001550:
00001550  4EBA EECA                jsr        [PC - 0x1136 /* 0000041C */]
00001554  4A6D FDCC                tst.w      [A5 - 0x234]
00001558  6700 0084                beq        +0x86 /* 000015DE */
0000155C  51ED FE7D                sf         [A5 - 0x183]
00001560  60DE                     bra        -0x20 /* 00001540 */
label00001562:
00001562  3E2E 002C                move.w     D7, [A6 + 0x2C]
00001566  4447                     neg.w      D7
00001568  DE41                     add.w      D7, D1
0000156A  6F32                     ble        +0x34 /* 0000159E */
0000156C  0C47 001E                cmpi.w     D7, 0x1E
00001570  6D2C                     blt        +0x2E /* 0000159E */
00001572  0C47 0050                cmpi.w     D7, 0x50 /* 'P' */
00001576  6E12                     bgt        +0x14 /* 0000158A */
00001578  3D7C 000C 0012           move.w     [A6 + 0x12], 0xC
0000157E  47FA EB16                lea.l      A3, [PC - 0x14EA /* 00000096, value 0x100400, cstring "" */]
00001582  2D4B 002C                move.l     [A6 + 0x2C], A3
00001586  4EFA EA78                jmp        [PC - 0x1588 /* 00000000 */]
label0000158A:
0000158A  3F00                     move.w     -[A7], D0
0000158C  303C 0006                move.w     D0, 0x6
00001590  4EAD 0052                jsr        [A5 + 0x52 /* export_6, CODE:1 @ 00000114 */]
00001594  301F                     move.w     D0, [A7]+
00001596  47FA EEA8                lea.l      A3, [PC - 0x1158 /* 00000440, value 0x100400, cstring "" */]
0000159A  4EFA EDC4                jmp        [PC - 0x123C /* 00000360 */]
label0000159E:
0000159E  3F00                     move.w     -[A7], D0
000015A0  303C 0004                move.w     D0, 0x4
000015A4  4EAD 0052                jsr        [A5 + 0x52 /* export_6, CODE:1 @ 00000114 */]
000015A8  301F                     move.w     D0, [A7]+
000015AA  3A04                     move.w     D5, D4
000015AC  4EBA F174                jsr        [PC - 0xE8C /* 00000722 */]
000015B0  4EFA 14CE                jmp        [PC + 0x14CE /* 00002A80 */]
label000015B4:
000015B4  3D44 0004                move.w     [A6 + 0x4], D4
000015B8  3D43 0006                move.w     [A6 + 0x6], D3
000015BC  3D41 000E                move.w     [A6 + 0xE], D1
000015C0  5141                     subq.w     D1, 8
000015C2  206D FFA8                movea.l    A0, [A5 - 0x58]
000015C6  286E 0016                movea.l    A4, [A6 + 0x16]
000015CA  226C 006C                movea.l    A1, [A4 + 0x6C]
000015CE  4EAD 0202                jsr        [A5 + 0x202 /* export_60, CODE:4 @ 00000000 */]
000015D2  0C6E FF38 002C           cmpi.w     [A6 + 0x2C], 0xFF38
000015D8  6704                     beq        +0x6 /* 000015DE */
000015DA  4EFA EF38                jmp        [PC - 0x10C8 /* 00000514 */]
label000015DE:
000015DE  4E75                     rts
label000015E0:
000015E0  4A6E 0008                tst.w      [A6 + 0x8]
000015E4  6606                     bne        +0x8 /* 000015EC */
000015E6  47FA 0090                lea.l      A3, [PC + 0x90 /* 00001678, value 0x20002, cstring "" */]
000015EA  6010                     bra        +0x12 /* 000015FC */
label000015EC:
000015EC  4A6E 001E                tst.w      [A6 + 0x1E]
000015F0  6E06                     bgt        +0x8 /* 000015F8 */
000015F2  47FA 007C                lea.l      A3, [PC + 0x7C /* 00001670, value 0xFA01FA01 */]
000015F6  6004                     bra        +0x6 /* 000015FC */
label000015F8:
000015F8  47FA 0058                lea.l      A3, [PC + 0x58 /* 00001652, value 0x6000600 */]
label000015FC:
000015FC  2D4B 002C                move.l     [A6 + 0x2C], A3
00001600  3D7C 0006 0012           move.w     [A6 + 0x12], 0x6
00001606  6000 0048                bra        +0x4A /* 00001650 */
label0000160A:
0000160A  286E 0016                movea.l    A4, [A6 + 0x16]
0000160E  226C 0074                movea.l    A1, [A4 + 0x74]
00001612  266E 002C                movea.l    A3, [A6 + 0x2C]
00001616  161B                     move.b     D3, [A3]+
00001618  4883                     ext.w      D3
0000161A  D043                     add.w      D0, D3
0000161C  141B                     move.b     D2, [A3]+
0000161E  4882                     ext.w      D2
00001620  6C04                     bge        +0x6 /* 00001626 */
00001622  4EFA FE58                jmp        [PC - 0x1A8 /* 0000147C */]
label00001626:
00001626  0C42 002A                cmpi.w     D2, 0x2A /* '*' */
0000162A  6610                     bne        +0x12 /* 0000163C */
0000162C  3F00                     move.w     -[A7], D0
0000162E  303C 0005                move.w     D0, 0x5
00001632  4EAD 0052                jsr        [A5 + 0x52 /* export_6, CODE:1 @ 00000114 */]
00001636  301F                     move.w     D0, [A7]+
00001638  343C 0002                move.w     D2, 0x2
label0000163C:
0000163C  206D FFA8                movea.l    A0, [A5 - 0x58]
00001640  3D40 000C                move.w     [A6 + 0xC], D0
00001644  2D4B 002C                move.l     [A6 + 0x2C], A3
00001648  4EAD 0202                jsr        [A5 + 0x202 /* export_60, CODE:4 @ 00000000 */]
0000164C  4EFA EEC6                jmp        [PC - 0x113A /* 00000514 */]
label00001650:
00001650  4E75                     rts
00001652  0600 0600                addi.b     D0, 0x0
00001656  0600 0A02                addi.b     D0, 0x2
0000165A  0002 0002                ori.b      D2, 0x2
0000165E  0002 002A                ori.b      D2, 0x2A /* '*' */
00001662  0003 0003                ori.b      D3, 0x3
00001666  0003 0002                ori.b      D3, 0x2
0000166A  0002 0002                ori.b      D2, 0x2
0000166E  00FF                     .incomplete
00001670  FA01 FA01                .unknown   0xFA01 0xFA01 (W = 5)
00001674  FA01 F602                .unknown   0xFA01 0xF602 (W = 5)
00001678  0002 0002                ori.b      D2, 0x2
0000167C  0002 002A                ori.b      D2, 0x2A /* '*' */
00001680  0003 0003                ori.b      D3, 0x3
00001684  0003 0002                ori.b      D3, 0x2
00001688  0002 0002                ori.b      D2, 0x2
0000168C  00FF                     .incomplete
label0000168E:
0000168E  3D7C 0015 0012           move.w     [A6 + 0x12], 0x15
00001694  3D72 4006 0004           move.w     [A6 + 0x4], [A2 + D4.w + 0x6]
0000169A  3432 400A                move.w     D2, [A2 + D4.w + 0xA]
0000169E  3D42 0006                move.w     [A6 + 0x6], D2
000016A2  47FA 008A                lea.l      A3, [PC + 0x8A /* 0000172E, value 0x4FE0008 */]
000016A6  2D4B 002C                move.l     [A6 + 0x2C], A3
000016AA  286E 0016                movea.l    A4, [A6 + 0x16]
000016AE  4A6E 001E                tst.w      [A6 + 0x1E]
000016B2  6E08                     bgt        +0xA /* 000016BC */
000016B4  2D6C 0088 0030           move.l     [A6 + 0x30], [A4 + 0x88]
000016BA  6006                     bra        +0x8 /* 000016C2 */
label000016BC:
000016BC  2D6C 008C 0030           move.l     [A6 + 0x30], [A4 + 0x8C]
label000016C2:
000016C2  4E71                     nop
label000016C4:
000016C4  266E 002C                movea.l    A3, [A6 + 0x2C]
000016C8  161B                     move.b     D3, [A3]+
000016CA  4883                     ext.w      D3
000016CC  4A6E 001E                tst.w      [A6 + 0x1E]
000016D0  6E02                     bgt        +0x4 /* 000016D4 */
000016D2  4443                     neg.w      D3
label000016D4:
000016D4  D043                     add.w      D0, D3
000016D6  161B                     move.b     D3, [A3]+
000016D8  4883                     ext.w      D3
000016DA  D243                     add.w      D1, D3
000016DC  141B                     move.b     D2, [A3]+
000016DE  4882                     ext.w      D2
000016E0  6C12                     bge        +0x14 /* 000016F4 */
000016E2  3D7C 000C 0012           move.w     [A6 + 0x12], 0xC
000016E8  47FA E9CF                lea.l      A3, [PC - 0x1631 /* 000000B9, value 0x1400, cstring "" */]
000016EC  2D4B 002C                move.l     [A6 + 0x2C], A3
000016F0  4EFA E90E                jmp        [PC - 0x16F2 /* 00000000 */]
label000016F4:
000016F4  0C42 0064                cmpi.w     D2, 0x64 /* 'd' */
000016F8  661E                     bne        +0x20 /* 00001718 */
000016FA  342E 0006                move.w     D2, [A6 + 0x6]
000016FE  3232 2000                move.w     D1, [A2 + D2.w]
00001702  3D41 000E                move.w     [A6 + 0xE], D1
00001706  D243                     add.w      D1, D3
00001708  343C 0002                move.w     D2, 0x2
0000170C  3F00                     move.w     -[A7], D0
0000170E  303C 004E                move.w     D0, 0x4E /* 'N' */
00001712  4EAD 0052                jsr        [A5 + 0x52 /* export_6, CODE:1 @ 00000114 */]
00001716  301F                     move.w     D0, [A7]+
label00001718:
00001718  226E 0030                movea.l    A1, [A6 + 0x30]
0000171C  206D FFA8                movea.l    A0, [A5 - 0x58]
00001720  3D40 000C                move.w     [A6 + 0xC], D0
00001724  2D4B 002C                move.l     [A6 + 0x2C], A3
00001728  4EAD 0202                jsr        [A5 + 0x202 /* export_60, CODE:4 @ 00000000 */]
0000172C  4E75                     rts
0000172E  04FE                     .incomplete
00001730  0008 F901                ori.b      A0, 0x1
00001734  10F5 0218                move.b     [A0]+, [A5 + D0.w * 2 + 0x18]
00001738  FC64 04FE                .extension 0xC64 <<F/1/6>>, 0x04FE // unimplemented
0000173C  0300                     btst       D0, D1
0000173E  FE03 00FE                .unknown   0xFE03 0x00FE (W = 7)
00001742  0300                     btst       D0, D1
00001744  FE03 00FE                .unknown   0xFE03 0x00FE (W = 7)
00001748  0300                     btst       D0, D1
0000174A  FE03 00FE                .unknown   0xFE03 0x00FE (W = 7)
0000174E  0300                     btst       D0, D1
00001750  FE03 00FE                .unknown   0xFE03 0x00FE (W = 7)
00001754  0300                     btst       D0, D1
00001756  FE03 00FE                .unknown   0xFE03 0x00FE (W = 7)
0000175A  0300                     btst       D0, D1
0000175C  FE04 00FE                .unknown   0xFE04 0x00FE (W = 7)
00001760  0400 FE04                subi.b     D0, 0x4
00001764  00FE                     .incomplete
00001766  0500                     btst       D0, D2
00001768  FE05 00FE                .unknown   0xFE05 0x00FE (W = 7)
0000176C  0500                     btst       D0, D2
0000176E  FE06 00FE                .unknown   0xFE06 0x00FE (W = 7)
00001772  0600 FE06                addi.b     D0, 0x6
00001776  0000 FF00                ori.b      D0, 0x0
label0000177A:
0000177A  426E 0010                clr.w      [A6 + 0x10]
0000177E  3032 4000                move.w     D0, [A2 + D4.w]
00001782  3D40 000C                move.w     [A6 + 0xC], D0
00001786  3D7C 0009 0012           move.w     [A6 + 0x12], 0x9 /* '\t' */
0000178C  426E 002C                clr.w      [A6 + 0x2C]
label00001790:
00001790  342E 0010                move.w     D2, [A6 + 0x10]
00001794  206D FFA8                movea.l    A0, [A5 - 0x58]
00001798  3E2E 0008                move.w     D7, [A6 + 0x8]
0000179C  6712                     beq        +0x14 /* 000017B0 */
0000179E  BE6E 001E                cmp.w      D7, [A6 + 0x1E]
000017A2  6608                     bne        +0xA /* 000017AC */
000017A4  4A47                     tst.w      D7
000017A6  6D28                     blt        +0x2A /* 000017D0 */
000017A8  6E30                     bgt        +0x32 /* 000017DA */
000017AA  6004                     bra        +0x6 /* 000017B0 */
label000017AC:
000017AC  3D47 001E                move.w     [A6 + 0x1E], D7
label000017B0:
000017B0  4A6E 000A                tst.w      [A6 + 0xA]
000017B4  6D00 00E6                blt        +0xE8 /* 0000189C */
000017B8  6E00 0114                bgt        +0x116 /* 000018CE */
000017BC  3F00                     move.w     -[A7], D0
000017BE  303C 000E                move.w     D0, 0xE
000017C2  4EAD 005A                jsr        [A5 + 0x5A /* export_7, CODE:1 @ 00000150 */]
000017C6  301F                     move.w     D0, [A7]+
000017C8  426E 002C                clr.w      [A6 + 0x2C]
000017CC  6000 0138                bra        +0x13A /* 00001906 */
label000017D0:
000017D0  3A32 4006                move.w     D5, [A2 + D4.w + 0x6]
000017D4  6700 0014                beq        +0x16 /* 000017EA */
000017D8  6008                     bra        +0xA /* 000017E2 */
label000017DA:
000017DA  3A32 4008                move.w     D5, [A2 + D4.w + 0x8]
000017DE  6700 000A                beq        +0xC /* 000017EA */
label000017E2:
000017E2  0C72 0208 5004           cmpi.w     [A2 + D5.w + 0x4], 0x208
000017E8  6668                     bne        +0x6A /* 00001852 */
label000017EA:
000017EA  5141                     subq.w     D1, 8
000017EC  3D41 000E                move.w     [A6 + 0xE], D1
000017F0  3C2E 0006                move.w     D6, [A6 + 0x6]
label000017F4:
000017F4  B272 6000                cmp.w      D1, [A2 + D6.w]
000017F8  6C04                     bge        +0x6 /* 000017FE */
000017FA  5946                     subq.w     D6, 4
000017FC  60F6                     bra        -0x8 /* 000017F4 */
label000017FE:
000017FE  B272 6000                cmp.w      D1, [A2 + D6.w]
00001802  6F04                     ble        +0x6 /* 00001808 */
00001804  5846                     addq.w     D6, 4
00001806  60F6                     bra        -0x8 /* 000017FE */
label00001808:
00001808  3D46 0006                move.w     [A6 + 0x6], D6
0000180C  4A6E 001E                tst.w      [A6 + 0x1E]
00001810  6C06                     bge        +0x8 /* 00001818 */
00001812  3032 4000                move.w     D0, [A2 + D4.w]
00001816  6006                     bra        +0x8 /* 0000181E */
label00001818:
00001818  3032 4002                move.w     D0, [A2 + D4.w + 0x2]
0000181C  4E71                     nop
label0000181E:
0000181E  D06E 001E                add.w      D0, [A6 + 0x1E]
00001822  3D40 000C                move.w     [A6 + 0xC], D0
00001826  3D6E 001E 002C           move.w     [A6 + 0x2C], [A6 + 0x1E]
0000182C  422E 0032                clr.b      [A6 + 0x32]
00001830  47FA FBB2                lea.l      A3, [PC - 0x44E /* 000013E4, value 0x2FFFF, cstring "" */]
00001834  D6FC 0028                add.w      A3, 0x28 /* '(' */
00001838  2D4B 002E                move.l     [A6 + 0x2E], A3
0000183C  3D7C FFFF 0010           move.w     [A6 + 0x10], 0xFFFF
00001842  3D7C 0004 0012           move.w     [A6 + 0x12], 0x4
00001848  1D7C 0001 0033           move.b     [A6 + 0x33], 0x1
0000184E  4EFA F9B0                jmp        [PC - 0x650 /* 00001200 */]
label00001852:
00001852  3C32 500A                move.w     D6, [A2 + D5.w + 0xA]
00001856  BC72 400A                cmp.w      D6, [A2 + D4.w + 0xA]
0000185A  6704                     beq        +0x6 /* 00001860 */
0000185C  B246                     cmp.w      D1, D6
0000185E  6D8A                     blt        -0x74 /* 000017EA */
label00001860:
00001860  3032 5000                move.w     D0, [A2 + D5.w]
00001864  3D40 000C                move.w     [A6 + 0xC], D0
00001868  3805                     move.w     D4, D5
0000186A  3D44 0004                move.w     [A6 + 0x4], D4
0000186E  426E 0008                clr.w      [A6 + 0x8]
00001872  286E 0016                movea.l    A4, [A6 + 0x16]
00001876  226C 0040                movea.l    A1, [A4 + 0x40]
0000187A  3D42 0010                move.w     [A6 + 0x10], D2
0000187E  4A6E 001E                tst.w      [A6 + 0x1E]
00001882  6E08                     bgt        +0xA /* 0000188C */
00001884  0640 0016                addi.w     D0, 0x16
00001888  4242                     clr.w      D2
0000188A  6006                     bra        +0x8 /* 00001892 */
label0000188C:
0000188C  5940                     subq.w     D0, 4
0000188E  343C 0001                move.w     D2, 0x1
label00001892:
00001892  5541                     subq.w     D1, 2
00001894  4EAD 0202                jsr        [A5 + 0x202 /* export_60, CODE:4 @ 00000000 */]
00001898  6000 0092                bra        +0x94 /* 0000192C */
label0000189C:
0000189C  D26E 000A                add.w      D1, [A6 + 0xA]
000018A0  B272 400A                cmp.w      D1, [A2 + D4.w + 0xA]
000018A4  6E06                     bgt        +0x8 /* 000018AC */
000018A6  322E 000E                move.w     D1, [A6 + 0xE]
000018AA  605A                     bra        +0x5C /* 00001906 */
label000018AC:
000018AC  536E 002C                subq.w     [A6 + 0x2C], 1
000018B0  6C12                     bge        +0x14 /* 000018C4 */
000018B2  3F00                     move.w     -[A7], D0
000018B4  303C 000E                move.w     D0, 0xE
000018B8  4EAD 0052                jsr        [A5 + 0x52 /* export_6, CODE:1 @ 00000114 */]
000018BC  301F                     move.w     D0, [A7]+
000018BE  3D7C 0008 002C           move.w     [A6 + 0x2C], 0x8
label000018C4:
000018C4  5342                     subq.w     D2, 1
000018C6  6C3E                     bge        +0x40 /* 00001906 */
000018C8  343C 0002                move.w     D2, 0x2
000018CC  6038                     bra        +0x3A /* 00001906 */
label000018CE:
000018CE  D26E 000A                add.w      D1, [A6 + 0xA]
000018D2  B272 400C                cmp.w      D1, [A2 + D4.w + 0xC]
000018D6  6F0C                     ble        +0xE /* 000018E4 */
000018D8  3232 400C                move.w     D1, [A2 + D4.w + 0xC]
000018DC  3D41 000E                move.w     [A6 + 0xE], D1
000018E0  4EFA FB9A                jmp        [PC - 0x466 /* 0000147C */]
label000018E4:
000018E4  536E 002C                subq.w     [A6 + 0x2C], 1
000018E8  6C12                     bge        +0x14 /* 000018FC */
000018EA  3F00                     move.w     -[A7], D0
000018EC  303C 000E                move.w     D0, 0xE
000018F0  4EAD 0052                jsr        [A5 + 0x52 /* export_6, CODE:1 @ 00000114 */]
000018F4  301F                     move.w     D0, [A7]+
000018F6  3D7C 0008 002C           move.w     [A6 + 0x2C], 0x8
label000018FC:
000018FC  5242                     addq.w     D2, 1
000018FE  0C42 0003                cmpi.w     D2, 0x3
00001902  6D02                     blt        +0x4 /* 00001906 */
00001904  4242                     clr.w      D2
label00001906:
00001906  286E 0016                movea.l    A4, [A6 + 0x16]
0000190A  4A6E 001E                tst.w      [A6 + 0x1E]
0000190E  6D08                     blt        +0xA /* 00001918 */
00001910  226C 003C                movea.l    A1, [A4 + 0x3C]
00001914  5A40                     addq.w     D0, 5
00001916  6008                     bra        +0xA /* 00001920 */
label00001918:
00001918  226C 0038                movea.l    A1, [A4 + 0x38]
0000191C  0640 000A                addi.w     D0, 0xA /* '\n' */
label00001920:
00001920  3D42 0010                move.w     [A6 + 0x10], D2
00001924  3D41 000E                move.w     [A6 + 0xE], D1
00001928  4EAD 0202                jsr        [A5 + 0x202 /* export_60, CODE:4 @ 00000000 */]
label0000192C:
0000192C  4EFA EBE6                jmp        [PC - 0x141A /* 00000514 */]
label00001930:
00001930  3D72 400C 0006           move.w     [A6 + 0x6], [A2 + D4.w + 0xC]
00001936  3832 4006                move.w     D4, [A2 + D4.w + 0x6]
0000193A  3D44 0004                move.w     [A6 + 0x4], D4
0000193E  B272 400A                cmp.w      D1, [A2 + D4.w + 0xA]
00001942  6C08                     bge        +0xA /* 0000194C */
00001944  3232 400A                move.w     D1, [A2 + D4.w + 0xA]
00001948  3D41 000E                move.w     [A6 + 0xE], D1
label0000194C:
0000194C  3032 4000                move.w     D0, [A2 + D4.w]
00001950  3D40 000C                move.w     [A6 + 0xC], D0
00001954  426E 0008                clr.w      [A6 + 0x8]
00001958  426E 0010                clr.w      [A6 + 0x10]
0000195C  3D7C 0009 0012           move.w     [A6 + 0x12], 0x9 /* '\t' */
00001962  426E 002C                clr.w      [A6 + 0x2C]
00001966  6000 FE28                bra        -0x1D6 /* 00001790 */
0000196A  4E75                     rts
fn0000196C:
0000196C  0C72 000E 4004           cmpi.w     [A2 + D4.w + 0x4], 0xE
00001972  6604                     bne        +0x6 /* 00001978 */
00001974  4EFA 0014                jmp        [PC + 0x14 /* 0000198A */]
label00001978:
00001978  0C72 000F 4004           cmpi.w     [A2 + D4.w + 0x4], 0xF
0000197E  6604                     bne        +0x6 /* 00001984 */
00001980  4EFA 0016                jmp        [PC + 0x16 /* 00001998 */]
label00001984:
00001984  4E75                     rts
label00001986:
00001986  487A F2E4                pea.l      [PC - 0xD1C /* 00000C6C, value 0x82E0002 */]
label0000198A:
0000198A  D072 400C                add.w      D0, [A2 + D4.w + 0xC]
0000198E  3D40 000C                move.w     [A6 + 0xC], D0
00001992  4E75                     rts
label00001994:
00001994  487A F2D6                pea.l      [PC - 0xD2A /* 00000C6C, value 0x82E0002 */]
label00001998:
00001998  0C40 000C                cmpi.w     D0, 0xC
0000199C  6F08                     ble        +0xA /* 000019A6 */
0000199E  D872 400A                add.w      D4, [A2 + D4.w + 0xA]
000019A2  3D44 0004                move.w     [A6 + 0x4], D4
label000019A6:
000019A6  4AB2 4000                tst.l      [A2 + D4.w]
000019AA  6600 0014                bne        +0x16 /* 000019C0 */
000019AE  0C6E 000D 0012           cmpi.w     [A6 + 0x12], 0xD /* '\r' */
000019B4  6606                     bne        +0x8 /* 000019BC */
000019B6  4A9F                     tst.l      [A7]+
000019B8  4EFA FAD4                jmp        [PC - 0x52C /* 0000148E */]
label000019BC:
000019BC  4EFA EFEE                jmp        [PC - 0x1012 /* 000009AC */]
label000019C0:
000019C0  D072 4006                add.w      D0, [A2 + D4.w + 0x6]
000019C4  3D40 000C                move.w     [A6 + 0xC], D0
000019C8  0C40 0003                cmpi.w     D0, 0x3
000019CC  6F06                     ble        +0x8 /* 000019D4 */
000019CE  0C40 01D5                cmpi.w     D0, 0x1D5
000019D2  6F0C                     ble        +0xE /* 000019E0 */
label000019D4:
000019D4  426E 0008                clr.w      [A6 + 0x8]
000019D8  426E 000A                clr.w      [A6 + 0xA]
000019DC  422E 0014                clr.b      [A6 + 0x14]
label000019E0:
000019E0  0C40 FFFC                cmpi.w     D0, 0xFFFC
000019E4  6F02                     ble        +0x4 /* 000019E8 */
000019E6  4E75                     rts
label000019E8:
000019E8  4A9F                     tst.l      [A7]+
000019EA  4E75                     rts
label000019EC:
000019EC  4A72 4006                tst.w      [A2 + D4.w + 0x6]
000019F0  6E18                     bgt        +0x1A /* 00001A0A */
000019F2  266D FDDA                movea.l    A3, [A5 - 0x226]
000019F6  0C53 0000                cmpi.w     [A3], 0x0
000019FA  6726                     beq        +0x28 /* 00001A22 */
000019FC  0C53 0001                cmpi.w     [A3], 0x1
00001A00  6720                     beq        +0x22 /* 00001A22 */
00001A02  0C53 0015                cmpi.w     [A3], 0x15
00001A06  671A                     beq        +0x1C /* 00001A22 */
00001A08  6024                     bra        +0x26 /* 00001A2E */
label00001A0A:
00001A0A  266D FDD6                movea.l    A3, [A5 - 0x22A]
00001A0E  0C53 000A                cmpi.w     [A3], 0xA /* '\n' */
00001A12  670E                     beq        +0x10 /* 00001A22 */
00001A14  0C53 000B                cmpi.w     [A3], 0xB
00001A18  6708                     beq        +0xA /* 00001A22 */
00001A1A  0C53 000C                cmpi.w     [A3], 0xC
00001A1E  6702                     beq        +0x4 /* 00001A22 */
00001A20  600C                     bra        +0xE /* 00001A2E */
label00001A22:
00001A22  2D4B 002C                move.l     [A6 + 0x2C], A3
00001A26  3D7C 0013 0012           move.w     [A6 + 0x12], 0x13
00001A2C  600A                     bra        +0xC /* 00001A38 */
label00001A2E:
00001A2E  5C41                     addq.w     D1, 6
00001A30  3D41 000E                move.w     [A6 + 0xE], D1
00001A34  4EFA FA46                jmp        [PC - 0x5BA /* 0000147C */]
label00001A38:
00001A38  266E 002C                movea.l    A3, [A6 + 0x2C]
00001A3C  3813                     move.w     D4, [A3]
00001A3E  286B 0002                movea.l    A4, [A3 + 0x2]
00001A42  302C FFFC                move.w     D0, [A4 - 0x4]
00001A46  322C FFFE                move.w     D1, [A4 - 0x2]
00001A4A  3A04                     move.w     D5, D4
00001A4C  E545                     asl        D5.w, 2
00001A4E  4A6E 001E                tst.w      [A6 + 0x1E]
00001A52  6F06                     ble        +0x8 /* 00001A5A */
00001A54  49FA 01C2                lea.l      A4, [PC + 0x1C2 /* 00001C18, value 0x81E0100 */]
00001A58  6004                     bra        +0x6 /* 00001A5E */
label00001A5A:
00001A5A  49FA 0164                lea.l      A4, [PC + 0x164 /* 00001BC0, value 0x1E0100, cstring "" */]
label00001A5E:
00001A5E  D8C5                     add.w      A4, D5
00001A60  4245                     clr.w      D5
00001A62  1A1C                     move.b     D5, [A4]+
00001A64  D045                     add.w      D0, D5
00001A66  0440 000D                subi.w     D0, 0xD /* '\r' */
00001A6A  1A1C                     move.b     D5, [A4]+
00001A6C  D245                     add.w      D1, D5
00001A6E  141C                     move.b     D2, [A4]+
00001A70  4882                     ext.w      D2
00001A72  206D FFA8                movea.l    A0, [A5 - 0x58]
00001A76  4A6E 001E                tst.w      [A6 + 0x1E]
00001A7A  6F6E                     ble        +0x70 /* 00001AEA */
00001A7C  082E 0000 0014           btst.b     [A6 + 0x14], 0x0
00001A82  675A                     beq        +0x5C /* 00001ADE */
00001A84  B7ED FDDA                cmpa.l     A3, [A5 - 0x226]
00001A88  6600 00E6                bne        +0xE8 /* 00001B70 */
00001A8C  0C44 000A                cmpi.w     D4, 0xA /* '\n' */
00001A90  6D00 00DE                blt        +0xE0 /* 00001B70 */
00001A94  0C44 000C                cmpi.w     D4, 0xC
00001A98  6E00 00D6                bgt        +0xD8 /* 00001B70 */
00001A9C  286D FDD6                movea.l    A4, [A5 - 0x22A]
00001AA0  3A14                     move.w     D5, [A4]
00001AA2  0C45 0000                cmpi.w     D5, 0x0
00001AA6  6710                     beq        +0x12 /* 00001AB8 */
00001AA8  0C45 0001                cmpi.w     D5, 0x1
00001AAC  670A                     beq        +0xC /* 00001AB8 */
00001AAE  0C45 0015                cmpi.w     D5, 0x15
00001AB2  6704                     beq        +0x6 /* 00001AB8 */
00001AB4  6000 00BA                bra        +0xBC /* 00001B70 */
label00001AB8:
00001AB8  08AE 0000 0014           bclr.b     [A6 + 0x14], 0x0
00001ABE  286E 0016                movea.l    A4, [A6 + 0x16]
00001AC2  226C 0040                movea.l    A1, [A4 + 0x40]
00001AC6  4242                     clr.w      D2
00001AC8  2D6D FDD6 002C           move.l     [A6 + 0x2C], [A5 - 0x22A]
00001ACE  3F00                     move.w     -[A7], D0
00001AD0  303C 0004                move.w     D0, 0x4
00001AD4  4EAD 0052                jsr        [A5 + 0x52 /* export_6, CODE:1 @ 00000114 */]
00001AD8  301F                     move.w     D0, [A7]+
00001ADA  6000 0082                bra        +0x84 /* 00001B5E */
label00001ADE:
00001ADE  286E 0016                movea.l    A4, [A6 + 0x16]
00001AE2  226C 0068                movea.l    A1, [A4 + 0x68]
00001AE6  6000 0076                bra        +0x78 /* 00001B5E */
label00001AEA:
00001AEA  082E 0000 0014           btst.b     [A6 + 0x14], 0x0
00001AF0  6760                     beq        +0x62 /* 00001B52 */
00001AF2  B7ED FDD6                cmpa.l     A3, [A5 - 0x22A]
00001AF6  6600 0078                bne        +0x7A /* 00001B70 */
00001AFA  0C44 0000                cmpi.w     D4, 0x0
00001AFE  6710                     beq        +0x12 /* 00001B10 */
00001B00  0C44 0001                cmpi.w     D4, 0x1
00001B04  670A                     beq        +0xC /* 00001B10 */
00001B06  0C44 0015                cmpi.w     D4, 0x15
00001B0A  6704                     beq        +0x6 /* 00001B10 */
00001B0C  6000 0062                bra        +0x64 /* 00001B70 */
label00001B10:
00001B10  286D FDDA                movea.l    A4, [A5 - 0x226]
00001B14  3A14                     move.w     D5, [A4]
00001B16  0C45 0009                cmpi.w     D5, 0x9 /* '\t' */
00001B1A  6D00 0054                blt        +0x56 /* 00001B70 */
00001B1E  0C45 000D                cmpi.w     D5, 0xD /* '\r' */
00001B22  6E00 004C                bgt        +0x4E /* 00001B70 */
00001B26  08AE 0000 0014           bclr.b     [A6 + 0x14], 0x0
00001B2C  286E 0016                movea.l    A4, [A6 + 0x16]
00001B30  226C 0040                movea.l    A1, [A4 + 0x40]
00001B34  4242                     clr.w      D2
00001B36  0641 0010                addi.w     D1, 0x10
00001B3A  5040                     addq.w     D0, 8
00001B3C  2D6D FDDA 002C           move.l     [A6 + 0x2C], [A5 - 0x226]
00001B42  3F00                     move.w     -[A7], D0
00001B44  303C 0004                move.w     D0, 0x4
00001B48  4EAD 0052                jsr        [A5 + 0x52 /* export_6, CODE:1 @ 00000114 */]
00001B4C  301F                     move.w     D0, [A7]+
00001B4E  6000 000E                bra        +0x10 /* 00001B5E */
label00001B52:
00001B52  286E 0016                movea.l    A4, [A6 + 0x16]
00001B56  226C 0064                movea.l    A1, [A4 + 0x64]
00001B5A  6000 0002                bra        +0x4 /* 00001B5E */
label00001B5E:
00001B5E  3D40 000C                move.w     [A6 + 0xC], D0
00001B62  3D41 000E                move.w     [A6 + 0xE], D1
00001B66  4EAD 0202                jsr        [A5 + 0x202 /* export_60, CODE:4 @ 00000000 */]
00001B6A  4EFA E9A8                jmp        [PC - 0x1658 /* 00000514 */]
00001B6E  4E75                     rts
label00001B70:
00001B70  286B 0002                movea.l    A4, [A3 + 0x2]
00001B74  362C FFFA                move.w     D3, [A4 - 0x6]
00001B78  3E32 3000                move.w     D7, [A2 + D3.w]
00001B7C  5347                     subq.w     D7, 1
00001B7E  3587 3002                move.w     [A2 + D3.w + 0x2], D7
00001B82  08AE 0000 0014           bclr.b     [A6 + 0x14], 0x0
00001B88  0641 001E                addi.w     D1, 0x1E
00001B8C  3D41 000E                move.w     [A6 + 0xE], D1
00001B90  3D6E 001E 002C           move.w     [A6 + 0x2C], [A6 + 0x1E]
00001B96  422E 0032                clr.b      [A6 + 0x32]
00001B9A  47FA F848                lea.l      A3, [PC - 0x7B8 /* 000013E4, value 0x2FFFF, cstring "" */]
00001B9E  D6FC 0018                add.w      A3, 0x18
00001BA2  2D4B 002E                move.l     [A6 + 0x2E], A3
00001BA6  3D7C FFFF 0010           move.w     [A6 + 0x10], 0xFFFF
00001BAC  3D7C 0004 0012           move.w     [A6 + 0x12], 0x4
00001BB2  1D7C 0001 0033           move.b     [A6 + 0x33], 0x1
00001BB8  586E 0006                addq.w     [A6 + 0x6], 4
00001BBC  4EFA F642                jmp        [PC - 0x9BE /* 00001200 */]
00001BC0  001E 0100                ori.b      [A6]+, 0x0
00001BC4  0125                     btst       -[A5], D0
00001BC6  0100                     btst       D0, D0
00001BC8  0A2F 0100 0C4E           xori.b     [A7 + 0xC4E], 0x0
00001BCE  0200 1855                andi.b     D0, 0x55 /* 'U' */
00001BD2  0200 2C5C                andi.b     D0, 0x5C /* '\\' */
00001BD6  0200 3E5C                andi.b     D0, 0x5C /* '\\' */
00001BDA  0200 4B55                andi.b     D0, 0x55 /* 'U' */
00001BDE  0300                     btst       D0, D1
00001BE0  5C4E                     addq.w     A6, 6
00001BE2  0300                     btst       D0, D1
00001BE4  6837                     bvc        +0x39 /* 00001C1D */
00001BE6  0400 702E                subi.b     D0, 0x2E /* '.' */
00001BEA  0400 7426                subi.b     D0, 0x26 /* '&' */
00001BEE  0400 7323                subi.b     D0, 0x23 /* '#' */
00001BF2  0500                     btst       D0, D2
00001BF4  6E2C                     bgt        +0x2E /* 00001C22 */
00001BF6  0500                     btst       D0, D2
00001BF8  6038                     bra        +0x3A /* 00001C32 */
00001BFA  0500                     btst       D0, D2
00001BFC  4E3F                     .invalid   // invalid opcode 4
00001BFE  0500                     btst       D0, D2
00001C00  4046                     negx.w     D6
00001C02  0500                     btst       D0, D2
00001C04  3949 0100                move.w     [A4 + 0x100], A1
00001C08  2742 0100                move.l     [A3 + 0x100], D2
00001C0C  173B 0100                move.b     -[A3], [PC + <<invalid base displacement size>> + D0]
00001C10  0B31 0100                btst       [A1 + <<invalid base displacement size>> + D0], D5
00001C14  0526                     btst       -[A6], D2
00001C16  0100                     btst       D0, D0
00001C18  081E 0100                btst.b     [A6]+, 0x0
00001C1C  0C25 0100                cmpi.b     -[A5], 0x0
00001C20  182E 0100                move.b     D4, [A6 + 0x100]
// begin alternate branch 00001C22-00001C24
label00001C22:
00001C22  0100                     btst       D0, D0
// end alternate branch 00001C22-00001C24
label00001C22: // (misaligned)
00001C24  274E 0200                move.l     [A3 + 0x200], A6
00001C28  3C55                     movea.w    A6, [A5]
00001C2A  0200 4A5C                andi.b     D0, 0x5C /* '\\' */
00001C2E  0200 5E5C                andi.b     D0, 0x5C /* '\\' */
label00001C32:
00001C32  0200 7455                andi.b     D0, 0x55 /* 'U' */
00001C36  0300                     btst       D0, D1
00001C38  844E                     or.w       D2, A6
00001C3A  0300                     btst       D0, D1
00001C3C  8E37 0400                or.b       D7, [A7 + D0.w * 4]
00001C40  962E 0400                sub.b      D3, [A6 + 0x400]
00001C44  9A26                     sub.b      D5, -[A6]
00001C46  0400 9423                subi.b     D0, 0x23 /* '#' */
00001C4A  0500                     btst       D0, D2
00001C4C  8C2C 0500                or.b       D6, [A4 + 0x500]
00001C50  8238 0500                or.b       D1, [0x00000500]
00001C54  713F                     moveq.l    D0, 0x3F
00001C56  0500                     btst       D0, D2
00001C58  6046                     bra        +0x48 /* 00001CA0 */
00001C5A  0500                     btst       D0, D2
00001C5C  4049                     negx.w     A1
00001C5E  0100                     btst       D0, D0
00001C60  2E42                     movea.l    A7, D2
00001C62  0100                     btst       D0, D0
00001C64  1E3B 0100                move.b     D7, [PC + <<invalid base displacement size>> + D0]
00001C68  122F 0100                move.b     D1, [A7 + 0x100]
00001C6C  0A26 0100                xori.b     -[A6], 0x0
label00001C70:
00001C70  4A6E 002C                tst.w      [A6 + 0x2C]
00001C74  6D0A                     blt        +0xC /* 00001C80 */
00001C76  4A72 4006                tst.w      [A2 + D4.w + 0x6]
00001C7A  6C0E                     bge        +0x10 /* 00001C8A */
00001C7C  4EFA F7FE                jmp        [PC - 0x802 /* 0000147C */]
label00001C80:
00001C80  4A72 4008                tst.w      [A2 + D4.w + 0x8]
00001C84  6C04                     bge        +0x6 /* 00001C8A */
00001C86  4EFA F7F4                jmp        [PC - 0x80C /* 0000147C */]
label00001C8A:
00001C8A  426E 0010                clr.w      [A6 + 0x10]
00001C8E  3032 4000                move.w     D0, [A2 + D4.w]
00001C92  3D40 000C                move.w     [A6 + 0xC], D0
00001C96  3D7C 002F 0012           move.w     [A6 + 0x12], 0x2F /* '/' */
00001C9C  426E 002C                clr.w      [A6 + 0x2C]
label00001CA0:
00001CA0  3D6E 002C 001E           move.w     [A6 + 0x1E], [A6 + 0x2C]
00001CA6  446E 001E                neg.w      [A6 + 0x1E]
00001CAA  B272 400E                cmp.w      D1, [A2 + D4.w + 0xE]
00001CAE  6E04                     bgt        +0x6 /* 00001CB4 */
00001CB0  3232 400E                move.w     D1, [A2 + D4.w + 0xE]
label00001CB4:
00001CB4  B272 4010                cmp.w      D1, [A2 + D4.w + 0x10]
00001CB8  6F04                     ble        +0x6 /* 00001CBE */
00001CBA  3232 4010                move.w     D1, [A2 + D4.w + 0x10]
label00001CBE:
00001CBE  342E 0010                move.w     D2, [A6 + 0x10]
00001CC2  206D FFA8                movea.l    A0, [A5 - 0x58]
00001CC6  0C72 0222 4004           cmpi.w     [A2 + D4.w + 0x4], 0x222
00001CCC  660C                     bne        +0xE /* 00001CDA */
00001CCE  3D7C 000A 000A           move.w     [A6 + 0xA], 0xA /* '\n' */
00001CD4  5342                     subq.w     D2, 1
00001CD6  6000 0180                bra        +0x182 /* 00001E58 */
label00001CDA:
00001CDA  3E2E 0008                move.w     D7, [A6 + 0x8]
00001CDE  6700 0030                beq        +0x32 /* 00001D10 */
00001CE2  6D0A                     blt        +0xC /* 00001CEE */
00001CE4  4A72 4008                tst.w      [A2 + D4.w + 0x8]
00001CE8  6C0E                     bge        +0x10 /* 00001CF8 */
00001CEA  6000 0024                bra        +0x26 /* 00001D10 */
label00001CEE:
00001CEE  4A72 4006                tst.w      [A2 + D4.w + 0x6]
00001CF2  6C04                     bge        +0x6 /* 00001CF8 */
00001CF4  6000 001A                bra        +0x1C /* 00001D10 */
label00001CF8:
00001CF8  BE6E 001E                cmp.w      D7, [A6 + 0x1E]
00001CFC  660A                     bne        +0xC /* 00001D08 */
00001CFE  4A47                     tst.w      D7
00001D00  6D00 002E                blt        +0x30 /* 00001D30 */
00001D04  6E00 0036                bgt        +0x38 /* 00001D3C */
label00001D08:
00001D08  3D47 001E                move.w     [A6 + 0x1E], D7
00001D0C  426E 0008                clr.w      [A6 + 0x8]
label00001D10:
00001D10  4A6E 000A                tst.w      [A6 + 0xA]
00001D14  6D00 00E6                blt        +0xE8 /* 00001DFC */
00001D18  6E00 013E                bgt        +0x140 /* 00001E58 */
00001D1C  3F00                     move.w     -[A7], D0
00001D1E  303C 000E                move.w     D0, 0xE
00001D22  4EAD 005A                jsr        [A5 + 0x5A /* export_7, CODE:1 @ 00000150 */]
00001D26  301F                     move.w     D0, [A7]+
00001D28  426E 002C                clr.w      [A6 + 0x2C]
00001D2C  6000 01B4                bra        +0x1B6 /* 00001EE2 */
label00001D30:
00001D30  3A32 4006                move.w     D5, [A2 + D4.w + 0x6]
00001D34  6700 0012                beq        +0x14 /* 00001D48 */
00001D38  6000 0076                bra        +0x78 /* 00001DB0 */
label00001D3C:
00001D3C  3A32 4008                move.w     D5, [A2 + D4.w + 0x8]
00001D40  6700 0006                beq        +0x8 /* 00001D48 */
00001D44  6000 006A                bra        +0x6C /* 00001DB0 */
label00001D48:
00001D48  5141                     subq.w     D1, 8
00001D4A  3D41 000E                move.w     [A6 + 0xE], D1
00001D4E  3C2E 0006                move.w     D6, [A6 + 0x6]
label00001D52:
00001D52  B272 6000                cmp.w      D1, [A2 + D6.w]
00001D56  6C04                     bge        +0x6 /* 00001D5C */
00001D58  5946                     subq.w     D6, 4
00001D5A  60F6                     bra        -0x8 /* 00001D52 */
label00001D5C:
00001D5C  B272 6000                cmp.w      D1, [A2 + D6.w]
00001D60  6F04                     ble        +0x6 /* 00001D66 */
00001D62  5846                     addq.w     D6, 4
00001D64  60F6                     bra        -0x8 /* 00001D5C */
label00001D66:
00001D66  3D46 0006                move.w     [A6 + 0x6], D6
00001D6A  4A6E 001E                tst.w      [A6 + 0x1E]
00001D6E  6C06                     bge        +0x8 /* 00001D76 */
00001D70  3032 4000                move.w     D0, [A2 + D4.w]
00001D74  6006                     bra        +0x8 /* 00001D7C */
label00001D76:
00001D76  3032 4002                move.w     D0, [A2 + D4.w + 0x2]
00001D7A  4E71                     nop
label00001D7C:
00001D7C  D06E 001E                add.w      D0, [A6 + 0x1E]
00001D80  3D40 000C                move.w     [A6 + 0xC], D0
00001D84  3D6E 001E 002C           move.w     [A6 + 0x2C], [A6 + 0x1E]
00001D8A  422E 0032                clr.b      [A6 + 0x32]
00001D8E  47FA F654                lea.l      A3, [PC - 0x9AC /* 000013E4, value 0x2FFFF, cstring "" */]
00001D92  D6FC 0028                add.w      A3, 0x28 /* '(' */
00001D96  2D4B 002E                move.l     [A6 + 0x2E], A3
00001D9A  3D7C FFFF 0010           move.w     [A6 + 0x10], 0xFFFF
00001DA0  3D7C 0004 0012           move.w     [A6 + 0x12], 0x4
00001DA6  1D7C 0001 0033           move.b     [A6 + 0x33], 0x1
00001DAC  4EFA F452                jmp        [PC - 0xBAE /* 00001200 */]
label00001DB0:
00001DB0  B272 500E                cmp.w      D1, [A2 + D5.w + 0xE]
00001DB4  6D92                     blt        -0x6C /* 00001D48 */
00001DB6  B272 5010                cmp.w      D1, [A2 + D5.w + 0x10]
00001DBA  6E8C                     bgt        -0x72 /* 00001D48 */
00001DBC  3032 5000                move.w     D0, [A2 + D5.w]
00001DC0  3D40 000C                move.w     [A6 + 0xC], D0
00001DC4  3805                     move.w     D4, D5
00001DC6  3D44 0004                move.w     [A6 + 0x4], D4
00001DCA  426E 0008                clr.w      [A6 + 0x8]
00001DCE  286E 0016                movea.l    A4, [A6 + 0x16]
00001DD2  226C 0040                movea.l    A1, [A4 + 0x40]
00001DD6  3D42 0010                move.w     [A6 + 0x10], D2
00001DDA  4A6E 001E                tst.w      [A6 + 0x1E]
00001DDE  6E08                     bgt        +0xA /* 00001DE8 */
00001DE0  0640 0016                addi.w     D0, 0x16
00001DE4  4242                     clr.w      D2
00001DE6  6006                     bra        +0x8 /* 00001DEE */
label00001DE8:
00001DE8  5940                     subq.w     D0, 4
00001DEA  343C 0001                move.w     D2, 0x1
label00001DEE:
00001DEE  5541                     subq.w     D1, 2
00001DF0  4EAD 0202                jsr        [A5 + 0x202 /* export_60, CODE:4 @ 00000000 */]
00001DF4  446E 001E                neg.w      [A6 + 0x1E]
00001DF8  6000 010A                bra        +0x10C /* 00001F04 */
label00001DFC:
00001DFC  D26E 000A                add.w      D1, [A6 + 0xA]
00001E00  B272 400E                cmp.w      D1, [A2 + D4.w + 0xE]
00001E04  6E2C                     bgt        +0x2E /* 00001E32 */
00001E06  3A32 400A                move.w     D5, [A2 + D4.w + 0xA]
00001E0A  6F1E                     ble        +0x20 /* 00001E2A */
00001E0C  4A6E 001E                tst.w      [A6 + 0x1E]
00001E10  6D08                     blt        +0xA /* 00001E1A */
00001E12  4A72 5008                tst.w      [A2 + D5.w + 0x8]
00001E16  6C0A                     bge        +0xC /* 00001E22 */
00001E18  6010                     bra        +0x12 /* 00001E2A */
label00001E1A:
00001E1A  4A72 5006                tst.w      [A2 + D5.w + 0x6]
00001E1E  6C02                     bge        +0x4 /* 00001E22 */
00001E20  6008                     bra        +0xA /* 00001E2A */
label00001E22:
00001E22  3805                     move.w     D4, D5
00001E24  3D44 0004                move.w     [A6 + 0x4], D4
00001E28  6008                     bra        +0xA /* 00001E32 */
label00001E2A:
00001E2A  322E 000E                move.w     D1, [A6 + 0xE]
00001E2E  6000 00B2                bra        +0xB4 /* 00001EE2 */
label00001E32:
00001E32  536E 002C                subq.w     [A6 + 0x2C], 1
00001E36  6C12                     bge        +0x14 /* 00001E4A */
00001E38  3F00                     move.w     -[A7], D0
00001E3A  303C 000E                move.w     D0, 0xE
00001E3E  4EAD 0052                jsr        [A5 + 0x52 /* export_6, CODE:1 @ 00000114 */]
00001E42  301F                     move.w     D0, [A7]+
00001E44  3D7C 0008 002C           move.w     [A6 + 0x2C], 0x8
label00001E4A:
00001E4A  5342                     subq.w     D2, 1
00001E4C  6C00 0094                bge        +0x96 /* 00001EE2 */
00001E50  343C 0002                move.w     D2, 0x2
00001E54  6000 008C                bra        +0x8E /* 00001EE2 */
label00001E58:
00001E58  D26E 000A                add.w      D1, [A6 + 0xA]
00001E5C  B272 4010                cmp.w      D1, [A2 + D4.w + 0x10]
00001E60  6F5C                     ble        +0x5E /* 00001EBE */
00001E62  3A32 400C                move.w     D5, [A2 + D4.w + 0xC]
00001E66  6728                     beq        +0x2A /* 00001E90 */
00001E68  6D1E                     blt        +0x20 /* 00001E88 */
00001E6A  4A6E 001E                tst.w      [A6 + 0x1E]
00001E6E  6D08                     blt        +0xA /* 00001E78 */
00001E70  4A72 5008                tst.w      [A2 + D5.w + 0x8]
00001E74  6C0A                     bge        +0xC /* 00001E80 */
00001E76  6010                     bra        +0x12 /* 00001E88 */
label00001E78:
00001E78  4A72 5006                tst.w      [A2 + D5.w + 0x6]
00001E7C  6C02                     bge        +0x4 /* 00001E80 */
00001E7E  6008                     bra        +0xA /* 00001E88 */
label00001E80:
00001E80  3805                     move.w     D4, D5
00001E82  3D44 0004                move.w     [A6 + 0x4], D4
00001E86  6036                     bra        +0x38 /* 00001EBE */
label00001E88:
00001E88  322E 000E                move.w     D1, [A6 + 0xE]
00001E8C  6000 0054                bra        +0x56 /* 00001EE2 */
label00001E90:
00001E90  3232 4010                move.w     D1, [A2 + D4.w + 0x10]
00001E94  3D41 000E                move.w     [A6 + 0xE], D1
00001E98  3C2E 0006                move.w     D6, [A6 + 0x6]
label00001E9C:
00001E9C  B272 6000                cmp.w      D1, [A2 + D6.w]
00001EA0  6C04                     bge        +0x6 /* 00001EA6 */
00001EA2  5946                     subq.w     D6, 4
00001EA4  60F6                     bra        -0x8 /* 00001E9C */
label00001EA6:
00001EA6  B272 6000                cmp.w      D1, [A2 + D6.w]
00001EAA  6F04                     ble        +0x6 /* 00001EB0 */
00001EAC  5846                     addq.w     D6, 4
00001EAE  60F6                     bra        -0x8 /* 00001EA6 */
label00001EB0:
00001EB0  3D46 0006                move.w     [A6 + 0x6], D6
00001EB4  5840                     addq.w     D0, 4
00001EB6  3D40 000C                move.w     [A6 + 0xC], D0
00001EBA  4EFA F5C0                jmp        [PC - 0xA40 /* 0000147C */]
label00001EBE:
00001EBE  536E 002C                subq.w     [A6 + 0x2C], 1
00001EC2  6C12                     bge        +0x14 /* 00001ED6 */
00001EC4  3F00                     move.w     -[A7], D0
00001EC6  303C 000E                move.w     D0, 0xE
00001ECA  4EAD 0052                jsr        [A5 + 0x52 /* export_6, CODE:1 @ 00000114 */]
00001ECE  301F                     move.w     D0, [A7]+
00001ED0  3D7C 0008 002C           move.w     [A6 + 0x2C], 0x8
label00001ED6:
00001ED6  5242                     addq.w     D2, 1
00001ED8  0C42 0003                cmpi.w     D2, 0x3
00001EDC  6D00 0004                blt        +0x6 /* 00001EE2 */
00001EE0  4242                     clr.w      D2
label00001EE2:
00001EE2  286E 0016                movea.l    A4, [A6 + 0x16]
00001EE6  4A6E 001E                tst.w      [A6 + 0x1E]
00001EEA  6D06                     blt        +0x8 /* 00001EF2 */
00001EEC  226C 003C                movea.l    A1, [A4 + 0x3C]
00001EF0  6006                     bra        +0x8 /* 00001EF8 */
label00001EF2:
00001EF2  226C 0038                movea.l    A1, [A4 + 0x38]
00001EF6  5A40                     addq.w     D0, 5
label00001EF8:
00001EF8  3D42 0010                move.w     [A6 + 0x10], D2
00001EFC  3D41 000E                move.w     [A6 + 0xE], D1
00001F00  4EAD 0202                jsr        [A5 + 0x202 /* export_60, CODE:4 @ 00000000 */]
label00001F04:
00001F04  4EFA E60E                jmp        [PC - 0x19F2 /* 00000514 */]
00001F08  4E75                     rts
fn00001F0A:
00001F0A  3D7C 0005 0034           move.w     [A6 + 0x34], 0x5
00001F10  2D5F 0030                move.l     [A6 + 0x30], [A7]+
00001F14  3D6E 0012 0036           move.w     [A6 + 0x36], [A6 + 0x12]
00001F1A  3D7C 001D 0012           move.w     [A6 + 0x12], 0x1D
00001F20  3F00                     move.w     -[A7], D0
00001F22  303C 0049                move.w     D0, 0x49 /* 'I' */
00001F26  4EAD 0052                jsr        [A5 + 0x52 /* export_6, CODE:1 @ 00000114 */]
00001F2A  301F                     move.w     D0, [A7]+
label00001F2C:
00001F2C  206D FFA8                movea.l    A0, [A5 - 0x58]
00001F30  286E 0016                movea.l    A4, [A6 + 0x16]
00001F34  226C 0090                movea.l    A1, [A4 + 0x90]
00001F38  4242                     clr.w      D2
00001F3A  0441 000B                subi.w     D1, 0xB
00001F3E  4EAD 0202                jsr        [A5 + 0x202 /* export_60, CODE:4 @ 00000000 */]
00001F42  0641 000B                addi.w     D1, 0xB
00001F46  4EBA E5CC                jsr        [PC - 0x1A34 /* 00000514 */]
00001F4A  536E 0034                subq.w     [A6 + 0x34], 1
00001F4E  6E16                     bgt        +0x18 /* 00001F66 */
00001F50  206E 002C                movea.l    A0, [A6 + 0x2C]
00001F54  5048                     addq.w     A0, 8
00001F56  42A8 FFFC                clr.l      [A0 - 0x4]
00001F5A  3D6E 0036 0012           move.w     [A6 + 0x12], [A6 + 0x36]
00001F60  206E 0030                movea.l    A0, [A6 + 0x30]
00001F64  4ED0                     jmp        [A0]
label00001F66:
00001F66  4E75                     rts
label00001F68:
00001F68  3D7C 0018 0012           move.w     [A6 + 0x12], 0x18
00001F6E  3D7C 0002 002C           move.w     [A6 + 0x2C], 0x2
00001F74  4A72 4008                tst.w      [A2 + D4.w + 0x8]
00001F78  6608                     bne        +0xA /* 00001F82 */
00001F7A  3D7C 01BA 002E           move.w     [A6 + 0x2E], 0x1BA
00001F80  6006                     bra        +0x8 /* 00001F88 */
label00001F82:
00001F82  3D7C 01DB 002E           move.w     [A6 + 0x2E], 0x1DB
label00001F88:
00001F88  3D7C 00F0 0030           move.w     [A6 + 0x30], 0xF0
label00001F8E:
00001F8E  206D FFA8                movea.l    A0, [A5 - 0x58]
00001F92  226D FE48                movea.l    A1, [A5 - 0x1B8]
00001F96  302E 002E                move.w     D0, [A6 + 0x2E]
00001F9A  322E 0030                move.w     D1, [A6 + 0x30]
00001F9E  4242                     clr.w      D2
00001FA0  4EAD 0202                jsr        [A5 + 0x202 /* export_60, CODE:4 @ 00000000 */]
00001FA4  536E 002C                subq.w     [A6 + 0x2C], 1
00001FA8  6E16                     bgt        +0x18 /* 00001FC0 */
00001FAA  6D1C                     blt        +0x1E /* 00001FC8 */
00001FAC  3F00                     move.w     -[A7], D0
00001FAE  303C 0020                move.w     D0, 0x20 /* ' ' */
00001FB2  4EAD 0052                jsr        [A5 + 0x52 /* export_6, CODE:1 @ 00000114 */]
00001FB6  301F                     move.w     D0, [A7]+
00001FB8  3D7C 011C 0030           move.w     [A6 + 0x30], 0x11C
00001FBE  6014                     bra        +0x16 /* 00001FD4 */
label00001FC0:
00001FC0  066E 0014 0030           addi.w     [A6 + 0x30], 0x14
00001FC6  600C                     bra        +0xE /* 00001FD4 */
label00001FC8:
00001FC8  0C6E FFEC 002C           cmpi.w     [A6 + 0x2C], 0xFFEC
00001FCE  6604                     bne        +0x6 /* 00001FD4 */
00001FD0  4EFA E44A                jmp        [PC - 0x1BB6 /* 0000041C */]
label00001FD4:
00001FD4  4E75                     rts
label00001FD6:
00001FD6  082E 0003 0015           btst.b     [A6 + 0x15], 0x3
00001FDC  6610                     bne        +0x12 /* 00001FEE */
00001FDE  082E 0004 0015           btst.b     [A6 + 0x15], 0x4
00001FE4  6608                     bne        +0xA /* 00001FEE */
00001FE6  082E 0002 0014           btst.b     [A6 + 0x14], 0x2
00001FEC  6604                     bne        +0x6 /* 00001FF2 */
label00001FEE:
00001FEE  4EFA EC7C                jmp        [PC - 0x1384 /* 00000C6C */]
label00001FF2:
00001FF2  08AE 0002 0014           bclr.b     [A6 + 0x14], 0x2
00001FF8  2D6D FD9E 002C           move.l     [A6 + 0x2C], [A5 - 0x262]
00001FFE  08EE 0003 0015           bset.b     [A6 + 0x15], 0x3
00002004  3032 4000                move.w     D0, [A2 + D4.w]
00002008  5040                     addq.w     D0, 8
0000200A  3D40 000C                move.w     [A6 + 0xC], D0
0000200E  4EBA FEFA                jsr        [PC - 0x106 /* 00001F0A */]
00002012  3D7C 001A 0012           move.w     [A6 + 0x12], 0x1A
00002018  3D7C 0002 002C           move.w     [A6 + 0x2C], 0x2
0000201E  4E75                     rts
label00002020:
00002020  206D FFA8                movea.l    A0, [A5 - 0x58]
00002024  286E 0016                movea.l    A4, [A6 + 0x16]
00002028  226C 0098                movea.l    A1, [A4 + 0x98]
0000202C  343C 0002                move.w     D2, 0x2
00002030  0441 0012                subi.w     D1, 0x12
00002034  4EAD 0202                jsr        [A5 + 0x202 /* export_60, CODE:4 @ 00000000 */]
00002038  322E 000E                move.w     D1, [A6 + 0xE]
0000203C  4EBA E4D6                jsr        [PC - 0x1B2A /* 00000514 */]
00002040  536E 002C                subq.w     [A6 + 0x2C], 1
00002044  6E12                     bgt        +0x14 /* 00002058 */
00002046  3D7C 0019 0012           move.w     [A6 + 0x12], 0x19
0000204C  426E 0010                clr.w      [A6 + 0x10]
00002050  303C 0008                move.w     D0, 0x8
00002054  4EAD 03DA                jsr        [A5 + 0x3DA /* export_119, CODE:4 @ 00005C14 */]
label00002058:
00002058  4E75                     rts
label0000205A:
0000205A  206D FFA8                movea.l    A0, [A5 - 0x58]
0000205E  286E 0016                movea.l    A4, [A6 + 0x16]
00002062  226C 0094                movea.l    A1, [A4 + 0x94]
00002066  343C 0002                move.w     D2, 0x2
0000206A  5541                     subq.w     D1, 2
0000206C  4EAD 0202                jsr        [A5 + 0x202 /* export_60, CODE:4 @ 00000000 */]
00002070  322E 000E                move.w     D1, [A6 + 0xE]
00002074  4EBA E49E                jsr        [PC - 0x1B62 /* 00000514 */]
00002078  0644 0012                addi.w     D4, 0x12
0000207C  3D44 0004                move.w     [A6 + 0x4], D4
00002080  3D7C 0008 001E           move.w     [A6 + 0x1E], 0x8
00002086  3A04                     move.w     D5, D4
00002088  4EBA E698                jsr        [PC - 0x1968 /* 00000722 */]
0000208C  303C 0109                move.w     D0, 0x109
00002090  323C 012D                move.w     D1, 0x12D
00002094  4242                     clr.w      D2
00002096  226D FE4C                movea.l    A1, [A5 - 0x1B4]
0000209A  4EAD 033A                jsr        [A5 + 0x33A /* export_99, CODE:4 @ 00005048 */]
0000209E  4E75                     rts
label000020A0:
000020A0  206D FFA8                movea.l    A0, [A5 - 0x58]
000020A4  286E 0016                movea.l    A4, [A6 + 0x16]
000020A8  226C 0098                movea.l    A1, [A4 + 0x98]
000020AC  343C 0001                move.w     D2, 0x1
000020B0  0441 0012                subi.w     D1, 0x12
000020B4  4EAD 0202                jsr        [A5 + 0x202 /* export_60, CODE:4 @ 00000000 */]
000020B8  322E 000E                move.w     D1, [A6 + 0xE]
000020BC  3D7C 0019 0012           move.w     [A6 + 0x12], 0x19
000020C2  426E 0010                clr.w      [A6 + 0x10]
000020C6  B072 400A                cmp.w      D0, [A2 + D4.w + 0xA]
000020CA  6D0C                     blt        +0xE /* 000020D8 */
000020CC  3B7C 0001 FD8C           move.w     [A5 - 0x274], 0x1
000020D2  3D7C 001C 0012           move.w     [A6 + 0x12], 0x1C
label000020D8:
000020D8  4EFA E43A                jmp        [PC - 0x1BC6 /* 00000514 */]
000020DC  4E75                     rts
label000020DE:
000020DE  082E 0001 0014           btst.b     [A6 + 0x14], 0x1
000020E4  6734                     beq        +0x36 /* 0000211A */
000020E6  08AE 0001 0014           bclr.b     [A6 + 0x14], 0x1
000020EC  3F00                     move.w     -[A7], D0
000020EE  303C 0054                move.w     D0, 0x54 /* 'T' */
000020F2  4EAD 0052                jsr        [A5 + 0x52 /* export_6, CODE:1 @ 00000114 */]
000020F6  301F                     move.w     D0, [A7]+
000020F8  3D7C 001B 0012           move.w     [A6 + 0x12], 0x1B
000020FE  206D FFA8                movea.l    A0, [A5 - 0x58]
00002102  286E 0016                movea.l    A4, [A6 + 0x16]
00002106  226C 0098                movea.l    A1, [A4 + 0x98]
0000210A  4242                     clr.w      D2
0000210C  0441 0012                subi.w     D1, 0x12
00002110  4EAD 0202                jsr        [A5 + 0x202 /* export_60, CODE:4 @ 00000000 */]
00002114  322E 000E                move.w     D1, [A6 + 0xE]
00002118  6062                     bra        +0x64 /* 0000217C */
label0000211A:
0000211A  342E 0010                move.w     D2, [A6 + 0x10]
0000211E  4A6E 0008                tst.w      [A6 + 0x8]
00002122  6724                     beq        +0x26 /* 00002148 */
00002124  6E08                     bgt        +0xA /* 0000212E */
00002126  4A42                     tst.w      D2
00002128  660A                     bne        +0xC /* 00002134 */
0000212A  5D40                     subq.w     D0, 6
0000212C  6006                     bra        +0x8 /* 00002134 */
label0000212E:
0000212E  4A42                     tst.w      D2
00002130  6702                     beq        +0x4 /* 00002134 */
00002132  5C40                     addq.w     D0, 6
label00002134:
00002134  B072 4006                cmp.w      D0, [A2 + D4.w + 0x6]
00002138  6C04                     bge        +0x6 /* 0000213E */
0000213A  3032 4006                move.w     D0, [A2 + D4.w + 0x6]
label0000213E:
0000213E  B072 4008                cmp.w      D0, [A2 + D4.w + 0x8]
00002142  6F04                     ble        +0x6 /* 00002148 */
00002144  3032 4008                move.w     D0, [A2 + D4.w + 0x8]
label00002148:
00002148  3D40 000C                move.w     [A6 + 0xC], D0
0000214C  286E 0016                movea.l    A4, [A6 + 0x16]
00002150  226C 0094                movea.l    A1, [A4 + 0x94]
00002154  4A6E 0008                tst.w      [A6 + 0x8]
00002158  6604                     bne        +0x6 /* 0000215E */
0000215A  343C 0003                move.w     D2, 0x3
label0000215E:
0000215E  206D FFA8                movea.l    A0, [A5 - 0x58]
00002162  5541                     subq.w     D1, 2
00002164  4EAD 0202                jsr        [A5 + 0x202 /* export_60, CODE:4 @ 00000000 */]
00002168  322E 000E                move.w     D1, [A6 + 0xE]
0000216C  5242                     addq.w     D2, 1
0000216E  0C42 0002                cmpi.w     D2, 0x2
00002172  6D04                     blt        +0x6 /* 00002178 */
00002174  4242                     clr.w      D2
00002176  4E71                     nop
label00002178:
00002178  3D42 0010                move.w     [A6 + 0x10], D2
label0000217C:
0000217C  4EFA E396                jmp        [PC - 0x1C6A /* 00000514 */]
00002180  4E75                     rts
00002182  0002 0001                ori.b      D2, 0x1
label00002186:
00002186  4A72 4006                tst.w      [A2 + D4.w + 0x6]
0000218A  6626                     bne        +0x28 /* 000021B2 */
0000218C  48E7 E0C0                movem.l    -[A7], D0,D1,D2,A0,A1
00002190  3032 400A                move.w     D0, [A2 + D4.w + 0xA]
00002194  5272 400A                addq.w     [A2 + D4.w + 0xA], 1
00002198  0C40 0003                cmpi.w     D0, 0x3
0000219C  6D04                     blt        +0x6 /* 000021A2 */
0000219E  4272 400A                clr.w      [A2 + D4.w + 0xA]
label000021A2:
000021A2  143B 00DE                move.b     D2, [PC + D0.w - 0x22]
000021A6  4882                     ext.w      D2
000021A8  4EAD 03E2                jsr        [A5 + 0x3E2 /* export_120, CODE:4 @ 00005C48 */]
000021AC  4CDF 0307                movem.l    D0,D1,D2,A0,A1, [A7]+
000021B0  6010                     bra        +0x12 /* 000021C2 */
label000021B2:
000021B2  48E7 E0C0                movem.l    -[A7], D0,D1,D2,A0,A1
000021B6  343C 0002                move.w     D2, 0x2
000021BA  4EAD 03E2                jsr        [A5 + 0x3E2 /* export_120, CODE:4 @ 00005C48 */]
000021BE  4CDF 0307                movem.l    D0,D1,D2,A0,A1, [A7]+
label000021C2:
000021C2  082E 0004 0015           btst.b     [A6 + 0x15], 0x4
000021C8  6608                     bne        +0xA /* 000021D2 */
000021CA  082E 0002 0014           btst.b     [A6 + 0x14], 0x2
000021D0  6604                     bne        +0x6 /* 000021D6 */
label000021D2:
000021D2  4EFA EA98                jmp        [PC - 0x1568 /* 00000C6C */]
label000021D6:
000021D6  08AE 0002 0014           bclr.b     [A6 + 0x14], 0x2
000021DC  4A72 4008                tst.w      [A2 + D4.w + 0x8]
000021E0  6608                     bne        +0xA /* 000021EA */
000021E2  2D6D FD9A 002C           move.l     [A6 + 0x2C], [A5 - 0x266]
000021E8  6006                     bra        +0x8 /* 000021F0 */
label000021EA:
000021EA  2D6D FD96 002C           move.l     [A6 + 0x2C], [A5 - 0x26A]
label000021F0:
000021F0  3032 4000                move.w     D0, [A2 + D4.w]
000021F4  5040                     addq.w     D0, 8
000021F6  3D40 000C                move.w     [A6 + 0xC], D0
000021FA  4EBA FD0E                jsr        [PC - 0x2F2 /* 00001F0A */]
000021FE  4A72 4006                tst.w      [A2 + D4.w + 0x6]
00002202  6604                     bne        +0x6 /* 00002208 */
00002204  4EFA FD62                jmp        [PC - 0x29E /* 00001F68 */]
label00002208:
00002208  48E7 C0C0                movem.l    -[A7], D0,D1,A0,A1
0000220C  303C 0002                move.w     D0, 0x2
00002210  4EAD 035A                jsr        [A5 + 0x35A /* export_103, CODE:4 @ 000050C2 */]
00002214  202D FDC8                move.l     D0, [A5 - 0x238]
00002218  4EAD 03CA                jsr        [A5 + 0x3CA /* export_117, CODE:4 @ 00005BF0 */]
0000221C  303C 002C                move.w     D0, 0x2C /* ',' */
00002220  4EAD 03D2                jsr        [A5 + 0x3D2 /* export_118, CODE:4 @ 00005C2A */]
00002224  303C 000A                move.w     D0, 0xA /* '\n' */
00002228  4EAD 03DA                jsr        [A5 + 0x3DA /* export_119, CODE:4 @ 00005C14 */]
0000222C  4272 4006                clr.w      [A2 + D4.w + 0x6]
00002230  4CDF 0303                movem.l    D0,D1,A0,A1, [A7]+
00002234  4E75                     rts
label00002236:
00002236  4A72 400C                tst.w      [A2 + D4.w + 0xC]
0000223A  6604                     bne        +0x6 /* 00002240 */
0000223C  4EFA EA2E                jmp        [PC - 0x15D2 /* 00000C6C */]
label00002240:
00002240  3A04                     move.w     D5, D4
00002242  4EFA E6A4                jmp        [PC - 0x195C /* 000008E8 */]
00002246  4E75                     rts
label00002248:
00002248  082E 0004 0015           btst.b     [A6 + 0x15], 0x4
0000224E  6608                     bne        +0xA /* 00002258 */
00002250  082E 0002 0014           btst.b     [A6 + 0x14], 0x2
00002256  6604                     bne        +0x6 /* 0000225C */
label00002258:
00002258  4EFA EA12                jmp        [PC - 0x15EE /* 00000C6C */]
label0000225C:
0000225C  082E 0002 0015           btst.b     [A6 + 0x15], 0x2
00002262  6604                     bne        +0x6 /* 00002268 */
00002264  4EFA EA06                jmp        [PC - 0x15FA /* 00000C6C */]
label00002268:
00002268  303C 0002                move.w     D0, 0x2
0000226C  4EAD 0352                jsr        [A5 + 0x352 /* export_102, CODE:4 @ 000050DE */]
00002270  3F00                     move.w     -[A7], D0
00002272  303C 0049                move.w     D0, 0x49 /* 'I' */
00002276  4EAD 0052                jsr        [A5 + 0x52 /* export_6, CODE:1 @ 00000114 */]
0000227A  301F                     move.w     D0, [A7]+
0000227C  4EAD 042A                jsr        [A5 + 0x42A /* export_129, CODE:5 @ 00001F00 */]
00002280  303C 000C                move.w     D0, 0xC
00002284  4EAD 03DA                jsr        [A5 + 0x3DA /* export_119, CODE:4 @ 00005C14 */]
00002288  4E75                     rts
label0000228A:
0000228A  48A7 C000                movem.w    -[A7], D0,D1
0000228E  3432 4006                move.w     D2, [A2 + D4.w + 0x6]
00002292  4EAD 03E2                jsr        [A5 + 0x3E2 /* export_120, CODE:4 @ 00005C48 */]
00002296  4C9F 0003                movem.w    D0,D1, [A7]+
0000229A  4EFA E9D0                jmp        [PC - 0x1630 /* 00000C6C */]
0000229E  4E75                     rts
label000022A0:
000022A0  3E2E 002C                move.w     D7, [A6 + 0x2C]
000022A4  4EFB 7002                jmp        [PC + D7.w + 0x2]
000022A8  4EFA 0012                jmp        [PC + 0x12 /* 000022BC */]
000022AC  4EFA 002C                jmp        [PC + 0x2C /* 000022DA */]
000022B0  4EFA 008E                jmp        [PC + 0x8E /* 00002340 */]
000022B4  4EFA 00BA                jmp        [PC + 0xBA /* 00002370 */]
000022B8  4EFA 00F8                jmp        [PC + 0xF8 /* 000023B2 */]
label000022BC:
000022BC  3B7C 0001 FCE4           move.w     [A5 - 0x31C], 0x1
000022C2  206D FFA8                movea.l    A0, [A5 - 0x58]
000022C6  286E 0016                movea.l    A4, [A6 + 0x16]
000022CA  226C 0030                movea.l    A1, [A4 + 0x30]
000022CE  343C 0002                move.w     D2, 0x2
000022D2  4EAD 0202                jsr        [A5 + 0x202 /* export_60, CODE:4 @ 00000000 */]
000022D6  6000 00E8                bra        +0xEA /* 000023C0 */
label000022DA:
000022DA  206D FFA8                movea.l    A0, [A5 - 0x58]
000022DE  286E 0016                movea.l    A4, [A6 + 0x16]
000022E2  226C 00F4                movea.l    A1, [A4 + 0xF4]
000022E6  362E 002E                move.w     D3, [A6 + 0x2E]
000022EA  143B 3042                move.b     D2, [PC + D3.w + 0x42]
000022EE  4882                     ext.w      D2
000022F0  6C2E                     bge        +0x30 /* 00002320 */
000022F2  48A7 C000                movem.w    -[A7], D0,D1
000022F6  4240                     clr.w      D0
000022F8  4EAD 035A                jsr        [A5 + 0x35A /* export_103, CODE:4 @ 000050C2 */]
000022FC  303C 001A                move.w     D0, 0x1A
00002300  4EAD 03DA                jsr        [A5 + 0x3DA /* export_119, CODE:4 @ 00005C14 */]
00002304  4C9F 0003                movem.w    D0,D1, [A7]+
00002308  3D7C 0008 002C           move.w     [A6 + 0x2C], 0x8
0000230E  426E 002E                clr.w      [A6 + 0x2E]
00002312  3F00                     move.w     -[A7], D0
00002314  303C 0003                move.w     D0, 0x3
00002318  4EAD 0052                jsr        [A5 + 0x52 /* export_6, CODE:1 @ 00000114 */]
0000231C  301F                     move.w     D0, [A7]+
0000231E  6020                     bra        +0x22 /* 00002340 */
label00002320:
00002320  5341                     subq.w     D1, 1
00002322  4EAD 0202                jsr        [A5 + 0x202 /* export_60, CODE:4 @ 00000000 */]
00002326  526E 002E                addq.w     [A6 + 0x2E], 1
0000232A  6000 0094                bra        +0x96 /* 000023C0 */
0000232E  0001 0203                ori.b      D1, 0x3
00002332  0405 0605                subi.b     D5, 0x5
00002336  0605 0403                addi.b     D5, 0x3
0000233A  0201 0000                andi.b     D1, 0x0
0000233E  FF00                     .extension 0xF00 <<F/4-5/7>> // unimplemented
label00002340:
00002340  206D FFA8                movea.l    A0, [A5 - 0x58]
00002344  286E 0016                movea.l    A4, [A6 + 0x16]
00002348  226C 0078                movea.l    A1, [A4 + 0x78]
label0000234C:
0000234C  362E 002E                move.w     D3, [A6 + 0x2E]
00002350  143B 3018                move.b     D2, [PC + D3.w + 0x18]
00002354  4882                     ext.w      D2
00002356  6C06                     bge        +0x8 /* 0000235E */
00002358  426E 002E                clr.w      [A6 + 0x2E]
0000235C  60EE                     bra        -0x10 /* 0000234C */
label0000235E:
0000235E  4EAD 0202                jsr        [A5 + 0x202 /* export_60, CODE:4 @ 00000000 */]
00002362  526E 002E                addq.w     [A6 + 0x2E], 1
00002366  6000 0058                bra        +0x5A /* 000023C0 */
0000236A  0001 0201                ori.b      D1, 0x1
0000236E  FF00                     .extension 0xF00 <<F/4-5/7>> // unimplemented
label00002370:
00002370  362E 002E                move.w     D3, [A6 + 0x2E]
00002374  526E 002E                addq.w     [A6 + 0x2E], 1
00002378  0243 0001                andi.w     D3, 0x1
0000237C  6700 0042                beq        +0x44 /* 000023C0 */
00002380  0C6E 0006 002E           cmpi.w     [A6 + 0x2E], 0x6
00002386  6D10                     blt        +0x12 /* 00002398 */
00002388  3D7C 0010 002C           move.w     [A6 + 0x2C], 0x10
0000238E  3D7C 0014 002E           move.w     [A6 + 0x2E], 0x14
00002394  6000 002A                bra        +0x2C /* 000023C0 */
label00002398:
00002398  206D FFA8                movea.l    A0, [A5 - 0x58]
0000239C  286E 0016                movea.l    A4, [A6 + 0x16]
000023A0  226C 00F4                movea.l    A1, [A4 + 0xF4]
000023A4  343C 0007                move.w     D2, 0x7
000023A8  5341                     subq.w     D1, 1
000023AA  4EAD 0202                jsr        [A5 + 0x202 /* export_60, CODE:4 @ 00000000 */]
000023AE  6000 0010                bra        +0x12 /* 000023C0 */
label000023B2:
000023B2  536E 002E                subq.w     [A6 + 0x2E], 1
000023B6  6E00 0008                bgt        +0xA /* 000023C0 */
000023BA  3A04                     move.w     D5, D4
000023BC  4EFA E52A                jmp        [PC - 0x1AD6 /* 000008E8 */]
label000023C0:
000023C0  4E75                     rts
label000023C2:
000023C2  3E2E 002C                move.w     D7, [A6 + 0x2C]
000023C6  4EFB 7002                jmp        [PC + D7.w + 0x2]
000023CA  4EFA 001A                jmp        [PC + 0x1A /* 000023E6 */]
000023CE  4EFA 0044                jmp        [PC + 0x44 /* 00002414 */]
000023D2  4EFA 007A                jmp        [PC + 0x7A /* 0000244E */]
000023D6  4EFA 00CC                jmp        [PC + 0xCC /* 000024A4 */]
000023DA  4EFA 00F4                jmp        [PC + 0xF4 /* 000024D0 */]
000023DE  4EFA 0146                jmp        [PC + 0x146 /* 00002526 */]
000023E2  4EFA 014E                jmp        [PC + 0x14E /* 00002532 */]
label000023E6:
000023E6  082E 0004 0015           btst.b     [A6 + 0x15], 0x4
000023EC  6622                     bne        +0x24 /* 00002410 */
000023EE  082E 0002 0014           btst.b     [A6 + 0x14], 0x2
000023F4  671A                     beq        +0x1C /* 00002410 */
000023F6  08AE 0002 0014           bclr.b     [A6 + 0x14], 0x2
000023FC  3D7C 0004 002C           move.w     [A6 + 0x2C], 0x4
00002402  3032 4000                move.w     D0, [A2 + D4.w]
00002406  3D40 000C                move.w     [A6 + 0xC], D0
0000240A  426E 002E                clr.w      [A6 + 0x2E]
0000240E  6004                     bra        +0x6 /* 00002414 */
label00002410:
00002410  4EFA E85A                jmp        [PC - 0x17A6 /* 00000C6C */]
label00002414:
00002414  266D FD92                movea.l    A3, [A5 - 0x26E]
00002418  504B                     addq.w     A3, 8
0000241A  42AB FFFC                clr.l      [A3 - 0x4]
0000241E  342E 002E                move.w     D2, [A6 + 0x2E]
00002422  526E 002E                addq.w     [A6 + 0x2E], 1
00002426  286E 0016                movea.l    A4, [A6 + 0x16]
0000242A  226C 00B8                movea.l    A1, [A4 + 0xB8]
0000242E  206D FFA8                movea.l    A0, [A5 - 0x58]
00002432  5541                     subq.w     D1, 2
00002434  4EAD 0202                jsr        [A5 + 0x202 /* export_60, CODE:4 @ 00000000 */]
00002438  3D7C 0008 002C           move.w     [A6 + 0x2C], 0x8
0000243E  3F00                     move.w     -[A7], D0
00002440  303C 0049                move.w     D0, 0x49 /* 'I' */
00002444  4EAD 0052                jsr        [A5 + 0x52 /* export_6, CODE:1 @ 00000114 */]
00002448  301F                     move.w     D0, [A7]+
0000244A  6000 0126                bra        +0x128 /* 00002572 */
label0000244E:
0000244E  286E 0016                movea.l    A4, [A6 + 0x16]
00002452  226C 00B8                movea.l    A1, [A4 + 0xB8]
00002456  206D FFA8                movea.l    A0, [A5 - 0x58]
0000245A  5541                     subq.w     D1, 2
0000245C  082E 0002 0014           btst.b     [A6 + 0x14], 0x2
00002462  6718                     beq        +0x1A /* 0000247C */
00002464  08AE 0002 0014           bclr.b     [A6 + 0x14], 0x2
0000246A  3D7C 000C 002C           move.w     [A6 + 0x2C], 0xC
00002470  3D7C 0014 002E           move.w     [A6 + 0x2E], 0x14
00002476  343C 0002                move.w     D2, 0x2
0000247A  6004                     bra        +0x6 /* 00002480 */
label0000247C:
0000247C  343C 0001                move.w     D2, 0x1
label00002480:
00002480  4EAD 0202                jsr        [A5 + 0x202 /* export_60, CODE:4 @ 00000000 */]
00002484  082E 0002 0014           btst.b     [A6 + 0x14], 0x2
0000248A  6700 00E6                beq        +0xE8 /* 00002572 */
0000248E  08AE 0002 0014           bclr.b     [A6 + 0x14], 0x2
00002494  3D7C 000C 002C           move.w     [A6 + 0x2C], 0xC
0000249A  3D7C 0014 002E           move.w     [A6 + 0x2E], 0x14
000024A0  6000 00D0                bra        +0xD2 /* 00002572 */
label000024A4:
000024A4  286E 0016                movea.l    A4, [A6 + 0x16]
000024A8  226C 00BC                movea.l    A1, [A4 + 0xBC]
000024AC  206D FFA8                movea.l    A0, [A5 - 0x58]
000024B0  343C 0001                move.w     D2, 0x1
000024B4  0441 0013                subi.w     D1, 0x13
000024B8  5F40                     subq.w     D0, 7
000024BA  4EAD 0202                jsr        [A5 + 0x202 /* export_60, CODE:4 @ 00000000 */]
000024BE  536E 002E                subq.w     [A6 + 0x2E], 1
000024C2  6E00 00AE                bgt        +0xB0 /* 00002572 */
000024C6  3D7C 0008 002C           move.w     [A6 + 0x2C], 0x8
000024CC  6000 00A4                bra        +0xA6 /* 00002572 */
label000024D0:
000024D0  286E 0016                movea.l    A4, [A6 + 0x16]
000024D4  226C 00BC                movea.l    A1, [A4 + 0xBC]
000024D8  206D FFA8                movea.l    A0, [A5 - 0x58]
000024DC  342E 002E                move.w     D2, [A6 + 0x2E]
000024E0  0242 0001                andi.w     D2, 0x1
000024E4  0441 0013                subi.w     D1, 0x13
000024E8  5F40                     subq.w     D0, 7
000024EA  4EAD 0202                jsr        [A5 + 0x202 /* export_60, CODE:4 @ 00000000 */]
000024EE  536E 002E                subq.w     [A6 + 0x2E], 1
000024F2  6E00 007E                bgt        +0x80 /* 00002572 */
000024F6  3F00                     move.w     -[A7], D0
000024F8  303C 0001                move.w     D0, 0x1
000024FC  4EAD 035A                jsr        [A5 + 0x35A /* export_103, CODE:4 @ 000050C2 */]
00002500  303C 001C                move.w     D0, 0x1C
00002504  4EAD 03DA                jsr        [A5 + 0x3DA /* export_119, CODE:4 @ 00005C14 */]
00002508  301F                     move.w     D0, [A7]+
0000250A  3F00                     move.w     -[A7], D0
0000250C  303C 0032                move.w     D0, 0x32 /* '2' */
00002510  4EAD 0052                jsr        [A5 + 0x52 /* export_6, CODE:1 @ 00000114 */]
00002514  301F                     move.w     D0, [A7]+
00002516  3D7C 0018 002C           move.w     [A6 + 0x2C], 0x18
0000251C  3D7C 001E 002E           move.w     [A6 + 0x2E], 0x1E
00002522  6000 004E                bra        +0x50 /* 00002572 */
label00002526:
00002526  536E 002E                subq.w     [A6 + 0x2E], 1
0000252A  6E46                     bgt        +0x48 /* 00002572 */
0000252C  3A04                     move.w     D5, D4
0000252E  4EFA E3B8                jmp        [PC - 0x1C48 /* 000008E8 */]
label00002532:
00002532  206D FFA8                movea.l    A0, [A5 - 0x58]
00002536  286E 0016                movea.l    A4, [A6 + 0x16]
0000253A  4A6E 001E                tst.w      [A6 + 0x1E]
0000253E  6E06                     bgt        +0x8 /* 00002546 */
00002540  226C 00C0                movea.l    A1, [A4 + 0xC0]
00002544  6004                     bra        +0x6 /* 0000254A */
label00002546:
00002546  226C 00C4                movea.l    A1, [A4 + 0xC4]
label0000254A:
0000254A  342E 002E                move.w     D2, [A6 + 0x2E]
0000254E  0242 0001                andi.w     D2, 0x1
00002552  5741                     subq.w     D1, 3
00002554  5D40                     subq.w     D0, 6
00002556  4EAD 0202                jsr        [A5 + 0x202 /* export_60, CODE:4 @ 00000000 */]
0000255A  536E 002E                subq.w     [A6 + 0x2E], 1
0000255E  6E00 0012                bgt        +0x14 /* 00002572 */
00002562  3D7C 0014 002C           move.w     [A6 + 0x2C], 0x14
00002568  3D7C 001E 002E           move.w     [A6 + 0x2E], 0x1E
0000256E  6000 0002                bra        +0x4 /* 00002572 */
label00002572:
00002572  4EFA DFA0                jmp        [PC - 0x2060 /* 00000514 */]
00002576  4E75                     rts
label00002578:
00002578  536E 002C                subq.w     [A6 + 0x2C], 1
0000257C  6E0A                     bgt        +0xC /* 00002588 */
0000257E  3B7C FFD6 FE76           move.w     [A5 - 0x18A], 0xFFD6
00002584  50ED FE7D                st         [A5 - 0x183]
label00002588:
00002588  4E75                     rts
fn0000258A:
0000258A  082E 0001 0015           btst.b     [A6 + 0x15], 0x1
00002590  6722                     beq        +0x24 /* 000025B4 */
00002592  3F00                     move.w     -[A7], D0
00002594  303C 0063                move.w     D0, 0x63 /* 'c' */
00002598  4EAD 0052                jsr        [A5 + 0x52 /* export_6, CODE:1 @ 00000114 */]
0000259C  301F                     move.w     D0, [A7]+
0000259E  3D7C 001E 002C           move.w     [A6 + 0x2C], 0x1E
000025A4  3D6E 0012 002E           move.w     [A6 + 0x2E], [A6 + 0x12]
000025AA  3D7C 0025 0012           move.w     [A6 + 0x12], 0x25 /* '%' */
000025B0  4A9F                     tst.l      [A7]+
000025B2  6002                     bra        +0x4 /* 000025B6 */
label000025B4:
000025B4  4E75                     rts
label000025B6:
000025B6  4EBA F3B4                jsr        [PC - 0xC4C /* 0000196C */]
000025BA  206D FFA8                movea.l    A0, [A5 - 0x58]
000025BE  286E 0016                movea.l    A4, [A6 + 0x16]
000025C2  4A6E 001E                tst.w      [A6 + 0x1E]
000025C6  6E06                     bgt        +0x8 /* 000025CE */
000025C8  226C 00C0                movea.l    A1, [A4 + 0xC0]
000025CC  6004                     bra        +0x6 /* 000025D2 */
label000025CE:
000025CE  226C 00C4                movea.l    A1, [A4 + 0xC4]
label000025D2:
000025D2  342E 002C                move.w     D2, [A6 + 0x2C]
000025D6  0242 0001                andi.w     D2, 0x1
000025DA  5741                     subq.w     D1, 3
000025DC  5D40                     subq.w     D0, 6
000025DE  4EAD 0202                jsr        [A5 + 0x202 /* export_60, CODE:4 @ 00000000 */]
000025E2  536E 002C                subq.w     [A6 + 0x2C], 1
000025E6  6E1E                     bgt        +0x20 /* 00002606 */
label000025E8:
000025E8  3D6E 002E 0012           move.w     [A6 + 0x12], [A6 + 0x2E]
000025EE  426E 002E                clr.w      [A6 + 0x2E]
000025F2  08AE 0002 0014           bclr.b     [A6 + 0x14], 0x2
000025F8  3F00                     move.w     -[A7], D0
000025FA  303C 0063                move.w     D0, 0x63 /* 'c' */
000025FE  4EAD 005A                jsr        [A5 + 0x5A /* export_7, CODE:1 @ 00000150 */]
00002602  301F                     move.w     D0, [A7]+
00002604  600A                     bra        +0xC /* 00002610 */
label00002606:
00002606  082E 0002 0014           btst.b     [A6 + 0x14], 0x2
0000260C  6602                     bne        +0x4 /* 00002610 */
0000260E  60D8                     bra        -0x26 /* 000025E8 */
label00002610:
00002610  4E75                     rts
label00002612:
00002612  4A6E 002C                tst.w      [A6 + 0x2C]
00002616  6E2E                     bgt        +0x30 /* 00002646 */
00002618  082E 0004 0015           btst.b     [A6 + 0x15], 0x4
0000261E  6622                     bne        +0x24 /* 00002642 */
00002620  082E 0002 0014           btst.b     [A6 + 0x14], 0x2
00002626  671A                     beq        +0x1C /* 00002642 */
00002628  08AE 0002 0014           bclr.b     [A6 + 0x14], 0x2
0000262E  4A72 4006                tst.w      [A2 + D4.w + 0x6]
00002632  6D0E                     blt        +0x10 /* 00002642 */
00002634  3D7C 0001 002C           move.w     [A6 + 0x2C], 0x1
0000263A  35BC 0001 4006           move.w     [A2 + D4.w + 0x6], 0x1
00002640  6004                     bra        +0x6 /* 00002646 */
label00002642:
00002642  4EFA E628                jmp        [PC - 0x19D8 /* 00000C6C */]
label00002646:
00002646  206D FFA8                movea.l    A0, [A5 - 0x58]
0000264A  286E 0016                movea.l    A4, [A6 + 0x16]
0000264E  226C 00CC                movea.l    A1, [A4 + 0xCC]
00002652  3032 4000                move.w     D0, [A2 + D4.w]
00002656  342E 002C                move.w     D2, [A6 + 0x2C]
0000265A  0C42 0004                cmpi.w     D2, 0x4
0000265E  6E04                     bgt        +0x6 /* 00002664 */
00002660  4242                     clr.w      D2
00002662  6012                     bra        +0x14 /* 00002676 */
label00002664:
00002664  0C42 000F                cmpi.w     D2, 0xF
00002668  6E06                     bgt        +0x8 /* 00002670 */
0000266A  343C 0001                move.w     D2, 0x1
0000266E  6006                     bra        +0x8 /* 00002676 */
label00002670:
00002670  426E 002C                clr.w      [A6 + 0x2C]
00002674  60CC                     bra        -0x32 /* 00002642 */
label00002676:
00002676  4EAD 0202                jsr        [A5 + 0x202 /* export_60, CODE:4 @ 00000000 */]
0000267A  526E 002C                addq.w     [A6 + 0x2C], 1
0000267E  4EFA DE94                jmp        [PC - 0x216C /* 00000514 */]
00002682  4E75                     rts
label00002684:
00002684  4A6E 002C                tst.w      [A6 + 0x2C]
00002688  6E20                     bgt        +0x22 /* 000026AA */
0000268A  082E 0004 0015           btst.b     [A6 + 0x15], 0x4
00002690  6600 009C                bne        +0x9E /* 0000272E */
00002694  082E 0002 0014           btst.b     [A6 + 0x14], 0x2
0000269A  6700 0092                beq        +0x94 /* 0000272E */
0000269E  08AE 0002 0014           bclr.b     [A6 + 0x14], 0x2
000026A4  3D7C 0003 002C           move.w     [A6 + 0x2C], 0x3
label000026AA:
000026AA  536E 002C                subq.w     [A6 + 0x2C], 1
000026AE  206D FFA8                movea.l    A0, [A5 - 0x58]
000026B2  286E 0016                movea.l    A4, [A6 + 0x16]
000026B6  226C 00D4                movea.l    A1, [A4 + 0xD4]
000026BA  4A6E 001E                tst.w      [A6 + 0x1E]
000026BE  6D08                     blt        +0xA /* 000026C8 */
000026C0  3032 4002                move.w     D0, [A2 + D4.w + 0x2]
000026C4  4242                     clr.w      D2
000026C6  6008                     bra        +0xA /* 000026D0 */
label000026C8:
000026C8  3032 4000                move.w     D0, [A2 + D4.w]
000026CC  343C 0001                move.w     D2, 0x1
label000026D0:
000026D0  0641 000E                addi.w     D1, 0xE
000026D4  4EAD 0202                jsr        [A5 + 0x202 /* export_60, CODE:4 @ 00000000 */]
000026D8  4A6E 002C                tst.w      [A6 + 0x2C]
000026DC  6E4C                     bgt        +0x4E /* 0000272A */
000026DE  0C2D 007F FD3E           cmpi.b     [A5 - 0x2C2], 0x7F
000026E4  6234                     bhi        +0x36 /* 0000271A */
000026E6  3F00                     move.w     -[A7], D0
000026E8  303C 000B                move.w     D0, 0xB
000026EC  4EAD 0052                jsr        [A5 + 0x52 /* export_6, CODE:1 @ 00000114 */]
000026F0  301F                     move.w     D0, [A7]+
000026F2  3B7C 0002 FD38           move.w     [A5 - 0x2C8], 0x2
000026F8  3F06                     move.w     -[A7], D6
000026FA  1C3C 0010                move.b     D6, 0x10
000026FE  1E2D FD3E                move.b     D7, [A5 - 0x2C2]
00002702  023C 0007                andi.b     ccr, 7
00002706  CF06                     abcd       D7, D6
00002708  1B47 FD3E                move.b     [A5 - 0x2C2], D7
0000270C  3C1F                     move.w     D6, [A7]+
0000270E  35BC 0001 4004           move.w     [A2 + D4.w + 0x4], 0x1
00002714  426E 0012                clr.w      [A6 + 0x12]
00002718  6010                     bra        +0x12 /* 0000272A */
label0000271A:
0000271A  3F00                     move.w     -[A7], D0
0000271C  303C 000D                move.w     D0, 0xD /* '\r' */
00002720  4EAD 0052                jsr        [A5 + 0x52 /* export_6, CODE:1 @ 00000114 */]
00002724  301F                     move.w     D0, [A7]+
00002726  426E 0012                clr.w      [A6 + 0x12]
label0000272A:
0000272A  4EFA DDE8                jmp        [PC - 0x2218 /* 00000514 */]
label0000272E:
0000272E  4EFA E53C                jmp        [PC - 0x1AC4 /* 00000C6C */]
00002732  4E75                     rts
label00002734:
00002734  4A6E 002C                tst.w      [A6 + 0x2C]
00002738  6E1C                     bgt        +0x1E /* 00002756 */
0000273A  082E 0004 0015           btst.b     [A6 + 0x15], 0x4
00002740  666A                     bne        +0x6C /* 000027AC */
00002742  082E 0002 0014           btst.b     [A6 + 0x14], 0x2
00002748  6762                     beq        +0x64 /* 000027AC */
0000274A  08AE 0002 0014           bclr.b     [A6 + 0x14], 0x2
00002750  3D7C 0003 002C           move.w     [A6 + 0x2C], 0x3
label00002756:
00002756  536E 002C                subq.w     [A6 + 0x2C], 1
0000275A  206D FFA8                movea.l    A0, [A5 - 0x58]
0000275E  286E 0016                movea.l    A4, [A6 + 0x16]
00002762  226C 00D4                movea.l    A1, [A4 + 0xD4]
00002766  4A6E 001E                tst.w      [A6 + 0x1E]
0000276A  6D08                     blt        +0xA /* 00002774 */
0000276C  3032 4002                move.w     D0, [A2 + D4.w + 0x2]
00002770  4242                     clr.w      D2
00002772  6008                     bra        +0xA /* 0000277C */
label00002774:
00002774  3032 4000                move.w     D0, [A2 + D4.w]
00002778  343C 0001                move.w     D2, 0x1
label0000277C:
0000277C  0641 000E                addi.w     D1, 0xE
00002780  4EAD 0202                jsr        [A5 + 0x202 /* export_60, CODE:4 @ 00000000 */]
00002784  4A6E 002C                tst.w      [A6 + 0x2C]
00002788  6E1E                     bgt        +0x20 /* 000027A8 */
0000278A  3F00                     move.w     -[A7], D0
0000278C  303C 000B                move.w     D0, 0xB
00002790  4EAD 0052                jsr        [A5 + 0x52 /* export_6, CODE:1 @ 00000114 */]
00002794  301F                     move.w     D0, [A7]+
00002796  526D FCC4                addq.w     [A5 - 0x33C], 1
0000279A  4EAD 034A                jsr        [A5 + 0x34A /* export_101, CODE:4 @ 00005240 */]
0000279E  35BC 0001 4004           move.w     [A2 + D4.w + 0x4], 0x1
000027A4  426E 0012                clr.w      [A6 + 0x12]
label000027A8:
000027A8  4EFA DD6A                jmp        [PC - 0x2296 /* 00000514 */]
label000027AC:
000027AC  4EFA E4BE                jmp        [PC - 0x1B42 /* 00000C6C */]
000027B0  4E75                     rts
label000027B2:
000027B2  3E2E 002C                move.w     D7, [A6 + 0x2C]
000027B6  4EFB 7002                jmp        [PC + D7.w + 0x2]
000027BA  4EFA 000A                jmp        [PC + 0xA /* 000027C6 */]
000027BE  4EFA 0028                jmp        [PC + 0x28 /* 000027E8 */]
000027C2  4EFA 0068                jmp        [PC + 0x68 /* 0000282C */]
label000027C6:
000027C6  082E 0004 0015           btst.b     [A6 + 0x15], 0x4
000027CC  6616                     bne        +0x18 /* 000027E4 */
000027CE  082E 0002 0014           btst.b     [A6 + 0x14], 0x2
000027D4  670E                     beq        +0x10 /* 000027E4 */
000027D6  08AE 0002 0014           bclr.b     [A6 + 0x14], 0x2
000027DC  3D7C 0004 002C           move.w     [A6 + 0x2C], 0x4
000027E2  6004                     bra        +0x6 /* 000027E8 */
label000027E4:
000027E4  4EFA E486                jmp        [PC - 0x1B7A /* 00000C6C */]
label000027E8:
000027E8  3D7C 0008 002E           move.w     [A6 + 0x2E], 0x8
000027EE  3D7C 0008 002C           move.w     [A6 + 0x2C], 0x8
000027F4  3E32 4006                move.w     D7, [A2 + D4.w + 0x6]
000027F8  0FED                     .incomplete
000027FA  FC66 206D                .extension 0xC66 <<F/1/6>>, 0x206D // unimplemented
000027FE  FFA8                     .invalid   <<F/6/7>>
00002800  286E 0016                movea.l    A4, [A6 + 0x16]
00002804  226C 0090                movea.l    A1, [A4 + 0x90]
00002808  4242                     clr.w      D2
0000280A  3032 4008                move.w     D0, [A2 + D4.w + 0x8]
0000280E  5640                     addq.w     D0, 3
00002810  3D40 000C                move.w     [A6 + 0xC], D0
00002814  0441 000B                subi.w     D1, 0xB
00002818  4EAD 0202                jsr        [A5 + 0x202 /* export_60, CODE:4 @ 00000000 */]
0000281C  3F00                     move.w     -[A7], D0
0000281E  303C 002A                move.w     D0, 0x2A /* '*' */
00002822  4EAD 0052                jsr        [A5 + 0x52 /* export_6, CODE:1 @ 00000114 */]
00002826  301F                     move.w     D0, [A7]+
00002828  6000 0062                bra        +0x64 /* 0000288C */
label0000282C:
0000282C  536E 002E                subq.w     [A6 + 0x2E], 1
00002830  6E22                     bgt        +0x24 /* 00002854 */
00002832  0C2D 001F FC67           cmpi.b     [A5 - 0x399], 0x1F
00002838  6604                     bne        +0x6 /* 0000283E */
0000283A  4EFA 00C8                jmp        [PC + 0xC8 /* 00002904 */]
label0000283E:
0000283E  4A72 400C                tst.w      [A2 + D4.w + 0xC]
00002842  6608                     bne        +0xA /* 0000284C */
00002844  426E 0012                clr.w      [A6 + 0x12]
00002848  4EFA E422                jmp        [PC - 0x1BDE /* 00000C6C */]
label0000284C:
0000284C  426E 002C                clr.w      [A6 + 0x2C]
00002850  4EFA FF74                jmp        [PC - 0x8C /* 000027C6 */]
label00002854:
00002854  206D FFA8                movea.l    A0, [A5 - 0x58]
00002858  3032 4008                move.w     D0, [A2 + D4.w + 0x8]
0000285C  3232 400A                move.w     D1, [A2 + D4.w + 0xA]
00002860  4242                     clr.w      D2
00002862  226D FC6C                movea.l    A1, [A5 - 0x394]
00002866  4EAD 0202                jsr        [A5 + 0x202 /* export_60, CODE:4 @ 00000000 */]
0000286A  286E 0016                movea.l    A4, [A6 + 0x16]
0000286E  226C 0090                movea.l    A1, [A4 + 0x90]
00002872  343C 0001                move.w     D2, 0x1
00002876  3032 4008                move.w     D0, [A2 + D4.w + 0x8]
0000287A  5640                     addq.w     D0, 3
0000287C  322E 000E                move.w     D1, [A6 + 0xE]
00002880  0441 000B                subi.w     D1, 0xB
00002884  4EAD 0202                jsr        [A5 + 0x202 /* export_60, CODE:4 @ 00000000 */]
00002888  6000 0002                bra        +0x4 /* 0000288C */
label0000288C:
0000288C  4EFA DC86                jmp        [PC - 0x237A /* 00000514 */]
00002890  4E75                     rts
label00002892:
00002892  4A72 4006                tst.w      [A2 + D4.w + 0x6]
00002896  6E22                     bgt        +0x24 /* 000028BA */
00002898  6D1C                     blt        +0x1E /* 000028B6 */
0000289A  082E 0004 0015           btst.b     [A6 + 0x15], 0x4
000028A0  6614                     bne        +0x16 /* 000028B6 */
000028A2  082E 0002 0014           btst.b     [A6 + 0x14], 0x2
000028A8  670C                     beq        +0xE /* 000028B6 */
000028AA  35BC 0001 4006           move.w     [A2 + D4.w + 0x6], 0x1
000028B0  08AE 0002 0014           bclr.b     [A6 + 0x14], 0x2
label000028B6:
000028B6  4EFA E3B4                jmp        [PC - 0x1C4C /* 00000C6C */]
label000028BA:
000028BA  3432 4006                move.w     D2, [A2 + D4.w + 0x6]
000028BE  6DF6                     blt        -0x8 /* 000028B6 */
000028C0  5342                     subq.w     D2, 1
000028C2  143B 2036                move.b     D2, [PC + D2.w + 0x36]
000028C6  4882                     ext.w      D2
000028C8  206D FFA8                movea.l    A0, [A5 - 0x58]
000028CC  286E 0016                movea.l    A4, [A6 + 0x16]
000028D0  5F41                     subq.w     D1, 7
000028D2  0C40 00C8                cmpi.w     D0, 0xC8
000028D6  6E0C                     bgt        +0xE /* 000028E4 */
000028D8  3032 4000                move.w     D0, [A2 + D4.w]
000028DC  5140                     subq.w     D0, 8
000028DE  226C 00C8                movea.l    A1, [A4 + 0xC8]
000028E2  600C                     bra        +0xE /* 000028F0 */
label000028E4:
000028E4  3032 4002                move.w     D0, [A2 + D4.w + 0x2]
000028E8  0440 000C                subi.w     D0, 0xC
000028EC  226C 00EC                movea.l    A1, [A4 + 0xEC]
label000028F0:
000028F0  4EAD 0202                jsr        [A5 + 0x202 /* export_60, CODE:4 @ 00000000 */]
000028F4  4EFA DC1E                jmp        [PC - 0x23E2 /* 00000514 */]
000028F8  4E75                     rts
000028FA  0000 0102                ori.b      D0, 0x2
000028FE  0304                     btst       D4, D1
00002900  0403 0300                subi.b     D3, 0x0
label00002904:
00002904  426E 002C                clr.w      [A6 + 0x2C]
00002908  3D7C 000E 002E           move.w     [A6 + 0x2E], 0xE
0000290E  3D7C 0032 0012           move.w     [A6 + 0x12], 0x32 /* '2' */
00002914  486D FFB2                pea.l      [A5 - 0x4E]
00002918  A875                     syscall    SetPBits/SetPortBits
0000291A  487A 010C                pea.l      [PC + 0x10C /* 00002A28, value 0x6500F4, cstring "" */]
0000291E  A8A3                     syscall    EraseRect
00002920  487A 00FE                pea.l      [PC + 0xFE /* 00002A20, value 0x6C00A0, cstring "" */]
00002924  A8A3                     syscall    EraseRect
00002926  486D FF86                pea.l      [A5 - 0x7A]
0000292A  A875                     syscall    SetPBits/SetPortBits
0000292C  5140                     subq.w     D0, 8
0000292E  302E 000C                move.w     D0, [A6 + 0xC]
00002932  322E 000E                move.w     D1, [A6 + 0xE]
label00002936:
00002936  3E2E 002C                move.w     D7, [A6 + 0x2C]
0000293A  4EFB 7002                jmp        [PC + D7.w + 0x2]
0000293E  4EFA 0012                jmp        [PC + 0x12 /* 00002952 */]
00002942  4EFA 003A                jmp        [PC + 0x3A /* 0000297E */]
00002946  4EFA 006A                jmp        [PC + 0x6A /* 000029B2 */]
0000294A  4EFA 0094                jmp        [PC + 0x94 /* 000029E0 */]
0000294E  4EFA 00AA                jmp        [PC + 0xAA /* 000029FA */]
label00002952:
00002952  206D FFA8                movea.l    A0, [A5 - 0x58]
00002956  286E 0016                movea.l    A4, [A6 + 0x16]
0000295A  226C 0030                movea.l    A1, [A4 + 0x30]
0000295E  343C 0002                move.w     D2, 0x2
00002962  4EAD 020A                jsr        [A5 + 0x20A /* export_61, CODE:4 @ 00000320 */]
00002966  536E 002E                subq.w     [A6 + 0x2E], 1
0000296A  6E00 00B2                bgt        +0xB4 /* 00002A1E */
0000296E  3D7C 0004 002C           move.w     [A6 + 0x2C], 0x4
00002974  3D7C 000A 002E           move.w     [A6 + 0x2E], 0xA /* '\n' */
0000297A  6000 00A2                bra        +0xA4 /* 00002A1E */
label0000297E:
0000297E  206D FFA8                movea.l    A0, [A5 - 0x58]
00002982  286E 0016                movea.l    A4, [A6 + 0x16]
00002986  226C 00DC                movea.l    A1, [A4 + 0xDC]
0000298A  342E 002E                move.w     D2, [A6 + 0x2E]
0000298E  0242 0001                andi.w     D2, 0x1
00002992  5941                     subq.w     D1, 4
00002994  5940                     subq.w     D0, 4
00002996  4EAD 020A                jsr        [A5 + 0x20A /* export_61, CODE:4 @ 00000320 */]
0000299A  536E 002E                subq.w     [A6 + 0x2E], 1
0000299E  6E00 007E                bgt        +0x80 /* 00002A1E */
000029A2  3D7C 0008 002C           move.w     [A6 + 0x2C], 0x8
000029A8  3D7C 0006 002E           move.w     [A6 + 0x2E], 0x6
000029AE  6000 006E                bra        +0x70 /* 00002A1E */
label000029B2:
000029B2  206D FFA8                movea.l    A0, [A5 - 0x58]
000029B6  286E 0016                movea.l    A4, [A6 + 0x16]
000029BA  226C 00D8                movea.l    A1, [A4 + 0xD8]
000029BE  342E 002E                move.w     D2, [A6 + 0x2E]
000029C2  0242 0001                andi.w     D2, 0x1
000029C6  0441 0009                subi.w     D1, 0x9 /* '\t' */
000029CA  5840                     addq.w     D0, 4
000029CC  4EAD 020A                jsr        [A5 + 0x20A /* export_61, CODE:4 @ 00000320 */]
000029D0  536E 002E                subq.w     [A6 + 0x2E], 1
000029D4  6600 0048                bne        +0x4A /* 00002A1E */
000029D8  4EAD 02D2                jsr        [A5 + 0x2D2 /* export_86, CODE:4 @ 00002C8A */]
000029DC  6000 0040                bra        +0x42 /* 00002A1E */
label000029E0:
000029E0  206D FFA8                movea.l    A0, [A5 - 0x58]
000029E4  286E 0016                movea.l    A4, [A6 + 0x16]
000029E8  226C 00E8                movea.l    A1, [A4 + 0xE8]
000029EC  4242                     clr.w      D2
000029EE  0441 000B                subi.w     D1, 0xB
000029F2  4EAD 020A                jsr        [A5 + 0x20A /* export_61, CODE:4 @ 00000320 */]
000029F6  6000 0026                bra        +0x28 /* 00002A1E */
label000029FA:
000029FA  206D FFA8                movea.l    A0, [A5 - 0x58]
000029FE  286E 0016                movea.l    A4, [A6 + 0x16]
00002A02  226C 00F0                movea.l    A1, [A4 + 0xF0]
00002A06  526E 002E                addq.w     [A6 + 0x2E], 1
00002A0A  342E 002E                move.w     D2, [A6 + 0x2E]
00002A0E  0242 0001                andi.w     D2, 0x1
00002A12  0441 0009                subi.w     D1, 0x9 /* '\t' */
00002A16  4EAD 0202                jsr        [A5 + 0x202 /* export_60, CODE:4 @ 00000000 */]
00002A1A  6000 0002                bra        +0x4 /* 00002A1E */
label00002A1E:
00002A1E  4E75                     rts
00002A20  006C 00A0 00C5           ori.w      [A4 + 0xC5], 0xA0
00002A26  0150                     bchg       [A0], D0
00002A28  0065 00F4                ori.w      -[A5], 0xF4
00002A2C  006C 0109 286E           ori.w      [A4 + 0x286E], 0x109
// begin alternate branch 00002A30-00002A3A
label00002A30:
00002A30  286E 0016                movea.l    A4, [A6 + 0x16]
00002A34  4A6E 001E                tst.w      [A6 + 0x1E]
00002A38  6D06                     blt        +0x8 /* 00002A40 */
// end alternate branch 00002A30-00002A3A
label00002A30: // (misaligned)
00002A32  0016 4A6E                ori.b      [A6], 0x6E /* 'n' */
00002A36  001E 6D06                ori.b      [A6]+, 0x6
00002A3A  226C 00E4                movea.l    A1, [A4 + 0xE4]
00002A3E  6004                     bra        +0x6 /* 00002A44 */
label00002A40:
00002A40  226C 00E0                movea.l    A1, [A4 + 0xE0]
label00002A44:
00002A44  3E2E 002C                move.w     D7, [A6 + 0x2C]
00002A48  546E 002C                addq.w     [A6 + 0x2C], 2
00002A4C  343B 7020                move.w     D2, [PC + D7.w + 0x20]
00002A50  6C0C                     bge        +0xE /* 00002A5E */
00002A52  343C 0004                move.w     D2, 0x4
00002A56  586E 0006                addq.w     [A6 + 0x6], 4
00002A5A  4EFA E14C                jmp        [PC - 0x1EB4 /* 00000BA8 */]
label00002A5E:
00002A5E  206D FFA8                movea.l    A0, [A5 - 0x58]
00002A62  5941                     subq.w     D1, 4
00002A64  4EAD 0202                jsr        [A5 + 0x202 /* export_60, CODE:4 @ 00000000 */]
00002A68  4EFA DAAA                jmp        [PC - 0x2556 /* 00000514 */]
00002A6C  4E75                     rts
00002A6E  0000 0001                ori.b      D0, 0x1
00002A72  0002 0001                ori.b      D2, 0x1
00002A76  0002 0001                ori.b      D2, 0x1
00002A7A  0002 0003                ori.b      D2, 0x3
00002A7E  FFFF                     .invalid   <<F/7/7>>
label00002A80:
00002A80  382E 0004                move.w     D4, [A6 + 0x4]
00002A84  2456                     movea.l    A2, [A6]
00002A86  302E 000C                move.w     D0, [A6 + 0xC]
00002A8A  322E 000E                move.w     D1, [A6 + 0xE]
00002A8E  362E 0012                move.w     D3, [A6 + 0x12]
00002A92  E543                     asl        D3.w, 2
00002A94  4EFB 3004                jmp        [PC + D3.w + 0x4]
00002A98  4E75                     rts
00002A9A  4EFA E1D0                jmp        [PC - 0x1E30 /* 00000C6C */]
00002A9E  4EFA E30C                jmp        [PC - 0x1CF4 /* 00000DAC */]
00002AA2  4EFA E42E                jmp        [PC - 0x1BD2 /* 00000ED2 */]
00002AA6  4EFA E70E                jmp        [PC - 0x18F2 /* 000011B6 */]
00002AAA  4EFA E754                jmp        [PC - 0x18AC /* 00001200 */]
00002AAE  4EFA EA0E                jmp        [PC - 0x15F2 /* 000014BE */]
00002AB2  4EFA EB56                jmp        [PC - 0x14AA /* 0000160A */]
00002AB6  4EFA E52C                jmp        [PC - 0x1AD4 /* 00000FE4 */]
00002ABA  4EFA E64C                jmp        [PC - 0x19B4 /* 00001108 */]
00002ABE  4EFA ECD0                jmp        [PC - 0x1330 /* 00001790 */]
00002AC2  4EFA ECB6                jmp        [PC - 0x134A /* 0000177A */]
00002AC6  4EFA EE68                jmp        [PC - 0x1198 /* 00001930 */]
00002ACA  4EFA D534                jmp        [PC - 0x2ACC /* 00000000 */]
00002ACE  4EFA D8AC                jmp        [PC - 0x2754 /* 0000037C */]
00002AD2  4EFA E4D8                jmp        [PC - 0x1B28 /* 00000FAC */]
00002AD6  4EFA E498                jmp        [PC - 0x1B68 /* 00000F70 */]
00002ADA  4EFA EEAA                jmp        [PC - 0x1156 /* 00001986 */]
00002ADE  4EFA EEB4                jmp        [PC - 0x114C /* 00001994 */]
00002AE2  4EFA EF08                jmp        [PC - 0x10F8 /* 000019EC */]
00002AE6  4EFA EF50                jmp        [PC - 0x10B0 /* 00001A38 */]
00002AEA  4EFA EBA2                jmp        [PC - 0x145E /* 0000168E */]
00002AEE  4EFA EBD4                jmp        [PC - 0x142C /* 000016C4 */]
00002AF2  4EFA F4E2                jmp        [PC - 0xB1E /* 00001FD6 */]
00002AF6  4EFA F68E                jmp        [PC - 0x972 /* 00002186 */]
00002AFA  4EFA F492                jmp        [PC - 0xB6E /* 00001F8E */]
00002AFE  4EFA F5DE                jmp        [PC - 0xA22 /* 000020DE */]
00002B02  4EFA F51C                jmp        [PC - 0xAE4 /* 00002020 */]
00002B06  4EFA F598                jmp        [PC - 0xA68 /* 000020A0 */]
00002B0A  4EFA F54E                jmp        [PC - 0xAB2 /* 0000205A */]
00002B0E  4EFA F41C                jmp        [PC - 0xBE4 /* 00001F2C */]
00002B12  4EFA F722                jmp        [PC - 0x8DE /* 00002236 */]
00002B16  4EFA F730                jmp        [PC - 0x8D0 /* 00002248 */]
00002B1A  4EED 0422                jmp        [A5 + 0x422 /* export_128, CODE:5 @ 00001E0A */]
00002B1E  4EFA D6D6                jmp        [PC - 0x292A /* 000001F6 */]
00002B22  4EFA FAEE                jmp        [PC - 0x512 /* 00002612 */]
00002B26  4EFA F778                jmp        [PC - 0x888 /* 000022A0 */]
00002B2A  4EFA F896                jmp        [PC - 0x76A /* 000023C2 */]
00002B2E  4EFA FA86                jmp        [PC - 0x57A /* 000025B6 */]
00002B32  4EFA F756                jmp        [PC - 0x8AA /* 0000228A */]
00002B36  4EFA D7F6                jmp        [PC - 0x280A /* 0000032E */]
00002B3A  4EFA FA3C                jmp        [PC - 0x5C4 /* 00002578 */]
00002B3E  4EFA DE7E                jmp        [PC - 0x2182 /* 000009BE */]
00002B42  4EFA FB40                jmp        [PC - 0x4C0 /* 00002684 */]
00002B46  4EFA FBEC                jmp        [PC - 0x414 /* 00002734 */]
00002B4A  4EFA DF2A                jmp        [PC - 0x20D6 /* 00000A76 */]
00002B4E  4EFA DFCA                jmp        [PC - 0x2036 /* 00000B1A */]
00002B52  4EFA F11C                jmp        [PC - 0xEE4 /* 00001C70 */]
00002B56  4EFA F166                jmp        [PC - 0xE9A /* 00001CBE */]
00002B5A  4EFA FC56                jmp        [PC - 0x3AA /* 000027B2 */]
00002B5E  4EFA FD32                jmp        [PC - 0x2CE /* 00002892 */]
00002B62  4EFA FDD2                jmp        [PC - 0x22E /* 00002936 */]
00002B66  4EFA E07E                jmp        [PC - 0x1F82 /* 00000BE6 */]
00002B6A  4EFA FEC4                jmp        [PC - 0x13C /* 00002A30 */]
00002B6E  266D FF7A                movea.l    A3, [A5 - 0x86]
00002B72  504B                     addq.w     A3, 8
label00002B74:
00002B74  41ED FF7E                lea.l      A0, [A5 - 0x82]
00002B78  303C 001E                move.w     D0, 0x1E
00002B7C  A031                     syscall    GetOSEvent
00002B7E  4A40                     tst.w      D0
00002B80  6600 0024                bne        +0x26 /* 00002BA6 */
00002B84  302D FF7E                move.w     D0, [A5 - 0x82]
00002B88  0C40 0003                cmpi.w     D0, 0x3
00002B8C  671C                     beq        +0x1E /* 00002BAA */
00002B8E  0C40 0004                cmpi.w     D0, 0x4
00002B92  6700 00DE                beq        +0xE0 /* 00002C72 */
00002B96  0C40 0001                cmpi.w     D0, 0x1
00002B9A  6700 01AA                beq        +0x1AC /* 00002D46 */
00002B9E  0C40 0002                cmpi.w     D0, 0x2
00002BA2  6700 01AC                beq        +0x1AE /* 00002D50 */
label00002BA6:
00002BA6  6000 01B2                bra        +0x1B4 /* 00002D5A */
label00002BAA:
00002BAA  3C2D FF8C                move.w     D6, [A5 - 0x74]
00002BAE  0806 0008                btst.b     D6, 0x8
00002BB2  6600 0164                bne        +0x166 /* 00002D18 */
00002BB6  102D FF83                move.b     D0, [A5 - 0x7D]
00002BBA  4880                     ext.w      D0
00002BBC  0C40 0061                cmpi.w     D0, 0x61 /* 'a' */
00002BC0  6D0A                     blt        +0xC /* 00002BCC */
00002BC2  0C40 007A                cmpi.w     D0, 0x7A /* 'z' */
00002BC6  6E04                     bgt        +0x6 /* 00002BCC */
00002BC8  0440 0020                subi.w     D0, 0x20 /* ' ' */
label00002BCC:
00002BCC  206D FF8E                movea.l    A0, [A5 - 0x72]
00002BD0  2050                     movea.l    A0, [A0]
00002BD2  B050                     cmp.w      D0, [A0]
00002BD4  660A                     bne        +0xC /* 00002BE0 */
00002BD6  377C FFF8 000A           move.w     [A3 + 0xA], 0xFFF8
00002BDC  6000 017C                bra        +0x17E /* 00002D5A */
label00002BE0:
00002BE0  B068 0002                cmp.w      D0, [A0 + 0x2]
00002BE4  660A                     bne        +0xC /* 00002BF0 */
00002BE6  377C 0008 000A           move.w     [A3 + 0xA], 0x8
00002BEC  6000 016C                bra        +0x16E /* 00002D5A */
label00002BF0:
00002BF0  B068 0004                cmp.w      D0, [A0 + 0x4]
00002BF4  6618                     bne        +0x1A /* 00002C0E */
00002BF6  377C FFF8 0008           move.w     [A3 + 0x8], 0xFFF8
00002BFC  0806 0009                btst.b     D6, 0x9 /* '\t' */
00002C00  6700 0158                beq        +0x15A /* 00002D5A */
00002C04  08EB 0000 0014           bset.b     [A3 + 0x14], 0x0
00002C0A  6000 014E                bra        +0x150 /* 00002D5A */
label00002C0E:
00002C0E  B068 0006                cmp.w      D0, [A0 + 0x6]
00002C12  6618                     bne        +0x1A /* 00002C2C */
00002C14  377C 0008 0008           move.w     [A3 + 0x8], 0x8
00002C1A  0806 0009                btst.b     D6, 0x9 /* '\t' */
00002C1E  6700 013A                beq        +0x13C /* 00002D5A */
00002C22  08EB 0000 0014           bset.b     [A3 + 0x14], 0x0
00002C28  6000 0130                bra        +0x132 /* 00002D5A */
label00002C2C:
00002C2C  B068 000A                cmp.w      D0, [A0 + 0xA]
00002C30  660A                     bne        +0xC /* 00002C3C */
00002C32  08EB 0002 0014           bset.b     [A3 + 0x14], 0x2
00002C38  6000 0120                bra        +0x122 /* 00002D5A */
label00002C3C:
00002C3C  B068 0008                cmp.w      D0, [A0 + 0x8]
00002C40  660A                     bne        +0xC /* 00002C4C */
00002C42  08EB 0000 0014           bset.b     [A3 + 0x14], 0x0
00002C48  6000 0110                bra        +0x112 /* 00002D5A */
label00002C4C:
00002C4C  B068 000C                cmp.w      D0, [A0 + 0xC]
00002C50  660A                     bne        +0xC /* 00002C5C */
00002C52  08EB 0003 0014           bset.b     [A3 + 0x14], 0x3
00002C58  6000 0100                bra        +0x102 /* 00002D5A */
label00002C5C:
00002C5C  B068 000E                cmp.w      D0, [A0 + 0xE]
00002C60  660C                     bne        +0xE /* 00002C6E */
00002C62  4A6D FCC6                tst.w      [A5 - 0x33A]
00002C66  6600 00F2                bne        +0xF4 /* 00002D5A */
00002C6A  6000 0122                bra        +0x124 /* 00002D8E */
label00002C6E:
00002C6E  6000 00EA                bra        +0xEC /* 00002D5A */
label00002C72:
00002C72  102D FF83                move.b     D0, [A5 - 0x7D]
00002C76  4880                     ext.w      D0
00002C78  0C40 0061                cmpi.w     D0, 0x61 /* 'a' */
00002C7C  6D0A                     blt        +0xC /* 00002C88 */
00002C7E  0C40 007A                cmpi.w     D0, 0x7A /* 'z' */
00002C82  6E04                     bgt        +0x6 /* 00002C88 */
00002C84  0440 0020                subi.w     D0, 0x20 /* ' ' */
label00002C88:
00002C88  206D FF8E                movea.l    A0, [A5 - 0x72]
00002C8C  2050                     movea.l    A0, [A0]
00002C8E  B050                     cmp.w      D0, [A0]
00002C90  6610                     bne        +0x12 /* 00002CA2 */
00002C92  4A6B 000A                tst.w      [A3 + 0xA]
00002C96  6C00 00C2                bge        +0xC4 /* 00002D5A */
00002C9A  426B 000A                clr.w      [A3 + 0xA]
00002C9E  6000 00BA                bra        +0xBC /* 00002D5A */
label00002CA2:
00002CA2  B068 0002                cmp.w      D0, [A0 + 0x2]
00002CA6  6610                     bne        +0x12 /* 00002CB8 */
00002CA8  4A6B 000A                tst.w      [A3 + 0xA]
00002CAC  6F00 00AC                ble        +0xAE /* 00002D5A */
00002CB0  426B 000A                clr.w      [A3 + 0xA]
00002CB4  6000 00A4                bra        +0xA6 /* 00002D5A */
label00002CB8:
00002CB8  B068 0004                cmp.w      D0, [A0 + 0x4]
00002CBC  6610                     bne        +0x12 /* 00002CCE */
00002CBE  4A6B 0008                tst.w      [A3 + 0x8]
00002CC2  6C00 0096                bge        +0x98 /* 00002D5A */
00002CC6  426B 0008                clr.w      [A3 + 0x8]
00002CCA  6000 008E                bra        +0x90 /* 00002D5A */
label00002CCE:
00002CCE  B068 0006                cmp.w      D0, [A0 + 0x6]
00002CD2  6610                     bne        +0x12 /* 00002CE4 */
00002CD4  4A6B 0008                tst.w      [A3 + 0x8]
00002CD8  6F00 0080                ble        +0x82 /* 00002D5A */
00002CDC  426B 0008                clr.w      [A3 + 0x8]
00002CE0  6000 0078                bra        +0x7A /* 00002D5A */
label00002CE4:
00002CE4  B068 000A                cmp.w      D0, [A0 + 0xA]
00002CE8  660A                     bne        +0xC /* 00002CF4 */
00002CEA  08AB 0002 0014           bclr.b     [A3 + 0x14], 0x2
00002CF0  6000 0068                bra        +0x6A /* 00002D5A */
label00002CF4:
00002CF4  B068 0008                cmp.w      D0, [A0 + 0x8]
00002CF8  660A                     bne        +0xC /* 00002D04 */
00002CFA  08AB 0000 0014           bclr.b     [A3 + 0x14], 0x0
00002D00  6000 0058                bra        +0x5A /* 00002D5A */
label00002D04:
00002D04  B068 000C                cmp.w      D0, [A0 + 0xC]
00002D08  660A                     bne        +0xC /* 00002D14 */
00002D0A  08AB 0003 0014           bclr.b     [A3 + 0x14], 0x3
00002D10  6000 0048                bra        +0x4A /* 00002D5A */
label00002D14:
00002D14  6000 0044                bra        +0x46 /* 00002D5A */
label00002D18:
00002D18  102D FF83                move.b     D0, [A5 - 0x7D]
00002D1C  4880                     ext.w      D0
00002D1E  0C40 0061                cmpi.w     D0, 0x61 /* 'a' */
00002D22  6D0A                     blt        +0xC /* 00002D2E */
00002D24  0C40 007A                cmpi.w     D0, 0x7A /* 'z' */
00002D28  6E04                     bgt        +0x6 /* 00002D2E */
00002D2A  0440 0020                subi.w     D0, 0x20 /* ' ' */
label00002D2E:
00002D2E  206D FF8E                movea.l    A0, [A5 - 0x72]
00002D32  2050                     movea.l    A0, [A0]
00002D34  B068 0010                cmp.w      D0, [A0 + 0x10]
00002D38  6608                     bne        +0xA /* 00002D42 */
00002D3A  50ED FE7D                st         [A5 - 0x183]
00002D3E  426D FDCC                clr.w      [A5 - 0x234]
label00002D42:
00002D42  6000 0016                bra        +0x18 /* 00002D5A */
label00002D46:
00002D46  08EB 0001 0014           bset.b     [A3 + 0x14], 0x1
00002D4C  6000 000C                bra        +0xE /* 00002D5A */
label00002D50:
00002D50  08AB 0001 0014           bclr.b     [A3 + 0x14], 0x1
00002D56  6000 0002                bra        +0x4 /* 00002D5A */
label00002D5A:
00002D5A  206D FF8E                movea.l    A0, [A5 - 0x72]
00002D5E  2050                     movea.l    A0, [A0]
00002D60  4A68 0012                tst.w      [A0 + 0x12]
00002D64  660A                     bne        +0xC /* 00002D70 */
00002D66  3038 0832                move.w     D0, [0x00000832]
00002D6A  C0ED FA8C                mulu.w     D0, [A5 - 0x574]
00002D6E  6008                     bra        +0xA /* 00002D78 */
label00002D70:
00002D70  3038 0830                move.w     D0, [0x00000830 /* Mouse */]
00002D74  C0ED FA8A                mulu.w     D0, [A5 - 0x576]
label00002D78:
00002D78  E080                     asr        D0, 8
00002D7A  6A02                     bpl        +0x4 /* 00002D7E */
00002D7C  4240                     clr.w      D0
label00002D7E:
00002D7E  0C40 0200                cmpi.w     D0, 0x200
00002D82  6D04                     blt        +0x6 /* 00002D88 */
00002D84  303C 01FF                move.w     D0, 0x1FF
label00002D88:
00002D88  3740 0020                move.w     [A3 + 0x20], D0
00002D8C  4E75                     rts
label00002D8E:
00002D8E  4EAD 0042                jsr        [A5 + 0x42 /* export_4, CODE:1 @ 00000082 */]
label00002D92:
00002D92  41ED FF7E                lea.l      A0, [A5 - 0x82]
00002D96  303C 000A                move.w     D0, 0xA /* '\n' */
00002D9A  A030                     syscall    OSEventAvail
00002D9C  4A40                     tst.w      D0
00002D9E  66F2                     bne        -0xC /* 00002D92 */
00002DA0  4EAD 004A                jsr        [A5 + 0x4A /* export_5, CODE:1 @ 0000009A */]
00002DA4  6000 FDCE                bra        -0x230 /* 00002B74 */
00002DA8  286D FD0E                movea.l    A4, [A5 - 0x2F2]
00002DAC  382D FD0C                move.w     D4, [A5 - 0x2F4]
00002DB0  5256                     addq.w     [A6], 1
00002DB2  0C56 007F                cmpi.w     [A6], 0x7F
00002DB6  6D04                     blt        +0x6 /* 00002DBC */
00002DB8  6100 030E                bsr        +0x310 /* 000030C8 */
label00002DBC:
00002DBC  266D FF7A                movea.l    A3, [A5 - 0x86]
00002DC0  504B                     addq.w     A3, 8
label00002DC2:
00002DC2  41ED FF7E                lea.l      A0, [A5 - 0x82]
00002DC6  303C 001E                move.w     D0, 0x1E
00002DCA  A031                     syscall    GetOSEvent
00002DCC  4A40                     tst.w      D0
00002DCE  6600 0024                bne        +0x26 /* 00002DF4 */
00002DD2  302D FF7E                move.w     D0, [A5 - 0x82]
00002DD6  0C40 0003                cmpi.w     D0, 0x3
00002DDA  6726                     beq        +0x28 /* 00002E02 */
00002DDC  0C40 0004                cmpi.w     D0, 0x4
00002DE0  6700 0142                beq        +0x144 /* 00002F24 */
00002DE4  0C40 0001                cmpi.w     D0, 0x1
00002DE8  6700 0262                beq        +0x264 /* 0000304C */
00002DEC  0C40 0002                cmpi.w     D0, 0x2
00002DF0  6700 0280                beq        +0x282 /* 00003072 */
label00002DF4:
00002DF4  302D FF8C                move.w     D0, [A5 - 0x74]
00002DF8  0800 000A                btst.b     D0, 0xA /* '\n' */
00002DFC  66C4                     bne        -0x3A /* 00002DC2 */
00002DFE  6000 0288                bra        +0x28A /* 00003088 */
label00002E02:
00002E02  3C2D FF8C                move.w     D6, [A5 - 0x74]
00002E06  0806 0008                btst.b     D6, 0x8
00002E0A  6600 0212                bne        +0x214 /* 0000301E */
00002E0E  102D FF83                move.b     D0, [A5 - 0x7D]
00002E12  4880                     ext.w      D0
00002E14  0C40 0061                cmpi.w     D0, 0x61 /* 'a' */
00002E18  6D0A                     blt        +0xC /* 00002E24 */
00002E1A  0C40 007A                cmpi.w     D0, 0x7A /* 'z' */
00002E1E  6E04                     bgt        +0x6 /* 00002E24 */
00002E20  0440 0020                subi.w     D0, 0x20 /* ' ' */
label00002E24:
00002E24  206D FF8E                movea.l    A0, [A5 - 0x72]
00002E28  2050                     movea.l    A0, [A0]
00002E2A  B050                     cmp.w      D0, [A0]
00002E2C  6616                     bne        +0x18 /* 00002E44 */
00002E2E  377C FFF8 000A           move.w     [A3 + 0xA], 0xFFF8
00002E34  6100 0292                bsr        +0x294 /* 000030C8 */
00002E38  19BC 0006 4000           move.b     [A4 + D4.w], 0x6
00002E3E  5244                     addq.w     D4, 1
00002E40  6000 0246                bra        +0x248 /* 00003088 */
label00002E44:
00002E44  B068 0002                cmp.w      D0, [A0 + 0x2]
00002E48  6616                     bne        +0x18 /* 00002E60 */
00002E4A  377C 0008 000A           move.w     [A3 + 0xA], 0x8
00002E50  6100 0276                bsr        +0x278 /* 000030C8 */
00002E54  19BC 000A 4000           move.b     [A4 + D4.w], 0xA /* '\n' */
00002E5A  5244                     addq.w     D4, 1
00002E5C  6000 022A                bra        +0x22C /* 00003088 */
label00002E60:
00002E60  B068 0004                cmp.w      D0, [A0 + 0x4]
00002E64  6630                     bne        +0x32 /* 00002E96 */
00002E66  377C FFF8 0008           move.w     [A3 + 0x8], 0xFFF8
00002E6C  6100 025A                bsr        +0x25C /* 000030C8 */
00002E70  19BC 000E 4000           move.b     [A4 + D4.w], 0xE
00002E76  5244                     addq.w     D4, 1
00002E78  0806 0009                btst.b     D6, 0x9 /* '\t' */
00002E7C  6700 020A                beq        +0x20C /* 00003088 */
00002E80  08EB 0000 0014           bset.b     [A3 + 0x14], 0x0
00002E86  6100 0240                bsr        +0x242 /* 000030C8 */
00002E8A  19BC 001A 4000           move.b     [A4 + D4.w], 0x1A
00002E90  5244                     addq.w     D4, 1
00002E92  6000 01F4                bra        +0x1F6 /* 00003088 */
label00002E96:
00002E96  B068 0006                cmp.w      D0, [A0 + 0x6]
00002E9A  6630                     bne        +0x32 /* 00002ECC */
00002E9C  377C 0008 0008           move.w     [A3 + 0x8], 0x8
00002EA2  6100 0224                bsr        +0x226 /* 000030C8 */
00002EA6  19BC 0012 4000           move.b     [A4 + D4.w], 0x12
00002EAC  5244                     addq.w     D4, 1
00002EAE  0806 0009                btst.b     D6, 0x9 /* '\t' */
00002EB2  6700 01D4                beq        +0x1D6 /* 00003088 */
00002EB6  08EB 0000 0014           bset.b     [A3 + 0x14], 0x0
00002EBC  6100 020A                bsr        +0x20C /* 000030C8 */
00002EC0  19BC 001A 4000           move.b     [A4 + D4.w], 0x1A
00002EC6  5244                     addq.w     D4, 1
00002EC8  6000 01BE                bra        +0x1C0 /* 00003088 */
label00002ECC:
00002ECC  B068 000A                cmp.w      D0, [A0 + 0xA]
00002ED0  6616                     bne        +0x18 /* 00002EE8 */
00002ED2  08EB 0002 0014           bset.b     [A3 + 0x14], 0x2
00002ED8  6100 01EE                bsr        +0x1F0 /* 000030C8 */
00002EDC  19BC 001E 4000           move.b     [A4 + D4.w], 0x1E
00002EE2  5244                     addq.w     D4, 1
00002EE4  6000 01A2                bra        +0x1A4 /* 00003088 */
label00002EE8:
00002EE8  B068 0008                cmp.w      D0, [A0 + 0x8]
00002EEC  6616                     bne        +0x18 /* 00002F04 */
00002EEE  08EB 0000 0014           bset.b     [A3 + 0x14], 0x0
00002EF4  6100 01D2                bsr        +0x1D4 /* 000030C8 */
00002EF8  19BC 001A 4000           move.b     [A4 + D4.w], 0x1A
00002EFE  5244                     addq.w     D4, 1
00002F00  6000 0186                bra        +0x188 /* 00003088 */
label00002F04:
00002F04  B068 000C                cmp.w      D0, [A0 + 0xC]
00002F08  6616                     bne        +0x18 /* 00002F20 */
00002F0A  08EB 0003 0014           bset.b     [A3 + 0x14], 0x3
00002F10  6100 01B6                bsr        +0x1B8 /* 000030C8 */
00002F14  19BC 0022 4000           move.b     [A4 + D4.w], 0x22 /* '\"' */
00002F1A  5244                     addq.w     D4, 1
00002F1C  6000 016A                bra        +0x16C /* 00003088 */
label00002F20:
00002F20  6000 0166                bra        +0x168 /* 00003088 */
label00002F24:
00002F24  102D FF83                move.b     D0, [A5 - 0x7D]
00002F28  4880                     ext.w      D0
00002F2A  0C40 0061                cmpi.w     D0, 0x61 /* 'a' */
00002F2E  6D0A                     blt        +0xC /* 00002F3A */
00002F30  0C40 007A                cmpi.w     D0, 0x7A /* 'z' */
00002F34  6E04                     bgt        +0x6 /* 00002F3A */
00002F36  0440 0020                subi.w     D0, 0x20 /* ' ' */
label00002F3A:
00002F3A  206D FF8E                movea.l    A0, [A5 - 0x72]
00002F3E  2050                     movea.l    A0, [A0]
00002F40  B050                     cmp.w      D0, [A0]
00002F42  661C                     bne        +0x1E /* 00002F60 */
00002F44  4A6B 000A                tst.w      [A3 + 0xA]
00002F48  6C00 013E                bge        +0x140 /* 00003088 */
00002F4C  426B 000A                clr.w      [A3 + 0xA]
00002F50  6100 0176                bsr        +0x178 /* 000030C8 */
00002F54  19BC 0004 4000           move.b     [A4 + D4.w], 0x4
00002F5A  5244                     addq.w     D4, 1
00002F5C  6000 012A                bra        +0x12C /* 00003088 */
label00002F60:
00002F60  B068 0002                cmp.w      D0, [A0 + 0x2]
00002F64  661C                     bne        +0x1E /* 00002F82 */
00002F66  4A6B 000A                tst.w      [A3 + 0xA]
00002F6A  6F00 011C                ble        +0x11E /* 00003088 */
00002F6E  426B 000A                clr.w      [A3 + 0xA]
00002F72  6100 0154                bsr        +0x156 /* 000030C8 */
00002F76  19BC 0008 4000           move.b     [A4 + D4.w], 0x8
00002F7C  5244                     addq.w     D4, 1
00002F7E  6000 0108                bra        +0x10A /* 00003088 */
label00002F82:
00002F82  B068 0004                cmp.w      D0, [A0 + 0x4]
00002F86  661C                     bne        +0x1E /* 00002FA4 */
00002F88  4A6B 0008                tst.w      [A3 + 0x8]
00002F8C  6C00 00FA                bge        +0xFC /* 00003088 */
00002F90  426B 0008                clr.w      [A3 + 0x8]
00002F94  6100 0132                bsr        +0x134 /* 000030C8 */
00002F98  19BC 000C 4000           move.b     [A4 + D4.w], 0xC
00002F9E  5244                     addq.w     D4, 1
00002FA0  6000 00E6                bra        +0xE8 /* 00003088 */
label00002FA4:
00002FA4  B068 0006                cmp.w      D0, [A0 + 0x6]
00002FA8  661C                     bne        +0x1E /* 00002FC6 */
00002FAA  4A6B 0008                tst.w      [A3 + 0x8]
00002FAE  6F00 00D8                ble        +0xDA /* 00003088 */
00002FB2  426B 0008                clr.w      [A3 + 0x8]
00002FB6  6100 0110                bsr        +0x112 /* 000030C8 */
00002FBA  19BC 0010 4000           move.b     [A4 + D4.w], 0x10
00002FC0  5244                     addq.w     D4, 1
00002FC2  6000 00C4                bra        +0xC6 /* 00003088 */
label00002FC6:
00002FC6  B068 000A                cmp.w      D0, [A0 + 0xA]
00002FCA  6616                     bne        +0x18 /* 00002FE2 */
00002FCC  08AB 0002 0014           bclr.b     [A3 + 0x14], 0x2
00002FD2  6100 00F4                bsr        +0xF6 /* 000030C8 */
00002FD6  19BC 001C 4000           move.b     [A4 + D4.w], 0x1C
00002FDC  5244                     addq.w     D4, 1
00002FDE  6000 00A8                bra        +0xAA /* 00003088 */
label00002FE2:
00002FE2  B068 0008                cmp.w      D0, [A0 + 0x8]
00002FE6  6616                     bne        +0x18 /* 00002FFE */
00002FE8  08AB 0000 0014           bclr.b     [A3 + 0x14], 0x0
00002FEE  6100 00D8                bsr        +0xDA /* 000030C8 */
00002FF2  19BC 0018 4000           move.b     [A4 + D4.w], 0x18
00002FF8  5244                     addq.w     D4, 1
00002FFA  6000 008C                bra        +0x8E /* 00003088 */
label00002FFE:
00002FFE  B068 000C                cmp.w      D0, [A0 + 0xC]
00003002  6616                     bne        +0x18 /* 0000301A */
00003004  08AB 0003 0014           bclr.b     [A3 + 0x14], 0x3
0000300A  6100 00BC                bsr        +0xBE /* 000030C8 */
0000300E  19BC 0020 4000           move.b     [A4 + D4.w], 0x20 /* ' ' */
00003014  5244                     addq.w     D4, 1
00003016  6000 0070                bra        +0x72 /* 00003088 */
label0000301A:
0000301A  6000 006C                bra        +0x6E /* 00003088 */
label0000301E:
0000301E  102D FF83                move.b     D0, [A5 - 0x7D]
00003022  4880                     ext.w      D0
00003024  0C40 0061                cmpi.w     D0, 0x61 /* 'a' */
00003028  6D0A                     blt        +0xC /* 00003034 */
0000302A  0C40 007A                cmpi.w     D0, 0x7A /* 'z' */
0000302E  6E04                     bgt        +0x6 /* 00003034 */
00003030  0440 0020                subi.w     D0, 0x20 /* ' ' */
label00003034:
00003034  206D FF8E                movea.l    A0, [A5 - 0x72]
00003038  2050                     movea.l    A0, [A0]
0000303A  B068 0010                cmp.w      D0, [A0 + 0x10]
0000303E  6608                     bne        +0xA /* 00003048 */
00003040  50ED FE7D                st         [A5 - 0x183]
00003044  426D FDCC                clr.w      [A5 - 0x234]
label00003048:
00003048  6000 003E                bra        +0x40 /* 00003088 */
label0000304C:
0000304C  08EB 0001 0014           bset.b     [A3 + 0x14], 0x1
00003052  6100 0074                bsr        +0x76 /* 000030C8 */
00003056  19BC 0016 4000           move.b     [A4 + D4.w], 0x16
0000305C  5244                     addq.w     D4, 1
0000305E  19B8 0833 4000           move.b     [A4 + D4.w], [0x00000833]
00003064  1A38 0832                move.b     D5, [0x00000832]
00003068  8B34 40FF                or.b       [A4 + D4.w - 0x1], D5
0000306C  5244                     addq.w     D4, 1
0000306E  6000 0018                bra        +0x1A /* 00003088 */
label00003072:
00003072  08AB 0001 0014           bclr.b     [A3 + 0x14], 0x1
00003078  6100 004E                bsr        +0x50 /* 000030C8 */
0000307C  19BC 0014 4000           move.b     [A4 + D4.w], 0x14
00003082  5244                     addq.w     D4, 1
00003084  6000 0002                bra        +0x4 /* 00003088 */
label00003088:
00003088  206D FF8E                movea.l    A0, [A5 - 0x72]
0000308C  2050                     movea.l    A0, [A0]
0000308E  4A68 0012                tst.w      [A0 + 0x12]
00003092  660A                     bne        +0xC /* 0000309E */
00003094  3038 0832                move.w     D0, [0x00000832]
00003098  C0ED FA8C                mulu.w     D0, [A5 - 0x574]
0000309C  6008                     bra        +0xA /* 000030A6 */
label0000309E:
0000309E  3038 0830                move.w     D0, [0x00000830 /* Mouse */]
000030A2  C0ED FA8A                mulu.w     D0, [A5 - 0x576]
label000030A6:
000030A6  E080                     asr        D0, 8
000030A8  6A02                     bpl        +0x4 /* 000030AC */
000030AA  4240                     clr.w      D0
label000030AC:
000030AC  0C40 0200                cmpi.w     D0, 0x200
000030B0  6D04                     blt        +0x6 /* 000030B6 */
000030B2  303C 01FF                move.w     D0, 0x1FF
label000030B6:
000030B6  3740 0020                move.w     [A3 + 0x20], D0
000030BA  3B44 FD0C                move.w     [A5 - 0x2F4], D4
000030BE  0C44 0FF0                cmpi.w     D4, 0xFF0
000030C2  6D02                     blt        +0x4 /* 000030C6 */
000030C4  A9FF                     syscall    Debugger
label000030C6:
000030C6  4E75                     rts
fn000030C8:
000030C8  3E16                     move.w     D7, [A6]
000030CA  6F0C                     ble        +0xE /* 000030D8 */
000030CC  0007 0080                ori.b      D7, 0x80
000030D0  1987 4000                move.b     [A4 + D4.w], D7
000030D4  5244                     addq.w     D4, 1
000030D6  4256                     clr.w      [A6]
label000030D8:
000030D8  4E75                     rts
000030DA  286D FD0E                movea.l    A4, [A5 - 0x2F2]
000030DE  382D FD0C                move.w     D4, [A5 - 0x2F4]
000030E2  19BC 00FF 4000           move.b     [A4 + D4.w], 0xFF
000030E8  526D FD0C                addq.w     [A5 - 0x2F4], 1
000030EC  41ED FF7E                lea.l      A0, [A5 - 0x82]
000030F0  303C 000A                move.w     D0, 0xA /* '\n' */
000030F4  A031                     syscall    GetOSEvent
000030F6  4A40                     tst.w      D0
000030F8  6600 000E                bne        +0x10 /* 00003108 */
000030FC  50ED FD09                st         [A5 - 0x2F7]
label00003100:
00003100  50ED FE7D                st         [A5 - 0x183]
00003104  6000 012C                bra        +0x12E /* 00003232 */
label00003108:
00003108  5356                     subq.w     [A6], 1
0000310A  6E00 0126                bgt        +0x128 /* 00003232 */
0000310E  286D FD0E                movea.l    A4, [A5 - 0x2F2]
00003112  382D FD0A                move.w     D4, [A5 - 0x2F6]
00003116  266D FF7A                movea.l    A3, [A5 - 0x86]
0000311A  504B                     addq.w     A3, 8
label0000311C:
0000311C  5244                     addq.w     D4, 1
0000311E  B86D FD0C                cmp.w      D4, [A5 - 0x2F4]
00003122  6CDC                     bge        -0x22 /* 00003100 */
00003124  1634 40FF                move.b     D3, [A4 + D4.w - 0x1]
00003128  6D00 00FC                blt        +0xFE /* 00003226 */
0000312C  4883                     ext.w      D3
0000312E  3403                     move.w     D2, D3
00003130  0242 FFFC                andi.w     D2, 0xFFFC
00003134  5942                     subq.w     D2, 4
00003136  4EFB 2002                jmp        [PC + D2.w + 0x2]
0000313A  4EFA 001E                jmp        [PC + 0x1E /* 0000315A */]
0000313E  4EFA 002E                jmp        [PC + 0x2E /* 0000316E */]
00003142  4EFA 003E                jmp        [PC + 0x3E /* 00003182 */]
00003146  4EFA 004E                jmp        [PC + 0x4E /* 00003196 */]
0000314A  4EFA 0062                jmp        [PC + 0x62 /* 000031AE */]
0000314E  4EFA 0088                jmp        [PC + 0x88 /* 000031D8 */]
00003152  4EFA 009E                jmp        [PC + 0x9E /* 000031F2 */]
00003156  4EFA 00B4                jmp        [PC + 0xB4 /* 0000320C */]
label0000315A:
0000315A  0803 0001                btst.b     D3, 0x1
0000315E  6708                     beq        +0xA /* 00003168 */
00003160  377C FFF8 000A           move.w     [A3 + 0xA], 0xFFF8
00003166  60B4                     bra        -0x4A /* 0000311C */
label00003168:
00003168  426B 000A                clr.w      [A3 + 0xA]
0000316C  60AE                     bra        -0x50 /* 0000311C */
label0000316E:
0000316E  0803 0001                btst.b     D3, 0x1
00003172  6708                     beq        +0xA /* 0000317C */
00003174  377C 0008 000A           move.w     [A3 + 0xA], 0x8
0000317A  60A0                     bra        -0x5E /* 0000311C */
label0000317C:
0000317C  426B 000A                clr.w      [A3 + 0xA]
00003180  609A                     bra        -0x64 /* 0000311C */
label00003182:
00003182  0803 0001                btst.b     D3, 0x1
00003186  6708                     beq        +0xA /* 00003190 */
00003188  377C FFF8 0008           move.w     [A3 + 0x8], 0xFFF8
0000318E  608C                     bra        -0x72 /* 0000311C */
label00003190:
00003190  426B 0008                clr.w      [A3 + 0x8]
00003194  6086                     bra        -0x78 /* 0000311C */
label00003196:
00003196  0803 0001                btst.b     D3, 0x1
0000319A  670A                     beq        +0xC /* 000031A6 */
0000319C  377C 0008 0008           move.w     [A3 + 0x8], 0x8
000031A2  6000 FF78                bra        -0x86 /* 0000311C */
label000031A6:
000031A6  426B 0008                clr.w      [A3 + 0x8]
000031AA  6000 FF70                bra        -0x8E /* 0000311C */
label000031AE:
000031AE  0803 0001                btst.b     D3, 0x1
000031B2  671A                     beq        +0x1C /* 000031CE */
000031B4  08EB 0001 0014           bset.b     [A3 + 0x14], 0x1
000031BA  1774 4000 0021           move.b     [A3 + 0x21], [A4 + D4.w]
000031C0  0203 0001                andi.b     D3, 0x1
000031C4  1743 0020                move.b     [A3 + 0x20], D3
000031C8  5244                     addq.w     D4, 1
000031CA  6000 FF50                bra        -0xAE /* 0000311C */
label000031CE:
000031CE  08AB 0001 0014           bclr.b     [A3 + 0x14], 0x1
000031D4  6000 FF46                bra        -0xB8 /* 0000311C */
label000031D8:
000031D8  0803 0001                btst.b     D3, 0x1
000031DC  670A                     beq        +0xC /* 000031E8 */
000031DE  08EB 0000 0014           bset.b     [A3 + 0x14], 0x0
000031E4  6000 FF36                bra        -0xC8 /* 0000311C */
label000031E8:
000031E8  08AB 0000 0014           bclr.b     [A3 + 0x14], 0x0
000031EE  6000 FF2C                bra        -0xD2 /* 0000311C */
label000031F2:
000031F2  0803 0001                btst.b     D3, 0x1
000031F6  670A                     beq        +0xC /* 00003202 */
000031F8  08EB 0002 0014           bset.b     [A3 + 0x14], 0x2
000031FE  6000 FF1C                bra        -0xE2 /* 0000311C */
label00003202:
00003202  08AB 0002 0014           bclr.b     [A3 + 0x14], 0x2
00003208  6000 FF12                bra        -0xEC /* 0000311C */
label0000320C:
0000320C  0803 0001                btst.b     D3, 0x1
00003210  670A                     beq        +0xC /* 0000321C */
00003212  08EB 0003 0014           bset.b     [A3 + 0x14], 0x3
00003218  6000 FF02                bra        -0xFC /* 0000311C */
label0000321C:
0000321C  08AB 0003 0014           bclr.b     [A3 + 0x14], 0x3
00003222  6000 FEF8                bra        -0x106 /* 0000311C */
label00003226:
00003226  0203 007F                andi.b     D3, 0x7F
0000322A  4883                     ext.w      D3
0000322C  3C83                     move.w     [A6], D3
0000322E  3B44 FD0A                move.w     [A5 - 0x2F6], D4
label00003232:
00003232  4E75                     rts
export_56:
00003234  3400                     move.w     D2, D0
00003236  3A01                     move.w     D5, D1
00003238  7042                     moveq.l    D0, 0x42
0000323A  A31E                     syscall    NewPtrClear, flags=3
0000323C  2B48 FF7A                move.l     [A5 - 0x86], A0
00003240  43FA F83E                lea.l      A1, [PC - 0x7C2 /* 00002A80, value 0x382E0004, cstring "8." */]
00003244  2149 0004                move.l     [A0 + 0x4], A1
00003248  214A 0008                move.l     [A0 + 0x8], A2
0000324C  3145 000C                move.w     [A0 + 0xC], D5
00003250  3142 000E                move.w     [A0 + 0xE], D2
00003254  4268 0010                clr.w      [A0 + 0x10]
00003258  4268 0012                clr.w      [A0 + 0x12]
0000325C  3172 5000 0014           move.w     [A0 + 0x14], [A2 + D5.w]
00003262  3172 2000 0016           move.w     [A0 + 0x16], [A2 + D2.w]
00003268  4268 0018                clr.w      [A0 + 0x18]
0000326C  4268 001A                clr.w      [A0 + 0x1A]
00003270  4228 001C                clr.b      [A0 + 0x1C]
00003274  116D FD8A 001D           move.b     [A0 + 0x1D], [A5 - 0x276]
0000327A  43ED FE82                lea.l      A1, [A5 - 0x17E]
0000327E  2149 001E                move.l     [A0 + 0x1E], A1
00003282  2151 0022                move.l     [A0 + 0x22], [A1]
00003286  4268 0028                clr.w      [A0 + 0x28]
0000328A  4268 002A                clr.w      [A0 + 0x2A]
0000328E  4268 002C                clr.w      [A0 + 0x2C]
00003292  4268 0030                clr.w      [A0 + 0x30]
00003296  4268 0032                clr.w      [A0 + 0x32]
0000329A  20AD FE7E                move.l     [A0], [A5 - 0x182]
0000329E  2B48 FE7E                move.l     [A5 - 0x182], A0
000032A2  2C48                     movea.l    A6, A0
000032A4  504E                     addq.w     A6, 8
000032A6  4EBA D47A                jsr        [PC - 0x2B86 /* 00000722 */]
000032AA  3E2D FD12                move.w     D7, [A5 - 0x2EE]
000032AE  E547                     asl        D7.w, 2
000032B0  4EFB 7002                jmp        [PC + D7.w + 0x2]
000032B4  4EFA 000A                jmp        [PC + 0xA /* 000032C0 */]
000032B8  4EFA 0012                jmp        [PC + 0x12 /* 000032CC */]
000032BC  4EFA 000E                jmp        [PC + 0xE /* 000032CC */]
label000032C0:
000032C0  7008                     moveq.l    D0, 0x08
000032C2  A31E                     syscall    NewPtrClear, flags=3
000032C4  43FA F8A8                lea.l      A1, [PC - 0x758 /* 00002B6E, value 0x266DFF7A */]
000032C8  6000 000E                bra        +0x10 /* 000032D8 */
label000032CC:
000032CC  700A                     moveq.l    D0, 0x0A
000032CE  A31E                     syscall    NewPtrClear, flags=3
000032D0  43FA FE1A                lea.l      A1, [PC - 0x1E6 /* 000030EC, value 0x41EDFF7E */]
000032D4  6000 0002                bra        +0x4 /* 000032D8 */
label000032D8:
000032D8  2149 0004                move.l     [A0 + 0x4], A1
000032DC  20AD FE7E                move.l     [A0], [A5 - 0x182]
000032E0  2B48 FE7E                move.l     [A5 - 0x182], A0
000032E4  42AD FE6C                clr.l      [A5 - 0x194]
000032E8  42AD FE68                clr.l      [A5 - 0x198]
000032EC  4E75                     rts
export_57:
fn000032EE:
000032EE  48E7 84B0                movem.l    -[A7], D0,D5,A0,A2,A3
000032F2  3A00                     move.w     D5, D0
000032F4  2448                     movea.l    A2, A0
000032F6  702A                     moveq.l    D0, 0x2A
000032F8  A31E                     syscall    NewPtrClear, flags=3
000032FA  47FA 0068                lea.l      A3, [PC + 0x68 /* 00003364, value 0x202E0008, cstring " ." */]
000032FE  214B 0004                move.l     [A0 + 0x4], A3
00003302  4845                     swap.w     D5
00003304  4245                     clr.w      D5
00003306  2145 0010                move.l     [A0 + 0x10], D5
0000330A  4841                     swap.w     D1
0000330C  4241                     clr.w      D1
0000330E  2141 0014                move.l     [A0 + 0x14], D1
00003312  2142 0018                move.l     [A0 + 0x18], D2
00003316  2143 001C                move.l     [A0 + 0x1C], D3
0000331A  95A8 0010                sub.l      [A0 + 0x10], D2
0000331E  97A8 0014                sub.l      [A0 + 0x14], D3
00003322  214A 0020                move.l     [A0 + 0x20], A2
00003326  4268 0024                clr.w      [A0 + 0x24]
0000332A  2144 0026                move.l     [A0 + 0x26], D4
0000332E  B2FC 0000                cmpa.w     A1, 0x0
00003332  671A                     beq        +0x1C /* 0000334E */
00003334  2651                     movea.l    A3, [A1]
00003336  214B 0008                move.l     [A0 + 0x8], A3
0000333A  2149 000C                move.l     [A0 + 0xC], A1
0000333E  2288                     move.l     [A1], A0
00003340  5091                     addq.l     [A1], 8
00003342  B6FC 0000                cmpa.w     A3, 0x0
00003346  670E                     beq        +0x10 /* 00003356 */
00003348  2751 0004                move.l     [A3 + 0x4], [A1]
0000334C  6008                     bra        +0xA /* 00003356 */
label0000334E:
0000334E  42A8 0008                clr.l      [A0 + 0x8]
00003352  42A8 000C                clr.l      [A0 + 0xC]
label00003356:
00003356  20AD FE7E                move.l     [A0], [A5 - 0x182]
0000335A  2B48 FE7E                move.l     [A5 - 0x182], A0
0000335E  4CDF 0D21                movem.l    D0,D5,A0,A2,A3, [A7]+
00003362  4E75                     rts
00003364  202E 0008                move.l     D0, [A6 + 0x8]
00003368  6764                     beq        +0x66 /* 000033CE */
0000336A  222E 000C                move.l     D1, [A6 + 0xC]
0000336E  262E 001E                move.l     D3, [A6 + 0x1E]
00003372  D7AE 0014                add.l      [A6 + 0x14], D3
00003376  D0AE 0010                add.l      D0, [A6 + 0x10]
0000337A  D2AE 0014                add.l      D1, [A6 + 0x14]
0000337E  0C80 0004 0000           cmpi.l     D0, 0x40000
00003384  6F48                     ble        +0x4A /* 000033CE */
00003386  0C80 01F8 0000           cmpi.l     D0, 0x1F80000
0000338C  6C40                     bge        +0x42 /* 000033CE */
0000338E  0C81 0004 0000           cmpi.l     D1, 0x40000
00003394  6F38                     ble        +0x3A /* 000033CE */
00003396  0C81 014E 0000           cmpi.l     D1, 0x14E0000
0000339C  6C30                     bge        +0x32 /* 000033CE */
0000339E  226E 0018                movea.l    A1, [A6 + 0x18]
000033A2  206D FFA8                movea.l    A0, [A5 - 0x58]
000033A6  342E 001C                move.w     D2, [A6 + 0x1C]
000033AA  5242                     addq.w     D2, 1
000033AC  B469 0002                cmp.w      D2, [A1 + 0x2]
000033B0  6D02                     blt        +0x4 /* 000033B4 */
000033B2  4242                     clr.w      D2
label000033B4:
000033B4  2D40 0008                move.l     [A6 + 0x8], D0
000033B8  2D41 000C                move.l     [A6 + 0xC], D1
000033BC  3D42 001C                move.w     [A6 + 0x1C], D2
000033C0  4840                     swap.w     D0
000033C2  4841                     swap.w     D1
000033C4  5940                     subq.w     D0, 4
000033C6  5941                     subq.w     D1, 4
000033C8  4EAD 0202                jsr        [A5 + 0x202 /* export_60, CODE:4 @ 00000000 */]
label000033CC:
000033CC  4E75                     rts
label000033CE:
000033CE  266E 0004                movea.l    A3, [A6 + 0x4]
000033D2  B6FC 0000                cmpa.w     A3, 0x0
000033D6  6708                     beq        +0xA /* 000033E0 */
000033D8  2856                     movea.l    A4, [A6]
000033DA  268C                     move.l     [A3], A4
000033DC  294B 0004                move.l     [A4 + 0x4], A3
label000033E0:
000033E0  42AE FFFC                clr.l      [A6 - 0x4]
000033E4  60E6                     bra        -0x18 /* 000033CC */
fn000033E6:
000033E6  48E7 FFF8                movem.l    -[A7], D0,D1,D2,D3,D4,D5,D6,D7,A0,A1,A2,A3,A4
000033EA  206D FFA8                movea.l    A0, [A5 - 0x58]
000033EE  286E 0016                movea.l    A4, [A6 + 0x16]
000033F2  4247                     clr.w      D7
000033F4  342E 0024                move.w     D2, [A6 + 0x24]
000033F8  E542                     asl        D2.w, 2
000033FA  4EFB 2002                jmp        [PC + D2.w + 0x2]
000033FE  4EFA 0034                jmp        [PC + 0x34 /* 00003434 */]
00003402  4EFA 000A                jmp        [PC + 0xA /* 0000340E */]
00003406  4EFA 0094                jmp        [PC + 0x94 /* 0000349C */]
0000340A  4EFA 0096                jmp        [PC + 0x96 /* 000034A2 */]
label0000340E:
0000340E  342E 0020                move.w     D2, [A6 + 0x20]
00003412  B46E 0022                cmp.w      D2, [A6 + 0x22]
00003416  6610                     bne        +0x12 /* 00003428 */
00003418  082E 0001 0014           btst.b     [A6 + 0x14], 0x1
0000341E  6608                     bne        +0xA /* 00003428 */
00003420  343C 0007                move.w     D2, 0x7
00003424  6000 0154                bra        +0x156 /* 0000357A */
label00003428:
00003428  3D7C 0019 0026           move.w     [A6 + 0x26], 0x19
0000342E  426E 0024                clr.w      [A6 + 0x24]
00003432  4E71                     nop
label00003434:
00003434  342E 0020                move.w     D2, [A6 + 0x20]
00003438  B46E 0022                cmp.w      D2, [A6 + 0x22]
0000343C  670A                     beq        +0xC /* 00003448 */
0000343E  3D7C 0019 0026           move.w     [A6 + 0x26], 0x19
00003444  3D42 0022                move.w     [A6 + 0x22], D2
label00003448:
00003448  536E 0028                subq.w     [A6 + 0x28], 1
0000344C  6C3A                     bge        +0x3C /* 00003488 */
0000344E  426E 0028                clr.w      [A6 + 0x28]
00003452  082E 0001 0014           btst.b     [A6 + 0x14], 0x1
00003458  672E                     beq        +0x30 /* 00003488 */
0000345A  3D7C 0019 0026           move.w     [A6 + 0x26], 0x19
00003460  3D7C 0004 0028           move.w     [A6 + 0x28], 0x4
00003466  343C 0008                move.w     D2, 0x8
0000346A  3E3C 0010                move.w     D7, 0x10
0000346E  3D7C 0002 0024           move.w     [A6 + 0x24], 0x2
00003474  0C6E 00C0 0020           cmpi.w     [A6 + 0x20], 0xC0
0000347A  6E00 00FE                bgt        +0x100 /* 0000357A */
0000347E  3D7C 0003 0024           move.w     [A6 + 0x24], 0x3
00003484  6000 00F4                bra        +0xF6 /* 0000357A */
label00003488:
00003488  EC42                     asr        D2.w, 6
0000348A  536E 0026                subq.w     [A6 + 0x26], 1
0000348E  6E00 00EA                bgt        +0xEC /* 0000357A */
00003492  3D7C 0001 0024           move.w     [A6 + 0x24], 0x1
00003498  6000 00E0                bra        +0xE2 /* 0000357A */
label0000349C:
0000349C  343C 0009                move.w     D2, 0x9 /* '\t' */
000034A0  6004                     bra        +0x6 /* 000034A6 */
label000034A2:
000034A2  343C 000A                move.w     D2, 0xA /* '\n' */
label000034A6:
000034A6  426E 0024                clr.w      [A6 + 0x24]
000034AA  4A6E 001E                tst.w      [A6 + 0x1E]
000034AE  6D12                     blt        +0x14 /* 000034C2 */
000034B0  226C 0048                movea.l    A1, [A4 + 0x48]
000034B4  45FA 00EC                lea.l      A2, [PC + 0xEC /* 000035A2, value 0x10031003 */]
000034B8  5D41                     subq.w     D1, 6
000034BA  5840                     addq.w     D0, 4
000034BC  0440 0010                subi.w     D0, 0x10
000034C0  6012                     bra        +0x14 /* 000034D4 */
label000034C2:
000034C2  226C 0044                movea.l    A1, [A4 + 0x44]
000034C6  45FA 00EC                lea.l      A2, [PC + 0xEC /* 000035B4, value 0xB040B04 */]
000034CA  5D41                     subq.w     D1, 6
000034CC  0440 000E                subi.w     D0, 0xE
000034D0  0640 0010                addi.w     D0, 0x10
label000034D4:
000034D4  4EAD 0202                jsr        [A5 + 0x202 /* export_60, CODE:4 @ 00000000 */]
000034D8  082E 0000 0015           btst.b     [A6 + 0x15], 0x0
000034DE  6618                     bne        +0x1A /* 000034F8 */
000034E0  206C 0050                movea.l    A0, [A4 + 0x50]
000034E4  4A2D FD3E                tst.b      [A5 - 0x2C2]
000034E8  6724                     beq        +0x26 /* 0000350E */
000034EA  3F00                     move.w     -[A7], D0
000034EC  303C 0007                move.w     D0, 0x7
000034F0  4EAD 0052                jsr        [A5 + 0x52 /* export_6, CODE:1 @ 00000114 */]
000034F4  301F                     move.w     D0, [A7]+
000034F6  6016                     bra        +0x18 /* 0000350E */
label000034F8:
000034F8  206C 00AC                movea.l    A0, [A4 + 0xAC]
000034FC  4A2D FD3E                tst.b      [A5 - 0x2C2]
00003500  670C                     beq        +0xE /* 0000350E */
00003502  3F00                     move.w     -[A7], D0
00003504  303C 0009                move.w     D0, 0x9 /* '\t' */
00003508  4EAD 0052                jsr        [A5 + 0x52 /* export_6, CODE:1 @ 00000114 */]
0000350C  301F                     move.w     D0, [A7]+
label0000350E:
0000350E  43ED FE6C                lea.l      A1, [A5 - 0x194]
00003512  342E 0020                move.w     D2, [A6 + 0x20]
00003516  EC42                     asr        D2.w, 6
00003518  E342                     asl        D2.w, 1
0000351A  D4C2                     add.w      A2, D2
0000351C  141A                     move.b     D2, [A2]+
0000351E  4882                     ext.w      D2
00003520  D042                     add.w      D0, D2
00003522  1612                     move.b     D3, [A2]
00003524  4883                     ext.w      D3
00003526  D243                     add.w      D1, D3
00003528  362E 0020                move.w     D3, [A6 + 0x20]
0000352C  343C 012C                move.w     D2, 0x12C
00003530  0443 012C                subi.w     D3, 0x12C
00003534  6B04                     bmi        +0x6 /* 0000353A */
00003536  9443                     sub.w      D2, D3
00003538  6002                     bra        +0x4 /* 0000353C */
label0000353A:
0000353A  D443                     add.w      D2, D3
label0000353C:
0000353C  48C2                     ext.l      D2
0000353E  48C3                     ext.l      D3
00003540  7A0D                     moveq.l    D5, 0x0D
00003542  EBA2                     asl        D2, D5
00003544  EBA3                     asl        D3, D5
00003546  4A6E 001E                tst.w      [A6 + 0x1E]
0000354A  6C02                     bge        +0x4 /* 0000354E */
0000354C  4482                     neg.l      D2
label0000354E:
0000354E  283C 0000 D555           move.l     D4, 0xD555
00003554  4A2D FD3E                tst.b      [A5 - 0x2C2]
00003558  6742                     beq        +0x44 /* 0000359C */
0000355A  1E2D FD3E                move.b     D7, [A5 - 0x2C2]
0000355E  1C3C 0001                move.b     D6, 0x1
00003562  023C 0007                andi.b     ccr, 7
00003566  8F06                     sbcd       D7, D6
00003568  1B47 FD3E                move.b     [A5 - 0x2C2], D7
0000356C  3B7C 0002 FD38           move.w     [A5 - 0x2C8], 0x2
00003572  4EBA FD7A                jsr        [PC - 0x286 /* 000032EE */]
00003576  6000 0024                bra        +0x26 /* 0000359C */
label0000357A:
0000357A  4A6E 001E                tst.w      [A6 + 0x1E]
0000357E  6D0C                     blt        +0xE /* 0000358C */
00003580  226C 0048                movea.l    A1, [A4 + 0x48]
00003584  5D41                     subq.w     D1, 6
00003586  5840                     addq.w     D0, 4
00003588  9047                     sub.w      D0, D7
0000358A  600C                     bra        +0xE /* 00003598 */
label0000358C:
0000358C  226C 0044                movea.l    A1, [A4 + 0x44]
00003590  5D41                     subq.w     D1, 6
00003592  0440 000E                subi.w     D0, 0xE
00003596  D047                     add.w      D0, D7
label00003598:
00003598  4EAD 0202                jsr        [A5 + 0x202 /* export_60, CODE:4 @ 00000000 */]
label0000359C:
0000359C  4CDF 1FFF                movem.l    D0,D1,D2,D3,D4,D5,D6,D7,A0,A1,A2,A3,A4, [A7]+
000035A0  4E75                     rts
000035A2  1003                     move.b     D0, D3
000035A4  1003                     move.b     D0, D3
000035A6  1003                     move.b     D0, D3
000035A8  1003                     move.b     D0, D3
000035AA  1313                     move.b     -[A1], [A3]
000035AC  1313                     move.b     -[A1], [A3]
000035AE  1313                     move.b     -[A1], [A3]
000035B0  1313                     move.b     -[A1], [A3]
000035B2  1313                     move.b     -[A1], [A3]
000035B4  0B04                     btst       D4, D5
000035B6  0B04                     btst       D4, D5
000035B8  0B04                     btst       D4, D5
000035BA  0B04                     btst       D4, D5
000035BC  0C13 0C13                cmpi.b     [A3], 0x13
000035C0  0C13 0C13                cmpi.b     [A3], 0x13
