# near model CODE resource
# jump table entries: 960-1010 (51 of them)
export_166:
fn00000000:
00000000  4E56 0000                link       A6, 0
00000004  204D                     movea.l    A0, A5
00000006  D0EE 0008                add.w      A0, [A6 + 0x8]
0000000A  7000                     moveq.l    D0, 0x00
0000000C  1028 FF8C                move.b     D0, [A0 - 0x74]
00000010  204D                     movea.l    A0, A5
00000012  E588                     lsl        D0, 2
00000014  D1C0                     add.l      A0, D0
00000016  2B68 FCE4 B954           move.l     [A5 - 0x46AC], [A0 - 0x31C]
0000001C  4E5E                     unlink     A6
0000001E  4E75                     rts
00000020  4E56 0000                link       A6, 0
00000024  204D                     movea.l    A0, A5
00000026  D0EE 0008                add.w      A0, [A6 + 0x8]
0000002A  7000                     moveq.l    D0, 0x00
0000002C  1028 FF8C                move.b     D0, [A0 - 0x74]
00000030  204D                     movea.l    A0, A5
00000032  E588                     lsl        D0, 2
00000034  D1C0                     add.l      A0, D0
00000036  2B68 FCE4 B966           move.l     [A5 - 0x469A], [A0 - 0x31C]
0000003C  4E5E                     unlink     A6
0000003E  4E75                     rts
export_167:
00000040  2F07                     move.l     -[A7], D7
00000042  7E00                     moveq.l    D7, 0x00
00000044  1E2D B948                move.b     D7, [A5 - 0x46B8]
00000048  4A6D BA58                tst.w      [A5 - 0x45A8]
0000004C  6618                     bne        +0x1A /* 00000066 */
0000004E  0C2D 001F B94E           cmpi.b     [A5 - 0x46B2], 0x1F
00000054  6D10                     blt        +0x12 /* 00000066 */
00000056  3F3C 0001                move.w     -[A7], 0x1
0000005A  4EAD 03CA                jsr        [A5 + 0x3CA /* export_117, CODE:3 @ 000007B0 */]
0000005E  3B7C 0001 BA58           move.w     [A5 - 0x45A8], 0x1
00000064  548F                     addq.l     A7, 2
label00000066:
00000066  102D B94B                move.b     D0, [A5 - 0x46B5]
0000006A  4880                     ext.w      D0
0000006C  204D                     movea.l    A0, A5
0000006E  D0C0                     add.w      A0, D0
00000070  D0C0                     add.w      A0, D0
00000072  BE68 B670                cmp.w      D7, [A0 - 0x4990]
00000076  6C06                     bge        +0x8 /* 0000007E */
00000078  4EAD 0302                jsr        [A5 + 0x302 /* export_92, CODE:3 @ 00004A26 */]
0000007C  602E                     bra        +0x30 /* 000000AC */
label0000007E:
0000007E  4EAD 02F2                jsr        [A5 + 0x2F2 /* export_90, CODE:3 @ 0000475E */]
00000082  7200                     moveq.l    D1, 0x00
00000084  1200                     move.b     D1, D0
00000086  0C41 0014                cmpi.w     D1, 0x14
0000008A  6604                     bne        +0x6 /* 00000090 */
0000008C  4EAD 030A                jsr        [A5 + 0x30A /* export_93, CODE:3 @ 00004ADE */]
label00000090:
00000090  7000                     moveq.l    D0, 0x00
00000092  102D BAE8                move.b     D0, [A5 - 0x4518]
00000096  3F00                     move.w     -[A7], D0
00000098  4EAD 02E2                jsr        [A5 + 0x2E2 /* export_88, CODE:3 @ 00004650 */]
0000009C  4A00                     tst.b      D0
0000009E  548F                     addq.l     A7, 2
000000A0  6706                     beq        +0x8 /* 000000A8 */
000000A2  4EBA 000C                jsr        [PC + 0xC /* 000000B0 */]
000000A6  6004                     bra        +0x6 /* 000000AC */
label000000A8:
000000A8  4EAD 03AA                jsr        [A5 + 0x3AA /* export_113, CODE:3 @ 00005930 */]
label000000AC:
000000AC  2E1F                     move.l     D7, [A7]+
000000AE  4E75                     rts
fn000000B0:
000000B0  2F07                     move.l     -[A7], D7
000000B2  426D BA58                clr.w      [A5 - 0x45A8]
000000B6  102D B94B                move.b     D0, [A5 - 0x46B5]
000000BA  4880                     ext.w      D0
000000BC  204D                     movea.l    A0, A5
000000BE  D0C0                     add.w      A0, D0
000000C0  D0C0                     add.w      A0, D0
000000C2  1B68 B671 B948           move.b     [A5 - 0x46B8], [A0 - 0x498F]
000000C8  4EAD 02F2                jsr        [A5 + 0x2F2 /* export_90, CODE:3 @ 0000475E */]
000000CC  7200                     moveq.l    D1, 0x00
000000CE  1200                     move.b     D1, D0
000000D0  5541                     subq.w     D1, 2
000000D2  6758                     beq        +0x5A /* 0000012C */
000000D4  4EAD 0312                jsr        [A5 + 0x312 /* export_94, CODE:3 @ 00004B1A */]
000000D8  7200                     moveq.l    D1, 0x00
000000DA  1200                     move.b     D1, D0
000000DC  3F01                     move.w     -[A7], D1
000000DE  4EAD 02E2                jsr        [A5 + 0x2E2 /* export_88, CODE:3 @ 00004650 */]
000000E2  4A00                     tst.b      D0
000000E4  548F                     addq.l     A7, 2
000000E6  6616                     bne        +0x18 /* 000000FE */
000000E8  4EAD 0322                jsr        [A5 + 0x322 /* export_96, CODE:3 @ 00004BBA */]
000000EC  5740                     subq.w     D0, 3
000000EE  6C0E                     bge        +0x10 /* 000000FE */
000000F0  3F3C FFFD                move.w     -[A7], 0xFFFD
000000F4  4EAD 029A                jsr        [A5 + 0x29A /* export_79, CODE:3 @ 000041FE */]
000000F8  1B40 B947                move.b     [A5 - 0x46B9], D0
000000FC  548F                     addq.l     A7, 2
label000000FE:
000000FE  4EBA 2974                jsr        [PC + 0x2974 /* 00002A74 */]
00000102  4A2D B953                tst.b      [A5 - 0x46AD]
00000106  6C00 00AA                bge        +0xAC /* 000001B2 */
0000010A  4EAD 0322                jsr        [A5 + 0x322 /* export_96, CODE:3 @ 00004BBA */]
0000010E  0C40 000C                cmpi.w     D0, 0xC
00000112  6D0C                     blt        +0xE /* 00000120 */
00000114  4EAD 031A                jsr        [A5 + 0x31A /* export_95, CODE:3 @ 00004B88 */]
00000118  7200                     moveq.l    D1, 0x00
0000011A  1200                     move.b     D1, D0
0000011C  5541                     subq.w     D1, 2
0000011E  670C                     beq        +0xE /* 0000012C */
label00000120:
00000120  4EAD 02F2                jsr        [A5 + 0x2F2 /* export_90, CODE:3 @ 0000475E */]
00000124  7200                     moveq.l    D1, 0x00
00000126  1200                     move.b     D1, D0
00000128  5541                     subq.w     D1, 2
0000012A  6610                     bne        +0x12 /* 0000013C */
label0000012C:
0000012C  4EBA 2F7C                jsr        [PC + 0x2F7C /* 000030AA */]
00000130  4A40                     tst.w      D0
00000132  6708                     beq        +0xA /* 0000013C */
00000134  4EBA 00A4                jsr        [PC + 0xA4 /* 000001DA */]
00000138  6000 009C                bra        +0x9E /* 000001D6 */
label0000013C:
0000013C  0C2D 0016 B94E           cmpi.b     [A5 - 0x46B2], 0x16
00000142  6C34                     bge        +0x36 /* 00000178 */
label00000144:
00000144  0C2D 0002 B951           cmpi.b     [A5 - 0x46AF], 0x2
0000014A  6C08                     bge        +0xA /* 00000154 */
0000014C  0C2D 0002 B952           cmpi.b     [A5 - 0x46AE], 0x2
00000152  660A                     bne        +0xC /* 0000015E */
label00000154:
00000154  1B7C 0002 B952           move.b     [A5 - 0x46AE], 0x2
0000015A  7E3F                     moveq.l    D7, 0x3F
0000015C  6002                     bra        +0x4 /* 00000160 */
label0000015E:
0000015E  7E11                     moveq.l    D7, 0x11
label00000160:
00000160  4A2D B951                tst.b      [A5 - 0x46AF]
00000164  6660                     bne        +0x62 /* 000001C6 */
00000166  3F3C 0011                move.w     -[A7], 0x11
0000016A  4EAD 03CA                jsr        [A5 + 0x3CA /* export_117, CODE:3 @ 000007B0 */]
0000016E  3B7C 0001 BA56           move.w     [A5 - 0x45AA], 0x1
00000174  548F                     addq.l     A7, 2
00000176  604E                     bra        +0x50 /* 000001C6 */
label00000178:
00000178  0C2D 0021 B94E           cmpi.b     [A5 - 0x46B2], 0x21 /* '!' */
0000017E  6C32                     bge        +0x34 /* 000001B2 */
00000180  0C2D 0001 B951           cmpi.b     [A5 - 0x46AF], 0x1
00000186  67BC                     beq        -0x42 /* 00000144 */
00000188  0C2D 0002 B951           cmpi.b     [A5 - 0x46AF], 0x2
0000018E  6722                     beq        +0x24 /* 000001B2 */
00000190  3F3C 0001                move.w     -[A7], 0x1
00000194  4EAD 02EA                jsr        [A5 + 0x2EA /* export_89, CODE:3 @ 00004702 */]
00000198  4A40                     tst.w      D0
0000019A  548F                     addq.l     A7, 2
0000019C  661E                     bne        +0x20 /* 000001BC */
0000019E  3F3C 0010                move.w     -[A7], 0x10
000001A2  4EAD 03CA                jsr        [A5 + 0x3CA /* export_117, CODE:3 @ 000007B0 */]
000001A6  3B7C 0001 BA56           move.w     [A5 - 0x45AA], 0x1
000001AC  7E14                     moveq.l    D7, 0x14
000001AE  548F                     addq.l     A7, 2
000001B0  6014                     bra        +0x16 /* 000001C6 */
label000001B2:
000001B2  3F3C 0064                move.w     -[A7], 0x64 /* 'd' */
000001B6  4EAD 02EA                jsr        [A5 + 0x2EA /* export_89, CODE:3 @ 00004702 */]
000001BA  548F                     addq.l     A7, 2
label000001BC:
000001BC  4267                     clr.w      -[A7]
000001BE  4EAD 03CA                jsr        [A5 + 0x3CA /* export_117, CODE:3 @ 000007B0 */]
000001C2  7E16                     moveq.l    D7, 0x16
000001C4  548F                     addq.l     A7, 2
label000001C6:
000001C6  3F07                     move.w     -[A7], D7
000001C8  4EBA FE36                jsr        [PC - 0x1CA /* 00000000 */]
000001CC  4EAD 02A2                jsr        [A5 + 0x2A2 /* export_80, CODE:3 @ 00004246 */]
000001D0  422D B94E                clr.b      [A5 - 0x46B2]
000001D4  548F                     addq.l     A7, 2
label000001D6:
000001D6  2E1F                     move.l     D7, [A7]+
000001D8  4E75                     rts
export_168:
fn000001DA:
000001DA  7000                     moveq.l    D0, 0x00
000001DC  102D BAE9                move.b     D0, [A5 - 0x4517]
000001E0  D0AD BD86                add.l      D0, [A5 - 0x427A]
000001E4  2040                     movea.l    A0, D0
000001E6  10BC 00FF                move.b     [A0], 0xFF
000001EA  102D B94B                move.b     D0, [A5 - 0x46B5]
000001EE  4880                     ext.w      D0
000001F0  204D                     movea.l    A0, A5
000001F2  D0C0                     add.w      A0, D0
000001F4  D0C0                     add.w      A0, D0
000001F6  1B68 B671 B948           move.b     [A5 - 0x46B8], [A0 - 0x498F]
000001FC  302D BAEC                move.w     D0, [A5 - 0x4514]
00000200  204D                     movea.l    A0, A5
00000202  D0C0                     add.w      A0, D0
00000204  7207                     moveq.l    D1, 0x07
00000206  D228 B87D                add.b      D1, [A0 - 0x4783]
0000020A  5601                     addq.b     D1, 3
0000020C  1B41 B947                move.b     [A5 - 0x46B9], D1
00000210  3F3C 0008                move.w     -[A7], 0x8
00000214  4EAD 029A                jsr        [A5 + 0x29A /* export_79, CODE:3 @ 000041FE */]
00000218  1B40 B947                move.b     [A5 - 0x46B9], D0
0000021C  422D B94E                clr.b      [A5 - 0x46B2]
00000220  3EBC 0030                move.w     [A7], 0x30 /* '0' */
00000224  4EAD 03CA                jsr        [A5 + 0x3CA /* export_117, CODE:3 @ 000007B0 */]
00000228  3EBC 0064                move.w     [A7], 0x64 /* 'd' */
0000022C  4EAD 02EA                jsr        [A5 + 0x2EA /* export_89, CODE:3 @ 00004702 */]
00000230  3EBC 0033                move.w     [A7], 0x33 /* '3' */
00000234  4EBA FDCA                jsr        [PC - 0x236 /* 00000000 */]
00000238  4EAD 02A2                jsr        [A5 + 0x2A2 /* export_80, CODE:3 @ 00004246 */]
0000023C  548F                     addq.l     A7, 2
0000023E  4E75                     rts
export_169:
00000240  48E7 0300                movem.l    -[A7], D6,D7
00000244  7E00                     moveq.l    D7, 0x00
00000246  1E2D B946                move.b     D7, [A5 - 0x46BA]
0000024A  4A2D B953                tst.b      [A5 - 0x46AD]
0000024E  6D26                     blt        +0x28 /* 00000276 */
00000250  0C47 000F                cmpi.w     D7, 0xF
00000254  6712                     beq        +0x14 /* 00000268 */
00000256  0C47 00A6                cmpi.w     D7, 0xA6
0000025A  670C                     beq        +0xE /* 00000268 */
0000025C  0C47 009E                cmpi.w     D7, 0x9E
00000260  6706                     beq        +0x8 /* 00000268 */
00000262  0C47 00AB                cmpi.w     D7, 0xAB
00000266  660E                     bne        +0x10 /* 00000276 */
label00000268:
00000268  3F3C 0047                move.w     -[A7], 0x47 /* 'G' */
0000026C  4EBA FD92                jsr        [PC - 0x26E /* 00000000 */]
00000270  548F                     addq.l     A7, 2
00000272  6000 00A2                bra        +0xA4 /* 00000316 */
label00000276:
00000276  1C2D B94C                move.b     D6, [A5 - 0x46B4]
0000027A  4886                     ext.w      D6
0000027C  0C46 0005                cmpi.w     D6, 0x5
00000280  6706                     beq        +0x8 /* 00000288 */
00000282  0C46 0004                cmpi.w     D6, 0x4
00000286  6608                     bne        +0xA /* 00000290 */
label00000288:
00000288  4EAD 0332                jsr        [A5 + 0x332 /* export_98, CODE:3 @ 00004DB4 */]
0000028C  6000 0088                bra        +0x8A /* 00000316 */
label00000290:
00000290  0C2D 0002 B952           cmpi.b     [A5 - 0x46AE], 0x2
00000296  6606                     bne        +0x8 /* 0000029E */
00000298  4EBA 0A7C                jsr        [PC + 0xA7C /* 00000D16 */]
0000029C  6078                     bra        +0x7A /* 00000316 */
label0000029E:
0000029E  0C2D 0002 B951           cmpi.b     [A5 - 0x46AF], 0x2
000002A4  6D06                     blt        +0x8 /* 000002AC */
000002A6  4EAD 039A                jsr        [A5 + 0x39A /* export_111, CODE:3 @ 000058C4 */]
000002AA  606A                     bra        +0x6C /* 00000316 */
label000002AC:
000002AC  0C47 000F                cmpi.w     D7, 0xF
000002B0  670C                     beq        +0xE /* 000002BE */
000002B2  0C47 0032                cmpi.w     D7, 0x32 /* '2' */
000002B6  6D0C                     blt        +0xE /* 000002C4 */
000002B8  0C47 0035                cmpi.w     D7, 0x35 /* '5' */
000002BC  6C06                     bge        +0x8 /* 000002C4 */
label000002BE:
000002BE  4EBA 00D0                jsr        [PC + 0xD0 /* 00000390 */]
000002C2  6052                     bra        +0x54 /* 00000316 */
label000002C4:
000002C4  0C47 0030                cmpi.w     D7, 0x30 /* '0' */
000002C8  6606                     bne        +0x8 /* 000002D0 */
000002CA  4EBA 033C                jsr        [PC + 0x33C /* 00000608 */]
000002CE  6046                     bra        +0x48 /* 00000316 */
label000002D0:
000002D0  0C47 0004                cmpi.w     D7, 0x4
000002D4  6C06                     bge        +0x8 /* 000002DC */
000002D6  4EBA 0594                jsr        [PC + 0x594 /* 0000086C */]
000002DA  603A                     bra        +0x3C /* 00000316 */
label000002DC:
000002DC  0C47 0043                cmpi.w     D7, 0x43 /* 'C' */
000002E0  6D0C                     blt        +0xE /* 000002EE */
000002E2  0C47 0046                cmpi.w     D7, 0x46 /* 'F' */
000002E6  6C06                     bge        +0x8 /* 000002EE */
000002E8  4EBA 0594                jsr        [PC + 0x594 /* 0000087E */]
000002EC  6028                     bra        +0x2A /* 00000316 */
label000002EE:
000002EE  0C47 000F                cmpi.w     D7, 0xF
000002F2  6C06                     bge        +0x8 /* 000002FA */
000002F4  4EBA 03C0                jsr        [PC + 0x3C0 /* 000006B6 */]
000002F8  601C                     bra        +0x1E /* 00000316 */
label000002FA:
000002FA  0C47 0057                cmpi.w     D7, 0x57 /* 'W' */
000002FE  6D0C                     blt        +0xE /* 0000030C */
00000300  0C47 0064                cmpi.w     D7, 0x64 /* 'd' */
00000304  6C06                     bge        +0x8 /* 0000030C */
00000306  4EBA 06E8                jsr        [PC + 0x6E8 /* 000009F0 */]
0000030A  600A                     bra        +0xC /* 00000316 */
label0000030C:
0000030C  0C47 006D                cmpi.w     D7, 0x6D /* 'm' */
00000310  6604                     bne        +0x6 /* 00000316 */
00000312  4EBA 0008                jsr        [PC + 0x8 /* 0000031C */]
label00000316:
00000316  4CDF 00C0                movem.l    D6,D7, [A7]+
0000031A  4E75                     rts
fn0000031C:
0000031C  4A6D BA98                tst.w      [A5 - 0x4568]
00000320  6730                     beq        +0x32 /* 00000352 */
00000322  0C6D 0001 A90C           cmpi.w     [A5 - 0x56F4], 0x1
00000328  6628                     bne        +0x2A /* 00000352 */
0000032A  4EAD 010A                jsr        [A5 + 0x10A /* export_29, CODE:2 @ 00002B4C */]
0000032E  4A00                     tst.b      D0
00000330  665C                     bne        +0x5E /* 0000038E */
00000332  0C6D 0001 BA98           cmpi.w     [A5 - 0x4568], 0x1
00000338  6612                     bne        +0x14 /* 0000034C */
0000033A  3F3C 0019                move.w     -[A7], 0x19
0000033E  4EAD 03CA                jsr        [A5 + 0x3CA /* export_117, CODE:3 @ 000007B0 */]
00000342  3B7C 0002 BA98           move.w     [A5 - 0x4568], 0x2
00000348  548F                     addq.l     A7, 2
0000034A  6042                     bra        +0x44 /* 0000038E */
label0000034C:
0000034C  426D BA98                clr.w      [A5 - 0x4568]
00000350  603C                     bra        +0x3E /* 0000038E */
label00000352:
00000352  426D BA98                clr.w      [A5 - 0x4568]
00000356  4A2D BAAE                tst.b      [A5 - 0x4552]
0000035A  6C08                     bge        +0xA /* 00000364 */
0000035C  4EBA 041C                jsr        [PC + 0x41C /* 0000077A */]
00000360  4A40                     tst.w      D0
00000362  662A                     bne        +0x2C /* 0000038E */
label00000364:
00000364  0C2D 0001 BABA           cmpi.b     [A5 - 0x4546], 0x1
0000036A  670C                     beq        +0xE /* 00000378 */
0000036C  3F3C 0031                move.w     -[A7], 0x31 /* '1' */
00000370  4EBA FC8E                jsr        [PC - 0x372 /* 00000000 */]
00000374  548F                     addq.l     A7, 2
00000376  6016                     bra        +0x18 /* 0000038E */
label00000378:
00000378  4A2D BAAA                tst.b      [A5 - 0x4556]
0000037C  6C10                     bge        +0x12 /* 0000038E */
0000037E  1B7C 0001 BAAA           move.b     [A5 - 0x4556], 0x1
00000384  3F3C 004F                move.w     -[A7], 0x4F /* 'O' */
00000388  4EBA FC76                jsr        [PC - 0x38A /* 00000000 */]
0000038C  548F                     addq.l     A7, 2
label0000038E:
0000038E  4E75                     rts
fn00000390:
00000390  2F07                     move.l     -[A7], D7
00000392  4A2D BAAE                tst.b      [A5 - 0x4552]
00000396  6C10                     bge        +0x12 /* 000003A8 */
00000398  4A2D BABB                tst.b      [A5 - 0x4545]
0000039C  6C0A                     bge        +0xC /* 000003A8 */
0000039E  4EBA 03DA                jsr        [PC + 0x3DA /* 0000077A */]
000003A2  4A40                     tst.w      D0
000003A4  6600 0132                bne        +0x134 /* 000004D8 */
label000003A8:
000003A8  4A2D B951                tst.b      [A5 - 0x46AF]
000003AC  6714                     beq        +0x16 /* 000003C2 */
000003AE  4A2D BAAD                tst.b      [A5 - 0x4553]
000003B2  6C0E                     bge        +0x10 /* 000003C2 */
000003B4  4A2D BAAA                tst.b      [A5 - 0x4556]
000003B8  6C08                     bge        +0xA /* 000003C2 */
000003BA  4EBA 0918                jsr        [PC + 0x918 /* 00000CD4 */]
000003BE  6000 0118                bra        +0x11A /* 000004D8 */
label000003C2:
000003C2  4A6D BA28                tst.w      [A5 - 0x45D8]
000003C6  6774                     beq        +0x76 /* 0000043C */
000003C8  4A6D BA36                tst.w      [A5 - 0x45CA]
000003CC  6708                     beq        +0xA /* 000003D6 */
000003CE  4A2D BABB                tst.b      [A5 - 0x4545]
000003D2  6C00 00A6                bge        +0xA8 /* 0000047A */
label000003D6:
000003D6  0C6D 0002 BA24           cmpi.w     [A5 - 0x45DC], 0x2
000003DC  6C06                     bge        +0x8 /* 000003E4 */
000003DE  426D BA36                clr.w      [A5 - 0x45CA]
000003E2  6058                     bra        +0x5A /* 0000043C */
label000003E4:
000003E4  4EAD 03A2                jsr        [A5 + 0x3A2 /* export_112, CODE:3 @ 000058F0 */]
000003E8  3E00                     move.w     D7, D0
000003EA  0C47 FFF6                cmpi.w     D7, 0xFFF6
000003EE  6D4C                     blt        +0x4E /* 0000043C */
000003F0  0C47 005A                cmpi.w     D7, 0x5A /* 'Z' */
000003F4  6C46                     bge        +0x48 /* 0000043C */
000003F6  3B7C 0001 BA26           move.w     [A5 - 0x45DA], 0x1
000003FC  0C47 FFFA                cmpi.w     D7, 0xFFFA
00000400  6D0C                     blt        +0xE /* 0000040E */
00000402  4A47                     tst.w      D7
00000404  6C08                     bge        +0xA /* 0000040E */
00000406  4EBA 0232                jsr        [PC + 0x232 /* 0000063A */]
0000040A  6000 00CC                bra        +0xCE /* 000004D8 */
label0000040E:
0000040E  0C2D 0001 B963           cmpi.b     [A5 - 0x469D], 0x1
00000414  661E                     bne        +0x20 /* 00000434 */
00000416  0C2D 0003 B95E           cmpi.b     [A5 - 0x46A2], 0x3
0000041C  6710                     beq        +0x12 /* 0000042E */
0000041E  0C2D 006B B958           cmpi.b     [A5 - 0x46A8], 0x6B /* 'k' */
00000424  650E                     bcs        +0x10 /* 00000434 */
00000426  0C2D 0076 B958           cmpi.b     [A5 - 0x46A8], 0x76 /* 'v' */
0000042C  6406                     bcc        +0x8 /* 00000434 */
label0000042E:
0000042E  426D BA36                clr.w      [A5 - 0x45CA]
00000432  6008                     bra        +0xA /* 0000043C */
label00000434:
00000434  4EBA 089E                jsr        [PC + 0x89E /* 00000CD4 */]
00000438  6000 009E                bra        +0xA0 /* 000004D8 */
label0000043C:
0000043C  4A2D BABB                tst.b      [A5 - 0x4545]
00000440  6C38                     bge        +0x3A /* 0000047A */
00000442  4A2D BAAB                tst.b      [A5 - 0x4555]
00000446  6C08                     bge        +0xA /* 00000450 */
00000448  4EBA 01F0                jsr        [PC + 0x1F0 /* 0000063A */]
0000044C  6000 008A                bra        +0x8C /* 000004D8 */
label00000450:
00000450  4A2D BAAC                tst.b      [A5 - 0x4554]
00000454  6C06                     bge        +0x8 /* 0000045C */
00000456  4EBA 0084                jsr        [PC + 0x84 /* 000004DC */]
0000045A  607C                     bra        +0x7E /* 000004D8 */
label0000045C:
0000045C  4A2D BAAD                tst.b      [A5 - 0x4553]
00000460  6C06                     bge        +0x8 /* 00000468 */
00000462  4EBA 00CC                jsr        [PC + 0xCC /* 00000530 */]
00000466  6070                     bra        +0x72 /* 000004D8 */
label00000468:
00000468  4A2D BAB9                tst.b      [A5 - 0x4547]
0000046C  6C6A                     bge        +0x6C /* 000004D8 */
0000046E  4A2D BAAA                tst.b      [A5 - 0x4556]
00000472  6C64                     bge        +0x66 /* 000004D8 */
00000474  4EBA 02AE                jsr        [PC + 0x2AE /* 00000724 */]
00000478  605E                     bra        +0x60 /* 000004D8 */
label0000047A:
0000047A  4A2D BAAA                tst.b      [A5 - 0x4556]
0000047E  6C18                     bge        +0x1A /* 00000498 */
00000480  4A6D A5BC                tst.w      [A5 - 0x5A44]
00000484  670C                     beq        +0xE /* 00000492 */
00000486  4A2D BAAC                tst.b      [A5 - 0x4554]
0000048A  6C06                     bge        +0x8 /* 00000492 */
0000048C  4EBA 0402                jsr        [PC + 0x402 /* 00000890 */]
00000490  6046                     bra        +0x48 /* 000004D8 */
label00000492:
00000492  4EBA 01EA                jsr        [PC + 0x1EA /* 0000067E */]
00000496  6040                     bra        +0x42 /* 000004D8 */
label00000498:
00000498  4A2D BAAB                tst.b      [A5 - 0x4555]
0000049C  6C06                     bge        +0x8 /* 000004A4 */
0000049E  4EBA 019A                jsr        [PC + 0x19A /* 0000063A */]
000004A2  6034                     bra        +0x36 /* 000004D8 */
label000004A4:
000004A4  4A2D BAAC                tst.b      [A5 - 0x4554]
000004A8  6C18                     bge        +0x1A /* 000004C2 */
000004AA  4A6D A5BC                tst.w      [A5 - 0x5A44]
000004AE  670C                     beq        +0xE /* 000004BC */
000004B0  4A2D BAAA                tst.b      [A5 - 0x4556]
000004B4  6C06                     bge        +0x8 /* 000004BC */
000004B6  4EBA 03D8                jsr        [PC + 0x3D8 /* 00000890 */]
000004BA  601C                     bra        +0x1E /* 000004D8 */
label000004BC:
000004BC  4EBA 001E                jsr        [PC + 0x1E /* 000004DC */]
000004C0  6016                     bra        +0x18 /* 000004D8 */
label000004C2:
000004C2  4A2D BAAD                tst.b      [A5 - 0x4553]
000004C6  6C06                     bge        +0x8 /* 000004CE */
000004C8  4EBA 0066                jsr        [PC + 0x66 /* 00000530 */]
000004CC  600A                     bra        +0xC /* 000004D8 */
label000004CE:
000004CE  4A2D BAB9                tst.b      [A5 - 0x4547]
000004D2  6C04                     bge        +0x6 /* 000004D8 */
000004D4  4EBA 01A8                jsr        [PC + 0x1A8 /* 0000067E */]
label000004D8:
000004D8  2E1F                     move.l     D7, [A7]+
000004DA  4E75                     rts
fn000004DC:
000004DC  4EAD 02F2                jsr        [A5 + 0x2F2 /* export_90, CODE:3 @ 0000475E */]
000004E0  7200                     moveq.l    D1, 0x00
000004E2  1200                     move.b     D1, D0
000004E4  0C41 0010                cmpi.w     D1, 0x10
000004E8  671C                     beq        +0x1E /* 00000506 */
000004EA  4EAD 031A                jsr        [A5 + 0x31A /* export_95, CODE:3 @ 00004B88 */]
000004EE  7200                     moveq.l    D1, 0x00
000004F0  1200                     move.b     D1, D0
000004F2  0C41 0010                cmpi.w     D1, 0x10
000004F6  670E                     beq        +0x10 /* 00000506 */
000004F8  4EAD 0312                jsr        [A5 + 0x312 /* export_94, CODE:3 @ 00004B1A */]
000004FC  7200                     moveq.l    D1, 0x00
000004FE  1200                     move.b     D1, D0
00000500  0C41 0010                cmpi.w     D1, 0x10
00000504  6618                     bne        +0x1A /* 0000051E */
label00000506:
00000506  7000                     moveq.l    D0, 0x00
00000508  102D F15E                move.b     D0, [A5 - 0xEA2]
0000050C  B06D BA6A                cmp.w      D0, [A5 - 0x4596]
00000510  670C                     beq        +0xE /* 0000051E */
00000512  4A6D BA3C                tst.w      [A5 - 0x45C4]
00000516  6706                     beq        +0x8 /* 0000051E */
00000518  4EBA 00CA                jsr        [PC + 0xCA /* 000005E4 */]
0000051C  6010                     bra        +0x12 /* 0000052E */
label0000051E:
0000051E  4A2D BAB9                tst.b      [A5 - 0x4547]
00000522  6C06                     bge        +0x8 /* 0000052A */
00000524  4EBA 036A                jsr        [PC + 0x36A /* 00000890 */]
00000528  6004                     bra        +0x6 /* 0000052E */
label0000052A:
0000052A  4EBA 037A                jsr        [PC + 0x37A /* 000008A6 */]
label0000052E:
0000052E  4E75                     rts
fn00000530:
00000530  1B7C 0001 BAAD           move.b     [A5 - 0x4553], 0x1
00000536  4EAD 0312                jsr        [A5 + 0x312 /* export_94, CODE:3 @ 00004B1A */]
0000053A  7200                     moveq.l    D1, 0x00
0000053C  1200                     move.b     D1, D0
0000053E  3F01                     move.w     -[A7], D1
00000540  4EAD 02E2                jsr        [A5 + 0x2E2 /* export_88, CODE:3 @ 00004650 */]
00000544  4A00                     tst.b      D0
00000546  548F                     addq.l     A7, 2
00000548  661C                     bne        +0x1E /* 00000566 */
0000054A  4EAD 0322                jsr        [A5 + 0x322 /* export_96, CODE:3 @ 00004BBA */]
0000054E  5740                     subq.w     D0, 3
00000550  6C14                     bge        +0x16 /* 00000566 */
00000552  3F3C 0005                move.w     -[A7], 0x5
00000556  4EAD 029A                jsr        [A5 + 0x29A /* export_79, CODE:3 @ 000041FE */]
0000055A  1B40 B947                move.b     [A5 - 0x46B9], D0
0000055E  4EAD 027A                jsr        [A5 + 0x27A /* export_75, CODE:3 @ 000040C8 */]
00000562  548F                     addq.l     A7, 2
00000564  607C                     bra        +0x7E /* 000005E2 */
label00000566:
00000566  4EAD 031A                jsr        [A5 + 0x31A /* export_95, CODE:3 @ 00004B88 */]
0000056A  7200                     moveq.l    D1, 0x00
0000056C  1200                     move.b     D1, D0
0000056E  3F01                     move.w     -[A7], D1
00000570  4EAD 02E2                jsr        [A5 + 0x2E2 /* export_88, CODE:3 @ 00004650 */]
00000574  4A00                     tst.b      D0
00000576  548F                     addq.l     A7, 2
00000578  6664                     bne        +0x66 /* 000005DE */
0000057A  4EAD 0322                jsr        [A5 + 0x322 /* export_96, CODE:3 @ 00004BBA */]
0000057E  5140                     subq.w     D0, 8
00000580  6D5C                     blt        +0x5E /* 000005DE */
00000582  4EAD 031A                jsr        [A5 + 0x31A /* export_95, CODE:3 @ 00004B88 */]
00000586  1B40 BABD                move.b     [A5 - 0x4543], D0
0000058A  4EAD 02F2                jsr        [A5 + 0x2F2 /* export_90, CODE:3 @ 0000475E */]
0000058E  4EAD 033A                jsr        [A5 + 0x33A /* export_99, CODE:3 @ 00004F0E */]
00000592  4A40                     tst.w      D0
00000594  6748                     beq        +0x4A /* 000005DE */
00000596  4A2D B949                tst.b      [A5 - 0x46B7]
0000059A  6C24                     bge        +0x26 /* 000005C0 */
0000059C  4EAD 02F2                jsr        [A5 + 0x2F2 /* export_90, CODE:3 @ 0000475E */]
000005A0  7200                     moveq.l    D1, 0x00
000005A2  1200                     move.b     D1, D0
000005A4  5941                     subq.w     D1, 4
000005A6  6618                     bne        +0x1A /* 000005C0 */
000005A8  7000                     moveq.l    D0, 0x00
000005AA  102D BAE9                move.b     D0, [A5 - 0x4517]
000005AE  D0AD BD86                add.l      D0, [A5 - 0x427A]
000005B2  2040                     movea.l    A0, D0
000005B4  7000                     moveq.l    D0, 0x00
000005B6  1010                     move.b     D0, [A0]
000005B8  81FC 0004                divs.w     D0, 0x4
000005BC  5D40                     subq.w     D0, 6
000005BE  6D1E                     blt        +0x20 /* 000005DE */
label000005C0:
000005C0  4EAD 0322                jsr        [A5 + 0x322 /* export_96, CODE:3 @ 00004BBA */]
000005C4  0640 FFF7                addi.w     D0, 0xFFF7
000005C8  3F00                     move.w     -[A7], D0
000005CA  4EAD 029A                jsr        [A5 + 0x29A /* export_79, CODE:3 @ 000041FE */]
000005CE  1B40 B947                move.b     [A5 - 0x46B9], D0
000005D2  3EBC 0044                move.w     [A7], 0x44 /* 'D' */
000005D6  4EBA FA28                jsr        [PC - 0x5D8 /* 00000000 */]
000005DA  548F                     addq.l     A7, 2
000005DC  6004                     bra        +0x6 /* 000005E2 */
label000005DE:
000005DE  4EBA 0046                jsr        [PC + 0x46 /* 00000626 */]
label000005E2:
000005E2  4E75                     rts
fn000005E4:
000005E4  302D BAEC                move.w     D0, [A5 - 0x4514]
000005E8  204D                     movea.l    A0, A5
000005EA  D0C0                     add.w      A0, D0
000005EC  720A                     moveq.l    D1, 0x0A
000005EE  D228 B87D                add.b      D1, [A0 - 0x4783]
000005F2  1B41 B947                move.b     [A5 - 0x46B9], D1
000005F6  1B7C 00FF B949           move.b     [A5 - 0x46B7], 0xFF
000005FC  3F3C 0046                move.w     -[A7], 0x46 /* 'F' */
00000600  4EBA F9FE                jsr        [PC - 0x602 /* 00000000 */]
00000604  548F                     addq.l     A7, 2
00000606  4E75                     rts
fn00000608:
00000608  4A2D BABB                tst.b      [A5 - 0x4545]
0000060C  6D16                     blt        +0x18 /* 00000624 */
0000060E  4A2D BAB9                tst.b      [A5 - 0x4547]
00000612  6C10                     bge        +0x12 /* 00000624 */
00000614  4A2D BABA                tst.b      [A5 - 0x4546]
00000618  6D0A                     blt        +0xC /* 00000624 */
0000061A  3F3C 002B                move.w     -[A7], 0x2B /* '+' */
0000061E  4EBA F9E0                jsr        [PC - 0x620 /* 00000000 */]
00000622  548F                     addq.l     A7, 2
label00000624:
00000624  4E75                     rts
fn00000626:
00000626  3F3C 0032                move.w     -[A7], 0x32 /* '2' */
0000062A  4EBA F9D4                jsr        [PC - 0x62C /* 00000000 */]
0000062E  4EAD 0332                jsr        [A5 + 0x332 /* export_98, CODE:3 @ 00004DB4 */]
00000632  1B40 BAAD                move.b     [A5 - 0x4553], D0
00000636  548F                     addq.l     A7, 2
00000638  4E75                     rts
fn0000063A:
0000063A  2F07                     move.l     -[A7], D7
0000063C  4EAD 0332                jsr        [A5 + 0x332 /* export_98, CODE:3 @ 00004DB4 */]
00000640  1B40 BAAB                move.b     [A5 - 0x4555], D0
00000644  4A6D BA28                tst.w      [A5 - 0x45D8]
00000648  6718                     beq        +0x1A /* 00000662 */
0000064A  0C6D 0002 BA24           cmpi.w     [A5 - 0x45DC], 0x2
00000650  6D10                     blt        +0x12 /* 00000662 */
00000652  4EAD 03A2                jsr        [A5 + 0x3A2 /* export_112, CODE:3 @ 000058F0 */]
00000656  4A40                     tst.w      D0
00000658  6E08                     bgt        +0xA /* 00000662 */
0000065A  4EAD 0322                jsr        [A5 + 0x322 /* export_96, CODE:3 @ 00004BBA */]
0000065E  5540                     subq.w     D0, 2
00000660  6C04                     bge        +0x6 /* 00000666 */
label00000662:
00000662  7E05                     moveq.l    D7, 0x05
00000664  600C                     bra        +0xE /* 00000672 */
label00000666:
00000666  1B7C 0002 B952           move.b     [A5 - 0x46AE], 0x2
0000066C  426D BA36                clr.w      [A5 - 0x45CA]
00000670  7E59                     moveq.l    D7, 0x59
label00000672:
00000672  3F07                     move.w     -[A7], D7
00000674  4EBA F98A                jsr        [PC - 0x676 /* 00000000 */]
00000678  548F                     addq.l     A7, 2
0000067A  2E1F                     move.l     D7, [A7]+
0000067C  4E75                     rts
fn0000067E:
0000067E  2F07                     move.l     -[A7], D7
00000680  4EBA 0FB6                jsr        [PC + 0xFB6 /* 00001638 */]
00000684  3E00                     move.w     D7, D0
00000686  0C2D 0001 BAE7           cmpi.b     [A5 - 0x4519], 0x1
0000068C  661A                     bne        +0x1C /* 000006A8 */
0000068E  0C2D 0012 BAE8           cmpi.b     [A5 - 0x4518], 0x12
00000694  6712                     beq        +0x14 /* 000006A8 */
00000696  0C47 0008                cmpi.w     D7, 0x8
0000069A  6C0C                     bge        +0xE /* 000006A8 */
0000069C  4A2D BAAA                tst.b      [A5 - 0x4556]
000006A0  6C10                     bge        +0x12 /* 000006B2 */
000006A2  4EBA 0080                jsr        [PC + 0x80 /* 00000724 */]
000006A6  600A                     bra        +0xC /* 000006B2 */
label000006A8:
000006A8  3F3C 0001                move.w     -[A7], 0x1
000006AC  4EBA F952                jsr        [PC - 0x6AE /* 00000000 */]
000006B0  548F                     addq.l     A7, 2
label000006B2:
000006B2  2E1F                     move.l     D7, [A7]+
000006B4  4E75                     rts
fn000006B6:
000006B6  4A2D BAB9                tst.b      [A5 - 0x4547]
000006BA  6624                     bne        +0x26 /* 000006E0 */
000006BC  0C2D 0007 B946           cmpi.b     [A5 - 0x46BA], 0x7
000006C2  6708                     beq        +0xA /* 000006CC */
000006C4  0C2D 000B B946           cmpi.b     [A5 - 0x46BA], 0xB
000006CA  6614                     bne        +0x16 /* 000006E0 */
label000006CC:
000006CC  4EAD 0332                jsr        [A5 + 0x332 /* export_98, CODE:3 @ 00004DB4 */]
000006D0  1B40 BAAA                move.b     [A5 - 0x4556], D0
000006D4  3F3C 000D                move.w     -[A7], 0xD /* '\r' */
000006D8  4EBA F926                jsr        [PC - 0x6DA /* 00000000 */]
000006DC  548F                     addq.l     A7, 2
000006DE  6042                     bra        +0x44 /* 00000722 */
label000006E0:
000006E0  4A2D BAB9                tst.b      [A5 - 0x4547]
000006E4  6F14                     ble        +0x16 /* 000006FA */
000006E6  4EAD 0332                jsr        [A5 + 0x332 /* export_98, CODE:3 @ 00004DB4 */]
000006EA  1B40 BAAB                move.b     [A5 - 0x4555], D0
000006EE  3F3C 0006                move.w     -[A7], 0x6
000006F2  4EBA F90C                jsr        [PC - 0x6F4 /* 00000000 */]
000006F6  548F                     addq.l     A7, 2
000006F8  6028                     bra        +0x2A /* 00000722 */
label000006FA:
000006FA  4A2D BABA                tst.b      [A5 - 0x4546]
000006FE  6C0C                     bge        +0xE /* 0000070C */
00000700  4A2D BAAC                tst.b      [A5 - 0x4554]
00000704  6C1C                     bge        +0x1E /* 00000722 */
00000706  4EBA 04A0                jsr        [PC + 0x4A0 /* 00000BA8 */]
0000070A  6016                     bra        +0x18 /* 00000722 */
label0000070C:
0000070C  4A2D BAAD                tst.b      [A5 - 0x4553]
00000710  6C10                     bge        +0x12 /* 00000722 */
00000712  1B7C 0001 BAAD           move.b     [A5 - 0x4553], 0x1
00000718  3F3C 001A                move.w     -[A7], 0x1A
0000071C  4EBA F8E2                jsr        [PC - 0x71E /* 00000000 */]
00000720  548F                     addq.l     A7, 2
label00000722:
00000722  4E75                     rts
fn00000724:
00000724  2F07                     move.l     -[A7], D7
00000726  7001                     moveq.l    D0, 0x01
00000728  1B40 BAAE                move.b     [A5 - 0x4552], D0
0000072C  1B40 BAAA                move.b     [A5 - 0x4556], D0
00000730  4EBA 0F06                jsr        [PC + 0xF06 /* 00001638 */]
00000734  3E00                     move.w     D7, D0
00000736  4A47                     tst.w      D7
00000738  6714                     beq        +0x16 /* 0000074E */
0000073A  1B7C 0001 B950           move.b     [A5 - 0x46B0], 0x1
00000740  701C                     moveq.l    D0, 0x1C
00000742  D047                     add.w      D0, D7
00000744  3F00                     move.w     -[A7], D0
00000746  4EBA F8B8                jsr        [PC - 0x748 /* 00000000 */]
0000074A  548F                     addq.l     A7, 2
0000074C  6028                     bra        +0x2A /* 00000776 */
label0000074E:
0000074E  0C2D 0001 BAE7           cmpi.b     [A5 - 0x4519], 0x1
00000754  6716                     beq        +0x18 /* 0000076C */
00000756  4A2D B950                tst.b      [A5 - 0x46B0]
0000075A  6710                     beq        +0x12 /* 0000076C */
0000075C  422D B950                clr.b      [A5 - 0x46B0]
00000760  3F3C 002C                move.w     -[A7], 0x2C /* ',' */
00000764  4EBA F89A                jsr        [PC - 0x766 /* 00000000 */]
00000768  548F                     addq.l     A7, 2
0000076A  600A                     bra        +0xC /* 00000776 */
label0000076C:
0000076C  3F3C 0027                move.w     -[A7], 0x27 /* '\'' */
00000770  4EBA F88E                jsr        [PC - 0x772 /* 00000000 */]
00000774  548F                     addq.l     A7, 2
label00000776:
00000776  2E1F                     move.l     D7, [A7]+
00000778  4E75                     rts
fn0000077A:
0000077A  4EAD 02F2                jsr        [A5 + 0x2F2 /* export_90, CODE:3 @ 0000475E */]
0000077E  7200                     moveq.l    D1, 0x00
00000780  1200                     move.b     D1, D0
00000782  0C41 000A                cmpi.w     D1, 0xA /* '\n' */
00000786  6708                     beq        +0xA /* 00000790 */
00000788  0C2D 0016 BAE8           cmpi.b     [A5 - 0x4518], 0x16
0000078E  662A                     bne        +0x2C /* 000007BA */
label00000790:
00000790  4EAD 031A                jsr        [A5 + 0x31A /* export_95, CODE:3 @ 00004B88 */]
00000794  7200                     moveq.l    D1, 0x00
00000796  1200                     move.b     D1, D0
00000798  3F01                     move.w     -[A7], D1
0000079A  4EAD 02E2                jsr        [A5 + 0x2E2 /* export_88, CODE:3 @ 00004650 */]
0000079E  4A00                     tst.b      D0
000007A0  548F                     addq.l     A7, 2
000007A2  6604                     bne        +0x6 /* 000007A8 */
000007A4  7000                     moveq.l    D0, 0x00
000007A6  6032                     bra        +0x34 /* 000007DA */
label000007A8:
000007A8  3F3C FFF2                move.w     -[A7], 0xFFF2
000007AC  4EAD 029A                jsr        [A5 + 0x29A /* export_79, CODE:3 @ 000041FE */]
000007B0  1B40 B947                move.b     [A5 - 0x46B9], D0
000007B4  4EAD 027A                jsr        [A5 + 0x27A /* export_75, CODE:3 @ 000040C8 */]
000007B8  548F                     addq.l     A7, 2
label000007BA:
000007BA  4EAD 0312                jsr        [A5 + 0x312 /* export_94, CODE:3 @ 00004B1A */]
000007BE  7200                     moveq.l    D1, 0x00
000007C0  1200                     move.b     D1, D0
000007C2  0C41 000A                cmpi.w     D1, 0xA /* '\n' */
000007C6  6708                     beq        +0xA /* 000007D0 */
000007C8  0C2D 0016 BAE8           cmpi.b     [A5 - 0x4518], 0x16
000007CE  6608                     bne        +0xA /* 000007D8 */
label000007D0:
000007D0  4EBA 000A                jsr        [PC + 0xA /* 000007DC */]
000007D4  7001                     moveq.l    D0, 0x01
000007D6  6002                     bra        +0x4 /* 000007DA */
label000007D8:
000007D8  7000                     moveq.l    D0, 0x00
label000007DA:
000007DA  4E75                     rts
fn000007DC:
000007DC  48E7 0300                movem.l    -[A7], D6,D7
000007E0  0C2D 006D B946           cmpi.b     [A5 - 0x46BA], 0x6D /* 'm' */
000007E6  6740                     beq        +0x42 /* 00000828 */
000007E8  4EBA 0E4E                jsr        [PC + 0xE4E /* 00001638 */]
000007EC  3C00                     move.w     D6, D0
000007EE  0C2D 0002 BAE7           cmpi.b     [A5 - 0x4519], 0x2
000007F4  670C                     beq        +0xE /* 00000802 */
000007F6  3F06                     move.w     -[A7], D6
000007F8  4EAD 029A                jsr        [A5 + 0x29A /* export_79, CODE:3 @ 000041FE */]
000007FC  1B40 B947                move.b     [A5 - 0x46B9], D0
00000800  548F                     addq.l     A7, 2
label00000802:
00000802  4A2D B949                tst.b      [A5 - 0x46B7]
00000806  6D1A                     blt        +0x1C /* 00000822 */
00000808  0C2D 000A BAE8           cmpi.b     [A5 - 0x4518], 0xA /* '\n' */
0000080E  57C0                     seq        D0
00000810  4400                     neg.b      D0
00000812  4880                     ext.w      D0
00000814  5540                     subq.w     D0, 2
00000816  3F00                     move.w     -[A7], D0
00000818  4EAD 029A                jsr        [A5 + 0x29A /* export_79, CODE:3 @ 000041FE */]
0000081C  1B40 B947                move.b     [A5 - 0x46B9], D0
00000820  548F                     addq.l     A7, 2
label00000822:
00000822  4EBA FE02                jsr        [PC - 0x1FE /* 00000626 */]
00000826  603E                     bra        +0x40 /* 00000866 */
label00000828:
00000828  0C2D 0016 BAE8           cmpi.b     [A5 - 0x4518], 0x16
0000082E  6614                     bne        +0x16 /* 00000844 */
00000830  3F3C FFFF                move.w     -[A7], 0xFFFF
00000834  4EAD 036A                jsr        [A5 + 0x36A /* export_105, CODE:3 @ 00005086 */]
00000838  3EBC 005B                move.w     [A7], 0x5B /* '[' */
0000083C  4EBA F7C2                jsr        [PC - 0x83E /* 00000000 */]
00000840  548F                     addq.l     A7, 2
00000842  6022                     bra        +0x24 /* 00000866 */
label00000844:
00000844  7000                     moveq.l    D0, 0x00
00000846  102D BAE9                move.b     D0, [A5 - 0x4517]
0000084A  D0AD BD86                add.l      D0, [A5 - 0x427A]
0000084E  2040                     movea.l    A0, D0
00000850  7000                     moveq.l    D0, 0x00
00000852  1010                     move.b     D0, [A0]
00000854  EA40                     asr        D0.w, 5
00000856  3F00                     move.w     -[A7], D0
00000858  4EAD 036A                jsr        [A5 + 0x36A /* export_105, CODE:3 @ 00005086 */]
0000085C  3EBC 004E                move.w     [A7], 0x4E /* 'N' */
00000860  4EBA F79E                jsr        [PC - 0x862 /* 00000000 */]
00000864  548F                     addq.l     A7, 2
label00000866:
00000866  4CDF 00C0                movem.l    D6,D7, [A7]+
0000086A  4E75                     rts
fn0000086C:
0000086C  4A2D BABA                tst.b      [A5 - 0x4546]
00000870  6C0A                     bge        +0xC /* 0000087C */
00000872  4A2D BAB9                tst.b      [A5 - 0x4547]
00000876  6C04                     bge        +0x6 /* 0000087C */
00000878  4EBA 0016                jsr        [PC + 0x16 /* 00000890 */]
label0000087C:
0000087C  4E75                     rts
fn0000087E:
0000087E  4A2D BAB9                tst.b      [A5 - 0x4547]
00000882  6D06                     blt        +0x8 /* 0000088A */
00000884  4A2D BAAA                tst.b      [A5 - 0x4556]
00000888  6C04                     bge        +0x6 /* 0000088E */
label0000088A:
0000088A  4EBA 0004                jsr        [PC + 0x4 /* 00000890 */]
label0000088E:
0000088E  4E75                     rts
fn00000890:
00000890  7001                     moveq.l    D0, 0x01
00000892  1B40 BAAA                move.b     [A5 - 0x4556], D0
00000896  1B40 BAAC                move.b     [A5 - 0x4554], D0
0000089A  3F3C 0003                move.w     -[A7], 0x3
0000089E  4EBA F760                jsr        [PC - 0x8A0 /* 00000000 */]
000008A2  548F                     addq.l     A7, 2
000008A4  4E75                     rts
fn000008A6:
000008A6  4EAD 0332                jsr        [A5 + 0x332 /* export_98, CODE:3 @ 00004DB4 */]
000008AA  1B40 BAAC                move.b     [A5 - 0x4554], D0
000008AE  4EAD 034A                jsr        [A5 + 0x34A /* export_101, CODE:3 @ 00004FD6 */]
000008B2  1B40 BABD                move.b     [A5 - 0x4543], D0
000008B6  4EAD 035A                jsr        [A5 + 0x35A /* export_103, CODE:3 @ 00005034 */]
000008BA  4EAD 033A                jsr        [A5 + 0x33A /* export_99, CODE:3 @ 00004F0E */]
000008BE  4A40                     tst.w      D0
000008C0  6706                     beq        +0x8 /* 000008C8 */
000008C2  4EBA 0294                jsr        [PC + 0x294 /* 00000B58 */]
000008C6  601E                     bra        +0x20 /* 000008E6 */
label000008C8:
000008C8  4EAD 0352                jsr        [A5 + 0x352 /* export_102, CODE:3 @ 00004FFC */]
000008CC  1B40 BABD                move.b     [A5 - 0x4543], D0
000008D0  4EAD 034A                jsr        [A5 + 0x34A /* export_101, CODE:3 @ 00004FD6 */]
000008D4  4EAD 033A                jsr        [A5 + 0x33A /* export_99, CODE:3 @ 00004F0E */]
000008D8  4A40                     tst.w      D0
000008DA  6706                     beq        +0x8 /* 000008E2 */
000008DC  4EBA 000A                jsr        [PC + 0xA /* 000008E8 */]
000008E0  6004                     bra        +0x6 /* 000008E6 */
label000008E2:
000008E2  4EBA 0070                jsr        [PC + 0x70 /* 00000954 */]
label000008E6:
000008E6  4E75                     rts
fn000008E8:
000008E8  2F07                     move.l     -[A7], D7
000008EA  4EAD 0322                jsr        [A5 + 0x322 /* export_96, CODE:3 @ 00004BBA */]
000008EE  3E00                     move.w     D7, D0
000008F0  0C47 0006                cmpi.w     D7, 0x6
000008F4  6C06                     bge        +0x8 /* 000008FC */
000008F6  4EBA 005C                jsr        [PC + 0x5C /* 00000954 */]
000008FA  6032                     bra        +0x34 /* 0000092E */
label000008FC:
000008FC  4EAD 031A                jsr        [A5 + 0x31A /* export_95, CODE:3 @ 00004B88 */]
00000900  7200                     moveq.l    D1, 0x00
00000902  1200                     move.b     D1, D0
00000904  3F01                     move.w     -[A7], D1
00000906  4EAD 02E2                jsr        [A5 + 0x2E2 /* export_88, CODE:3 @ 00004650 */]
0000090A  4A00                     tst.b      D0
0000090C  548F                     addq.l     A7, 2
0000090E  6606                     bne        +0x8 /* 00000916 */
00000910  4EBA 0020                jsr        [PC + 0x20 /* 00000932 */]
00000914  6018                     bra        +0x1A /* 0000092E */
label00000916:
00000916  70F2                     moveq.l    D0, 0xFFFFFFF2
00000918  D047                     add.w      D0, D7
0000091A  3F00                     move.w     -[A7], D0
0000091C  4EAD 029A                jsr        [A5 + 0x29A /* export_79, CODE:3 @ 000041FE */]
00000920  1B40 B947                move.b     [A5 - 0x46B9], D0
00000924  4EAD 027A                jsr        [A5 + 0x27A /* export_75, CODE:3 @ 000040C8 */]
00000928  4EBA 022E                jsr        [PC + 0x22E /* 00000B58 */]
0000092C  548F                     addq.l     A7, 2
label0000092E:
0000092E  2E1F                     move.l     D7, [A7]+
00000930  4E75                     rts
fn00000932:
00000932  4EAD 034A                jsr        [A5 + 0x34A /* export_101, CODE:3 @ 00004FD6 */]
00000936  4EAD 0322                jsr        [A5 + 0x322 /* export_96, CODE:3 @ 00004BBA */]
0000093A  0640 FFF6                addi.w     D0, 0xFFF6
0000093E  3F00                     move.w     -[A7], D0
00000940  4EAD 029A                jsr        [A5 + 0x29A /* export_79, CODE:3 @ 000041FE */]
00000944  1B40 B947                move.b     [A5 - 0x46B9], D0
00000948  3EBC 0010                move.w     [A7], 0x10
0000094C  4EBA F6B2                jsr        [PC - 0x94E /* 00000000 */]
00000950  548F                     addq.l     A7, 2
00000952  4E75                     rts
fn00000954:
00000954  4E56 FFFE                link       A6, -0x0002
00000958  2F07                     move.l     -[A7], D7
0000095A  4EAD 0332                jsr        [A5 + 0x332 /* export_98, CODE:3 @ 00004DB4 */]
0000095E  1B40 BAAC                move.b     [A5 - 0x4554], D0
00000962  4EBA 0CD4                jsr        [PC + 0xCD4 /* 00001638 */]
00000966  3E00                     move.w     D7, D0
00000968  0C47 0004                cmpi.w     D7, 0x4
0000096C  6C18                     bge        +0x1A /* 00000986 */
0000096E  0C2D 0001 BAE7           cmpi.b     [A5 - 0x4519], 0x1
00000974  6610                     bne        +0x12 /* 00000986 */
00000976  70FD                     moveq.l    D0, 0xFFFFFFFD
00000978  D047                     add.w      D0, D7
0000097A  3F00                     move.w     -[A7], D0
0000097C  4EAD 029A                jsr        [A5 + 0x29A /* export_79, CODE:3 @ 000041FE */]
00000980  1B40 B947                move.b     [A5 - 0x46B9], D0
00000984  548F                     addq.l     A7, 2
label00000986:
00000986  102D B94B                move.b     D0, [A5 - 0x46B5]
0000098A  4880                     ext.w      D0
0000098C  5340                     subq.w     D0, 1
0000098E  3F00                     move.w     -[A7], D0
00000990  4EAD 0292                jsr        [A5 + 0x292 /* export_78, CODE:3 @ 000041CC */]
00000994  3D40 FFFE                move.w     [A6 - 0x2], D0
00000998  4267                     clr.w      -[A7]
0000099A  4EAD 0362                jsr        [A5 + 0x362 /* export_104, CODE:3 @ 0000506C */]
0000099E  D06E FFFE                add.w      D0, [A6 - 0x2]
000009A2  5D40                     subq.w     D0, 6
000009A4  3E80                     move.w     [A7], D0
000009A6  4EAD 02B2                jsr        [A5 + 0x2B2 /* export_82, CODE:3 @ 00004400 */]
000009AA  3E80                     move.w     [A7], D0
000009AC  102D B94F                move.b     D0, [A5 - 0x46B1]
000009B0  4880                     ext.w      D0
000009B2  3F00                     move.w     -[A7], D0
000009B4  4EAD 0262                jsr        [A5 + 0x262 /* export_72, CODE:3 @ 00003F6E */]
000009B8  0C2D 0014 BAE8           cmpi.b     [A5 - 0x4518], 0x14
000009BE  5C8F                     addq.l     A7, 6
000009C0  671E                     beq        +0x20 /* 000009E0 */
000009C2  7000                     moveq.l    D0, 0x00
000009C4  102D BAE8                move.b     D0, [A5 - 0x4518]
000009C8  3F00                     move.w     -[A7], D0
000009CA  4EAD 02E2                jsr        [A5 + 0x2E2 /* export_88, CODE:3 @ 00004650 */]
000009CE  4A00                     tst.b      D0
000009D0  548F                     addq.l     A7, 2
000009D2  660C                     bne        +0xE /* 000009E0 */
000009D4  3F3C 001C                move.w     -[A7], 0x1C
000009D8  4EBA F626                jsr        [PC - 0x9DA /* 00000000 */]
000009DC  548F                     addq.l     A7, 2
000009DE  600A                     bra        +0xC /* 000009EA */
label000009E0:
000009E0  3F3C 000E                move.w     -[A7], 0xE
000009E4  4EBA F61A                jsr        [PC - 0x9E6 /* 00000000 */]
000009E8  548F                     addq.l     A7, 2
label000009EA:
000009EA  2E1F                     move.l     D7, [A7]+
000009EC  4E5E                     unlink     A6
000009EE  4E75                     rts
fn000009F0:
000009F0  4A2D B953                tst.b      [A5 - 0x46AD]
000009F4  6D08                     blt        +0xA /* 000009FE */
000009F6  4EBA 00E6                jsr        [PC + 0xE6 /* 00000ADE */]
000009FA  6000 0082                bra        +0x84 /* 00000A7E */
label000009FE:
000009FE  4A6D BA54                tst.w      [A5 - 0x45AC]
00000A02  660C                     bne        +0xE /* 00000A10 */
00000A04  4A2D BABA                tst.b      [A5 - 0x4546]
00000A08  6C06                     bge        +0x8 /* 00000A10 */
00000A0A  4EBA 0074                jsr        [PC + 0x74 /* 00000A80 */]
00000A0E  606E                     bra        +0x70 /* 00000A7E */
label00000A10:
00000A10  4A2D BABB                tst.b      [A5 - 0x4545]
00000A14  6D06                     blt        +0x8 /* 00000A1C */
00000A16  4EBA 00C6                jsr        [PC + 0xC6 /* 00000ADE */]
00000A1A  6062                     bra        +0x64 /* 00000A7E */
label00000A1C:
00000A1C  0C2D 0006 B94C           cmpi.b     [A5 - 0x46B4], 0x6
00000A22  6742                     beq        +0x44 /* 00000A66 */
00000A24  4EAD 02F2                jsr        [A5 + 0x2F2 /* export_90, CODE:3 @ 0000475E */]
00000A28  7200                     moveq.l    D1, 0x00
00000A2A  1200                     move.b     D1, D0
00000A2C  0C41 0014                cmpi.w     D1, 0x14
00000A30  6718                     beq        +0x1A /* 00000A4A */
00000A32  0C2D 00FF B949           cmpi.b     [A5 - 0x46B7], 0xFF
00000A38  662C                     bne        +0x2E /* 00000A66 */
00000A3A  0C2D 0007 BAE8           cmpi.b     [A5 - 0x4518], 0x7
00000A40  6708                     beq        +0xA /* 00000A4A */
00000A42  0C2D 000C BAE8           cmpi.b     [A5 - 0x4518], 0xC
00000A48  661C                     bne        +0x1E /* 00000A66 */
label00000A4A:
00000A4A  4A6D BA54                tst.w      [A5 - 0x45AC]
00000A4E  660A                     bne        +0xC /* 00000A5A */
00000A50  3F3C 0008                move.w     -[A7], 0x8
00000A54  4EAD 03CA                jsr        [A5 + 0x3CA /* export_117, CODE:3 @ 000007B0 */]
00000A58  548F                     addq.l     A7, 2
label00000A5A:
00000A5A  3F3C 0019                move.w     -[A7], 0x19
00000A5E  4EBA F5A0                jsr        [PC - 0xA60 /* 00000000 */]
00000A62  548F                     addq.l     A7, 2
00000A64  6018                     bra        +0x1A /* 00000A7E */
label00000A66:
00000A66  4EAD 034A                jsr        [A5 + 0x34A /* export_101, CODE:3 @ 00004FD6 */]
00000A6A  7200                     moveq.l    D1, 0x00
00000A6C  1200                     move.b     D1, D0
00000A6E  3F01                     move.w     -[A7], D1
00000A70  4EAD 02E2                jsr        [A5 + 0x2E2 /* export_88, CODE:3 @ 00004650 */]
00000A74  4A00                     tst.b      D0
00000A76  548F                     addq.l     A7, 2
00000A78  6604                     bne        +0x6 /* 00000A7E */
00000A7A  4EBA 0062                jsr        [PC + 0x62 /* 00000ADE */]
label00000A7E:
00000A7E  4E75                     rts
fn00000A80:
00000A80  2F07                     move.l     -[A7], D7
00000A82  7E0A                     moveq.l    D7, 0x0A
00000A84  4EAD 0332                jsr        [A5 + 0x332 /* export_98, CODE:3 @ 00004DB4 */]
00000A88  1B40 BAAE                move.b     [A5 - 0x4552], D0
00000A8C  1B40 BAAC                move.b     [A5 - 0x4554], D0
00000A90  4EAD 034A                jsr        [A5 + 0x34A /* export_101, CODE:3 @ 00004FD6 */]
00000A94  0C2D 000D BAE8           cmpi.b     [A5 - 0x4518], 0xD /* '\r' */
00000A9A  6708                     beq        +0xA /* 00000AA4 */
00000A9C  0C2D 0012 BAE8           cmpi.b     [A5 - 0x4518], 0x12
00000AA2  6606                     bne        +0x8 /* 00000AAA */
label00000AA4:
00000AA4  4A2D B949                tst.b      [A5 - 0x46B7]
00000AA8  6726                     beq        +0x28 /* 00000AD0 */
label00000AAA:
00000AAA  0C2D 0004 BAE8           cmpi.b     [A5 - 0x4518], 0x4
00000AB0  6620                     bne        +0x22 /* 00000AD2 */
00000AB2  4A2D B949                tst.b      [A5 - 0x46B7]
00000AB6  671A                     beq        +0x1C /* 00000AD2 */
00000AB8  7000                     moveq.l    D0, 0x00
00000ABA  102D BAE9                move.b     D0, [A5 - 0x4517]
00000ABE  D0AD BD86                add.l      D0, [A5 - 0x427A]
00000AC2  2040                     movea.l    A0, D0
00000AC4  7000                     moveq.l    D0, 0x00
00000AC6  1010                     move.b     D0, [A0]
00000AC8  81FC 0004                divs.w     D0, 0x4
00000ACC  5D40                     subq.w     D0, 6
00000ACE  6C02                     bge        +0x4 /* 00000AD2 */
label00000AD0:
00000AD0  7E49                     moveq.l    D7, 0x49
label00000AD2:
00000AD2  3F07                     move.w     -[A7], D7
00000AD4  4EBA F52A                jsr        [PC - 0xAD6 /* 00000000 */]
00000AD8  548F                     addq.l     A7, 2
00000ADA  2E1F                     move.l     D7, [A7]+
00000ADC  4E75                     rts
fn00000ADE:
00000ADE  4EAD 0332                jsr        [A5 + 0x332 /* export_98, CODE:3 @ 00004DB4 */]
00000AE2  1B40 BAAD                move.b     [A5 - 0x4553], D0
00000AE6  4EAD 031A                jsr        [A5 + 0x31A /* export_95, CODE:3 @ 00004B88 */]
00000AEA  7200                     moveq.l    D1, 0x00
00000AEC  1200                     move.b     D1, D0
00000AEE  3F01                     move.w     -[A7], D1
00000AF0  4EAD 02E2                jsr        [A5 + 0x2E2 /* export_88, CODE:3 @ 00004650 */]
00000AF4  4A00                     tst.b      D0
00000AF6  548F                     addq.l     A7, 2
00000AF8  6620                     bne        +0x22 /* 00000B1A */
00000AFA  4EAD 02F2                jsr        [A5 + 0x2F2 /* export_90, CODE:3 @ 0000475E */]
00000AFE  7200                     moveq.l    D1, 0x00
00000B00  1200                     move.b     D1, D0
00000B02  3F01                     move.w     -[A7], D1
00000B04  4EAD 02E2                jsr        [A5 + 0x2E2 /* export_88, CODE:3 @ 00004650 */]
00000B08  4A00                     tst.b      D0
00000B0A  548F                     addq.l     A7, 2
00000B0C  660C                     bne        +0xE /* 00000B1A */
00000B0E  3F3C 0017                move.w     -[A7], 0x17
00000B12  4EBA F4EC                jsr        [PC - 0xB14 /* 00000000 */]
00000B16  548F                     addq.l     A7, 2
00000B18  603C                     bra        +0x3E /* 00000B56 */
label00000B1A:
00000B1A  4EAD 02F2                jsr        [A5 + 0x2F2 /* export_90, CODE:3 @ 0000475E */]
00000B1E  7200                     moveq.l    D1, 0x00
00000B20  1200                     move.b     D1, D0
00000B22  0C41 0014                cmpi.w     D1, 0x14
00000B26  6716                     beq        +0x18 /* 00000B3E */
00000B28  4A2D B949                tst.b      [A5 - 0x46B7]
00000B2C  6C1E                     bge        +0x20 /* 00000B4C */
00000B2E  0C2D 0007 BAE8           cmpi.b     [A5 - 0x4518], 0x7
00000B34  6708                     beq        +0xA /* 00000B3E */
00000B36  0C2D 000C BAE8           cmpi.b     [A5 - 0x4518], 0xC
00000B3C  660E                     bne        +0x10 /* 00000B4C */
label00000B3E:
00000B3E  3F3C FFF9                move.w     -[A7], 0xFFF9
00000B42  4EAD 029A                jsr        [A5 + 0x29A /* export_79, CODE:3 @ 000041FE */]
00000B46  1B40 B947                move.b     [A5 - 0x46B9], D0
00000B4A  548F                     addq.l     A7, 2
label00000B4C:
00000B4C  3F3C 000B                move.w     -[A7], 0xB
00000B50  4EBA F4AE                jsr        [PC - 0xB52 /* 00000000 */]
00000B54  548F                     addq.l     A7, 2
label00000B56:
00000B56  4E75                     rts
fn00000B58:
00000B58  2F07                     move.l     -[A7], D7
00000B5A  4EAD 0322                jsr        [A5 + 0x322 /* export_96, CODE:3 @ 00004BBA */]
00000B5E  3E00                     move.w     D7, D0
00000B60  0C47 0004                cmpi.w     D7, 0x4
00000B64  6C26                     bge        +0x28 /* 00000B8C */
00000B66  4EBA 0AD0                jsr        [PC + 0xAD0 /* 00001638 */]
00000B6A  5940                     subq.w     D0, 4
00000B6C  6C1E                     bge        +0x20 /* 00000B8C */
00000B6E  0C2D 0001 BAE7           cmpi.b     [A5 - 0x4519], 0x1
00000B74  6716                     beq        +0x18 /* 00000B8C */
00000B76  3F07                     move.w     -[A7], D7
00000B78  4EAD 029A                jsr        [A5 + 0x29A /* export_79, CODE:3 @ 000041FE */]
00000B7C  1B40 B947                move.b     [A5 - 0x46B9], D0
00000B80  3EBC 0008                move.w     [A7], 0x8
00000B84  4EBA F47A                jsr        [PC - 0xB86 /* 00000000 */]
00000B88  548F                     addq.l     A7, 2
00000B8A  6018                     bra        +0x1A /* 00000BA4 */
label00000B8C:
00000B8C  70FC                     moveq.l    D0, 0xFFFFFFFC
00000B8E  D047                     add.w      D0, D7
00000B90  3F00                     move.w     -[A7], D0
00000B92  4EAD 029A                jsr        [A5 + 0x29A /* export_79, CODE:3 @ 000041FE */]
00000B96  1B40 B947                move.b     [A5 - 0x46B9], D0
00000B9A  3EBC 0018                move.w     [A7], 0x18
00000B9E  4EBA F460                jsr        [PC - 0xBA0 /* 00000000 */]
00000BA2  548F                     addq.l     A7, 2
label00000BA4:
00000BA4  2E1F                     move.l     D7, [A7]+
00000BA6  4E75                     rts
fn00000BA8:
00000BA8  48E7 0F00                movem.l    -[A7], D4,D5,D6,D7
00000BAC  7800                     moveq.l    D4, 0x00
00000BAE  0C2D 0007 B946           cmpi.b     [A5 - 0x46BA], 0x7
00000BB4  6500 00AA                bcs        +0xAC /* 00000C60 */
00000BB8  3F3C 0004                move.w     -[A7], 0x4
00000BBC  4EAD 029A                jsr        [A5 + 0x29A /* export_79, CODE:3 @ 000041FE */]
00000BC0  3C00                     move.w     D6, D0
00000BC2  3E86                     move.w     [A7], D6
00000BC4  4EAD 02AA                jsr        [A5 + 0x2AA /* export_81, CODE:3 @ 000043DA */]
00000BC8  3A00                     move.w     D5, D0
00000BCA  548F                     addq.l     A7, 2
label00000BCC:
00000BCC  102D B949                move.b     D0, [A5 - 0x46B7]
00000BD0  4880                     ext.w      D0
00000BD2  204D                     movea.l    A0, A5
00000BD4  D0C0                     add.w      A0, D0
00000BD6  1028 B661                move.b     D0, [A0 - 0x499F]
00000BDA  4880                     ext.w      D0
00000BDC  DA40                     add.w      D5, D0
00000BDE  102D B94B                move.b     D0, [A5 - 0x46B5]
00000BE2  4880                     ext.w      D0
00000BE4  3F00                     move.w     -[A7], D0
00000BE6  3F05                     move.w     -[A7], D5
00000BE8  102D B94F                move.b     D0, [A5 - 0x46B1]
00000BEC  4880                     ext.w      D0
00000BEE  3F00                     move.w     -[A7], D0
00000BF0  4EAD 0262                jsr        [A5 + 0x262 /* export_72, CODE:3 @ 00003F6E */]
00000BF4  0C2D 0002 BAE8           cmpi.b     [A5 - 0x4518], 0x2
00000BFA  5C8F                     addq.l     A7, 6
00000BFC  671C                     beq        +0x1E /* 00000C1A */
00000BFE  7000                     moveq.l    D0, 0x00
00000C00  102D BAE8                move.b     D0, [A5 - 0x4518]
00000C04  3F00                     move.w     -[A7], D0
00000C06  4EAD 02E2                jsr        [A5 + 0x2E2 /* export_88, CODE:3 @ 00004650 */]
00000C0A  4A00                     tst.b      D0
00000C0C  548F                     addq.l     A7, 2
00000C0E  670A                     beq        +0xC /* 00000C1A */
00000C10  5244                     addq.w     D4, 1
00000C12  0C44 0002                cmpi.w     D4, 0x2
00000C16  6C36                     bge        +0x38 /* 00000C4E */
00000C18  60B2                     bra        -0x4C /* 00000BCC */
label00000C1A:
00000C1A  3F06                     move.w     -[A7], D6
00000C1C  4EAD 032A                jsr        [A5 + 0x32A /* export_97, CODE:3 @ 00004BC8 */]
00000C20  720E                     moveq.l    D1, 0x0E
00000C22  C3C4                     muls.w     D1, D4
00000C24  D240                     add.w      D1, D0
00000C26  7EF2                     moveq.l    D7, 0xFFFFFFF2
00000C28  DE41                     add.w      D7, D1
00000C2A  0C47 FFF8                cmpi.w     D7, 0xFFF8
00000C2E  548F                     addq.l     A7, 2
00000C30  6D06                     blt        +0x8 /* 00000C38 */
00000C32  0C47 0002                cmpi.w     D7, 0x2
00000C36  6D06                     blt        +0x8 /* 00000C3E */
label00000C38:
00000C38  4A47                     tst.w      D7
00000C3A  6C24                     bge        +0x26 /* 00000C60 */
00000C3C  7EFD                     moveq.l    D7, 0xFFFFFFFD
label00000C3E:
00000C3E  7004                     moveq.l    D0, 0x04
00000C40  D047                     add.w      D0, D7
00000C42  3F00                     move.w     -[A7], D0
00000C44  4EAD 029A                jsr        [A5 + 0x29A /* export_79, CODE:3 @ 000041FE */]
00000C48  1B40 B947                move.b     [A5 - 0x46B9], D0
00000C4C  548F                     addq.l     A7, 2
label00000C4E:
00000C4E  4EAD 0332                jsr        [A5 + 0x332 /* export_98, CODE:3 @ 00004DB4 */]
00000C52  1B40 BAAC                move.b     [A5 - 0x4554], D0
00000C56  3F3C 0004                move.w     -[A7], 0x4
00000C5A  4EBA F3A4                jsr        [PC - 0xC5C /* 00000000 */]
00000C5E  548F                     addq.l     A7, 2
label00000C60:
00000C60  4CDF 00F0                movem.l    D4,D5,D6,D7, [A7]+
00000C64  4E75                     rts
fn00000C66:
00000C66  2F07                     move.l     -[A7], D7
00000C68  7E00                     moveq.l    D7, 0x00
00000C6A  1E2D B946                move.b     D7, [A5 - 0x46BA]
00000C6E  0C47 009E                cmpi.w     D7, 0x9E
00000C72  670C                     beq        +0xE /* 00000C80 */
00000C74  0C47 00AA                cmpi.w     D7, 0xAA
00000C78  6706                     beq        +0x8 /* 00000C80 */
00000C7A  0C47 00AB                cmpi.w     D7, 0xAB
00000C7E  6610                     bne        +0x12 /* 00000C90 */
label00000C80:
00000C80  1B7C 0001 BAAB           move.b     [A5 - 0x4555], 0x1
00000C86  3F3C 0039                move.w     -[A7], 0x39 /* '9' */
00000C8A  4EBA F374                jsr        [PC - 0xC8C /* 00000000 */]
00000C8E  548F                     addq.l     A7, 2
label00000C90:
00000C90  2E1F                     move.l     D7, [A7]+
00000C92  4E75                     rts
fn00000C94:
00000C94  2F07                     move.l     -[A7], D7
00000C96  7E00                     moveq.l    D7, 0x00
00000C98  1E2D B946                move.b     D7, [A5 - 0x46BA]
00000C9C  0C47 009E                cmpi.w     D7, 0x9E
00000CA0  670C                     beq        +0xE /* 00000CAE */
00000CA2  0C47 00AA                cmpi.w     D7, 0xAA
00000CA6  6706                     beq        +0x8 /* 00000CAE */
00000CA8  0C47 00AB                cmpi.w     D7, 0xAB
00000CAC  6622                     bne        +0x24 /* 00000CD0 */
label00000CAE:
00000CAE  1B7C 0001 BAAA           move.b     [A5 - 0x4556], 0x1
00000CB4  4A2D B951                tst.b      [A5 - 0x46AF]
00000CB8  670C                     beq        +0xE /* 00000CC6 */
00000CBA  3F3C 0038                move.w     -[A7], 0x38 /* '8' */
00000CBE  4EBA F340                jsr        [PC - 0xCC0 /* 00000000 */]
00000CC2  548F                     addq.l     A7, 2
00000CC4  600A                     bra        +0xC /* 00000CD0 */
label00000CC6:
00000CC6  3F3C 0056                move.w     -[A7], 0x56 /* 'V' */
00000CCA  4EBA F334                jsr        [PC - 0xCCC /* 00000000 */]
00000CCE  548F                     addq.l     A7, 2
label00000CD0:
00000CD0  2E1F                     move.l     D7, [A7]+
00000CD2  4E75                     rts
export_170:
fn00000CD4:
00000CD4  2F07                     move.l     -[A7], D7
00000CD6  7E37                     moveq.l    D7, 0x37
00000CD8  4EAD 0332                jsr        [A5 + 0x332 /* export_98, CODE:3 @ 00004DB4 */]
00000CDC  1B40 BAAE                move.b     [A5 - 0x4552], D0
00000CE0  1B40 BAAA                move.b     [A5 - 0x4556], D0
00000CE4  4A2D B951                tst.b      [A5 - 0x46AF]
00000CE8  6610                     bne        +0x12 /* 00000CFA */
00000CEA  3F3C 0013                move.w     -[A7], 0x13
00000CEE  4EAD 03CA                jsr        [A5 + 0x3CA /* export_117, CODE:3 @ 000007B0 */]
00000CF2  426D BA36                clr.w      [A5 - 0x45CA]
00000CF6  548F                     addq.l     A7, 2
00000CF8  600A                     bra        +0xC /* 00000D04 */
label00000CFA:
00000CFA  0C2D 0001 B951           cmpi.b     [A5 - 0x46AF], 0x1
00000D00  6702                     beq        +0x4 /* 00000D04 */
00000D02  7E5A                     moveq.l    D7, 0x5A
label00000D04:
00000D04  1B7C 0002 B952           move.b     [A5 - 0x46AE], 0x2
00000D0A  3F07                     move.w     -[A7], D7
00000D0C  4EBA F2F2                jsr        [PC - 0xD0E /* 00000000 */]
00000D10  548F                     addq.l     A7, 2
00000D12  2E1F                     move.l     D7, [A7]+
00000D14  4E75                     rts
fn00000D16:
00000D16  2F07                     move.l     -[A7], D7
00000D18  0C2D 0002 B94C           cmpi.b     [A5 - 0x46B4], 0x2
00000D1E  6C6E                     bge        +0x70 /* 00000D8E */
00000D20  4EAD 02F2                jsr        [A5 + 0x2F2 /* export_90, CODE:3 @ 0000475E */]
00000D24  7200                     moveq.l    D1, 0x00
00000D26  1200                     move.b     D1, D0
00000D28  0C41 000B                cmpi.w     D1, 0xB
00000D2C  6708                     beq        +0xA /* 00000D36 */
00000D2E  0C6D 0002 BA24           cmpi.w     [A5 - 0x45DC], 0x2
00000D34  6D24                     blt        +0x26 /* 00000D5A */
label00000D36:
00000D36  4EAD 03A2                jsr        [A5 + 0x3A2 /* export_112, CODE:3 @ 000058F0 */]
00000D3A  3E00                     move.w     D7, D0
00000D3C  0C47 005A                cmpi.w     D7, 0x5A /* 'Z' */
00000D40  6C18                     bge        +0x1A /* 00000D5A */
00000D42  0C47 FFFC                cmpi.w     D7, 0xFFFC
00000D46  6D06                     blt        +0x8 /* 00000D4E */
00000D48  4EBA 0048                jsr        [PC + 0x48 /* 00000D92 */]
00000D4C  6040                     bra        +0x42 /* 00000D8E */
label00000D4E:
00000D4E  3F3C 003C                move.w     -[A7], 0x3C /* '<' */
00000D52  4EBA F2AC                jsr        [PC - 0xD54 /* 00000000 */]
00000D56  548F                     addq.l     A7, 2
00000D58  6034                     bra        +0x36 /* 00000D8E */
label00000D5A:
00000D5A  4A2D B951                tst.b      [A5 - 0x46AF]
00000D5E  660A                     bne        +0xC /* 00000D6A */
00000D60  4A2D B953                tst.b      [A5 - 0x46AD]
00000D64  6C04                     bge        +0x6 /* 00000D6A */
00000D66  426D BA26                clr.w      [A5 - 0x45DA]
label00000D6A:
00000D6A  0C2D 0002 B951           cmpi.b     [A5 - 0x46AF], 0x2
00000D70  6D06                     blt        +0x8 /* 00000D78 */
00000D72  4EBA 001E                jsr        [PC + 0x1E /* 00000D92 */]
00000D76  6016                     bra        +0x18 /* 00000D8E */
label00000D78:
00000D78  0C2D 00AB B946           cmpi.b     [A5 - 0x46BA], 0xAB
00000D7E  660E                     bne        +0x10 /* 00000D8E */
00000D80  422D B952                clr.b      [A5 - 0x46AE]
00000D84  3F3C 005C                move.w     -[A7], 0x5C /* '\\' */
00000D88  4EBA F276                jsr        [PC - 0xD8A /* 00000000 */]
00000D8C  548F                     addq.l     A7, 2
label00000D8E:
00000D8E  2E1F                     move.l     D7, [A7]+
00000D90  4E75                     rts
fn00000D92:
00000D92  48E7 0300                movem.l    -[A7], D6,D7
00000D96  7E00                     moveq.l    D7, 0x00
00000D98  1E2D B946                move.b     D7, [A5 - 0x46BA]
00000D9C  1C2D B951                move.b     D6, [A5 - 0x46AF]
00000DA0  4886                     ext.w      D6
00000DA2  0C47 00A1                cmpi.w     D7, 0xA1
00000DA6  6614                     bne        +0x16 /* 00000DBC */
00000DA8  4A2D BAAE                tst.b      [A5 - 0x4552]
00000DAC  6D0E                     blt        +0x10 /* 00000DBC */
00000DAE  3F3C 0039                move.w     -[A7], 0x39 /* '9' */
00000DB2  4EBA F24C                jsr        [PC - 0xDB4 /* 00000000 */]
00000DB6  548F                     addq.l     A7, 2
00000DB8  6000 0090                bra        +0x92 /* 00000E4A */
label00000DBC:
00000DBC  4A2D BAAE                tst.b      [A5 - 0x4552]
00000DC0  6C16                     bge        +0x18 /* 00000DD8 */
00000DC2  4A46                     tst.w      D6
00000DC4  6606                     bne        +0x8 /* 00000DCC */
00000DC6  3B7C 000F BA88           move.w     [A5 - 0x4578], 0xF
label00000DCC:
00000DCC  4EBA 0082                jsr        [PC + 0x82 /* 00000E50 */]
00000DD0  0C2D 0001 BAAE           cmpi.b     [A5 - 0x4552], 0x1
00000DD6  6772                     beq        +0x74 /* 00000E4A */
label00000DD8:
00000DD8  4A2D BAAD                tst.b      [A5 - 0x4553]
00000DDC  6C4A                     bge        +0x4C /* 00000E28 */
00000DDE  0C47 009E                cmpi.w     D7, 0x9E
00000DE2  670C                     beq        +0xE /* 00000DF0 */
00000DE4  0C47 00AA                cmpi.w     D7, 0xAA
00000DE8  6706                     beq        +0x8 /* 00000DF0 */
00000DEA  0C47 00AB                cmpi.w     D7, 0xAB
00000DEE  665A                     bne        +0x5C /* 00000E4A */
label00000DF0:
00000DF0  1B7C 0001 BAAD           move.b     [A5 - 0x4553], 0x1
00000DF6  422D B952                clr.b      [A5 - 0x46AE]
00000DFA  4A46                     tst.w      D6
00000DFC  6614                     bne        +0x16 /* 00000E12 */
00000DFE  3B7C 0001 BA36           move.w     [A5 - 0x45CA], 0x1
00000E04  3B7C 0009 BA8A           move.w     [A5 - 0x4576], 0x9 /* '\t' */
00000E0A  426D BA26                clr.w      [A5 - 0x45DA]
00000E0E  7E5D                     moveq.l    D7, 0x5D
00000E10  600C                     bra        +0xE /* 00000E1E */
label00000E12:
00000E12  0C46 0001                cmpi.w     D6, 0x1
00000E16  6604                     bne        +0x6 /* 00000E1C */
00000E18  7E5C                     moveq.l    D7, 0x5C
00000E1A  6002                     bra        +0x4 /* 00000E1E */
label00000E1C:
00000E1C  7E57                     moveq.l    D7, 0x57
label00000E1E:
00000E1E  3F07                     move.w     -[A7], D7
00000E20  4EBA F1DE                jsr        [PC - 0xE22 /* 00000000 */]
00000E24  548F                     addq.l     A7, 2
00000E26  6022                     bra        +0x24 /* 00000E4A */
label00000E28:
00000E28  4A2D BAAC                tst.b      [A5 - 0x4554]
00000E2C  6C06                     bge        +0x8 /* 00000E34 */
00000E2E  4EBA 0078                jsr        [PC + 0x78 /* 00000EA8 */]
00000E32  6016                     bra        +0x18 /* 00000E4A */
label00000E34:
00000E34  4A2D BAAA                tst.b      [A5 - 0x4556]
00000E38  6C06                     bge        +0x8 /* 00000E40 */
00000E3A  4EBA FE58                jsr        [PC - 0x1A8 /* 00000C94 */]
00000E3E  600A                     bra        +0xC /* 00000E4A */
label00000E40:
00000E40  4A2D BAAB                tst.b      [A5 - 0x4555]
00000E44  6C04                     bge        +0x6 /* 00000E4A */
00000E46  4EBA FE1E                jsr        [PC - 0x1E2 /* 00000C66 */]
label00000E4A:
00000E4A  4CDF 00C0                movem.l    D6,D7, [A7]+
00000E4E  4E75                     rts
fn00000E50:
00000E50  48E7 0300                movem.l    -[A7], D6,D7
00000E54  7E00                     moveq.l    D7, 0x00
00000E56  1E2D B946                move.b     D7, [A5 - 0x46BA]
00000E5A  0C47 009D                cmpi.w     D7, 0x9D
00000E5E  6718                     beq        +0x1A /* 00000E78 */
00000E60  0C47 009E                cmpi.w     D7, 0x9E
00000E64  6712                     beq        +0x14 /* 00000E78 */
00000E66  0C47 00AA                cmpi.w     D7, 0xAA
00000E6A  670C                     beq        +0xE /* 00000E78 */
00000E6C  0C47 00AB                cmpi.w     D7, 0xAB
00000E70  6706                     beq        +0x8 /* 00000E78 */
00000E72  0C47 00A5                cmpi.w     D7, 0xA5
00000E76  660E                     bne        +0x10 /* 00000E86 */
label00000E78:
00000E78  4A2D B951                tst.b      [A5 - 0x46AF]
00000E7C  6604                     bne        +0x6 /* 00000E82 */
00000E7E  7C4B                     moveq.l    D6, 0x4B
00000E80  6012                     bra        +0x14 /* 00000E94 */
label00000E82:
00000E82  7C3A                     moveq.l    D6, 0x3A
00000E84  600E                     bra        +0x10 /* 00000E94 */
label00000E86:
00000E86  0C47 0096                cmpi.w     D7, 0x96
00000E8A  6706                     beq        +0x8 /* 00000E92 */
00000E8C  0C47 00A1                cmpi.w     D7, 0xA1
00000E90  6610                     bne        +0x12 /* 00000EA2 */
label00000E92:
00000E92  7C42                     moveq.l    D6, 0x42
label00000E94:
00000E94  1B7C 0001 BAAE           move.b     [A5 - 0x4552], 0x1
00000E9A  3F06                     move.w     -[A7], D6
00000E9C  4EBA F162                jsr        [PC - 0xE9E /* 00000000 */]
00000EA0  548F                     addq.l     A7, 2
label00000EA2:
00000EA2  4CDF 00C0                movem.l    D6,D7, [A7]+
00000EA6  4E75                     rts
fn00000EA8:
00000EA8  48E7 1F00                movem.l    -[A7], D3,D4,D5,D6,D7
00000EAC  7E00                     moveq.l    D7, 0x00
00000EAE  1E2D B946                move.b     D7, [A5 - 0x46BA]
00000EB2  7C00                     moveq.l    D6, 0x00
00000EB4  1C2D B958                move.b     D6, [A5 - 0x46A8]
00000EB8  1A2D B951                move.b     D5, [A5 - 0x46AF]
00000EBC  4885                     ext.w      D5
00000EBE  783E                     moveq.l    D4, 0x3E
00000EC0  7600                     moveq.l    D3, 0x00
00000EC2  0C47 009E                cmpi.w     D7, 0x9E
00000EC6  6718                     beq        +0x1A /* 00000EE0 */
00000EC8  0C47 00AA                cmpi.w     D7, 0xAA
00000ECC  6712                     beq        +0x14 /* 00000EE0 */
00000ECE  0C47 00AB                cmpi.w     D7, 0xAB
00000ED2  670C                     beq        +0xE /* 00000EE0 */
00000ED4  0C47 00A8                cmpi.w     D7, 0xA8
00000ED8  6706                     beq        +0x8 /* 00000EE0 */
00000EDA  0C47 00A5                cmpi.w     D7, 0xA5
00000EDE  664C                     bne        +0x4E /* 00000F2C */
label00000EE0:
00000EE0  4EAD 03A2                jsr        [A5 + 0x3A2 /* export_112, CODE:3 @ 000058F0 */]
00000EE4  0C40 0020                cmpi.w     D0, 0x20 /* ' ' */
00000EE8  6D0A                     blt        +0xC /* 00000EF4 */
00000EEA  4A45                     tst.w      D5
00000EEC  6706                     beq        +0x8 /* 00000EF4 */
00000EEE  4EBA FD76                jsr        [PC - 0x28A /* 00000C66 */]
00000EF2  6056                     bra        +0x58 /* 00000F4A */
label00000EF4:
00000EF4  4A45                     tst.w      D5
00000EF6  662C                     bne        +0x2E /* 00000F24 */
00000EF8  0C46 00A8                cmpi.w     D6, 0xA8
00000EFC  674C                     beq        +0x4E /* 00000F4A */
00000EFE  0C46 0097                cmpi.w     D6, 0x97
00000F02  6730                     beq        +0x32 /* 00000F34 */
00000F04  0C46 0098                cmpi.w     D6, 0x98
00000F08  672A                     beq        +0x2C /* 00000F34 */
00000F0A  0C46 00A2                cmpi.w     D6, 0xA2
00000F0E  6724                     beq        +0x26 /* 00000F34 */
00000F10  0C46 0099                cmpi.w     D6, 0x99
00000F14  6604                     bne        +0x6 /* 00000F1A */
00000F16  7601                     moveq.l    D3, 0x01
00000F18  601A                     bra        +0x1C /* 00000F34 */
label00000F1A:
00000F1A  4A45                     tst.w      D5
00000F1C  6716                     beq        +0x18 /* 00000F34 */
00000F1E  4EBA FD46                jsr        [PC - 0x2BA /* 00000C66 */]
00000F22  6026                     bra        +0x28 /* 00000F4A */
label00000F24:
00000F24  0C46 0098                cmpi.w     D6, 0x98
00000F28  6620                     bne        +0x22 /* 00000F4A */
00000F2A  6008                     bra        +0xA /* 00000F34 */
label00000F2C:
00000F2C  0C47 00A7                cmpi.w     D7, 0xA7
00000F30  6618                     bne        +0x1A /* 00000F4A */
00000F32  783D                     moveq.l    D4, 0x3D
label00000F34:
00000F34  1B7C 0001 BAAC           move.b     [A5 - 0x4554], 0x1
00000F3A  3F04                     move.w     -[A7], D4
00000F3C  4EBA F0C2                jsr        [PC - 0xF3E /* 00000000 */]
00000F40  4A43                     tst.w      D3
00000F42  548F                     addq.l     A7, 2
00000F44  6704                     beq        +0x6 /* 00000F4A */
00000F46  4EAD 02A2                jsr        [A5 + 0x2A2 /* export_80, CODE:3 @ 00004246 */]
label00000F4A:
00000F4A  4CDF 00F8                movem.l    D3,D4,D5,D6,D7, [A7]+
00000F4E  4E75                     rts
export_120:
00000F50  48E7 0F00                movem.l    -[A7], D4,D5,D6,D7
00000F54  70FF                     moveq.l    D0, 0xFFFFFFFF
00000F56  1B40 BB1D                move.b     [A5 - 0x44E3], D0
00000F5A  1B40 BB1C                move.b     [A5 - 0x44E4], D0
00000F5E  0C2D 0007 B94C           cmpi.b     [A5 - 0x46B4], 0x7
00000F64  6700 00DA                beq        +0xDC /* 00001040 */
00000F68  1B6D B94B BB1E           move.b     [A5 - 0x44E2], [A5 - 0x46B5]
00000F6E  4EBA 00D6                jsr        [PC + 0xD6 /* 00001046 */]
00000F72  1B6D BB1E BB1F           move.b     [A5 - 0x44E1], [A5 - 0x44E2]
00000F78  3F2D BADA                move.w     -[A7], [A5 - 0x4526]
00000F7C  4EAD 02AA                jsr        [A5 + 0x2AA /* export_81, CODE:3 @ 000043DA */]
00000F80  5400                     addq.b     D0, 2
00000F82  1B40 BB21                move.b     [A5 - 0x44DF], D0
00000F86  0C00 000A                cmpi.b     D0, 0xA /* '\n' */
00000F8A  548F                     addq.l     A7, 2
00000F8C  6F06                     ble        +0x8 /* 00000F94 */
00000F8E  1B7C 000B BB21           move.b     [A5 - 0x44DF], 0xB
label00000F94:
00000F94  3F2D BAD8                move.w     -[A7], [A5 - 0x4528]
00000F98  4EAD 02AA                jsr        [A5 + 0x2AA /* export_81, CODE:3 @ 000043DA */]
00000F9C  5300                     subq.b     D0, 1
00000F9E  1B40 BB20                move.b     [A5 - 0x44E0], D0
00000FA2  486D BB68                pea.l      [A5 - 0x4498]
00000FA6  486D BB40                pea.l      [A5 - 0x44C0]
00000FAA  122D BB1E                move.b     D1, [A5 - 0x44E2]
00000FAE  4881                     ext.w      D1
00000FB0  5341                     subq.w     D1, 1
00000FB2  3F01                     move.w     -[A7], D1
00000FB4  4EBA 0130                jsr        [PC + 0x130 /* 000010E6 */]
00000FB8  486D BB54                pea.l      [A5 - 0x44AC]
00000FBC  486D BB2C                pea.l      [A5 - 0x44D4]
00000FC0  102D BB1E                move.b     D0, [A5 - 0x44E2]
00000FC4  4880                     ext.w      D0
00000FC6  3F00                     move.w     -[A7], D0
00000FC8  4EBA 011C                jsr        [PC + 0x11C /* 000010E6 */]
00000FCC  486D BB5E                pea.l      [A5 - 0x44A2]
00000FD0  486D BB36                pea.l      [A5 - 0x44CA]
00000FD4  102D BB1E                move.b     D0, [A5 - 0x44E2]
00000FD8  4880                     ext.w      D0
00000FDA  5240                     addq.w     D0, 1
00000FDC  3F00                     move.w     -[A7], D0
00000FDE  4EBA 0106                jsr        [PC + 0x106 /* 000010E6 */]
00000FE2  7E09                     moveq.l    D7, 0x09
00000FE4  4FEF 0020                lea.l      A7, [A7 + 0x20]
00000FE8  6052                     bra        +0x54 /* 0000103C */
label00000FEA:
00000FEA  204D                     movea.l    A0, A5
00000FEC  D0C7                     add.w      A0, D7
00000FEE  1C28 BB22                move.b     D6, [A0 - 0x44DE]
00000FF2  204D                     movea.l    A0, A5
00000FF4  D0C7                     add.w      A0, D7
00000FF6  1A28 BB2C                move.b     D5, [A0 - 0x44D4]
00000FFA  4A05                     tst.b      D5
00000FFC  6D3C                     blt        +0x3E /* 0000103A */
00000FFE  BA06                     cmp.b      D5, D6
00001000  6638                     bne        +0x3A /* 0000103A */
00001002  204D                     movea.l    A0, A5
00001004  D0C7                     add.w      A0, D7
00001006  1C28 BB4A                move.b     D6, [A0 - 0x44B6]
0000100A  204D                     movea.l    A0, A5
0000100C  D0C7                     add.w      A0, D7
0000100E  1A28 BB54                move.b     D5, [A0 - 0x44AC]
00001012  1806                     move.b     D4, D6
00001014  4884                     ext.w      D4
00001016  700F                     moveq.l    D0, 0x0F
00001018  C044                     and.w      D0, D4
0000101A  660A                     bne        +0xC /* 00001026 */
0000101C  700F                     moveq.l    D0, 0x0F
0000101E  C005                     and.b      D0, D5
00001020  6704                     beq        +0x6 /* 00001026 */
00001022  1B47 BB1C                move.b     [A5 - 0x44E4], D7
label00001026:
00001026  3004                     move.w     D0, D4
00001028  0240 00F0                andi.w     D0, 0xF0
0000102C  660C                     bne        +0xE /* 0000103A */
0000102E  1005                     move.b     D0, D5
00001030  0200 00F0                andi.b     D0, 0xF0
00001034  6704                     beq        +0x6 /* 0000103A */
00001036  1B47 BB1D                move.b     [A5 - 0x44E3], D7
label0000103A:
0000103A  5347                     subq.w     D7, 1
label0000103C:
0000103C  4A47                     tst.w      D7
0000103E  6CAA                     bge        -0x54 /* 00000FEA */
label00001040:
00001040  4CDF 00F0                movem.l    D4,D5,D6,D7, [A7]+
00001044  4E75                     rts
fn00001046:
00001046  48E7 0718                movem.l    -[A7], D5,D6,D7,A3,A4
0000104A  1E2D BB1F                move.b     D7, [A5 - 0x44E1]
0000104E  1C2D BB1E                move.b     D6, [A5 - 0x44E2]
00001052  BE06                     cmp.b      D7, D6
00001054  671C                     beq        +0x1E /* 00001072 */
00001056  1006                     move.b     D0, D6
00001058  4880                     ext.w      D0
0000105A  1207                     move.b     D1, D7
0000105C  4881                     ext.w      D1
0000105E  5640                     addq.w     D0, 3
00001060  B240                     cmp.w      D1, D0
00001062  670E                     beq        +0x10 /* 00001072 */
00001064  1006                     move.b     D0, D6
00001066  4880                     ext.w      D0
00001068  1207                     move.b     D1, D7
0000106A  4881                     ext.w      D1
0000106C  5740                     subq.w     D0, 3
0000106E  B240                     cmp.w      D1, D0
00001070  660A                     bne        +0xC /* 0000107C */
label00001072:
00001072  49ED BB2C                lea.l      A4, [A5 - 0x44D4]
00001076  47ED BB54                lea.l      A3, [A5 - 0x44AC]
0000107A  602A                     bra        +0x2C /* 000010A6 */
label0000107C:
0000107C  1A06                     move.b     D5, D6
0000107E  4885                     ext.w      D5
00001080  1C07                     move.b     D6, D7
00001082  4886                     ext.w      D6
00001084  7001                     moveq.l    D0, 0x01
00001086  D045                     add.w      D0, D5
00001088  BC40                     cmp.w      D6, D0
0000108A  6708                     beq        +0xA /* 00001094 */
0000108C  70FE                     moveq.l    D0, 0xFFFFFFFE
0000108E  D045                     add.w      D0, D5
00001090  BC40                     cmp.w      D6, D0
00001092  660A                     bne        +0xC /* 0000109E */
label00001094:
00001094  49ED BB40                lea.l      A4, [A5 - 0x44C0]
00001098  47ED BB68                lea.l      A3, [A5 - 0x4498]
0000109C  6008                     bra        +0xA /* 000010A6 */
label0000109E:
0000109E  49ED BB36                lea.l      A4, [A5 - 0x44CA]
000010A2  47ED BB5E                lea.l      A3, [A5 - 0x44A2]
label000010A6:
000010A6  7E00                     moveq.l    D7, 0x00
000010A8  6030                     bra        +0x32 /* 000010DA */
label000010AA:
000010AA  204D                     movea.l    A0, A5
000010AC  D0C7                     add.w      A0, D7
000010AE  1174 7000 BB22           move.b     [A0 - 0x44DE], [A4 + D7.w]
000010B4  204D                     movea.l    A0, A5
000010B6  D0C7                     add.w      A0, D7
000010B8  1173 7000 BB4A           move.b     [A0 - 0x44B6], [A3 + D7.w]
000010BE  204D                     movea.l    A0, A5
000010C0  D0C7                     add.w      A0, D7
000010C2  70FF                     moveq.l    D0, 0xFFFFFFFF
000010C4  1140 BB36                move.b     [A0 - 0x44CA], D0
000010C8  204D                     movea.l    A0, A5
000010CA  D0C7                     add.w      A0, D7
000010CC  1140 BB40                move.b     [A0 - 0x44C0], D0
000010D0  204D                     movea.l    A0, A5
000010D2  D0C7                     add.w      A0, D7
000010D4  1140 BB2C                move.b     [A0 - 0x44D4], D0
000010D8  5247                     addq.w     D7, 1
label000010DA:
000010DA  0C47 000A                cmpi.w     D7, 0xA /* '\n' */
000010DE  6DCA                     blt        -0x34 /* 000010AA */
000010E0  4CDF 18E0                movem.l    D5,D6,D7,A3,A4, [A7]+
000010E4  4E75                     rts
fn000010E6:
000010E6  4E56 0000                link       A6, 0
000010EA  48E7 1F18                movem.l    -[A7], D3,D4,D5,D6,D7,A3,A4
000010EE  362E 0008                move.w     D3, [A6 + 0x8]
000010F2  266E 000A                movea.l    A3, [A6 + 0xA]
000010F6  286E 000E                movea.l    A4, [A6 + 0xE]
000010FA  1E2D B94F                move.b     D7, [A5 - 0x46B1]
000010FE  4887                     ext.w      D7
00001100  1C2D BB20                move.b     D6, [A5 - 0x44E0]
00001104  4886                     ext.w      D6
00001106  204D                     movea.l    A0, A5
00001108  D0C6                     add.w      A0, D6
0000110A  7000                     moveq.l    D0, 0x00
0000110C  1028 B87D                move.b     D0, [A0 - 0x4783]
00001110  5E40                     addq.w     D0, 7
00001112  3B40 BABE                move.w     [A5 - 0x4542], D0
00001116  3A06                     move.w     D5, D6
00001118  604C                     bra        +0x4E /* 00001166 */
label0000111A:
0000111A  7C00                     moveq.l    D6, 0x00
0000111C  3F03                     move.w     -[A7], D3
0000111E  3F05                     move.w     -[A7], D5
00001120  3F07                     move.w     -[A7], D7
00001122  4EBA 0054                jsr        [PC + 0x54 /* 00001178 */]
00001126  3800                     move.w     D4, D0
00001128  B86D BADA                cmp.w      D4, [A5 - 0x4526]
0000112C  5C8F                     addq.l     A7, 6
0000112E  6C04                     bge        +0x6 /* 00001134 */
00001130  0006 000F                ori.b      D6, 0xF
label00001134:
00001134  3F03                     move.w     -[A7], D3
00001136  3F05                     move.w     -[A7], D5
00001138  3F07                     move.w     -[A7], D7
0000113A  4EBA 0084                jsr        [PC + 0x84 /* 000011C0 */]
0000113E  3800                     move.w     D4, D0
00001140  B86D BAD8                cmp.w      D4, [A5 - 0x4528]
00001144  5C8F                     addq.l     A7, 6
00001146  6F04                     ble        +0x6 /* 0000114C */
00001148  0006 00F0                ori.b      D6, 0xF0
label0000114C:
0000114C  302D BAEC                move.w     D0, [A5 - 0x4514]
00001150  1986 0000                move.b     [A4 + D0.w], D6
00001154  302D BAEC                move.w     D0, [A5 - 0x4514]
00001158  17AD BAEB 0000           move.b     [A3 + D0.w], [A5 - 0x4515]
0000115E  066D 000E BABE           addi.w     [A5 - 0x4542], 0xE
00001164  5245                     addq.w     D5, 1
label00001166:
00001166  102D BB21                move.b     D0, [A5 - 0x44DF]
0000116A  4880                     ext.w      D0
0000116C  B045                     cmp.w      D0, D5
0000116E  6CAA                     bge        -0x54 /* 0000111A */
00001170  4CDF 18F8                movem.l    D3,D4,D5,D6,D7,A3,A4, [A7]+
00001174  4E5E                     unlink     A6
00001176  4E75                     rts
fn00001178:
00001178  4E56 0000                link       A6, 0
0000117C  48E7 0F00                movem.l    -[A7], D4,D5,D6,D7
00001180  382E 0008                move.w     D4, [A6 + 0x8]
00001184  3A2E 000A                move.w     D5, [A6 + 0xA]
00001188  3C2E 000C                move.w     D6, [A6 + 0xC]
0000118C  3F06                     move.w     -[A7], D6
0000118E  3F05                     move.w     -[A7], D5
00001190  3F04                     move.w     -[A7], D4
00001192  4EAD 0262                jsr        [A5 + 0x262 /* export_72, CODE:3 @ 00003F6E */]
00001196  1E80                     move.b     [A7], D0
00001198  4EAD 0342                jsr        [A5 + 0x342 /* export_100, CODE:3 @ 00004F90 */]
0000119C  3E00                     move.w     D7, D0
0000119E  4A47                     tst.w      D7
000011A0  5C8F                     addq.l     A7, 6
000011A2  6710                     beq        +0x12 /* 000011B4 */
000011A4  204D                     movea.l    A0, A5
000011A6  D0C7                     add.w      A0, D7
000011A8  1028 B88C                move.b     D0, [A0 - 0x4774]
000011AC  4880                     ext.w      D0
000011AE  D06D BABE                add.w      D0, [A5 - 0x4542]
000011B2  6004                     bra        +0x6 /* 000011B8 */
label000011B4:
000011B4  303C 00FF                move.w     D0, 0xFF
label000011B8:
000011B8  4CDF 00F0                movem.l    D4,D5,D6,D7, [A7]+
000011BC  4E5E                     unlink     A6
000011BE  4E75                     rts
fn000011C0:
000011C0  4E56 0000                link       A6, 0
000011C4  48E7 0F00                movem.l    -[A7], D4,D5,D6,D7
000011C8  382E 0008                move.w     D4, [A6 + 0x8]
000011CC  3A2E 000A                move.w     D5, [A6 + 0xA]
000011D0  3C2E 000C                move.w     D6, [A6 + 0xC]
000011D4  3F06                     move.w     -[A7], D6
000011D6  3F05                     move.w     -[A7], D5
000011D8  3F04                     move.w     -[A7], D4
000011DA  4EAD 0262                jsr        [A5 + 0x262 /* export_72, CODE:3 @ 00003F6E */]
000011DE  1E80                     move.b     [A7], D0
000011E0  4EAD 0342                jsr        [A5 + 0x342 /* export_100, CODE:3 @ 00004F90 */]
000011E4  3E00                     move.w     D7, D0
000011E6  4A47                     tst.w      D7
000011E8  5C8F                     addq.l     A7, 6
000011EA  6716                     beq        +0x18 /* 00001202 */
000011EC  204D                     movea.l    A0, A5
000011EE  D0C7                     add.w      A0, D7
000011F0  1028 B892                move.b     D0, [A0 - 0x476E]
000011F4  4880                     ext.w      D0
000011F6  720D                     moveq.l    D1, 0x0D
000011F8  D26D BABE                add.w      D1, [A5 - 0x4542]
000011FC  9240                     sub.w      D1, D0
000011FE  3001                     move.w     D0, D1
00001200  6002                     bra        +0x4 /* 00001204 */
label00001202:
00001202  7000                     moveq.l    D0, 0x00
label00001204:
00001204  4CDF 00F0                movem.l    D4,D5,D6,D7, [A7]+
00001208  4E5E                     unlink     A6
0000120A  4E75                     rts
export_121:
0000120C  0C2D 0002 B94C           cmpi.b     [A5 - 0x46B4], 0x2
00001212  672E                     beq        +0x30 /* 00001242 */
00001214  0C2D 0006 B94C           cmpi.b     [A5 - 0x46B4], 0x6
0000121A  6726                     beq        +0x28 /* 00001242 */
0000121C  0C2D 0087 B946           cmpi.b     [A5 - 0x46BA], 0x87
00001222  6508                     bcs        +0xA /* 0000122C */
00001224  0C2D 0095 B946           cmpi.b     [A5 - 0x46BA], 0x95
0000122A  6516                     bcs        +0x18 /* 00001242 */
label0000122C:
0000122C  4A2D BB1C                tst.b      [A5 - 0x44E4]
00001230  6D06                     blt        +0x8 /* 00001238 */
00001232  4EBA 0010                jsr        [PC + 0x10 /* 00001244 */]
00001236  600A                     bra        +0xC /* 00001242 */
label00001238:
00001238  4A2D BB1D                tst.b      [A5 - 0x44E3]
0000123C  6D04                     blt        +0x6 /* 00001242 */
0000123E  4EBA 0048                jsr        [PC + 0x48 /* 00001288 */]
label00001242:
00001242  4E75                     rts
fn00001244:
00001244  0C2D 0002 B952           cmpi.b     [A5 - 0x46AE], 0x2
0000124A  6706                     beq        +0x8 /* 00001252 */
0000124C  4A2D B949                tst.b      [A5 - 0x46B7]
00001250  6634                     bne        +0x36 /* 00001286 */
label00001252:
00001252  102D BB1C                move.b     D0, [A5 - 0x44E4]
00001256  4880                     ext.w      D0
00001258  3F00                     move.w     -[A7], D0
0000125A  4EBA 006E                jsr        [PC + 0x6E /* 000012CA */]
0000125E  4A40                     tst.w      D0
00001260  548F                     addq.l     A7, 2
00001262  6722                     beq        +0x24 /* 00001286 */
00001264  3F3C FFFF                move.w     -[A7], 0xFFFF
00001268  3F2D BAEE                move.w     -[A7], [A5 - 0x4512]
0000126C  3F2D BAEC                move.w     -[A7], [A5 - 0x4514]
00001270  3F2D BAEA                move.w     -[A7], [A5 - 0x4516]
00001274  4EBA FF02                jsr        [PC - 0xFE /* 00001178 */]
00001278  906D BADA                sub.w      D0, [A5 - 0x4526]
0000127C  588F                     addq.l     A7, 4
0000127E  3E80                     move.w     [A7], D0
00001280  4EBA 0176                jsr        [PC + 0x176 /* 000013F8 */]
00001284  588F                     addq.l     A7, 4
label00001286:
00001286  4E75                     rts
fn00001288:
00001288  0C2D 0002 B952           cmpi.b     [A5 - 0x46AE], 0x2
0000128E  6706                     beq        +0x8 /* 00001296 */
00001290  4A2D B949                tst.b      [A5 - 0x46B7]
00001294  6C32                     bge        +0x34 /* 000012C8 */
label00001296:
00001296  102D BB1D                move.b     D0, [A5 - 0x44E3]
0000129A  4880                     ext.w      D0
0000129C  3F00                     move.w     -[A7], D0
0000129E  4EBA 002A                jsr        [PC + 0x2A /* 000012CA */]
000012A2  4A40                     tst.w      D0
000012A4  548F                     addq.l     A7, 2
000012A6  6720                     beq        +0x22 /* 000012C8 */
000012A8  4267                     clr.w      -[A7]
000012AA  3F2D BAEE                move.w     -[A7], [A5 - 0x4512]
000012AE  3F2D BAEC                move.w     -[A7], [A5 - 0x4514]
000012B2  3F2D BAEA                move.w     -[A7], [A5 - 0x4516]
000012B6  4EBA FF08                jsr        [PC - 0xF8 /* 000011C0 */]
000012BA  906D BAD8                sub.w      D0, [A5 - 0x4528]
000012BE  588F                     addq.l     A7, 4
000012C0  3E80                     move.w     [A7], D0
000012C2  4EBA 0134                jsr        [PC + 0x134 /* 000013F8 */]
000012C6  588F                     addq.l     A7, 4
label000012C8:
000012C8  4E75                     rts
fn000012CA:
000012CA  4E56 0000                link       A6, 0
000012CE  48E7 0300                movem.l    -[A7], D6,D7
000012D2  3C2E 0008                move.w     D6, [A6 + 0x8]
000012D6  1E2D B94B                move.b     D7, [A5 - 0x46B5]
000012DA  4887                     ext.w      D7
000012DC  4A47                     tst.w      D7
000012DE  6C02                     bge        +0x4 /* 000012E2 */
000012E0  5647                     addq.w     D7, 3
label000012E2:
000012E2  0C47 0003                cmpi.w     D7, 0x3
000012E6  6D02                     blt        +0x4 /* 000012EA */
000012E8  5747                     subq.w     D7, 3
label000012EA:
000012EA  3F07                     move.w     -[A7], D7
000012EC  3F06                     move.w     -[A7], D6
000012EE  204D                     movea.l    A0, A5
000012F0  D0C6                     add.w      A0, D6
000012F2  1028 BB2C                move.b     D0, [A0 - 0x44D4]
000012F6  4880                     ext.w      D0
000012F8  3F00                     move.w     -[A7], D0
000012FA  4EAD 0262                jsr        [A5 + 0x262 /* export_72, CODE:3 @ 00003F6E */]
000012FE  4EBA 000C                jsr        [PC + 0xC /* 0000130C */]
00001302  4CEE 00C0 FFF8           movem.l    D6,D7, [A6 - 0x8]
00001308  4E5E                     unlink     A6
0000130A  4E75                     rts
fn0000130C:
0000130C  0C2D 000A BAE8           cmpi.b     [A5 - 0x4518], 0xA /* '\n' */
00001312  6606                     bne        +0x8 /* 0000131A */
00001314  7000                     moveq.l    D0, 0x00
00001316  6000 0090                bra        +0x92 /* 000013A8 */
label0000131A:
0000131A  0C2D 0004 BAE8           cmpi.b     [A5 - 0x4518], 0x4
00001320  660C                     bne        +0xE /* 0000132E */
00001322  4EBA 02F4                jsr        [PC + 0x2F4 /* 00001618 */]
00001326  4A00                     tst.b      D0
00001328  6660                     bne        +0x62 /* 0000138A */
0000132A  7000                     moveq.l    D0, 0x00
0000132C  607A                     bra        +0x7C /* 000013A8 */
label0000132E:
0000132E  0C2D 0012 BAE8           cmpi.b     [A5 - 0x4518], 0x12
00001334  6616                     bne        +0x18 /* 0000134C */
00001336  7000                     moveq.l    D0, 0x00
00001338  102D BAE9                move.b     D0, [A5 - 0x4517]
0000133C  D0AD BD86                add.l      D0, [A5 - 0x427A]
00001340  2040                     movea.l    A0, D0
00001342  0C10 0002                cmpi.b     [A0], 0x2
00001346  6742                     beq        +0x44 /* 0000138A */
00001348  7000                     moveq.l    D0, 0x00
0000134A  605C                     bra        +0x5E /* 000013A8 */
label0000134C:
0000134C  0C2D 000D BAE8           cmpi.b     [A5 - 0x4518], 0xD /* '\r' */
00001352  6636                     bne        +0x38 /* 0000138A */
00001354  4A2D B951                tst.b      [A5 - 0x46AF]
00001358  6630                     bne        +0x32 /* 0000138A */
0000135A  0C2D 0027 B946           cmpi.b     [A5 - 0x46BA], 0x27 /* '\'' */
00001360  6528                     bcs        +0x2A /* 0000138A */
00001362  0C2D 002C B946           cmpi.b     [A5 - 0x46BA], 0x2C /* ',' */
00001368  6420                     bcc        +0x22 /* 0000138A */
0000136A  4A2D B949                tst.b      [A5 - 0x46B7]
0000136E  6C1A                     bge        +0x1C /* 0000138A */
00001370  7000                     moveq.l    D0, 0x00
00001372  102D BAE9                move.b     D0, [A5 - 0x4517]
00001376  D0AD BD86                add.l      D0, [A5 - 0x427A]
0000137A  2040                     movea.l    A0, D0
0000137C  10BC 0056                move.b     [A0], 0x56 /* 'V' */
00001380  3B7C FFFF BA1E           move.w     [A5 - 0x45E2], 0xFFFF
00001386  7000                     moveq.l    D0, 0x00
00001388  601E                     bra        +0x20 /* 000013A8 */
label0000138A:
0000138A  302D BAEC                move.w     D0, [A5 - 0x4514]
0000138E  204D                     movea.l    A0, A5
00001390  D0C0                     add.w      A0, D0
00001392  7200                     moveq.l    D1, 0x00
00001394  1228 B87D                move.b     D1, [A0 - 0x4783]
00001398  3F01                     move.w     -[A7], D1
0000139A  4EBA 000E                jsr        [PC + 0xE /* 000013AA */]
0000139E  5E40                     addq.w     D0, 7
000013A0  3B40 BABE                move.w     [A5 - 0x4542], D0
000013A4  7001                     moveq.l    D0, 0x01
000013A6  548F                     addq.l     A7, 2
label000013A8:
000013A8  4E75                     rts
fn000013AA:
000013AA  4E56 0000                link       A6, 0
000013AE  2F07                     move.l     -[A7], D7
000013B0  3E2E 0008                move.w     D7, [A6 + 0x8]
000013B4  302D BAEA                move.w     D0, [A5 - 0x4516]
000013B8  B06D BA6A                cmp.w      D0, [A5 - 0x4596]
000013BC  6732                     beq        +0x34 /* 000013F0 */
000013BE  302D BAEA                move.w     D0, [A5 - 0x4516]
000013C2  B06D BA6C                cmp.w      D0, [A5 - 0x4594]
000013C6  670A                     beq        +0xC /* 000013D2 */
000013C8  302D BAEA                move.w     D0, [A5 - 0x4516]
000013CC  B06D BA78                cmp.w      D0, [A5 - 0x4588]
000013D0  6606                     bne        +0x8 /* 000013D8 */
label000013D2:
000013D2  0647 FF74                addi.w     D7, 0xFF74
000013D6  6018                     bra        +0x1A /* 000013F0 */
label000013D8:
000013D8  302D BAEA                move.w     D0, [A5 - 0x4516]
000013DC  B06D BA6E                cmp.w      D0, [A5 - 0x4592]
000013E0  670A                     beq        +0xC /* 000013EC */
000013E2  302D BAEA                move.w     D0, [A5 - 0x4516]
000013E6  B06D BA7A                cmp.w      D0, [A5 - 0x4586]
000013EA  6604                     bne        +0x6 /* 000013F0 */
label000013EC:
000013EC  0647 008C                addi.w     D7, 0x8C
label000013F0:
000013F0  3007                     move.w     D0, D7
000013F2  2E1F                     move.l     D7, [A7]+
000013F4  4E5E                     unlink     A6
000013F6  4E75                     rts
fn000013F8:
000013F8  4E56 0000                link       A6, 0
000013FC  4A2D B953                tst.b      [A5 - 0x46AD]
00001400  6C00 00A6                bge        +0xA8 /* 000014A8 */
00001404  0C2D 00B1 B946           cmpi.b     [A5 - 0x46BA], 0xB1
0000140A  6700 009C                beq        +0x9E /* 000014A8 */
0000140E  102E 0009                move.b     D0, [A6 + 0x9]
00001412  D12D B947                add.b      [A5 - 0x46B9], D0
00001416  4A6E 000A                tst.w      [A6 + 0xA]
0000141A  6C20                     bge        +0x22 /* 0000143C */
0000141C  0C2D 0014 BAE8           cmpi.b     [A5 - 0x4518], 0x14
00001422  6662                     bne        +0x64 /* 00001486 */
00001424  3F2D BAEE                move.w     -[A7], [A5 - 0x4512]
00001428  536D BAEC                subq.w     [A5 - 0x4514], 1
0000142C  3F2D BAEC                move.w     -[A7], [A5 - 0x4514]
00001430  3F2D BAEA                move.w     -[A7], [A5 - 0x4516]
00001434  4EAD 0262                jsr        [A5 + 0x262 /* export_72, CODE:3 @ 00003F6E */]
00001438  5C8F                     addq.l     A7, 6
0000143A  604A                     bra        +0x4C /* 00001486 */
label0000143C:
0000143C  0C2D 000C BAE8           cmpi.b     [A5 - 0x4518], 0xC
00001442  6710                     beq        +0x12 /* 00001454 */
00001444  0C2D 0007 BAE8           cmpi.b     [A5 - 0x4518], 0x7
0000144A  6708                     beq        +0xA /* 00001454 */
0000144C  0C2D 0014 BAE8           cmpi.b     [A5 - 0x4518], 0x14
00001452  6632                     bne        +0x34 /* 00001486 */
label00001454:
00001454  526D BAEC                addq.w     [A5 - 0x4514], 1
00001458  4A6D BAEA                tst.w      [A5 - 0x4516]
0000145C  6616                     bne        +0x18 /* 00001474 */
0000145E  0C6D 000A BAEC           cmpi.w     [A5 - 0x4514], 0xA /* '\n' */
00001464  660E                     bne        +0x10 /* 00001474 */
00001466  102D B94F                move.b     D0, [A5 - 0x46B1]
0000146A  4880                     ext.w      D0
0000146C  3B40 BAEA                move.w     [A5 - 0x4516], D0
00001470  426D BAEC                clr.w      [A5 - 0x4514]
label00001474:
00001474  3F2D BAEE                move.w     -[A7], [A5 - 0x4512]
00001478  3F2D BAEC                move.w     -[A7], [A5 - 0x4514]
0000147C  3F2D BAEA                move.w     -[A7], [A5 - 0x4516]
00001480  4EAD 0262                jsr        [A5 + 0x262 /* export_72, CODE:3 @ 00003F6E */]
00001484  5C8F                     addq.l     A7, 6
label00001486:
00001486  7000                     moveq.l    D0, 0x00
00001488  102D BAE8                move.b     D0, [A5 - 0x4518]
0000148C  3F00                     move.w     -[A7], D0
0000148E  4EAD 02E2                jsr        [A5 + 0x2E2 /* export_88, CODE:3 @ 00004650 */]
00001492  4A00                     tst.b      D0
00001494  548F                     addq.l     A7, 2
00001496  670C                     beq        +0xE /* 000014A4 */
00001498  3F2E 000A                move.w     -[A7], [A6 + 0xA]
0000149C  4EBA 0046                jsr        [PC + 0x46 /* 000014E4 */]
000014A0  548F                     addq.l     A7, 2
000014A2  6004                     bra        +0x6 /* 000014A8 */
label000014A4:
000014A4  4EBA 0006                jsr        [PC + 0x6 /* 000014AC */]
label000014A8:
000014A8  4E5E                     unlink     A6
000014AA  4E75                     rts
fn000014AC:
000014AC  2F07                     move.l     -[A7], D7
000014AE  1E2D B94C                move.b     D7, [A5 - 0x46B4]
000014B2  4887                     ext.w      D7
000014B4  3F3C FFFC                move.w     -[A7], 0xFFFC
000014B8  4EAD 029A                jsr        [A5 + 0x29A /* export_79, CODE:3 @ 000041FE */]
000014BC  1B40 B947                move.b     [A5 - 0x46B9], D0
000014C0  0C47 0004                cmpi.w     D7, 0x4
000014C4  548F                     addq.l     A7, 2
000014C6  6606                     bne        +0x8 /* 000014CE */
000014C8  422D B94D                clr.b      [A5 - 0x46B3]
000014CC  600E                     bra        +0x10 /* 000014DC */
label000014CE:
000014CE  3F3C 002D                move.w     -[A7], 0x2D /* '-' */
000014D2  4EBA EB2C                jsr        [PC - 0x14D4 /* 00000000 */]
000014D6  4EAD 02A2                jsr        [A5 + 0x2A2 /* export_80, CODE:3 @ 00004246 */]
000014DA  548F                     addq.l     A7, 2
label000014DC:
000014DC  4EBA 00EE                jsr        [PC + 0xEE /* 000015CC */]
000014E0  2E1F                     move.l     D7, [A7]+
000014E2  4E75                     rts
fn000014E4:
000014E4  4E56 0000                link       A6, 0
000014E8  48E7 0300                movem.l    -[A7], D6,D7
000014EC  3C2E 0008                move.w     D6, [A6 + 0x8]
000014F0  7E00                     moveq.l    D7, 0x00
000014F2  1E2D B948                move.b     D7, [A5 - 0x46B8]
000014F6  0C2D 0002 B952           cmpi.b     [A5 - 0x46AE], 0x2
000014FC  6720                     beq        +0x22 /* 0000151E */
000014FE  102D B94B                move.b     D0, [A5 - 0x46B5]
00001502  4880                     ext.w      D0
00001504  204D                     movea.l    A0, A5
00001506  D0C0                     add.w      A0, D0
00001508  D0C0                     add.w      A0, D0
0000150A  3028 B670                move.w     D0, [A0 - 0x4990]
0000150E  9047                     sub.w      D0, D7
00001510  0C40 000F                cmpi.w     D0, 0xF
00001514  6D08                     blt        +0xA /* 0000151E */
00001516  4EBA FF94                jsr        [PC - 0x6C /* 000014AC */]
0000151A  6000 00A6                bra        +0xA8 /* 000015C2 */
label0000151E:
0000151E  102D B94B                move.b     D0, [A5 - 0x46B5]
00001522  4880                     ext.w      D0
00001524  204D                     movea.l    A0, A5
00001526  D0C0                     add.w      A0, D0
00001528  D0C0                     add.w      A0, D0
0000152A  1B68 B671 B948           move.b     [A5 - 0x46B8], [A0 - 0x498F]
00001530  0C2D 0016 B94E           cmpi.b     [A5 - 0x46B2], 0x16
00001536  6D10                     blt        +0x12 /* 00001548 */
00001538  3F3C FFFB                move.w     -[A7], 0xFFFB
0000153C  4EAD 029A                jsr        [A5 + 0x29A /* export_79, CODE:3 @ 000041FE */]
00001540  1B40 B947                move.b     [A5 - 0x46B9], D0
00001544  548F                     addq.l     A7, 2
00001546  607A                     bra        +0x7C /* 000015C2 */
label00001548:
00001548  422D B94E                clr.b      [A5 - 0x46B2]
0000154C  4A2D B953                tst.b      [A5 - 0x46AD]
00001550  6770                     beq        +0x72 /* 000015C2 */
00001552  7E00                     moveq.l    D7, 0x00
00001554  1E2D B946                move.b     D7, [A5 - 0x46BA]
00001558  0C2D 0002 B952           cmpi.b     [A5 - 0x46AE], 0x2
0000155E  6628                     bne        +0x2A /* 00001588 */
00001560  102D B949                move.b     D0, [A5 - 0x46B7]
00001564  4880                     ext.w      D0
00001566  B046                     cmp.w      D0, D6
00001568  661A                     bne        +0x1C /* 00001584 */
0000156A  3F3C 0041                move.w     -[A7], 0x41 /* 'A' */
0000156E  4EBA EA90                jsr        [PC - 0x1570 /* 00000000 */]
00001572  4EAD 02A2                jsr        [A5 + 0x2A2 /* export_80, CODE:3 @ 00004246 */]
00001576  3EBC 0001                move.w     [A7], 0x1
0000157A  4EAD 029A                jsr        [A5 + 0x29A /* export_79, CODE:3 @ 000041FE */]
0000157E  1B40 B947                move.b     [A5 - 0x46B9], D0
00001582  603E                     bra        +0x40 /* 000015C2 */
label00001584:
00001584  7E40                     moveq.l    D7, 0x40
00001586  602A                     bra        +0x2C /* 000015B2 */
label00001588:
00001588  0C47 0018                cmpi.w     D7, 0x18
0000158C  671E                     beq        +0x20 /* 000015AC */
0000158E  0C47 0019                cmpi.w     D7, 0x19
00001592  6718                     beq        +0x1A /* 000015AC */
00001594  0C47 0028                cmpi.w     D7, 0x28 /* '(' */
00001598  6D06                     blt        +0x8 /* 000015A0 */
0000159A  0C47 002B                cmpi.w     D7, 0x2B /* '+' */
0000159E  6D0C                     blt        +0xE /* 000015AC */
label000015A0:
000015A0  0C47 0066                cmpi.w     D7, 0x66 /* 'f' */
000015A4  6D0A                     blt        +0xC /* 000015B0 */
000015A6  0C47 006B                cmpi.w     D7, 0x6B /* 'k' */
000015AA  6C04                     bge        +0x6 /* 000015B0 */
label000015AC:
000015AC  7E2E                     moveq.l    D7, 0x2E
000015AE  6002                     bra        +0x4 /* 000015B2 */
label000015B0:
000015B0  7E2F                     moveq.l    D7, 0x2F
label000015B2:
000015B2  3F07                     move.w     -[A7], D7
000015B4  4EBA EA4A                jsr        [PC - 0x15B6 /* 00000000 */]
000015B8  4EAD 02A2                jsr        [A5 + 0x2A2 /* export_80, CODE:3 @ 00004246 */]
000015BC  4EBA 000E                jsr        [PC + 0xE /* 000015CC */]
000015C0  548F                     addq.l     A7, 2
label000015C2:
000015C2  4CEE 00C0 FFF8           movem.l    D6,D7, [A6 - 0x8]
000015C8  4E5E                     unlink     A6
000015CA  4E75                     rts
fn000015CC:
000015CC  3B7C 0001 BA56           move.w     [A5 - 0x45AA], 0x1
000015D2  3F3C 0008                move.w     -[A7], 0x8
000015D6  4EAD 03CA                jsr        [A5 + 0x3CA /* export_117, CODE:3 @ 000007B0 */]
000015DA  548F                     addq.l     A7, 2
000015DC  4E75                     rts
export_122:
000015DE  2F07                     move.l     -[A7], D7
000015E0  7E00                     moveq.l    D7, 0x00
000015E2  6024                     bra        +0x26 /* 00001608 */
label000015E4:
000015E4  204D                     movea.l    A0, A5
000015E6  D0C7                     add.w      A0, D7
000015E8  70FF                     moveq.l    D0, 0xFFFFFFFF
000015EA  1140 BB40                move.b     [A0 - 0x44C0], D0
000015EE  204D                     movea.l    A0, A5
000015F0  D0C7                     add.w      A0, D7
000015F2  1140 BB36                move.b     [A0 - 0x44CA], D0
000015F6  204D                     movea.l    A0, A5
000015F8  D0C7                     add.w      A0, D7
000015FA  1140 BB2C                move.b     [A0 - 0x44D4], D0
000015FE  204D                     movea.l    A0, A5
00001600  D0C7                     add.w      A0, D7
00001602  1140 BB22                move.b     [A0 - 0x44DE], D0
00001606  5247                     addq.w     D7, 1
label00001608:
00001608  0C47 000A                cmpi.w     D7, 0xA /* '\n' */
0000160C  6DD6                     blt        -0x28 /* 000015E4 */
0000160E  1B7C 00FF BB1F           move.b     [A5 - 0x44E1], 0xFF
00001614  2E1F                     move.l     D7, [A7]+
00001616  4E75                     rts
fn00001618:
00001618  7000                     moveq.l    D0, 0x00
0000161A  102D BAE9                move.b     D0, [A5 - 0x4517]
0000161E  D0AD BD86                add.l      D0, [A5 - 0x427A]
00001622  2040                     movea.l    A0, D0
00001624  7000                     moveq.l    D0, 0x00
00001626  1010                     move.b     D0, [A0]
00001628  81FC 0004                divs.w     D0, 0x4
0000162C  5E40                     addq.w     D0, 7
0000162E  B06D BAD4                cmp.w      D0, [A5 - 0x452C]
00001632  5DC0                     slt        D0
00001634  4400                     neg.b      D0
00001636  4E75                     rts
fn00001638:
00001638  48E7 0300                movem.l    -[A7], D6,D7
0000163C  4EAD 0282                jsr        [A5 + 0x282 /* export_76, CODE:3 @ 000040D2 */]
00001640  4EBA 4238                jsr        [PC + 0x4238 /* 0000587A */]
00001644  4EAD 02FA                jsr        [A5 + 0x2FA /* export_91, CODE:3 @ 0000477E */]
00001648  4EAD 02F2                jsr        [A5 + 0x2F2 /* export_90, CODE:3 @ 0000475E */]
0000164C  1E00                     move.b     D7, D0
0000164E  1F07                     move.b     -[A7], D7
00001650  4EAD 0342                jsr        [A5 + 0x342 /* export_100, CODE:3 @ 00004F90 */]
00001654  4A40                     tst.w      D0
00001656  548F                     addq.l     A7, 2
00001658  671A                     beq        +0x1C /* 00001674 */
0000165A  102D B94A                move.b     D0, [A5 - 0x46B6]
0000165E  4880                     ext.w      D0
00001660  3B40 BAEC                move.w     [A5 - 0x4514], D0
00001664  1F07                     move.b     -[A7], D7
00001666  4EBA 038C                jsr        [PC + 0x38C /* 000019F4 */]
0000166A  3C00                     move.w     D6, D0
0000166C  4A46                     tst.w      D6
0000166E  548F                     addq.l     A7, 2
00001670  6C00 0086                bge        +0x88 /* 000016F8 */
label00001674:
00001674  4EAD 0312                jsr        [A5 + 0x312 /* export_94, CODE:3 @ 00004B1A */]
00001678  1E00                     move.b     D7, D0
0000167A  0C07 000C                cmpi.b     D7, 0xC
0000167E  6606                     bne        +0x8 /* 00001686 */
00001680  4A2D B949                tst.b      [A5 - 0x46B7]
00001684  6C66                     bge        +0x68 /* 000016EC */
label00001686:
00001686  1F07                     move.b     -[A7], D7
00001688  4EAD 0342                jsr        [A5 + 0x342 /* export_100, CODE:3 @ 00004F90 */]
0000168C  4A40                     tst.w      D0
0000168E  548F                     addq.l     A7, 2
00001690  6718                     beq        +0x1A /* 000016AA */
00001692  102D BAE4                move.b     D0, [A5 - 0x451C]
00001696  4880                     ext.w      D0
00001698  3B40 BAEC                move.w     [A5 - 0x4514], D0
0000169C  1F07                     move.b     -[A7], D7
0000169E  4EBA 0354                jsr        [PC + 0x354 /* 000019F4 */]
000016A2  3C00                     move.w     D6, D0
000016A4  4A46                     tst.w      D6
000016A6  548F                     addq.l     A7, 2
000016A8  6C4E                     bge        +0x50 /* 000016F8 */
label000016AA:
000016AA  0C07 000B                cmpi.b     D7, 0xB
000016AE  673C                     beq        +0x3E /* 000016EC */
000016B0  0C07 0006                cmpi.b     D7, 0x6
000016B4  6726                     beq        +0x28 /* 000016DC */
000016B6  0C07 0016                cmpi.b     D7, 0x16
000016BA  6720                     beq        +0x22 /* 000016DC */
000016BC  0C07 000A                cmpi.b     D7, 0xA /* '\n' */
000016C0  671A                     beq        +0x1C /* 000016DC */
000016C2  7000                     moveq.l    D0, 0x00
000016C4  1007                     move.b     D0, D7
000016C6  3F00                     move.w     -[A7], D0
000016C8  4EAD 02E2                jsr        [A5 + 0x2E2 /* export_88, CODE:3 @ 00004650 */]
000016CC  4A00                     tst.b      D0
000016CE  548F                     addq.l     A7, 2
000016D0  671A                     beq        +0x1C /* 000016EC */
label000016D2:
000016D2  1B7C 0002 BAE7           move.b     [A5 - 0x4519], 0x2
000016D8  7C0B                     moveq.l    D6, 0x0B
000016DA  6028                     bra        +0x2A /* 00001704 */
label000016DC:
000016DC  4EAD 0322                jsr        [A5 + 0x322 /* export_96, CODE:3 @ 00004BBA */]
000016E0  3C00                     move.w     D6, D0
000016E2  4A46                     tst.w      D6
000016E4  67EC                     beq        -0x12 /* 000016D2 */
000016E6  422D BAE7                clr.b      [A5 - 0x4519]
000016EA  6018                     bra        +0x1A /* 00001704 */
label000016EC:
000016EC  4EAD 0322                jsr        [A5 + 0x322 /* export_96, CODE:3 @ 00004BBA */]
000016F0  3C00                     move.w     D6, D0
000016F2  422D BAE7                clr.b      [A5 - 0x4519]
000016F6  600C                     bra        +0xE /* 00001704 */
label000016F8:
000016F8  0C46 000E                cmpi.w     D6, 0xE
000016FC  6CD4                     bge        -0x2A /* 000016D2 */
000016FE  1B7C 0001 BAE7           move.b     [A5 - 0x4519], 0x1
label00001704:
00001704  1B47 BAE8                move.b     [A5 - 0x4518], D7
00001708  3006                     move.w     D0, D6
0000170A  4CDF 00C0                movem.l    D6,D7, [A7]+
0000170E  4E75                     rts
export_123:
00001710  48E7 0F00                movem.l    -[A7], D4,D5,D6,D7
00001714  1E2D B94B                move.b     D7, [A5 - 0x46B5]
00001718  4887                     ext.w      D7
0000171A  7C00                     moveq.l    D6, 0x00
0000171C  604C                     bra        +0x4E /* 0000176A */
label0000171E:
0000171E  204D                     movea.l    A0, A5
00001720  D0C6                     add.w      A0, D6
00001722  0C28 00FF BB54           cmpi.b     [A0 - 0x44AC], 0xFF
00001728  663E                     bne        +0x40 /* 00001768 */
0000172A  3F07                     move.w     -[A7], D7
0000172C  3F06                     move.w     -[A7], D6
0000172E  204D                     movea.l    A0, A5
00001730  D0C6                     add.w      A0, D6
00001732  1028 BB2C                move.b     D0, [A0 - 0x44D4]
00001736  4880                     ext.w      D0
00001738  3F00                     move.w     -[A7], D0
0000173A  4EAD 0262                jsr        [A5 + 0x262 /* export_72, CODE:3 @ 00003F6E */]
0000173E  7A00                     moveq.l    D5, 0x00
00001740  1A00                     move.b     D5, D0
00001742  7000                     moveq.l    D0, 0x00
00001744  102D BAE9                move.b     D0, [A5 - 0x4517]
00001748  D0AD BD86                add.l      D0, [A5 - 0x427A]
0000174C  2040                     movea.l    A0, D0
0000174E  7800                     moveq.l    D4, 0x00
00001750  1810                     move.b     D4, [A0]
00001752  0244 007F                andi.w     D4, 0x7F
00001756  0C45 0012                cmpi.w     D5, 0x12
0000175A  5C8F                     addq.l     A7, 6
0000175C  660A                     bne        +0xC /* 00001768 */
0000175E  0C44 0002                cmpi.w     D4, 0x2
00001762  6604                     bne        +0x6 /* 00001768 */
00001764  4EBA 0010                jsr        [PC + 0x10 /* 00001776 */]
label00001768:
00001768  5246                     addq.w     D6, 1
label0000176A:
0000176A  0C46 000A                cmpi.w     D6, 0xA /* '\n' */
0000176E  6DAE                     blt        -0x50 /* 0000171E */
00001770  4CDF 00F0                movem.l    D4,D5,D6,D7, [A7]+
00001774  4E75                     rts
fn00001776:
00001776  7000                     moveq.l    D0, 0x00
00001778  102D BAE9                move.b     D0, [A5 - 0x4517]
0000177C  D0AD BD86                add.l      D0, [A5 - 0x427A]
00001780  2040                     movea.l    A0, D0
00001782  0010 0080                ori.b      [A0], 0x80
00001786  0C2D 00B2 B946           cmpi.b     [A5 - 0x46BA], 0xB2
0000178C  6774                     beq        +0x76 /* 00001802 */
0000178E  102D B94F                move.b     D0, [A5 - 0x46B1]
00001792  4880                     ext.w      D0
00001794  B06D BAEA                cmp.w      D0, [A5 - 0x4516]
00001798  6668                     bne        +0x6A /* 00001802 */
0000179A  302D BAEC                move.w     D0, [A5 - 0x4514]
0000179E  204D                     movea.l    A0, A5
000017A0  D0C0                     add.w      A0, D0
000017A2  7207                     moveq.l    D1, 0x07
000017A4  D228 B87D                add.b      D1, [A0 - 0x4783]
000017A8  5301                     subq.b     D1, 1
000017AA  1B41 B947                move.b     [A5 - 0x46B9], D1
000017AE  4A2D B951                tst.b      [A5 - 0x46AF]
000017B2  6610                     bne        +0x12 /* 000017C4 */
000017B4  3F3C 0006                move.w     -[A7], 0x6
000017B8  4EAD 029A                jsr        [A5 + 0x29A /* export_79, CODE:3 @ 000041FE */]
000017BC  1B40 B947                move.b     [A5 - 0x46B9], D0
000017C0  548F                     addq.l     A7, 2
000017C2  600E                     bra        +0x10 /* 000017D2 */
label000017C4:
000017C4  3F3C 0007                move.w     -[A7], 0x7
000017C8  4EAD 029A                jsr        [A5 + 0x29A /* export_79, CODE:3 @ 000041FE */]
000017CC  1B40 B947                move.b     [A5 - 0x46B9], D0
000017D0  548F                     addq.l     A7, 2
label000017D2:
000017D2  102D B94B                move.b     D0, [A5 - 0x46B5]
000017D6  4880                     ext.w      D0
000017D8  204D                     movea.l    A0, A5
000017DA  D0C0                     add.w      A0, D0
000017DC  D0C0                     add.w      A0, D0
000017DE  1B68 B671 B948           move.b     [A5 - 0x46B8], [A0 - 0x498F]
000017E4  3F3C 0064                move.w     -[A7], 0x64 /* 'd' */
000017E8  4EAD 02EA                jsr        [A5 + 0x2EA /* export_89, CODE:3 @ 00004702 */]
000017EC  3EBC 002E                move.w     [A7], 0x2E /* '.' */
000017F0  4EAD 03CA                jsr        [A5 + 0x3CA /* export_117, CODE:3 @ 000007B0 */]
000017F4  3EBC 0036                move.w     [A7], 0x36 /* '6' */
000017F8  4EBA E806                jsr        [PC - 0x17FA /* 00000000 */]
000017FC  4EAD 02A2                jsr        [A5 + 0x2A2 /* export_80, CODE:3 @ 00004246 */]
00001800  548F                     addq.l     A7, 2
label00001802:
00001802  4E75                     rts
export_124:
00001804  2F07                     move.l     -[A7], D7
00001806  7E00                     moveq.l    D7, 0x00
00001808  1E2D B946                move.b     D7, [A5 - 0x46BA]
0000180C  0C2D 0007 B94C           cmpi.b     [A5 - 0x46B4], 0x7
00001812  6712                     beq        +0x14 /* 00001826 */
00001814  0C47 000F                cmpi.w     D7, 0xF
00001818  670C                     beq        +0xE /* 00001826 */
0000181A  0C47 006C                cmpi.w     D7, 0x6C /* 'l' */
0000181E  6D70                     blt        +0x72 /* 00001890 */
00001820  0C47 006F                cmpi.w     D7, 0x6F /* 'o' */
00001824  6C6A                     bge        +0x6C /* 00001890 */
label00001826:
00001826  4EAD 02F2                jsr        [A5 + 0x2F2 /* export_90, CODE:3 @ 0000475E */]
0000182A  3E2D BAEC                move.w     D7, [A5 - 0x4514]
0000182E  0C2D 0004 BAE8           cmpi.b     [A5 - 0x4518], 0x4
00001834  671E                     beq        +0x20 /* 00001854 */
00001836  3F2D BAEE                move.w     -[A7], [A5 - 0x4512]
0000183A  536D BAEC                subq.w     [A5 - 0x4514], 1
0000183E  3F2D BAEC                move.w     -[A7], [A5 - 0x4514]
00001842  3F2D BAEA                move.w     -[A7], [A5 - 0x4516]
00001846  4EAD 0262                jsr        [A5 + 0x262 /* export_72, CODE:3 @ 00003F6E */]
0000184A  7200                     moveq.l    D1, 0x00
0000184C  1200                     move.b     D1, D0
0000184E  5941                     subq.w     D1, 4
00001850  5C8F                     addq.l     A7, 6
00001852  663C                     bne        +0x3E /* 00001890 */
label00001854:
00001854  302D BAEC                move.w     D0, [A5 - 0x4514]
00001858  204D                     movea.l    A0, A5
0000185A  D0C0                     add.w      A0, D0
0000185C  7200                     moveq.l    D1, 0x00
0000185E  1228 BB54                move.b     D1, [A0 - 0x44AC]
00001862  204D                     movea.l    A0, A5
00001864  D0C0                     add.w      A0, D0
00001866  7400                     moveq.l    D2, 0x00
00001868  1428 BB4A                move.b     D2, [A0 - 0x44B6]
0000186C  C242                     and.w      D1, D2
0000186E  0C41 00FF                cmpi.w     D1, 0xFF
00001872  661C                     bne        +0x1E /* 00001890 */
00001874  4EBA FDA2                jsr        [PC - 0x25E /* 00001618 */]
00001878  4A00                     tst.b      D0
0000187A  6714                     beq        +0x16 /* 00001890 */
0000187C  4EBA FD4E                jsr        [PC - 0x2B2 /* 000015CC */]
00001880  BE6D BAEC                cmp.w      D7, [A5 - 0x4514]
00001884  6E06                     bgt        +0x8 /* 0000188C */
00001886  5B2D B947                subq.b     [A5 - 0x46B9], 5
0000188A  6004                     bra        +0x6 /* 00001890 */
label0000188C:
0000188C  5A2D B947                addq.b     [A5 - 0x46B9], 5
label00001890:
00001890  2E1F                     move.l     D7, [A7]+
00001892  4E75                     rts
export_125:
00001894  2F07                     move.l     -[A7], D7
00001896  4A6D BA82                tst.w      [A5 - 0x457E]
0000189A  6600 00BE                bne        +0xC0 /* 0000195A */
0000189E  0C2D 0001 B94C           cmpi.b     [A5 - 0x46B4], 0x1
000018A4  6600 00B4                bne        +0xB6 /* 0000195A */
000018A8  4A2D B953                tst.b      [A5 - 0x46AD]
000018AC  6C00 00AC                bge        +0xAE /* 0000195A */
000018B0  0C2D 0002 B952           cmpi.b     [A5 - 0x46AE], 0x2
000018B6  6D00 00A2                blt        +0xA4 /* 0000195A */
000018BA  4EAD 02F2                jsr        [A5 + 0x2F2 /* export_90, CODE:3 @ 0000475E */]
000018BE  7200                     moveq.l    D1, 0x00
000018C0  1200                     move.b     D1, D0
000018C2  0C41 0014                cmpi.w     D1, 0x14
000018C6  674C                     beq        +0x4E /* 00001914 */
000018C8  0C2D 0007 BAE8           cmpi.b     [A5 - 0x4518], 0x7
000018CE  6744                     beq        +0x46 /* 00001914 */
000018D0  0C2D 0004 BAE8           cmpi.b     [A5 - 0x4518], 0x4
000018D6  6608                     bne        +0xA /* 000018E0 */
000018D8  4EBA FD3E                jsr        [PC - 0x2C2 /* 00001618 */]
000018DC  4A00                     tst.b      D0
000018DE  6634                     bne        +0x36 /* 00001914 */
label000018E0:
000018E0  4A2D B949                tst.b      [A5 - 0x46B7]
000018E4  6D74                     blt        +0x76 /* 0000195A */
000018E6  3F2D BAEE                move.w     -[A7], [A5 - 0x4512]
000018EA  536D BAEC                subq.w     [A5 - 0x4514], 1
000018EE  3F2D BAEC                move.w     -[A7], [A5 - 0x4514]
000018F2  3F2D BAEA                move.w     -[A7], [A5 - 0x4516]
000018F6  4EAD 0262                jsr        [A5 + 0x262 /* export_72, CODE:3 @ 00003F6E */]
000018FA  7200                     moveq.l    D1, 0x00
000018FC  1200                     move.b     D1, D0
000018FE  5F41                     subq.w     D1, 7
00001900  5C8F                     addq.l     A7, 6
00001902  6710                     beq        +0x12 /* 00001914 */
00001904  0C2D 0004 BAE8           cmpi.b     [A5 - 0x4518], 0x4
0000190A  664E                     bne        +0x50 /* 0000195A */
0000190C  4EBA FD0A                jsr        [PC - 0x2F6 /* 00001618 */]
00001910  4A00                     tst.b      D0
00001912  6746                     beq        +0x48 /* 0000195A */
label00001914:
00001914  4EBA 3F64                jsr        [PC + 0x3F64 /* 0000587A */]
00001918  4EAD 02FA                jsr        [A5 + 0x2FA /* export_91, CODE:3 @ 0000477E */]
0000191C  4EBA F9EE                jsr        [PC - 0x612 /* 0000130C */]
00001920  4A40                     tst.w      D0
00001922  6736                     beq        +0x38 /* 0000195A */
00001924  1F2D BAE8                move.b     -[A7], [A5 - 0x4518]
00001928  4EBA 0148                jsr        [PC + 0x148 /* 00001A72 */]
0000192C  3E00                     move.w     D7, D0
0000192E  4A47                     tst.w      D7
00001930  548F                     addq.l     A7, 2
00001932  6C26                     bge        +0x28 /* 0000195A */
00001934  0C47 FFF3                cmpi.w     D7, 0xFFF3
00001938  6F20                     ble        +0x22 /* 0000195A */
0000193A  3007                     move.w     D0, D7
0000193C  4440                     neg.w      D0
0000193E  3F00                     move.w     -[A7], D0
00001940  4EAD 029A                jsr        [A5 + 0x29A /* export_79, CODE:3 @ 000041FE */]
00001944  1B40 B947                move.b     [A5 - 0x46B9], D0
00001948  3EBC 0041                move.w     [A7], 0x41 /* 'A' */
0000194C  4EBA E6B2                jsr        [PC - 0x194E /* 00000000 */]
00001950  4EAD 02A2                jsr        [A5 + 0x2A2 /* export_80, CODE:3 @ 00004246 */]
00001954  4EAD 027A                jsr        [A5 + 0x27A /* export_75, CODE:3 @ 000040C8 */]
00001958  548F                     addq.l     A7, 2
label0000195A:
0000195A  2E1F                     move.l     D7, [A7]+
0000195C  4E75                     rts
export_126:
0000195E  4EAD 02F2                jsr        [A5 + 0x2F2 /* export_90, CODE:3 @ 0000475E */]
00001962  4EBA 0022                jsr        [PC + 0x22 /* 00001986 */]
00001966  4A00                     tst.b      D0
00001968  661A                     bne        +0x1C /* 00001984 */
0000196A  526D BAEC                addq.w     [A5 - 0x4514], 1
0000196E  3F2D BAEE                move.w     -[A7], [A5 - 0x4512]
00001972  3F2D BAEC                move.w     -[A7], [A5 - 0x4514]
00001976  3F2D BAEA                move.w     -[A7], [A5 - 0x4516]
0000197A  4EAD 0262                jsr        [A5 + 0x262 /* export_72, CODE:3 @ 00003F6E */]
0000197E  4EBA 0006                jsr        [PC + 0x6 /* 00001986 */]
00001982  5C8F                     addq.l     A7, 6
label00001984:
00001984  4E75                     rts
fn00001986:
00001986  0C2D 0012 BAE8           cmpi.b     [A5 - 0x4518], 0x12
0000198C  6662                     bne        +0x64 /* 000019F0 */
0000198E  7000                     moveq.l    D0, 0x00
00001990  102D BAE9                move.b     D0, [A5 - 0x4517]
00001994  D0AD BD86                add.l      D0, [A5 - 0x427A]
00001998  2040                     movea.l    A0, D0
0000199A  7000                     moveq.l    D0, 0x00
0000199C  1010                     move.b     D0, [A0]
0000199E  0240 007F                andi.w     D0, 0x7F
000019A2  5540                     subq.w     D0, 2
000019A4  664A                     bne        +0x4C /* 000019F0 */
000019A6  302D BAEC                move.w     D0, [A5 - 0x4514]
000019AA  204D                     movea.l    A0, A5
000019AC  D0C0                     add.w      A0, D0
000019AE  7200                     moveq.l    D1, 0x00
000019B0  1228 B87D                move.b     D1, [A0 - 0x4783]
000019B4  5E41                     addq.w     D1, 7
000019B6  3B41 BABE                move.w     [A5 - 0x4542], D1
000019BA  3F2D BAEE                move.w     -[A7], [A5 - 0x4512]
000019BE  3F00                     move.w     -[A7], D0
000019C0  3F2D BAEA                move.w     -[A7], [A5 - 0x4516]
000019C4  4EBA F7B2                jsr        [PC - 0x84E /* 00001178 */]
000019C8  B06D BADA                cmp.w      D0, [A5 - 0x4526]
000019CC  5C8F                     addq.l     A7, 6
000019CE  6C20                     bge        +0x22 /* 000019F0 */
000019D0  3F2D BAEE                move.w     -[A7], [A5 - 0x4512]
000019D4  3F2D BAEC                move.w     -[A7], [A5 - 0x4514]
000019D8  3F2D BAEA                move.w     -[A7], [A5 - 0x4516]
000019DC  4EBA F7E2                jsr        [PC - 0x81E /* 000011C0 */]
000019E0  B06D BAD8                cmp.w      D0, [A5 - 0x4528]
000019E4  5C8F                     addq.l     A7, 6
000019E6  6F08                     ble        +0xA /* 000019F0 */
000019E8  4EBA FD8C                jsr        [PC - 0x274 /* 00001776 */]
000019EC  7001                     moveq.l    D0, 0x01
000019EE  6002                     bra        +0x4 /* 000019F2 */
label000019F0:
000019F0  7000                     moveq.l    D0, 0x00
label000019F2:
000019F2  4E75                     rts
fn000019F4:
000019F4  4E56 0000                link       A6, 0
000019F8  48E7 0300                movem.l    -[A7], D6,D7
000019FC  1E2E 0008                move.b     D7, [A6 + 0x8]
00001A00  0C07 0004                cmpi.b     D7, 0x4
00001A04  660C                     bne        +0xE /* 00001A12 */
00001A06  4EBA FC10                jsr        [PC - 0x3F0 /* 00001618 */]
00001A0A  4A00                     tst.b      D0
00001A0C  6604                     bne        +0x6 /* 00001A12 */
00001A0E  70FF                     moveq.l    D0, 0xFFFFFFFF
00001A10  6058                     bra        +0x5A /* 00001A6A */
label00001A12:
00001A12  302D BAEC                move.w     D0, [A5 - 0x4514]
00001A16  204D                     movea.l    A0, A5
00001A18  D0C0                     add.w      A0, D0
00001A1A  7200                     moveq.l    D1, 0x00
00001A1C  1228 B87D                move.b     D1, [A0 - 0x4783]
00001A20  5E41                     addq.w     D1, 7
00001A22  3B41 BABE                move.w     [A5 - 0x4542], D1
00001A26  1F07                     move.b     -[A7], D7
00001A28  4EAD 0342                jsr        [A5 + 0x342 /* export_100, CODE:3 @ 00004F90 */]
00001A2C  3C00                     move.w     D6, D0
00001A2E  4A46                     tst.w      D6
00001A30  548F                     addq.l     A7, 2
00001A32  6604                     bne        +0x6 /* 00001A38 */
00001A34  70FF                     moveq.l    D0, 0xFFFFFFFF
00001A36  6032                     bra        +0x34 /* 00001A6A */
label00001A38:
00001A38  4A2D B949                tst.b      [A5 - 0x46B7]
00001A3C  6C1A                     bge        +0x1C /* 00001A58 */
00001A3E  204D                     movea.l    A0, A5
00001A40  D0C6                     add.w      A0, D6
00001A42  1028 B892                move.b     D0, [A0 - 0x476E]
00001A46  4880                     ext.w      D0
00001A48  720D                     moveq.l    D1, 0x0D
00001A4A  D26D BABE                add.w      D1, [A5 - 0x4542]
00001A4E  9240                     sub.w      D1, D0
00001A50  302D BAD8                move.w     D0, [A5 - 0x4528]
00001A54  9041                     sub.w      D0, D1
00001A56  6012                     bra        +0x14 /* 00001A6A */
label00001A58:
00001A58  204D                     movea.l    A0, A5
00001A5A  D0C6                     add.w      A0, D6
00001A5C  1028 B88C                move.b     D0, [A0 - 0x4774]
00001A60  4880                     ext.w      D0
00001A62  D06D BABE                add.w      D0, [A5 - 0x4542]
00001A66  906D BADA                sub.w      D0, [A5 - 0x4526]
label00001A6A:
00001A6A  4CDF 00C0                movem.l    D6,D7, [A7]+
00001A6E  4E5E                     unlink     A6
00001A70  4E75                     rts
fn00001A72:
00001A72  4E56 0000                link       A6, 0
00001A76  48E7 0700                movem.l    -[A7], D5,D6,D7
00001A7A  1A2E 0008                move.b     D5, [A6 + 0x8]
00001A7E  1F05                     move.b     -[A7], D5
00001A80  4EAD 0342                jsr        [A5 + 0x342 /* export_100, CODE:3 @ 00004F90 */]
00001A84  3C00                     move.w     D6, D0
00001A86  4A46                     tst.w      D6
00001A88  548F                     addq.l     A7, 2
00001A8A  6604                     bne        +0x6 /* 00001A90 */
00001A8C  7063                     moveq.l    D0, 0x63
00001A8E  6032                     bra        +0x34 /* 00001AC2 */
label00001A90:
00001A90  4A2D B949                tst.b      [A5 - 0x46B7]
00001A94  6D1A                     blt        +0x1C /* 00001AB0 */
00001A96  204D                     movea.l    A0, A5
00001A98  D0C6                     add.w      A0, D6
00001A9A  1028 B89E                move.b     D0, [A0 - 0x4762]
00001A9E  4880                     ext.w      D0
00001AA0  720D                     moveq.l    D1, 0x0D
00001AA2  D26D BABE                add.w      D1, [A5 - 0x4542]
00001AA6  9240                     sub.w      D1, D0
00001AA8  302D BAD8                move.w     D0, [A5 - 0x4528]
00001AAC  9041                     sub.w      D0, D1
00001AAE  6012                     bra        +0x14 /* 00001AC2 */
label00001AB0:
00001AB0  204D                     movea.l    A0, A5
00001AB2  D0C6                     add.w      A0, D6
00001AB4  1028 B898                move.b     D0, [A0 - 0x4768]
00001AB8  4880                     ext.w      D0
00001ABA  D06D BABE                add.w      D0, [A5 - 0x4542]
00001ABE  906D BADA                sub.w      D0, [A5 - 0x4526]
label00001AC2:
00001AC2  4CDF 00E0                movem.l    D5,D6,D7, [A7]+
00001AC6  4E5E                     unlink     A6
00001AC8  4E75                     rts
export_127:
00001ACA  48E7 0308                movem.l    -[A7], D6,D7,A4
00001ACE  7E00                     moveq.l    D7, 0x00
00001AD0  7C00                     moveq.l    D6, 0x00
00001AD2  49ED BC6E                lea.l      A4, [A5 - 0x4392]
00001AD6  601A                     bra        +0x1C /* 00001AF2 */
label00001AD8:
00001AD8  2B54 BCE6                move.l     [A5 - 0x431A], [A4]
00001ADC  4EBA 0052                jsr        [PC + 0x52 /* 00001B30 */]
00001AE0  196D BCE8 0002           move.b     [A4 + 0x2], [A5 - 0x4318]
00001AE6  4A2C 0002                tst.b      [A4 + 0x2]
00001AEA  6C02                     bge        +0x4 /* 00001AEE */
00001AEC  7E01                     moveq.l    D7, 0x01
label00001AEE:
00001AEE  5246                     addq.w     D6, 1
00001AF0  588C                     addq.l     A4, 4
label00001AF2:
00001AF2  BC6D BC6C                cmp.w      D6, [A5 - 0x4394]
00001AF6  6DE0                     blt        -0x1E /* 00001AD8 */
00001AF8  4A47                     tst.w      D7
00001AFA  672E                     beq        +0x30 /* 00001B2A */
00001AFC  7E00                     moveq.l    D7, 0x00
00001AFE  7C00                     moveq.l    D6, 0x00
00001B00  49ED BC6E                lea.l      A4, [A5 - 0x4392]
00001B04  601A                     bra        +0x1C /* 00001B20 */
label00001B06:
00001B06  4A2C 0002                tst.b      [A4 + 0x2]
00001B0A  6D10                     blt        +0x12 /* 00001B1C */
00001B0C  204D                     movea.l    A0, A5
00001B0E  2007                     move.l     D0, D7
00001B10  48C0                     ext.l      D0
00001B12  E588                     lsl        D0, 2
00001B14  D1C0                     add.l      A0, D0
00001B16  2154 BC6E                move.l     [A0 - 0x4392], [A4]
00001B1A  5247                     addq.w     D7, 1
label00001B1C:
00001B1C  5246                     addq.w     D6, 1
00001B1E  588C                     addq.l     A4, 4
label00001B20:
00001B20  BC6D BC6C                cmp.w      D6, [A5 - 0x4394]
00001B24  6DE0                     blt        -0x1E /* 00001B06 */
00001B26  3B47 BC6C                move.w     [A5 - 0x4394], D7
label00001B2A:
00001B2A  4CDF 10C0                movem.l    D6,D7,A4, [A7]+
00001B2E  4E75                     rts
fn00001B30:
00001B30  7000                     moveq.l    D0, 0x00
00001B32  102D BCE7                move.b     D0, [A5 - 0x4319]
00001B36  3F00                     move.w     -[A7], D0
00001B38  4EBA 3664                jsr        [PC + 0x3664 /* 0000519E */]
00001B3C  7000                     moveq.l    D0, 0x00
00001B3E  102D BCE6                move.b     D0, [A5 - 0x431A]
00001B42  3E80                     move.w     [A7], D0
00001B44  4EBA 107A                jsr        [PC + 0x107A /* 00002BC0 */]
00001B48  7000                     moveq.l    D0, 0x00
00001B4A  102D BA94                move.b     D0, [A5 - 0x456C]
00001B4E  0C40 001E                cmpi.w     D0, 0x1E
00001B52  548F                     addq.l     A7, 2
00001B54  6248                     bhi        +0x4A /* 00001B9E */
00001B56  43FA 005E                lea.l      A1, [PC + 0x5E /* 00001BB6, value 0xFFC4FFE8 */]
00001B5A  D040                     add.w      D0, D0
00001B5C  D2F1 0000                add.w      A1, [A1 + D0.w]
00001B60  4ED1                     jmp        [A1]
00001B62  4EBA 02C6                jsr        [PC + 0x2C6 /* 00001E2A */]
00001B66  603C                     bra        +0x3E /* 00001BA4 */
00001B68  4EBA 0D3A                jsr        [PC + 0xD3A /* 000028A4 */]
00001B6C  6036                     bra        +0x38 /* 00001BA4 */
00001B6E  4EBA 03D0                jsr        [PC + 0x3D0 /* 00001F40 */]
00001B72  6030                     bra        +0x32 /* 00001BA4 */
00001B74  4EBA 0D9C                jsr        [PC + 0xD9C /* 00002912 */]
00001B78  602A                     bra        +0x2C /* 00001BA4 */
00001B7A  4EBA 0D8A                jsr        [PC + 0xD8A /* 00002906 */]
00001B7E  6024                     bra        +0x26 /* 00001BA4 */
00001B80  4EBA 032C                jsr        [PC + 0x32C /* 00001EAE */]
00001B84  601E                     bra        +0x20 /* 00001BA4 */
00001B86  4EBA 040C                jsr        [PC + 0x40C /* 00001F94 */]
00001B8A  6018                     bra        +0x1A /* 00001BA4 */
00001B8C  4EBA 051A                jsr        [PC + 0x51A /* 000020A8 */]
00001B90  6012                     bra        +0x14 /* 00001BA4 */
00001B92  4EBA 02B6                jsr        [PC + 0x2B6 /* 00001E4A */]
00001B96  600C                     bra        +0xE /* 00001BA4 */
00001B98  4EBA 02EA                jsr        [PC + 0x2EA /* 00001E84 */]
00001B9C  6006                     bra        +0x8 /* 00001BA4 */
label00001B9E:
00001B9E  1B7C 00FF BCE8           move.b     [A5 - 0x4318], 0xFF
label00001BA4:
00001BA4  7000                     moveq.l    D0, 0x00
00001BA6  102D BCE6                move.b     D0, [A5 - 0x431A]
00001BAA  D0AD BD86                add.l      D0, [A5 - 0x427A]
00001BAE  2040                     movea.l    A0, D0
00001BB0  10AD BA95                move.b     [A0], [A5 - 0x456B]
00001BB4  4E75                     rts
00001BB6  FFC4                     .invalid   <<F/7/7>>
00001BB8  FFE8                     .invalid   <<F/7/7>>
00001BBA  FFB8                     .invalid   <<F/6/7>>
00001BBC  FFE8                     .invalid   <<F/7/7>>
00001BBE  FFD0                     .invalid   <<F/7/7>>
00001BC0  FFE8                     .invalid   <<F/7/7>>
00001BC2  FFB2                     .invalid   <<F/6/7>>
00001BC4  FFE8                     .invalid   <<F/7/7>>
00001BC6  FFE8                     .invalid   <<F/7/7>>
00001BC8  FFE8                     .invalid   <<F/7/7>>
00001BCA  FFDC                     .invalid   <<F/7/7>>
00001BCC  FFBE                     .invalid   <<F/6/7>>
00001BCE  FFE8                     .invalid   <<F/7/7>>
00001BD0  FFE8                     .invalid   <<F/7/7>>
00001BD2  FFE8                     .invalid   <<F/7/7>>
00001BD4  FFB2                     .invalid   <<F/6/7>>
00001BD6  FFD6                     .invalid   <<F/7/7>>
00001BD8  FFE8                     .invalid   <<F/7/7>>
00001BDA  FFCA                     .invalid   <<F/7/7>>
00001BDC  FFAC                     .invalid   <<F/6/7>>
00001BDE  FFE8                     .invalid   <<F/7/7>>
00001BE0  FFE8                     .invalid   <<F/7/7>>
00001BE2  FFE2                     .invalid   <<F/7/7>>
00001BE4  FFE8                     .invalid   <<F/7/7>>
00001BE6  FFE8                     .invalid   <<F/7/7>>
00001BE8  FFE8                     .invalid   <<F/7/7>>
00001BEA  FFE8                     .invalid   <<F/7/7>>
00001BEC  FFE8                     .invalid   <<F/7/7>>
00001BEE  FFE8                     .invalid   <<F/7/7>>
00001BF0  FFE8                     .invalid   <<F/7/7>>
00001BF2  FFAC                     .invalid   <<F/6/7>>
fn00001BF4:
00001BF4  7000                     moveq.l    D0, 0x00
00001BF6  102D BCE7                move.b     D0, [A5 - 0x4319]
00001BFA  B06D BA6A                cmp.w      D0, [A5 - 0x4596]
00001BFE  670A                     beq        +0xC /* 00001C0A */
00001C00  1B7C 00FF BCE8           move.b     [A5 - 0x4318], 0xFF
00001C06  7000                     moveq.l    D0, 0x00
00001C08  6002                     bra        +0x4 /* 00001C0C */
label00001C0A:
00001C0A  7001                     moveq.l    D0, 0x01
label00001C0C:
00001C0C  4E75                     rts
fn00001C0E:
00001C0E  4EBA 00F4                jsr        [PC + 0xF4 /* 00001D04 */]
00001C12  3F00                     move.w     -[A7], D0
00001C14  4EBA 05E6                jsr        [PC + 0x5E6 /* 000021FC */]
00001C18  548F                     addq.l     A7, 2
00001C1A  4E75                     rts
fn00001C1C:
00001C1C  4EBA 00A6                jsr        [PC + 0xA6 /* 00001CC4 */]
00001C20  3F00                     move.w     -[A7], D0
00001C22  4EBA 05D8                jsr        [PC + 0x5D8 /* 000021FC */]
00001C26  548F                     addq.l     A7, 2
00001C28  4E75                     rts
fn00001C2A:
00001C2A  3B7C 003F BD6C           move.w     [A5 - 0x4294], 0x3F /* '?' */
00001C30  4EBA 0092                jsr        [PC + 0x92 /* 00001CC4 */]
00001C34  3F00                     move.w     -[A7], D0
00001C36  4EBA 0706                jsr        [PC + 0x706 /* 0000233E */]
00001C3A  548F                     addq.l     A7, 2
00001C3C  4E75                     rts
fn00001C3E:
00001C3E  3B7C 0021 BD6C           move.w     [A5 - 0x4294], 0x21 /* '!' */
00001C44  4EBA 007E                jsr        [PC + 0x7E /* 00001CC4 */]
00001C48  3F00                     move.w     -[A7], D0
00001C4A  4EBA 06F2                jsr        [PC + 0x6F2 /* 0000233E */]
00001C4E  4EBA 00B4                jsr        [PC + 0xB4 /* 00001D04 */]
00001C52  3E80                     move.w     [A7], D0
00001C54  4EBA 06E8                jsr        [PC + 0x6E8 /* 0000233E */]
00001C58  548F                     addq.l     A7, 2
00001C5A  4E75                     rts
export_128:
fn00001C5C:
00001C5C  3B7C 0013 BD6C           move.w     [A5 - 0x4294], 0x13
00001C62  4EBA 0060                jsr        [PC + 0x60 /* 00001CC4 */]
00001C66  3F00                     move.w     -[A7], D0
00001C68  4EBA 06D4                jsr        [PC + 0x6D4 /* 0000233E */]
00001C6C  4EBA 0096                jsr        [PC + 0x96 /* 00001D04 */]
00001C70  3E80                     move.w     [A7], D0
00001C72  4EBA 06CA                jsr        [PC + 0x6CA /* 0000233E */]
00001C76  548F                     addq.l     A7, 2
00001C78  4E75                     rts
fn00001C7A:
00001C7A  3B7C 0020 BD6C           move.w     [A5 - 0x4294], 0x20 /* ' ' */
00001C80  4EBA 0042                jsr        [PC + 0x42 /* 00001CC4 */]
00001C84  3F00                     move.w     -[A7], D0
00001C86  4EBA 06B6                jsr        [PC + 0x6B6 /* 0000233E */]
00001C8A  4EBA 0078                jsr        [PC + 0x78 /* 00001D04 */]
00001C8E  3E80                     move.w     [A7], D0
00001C90  4EBA 06AC                jsr        [PC + 0x6AC /* 0000233E */]
00001C94  548F                     addq.l     A7, 2
00001C96  4E75                     rts
fn00001C98:
00001C98  2F07                     move.l     -[A7], D7
00001C9A  4EBA 0068                jsr        [PC + 0x68 /* 00001D04 */]
00001C9E  3E00                     move.w     D7, D0
00001CA0  3F07                     move.w     -[A7], D7
00001CA2  4EBA 0558                jsr        [PC + 0x558 /* 000021FC */]
00001CA6  3E87                     move.w     [A7], D7
00001CA8  4EBA 062A                jsr        [PC + 0x62A /* 000022D4 */]
00001CAC  4EBA 00E2                jsr        [PC + 0xE2 /* 00001D90 */]
00001CB0  3E00                     move.w     D7, D0
00001CB2  3E87                     move.w     [A7], D7
00001CB4  4EBA 0546                jsr        [PC + 0x546 /* 000021FC */]
00001CB8  3E87                     move.w     [A7], D7
00001CBA  4EBA 05E2                jsr        [PC + 0x5E2 /* 0000229E */]
00001CBE  548F                     addq.l     A7, 2
00001CC0  2E1F                     move.l     D7, [A7]+
00001CC2  4E75                     rts
fn00001CC4:
00001CC4  48E7 0300                movem.l    -[A7], D6,D7
00001CC8  7E00                     moveq.l    D7, 0x00
00001CCA  1E2D BCE6                move.b     D7, [A5 - 0x431A]
00001CCE  7C00                     moveq.l    D6, 0x00
00001CD0  1C2D BCE7                move.b     D6, [A5 - 0x4319]
00001CD4  BC6D BA70                cmp.w      D6, [A5 - 0x4590]
00001CD8  661A                     bne        +0x1C /* 00001CF4 */
00001CDA  0C47 0014                cmpi.w     D7, 0x14
00001CDE  6D10                     blt        +0x12 /* 00001CF0 */
00001CE0  0C47 001E                cmpi.w     D7, 0x1E
00001CE4  6C0A                     bge        +0xC /* 00001CF0 */
00001CE6  701E                     moveq.l    D0, 0x1E
00001CE8  9047                     sub.w      D0, D7
00001CEA  7EF5                     moveq.l    D7, 0xFFFFFFF5
00001CEC  DE40                     add.w      D7, D0
00001CEE  600C                     bra        +0xE /* 00001CFC */
label00001CF0:
00001CF0  7E1E                     moveq.l    D7, 0x1E
00001CF2  6008                     bra        +0xA /* 00001CFC */
label00001CF4:
00001CF4  BC6D BA6A                cmp.w      D6, [A5 - 0x4596]
00001CF8  6702                     beq        +0x4 /* 00001CFC */
00001CFA  7E1E                     moveq.l    D7, 0x1E
label00001CFC:
00001CFC  3007                     move.w     D0, D7
00001CFE  4CDF 00C0                movem.l    D6,D7, [A7]+
00001D02  4E75                     rts
fn00001D04:
00001D04  48E7 0300                movem.l    -[A7], D6,D7
00001D08  7E00                     moveq.l    D7, 0x00
00001D0A  1E2D BCE6                move.b     D7, [A5 - 0x431A]
00001D0E  7C00                     moveq.l    D6, 0x00
00001D10  1C2D BCE7                move.b     D6, [A5 - 0x4319]
00001D14  BC6D BA6A                cmp.w      D6, [A5 - 0x4596]
00001D18  6618                     bne        +0x1A /* 00001D32 */
00001D1A  2007                     move.l     D0, D7
00001D1C  48C0                     ext.l      D0
00001D1E  81FC 000A                divs.w     D0, 0xA /* '\n' */
00001D22  4840                     swap.w     D0
00001D24  0C40 0009                cmpi.w     D0, 0x9 /* '\t' */
00001D28  6604                     bne        +0x6 /* 00001D2E */
00001D2A  7E1E                     moveq.l    D7, 0x1E
00001D2C  605A                     bra        +0x5C /* 00001D88 */
label00001D2E:
00001D2E  5247                     addq.w     D7, 1
00001D30  6056                     bra        +0x58 /* 00001D88 */
label00001D32:
00001D32  BC6D BA6C                cmp.w      D6, [A5 - 0x4594]
00001D36  661A                     bne        +0x1C /* 00001D52 */
00001D38  2007                     move.l     D0, D7
00001D3A  48C0                     ext.l      D0
00001D3C  81FC 000A                divs.w     D0, 0xA /* '\n' */
00001D40  4840                     swap.w     D0
00001D42  0C40 0009                cmpi.w     D0, 0x9 /* '\t' */
00001D46  6606                     bne        +0x8 /* 00001D4E */
00001D48  0647 FFF7                addi.w     D7, 0xFFF7
00001D4C  603A                     bra        +0x3C /* 00001D88 */
label00001D4E:
00001D4E  7E1E                     moveq.l    D7, 0x1E
00001D50  6036                     bra        +0x38 /* 00001D88 */
label00001D52:
00001D52  BC6D BA70                cmp.w      D6, [A5 - 0x4590]
00001D56  661A                     bne        +0x1C /* 00001D72 */
00001D58  0C47 0014                cmpi.w     D7, 0x14
00001D5C  6D10                     blt        +0x12 /* 00001D6E */
00001D5E  0C47 001D                cmpi.w     D7, 0x1D
00001D62  6C0A                     bge        +0xC /* 00001D6E */
00001D64  701E                     moveq.l    D0, 0x1E
00001D66  9047                     sub.w      D0, D7
00001D68  7EF4                     moveq.l    D7, 0xFFFFFFF4
00001D6A  DE40                     add.w      D7, D0
00001D6C  601A                     bra        +0x1C /* 00001D88 */
label00001D6E:
00001D6E  7E1E                     moveq.l    D7, 0x1E
00001D70  6016                     bra        +0x18 /* 00001D88 */
label00001D72:
00001D72  BC6D BA74                cmp.w      D6, [A5 - 0x458C]
00001D76  660E                     bne        +0x10 /* 00001D86 */
00001D78  0C47 001D                cmpi.w     D7, 0x1D
00001D7C  6604                     bne        +0x6 /* 00001D82 */
00001D7E  7EFF                     moveq.l    D7, 0xFFFFFFFF
00001D80  6006                     bra        +0x8 /* 00001D88 */
label00001D82:
00001D82  7E1E                     moveq.l    D7, 0x1E
00001D84  6002                     bra        +0x4 /* 00001D88 */
label00001D86:
00001D86  7E1E                     moveq.l    D7, 0x1E
label00001D88:
00001D88  3007                     move.w     D0, D7
00001D8A  4CDF 00C0                movem.l    D6,D7, [A7]+
00001D8E  4E75                     rts
fn00001D90:
00001D90  48E7 0300                movem.l    -[A7], D6,D7
00001D94  7E00                     moveq.l    D7, 0x00
00001D96  1E2D BCE6                move.b     D7, [A5 - 0x431A]
00001D9A  7C00                     moveq.l    D6, 0x00
00001D9C  1C2D BCE7                move.b     D6, [A5 - 0x4319]
00001DA0  BC6D BA6A                cmp.w      D6, [A5 - 0x4596]
00001DA4  6626                     bne        +0x28 /* 00001DCC */
00001DA6  2007                     move.l     D0, D7
00001DA8  48C0                     ext.l      D0
00001DAA  81FC 000A                divs.w     D0, 0xA /* '\n' */
00001DAE  4840                     swap.w     D0
00001DB0  0C40 0009                cmpi.w     D0, 0x9 /* '\t' */
00001DB4  6604                     bne        +0x6 /* 00001DBA */
00001DB6  7E1E                     moveq.l    D7, 0x1E
00001DB8  6068                     bra        +0x6A /* 00001E22 */
label00001DBA:
00001DBA  0C47 000A                cmpi.w     D7, 0xA /* '\n' */
00001DBE  6C06                     bge        +0x8 /* 00001DC6 */
00001DC0  4447                     neg.w      D7
00001DC2  5447                     addq.w     D7, 2
00001DC4  605C                     bra        +0x5E /* 00001E22 */
label00001DC6:
00001DC6  0647 FFF7                addi.w     D7, 0xFFF7
00001DCA  6056                     bra        +0x58 /* 00001E22 */
label00001DCC:
00001DCC  BC6D BA6C                cmp.w      D6, [A5 - 0x4594]
00001DD0  6624                     bne        +0x26 /* 00001DF6 */
00001DD2  0C47 0009                cmpi.w     D7, 0x9 /* '\t' */
00001DD6  6604                     bne        +0x6 /* 00001DDC */
00001DD8  7EFF                     moveq.l    D7, 0xFFFFFFFF
00001DDA  6046                     bra        +0x48 /* 00001E22 */
label00001DDC:
00001DDC  2007                     move.l     D0, D7
00001DDE  48C0                     ext.l      D0
00001DE0  81FC 000A                divs.w     D0, 0xA /* '\n' */
00001DE4  4840                     swap.w     D0
00001DE6  0C40 0009                cmpi.w     D0, 0x9 /* '\t' */
00001DEA  6606                     bne        +0x8 /* 00001DF2 */
00001DEC  0647 FFED                addi.w     D7, 0xFFED
00001DF0  6030                     bra        +0x32 /* 00001E22 */
label00001DF2:
00001DF2  7E1E                     moveq.l    D7, 0x1E
00001DF4  602C                     bra        +0x2E /* 00001E22 */
label00001DF6:
00001DF6  BC6D BA72                cmp.w      D6, [A5 - 0x458E]
00001DFA  6610                     bne        +0x12 /* 00001E0C */
00001DFC  0C47 0009                cmpi.w     D7, 0x9 /* '\t' */
00001E00  6C06                     bge        +0x8 /* 00001E08 */
00001E02  0647 0015                addi.w     D7, 0x15
00001E06  601A                     bra        +0x1C /* 00001E22 */
label00001E08:
00001E08  7E1E                     moveq.l    D7, 0x1E
00001E0A  6016                     bra        +0x18 /* 00001E22 */
label00001E0C:
00001E0C  BC6D BA78                cmp.w      D6, [A5 - 0x4588]
00001E10  660E                     bne        +0x10 /* 00001E20 */
00001E12  0C47 0009                cmpi.w     D7, 0x9 /* '\t' */
00001E16  6604                     bne        +0x6 /* 00001E1C */
00001E18  7E14                     moveq.l    D7, 0x14
00001E1A  6006                     bra        +0x8 /* 00001E22 */
label00001E1C:
00001E1C  7E1E                     moveq.l    D7, 0x1E
00001E1E  6002                     bra        +0x4 /* 00001E22 */
label00001E20:
00001E20  7E1E                     moveq.l    D7, 0x1E
label00001E22:
00001E22  3007                     move.w     D0, D7
00001E24  4CDF 00C0                movem.l    D6,D7, [A7]+
00001E28  4E75                     rts
fn00001E2A:
00001E2A  4EBA FDC8                jsr        [PC - 0x238 /* 00001BF4 */]
00001E2E  4A00                     tst.b      D0
00001E30  6716                     beq        +0x18 /* 00001E48 */
00001E32  7000                     moveq.l    D0, 0x00
00001E34  102D BA95                move.b     D0, [A5 - 0x456B]
00001E38  3F00                     move.w     -[A7], D0
00001E3A  4EBA 0388                jsr        [PC + 0x388 /* 000021C4 */]
00001E3E  1B40 BA95                move.b     [A5 - 0x456B], D0
00001E42  4EBA FDCA                jsr        [PC - 0x236 /* 00001C0E */]
00001E46  548F                     addq.l     A7, 2
label00001E48:
00001E48  4E75                     rts
fn00001E4A:
00001E4A  2F07                     move.l     -[A7], D7
00001E4C  4A2D BCE8                tst.b      [A5 - 0x4318]
00001E50  6D2E                     blt        +0x30 /* 00001E80 */
00001E52  4EBA FDA0                jsr        [PC - 0x260 /* 00001BF4 */]
00001E56  4A00                     tst.b      D0
00001E58  6726                     beq        +0x28 /* 00001E80 */
00001E5A  7E00                     moveq.l    D7, 0x00
00001E5C  1E2D BA95                move.b     D7, [A5 - 0x456B]
00001E60  0247 00E0                andi.w     D7, 0xE0
00001E64  7000                     moveq.l    D0, 0x00
00001E66  102D BA95                move.b     D0, [A5 - 0x456B]
00001E6A  0240 000F                andi.w     D0, 0xF
00001E6E  3F00                     move.w     -[A7], D0
00001E70  4EBA 0320                jsr        [PC + 0x320 /* 00002192 */]
00001E74  8007                     or.b       D0, D7
00001E76  1B40 BA95                move.b     [A5 - 0x456B], D0
00001E7A  4EBA FDA0                jsr        [PC - 0x260 /* 00001C1C */]
00001E7E  548F                     addq.l     A7, 2
label00001E80:
00001E80  2E1F                     move.l     D7, [A7]+
00001E82  4E75                     rts
fn00001E84:
00001E84  4EBA FD6E                jsr        [PC - 0x292 /* 00001BF4 */]
00001E88  4A00                     tst.b      D0
00001E8A  6720                     beq        +0x22 /* 00001EAC */
00001E8C  532D BA95                subq.b     [A5 - 0x456B], 1
00001E90  4A2D BA95                tst.b      [A5 - 0x456B]
00001E94  6612                     bne        +0x14 /* 00001EA8 */
00001E96  3F3C 003F                move.w     -[A7], 0x3F /* '?' */
00001E9A  4EAD 0072                jsr        [A5 + 0x72 /* export_10, CODE:2 @ 0000223A */]
00001E9E  0600 0028                addi.b     D0, 0x28 /* '(' */
00001EA2  1B40 BA95                move.b     [A5 - 0x456B], D0
00001EA6  548F                     addq.l     A7, 2
label00001EA8:
00001EA8  4EBA FD72                jsr        [PC - 0x28E /* 00001C1C */]
label00001EAC:
00001EAC  4E75                     rts
fn00001EAE:
00001EAE  48E7 0700                movem.l    -[A7], D5,D6,D7
00001EB2  4A2D BCE8                tst.b      [A5 - 0x4318]
00001EB6  6D70                     blt        +0x72 /* 00001F28 */
00001EB8  7A00                     moveq.l    D5, 0x00
00001EBA  1A2D BA95                move.b     D5, [A5 - 0x456B]
00001EBE  3E05                     move.w     D7, D5
00001EC0  0247 0080                andi.w     D7, 0x80
00001EC4  7C7F                     moveq.l    D6, 0x7F
00001EC6  CC45                     and.w      D6, D5
00001EC8  5246                     addq.w     D6, 1
00001ECA  0C46 000F                cmpi.w     D6, 0xF
00001ECE  6F02                     ble        +0x4 /* 00001ED2 */
00001ED0  7C01                     moveq.l    D6, 0x01
label00001ED2:
00001ED2  1007                     move.b     D0, D7
00001ED4  8006                     or.b       D0, D6
00001ED6  1B40 BA95                move.b     [A5 - 0x456B], D0
00001EDA  0C46 0002                cmpi.w     D6, 0x2
00001EDE  660A                     bne        +0xC /* 00001EEA */
00001EE0  3F3C 002F                move.w     -[A7], 0x2F /* '/' */
00001EE4  4EAD 03CA                jsr        [A5 + 0x3CA /* export_117, CODE:3 @ 000007B0 */]
00001EE8  548F                     addq.l     A7, 2
label00001EEA:
00001EEA  7000                     moveq.l    D0, 0x00
00001EEC  102D BCE7                move.b     D0, [A5 - 0x4319]
00001EF0  B06D BA6A                cmp.w      D0, [A5 - 0x4596]
00001EF4  661E                     bne        +0x20 /* 00001F14 */
00001EF6  7000                     moveq.l    D0, 0x00
00001EF8  102D BCE6                move.b     D0, [A5 - 0x431A]
00001EFC  81FC 000A                divs.w     D0, 0xA /* '\n' */
00001F00  122D B96F                move.b     D1, [A5 - 0x4691]
00001F04  4881                     ext.w      D1
00001F06  B240                     cmp.w      D1, D0
00001F08  660A                     bne        +0xC /* 00001F14 */
00001F0A  4A2D B977                tst.b      [A5 - 0x4689]
00001F0E  6D18                     blt        +0x1A /* 00001F28 */
00001F10  4A47                     tst.w      D7
00001F12  6614                     bne        +0x16 /* 00001F28 */
label00001F14:
00001F14  7000                     moveq.l    D0, 0x00
00001F16  102D BA95                move.b     D0, [A5 - 0x456B]
00001F1A  0240 007F                andi.w     D0, 0x7F
00001F1E  5D40                     subq.w     D0, 6
00001F20  6D06                     blt        +0x8 /* 00001F28 */
00001F22  1B7C 00FF BCE8           move.b     [A5 - 0x4318], 0xFF
label00001F28:
00001F28  7000                     moveq.l    D0, 0x00
00001F2A  102D BA95                move.b     D0, [A5 - 0x456B]
00001F2E  0240 007F                andi.w     D0, 0x7F
00001F32  5D40                     subq.w     D0, 6
00001F34  6C04                     bge        +0x6 /* 00001F3A */
00001F36  4EBA FCF2                jsr        [PC - 0x30E /* 00001C2A */]
label00001F3A:
00001F3A  4CDF 00E0                movem.l    D5,D6,D7, [A7]+
00001F3E  4E75                     rts
fn00001F40:
00001F40  4A2D BCE8                tst.b      [A5 - 0x4318]
00001F44  6D48                     blt        +0x4A /* 00001F8E */
00001F46  0C2D 00FF BA95           cmpi.b     [A5 - 0x456B], 0xFF
00001F4C  6744                     beq        +0x46 /* 00001F92 */
00001F4E  4A2D BA95                tst.b      [A5 - 0x456B]
00001F52  6A14                     bpl        +0x16 /* 00001F68 */
00001F54  532D BA95                subq.b     [A5 - 0x456B], 1
00001F58  707F                     moveq.l    D0, 0x7F
00001F5A  C02D BA95                and.b      D0, [A5 - 0x456B]
00001F5E  662E                     bne        +0x30 /* 00001F8E */
00001F60  1B7C 0006 BA95           move.b     [A5 - 0x456B], 0x6
00001F66  6026                     bra        +0x28 /* 00001F8E */
label00001F68:
00001F68  522D BA95                addq.b     [A5 - 0x456B], 1
00001F6C  0C2D 0005 BA95           cmpi.b     [A5 - 0x456B], 0x5
00001F72  6608                     bne        +0xA /* 00001F7C */
00001F74  1B7C 008F BA95           move.b     [A5 - 0x456B], 0x8F
00001F7A  6012                     bra        +0x14 /* 00001F8E */
label00001F7C:
00001F7C  0C2D 0009 BA95           cmpi.b     [A5 - 0x456B], 0x9 /* '\t' */
00001F82  660A                     bne        +0xC /* 00001F8E */
00001F84  422D BA95                clr.b      [A5 - 0x456B]
00001F88  1B7C 00FF BCE8           move.b     [A5 - 0x4318], 0xFF
label00001F8E:
00001F8E  4EBA FCAE                jsr        [PC - 0x352 /* 00001C3E */]
label00001F92:
00001F92  4E75                     rts
fn00001F94:
00001F94  48E7 0300                movem.l    -[A7], D6,D7
00001F98  1E2D BCE8                move.b     D7, [A5 - 0x4318]
00001F9C  4A07                     tst.b      D7
00001F9E  6D00 00EC                blt        +0xEE /* 0000208C */
00001FA2  0C07 0003                cmpi.b     D7, 0x3
00001FA6  6D46                     blt        +0x48 /* 00001FEE */
00001FA8  0C07 0008                cmpi.b     D7, 0x8
00001FAC  6C06                     bge        +0x8 /* 00001FB4 */
00001FAE  5207                     addq.b     D7, 1
00001FB0  1B47 BCE8                move.b     [A5 - 0x4318], D7
label00001FB4:
00001FB4  1007                     move.b     D0, D7
00001FB6  4880                     ext.w      D0
00001FB8  204D                     movea.l    A0, A5
00001FBA  D0C0                     add.w      A0, D0
00001FBC  1C28 AA24                move.b     D6, [A0 - 0x55DC]
00001FC0  7000                     moveq.l    D0, 0x00
00001FC2  102D BA95                move.b     D0, [A5 - 0x456B]
00001FC6  1206                     move.b     D1, D6
00001FC8  4881                     ext.w      D1
00001FCA  B240                     cmp.w      D1, D0
00001FCC  6E08                     bgt        +0xA /* 00001FD6 */
00001FCE  9D2D BA95                sub.b      [A5 - 0x456B], D6
00001FD2  6000 00B8                bra        +0xBA /* 0000208C */
label00001FD6:
00001FD6  422D BA95                clr.b      [A5 - 0x456B]
00001FDA  1B7C 00FF BCE8           move.b     [A5 - 0x4318], 0xFF
00001FE0  3F3C 0006                move.w     -[A7], 0x6
00001FE4  4EAD 03CA                jsr        [A5 + 0x3CA /* export_117, CODE:3 @ 000007B0 */]
00001FE8  548F                     addq.l     A7, 2
00001FEA  6000 00A0                bra        +0xA2 /* 0000208C */
label00001FEE:
00001FEE  0C2D 00FF BA95           cmpi.b     [A5 - 0x456B], 0xFF
00001FF4  6608                     bne        +0xA /* 00001FFE */
00001FF6  4EBA 009E                jsr        [PC + 0x9E /* 00002096 */]
00001FFA  6000 0090                bra        +0x92 /* 0000208C */
label00001FFE:
00001FFE  1007                     move.b     D0, D7
00002000  4880                     ext.w      D0
00002002  204D                     movea.l    A0, A5
00002004  D0C0                     add.w      A0, D0
00002006  1028 AA32                move.b     D0, [A0 - 0x55CE]
0000200A  D12D BA95                add.b      [A5 - 0x456B], D0
0000200E  4A07                     tst.b      D7
00002010  6630                     bne        +0x32 /* 00002042 */
00002012  4A2D BA95                tst.b      [A5 - 0x456B]
00002016  6206                     bhi        +0x8 /* 0000201E */
00002018  4EBA 007C                jsr        [PC + 0x7C /* 00002096 */]
0000201C  606E                     bra        +0x70 /* 0000208C */
label0000201E:
0000201E  0C2D 00BC BA95           cmpi.b     [A5 - 0x456B], 0xBC
00002024  6466                     bcc        +0x68 /* 0000208C */
00002026  7000                     moveq.l    D0, 0x00
00002028  102D BA95                move.b     D0, [A5 - 0x456B]
0000202C  81FC 0004                divs.w     D0, 0x4
00002030  4840                     swap.w     D0
00002032  5740                     subq.w     D0, 3
00002034  6656                     bne        +0x58 /* 0000208C */
00002036  3F3C 0004                move.w     -[A7], 0x4
0000203A  4EBA 1178                jsr        [PC + 0x1178 /* 000031B4 */]
0000203E  548F                     addq.l     A7, 2
00002040  604A                     bra        +0x4C /* 0000208C */
label00002042:
00002042  0C2D 00BC BA95           cmpi.b     [A5 - 0x456B], 0xBC
00002048  641C                     bcc        +0x1E /* 00002066 */
0000204A  7000                     moveq.l    D0, 0x00
0000204C  102D BA95                move.b     D0, [A5 - 0x456B]
00002050  81FC 0008                divs.w     D0, 0x8
00002054  4840                     swap.w     D0
00002056  4A40                     tst.w      D0
00002058  6632                     bne        +0x34 /* 0000208C */
0000205A  3F3C 0005                move.w     -[A7], 0x5
0000205E  4EAD 03CA                jsr        [A5 + 0x3CA /* export_117, CODE:3 @ 000007B0 */]
00002062  548F                     addq.l     A7, 2
00002064  6026                     bra        +0x28 /* 0000208C */
label00002066:
00002066  0C07 0002                cmpi.b     D7, 0x2
0000206A  6C16                     bge        +0x18 /* 00002082 */
0000206C  1B7C 00EE BA95           move.b     [A5 - 0x456B], 0xEE
00002072  422D BCE8                clr.b      [A5 - 0x4318]
00002076  3F3C 0007                move.w     -[A7], 0x7
0000207A  4EAD 03CA                jsr        [A5 + 0x3CA /* export_117, CODE:3 @ 000007B0 */]
0000207E  548F                     addq.l     A7, 2
00002080  600A                     bra        +0xC /* 0000208C */
label00002082:
00002082  1B7C 00FF BA95           move.b     [A5 - 0x456B], 0xFF
00002088  4EBA 000C                jsr        [PC + 0xC /* 00002096 */]
label0000208C:
0000208C  4EBA FC0A                jsr        [PC - 0x3F6 /* 00001C98 */]
00002090  4CDF 00C0                movem.l    D6,D7, [A7]+
00002094  4E75                     rts
fn00002096:
00002096  1B7C 00FF BCE8           move.b     [A5 - 0x4318], 0xFF
0000209C  3F3C 0007                move.w     -[A7], 0x7
000020A0  4EBA 1112                jsr        [PC + 0x1112 /* 000031B4 */]
000020A4  548F                     addq.l     A7, 2
000020A6  4E75                     rts
fn000020A8:
000020A8  2F07                     move.l     -[A7], D7
000020AA  1E2D BCE8                move.b     D7, [A5 - 0x4318]
000020AE  4887                     ext.w      D7
000020B0  4A47                     tst.w      D7
000020B2  6D00 00D6                blt        +0xD8 /* 0000218A */
000020B6  0C47 0003                cmpi.w     D7, 0x3
000020BA  6D62                     blt        +0x64 /* 0000211E */
000020BC  522D BCE8                addq.b     [A5 - 0x4318], 1
000020C0  102D BCE8                move.b     D0, [A5 - 0x4318]
000020C4  4880                     ext.w      D0
000020C6  204D                     movea.l    A0, A5
000020C8  D0C0                     add.w      A0, D0
000020CA  1E28 AA2A                move.b     D7, [A0 - 0x55D6]
000020CE  7000                     moveq.l    D0, 0x00
000020D0  102D BA95                move.b     D0, [A5 - 0x456B]
000020D4  1207                     move.b     D1, D7
000020D6  4881                     ext.w      D1
000020D8  B240                     cmp.w      D1, D0
000020DA  6E06                     bgt        +0x8 /* 000020E2 */
000020DC  9F2D BA95                sub.b      [A5 - 0x456B], D7
000020E0  601A                     bra        +0x1C /* 000020FC */
label000020E2:
000020E2  422D BA95                clr.b      [A5 - 0x456B]
000020E6  1B7C 00FF BCE8           move.b     [A5 - 0x4318], 0xFF
000020EC  3F3C 000E                move.w     -[A7], 0xE
000020F0  4EAD 03CA                jsr        [A5 + 0x3CA /* export_117, CODE:3 @ 000007B0 */]
000020F4  3B7C 0001 BA3A           move.w     [A5 - 0x45C6], 0x1
000020FA  548F                     addq.l     A7, 2
label000020FC:
000020FC  0C2D 0004 BCE8           cmpi.b     [A5 - 0x4318], 0x4
00002102  6600 0086                bne        +0x88 /* 0000218A */
00002106  1B7C 0001 B8C7           move.b     [A5 - 0x4739], 0x1
0000210C  1B7C 006E B901           move.b     [A5 - 0x46FF], 0x6E /* 'n' */
00002112  3F3C 000F                move.w     -[A7], 0xF
00002116  4EAD 03CA                jsr        [A5 + 0x3CA /* export_117, CODE:3 @ 000007B0 */]
0000211A  548F                     addq.l     A7, 2
0000211C  606C                     bra        +0x6E /* 0000218A */
label0000211E:
0000211E  4A2D BA95                tst.b      [A5 - 0x456B]
00002122  6614                     bne        +0x16 /* 00002138 */
00002124  422D B8C7                clr.b      [A5 - 0x4739]
00002128  1B7C 0001 B901           move.b     [A5 - 0x46FF], 0x1
0000212E  3F3C 000F                move.w     -[A7], 0xF
00002132  4EAD 03CA                jsr        [A5 + 0x3CA /* export_117, CODE:3 @ 000007B0 */]
00002136  548F                     addq.l     A7, 2
label00002138:
00002138  522D BA95                addq.b     [A5 - 0x456B], 1
0000213C  0C2D 002B BA95           cmpi.b     [A5 - 0x456B], 0x2B /* '+' */
00002142  6546                     bcs        +0x48 /* 0000218A */
00002144  4A6D BA3C                tst.w      [A5 - 0x45C4]
00002148  6708                     beq        +0xA /* 00002152 */
0000214A  0C6D 0002 BA3C           cmpi.w     [A5 - 0x45C4], 0x2
00002150  6638                     bne        +0x3A /* 0000218A */
label00002152:
00002152  1B7C 00FF BCE8           move.b     [A5 - 0x4318], 0xFF
00002158  4EAD 0102                jsr        [A5 + 0x102 /* export_28, CODE:2 @ 00002B1C */]
0000215C  3B7C 0001 BA3C           move.w     [A5 - 0x45C4], 0x1
00002162  0C6D 0004 A90C           cmpi.w     [A5 - 0x56F4], 0x4
00002168  6620                     bne        +0x22 /* 0000218A */
0000216A  2F3C 0004 0000           move.l     -[A7], 0x40000
00002170  3F3C 0004                move.w     -[A7], 0x4
00002174  4EAD 0262                jsr        [A5 + 0x262 /* export_72, CODE:3 @ 00003F6E */]
00002178  7000                     moveq.l    D0, 0x00
0000217A  102D BAE9                move.b     D0, [A5 - 0x4517]
0000217E  D0AD BD82                add.l      D0, [A5 - 0x427E]
00002182  2040                     movea.l    A0, D0
00002184  10BC 000D                move.b     [A0], 0xD /* '\r' */
00002188  5C8F                     addq.l     A7, 6
label0000218A:
0000218A  4EBA FA82                jsr        [PC - 0x57E /* 00001C0E */]
0000218E  2E1F                     move.l     D7, [A7]+
00002190  4E75                     rts
fn00002192:
00002192  4E56 0000                link       A6, 0
00002196  2F07                     move.l     -[A7], D7
00002198  4A6E 0008                tst.w      [A6 + 0x8]
0000219C  6610                     bne        +0x12 /* 000021AE */
0000219E  3F3C 0001                move.w     -[A7], 0x1
000021A2  4EAD 0072                jsr        [A5 + 0x72 /* export_10, CODE:2 @ 0000223A */]
000021A6  5240                     addq.w     D0, 1
000021A8  3E00                     move.w     D7, D0
000021AA  548F                     addq.l     A7, 2
000021AC  6006                     bra        +0x8 /* 000021B4 */
label000021AE:
000021AE  7E01                     moveq.l    D7, 0x01
000021B0  DE6E 0008                add.w      D7, [A6 + 0x8]
label000021B4:
000021B4  0C47 0007                cmpi.w     D7, 0x7
000021B8  6D02                     blt        +0x4 /* 000021BC */
000021BA  7E00                     moveq.l    D7, 0x00
label000021BC:
000021BC  3007                     move.w     D0, D7
000021BE  2E1F                     move.l     D7, [A7]+
000021C0  4E5E                     unlink     A6
000021C2  4E75                     rts
fn000021C4:
000021C4  4E56 0000                link       A6, 0
000021C8  2F07                     move.l     -[A7], D7
000021CA  3F3C 00FF                move.w     -[A7], 0xFF
000021CE  4EAD 0072                jsr        [A5 + 0x72 /* export_10, CODE:2 @ 0000223A */]
000021D2  3E00                     move.w     D7, D0
000021D4  BE6E 0008                cmp.w      D7, [A6 + 0x8]
000021D8  548F                     addq.l     A7, 2
000021DA  670E                     beq        +0x10 /* 000021EA */
000021DC  0C47 0009                cmpi.w     D7, 0x9 /* '\t' */
000021E0  6C04                     bge        +0x6 /* 000021E6 */
000021E2  3007                     move.w     D0, D7
000021E4  6010                     bra        +0x12 /* 000021F6 */
label000021E6:
000021E6  3E2E 0008                move.w     D7, [A6 + 0x8]
label000021EA:
000021EA  5247                     addq.w     D7, 1
000021EC  0C47 0009                cmpi.w     D7, 0x9 /* '\t' */
000021F0  6D02                     blt        +0x4 /* 000021F4 */
000021F2  7E00                     moveq.l    D7, 0x00
label000021F4:
000021F4  3007                     move.w     D0, D7
label000021F6:
000021F6  2E1F                     move.l     D7, [A7]+
000021F8  4E5E                     unlink     A6
000021FA  4E75                     rts
fn000021FC:
000021FC  4E56 0000                link       A6, 0
00002200  2F07                     move.l     -[A7], D7
00002202  3E2E 0008                move.w     D7, [A6 + 0x8]
00002206  0C47 001E                cmpi.w     D7, 0x1E
0000220A  6C20                     bge        +0x22 /* 0000222C */
0000220C  4A47                     tst.w      D7
0000220E  6C12                     bge        +0x14 /* 00002222 */
00002210  7001                     moveq.l    D0, 0x01
00002212  D047                     add.w      D0, D7
00002214  4440                     neg.w      D0
00002216  204D                     movea.l    A0, A5
00002218  D0C0                     add.w      A0, D0
0000221A  117C 0001 BC62           move.b     [A0 - 0x439E], 0x1
00002220  600A                     bra        +0xC /* 0000222C */
label00002222:
00002222  204D                     movea.l    A0, A5
00002224  D0C7                     add.w      A0, D7
00002226  117C 0001 BBCC           move.b     [A0 - 0x4434], 0x1
label0000222C:
0000222C  2E1F                     move.l     D7, [A7]+
0000222E  4E5E                     unlink     A6
00002230  4E75                     rts
export_129:
fn00002232:
00002232  4E56 0000                link       A6, 0
00002236  2F07                     move.l     -[A7], D7
00002238  3E2E 0008                move.w     D7, [A6 + 0x8]
0000223C  0C47 001E                cmpi.w     D7, 0x1E
00002240  6C20                     bge        +0x22 /* 00002262 */
00002242  4A47                     tst.w      D7
00002244  6C12                     bge        +0x14 /* 00002258 */
00002246  7001                     moveq.l    D0, 0x01
00002248  D047                     add.w      D0, D7
0000224A  4440                     neg.w      D0
0000224C  204D                     movea.l    A0, A5
0000224E  D0C0                     add.w      A0, D0
00002250  117C 0001 BC62           move.b     [A0 - 0x439E], 0x1
00002256  600A                     bra        +0xC /* 00002262 */
label00002258:
00002258  204D                     movea.l    A0, A5
0000225A  D0C7                     add.w      A0, D7
0000225C  117C 0001 BC08           move.b     [A0 - 0x43F8], 0x1
label00002262:
00002262  2E1F                     move.l     D7, [A7]+
00002264  4E5E                     unlink     A6
00002266  4E75                     rts
export_130:
00002268  4E56 0000                link       A6, 0
0000226C  2F07                     move.l     -[A7], D7
0000226E  3E2E 0008                move.w     D7, [A6 + 0x8]
00002272  0C47 001E                cmpi.w     D7, 0x1E
00002276  6C20                     bge        +0x22 /* 00002298 */
00002278  4A47                     tst.w      D7
0000227A  6C12                     bge        +0x14 /* 0000228E */
0000227C  7001                     moveq.l    D0, 0x01
0000227E  D047                     add.w      D0, D7
00002280  4440                     neg.w      D0
00002282  204D                     movea.l    A0, A5
00002284  D0C0                     add.w      A0, D0
00002286  117C 0001 BC62           move.b     [A0 - 0x439E], 0x1
0000228C  600A                     bra        +0xC /* 00002298 */
label0000228E:
0000228E  204D                     movea.l    A0, A5
00002290  D0C7                     add.w      A0, D7
00002292  117C 0001 BC26           move.b     [A0 - 0x43DA], 0x1
label00002298:
00002298  2E1F                     move.l     D7, [A7]+
0000229A  4E5E                     unlink     A6
0000229C  4E75                     rts
fn0000229E:
0000229E  4E56 0000                link       A6, 0
000022A2  2F07                     move.l     -[A7], D7
000022A4  3E2E 0008                move.w     D7, [A6 + 0x8]
000022A8  0C47 001E                cmpi.w     D7, 0x1E
000022AC  6C20                     bge        +0x22 /* 000022CE */
000022AE  4A47                     tst.w      D7
000022B0  6C12                     bge        +0x14 /* 000022C4 */
000022B2  7001                     moveq.l    D0, 0x01
000022B4  D047                     add.w      D0, D7
000022B6  4440                     neg.w      D0
000022B8  204D                     movea.l    A0, A5
000022BA  D0C0                     add.w      A0, D0
000022BC  117C 0001 BC62           move.b     [A0 - 0x439E], 0x1
000022C2  600A                     bra        +0xC /* 000022CE */
label000022C4:
000022C4  204D                     movea.l    A0, A5
000022C6  D0C7                     add.w      A0, D7
000022C8  117C 0001 BB72           move.b     [A0 - 0x448E], 0x1
label000022CE:
000022CE  2E1F                     move.l     D7, [A7]+
000022D0  4E5E                     unlink     A6
000022D2  4E75                     rts
export_131:
fn000022D4:
000022D4  4E56 0000                link       A6, 0
000022D8  2F07                     move.l     -[A7], D7
000022DA  3E2E 0008                move.w     D7, [A6 + 0x8]
000022DE  0C47 001E                cmpi.w     D7, 0x1E
000022E2  6C0E                     bge        +0x10 /* 000022F2 */
000022E4  4A47                     tst.w      D7
000022E6  6D0A                     blt        +0xC /* 000022F2 */
000022E8  204D                     movea.l    A0, A5
000022EA  D0C7                     add.w      A0, D7
000022EC  117C 0001 BBEA           move.b     [A0 - 0x4416], 0x1
label000022F2:
000022F2  2E1F                     move.l     D7, [A7]+
000022F4  4E5E                     unlink     A6
000022F6  4E75                     rts
000022F8  4E56 0000                link       A6, 0
000022FC  48E7 0108                movem.l    -[A7], D7,A4
00002300  3E2E 0008                move.w     D7, [A6 + 0x8]
00002304  0C47 001E                cmpi.w     D7, 0x1E
00002308  6C2C                     bge        +0x2E /* 00002336 */
0000230A  4A47                     tst.w      D7
0000230C  6D28                     blt        +0x2A /* 00002336 */
0000230E  49ED BB90                lea.l      A4, [A5 - 0x4470]
00002312  D8C7                     add.w      A4, D7
00002314  4A14                     tst.b      [A4]
00002316  6710                     beq        +0x12 /* 00002328 */
00002318  204D                     movea.l    A0, A5
0000231A  D0C7                     add.w      A0, D7
0000231C  1028 BBAE                move.b     D0, [A0 - 0x4452]
00002320  4880                     ext.w      D0
00002322  B06D BD6C                cmp.w      D0, [A5 - 0x4294]
00002326  6C0A                     bge        +0xC /* 00002332 */
label00002328:
00002328  204D                     movea.l    A0, A5
0000232A  D0C7                     add.w      A0, D7
0000232C  116D BD6D BBAE           move.b     [A0 - 0x4452], [A5 - 0x4293]
label00002332:
00002332  18BC 0001                move.b     [A4], 0x1
label00002336:
00002336  4CDF 1080                movem.l    D7,A4, [A7]+
0000233A  4E5E                     unlink     A6
0000233C  4E75                     rts
export_132:
fn0000233E:
0000233E  4E56 0000                link       A6, 0
00002342  48E7 0108                movem.l    -[A7], D7,A4
00002346  3E2E 0008                move.w     D7, [A6 + 0x8]
0000234A  0C47 001E                cmpi.w     D7, 0x1E
0000234E  6C48                     bge        +0x4A /* 00002398 */
00002350  4A47                     tst.w      D7
00002352  6C12                     bge        +0x14 /* 00002366 */
00002354  7001                     moveq.l    D0, 0x01
00002356  D047                     add.w      D0, D7
00002358  4440                     neg.w      D0
0000235A  204D                     movea.l    A0, A5
0000235C  D0C0                     add.w      A0, D0
0000235E  117C 0001 BC62           move.b     [A0 - 0x439E], 0x1
00002364  6032                     bra        +0x34 /* 00002398 */
label00002366:
00002366  49ED BB90                lea.l      A4, [A5 - 0x4470]
0000236A  D8C7                     add.w      A4, D7
0000236C  4A14                     tst.b      [A4]
0000236E  6710                     beq        +0x12 /* 00002380 */
00002370  204D                     movea.l    A0, A5
00002372  D0C7                     add.w      A0, D7
00002374  1028 BBAE                move.b     D0, [A0 - 0x4452]
00002378  4880                     ext.w      D0
0000237A  B06D BD6C                cmp.w      D0, [A5 - 0x4294]
0000237E  6C0A                     bge        +0xC /* 0000238A */
label00002380:
00002380  204D                     movea.l    A0, A5
00002382  D0C7                     add.w      A0, D7
00002384  116D BD6D BBAE           move.b     [A0 - 0x4452], [A5 - 0x4293]
label0000238A:
0000238A  18BC 0001                move.b     [A4], 0x1
0000238E  204D                     movea.l    A0, A5
00002390  D0C7                     add.w      A0, D7
00002392  117C 0001 BB72           move.b     [A0 - 0x448E], 0x1
label00002398:
00002398  4CDF 1080                movem.l    D7,A4, [A7]+
0000239C  4E5E                     unlink     A6
0000239E  4E75                     rts
fn000023A0:
000023A0  4E56 0000                link       A6, 0
000023A4  2F07                     move.l     -[A7], D7
000023A6  3E2E 0008                move.w     D7, [A6 + 0x8]
000023AA  0C47 001E                cmpi.w     D7, 0x1E
000023AE  6C0E                     bge        +0x10 /* 000023BE */
000023B0  4A47                     tst.w      D7
000023B2  6D0A                     blt        +0xC /* 000023BE */
000023B4  204D                     movea.l    A0, A5
000023B6  D0C7                     add.w      A0, D7
000023B8  117C 0001 BC44           move.b     [A0 - 0x43BC], 0x1
label000023BE:
000023BE  2E1F                     move.l     D7, [A7]+
000023C0  4E5E                     unlink     A6
000023C2  4E75                     rts
export_133:
000023C4  4E56 0000                link       A6, 0
000023C8  48E7 0300                movem.l    -[A7], D6,D7
000023CC  3C2E 0008                move.w     D6, [A6 + 0x8]
000023D0  3E2E 000A                move.w     D7, [A6 + 0xA]
000023D4  3F3C 0008                move.w     -[A7], 0x8
000023D8  4EAD 0072                jsr        [A5 + 0x72 /* export_10, CODE:2 @ 0000223A */]
000023DC  206D BD86                movea.l    A0, [A5 - 0x427A]
000023E0  1180 7000                move.b     [A0 + D7.w], D0
000023E4  3EBC 0001                move.w     [A7], 0x1
000023E8  3F07                     move.w     -[A7], D7
000023EA  3F06                     move.w     -[A7], D6
000023EC  4EBA 023E                jsr        [PC + 0x23E /* 0000262C */]
000023F0  4CEE 00C0 FFF8           movem.l    D6,D7, [A6 - 0x8]
000023F6  4E5E                     unlink     A6
000023F8  4E75                     rts
export_134:
000023FA  4E56 0000                link       A6, 0
000023FE  48E7 0708                movem.l    -[A7], D5,D6,D7,A4
00002402  3A2E 0008                move.w     D5, [A6 + 0x8]
00002406  3E2E 000A                move.w     D7, [A6 + 0xA]
0000240A  286D BD86                movea.l    A4, [A5 - 0x427A]
0000240E  D8C7                     add.w      A4, D7
00002410  1C14                     move.b     D6, [A4]
00002412  0206 00E0                andi.b     D6, 0xE0
00002416  1886                     move.b     [A4], D6
00002418  3F3C 0001                move.w     -[A7], 0x1
0000241C  3F07                     move.w     -[A7], D7
0000241E  3F05                     move.w     -[A7], D5
00002420  4EBA 020A                jsr        [PC + 0x20A /* 0000262C */]
00002424  4CEE 10E0 FFF0           movem.l    D5,D6,D7,A4, [A6 - 0x10]
0000242A  4E5E                     unlink     A6
0000242C  4E75                     rts
export_135:
0000242E  4E56 0000                link       A6, 0
00002432  48E7 0300                movem.l    -[A7], D6,D7
00002436  3C2E 0008                move.w     D6, [A6 + 0x8]
0000243A  3E2E 000A                move.w     D7, [A6 + 0xA]
0000243E  3F3C 00FF                move.w     -[A7], 0xFF
00002442  4EAD 0072                jsr        [A5 + 0x72 /* export_10, CODE:2 @ 0000223A */]
00002446  0200 001F                andi.b     D0, 0x1F
0000244A  206D BD86                movea.l    A0, [A5 - 0x427A]
0000244E  1180 7000                move.b     [A0 + D7.w], D0
00002452  3EBC 0001                move.w     [A7], 0x1
00002456  3F07                     move.w     -[A7], D7
00002458  3F06                     move.w     -[A7], D6
0000245A  4EBA 01D0                jsr        [PC + 0x1D0 /* 0000262C */]
0000245E  4CEE 00C0 FFF8           movem.l    D6,D7, [A6 - 0x8]
00002464  4E5E                     unlink     A6
00002466  4E75                     rts
fn00002468:
00002468  4E56 0000                link       A6, 0
0000246C  48E7 0F08                movem.l    -[A7], D4,D5,D6,D7,A4
00002470  382E 0008                move.w     D4, [A6 + 0x8]
00002474  3E2E 000A                move.w     D7, [A6 + 0xA]
00002478  3A2E 000C                move.w     D5, [A6 + 0xC]
0000247C  286D BD86                movea.l    A4, [A5 - 0x427A]
00002480  D8C7                     add.w      A4, D7
00002482  7C00                     moveq.l    D6, 0x00
00002484  1C14                     move.b     D6, [A4]
00002486  4A46                     tst.w      D6
00002488  6706                     beq        +0x8 /* 00002490 */
0000248A  0C46 0006                cmpi.w     D6, 0x6
0000248E  6D0E                     blt        +0x10 /* 0000249E */
label00002490:
00002490  1885                     move.b     [A4], D5
00002492  3F3C 0001                move.w     -[A7], 0x1
00002496  3F07                     move.w     -[A7], D7
00002498  3F04                     move.w     -[A7], D4
0000249A  4EBA 0190                jsr        [PC + 0x190 /* 0000262C */]
label0000249E:
0000249E  4CEE 10F0 FFEC           movem.l    D4,D5,D6,D7,A4, [A6 - 0x14]
000024A4  4E5E                     unlink     A6
000024A6  4E75                     rts
export_136:
000024A8  4E56 0000                link       A6, 0
000024AC  48E7 0708                movem.l    -[A7], D5,D6,D7,A4
000024B0  3A2E 0008                move.w     D5, [A6 + 0x8]
000024B4  3E2E 000A                move.w     D7, [A6 + 0xA]
000024B8  286D BD86                movea.l    A4, [A5 - 0x427A]
000024BC  D8C7                     add.w      A4, D7
000024BE  1C14                     move.b     D6, [A4]
000024C0  4A06                     tst.b      D6
000024C2  6306                     bls        +0x8 /* 000024CA */
000024C4  0C06 0080                cmpi.b     D6, 0x80
000024C8  6526                     bcs        +0x28 /* 000024F0 */
label000024CA:
000024CA  4A06                     tst.b      D6
000024CC  6618                     bne        +0x1A /* 000024E6 */
000024CE  3F3C 0001                move.w     -[A7], 0x1
000024D2  3F07                     move.w     -[A7], D7
000024D4  3F05                     move.w     -[A7], D5
000024D6  4EBA 0154                jsr        [PC + 0x154 /* 0000262C */]
000024DA  3EBC 0031                move.w     [A7], 0x31 /* '1' */
000024DE  4EAD 03CA                jsr        [A5 + 0x3CA /* export_117, CODE:3 @ 000007B0 */]
000024E2  5C8F                     addq.l     A7, 6
000024E4  600A                     bra        +0xC /* 000024F0 */
label000024E6:
000024E6  0C06 00FF                cmpi.b     D6, 0xFF
000024EA  6704                     beq        +0x6 /* 000024F0 */
000024EC  18BC 008F                move.b     [A4], 0x8F
label000024F0:
000024F0  4CDF 10E0                movem.l    D5,D6,D7,A4, [A7]+
000024F4  4E5E                     unlink     A6
000024F6  4E75                     rts
fn000024F8:
000024F8  4E56 0000                link       A6, 0
000024FC  48E7 0708                movem.l    -[A7], D5,D6,D7,A4
00002500  3E2E 0008                move.w     D7, [A6 + 0x8]
00002504  3C2E 000A                move.w     D6, [A6 + 0xA]
00002508  3A2E 000C                move.w     D5, [A6 + 0xC]
0000250C  286D BD86                movea.l    A4, [A5 - 0x427A]
00002510  D8C6                     add.w      A4, D6
00002512  1C14                     move.b     D6, [A4]
00002514  0C45 000F                cmpi.w     D5, 0xF
00002518  6620                     bne        +0x22 /* 0000253A */
0000251A  0C06 00FF                cmpi.b     D6, 0xFF
0000251E  6736                     beq        +0x38 /* 00002556 */
00002520  0C06 00BC                cmpi.b     D6, 0xBC
00002524  6506                     bcs        +0x8 /* 0000252C */
00002526  18BC 00EE                move.b     [A4], 0xEE
0000252A  602A                     bra        +0x2C /* 00002556 */
label0000252C:
0000252C  7003                     moveq.l    D0, 0x03
0000252E  D006                     add.b      D0, D6
00002530  0200 00FC                andi.b     D0, 0xFC
00002534  1880                     move.b     [A4], D0
00002536  7001                     moveq.l    D0, 0x01
00002538  601E                     bra        +0x20 /* 00002558 */
label0000253A:
0000253A  0C45 000E                cmpi.w     D5, 0xE
0000253E  660E                     bne        +0x10 /* 0000254E */
00002540  0C06 00BC                cmpi.b     D6, 0xBC
00002544  6504                     bcs        +0x6 /* 0000254A */
00002546  18BC 00FF                move.b     [A4], 0xFF
label0000254A:
0000254A  7002                     moveq.l    D0, 0x02
0000254C  600A                     bra        +0xC /* 00002558 */
label0000254E:
0000254E  4A06                     tst.b      D6
00002550  6704                     beq        +0x6 /* 00002556 */
00002552  7003                     moveq.l    D0, 0x03
00002554  6002                     bra        +0x4 /* 00002558 */
label00002556:
00002556  70FF                     moveq.l    D0, 0xFFFFFFFF
label00002558:
00002558  4CDF 10E0                movem.l    D5,D6,D7,A4, [A7]+
0000255C  4E5E                     unlink     A6
0000255E  4E75                     rts
fn00002560:
00002560  4E56 0000                link       A6, 0
00002564  48E7 1F00                movem.l    -[A7], D3,D4,D5,D6,D7
00002568  3C2E 0008                move.w     D6, [A6 + 0x8]
0000256C  362E 000A                move.w     D3, [A6 + 0xA]
00002570  382E 000C                move.w     D4, [A6 + 0xC]
00002574  3A2E 000E                move.w     D5, [A6 + 0xE]
00002578  7EFF                     moveq.l    D7, 0xFFFFFFFF
0000257A  0C46 0004                cmpi.w     D6, 0x4
0000257E  6610                     bne        +0x12 /* 00002590 */
00002580  3F05                     move.w     -[A7], D5
00002582  3F04                     move.w     -[A7], D4
00002584  3F03                     move.w     -[A7], D3
00002586  4EBA FF70                jsr        [PC - 0x90 /* 000024F8 */]
0000258A  3E00                     move.w     D7, D0
0000258C  5C8F                     addq.l     A7, 6
0000258E  6016                     bra        +0x18 /* 000025A6 */
label00002590:
00002590  0C46 0010                cmpi.w     D6, 0x10
00002594  6610                     bne        +0x12 /* 000025A6 */
00002596  206D BD86                movea.l    A0, [A5 - 0x427A]
0000259A  4A30 4000                tst.b      [A0 + D4.w]
0000259E  6704                     beq        +0x6 /* 000025A4 */
000025A0  7EFF                     moveq.l    D7, 0xFFFFFFFF
000025A2  6002                     bra        +0x4 /* 000025A6 */
label000025A4:
000025A4  7E01                     moveq.l    D7, 0x01
label000025A6:
000025A6  3007                     move.w     D0, D7
000025A8  4CDF 00F8                movem.l    D3,D4,D5,D6,D7, [A7]+
000025AC  4E5E                     unlink     A6
000025AE  4E75                     rts
fn000025B0:
000025B0  4E56 0000                link       A6, 0
000025B4  48E7 1F00                movem.l    -[A7], D3,D4,D5,D6,D7
000025B8  362E 0008                move.w     D3, [A6 + 0x8]
000025BC  605A                     bra        +0x5C /* 00002618 */
label000025BE:
000025BE  3F03                     move.w     -[A7], D3
000025C0  4EBA 01AC                jsr        [PC + 0x1AC /* 0000276E */]
000025C4  3E00                     move.w     D7, D0
000025C6  3E87                     move.w     [A7], D7
000025C8  4EBA 2BD4                jsr        [PC + 0x2BD4 /* 0000519E */]
000025CC  3E83                     move.w     [A7], D3
000025CE  4EBA 0170                jsr        [PC + 0x170 /* 00002740 */]
000025D2  3C00                     move.w     D6, D0
000025D4  206D BD82                movea.l    A0, [A5 - 0x427E]
000025D8  7A1F                     moveq.l    D5, 0x1F
000025DA  CA30 6000                and.b      D5, [A0 + D6.w]
000025DE  3EAE 000A                move.w     [A7], [A6 + 0xA]
000025E2  3F06                     move.w     -[A7], D6
000025E4  3F07                     move.w     -[A7], D7
000025E6  1005                     move.b     D0, D5
000025E8  4880                     ext.w      D0
000025EA  3F00                     move.w     -[A7], D0
000025EC  4EBA FF72                jsr        [PC - 0x8E /* 00002560 */]
000025F0  1800                     move.b     D4, D0
000025F2  4A04                     tst.b      D4
000025F4  508F                     addq.l     A7, 8
000025F6  6D10                     blt        +0x12 /* 00002608 */
000025F8  1004                     move.b     D0, D4
000025FA  4880                     ext.w      D0
000025FC  3F00                     move.w     -[A7], D0
000025FE  3F06                     move.w     -[A7], D6
00002600  3F07                     move.w     -[A7], D7
00002602  4EBA 0028                jsr        [PC + 0x28 /* 0000262C */]
00002606  5C8F                     addq.l     A7, 6
label00002608:
00002608  3003                     move.w     D0, D3
0000260A  5243                     addq.w     D3, 1
0000260C  3F00                     move.w     -[A7], D0
0000260E  4EBA 0148                jsr        [PC + 0x148 /* 00002758 */]
00002612  4A00                     tst.b      D0
00002614  548F                     addq.l     A7, 2
00002616  670C                     beq        +0xE /* 00002624 */
label00002618:
00002618  204D                     movea.l    A0, A5
0000261A  D0C3                     add.w      A0, D3
0000261C  0C28 00FF EEBE           cmpi.b     [A0 - 0x1142], 0xFF
00002622  669A                     bne        -0x64 /* 000025BE */
label00002624:
00002624  4CDF 00F8                movem.l    D3,D4,D5,D6,D7, [A7]+
00002628  4E5E                     unlink     A6
0000262A  4E75                     rts
fn0000262C:
0000262C  4E56 0000                link       A6, 0
00002630  48E7 0308                movem.l    -[A7], D6,D7,A4
00002634  3E2D BC6C                move.w     D7, [A5 - 0x4394]
00002638  0C47 001E                cmpi.w     D7, 0x1E
0000263C  6C54                     bge        +0x56 /* 00002692 */
0000263E  1B6E 0009 BCE7           move.b     [A5 - 0x4319], [A6 + 0x9]
00002644  1B6E 000B BCE6           move.b     [A5 - 0x431A], [A6 + 0xB]
0000264A  1B6E 000D BCE8           move.b     [A5 - 0x4318], [A6 + 0xD]
00002650  7C00                     moveq.l    D6, 0x00
00002652  49ED BC6E                lea.l      A4, [A5 - 0x4392]
00002656  6022                     bra        +0x24 /* 0000267A */
label00002658:
00002658  7000                     moveq.l    D0, 0x00
0000265A  102C 0001                move.b     D0, [A4 + 0x1]
0000265E  B06E 0008                cmp.w      D0, [A6 + 0x8]
00002662  6612                     bne        +0x14 /* 00002676 */
00002664  7000                     moveq.l    D0, 0x00
00002666  1014                     move.b     D0, [A4]
00002668  B06E 000A                cmp.w      D0, [A6 + 0xA]
0000266C  6608                     bne        +0xA /* 00002676 */
0000266E  196E 000D 0002           move.b     [A4 + 0x2], [A6 + 0xD]
00002674  601C                     bra        +0x1E /* 00002692 */
label00002676:
00002676  5246                     addq.w     D6, 1
00002678  588C                     addq.l     A4, 4
label0000267A:
0000267A  BE46                     cmp.w      D7, D6
0000267C  6EDA                     bgt        -0x24 /* 00002658 */
0000267E  204D                     movea.l    A0, A5
00002680  2007                     move.l     D0, D7
00002682  48C0                     ext.l      D0
00002684  E588                     lsl        D0, 2
00002686  D1C0                     add.l      A0, D0
00002688  216D BCE6 BC6E           move.l     [A0 - 0x4392], [A5 - 0x431A]
0000268E  526D BC6C                addq.w     [A5 - 0x4394], 1
label00002692:
00002692  4CDF 10C0                movem.l    D6,D7,A4, [A7]+
00002696  4E5E                     unlink     A6
00002698  4E75                     rts
export_137:
fn0000269A:
0000269A  2F07                     move.l     -[A7], D7
0000269C  7E00                     moveq.l    D7, 0x00
0000269E  6042                     bra        +0x44 /* 000026E2 */
label000026A0:
000026A0  204D                     movea.l    A0, A5
000026A2  D0C7                     add.w      A0, D7
000026A4  4228 BC44                clr.b      [A0 - 0x43BC]
000026A8  204D                     movea.l    A0, A5
000026AA  D0C7                     add.w      A0, D7
000026AC  4228 BC26                clr.b      [A0 - 0x43DA]
000026B0  204D                     movea.l    A0, A5
000026B2  D0C7                     add.w      A0, D7
000026B4  4228 BC08                clr.b      [A0 - 0x43F8]
000026B8  204D                     movea.l    A0, A5
000026BA  D0C7                     add.w      A0, D7
000026BC  4228 BBEA                clr.b      [A0 - 0x4416]
000026C0  204D                     movea.l    A0, A5
000026C2  D0C7                     add.w      A0, D7
000026C4  4228 BBCC                clr.b      [A0 - 0x4434]
000026C8  204D                     movea.l    A0, A5
000026CA  D0C7                     add.w      A0, D7
000026CC  4228 BBAE                clr.b      [A0 - 0x4452]
000026D0  204D                     movea.l    A0, A5
000026D2  D0C7                     add.w      A0, D7
000026D4  4228 BB90                clr.b      [A0 - 0x4470]
000026D8  204D                     movea.l    A0, A5
000026DA  D0C7                     add.w      A0, D7
000026DC  4228 BB72                clr.b      [A0 - 0x448E]
000026E0  5247                     addq.w     D7, 1
label000026E2:
000026E2  0C47 001E                cmpi.w     D7, 0x1E
000026E6  6DB8                     blt        -0x46 /* 000026A0 */
000026E8  7E00                     moveq.l    D7, 0x00
000026EA  600A                     bra        +0xC /* 000026F6 */
label000026EC:
000026EC  204D                     movea.l    A0, A5
000026EE  D0C7                     add.w      A0, D7
000026F0  4228 BC62                clr.b      [A0 - 0x439E]
000026F4  5247                     addq.w     D7, 1
label000026F6:
000026F6  0C47 000A                cmpi.w     D7, 0xA /* '\n' */
000026FA  6DF0                     blt        -0xE /* 000026EC */
000026FC  2E1F                     move.l     D7, [A7]+
000026FE  4E75                     rts
fn00002700:
00002700  4E56 0000                link       A6, 0
00002704  204D                     movea.l    A0, A5
00002706  D0EE 0008                add.w      A0, [A6 + 0x8]
0000270A  7000                     moveq.l    D0, 0x00
0000270C  1028 EFBE                move.b     D0, [A0 - 0x1042]
00002710  0240 001F                andi.w     D0, 0x1F
00002714  4E5E                     unlink     A6
00002716  4E75                     rts
fn00002718:
00002718  4E56 0000                link       A6, 0
0000271C  48E7 0108                movem.l    -[A7], D7,A4
00002720  49ED EFBE                lea.l      A4, [A5 - 0x1042]
00002724  D8EE 0008                add.w      A4, [A6 + 0x8]
00002728  1E14                     move.b     D7, [A4]
0000272A  0207 00E0                andi.b     D7, 0xE0
0000272E  701F                     moveq.l    D0, 0x1F
00002730  C02E 000B                and.b      D0, [A6 + 0xB]
00002734  8E00                     or.b       D7, D0
00002736  1887                     move.b     [A4], D7
00002738  4CDF 1080                movem.l    D7,A4, [A7]+
0000273C  4E5E                     unlink     A6
0000273E  4E75                     rts
fn00002740:
00002740  4E56 0000                link       A6, 0
00002744  204D                     movea.l    A0, A5
00002746  D0EE 0008                add.w      A0, [A6 + 0x8]
0000274A  7000                     moveq.l    D0, 0x00
0000274C  1028 EEBE                move.b     D0, [A0 - 0x1142]
00002750  0240 001F                andi.w     D0, 0x1F
00002754  4E5E                     unlink     A6
00002756  4E75                     rts
fn00002758:
00002758  4E56 0000                link       A6, 0
0000275C  204D                     movea.l    A0, A5
0000275E  D0EE 0008                add.w      A0, [A6 + 0x8]
00002762  4A28 EEBE                tst.b      [A0 - 0x1142]
00002766  5AC0                     spl        D0
00002768  4400                     neg.b      D0
0000276A  4E5E                     unlink     A6
0000276C  4E75                     rts
fn0000276E:
0000276E  4E56 0000                link       A6, 0
00002772  2F07                     move.l     -[A7], D7
00002774  204D                     movea.l    A0, A5
00002776  D0EE 0008                add.w      A0, [A6 + 0x8]
0000277A  7E00                     moveq.l    D7, 0x00
0000277C  1E28 EEBE                move.b     D7, [A0 - 0x1142]
00002780  0247 0060                andi.w     D7, 0x60 /* '`' */
00002784  EA47                     asr        D7.w, 5
00002786  204D                     movea.l    A0, A5
00002788  D0EE 0008                add.w      A0, [A6 + 0x8]
0000278C  7000                     moveq.l    D0, 0x00
0000278E  1028 EFBE                move.b     D0, [A0 - 0x1042]
00002792  0240 00E0                andi.w     D0, 0xE0
00002796  E640                     asr        D0.w, 3
00002798  DE40                     add.w      D7, D0
0000279A  3007                     move.w     D0, D7
0000279C  2E1F                     move.l     D7, [A7]+
0000279E  4E5E                     unlink     A6
000027A0  4E75                     rts
export_138:
fn000027A2:
000027A2  4E56 FFFE                link       A6, -0x0002
000027A6  2F07                     move.l     -[A7], D7
000027A8  7000                     moveq.l    D0, 0x00
000027AA  102D BAE9                move.b     D0, [A5 - 0x4517]
000027AE  3F00                     move.w     -[A7], D0
000027B0  4EBA 040E                jsr        [PC + 0x40E /* 00002BC0 */]
000027B4  4A6E 000A                tst.w      [A6 + 0xA]
000027B8  548F                     addq.l     A7, 2
000027BA  660A                     bne        +0xC /* 000027C6 */
000027BC  7000                     moveq.l    D0, 0x00
000027BE  102D BA94                move.b     D0, [A5 - 0x456C]
000027C2  3D40 000A                move.w     [A6 + 0xA], D0
label000027C6:
000027C6  7000                     moveq.l    D0, 0x00
000027C8  102D BA95                move.b     D0, [A5 - 0x456B]
000027CC  3F00                     move.w     -[A7], D0
000027CE  4EBA FF30                jsr        [PC - 0xD0 /* 00002700 */]
000027D2  1E00                     move.b     D7, D0
000027D4  0C07 001F                cmpi.b     D7, 0x1F
000027D8  548F                     addq.l     A7, 2
000027DA  6758                     beq        +0x5A /* 00002834 */
000027DC  3F3C 0005                move.w     -[A7], 0x5
000027E0  7000                     moveq.l    D0, 0x00
000027E2  102D BA95                move.b     D0, [A5 - 0x456B]
000027E6  3F00                     move.w     -[A7], D0
000027E8  4EBA FF2E                jsr        [PC - 0xD2 /* 00002718 */]
000027EC  0C07 0002                cmpi.b     D7, 0x2
000027F0  588F                     addq.l     A7, 4
000027F2  6C30                     bge        +0x32 /* 00002824 */
000027F4  3F3C 0001                move.w     -[A7], 0x1
000027F8  7000                     moveq.l    D0, 0x00
000027FA  102D BAE9                move.b     D0, [A5 - 0x4517]
000027FE  3F00                     move.w     -[A7], D0
00002800  3F2D BAEA                move.w     -[A7], [A5 - 0x4516]
00002804  4EBA FE26                jsr        [PC - 0x1DA /* 0000262C */]
00002808  4EBA F452                jsr        [PC - 0xBAE /* 00001C5C */]
0000280C  3B7C 0001 BA56           move.w     [A5 - 0x45AA], 0x1
00002812  4A6E 0008                tst.w      [A6 + 0x8]
00002816  5C8F                     addq.l     A7, 6
00002818  670A                     beq        +0xC /* 00002824 */
0000281A  3F3C 0003                move.w     -[A7], 0x3
0000281E  4EAD 03CA                jsr        [A5 + 0x3CA /* export_117, CODE:3 @ 000007B0 */]
00002822  548F                     addq.l     A7, 2
label00002824:
00002824  3F2E 000A                move.w     -[A7], [A6 + 0xA]
00002828  7000                     moveq.l    D0, 0x00
0000282A  102D BA95                move.b     D0, [A5 - 0x456B]
0000282E  3F00                     move.w     -[A7], D0
00002830  4EBA FD7E                jsr        [PC - 0x282 /* 000025B0 */]
label00002834:
00002834  2E2E FFFA                move.l     D7, [A6 - 0x6]
00002838  4E5E                     unlink     A6
0000283A  4E75                     rts
export_139:
0000283C  7000                     moveq.l    D0, 0x00
0000283E  102D BAE9                move.b     D0, [A5 - 0x4517]
00002842  3F00                     move.w     -[A7], D0
00002844  4EBA 037A                jsr        [PC + 0x37A /* 00002BC0 */]
00002848  0C2D 000F BA94           cmpi.b     [A5 - 0x456C], 0xF
0000284E  548F                     addq.l     A7, 2
00002850  661E                     bne        +0x20 /* 00002870 */
00002852  7000                     moveq.l    D0, 0x00
00002854  102D BAE9                move.b     D0, [A5 - 0x4517]
00002858  D0AD BD82                add.l      D0, [A5 - 0x427E]
0000285C  2040                     movea.l    A0, D0
0000285E  10BC 0001                move.b     [A0], 0x1
00002862  2F3C 0001 000E           move.l     -[A7], 0x1000E
00002868  4EBA FF38                jsr        [PC - 0xC8 /* 000027A2 */]
0000286C  588F                     addq.l     A7, 4
0000286E  6032                     bra        +0x34 /* 000028A2 */
label00002870:
00002870  0C2D 0006 BA94           cmpi.b     [A5 - 0x456C], 0x6
00002876  6708                     beq        +0xA /* 00002880 */
00002878  0C2D 0005 BA94           cmpi.b     [A5 - 0x456C], 0x5
0000287E  6622                     bne        +0x24 /* 000028A2 */
label00002880:
00002880  7000                     moveq.l    D0, 0x00
00002882  102D BAE9                move.b     D0, [A5 - 0x4517]
00002886  D0AD BD82                add.l      D0, [A5 - 0x427E]
0000288A  2040                     movea.l    A0, D0
0000288C  10BC 0005                move.b     [A0], 0x5
00002890  7000                     moveq.l    D0, 0x00
00002892  102D BA94                move.b     D0, [A5 - 0x456C]
00002896  3F00                     move.w     -[A7], D0
00002898  3F3C 0001                move.w     -[A7], 0x1
0000289C  4EBA FF04                jsr        [PC - 0xFC /* 000027A2 */]
000028A0  588F                     addq.l     A7, 4
label000028A2:
000028A2  4E75                     rts
fn000028A4:
000028A4  2F07                     move.l     -[A7], D7
000028A6  4A2D BCE8                tst.b      [A5 - 0x4318]
000028AA  6D32                     blt        +0x34 /* 000028DE */
000028AC  7000                     moveq.l    D0, 0x00
000028AE  102D BA95                move.b     D0, [A5 - 0x456B]
000028B2  3F00                     move.w     -[A7], D0
000028B4  4EBA FE4A                jsr        [PC - 0x1B6 /* 00002700 */]
000028B8  3E00                     move.w     D7, D0
000028BA  70FF                     moveq.l    D0, 0xFFFFFFFF
000028BC  D047                     add.w      D0, D7
000028BE  3E80                     move.w     [A7], D0
000028C0  7000                     moveq.l    D0, 0x00
000028C2  102D BA95                move.b     D0, [A5 - 0x456B]
000028C6  3F00                     move.w     -[A7], D0
000028C8  4EBA FE4E                jsr        [PC - 0x1B2 /* 00002718 */]
000028CC  0C47 0002                cmpi.w     D7, 0x2
000028D0  588F                     addq.l     A7, 4
000028D2  6C0A                     bge        +0xC /* 000028DE */
000028D4  1B7C 00FF BCE8           move.b     [A5 - 0x4318], 0xFF
000028DA  4EBA F380                jsr        [PC - 0xC80 /* 00001C5C */]
label000028DE:
000028DE  2E1F                     move.l     D7, [A7]+
000028E0  4E75                     rts
export_140:
000028E2  4E56 0000                link       A6, 0
000028E6  306E 000A                movea.w    A0, [A6 + 0xA]
000028EA  D1ED BD86                add.l      A0, [A5 - 0x427A]
000028EE  10BC 002B                move.b     [A0], 0x2B /* '+' */
000028F2  3F3C 0003                move.w     -[A7], 0x3
000028F6  3F2E 000A                move.w     -[A7], [A6 + 0xA]
000028FA  3F2E 0008                move.w     -[A7], [A6 + 0x8]
000028FE  4EBA FD2C                jsr        [PC - 0x2D4 /* 0000262C */]
00002902  4E5E                     unlink     A6
00002904  4E75                     rts
fn00002906:
00002906  1B7C 00FF BCE8           move.b     [A5 - 0x4318], 0xFF
0000290C  4EBA F36C                jsr        [PC - 0xC94 /* 00001C7A */]
00002910  4E75                     rts
fn00002912:
00002912  48E7 0700                movem.l    -[A7], D5,D6,D7
00002916  4A2D BCE8                tst.b      [A5 - 0x4318]
0000291A  6D00 00B8                blt        +0xBA /* 000029D4 */
0000291E  522D BA95                addq.b     [A5 - 0x456B], 1
00002922  7E00                     moveq.l    D7, 0x00
00002924  1E2D BA95                move.b     D7, [A5 - 0x456B]
00002928  4A07                     tst.b      D7
0000292A  6A34                     bpl        +0x36 /* 00002960 */
0000292C  0C6D 000D A90C           cmpi.w     [A5 - 0x56F4], 0xD /* '\r' */
00002932  6700 00A4                beq        +0xA6 /* 000029D8 */
00002936  707F                     moveq.l    D0, 0x7F
00002938  C047                     and.w      D0, D7
0000293A  5940                     subq.w     D0, 4
0000293C  6D18                     blt        +0x1A /* 00002956 */
0000293E  422D BA95                clr.b      [A5 - 0x456B]
00002942  1B7C 00FF BCE8           move.b     [A5 - 0x4318], 0xFF
00002948  3F3C 0001                move.w     -[A7], 0x1
0000294C  4EBA 0090                jsr        [PC + 0x90 /* 000029DE */]
00002950  548F                     addq.l     A7, 2
00002952  6000 0080                bra        +0x82 /* 000029D4 */
label00002956:
00002956  4267                     clr.w      -[A7]
00002958  4EBA 0084                jsr        [PC + 0x84 /* 000029DE */]
0000295C  548F                     addq.l     A7, 2
0000295E  6074                     bra        +0x76 /* 000029D4 */
label00002960:
00002960  0C2D 000B BA95           cmpi.b     [A5 - 0x456B], 0xB
00002966  6564                     bcs        +0x66 /* 000029CC */
00002968  7E00                     moveq.l    D7, 0x00
0000296A  1E2D BCE7                move.b     D7, [A5 - 0x4319]
0000296E  7C00                     moveq.l    D6, 0x00
00002970  1C2D BCE6                move.b     D6, [A5 - 0x431A]
00002974  206D BD82                movea.l    A0, [A5 - 0x427E]
00002978  4230 6000                clr.b      [A0 + D6.w]
0000297C  206D BD86                movea.l    A0, [A5 - 0x427A]
00002980  102D B944                move.b     D0, [A5 - 0x46BC]
00002984  1180 6000                move.b     [A0 + D6.w], D0
00002988  1B40 BA95                move.b     [A5 - 0x456B], D0
0000298C  1B7C 00FF BCE8           move.b     [A5 - 0x4318], 0xFF
00002992  2206                     move.l     D1, D6
00002994  48C1                     ext.l      D1
00002996  83FC 000A                divs.w     D1, 0xA /* '\n' */
0000299A  4841                     swap.w     D1
0000299C  E509                     lsl        D1.b, 2
0000299E  1B41 BD66                move.b     [A5 - 0x429A], D1
000029A2  2A06                     move.l     D5, D6
000029A4  48C5                     ext.l      D5
000029A6  8BFC 000A                divs.w     D5, 0xA /* '\n' */
000029AA  204D                     movea.l    A0, A5
000029AC  D0C5                     add.w      A0, D5
000029AE  D0C5                     add.w      A0, D5
000029B0  1B68 B659 BD67           move.b     [A5 - 0x4299], [A0 - 0x49A7]
000029B6  1B47 BD68                move.b     [A5 - 0x4298], D7
000029BA  422D BD69                clr.b      [A5 - 0x4297]
000029BE  422D BD6A                clr.b      [A5 - 0x4296]
000029C2  1B45 BD6B                move.b     [A5 - 0x4295], D5
000029C6  4EBA 01D0                jsr        [PC + 0x1D0 /* 00002B98 */]
000029CA  6008                     bra        +0xA /* 000029D4 */
label000029CC:
000029CC  4267                     clr.w      -[A7]
000029CE  4EBA 000E                jsr        [PC + 0xE /* 000029DE */]
000029D2  548F                     addq.l     A7, 2
label000029D4:
000029D4  4EBA F2A4                jsr        [PC - 0xD5C /* 00001C7A */]
label000029D8:
000029D8  4CDF 00E0                movem.l    D5,D6,D7, [A7]+
000029DC  4E75                     rts
fn000029DE:
000029DE  4E56 0000                link       A6, 0
000029E2  2F07                     move.l     -[A7], D7
000029E4  4A6E 0008                tst.w      [A6 + 0x8]
000029E8  6614                     bne        +0x16 /* 000029FE */
000029EA  7000                     moveq.l    D0, 0x00
000029EC  102D BA95                move.b     D0, [A5 - 0x456B]
000029F0  0240 007F                andi.w     D0, 0x7F
000029F4  204D                     movea.l    A0, A5
000029F6  D0C0                     add.w      A0, D0
000029F8  4A28 B598                tst.b      [A0 - 0x4A68]
000029FC  6726                     beq        +0x28 /* 00002A24 */
label000029FE:
000029FE  3F3C 0002                move.w     -[A7], 0x2
00002A02  4EAD 0072                jsr        [A5 + 0x72 /* export_10, CODE:2 @ 0000223A */]
00002A06  7E14                     moveq.l    D7, 0x14
00002A08  DE40                     add.w      D7, D0
00002A0A  BE6D BA60                cmp.w      D7, [A5 - 0x45A0]
00002A0E  548F                     addq.l     A7, 2
00002A10  67EC                     beq        -0x12 /* 000029FE */
00002A12  4A2D 965A                tst.b      [A5 - 0x69A6]
00002A16  6704                     beq        +0x6 /* 00002A1C */
00002A18  3B47 BA60                move.w     [A5 - 0x45A0], D7
label00002A1C:
00002A1C  3F07                     move.w     -[A7], D7
00002A1E  4EAD 03CA                jsr        [A5 + 0x3CA /* export_117, CODE:3 @ 000007B0 */]
00002A22  548F                     addq.l     A7, 2
label00002A24:
00002A24  2E1F                     move.l     D7, [A7]+
00002A26  4E5E                     unlink     A6
00002A28  4E75                     rts
export_141:
00002A2A  4E56 0000                link       A6, 0
00002A2E  2F0C                     move.l     -[A7], A4
00002A30  7000                     moveq.l    D0, 0x00
00002A32  102D BAE9                move.b     D0, [A5 - 0x4517]
00002A36  D0AD BD82                add.l      D0, [A5 - 0x427E]
00002A3A  2040                     movea.l    A0, D0
00002A3C  0810 0005                btst.b     [A0], 0x5
00002A40  662C                     bne        +0x2E /* 00002A6E */
00002A42  7000                     moveq.l    D0, 0x00
00002A44  102D BAE9                move.b     D0, [A5 - 0x4517]
00002A48  D0AD BD86                add.l      D0, [A5 - 0x427A]
00002A4C  2840                     movea.l    A4, D0
00002A4E  4A14                     tst.b      [A4]
00002A50  6E1C                     bgt        +0x1E /* 00002A6E */
00002A52  18AE 0008                move.b     [A4], [A6 + 0x8]
00002A56  4267                     clr.w      -[A7]
00002A58  7000                     moveq.l    D0, 0x00
00002A5A  102D BAE9                move.b     D0, [A5 - 0x4517]
00002A5E  3F00                     move.w     -[A7], D0
00002A60  3F2D BAEA                move.w     -[A7], [A5 - 0x4516]
00002A64  4EBA FBC6                jsr        [PC - 0x43A /* 0000262C */]
00002A68  4EBA F210                jsr        [PC - 0xDF0 /* 00001C7A */]
00002A6C  5C8F                     addq.l     A7, 6
label00002A6E:
00002A6E  285F                     movea.l    A4, [A7]+
00002A70  4E5E                     unlink     A6
00002A72  4E75                     rts
export_142:
fn00002A74:
00002A74  48E7 1F00                movem.l    -[A7], D3,D4,D5,D6,D7
00002A78  7C0F                     moveq.l    D6, 0x0F
00002A7A  0C2D 0003 B94B           cmpi.b     [A5 - 0x46B5], 0x3
00002A80  6476                     bcc        +0x78 /* 00002AF8 */
00002A82  102D B94F                move.b     D0, [A5 - 0x46B1]
00002A86  4880                     ext.w      D0
00002A88  3F00                     move.w     -[A7], D0
00002A8A  4EBA 2712                jsr        [PC + 0x2712 /* 0000519E */]
00002A8E  102D B94B                move.b     D0, [A5 - 0x46B5]
00002A92  4880                     ext.w      D0
00002A94  204D                     movea.l    A0, A5
00002A96  D0C0                     add.w      A0, D0
00002A98  D0C0                     add.w      A0, D0
00002A9A  3A28 B646                move.w     D5, [A0 - 0x49BA]
00002A9E  7800                     moveq.l    D4, 0x00
00002AA0  548F                     addq.l     A7, 2
00002AA2  604E                     bra        +0x50 /* 00002AF2 */
label00002AA4:
00002AA4  3F05                     move.w     -[A7], D5
00002AA6  4EBA 0118                jsr        [PC + 0x118 /* 00002BC0 */]
00002AAA  0C2D 0012 BA94           cmpi.b     [A5 - 0x456C], 0x12
00002AB0  548F                     addq.l     A7, 2
00002AB2  663A                     bne        +0x3C /* 00002AEE */
00002AB4  767F                     moveq.l    D3, 0x7F
00002AB6  C62D BA95                and.b      D3, [A5 - 0x456B]
00002ABA  4A03                     tst.b      D3
00002ABC  6706                     beq        +0x8 /* 00002AC4 */
00002ABE  0C03 0006                cmpi.b     D3, 0x6
00002AC2  652A                     bcs        +0x2C /* 00002AEE */
label00002AC4:
00002AC4  7000                     moveq.l    D0, 0x00
00002AC6  102D BA95                move.b     D0, [A5 - 0x456B]
00002ACA  0240 0080                andi.w     D0, 0x80
00002ACE  7200                     moveq.l    D1, 0x00
00002AD0  1206                     move.b     D1, D6
00002AD2  8041                     or.w       D0, D1
00002AD4  3F00                     move.w     -[A7], D0
00002AD6  3F05                     move.w     -[A7], D5
00002AD8  102D B94F                move.b     D0, [A5 - 0x46B1]
00002ADC  4880                     ext.w      D0
00002ADE  3F00                     move.w     -[A7], D0
00002AE0  4EBA F986                jsr        [PC - 0x67A /* 00002468 */]
00002AE4  1E86                     move.b     [A7], D6
00002AE6  4EBA 0016                jsr        [PC + 0x16 /* 00002AFE */]
00002AEA  1C00                     move.b     D6, D0
00002AEC  5C8F                     addq.l     A7, 6
label00002AEE:
00002AEE  5245                     addq.w     D5, 1
00002AF0  5244                     addq.w     D4, 1
label00002AF2:
00002AF2  0C44 000A                cmpi.w     D4, 0xA /* '\n' */
00002AF6  6DAC                     blt        -0x52 /* 00002AA4 */
label00002AF8:
00002AF8  4CDF 00F8                movem.l    D3,D4,D5,D6,D7, [A7]+
00002AFC  4E75                     rts
fn00002AFE:
00002AFE  4E56 0000                link       A6, 0
00002B02  2F07                     move.l     -[A7], D7
00002B04  1E2E 0008                move.b     D7, [A6 + 0x8]
00002B08  70FD                     moveq.l    D0, 0xFFFFFFFD
00002B0A  D007                     add.b      D0, D7
00002B0C  1E00                     move.b     D7, D0
00002B0E  0C07 0006                cmpi.b     D7, 0x6
00002B12  6404                     bcc        +0x6 /* 00002B18 */
00002B14  0607 000A                addi.b     D7, 0xA /* '\n' */
label00002B18:
00002B18  7000                     moveq.l    D0, 0x00
00002B1A  1007                     move.b     D0, D7
00002B1C  2E1F                     move.l     D7, [A7]+
00002B1E  4E5E                     unlink     A6
00002B20  4E75                     rts
fn00002B22:
00002B22  2F0C                     move.l     -[A7], A4
00002B24  7000                     moveq.l    D0, 0x00
00002B26  102D BAE9                move.b     D0, [A5 - 0x4517]
00002B2A  D0AD BD86                add.l      D0, [A5 - 0x427A]
00002B2E  2840                     movea.l    A4, D0
00002B30  4A14                     tst.b      [A4]
00002B32  6622                     bne        +0x24 /* 00002B56 */
00002B34  0C6D 000D A90C           cmpi.w     [A5 - 0x56F4], 0xD /* '\r' */
00002B3A  671A                     beq        +0x1C /* 00002B56 */
00002B3C  18BC 0080                move.b     [A4], 0x80
00002B40  3F3C 0001                move.w     -[A7], 0x1
00002B44  7000                     moveq.l    D0, 0x00
00002B46  102D BAE9                move.b     D0, [A5 - 0x4517]
00002B4A  3F00                     move.w     -[A7], D0
00002B4C  3F2D BAEA                move.w     -[A7], [A5 - 0x4516]
00002B50  4EBA FADA                jsr        [PC - 0x526 /* 0000262C */]
00002B54  5C8F                     addq.l     A7, 6
label00002B56:
00002B56  285F                     movea.l    A4, [A7]+
00002B58  4E75                     rts
export_143:
fn00002B5A:
00002B5A  4E56 0000                link       A6, 0
00002B5E  48E7 0700                movem.l    -[A7], D5,D6,D7
00002B62  3A2E 0008                move.w     D5, [A6 + 0x8]
00002B66  3C2E 000A                move.w     D6, [A6 + 0xA]
00002B6A  7E00                     moveq.l    D7, 0x00
00002B6C  601C                     bra        +0x1E /* 00002B8A */
label00002B6E:
00002B6E  3F06                     move.w     -[A7], D6
00002B70  3F07                     move.w     -[A7], D7
00002B72  3F05                     move.w     -[A7], D5
00002B74  4EAD 0262                jsr        [A5 + 0x262 /* export_72, CODE:3 @ 00003F6E */]
00002B78  7200                     moveq.l    D1, 0x00
00002B7A  1200                     move.b     D1, D0
00002B7C  0C41 000B                cmpi.w     D1, 0xB
00002B80  5C8F                     addq.l     A7, 6
00002B82  6604                     bne        +0x6 /* 00002B88 */
00002B84  4EBA FF9C                jsr        [PC - 0x64 /* 00002B22 */]
label00002B88:
00002B88  5247                     addq.w     D7, 1
label00002B8A:
00002B8A  0C47 000A                cmpi.w     D7, 0xA /* '\n' */
00002B8E  6DDE                     blt        -0x20 /* 00002B6E */
00002B90  4CDF 00E0                movem.l    D5,D6,D7, [A7]+
00002B94  4E5E                     unlink     A6
00002B96  4E75                     rts
fn00002B98:
00002B98  2F07                     move.l     -[A7], D7
00002B9A  3E2D BCEA                move.w     D7, [A5 - 0x4316]
00002B9E  0C47 0014                cmpi.w     D7, 0x14
00002BA2  6C18                     bge        +0x1A /* 00002BBC */
00002BA4  7006                     moveq.l    D0, 0x06
00002BA6  C1C7                     muls.w     D0, D7
00002BA8  204D                     movea.l    A0, A5
00002BAA  D1C0                     add.l      A0, D0
00002BAC  216D BD66 BCEE           move.l     [A0 - 0x4312], [A5 - 0x429A]
00002BB2  316D BD6A BCF2           move.w     [A0 - 0x430E], [A5 - 0x4296]
00002BB8  526D BCEA                addq.w     [A5 - 0x4316], 1
label00002BBC:
00002BBC  2E1F                     move.l     D7, [A7]+
00002BBE  4E75                     rts
export_144:
fn00002BC0:
00002BC0  4E56 0000                link       A6, 0
00002BC4  2F07                     move.l     -[A7], D7
00002BC6  3E2E 0008                move.w     D7, [A6 + 0x8]
00002BCA  206D BD86                movea.l    A0, [A5 - 0x427A]
00002BCE  1B70 7000 BA95           move.b     [A5 - 0x456B], [A0 + D7.w]
00002BD4  226D BD82                movea.l    A1, [A5 - 0x427E]
00002BD8  701F                     moveq.l    D0, 0x1F
00002BDA  C031 7000                and.b      D0, [A1 + D7.w]
00002BDE  1B40 BA94                move.b     [A5 - 0x456C], D0
00002BE2  2E1F                     move.l     D7, [A7]+
00002BE4  4E5E                     unlink     A6
00002BE6  4E75                     rts
export_145:
00002BE8  48E7 0308                movem.l    -[A7], D6,D7,A4
00002BEC  426D BCEC                clr.w      [A5 - 0x4314]
00002BF0  49ED BCEE                lea.l      A4, [A5 - 0x4312]
00002BF4  6022                     bra        +0x24 /* 00002C18 */
label00002BF6:
00002BF6  2B54 BD66                move.l     [A5 - 0x429A], [A4]
00002BFA  3B6C 0004 BD6A           move.w     [A5 - 0x4296], [A4 + 0x4]
00002C00  4EBA 005A                jsr        [PC + 0x5A /* 00002C5C */]
00002C04  4EBA 04DA                jsr        [PC + 0x4DA /* 000030E0 */]
00002C08  28AD BD66                move.l     [A4], [A5 - 0x429A]
00002C0C  396D BD6A 0004           move.w     [A4 + 0x4], [A5 - 0x4296]
00002C12  526D BCEC                addq.w     [A5 - 0x4314], 1
00002C16  5C8C                     addq.l     A4, 6
label00002C18:
00002C18  302D BCEC                move.w     D0, [A5 - 0x4314]
00002C1C  B06D BCEA                cmp.w      D0, [A5 - 0x4316]
00002C20  6DD4                     blt        -0x2A /* 00002BF6 */
00002C22  7E00                     moveq.l    D7, 0x00
00002C24  7C00                     moveq.l    D6, 0x00
00002C26  49ED BCEE                lea.l      A4, [A5 - 0x4312]
00002C2A  6020                     bra        +0x22 /* 00002C4C */
label00002C2C:
00002C2C  0C2C 00FF 0003           cmpi.b     [A4 + 0x3], 0xFF
00002C32  6714                     beq        +0x16 /* 00002C48 */
00002C34  7006                     moveq.l    D0, 0x06
00002C36  C1C7                     muls.w     D0, D7
00002C38  204D                     movea.l    A0, A5
00002C3A  D1C0                     add.l      A0, D0
00002C3C  2154 BCEE                move.l     [A0 - 0x4312], [A4]
00002C40  316C 0004 BCF2           move.w     [A0 - 0x430E], [A4 + 0x4]
00002C46  5247                     addq.w     D7, 1
label00002C48:
00002C48  5246                     addq.w     D6, 1
00002C4A  5C8C                     addq.l     A4, 6
label00002C4C:
00002C4C  BC6D BCEA                cmp.w      D6, [A5 - 0x4316]
00002C50  6DDA                     blt        -0x24 /* 00002C2C */
00002C52  3B47 BCEA                move.w     [A5 - 0x4316], D7
00002C56  4CDF 10C0                movem.l    D6,D7,A4, [A7]+
00002C5A  4E75                     rts
fn00002C5C:
00002C5C  4A2D BD6A                tst.b      [A5 - 0x4296]
00002C60  6604                     bne        +0x6 /* 00002C66 */
00002C62  4EBA 000E                jsr        [PC + 0xE /* 00002C72 */]
label00002C66:
00002C66  4A2D BD69                tst.b      [A5 - 0x4297]
00002C6A  6E04                     bgt        +0x6 /* 00002C70 */
00002C6C  522D BD69                addq.b     [A5 - 0x4297], 1
label00002C70:
00002C70  4E75                     rts
fn00002C72:
00002C72  4A2D BD69                tst.b      [A5 - 0x4297]
00002C76  6D00 00D4                blt        +0xD6 /* 00002D4C */
00002C7A  0C2D 001D BD69           cmpi.b     [A5 - 0x4297], 0x1D
00002C80  6C04                     bge        +0x6 /* 00002C86 */
00002C82  562D BD69                addq.b     [A5 - 0x4297], 3
label00002C86:
00002C86  102D BD69                move.b     D0, [A5 - 0x4297]
00002C8A  D12D BD67                add.b      [A5 - 0x4299], D0
00002C8E  4A2D BD68                tst.b      [A5 - 0x4298]
00002C92  6614                     bne        +0x16 /* 00002CA8 */
00002C94  0C2D 00D2 BD67           cmpi.b     [A5 - 0x4299], 0xD2
00002C9A  6500 00B0                bcs        +0xB2 /* 00002D4C */
00002C9E  1B7C 00FE BD69           move.b     [A5 - 0x4297], 0xFE
00002CA4  6000 00A6                bra        +0xA8 /* 00002D4C */
label00002CA8:
00002CA8  0C2D 00E2 BD67           cmpi.b     [A5 - 0x4299], 0xE2
00002CAE  6400 009C                bcc        +0x9E /* 00002D4C */
00002CB2  7000                     moveq.l    D0, 0x00
00002CB4  102D BD67                move.b     D0, [A5 - 0x4299]
00002CB8  7200                     moveq.l    D1, 0x00
00002CBA  122D BD6B                move.b     D1, [A5 - 0x4295]
00002CBE  204D                     movea.l    A0, A5
00002CC0  D0C1                     add.w      A0, D1
00002CC2  D0C1                     add.w      A0, D1
00002CC4  B068 B64E                cmp.w      D0, [A0 - 0x49B2]
00002CC8  6D00 0082                blt        +0x84 /* 00002D4C */
00002CCC  7000                     moveq.l    D0, 0x00
00002CCE  102D BD6B                move.b     D0, [A5 - 0x4295]
00002CD2  3F00                     move.w     -[A7], D0
00002CD4  7000                     moveq.l    D0, 0x00
00002CD6  102D BD66                move.b     D0, [A5 - 0x429A]
00002CDA  E440                     asr        D0.w, 2
00002CDC  3F00                     move.w     -[A7], D0
00002CDE  7000                     moveq.l    D0, 0x00
00002CE0  102D BD68                move.b     D0, [A5 - 0x4298]
00002CE4  3F00                     move.w     -[A7], D0
00002CE6  4EAD 0262                jsr        [A5 + 0x262 /* export_72, CODE:3 @ 00003F6E */]
00002CEA  7200                     moveq.l    D1, 0x00
00002CEC  1200                     move.b     D1, D0
00002CEE  3B41 BA3E                move.w     [A5 - 0x45C2], D1
00002CF2  0C41 000B                cmpi.w     D1, 0xB
00002CF6  5C8F                     addq.l     A7, 6
00002CF8  6604                     bne        +0x6 /* 00002CFE */
00002CFA  4EBA 015E                jsr        [PC + 0x15E /* 00002E5A */]
label00002CFE:
00002CFE  4A6D BA3E                tst.w      [A5 - 0x45C2]
00002D02  6708                     beq        +0xA /* 00002D0C */
00002D04  0C6D 000B BA3E           cmpi.w     [A5 - 0x45C2], 0xB
00002D0A  6606                     bne        +0x8 /* 00002D12 */
label00002D0C:
00002D0C  4EBA 01FA                jsr        [PC + 0x1FA /* 00002F08 */]
00002D10  603A                     bra        +0x3C /* 00002D4C */
label00002D12:
00002D12  3F3C 0002                move.w     -[A7], 0x2
00002D16  4EAD 03CA                jsr        [A5 + 0x3CA /* export_117, CODE:3 @ 000007B0 */]
00002D1A  7000                     moveq.l    D0, 0x00
00002D1C  102D BD6B                move.b     D0, [A5 - 0x4295]
00002D20  3E80                     move.w     [A7], D0
00002D22  7000                     moveq.l    D0, 0x00
00002D24  102D BD68                move.b     D0, [A5 - 0x4298]
00002D28  3F00                     move.w     -[A7], D0
00002D2A  4EBA FE2E                jsr        [PC - 0x1D2 /* 00002B5A */]
00002D2E  7000                     moveq.l    D0, 0x00
00002D30  102D BD6B                move.b     D0, [A5 - 0x4295]
00002D34  204D                     movea.l    A0, A5
00002D36  D0C0                     add.w      A0, D0
00002D38  D0C0                     add.w      A0, D0
00002D3A  1B68 B64F BD67           move.b     [A5 - 0x4299], [A0 - 0x49B1]
00002D40  1B7C 00FE BD69           move.b     [A5 - 0x4297], 0xFE
00002D46  4EBA 0006                jsr        [PC + 0x6 /* 00002D4E */]
00002D4A  588F                     addq.l     A7, 4
label00002D4C:
00002D4C  4E75                     rts
fn00002D4E:
00002D4E  48E7 0300                movem.l    -[A7], D6,D7
00002D52  7E00                     moveq.l    D7, 0x00
00002D54  7000                     moveq.l    D0, 0x00
00002D56  102D BD6B                move.b     D0, [A5 - 0x4295]
00002D5A  3F00                     move.w     -[A7], D0
00002D5C  7000                     moveq.l    D0, 0x00
00002D5E  102D BD66                move.b     D0, [A5 - 0x429A]
00002D62  E440                     asr        D0.w, 2
00002D64  3F00                     move.w     -[A7], D0
00002D66  7000                     moveq.l    D0, 0x00
00002D68  102D BD68                move.b     D0, [A5 - 0x4298]
00002D6C  3F00                     move.w     -[A7], D0
00002D6E  4EAD 0262                jsr        [A5 + 0x262 /* export_72, CODE:3 @ 00003F6E */]
00002D72  7C00                     moveq.l    D6, 0x00
00002D74  1C00                     move.b     D6, D0
00002D76  3006                     move.w     D0, D6
00002D78  0C40 001E                cmpi.w     D0, 0x1E
00002D7C  5C8F                     addq.l     A7, 6
00002D7E  6200 0096                bhi        +0x98 /* 00002E16 */
00002D82  43FA 0098                lea.l      A1, [PC + 0x98 /* 00002E1C, value 0xFFFAFFB2 */]
00002D86  D040                     add.w      D0, D0
00002D88  D2F1 0000                add.w      A1, [A1 + D0.w]
00002D8C  4ED1                     jmp        [A1]
00002D8E  7000                     moveq.l    D0, 0x00
00002D90  102D BAE9                move.b     D0, [A5 - 0x4517]
00002D94  D0AD BD82                add.l      D0, [A5 - 0x427E]
00002D98  2040                     movea.l    A0, D0
00002D9A  10BC 000E                move.b     [A0], 0xE
00002D9E  7E0E                     moveq.l    D7, 0x0E
00002DA0  3F07                     move.w     -[A7], D7
00002DA2  3F3C 0001                move.w     -[A7], 0x1
00002DA6  4EBA F9FA                jsr        [PC - 0x606 /* 000027A2 */]
00002DAA  7000                     moveq.l    D0, 0x00
00002DAC  102D BD6B                move.b     D0, [A5 - 0x4295]
00002DB0  3E80                     move.w     [A7], D0
00002DB2  7000                     moveq.l    D0, 0x00
00002DB4  102D BD66                move.b     D0, [A5 - 0x429A]
00002DB8  E440                     asr        D0.w, 2
00002DBA  3F00                     move.w     -[A7], D0
00002DBC  7000                     moveq.l    D0, 0x00
00002DBE  102D BD68                move.b     D0, [A5 - 0x4298]
00002DC2  3F00                     move.w     -[A7], D0
00002DC4  4EAD 0262                jsr        [A5 + 0x262 /* export_72, CODE:3 @ 00003F6E */]
00002DC8  7C00                     moveq.l    D6, 0x00
00002DCA  1C00                     move.b     D6, D0
00002DCC  508F                     addq.l     A7, 8
00002DCE  0C46 0013                cmpi.w     D6, 0x13
00002DD2  6706                     beq        +0x8 /* 00002DDA */
00002DD4  0C46 001E                cmpi.w     D6, 0x1E
00002DD8  6612                     bne        +0x14 /* 00002DEC */
label00002DDA:
00002DDA  7000                     moveq.l    D0, 0x00
00002DDC  102D BAE9                move.b     D0, [A5 - 0x4517]
00002DE0  D0AD BD82                add.l      D0, [A5 - 0x427E]
00002DE4  2040                     movea.l    A0, D0
00002DE6  10BC 001E                move.b     [A0], 0x1E
00002DEA  6010                     bra        +0x12 /* 00002DFC */
label00002DEC:
00002DEC  7000                     moveq.l    D0, 0x00
00002DEE  102D BAE9                move.b     D0, [A5 - 0x4517]
00002DF2  D0AD BD82                add.l      D0, [A5 - 0x427E]
00002DF6  2040                     movea.l    A0, D0
00002DF8  10BC 000E                move.b     [A0], 0xE
label00002DFC:
00002DFC  4EBA 00C2                jsr        [PC + 0xC2 /* 00002EC0 */]
00002E00  4A6D BAEC                tst.w      [A5 - 0x4514]
00002E04  6710                     beq        +0x12 /* 00002E16 */
00002E06  7000                     moveq.l    D0, 0x00
00002E08  102D BAE9                move.b     D0, [A5 - 0x4517]
00002E0C  5340                     subq.w     D0, 1
00002E0E  3F00                     move.w     -[A7], D0
00002E10  4EBA F48C                jsr        [PC - 0xB74 /* 0000229E */]
00002E14  548F                     addq.l     A7, 2
label00002E16:
00002E16  4CDF 00C0                movem.l    D6,D7, [A7]+
00002E1A  4E75                     rts
00002E1C  FFFA                     .invalid   <<F/7/7>>
00002E1E  FFB2                     .invalid   <<F/6/7>>
00002E20  FFB2                     .invalid   <<F/6/7>>
00002E22  FFFA                     .invalid   <<F/7/7>>
00002E24  FFFA                     .invalid   <<F/7/7>>
00002E26  FFFA                     .invalid   <<F/7/7>>
00002E28  FF84                     .invalid   <<F/6/7>>
00002E2A  FFFA                     .invalid   <<F/7/7>>
00002E2C  FFFA                     .invalid   <<F/7/7>>
00002E2E  FFFA                     .invalid   <<F/7/7>>
00002E30  FFB2                     .invalid   <<F/6/7>>
00002E32  FFFA                     .invalid   <<F/7/7>>
00002E34  FFFA                     .invalid   <<F/7/7>>
00002E36  FFFA                     .invalid   <<F/7/7>>
00002E38  FFFA                     .invalid   <<F/7/7>>
00002E3A  FF72                     .extension 0xF72 <<F/4-5/7>> // unimplemented
00002E3C  FFFA                     .invalid   <<F/7/7>>
00002E3E  FFFA                     .invalid   <<F/7/7>>
00002E40  FFFA                     .invalid   <<F/7/7>>
00002E42  FFB2                     .invalid   <<F/6/7>>
00002E44  FFFA                     .invalid   <<F/7/7>>
00002E46  FFFA                     .invalid   <<F/7/7>>
00002E48  FFFA                     .invalid   <<F/7/7>>
00002E4A  FFFA                     .invalid   <<F/7/7>>
00002E4C  FFFA                     .invalid   <<F/7/7>>
00002E4E  FFFA                     .invalid   <<F/7/7>>
00002E50  FFFA                     .invalid   <<F/7/7>>
00002E52  FFFA                     .invalid   <<F/7/7>>
00002E54  FFFA                     .invalid   <<F/7/7>>
00002E56  FFFA                     .invalid   <<F/7/7>>
00002E58  FFB2                     .invalid   <<F/6/7>>
fn00002E5A:
00002E5A  2F07                     move.l     -[A7], D7
00002E5C  7E00                     moveq.l    D7, 0x00
00002E5E  1E2D BAE9                move.b     D7, [A5 - 0x4517]
00002E62  206D BD82                movea.l    A0, [A5 - 0x427E]
00002E66  4230 7800                clr.b      [A0 + D7]
00002E6A  206D BD86                movea.l    A0, [A5 - 0x427A]
00002E6E  11AD B944 7800           move.b     [A0 + D7], [A5 - 0x46BC]
00002E74  102D BD69                move.b     D0, [A5 - 0x4297]
00002E78  4880                     ext.w      D0
00002E7A  E240                     asr        D0.w, 1
00002E7C  1B40 BD69                move.b     [A5 - 0x4297], D0
00002E80  7006                     moveq.l    D0, 0x06
00002E82  C1ED BCEC                muls.w     D0, [A5 - 0x4314]
00002E86  204D                     movea.l    A0, A5
00002E88  D1C0                     add.l      A0, D0
00002E8A  216D BD66 BCEE           move.l     [A0 - 0x4312], [A5 - 0x429A]
00002E90  316D BD6A BCF2           move.w     [A0 - 0x430E], [A5 - 0x4296]
00002E96  5C2D BD67                addq.b     [A5 - 0x4299], 6
00002E9A  4EBA 006C                jsr        [PC + 0x6C /* 00002F08 */]
00002E9E  4EBA FCF8                jsr        [PC - 0x308 /* 00002B98 */]
00002EA2  7006                     moveq.l    D0, 0x06
00002EA4  C1ED BCEC                muls.w     D0, [A5 - 0x4314]
00002EA8  204D                     movea.l    A0, A5
00002EAA  D1C0                     add.l      A0, D0
00002EAC  2B68 BCEE BD66           move.l     [A5 - 0x429A], [A0 - 0x4312]
00002EB2  3B68 BCF2 BD6A           move.w     [A5 - 0x4296], [A0 - 0x430E]
00002EB8  4EBA 0006                jsr        [PC + 0x6 /* 00002EC0 */]
00002EBC  2E1F                     move.l     D7, [A7]+
00002EBE  4E75                     rts
fn00002EC0:
00002EC0  7000                     moveq.l    D0, 0x00
00002EC2  102D BD68                move.b     D0, [A5 - 0x4298]
00002EC6  B06D BA6A                cmp.w      D0, [A5 - 0x4596]
00002ECA  663A                     bne        +0x3C /* 00002F06 */
00002ECC  3B7C 0020 BD6C           move.w     [A5 - 0x4294], 0x20 /* ' ' */
00002ED2  7000                     moveq.l    D0, 0x00
00002ED4  102D BAE9                move.b     D0, [A5 - 0x4517]
00002ED8  3F00                     move.w     -[A7], D0
00002EDA  4EBA F462                jsr        [PC - 0xB9E /* 0000233E */]
00002EDE  7000                     moveq.l    D0, 0x00
00002EE0  102D BAE9                move.b     D0, [A5 - 0x4517]
00002EE4  5240                     addq.w     D0, 1
00002EE6  48C0                     ext.l      D0
00002EE8  81FC 000A                divs.w     D0, 0xA /* '\n' */
00002EEC  4840                     swap.w     D0
00002EEE  0C40 000A                cmpi.w     D0, 0xA /* '\n' */
00002EF2  548F                     addq.l     A7, 2
00002EF4  6C10                     bge        +0x12 /* 00002F06 */
00002EF6  7000                     moveq.l    D0, 0x00
00002EF8  102D BAE9                move.b     D0, [A5 - 0x4517]
00002EFC  5240                     addq.w     D0, 1
00002EFE  3F00                     move.w     -[A7], D0
00002F00  4EBA F43C                jsr        [PC - 0xBC4 /* 0000233E */]
00002F04  548F                     addq.l     A7, 2
label00002F06:
00002F06  4E75                     rts
fn00002F08:
00002F08  522D BD6B                addq.b     [A5 - 0x4295], 1
00002F0C  0C2D 0003 BD6B           cmpi.b     [A5 - 0x4295], 0x3
00002F12  651E                     bcs        +0x20 /* 00002F32 */
00002F14  042D 00C0 BD67           subi.b     [A5 - 0x4299], 0xC0
00002F1A  422D BD6B                clr.b      [A5 - 0x4295]
00002F1E  7000                     moveq.l    D0, 0x00
00002F20  102D BD68                move.b     D0, [A5 - 0x4298]
00002F24  204D                     movea.l    A0, A5
00002F26  48C0                     ext.l      D0
00002F28  E588                     lsl        D0, 2
00002F2A  D1C0                     add.l      A0, D0
00002F2C  1B68 F0BD BD68           move.b     [A5 - 0x4298], [A0 - 0xF43]
label00002F32:
00002F32  4E75                     rts
fn00002F34:
00002F34  48E7 0108                movem.l    -[A7], D7,A4
00002F38  7E00                     moveq.l    D7, 0x00
00002F3A  49ED BCEE                lea.l      A4, [A5 - 0x4312]
00002F3E  6012                     bra        +0x14 /* 00002F52 */
label00002F40:
00002F40  2B54 BD66                move.l     [A5 - 0x429A], [A4]
00002F44  3B6C 0004 BD6A           move.w     [A5 - 0x4296], [A4 + 0x4]
00002F4A  4EBA 0012                jsr        [PC + 0x12 /* 00002F5E */]
00002F4E  5247                     addq.w     D7, 1
00002F50  5C8C                     addq.l     A4, 6
label00002F52:
00002F52  BE6D BCEA                cmp.w      D7, [A5 - 0x4316]
00002F56  6DE8                     blt        -0x16 /* 00002F40 */
00002F58  4CDF 1080                movem.l    D7,A4, [A7]+
00002F5C  4E75                     rts
fn00002F5E:
00002F5E  48E7 1F00                movem.l    -[A7], D3,D4,D5,D6,D7
00002F62  7E00                     moveq.l    D7, 0x00
00002F64  1E2D BD67                move.b     D7, [A5 - 0x4299]
00002F68  3C07                     move.w     D6, D7
00002F6A  7A00                     moveq.l    D5, 0x00
00002F6C  1A2D BD68                move.b     D5, [A5 - 0x4298]
00002F70  BA6D BA6A                cmp.w      D5, [A5 - 0x4596]
00002F74  660C                     bne        +0xE /* 00002F82 */
00002F76  0C2D 00D2 BD67           cmpi.b     [A5 - 0x4299], 0xD2
00002F7C  6400 00A2                bcc        +0xA4 /* 00003020 */
00002F80  6038                     bra        +0x3A /* 00002FBA */
label00002F82:
00002F82  BA6D BA72                cmp.w      D5, [A5 - 0x458E]
00002F86  661E                     bne        +0x20 /* 00002FA6 */
00002F88  0C46 0012                cmpi.w     D6, 0x12
00002F8C  6C00 0092                bge        +0x94 /* 00003020 */
00002F90  0C46 FFEE                cmpi.w     D6, 0xFFEE
00002F94  6F00 008A                ble        +0x8C /* 00003020 */
00002F98  062D 00C0 BD67           addi.b     [A5 - 0x4299], 0xC0
00002F9E  7C00                     moveq.l    D6, 0x00
00002FA0  1C2D BD67                move.b     D6, [A5 - 0x4299]
00002FA4  6014                     bra        +0x16 /* 00002FBA */
label00002FA6:
00002FA6  BA6D BA70                cmp.w      D5, [A5 - 0x4590]
00002FAA  6674                     bne        +0x76 /* 00003020 */
00002FAC  0C2D 00AE BD67           cmpi.b     [A5 - 0x4299], 0xAE
00002FB2  656C                     bcs        +0x6E /* 00003020 */
00002FB4  3C07                     move.w     D6, D7
00002FB6  0646 FF43                addi.w     D6, 0xFF43
label00002FBA:
00002FBA  7E00                     moveq.l    D7, 0x00
00002FBC  1E2D BD66                move.b     D7, [A5 - 0x429A]
00002FC0  E447                     asr        D7.w, 2
00002FC2  3F06                     move.w     -[A7], D6
00002FC4  4EAD 02BA                jsr        [A5 + 0x2BA /* export_83, CODE:3 @ 0000445E */]
00002FC8  3A00                     move.w     D5, D0
00002FCA  3E85                     move.w     [A7], D5
00002FCC  3F07                     move.w     -[A7], D7
00002FCE  4EAD 0272                jsr        [A5 + 0x272 /* export_74, CODE:3 @ 00004088 */]
00002FD2  1B40 BAF0                move.b     [A5 - 0x4510], D0
00002FD6  5247                     addq.w     D7, 1
00002FD8  3E85                     move.w     [A7], D5
00002FDA  3F07                     move.w     -[A7], D7
00002FDC  4EAD 026A                jsr        [A5 + 0x26A /* export_73, CODE:3 @ 00004044 */]
00002FE0  3800                     move.w     D4, D0
00002FE2  3E84                     move.w     [A7], D4
00002FE4  4EBA F24C                jsr        [PC - 0xDB4 /* 00002232 */]
00002FE8  3E84                     move.w     [A7], D4
00002FEA  4EBA F2E8                jsr        [PC - 0xD18 /* 000022D4 */]
00002FEE  70EE                     moveq.l    D0, 0xFFFFFFEE
00002FF0  D046                     add.w      D0, D6
00002FF2  3E80                     move.w     [A7], D0
00002FF4  4EAD 02BA                jsr        [A5 + 0x2BA /* export_83, CODE:3 @ 0000445E */]
00002FF8  3600                     move.w     D3, D0
00002FFA  BA43                     cmp.w      D5, D3
00002FFC  5C8F                     addq.l     A7, 6
00002FFE  6718                     beq        +0x1A /* 00003018 */
00003000  3F03                     move.w     -[A7], D3
00003002  3F07                     move.w     -[A7], D7
00003004  4EAD 026A                jsr        [A5 + 0x26A /* export_73, CODE:3 @ 00004044 */]
00003008  3800                     move.w     D4, D0
0000300A  3E84                     move.w     [A7], D4
0000300C  4EBA F224                jsr        [PC - 0xDDC /* 00002232 */]
00003010  3E84                     move.w     [A7], D4
00003012  4EBA F2C0                jsr        [PC - 0xD40 /* 000022D4 */]
00003016  588F                     addq.l     A7, 4
label00003018:
00003018  3F06                     move.w     -[A7], D6
0000301A  4EBA 000A                jsr        [PC + 0xA /* 00003026 */]
0000301E  548F                     addq.l     A7, 2
label00003020:
00003020  4CDF 00F8                movem.l    D3,D4,D5,D6,D7, [A7]+
00003024  4E75                     rts
fn00003026:
00003026  4E56 0000                link       A6, 0
0000302A  48E7 0108                movem.l    -[A7], D7,A4
0000302E  3E2D BDA4                move.w     D7, [A5 - 0x425C]
00003032  0C47 0032                cmpi.w     D7, 0x32 /* '2' */
00003036  6C68                     bge        +0x6A /* 000030A0 */
00003038  7014                     moveq.l    D0, 0x14
0000303A  C1C7                     muls.w     D0, D7
0000303C  49ED E2C2                lea.l      A4, [A5 - 0x1D3E]
00003040  D08C                     add.l      D0, A4
00003042  2840                     movea.l    A4, D0
00003044  38BC 0006                move.w     [A4], 0x6
00003048  397C 000A 0002           move.w     [A4 + 0x2], 0xA /* '\n' */
0000304E  196D BD66 0004           move.b     [A4 + 0x4], [A5 - 0x429A]
00003054  422C 0005                clr.b      [A4 + 0x5]
00003058  396E 0008 0006           move.w     [A4 + 0x6], [A6 + 0x8]
0000305E  422C 0008                clr.b      [A4 + 0x8]
00003062  197C 00FF 0009           move.b     [A4 + 0x9], 0xFF
00003068  7080                     moveq.l    D0, 0xFFFFFF80
0000306A  802D BD6A                or.b       D0, [A5 - 0x4296]
0000306E  1940 000A                move.b     [A4 + 0xA], D0
00003072  196D BAF0 000B           move.b     [A4 + 0xB], [A5 - 0x4510]
00003078  396D A5CC 000C           move.w     [A4 + 0xC], [A5 - 0x5A34]
0000307E  396D A5CE 000E           move.w     [A4 + 0xE], [A5 - 0x5A32]
00003084  396D A5D0 0010           move.w     [A4 + 0x10], [A5 - 0x5A30]
0000308A  396D A5D2 0012           move.w     [A4 + 0x12], [A5 - 0x5A2E]
00003090  102D BAF0                move.b     D0, [A5 - 0x4510]
00003094  4880                     ext.w      D0
00003096  3F00                     move.w     -[A7], D0
00003098  4EBA F306                jsr        [PC - 0xCFA /* 000023A0 */]
0000309C  526D BDA4                addq.w     [A5 - 0x425C], 1
label000030A0:
000030A0  4CEE 1080 FFF8           movem.l    D7,A4, [A6 - 0x8]
000030A6  4E5E                     unlink     A6
000030A8  4E75                     rts
export_146:
fn000030AA:
000030AA  2F07                     move.l     -[A7], D7
000030AC  7000                     moveq.l    D0, 0x00
000030AE  102D BAE9                move.b     D0, [A5 - 0x4517]
000030B2  D0AD BD86                add.l      D0, [A5 - 0x427A]
000030B6  2040                     movea.l    A0, D0
000030B8  1E10                     move.b     D7, [A0]
000030BA  4A07                     tst.b      D7
000030BC  6706                     beq        +0x8 /* 000030C4 */
000030BE  0C07 00FF                cmpi.b     D7, 0xFF
000030C2  6604                     bne        +0x6 /* 000030C8 */
label000030C4:
000030C4  7000                     moveq.l    D0, 0x00
000030C6  6014                     bra        +0x16 /* 000030DC */
label000030C8:
000030C8  4A07                     tst.b      D7
000030CA  6C04                     bge        +0x6 /* 000030D0 */
000030CC  7001                     moveq.l    D0, 0x01
000030CE  600C                     bra        +0xE /* 000030DC */
label000030D0:
000030D0  0C07 0005                cmpi.b     D7, 0x5
000030D4  6C04                     bge        +0x6 /* 000030DA */
000030D6  7002                     moveq.l    D0, 0x02
000030D8  6002                     bra        +0x4 /* 000030DC */
label000030DA:
000030DA  7000                     moveq.l    D0, 0x00
label000030DC:
000030DC  2E1F                     move.l     D7, [A7]+
000030DE  4E75                     rts
fn000030E0:
000030E0  4EAD 02C2                jsr        [A5 + 0x2C2 /* export_84, CODE:3 @ 0000447C */]
000030E4  7000                     moveq.l    D0, 0x00
000030E6  102D BD68                move.b     D0, [A5 - 0x4298]
000030EA  122D B94F                move.b     D1, [A5 - 0x46B1]
000030EE  4881                     ext.w      D1
000030F0  B240                     cmp.w      D1, D0
000030F2  6638                     bne        +0x3A /* 0000312C */
000030F4  7000                     moveq.l    D0, 0x00
000030F6  102D BD66                move.b     D0, [A5 - 0x429A]
000030FA  E440                     asr        D0.w, 2
000030FC  122D B94A                move.b     D1, [A5 - 0x46B6]
00003100  4881                     ext.w      D1
00003102  B240                     cmp.w      D1, D0
00003104  6626                     bne        +0x28 /* 0000312C */
00003106  102D BD67                move.b     D0, [A5 - 0x4299]
0000310A  B02D B948                cmp.b      D0, [A5 - 0x46B8]
0000310E  641C                     bcc        +0x1E /* 0000312C */
00003110  7000                     moveq.l    D0, 0x00
00003112  102D BD67                move.b     D0, [A5 - 0x4299]
00003116  7200                     moveq.l    D1, 0x00
00003118  122D B948                move.b     D1, [A5 - 0x46B8]
0000311C  0641 FFE2                addi.w     D1, 0xFFE2
00003120  B240                     cmp.w      D1, D0
00003122  6C08                     bge        +0xA /* 0000312C */
00003124  4EBA 0008                jsr        [PC + 0x8 /* 0000312E */]
00003128  4EAD 02CA                jsr        [A5 + 0x2CA /* export_85, CODE:3 @ 00004490 */]
label0000312C:
0000312C  4E75                     rts
fn0000312E:
0000312E  48E7 0300                movem.l    -[A7], D6,D7
00003132  7E00                     moveq.l    D7, 0x00
00003134  1E2D B946                move.b     D7, [A5 - 0x46BA]
00003138  1C2D B94C                move.b     D6, [A5 - 0x46B4]
0000313C  4886                     ext.w      D6
0000313E  0C6D 000D A90C           cmpi.w     [A5 - 0x56F4], 0xD /* '\r' */
00003144  670C                     beq        +0xE /* 00003152 */
00003146  0C47 0005                cmpi.w     D7, 0x5
0000314A  6D06                     blt        +0x8 /* 00003152 */
0000314C  0C47 000F                cmpi.w     D7, 0xF
00003150  6D5C                     blt        +0x5E /* 000031AE */
label00003152:
00003152  0C46 0002                cmpi.w     D6, 0x2
00003156  6D06                     blt        +0x8 /* 0000315E */
00003158  0C46 0007                cmpi.w     D6, 0x7
0000315C  6650                     bne        +0x52 /* 000031AE */
label0000315E:
0000315E  102D B94B                move.b     D0, [A5 - 0x46B5]
00003162  4880                     ext.w      D0
00003164  204D                     movea.l    A0, A5
00003166  D0C0                     add.w      A0, D0
00003168  D0C0                     add.w      A0, D0
0000316A  1B68 B671 B948           move.b     [A5 - 0x46B8], [A0 - 0x498F]
00003170  3F3C 0001                move.w     -[A7], 0x1
00003174  4EAD 02EA                jsr        [A5 + 0x2EA /* export_89, CODE:3 @ 00004702 */]
00003178  4A40                     tst.w      D0
0000317A  548F                     addq.l     A7, 2
0000317C  6720                     beq        +0x22 /* 0000319E */
0000317E  3F3C 0016                move.w     -[A7], 0x16
00003182  4EBA CE7C                jsr        [PC - 0x3184 /* 00000000 */]
00003186  0C47 00B1                cmpi.w     D7, 0xB1
0000318A  548F                     addq.l     A7, 2
0000318C  6620                     bne        +0x22 /* 000031AE */
0000318E  3F3C FFF4                move.w     -[A7], 0xFFF4
00003192  4EAD 029A                jsr        [A5 + 0x29A /* export_79, CODE:3 @ 000041FE */]
00003196  1B40 B947                move.b     [A5 - 0x46B9], D0
0000319A  548F                     addq.l     A7, 2
0000319C  6010                     bra        +0x12 /* 000031AE */
label0000319E:
0000319E  0C47 006D                cmpi.w     D7, 0x6D /* 'm' */
000031A2  670A                     beq        +0xC /* 000031AE */
000031A4  3F3C 0034                move.w     -[A7], 0x34 /* '4' */
000031A8  4EBA CE56                jsr        [PC - 0x31AA /* 00000000 */]
000031AC  548F                     addq.l     A7, 2
label000031AE:
000031AE  4CDF 00C0                movem.l    D6,D7, [A7]+
000031B2  4E75                     rts
fn000031B4:
000031B4  4E56 0000                link       A6, 0
000031B8  48E7 0700                movem.l    -[A7], D5,D6,D7
000031BC  7E00                     moveq.l    D7, 0x00
000031BE  1E2D BCE6                move.b     D7, [A5 - 0x431A]
000031C2  7C00                     moveq.l    D6, 0x00
000031C4  1C2D BCE7                move.b     D6, [A5 - 0x4319]
000031C8  7A00                     moveq.l    D5, 0x00
000031CA  0C6D 0003 A90C           cmpi.w     [A5 - 0x56F4], 0x3
000031D0  660A                     bne        +0xC /* 000031DC */
000031D2  0C46 0002                cmpi.w     D6, 0x2
000031D6  6604                     bne        +0x6 /* 000031DC */
000031D8  7A01                     moveq.l    D5, 0x01
000031DA  6032                     bra        +0x34 /* 0000320E */
label000031DC:
000031DC  BC6D BA6C                cmp.w      D6, [A5 - 0x4594]
000031E0  6614                     bne        +0x16 /* 000031F6 */
000031E2  2007                     move.l     D0, D7
000031E4  48C0                     ext.l      D0
000031E6  81FC 000A                divs.w     D0, 0xA /* '\n' */
000031EA  4840                     swap.w     D0
000031EC  0C40 0009                cmpi.w     D0, 0x9 /* '\t' */
000031F0  661C                     bne        +0x1E /* 0000320E */
000031F2  7A01                     moveq.l    D5, 0x01
000031F4  6018                     bra        +0x1A /* 0000320E */
label000031F6:
000031F6  BC6D BA6A                cmp.w      D6, [A5 - 0x4596]
000031FA  6612                     bne        +0x14 /* 0000320E */
000031FC  2007                     move.l     D0, D7
000031FE  48C0                     ext.l      D0
00003200  81FC 000A                divs.w     D0, 0xA /* '\n' */
00003204  4840                     swap.w     D0
00003206  0C40 0009                cmpi.w     D0, 0x9 /* '\t' */
0000320A  6702                     beq        +0x4 /* 0000320E */
0000320C  7A01                     moveq.l    D5, 0x01
label0000320E:
0000320E  4A45                     tst.w      D5
00003210  670A                     beq        +0xC /* 0000321C */
00003212  3F2E 0008                move.w     -[A7], [A6 + 0x8]
00003216  4EAD 03CA                jsr        [A5 + 0x3CA /* export_117, CODE:3 @ 000007B0 */]
0000321A  548F                     addq.l     A7, 2
label0000321C:
0000321C  4CDF 00E0                movem.l    D5,D6,D7, [A7]+
00003220  4E5E                     unlink     A6
00003222  4E75                     rts
export_147:
00003224  426D BDA4                clr.w      [A5 - 0x425C]
00003228  426D BDA2                clr.w      [A5 - 0x425E]
0000322C  426D BDA0                clr.w      [A5 - 0x4260]
00003230  426D BD9E                clr.w      [A5 - 0x4262]
00003234  426D BD9C                clr.w      [A5 - 0x4264]
00003238  41ED 04CA                lea.l      A0, [A5 + 0x4CA /* export_149, CODE:4 @ 00004376 */]
0000323C  2B48 BD70                move.l     [A5 - 0x4290], A0
00003240  4EBA 1E4E                jsr        [PC + 0x1E4E /* 00005090 */]
00003244  4EAD 02DA                jsr        [A5 + 0x2DA /* export_87, CODE:3 @ 00004564 */]
00003248  4EBA 011C                jsr        [PC + 0x11C /* 00003366 */]
0000324C  4EBA F44C                jsr        [PC - 0xBB4 /* 0000269A */]
00003250  4E75                     rts
export_148:
fn00003252:
00003252  48E7 1F08                movem.l    -[A7], D3,D4,D5,D6,D7,A4
00003256  3E2D BA6A                move.w     D7, [A5 - 0x4596]
0000325A  426D BA7A                clr.w      [A5 - 0x4586]
0000325E  426D BA78                clr.w      [A5 - 0x4588]
00003262  426D BA76                clr.w      [A5 - 0x458A]
00003266  426D BA74                clr.w      [A5 - 0x458C]
0000326A  7600                     moveq.l    D3, 0x00
0000326C  3803                     move.w     D4, D3
0000326E  3A03                     move.w     D5, D3
00003270  3C03                     move.w     D6, D3
00003272  4A47                     tst.w      D7
00003274  6700 00DA                beq        +0xDC /* 00003350 */
00003278  3F07                     move.w     -[A7], D7
0000327A  4EBA 1F22                jsr        [PC + 0x1F22 /* 0000519E */]
0000327E  2007                     move.l     D0, D7
00003280  48C0                     ext.l      D0
00003282  E588                     lsl        D0, 2
00003284  49ED F0BA                lea.l      A4, [A5 - 0xF46]
00003288  D08C                     add.l      D0, A4
0000328A  2840                     movea.l    A4, D0
0000328C  7C00                     moveq.l    D6, 0x00
0000328E  1C14                     move.b     D6, [A4]
00003290  7A00                     moveq.l    D5, 0x00
00003292  1A2C 0001                move.b     D5, [A4 + 0x1]
00003296  7800                     moveq.l    D4, 0x00
00003298  182C 0002                move.b     D4, [A4 + 0x2]
0000329C  7600                     moveq.l    D3, 0x00
0000329E  162C 0003                move.b     D3, [A4 + 0x3]
000032A2  4A44                     tst.w      D4
000032A4  548F                     addq.l     A7, 2
000032A6  6722                     beq        +0x24 /* 000032CA */
000032A8  2004                     move.l     D0, D4
000032AA  48C0                     ext.l      D0
000032AC  E588                     lsl        D0, 2
000032AE  49ED F0BA                lea.l      A4, [A5 - 0xF46]
000032B2  D08C                     add.l      D0, A4
000032B4  2840                     movea.l    A4, D0
000032B6  7000                     moveq.l    D0, 0x00
000032B8  1014                     move.b     D0, [A4]
000032BA  3B40 BA74                move.w     [A5 - 0x458C], D0
000032BE  7200                     moveq.l    D1, 0x00
000032C0  122C 0001                move.b     D1, [A4 + 0x1]
000032C4  3B41 BA76                move.w     [A5 - 0x458A], D1
000032C8  6030                     bra        +0x32 /* 000032FA */
label000032CA:
000032CA  4A46                     tst.w      D6
000032CC  6714                     beq        +0x16 /* 000032E2 */
000032CE  204D                     movea.l    A0, A5
000032D0  2006                     move.l     D0, D6
000032D2  48C0                     ext.l      D0
000032D4  E588                     lsl        D0, 2
000032D6  D1C0                     add.l      A0, D0
000032D8  7000                     moveq.l    D0, 0x00
000032DA  1028 F0BC                move.b     D0, [A0 - 0xF44]
000032DE  3B40 BA74                move.w     [A5 - 0x458C], D0
label000032E2:
000032E2  4A45                     tst.w      D5
000032E4  6714                     beq        +0x16 /* 000032FA */
000032E6  204D                     movea.l    A0, A5
000032E8  2005                     move.l     D0, D5
000032EA  48C0                     ext.l      D0
000032EC  E588                     lsl        D0, 2
000032EE  D1C0                     add.l      A0, D0
000032F0  7000                     moveq.l    D0, 0x00
000032F2  1028 F0BC                move.b     D0, [A0 - 0xF44]
000032F6  3B40 BA76                move.w     [A5 - 0x458A], D0
label000032FA:
000032FA  4A43                     tst.w      D3
000032FC  6722                     beq        +0x24 /* 00003320 */
000032FE  2003                     move.l     D0, D3
00003300  48C0                     ext.l      D0
00003302  E588                     lsl        D0, 2
00003304  49ED F0BA                lea.l      A4, [A5 - 0xF46]
00003308  D08C                     add.l      D0, A4
0000330A  2840                     movea.l    A4, D0
0000330C  7000                     moveq.l    D0, 0x00
0000330E  1014                     move.b     D0, [A4]
00003310  3B40 BA78                move.w     [A5 - 0x4588], D0
00003314  7200                     moveq.l    D1, 0x00
00003316  122C 0001                move.b     D1, [A4 + 0x1]
0000331A  3B41 BA7A                move.w     [A5 - 0x4586], D1
0000331E  6030                     bra        +0x32 /* 00003350 */
label00003320:
00003320  4A46                     tst.w      D6
00003322  6714                     beq        +0x16 /* 00003338 */
00003324  204D                     movea.l    A0, A5
00003326  2006                     move.l     D0, D6
00003328  48C0                     ext.l      D0
0000332A  E588                     lsl        D0, 2
0000332C  D1C0                     add.l      A0, D0
0000332E  7000                     moveq.l    D0, 0x00
00003330  1028 F0BD                move.b     D0, [A0 - 0xF43]
00003334  3B40 BA78                move.w     [A5 - 0x4588], D0
label00003338:
00003338  4A45                     tst.w      D5
0000333A  6714                     beq        +0x16 /* 00003350 */
0000333C  204D                     movea.l    A0, A5
0000333E  2005                     move.l     D0, D5
00003340  48C0                     ext.l      D0
00003342  E588                     lsl        D0, 2
00003344  D1C0                     add.l      A0, D0
00003346  7000                     moveq.l    D0, 0x00
00003348  1028 F0BD                move.b     D0, [A0 - 0xF43]
0000334C  3B40 BA7A                move.w     [A5 - 0x4586], D0
label00003350:
00003350  3B46 BA6C                move.w     [A5 - 0x4594], D6
00003354  3B45 BA6E                move.w     [A5 - 0x4592], D5
00003358  3B44 BA70                move.w     [A5 - 0x4590], D4
0000335C  3B43 BA72                move.w     [A5 - 0x458E], D3
00003360  4CDF 10F8                movem.l    D3,D4,D5,D6,D7,A4, [A7]+
00003364  4E75                     rts
fn00003366:
00003366  48E7 0300                movem.l    -[A7], D6,D7
0000336A  4EBA 0352                jsr        [PC + 0x352 /* 000036BE */]
0000336E  3B7C 00BC F226           move.w     [A5 - 0xDDA], 0xBC
00003374  3B7C 00BF F224           move.w     [A5 - 0xDDC], 0xBF
0000337A  7E02                     moveq.l    D7, 0x02
0000337C  602E                     bra        +0x30 /* 000033AC */
label0000337E:
0000337E  3B47 F21E                move.w     [A5 - 0xDE2], D7
00003382  4EBA 03A0                jsr        [PC + 0x3A0 /* 00003724 */]
00003386  7C00                     moveq.l    D6, 0x00
00003388  600E                     bra        +0x10 /* 00003398 */
label0000338A:
0000338A  3B46 F220                move.w     [A5 - 0xDE0], D6
0000338E  4EBA 02BE                jsr        [PC + 0x2BE /* 0000364E */]
00003392  4EBA 005E                jsr        [PC + 0x5E /* 000033F2 */]
00003396  5246                     addq.w     D6, 1
label00003398:
00003398  0C46 000A                cmpi.w     D6, 0xA /* '\n' */
0000339C  6DEC                     blt        -0x12 /* 0000338A */
0000339E  046D 003F F226           subi.w     [A5 - 0xDDA], 0x3F /* '?' */
000033A4  046D 003F F224           subi.w     [A5 - 0xDDC], 0x3F /* '?' */
000033AA  5347                     subq.w     D7, 1
label000033AC:
000033AC  4A47                     tst.w      D7
000033AE  6CCE                     bge        -0x30 /* 0000337E */
000033B0  3E2D BA6A                move.w     D7, [A5 - 0x4596]
000033B4  3B6D BA70 BA6A           move.w     [A5 - 0x4596], [A5 - 0x4590]
000033BA  4EBA FE96                jsr        [PC - 0x16A /* 00003252 */]
000033BE  4EBA 02FE                jsr        [PC + 0x2FE /* 000036BE */]
000033C2  3B7C 0002 F21E           move.w     [A5 - 0xDE2], 0x2
000033C8  4EBA 035A                jsr        [PC + 0x35A /* 00003724 */]
000033CC  7C00                     moveq.l    D6, 0x00
000033CE  600E                     bra        +0x10 /* 000033DE */
label000033D0:
000033D0  3B46 F220                move.w     [A5 - 0xDE0], D6
000033D4  4EBA 0278                jsr        [PC + 0x278 /* 0000364E */]
000033D8  4EBA 0044                jsr        [PC + 0x44 /* 0000341E */]
000033DC  5246                     addq.w     D6, 1
label000033DE:
000033DE  0C46 000A                cmpi.w     D6, 0xA /* '\n' */
000033E2  6DEC                     blt        -0x12 /* 000033D0 */
000033E4  3B47 BA6A                move.w     [A5 - 0x4596], D7
000033E8  4EBA FE68                jsr        [PC - 0x198 /* 00003252 */]
000033EC  4CDF 00C0                movem.l    D6,D7, [A7]+
000033F0  4E75                     rts
fn000033F2:
000033F2  4EBA 03E2                jsr        [PC + 0x3E2 /* 000037D6 */]
000033F6  4EBA 04EE                jsr        [PC + 0x4EE /* 000038E6 */]
000033FA  4EBA 05C6                jsr        [PC + 0x5C6 /* 000039C2 */]
000033FE  4EBA 0806                jsr        [PC + 0x806 /* 00003C06 */]
00003402  4267                     clr.w      -[A7]
00003404  4EBA 090A                jsr        [PC + 0x90A /* 00003D10 */]
00003408  4257                     clr.w      [A7]
0000340A  4EBA 09AE                jsr        [PC + 0x9AE /* 00003DBA */]
0000340E  4EBA 0A04                jsr        [PC + 0xA04 /* 00003E14 */]
00003412  4EBA 0A98                jsr        [PC + 0xA98 /* 00003EAC */]
00003416  4EBA 0C2E                jsr        [PC + 0xC2E /* 00004046 */]
0000341A  548F                     addq.l     A7, 2
0000341C  4E75                     rts
fn0000341E:
0000341E  4EBA 03B6                jsr        [PC + 0x3B6 /* 000037D6 */]
00003422  4EBA 04C2                jsr        [PC + 0x4C2 /* 000038E6 */]
00003426  4EBA 059A                jsr        [PC + 0x59A /* 000039C2 */]
0000342A  4267                     clr.w      -[A7]
0000342C  4EBA 08E2                jsr        [PC + 0x8E2 /* 00003D10 */]
00003430  4257                     clr.w      [A7]
00003432  4EBA 0986                jsr        [PC + 0x986 /* 00003DBA */]
00003436  4EBA 0C0E                jsr        [PC + 0xC0E /* 00004046 */]
0000343A  548F                     addq.l     A7, 2
0000343C  4E75                     rts
fn0000343E:
0000343E  4E56 0000                link       A6, 0
00003442  48E7 0318                movem.l    -[A7], D6,D7,A3,A4
00003446  3E2E 0008                move.w     D7, [A6 + 0x8]
0000344A  49ED BB90                lea.l      A4, [A5 - 0x4470]
0000344E  D8C7                     add.w      A4, D7
00003450  4A14                     tst.b      [A4]
00003452  6716                     beq        +0x18 /* 0000346A */
00003454  47ED BBAE                lea.l      A3, [A5 - 0x4452]
00003458  D6C7                     add.w      A3, D7
0000345A  1013                     move.b     D0, [A3]
0000345C  4880                     ext.w      D0
0000345E  3F00                     move.w     -[A7], D0
00003460  4EBA 1B70                jsr        [PC + 0x1B70 /* 00004FD2 */]
00003464  4214                     clr.b      [A4]
00003466  4213                     clr.b      [A3]
00003468  548F                     addq.l     A7, 2
label0000346A:
0000346A  49ED BB72                lea.l      A4, [A5 - 0x448E]
0000346E  D8C7                     add.w      A4, D7
00003470  4A14                     tst.b      [A4]
00003472  6708                     beq        +0xA /* 0000347C */
00003474  4EBA FF7C                jsr        [PC - 0x84 /* 000033F2 */]
00003478  4214                     clr.b      [A4]
0000347A  6018                     bra        +0x1A /* 00003494 */
label0000347C:
0000347C  49ED BBCC                lea.l      A4, [A5 - 0x4434]
00003480  D8C7                     add.w      A4, D7
00003482  4A14                     tst.b      [A4]
00003484  670E                     beq        +0x10 /* 00003494 */
00003486  4EBA 045E                jsr        [PC + 0x45E /* 000038E6 */]
0000348A  4EBA 077A                jsr        [PC + 0x77A /* 00003C06 */]
0000348E  4EBA 0A1C                jsr        [PC + 0xA1C /* 00003EAC */]
00003492  4214                     clr.b      [A4]
label00003494:
00003494  49ED BC08                lea.l      A4, [A5 - 0x43F8]
00003498  D8C7                     add.w      A4, D7
0000349A  4A14                     tst.b      [A4]
0000349C  6708                     beq        +0xA /* 000034A6 */
0000349E  4EBA 1DF8                jsr        [PC + 0x1DF8 /* 00005298 */]
000034A2  4214                     clr.b      [A4]
000034A4  6010                     bra        +0x12 /* 000034B6 */
label000034A6:
000034A6  49ED BC26                lea.l      A4, [A5 - 0x43DA]
000034AA  D8C7                     add.w      A4, D7
000034AC  4A14                     tst.b      [A4]
000034AE  6706                     beq        +0x8 /* 000034B6 */
000034B0  4EBA 1D28                jsr        [PC + 0x1D28 /* 000051DA */]
000034B4  4214                     clr.b      [A4]
label000034B6:
000034B6  204D                     movea.l    A0, A5
000034B8  D0C7                     add.w      A0, D7
000034BA  1C28 BC44                move.b     D6, [A0 - 0x43BC]
000034BE  49ED BC44                lea.l      A4, [A5 - 0x43BC]
000034C2  D8C7                     add.w      A4, D7
000034C4  4A06                     tst.b      D6
000034C6  671C                     beq        +0x1E /* 000034E4 */
000034C8  0C06 00FF                cmpi.b     D6, 0xFF
000034CC  660C                     bne        +0xE /* 000034DA */
000034CE  70FF                     moveq.l    D0, 0xFFFFFFFF
000034D0  D007                     add.b      D0, D7
000034D2  1F00                     move.b     -[A7], D0
000034D4  4EBA 1E5A                jsr        [PC + 0x1E5A /* 00005330 */]
000034D8  548F                     addq.l     A7, 2
label000034DA:
000034DA  1F07                     move.b     -[A7], D7
000034DC  4EBA 1E52                jsr        [PC + 0x1E52 /* 00005330 */]
000034E0  4214                     clr.b      [A4]
000034E2  548F                     addq.l     A7, 2
label000034E4:
000034E4  49ED BBEA                lea.l      A4, [A5 - 0x4416]
000034E8  D8C7                     add.w      A4, D7
000034EA  4A14                     tst.b      [A4]
000034EC  6706                     beq        +0x8 /* 000034F4 */
000034EE  4EBA 0B56                jsr        [PC + 0xB56 /* 00004046 */]
000034F2  4214                     clr.b      [A4]
label000034F4:
000034F4  4CDF 18C0                movem.l    D6,D7,A3,A4, [A7]+
000034F8  4E5E                     unlink     A6
000034FA  4E75                     rts
fn000034FC:
000034FC  4E56 0000                link       A6, 0
00003500  48E7 0108                movem.l    -[A7], D7,A4
00003504  3E2E 0008                move.w     D7, [A6 + 0x8]
00003508  49ED BC62                lea.l      A4, [A5 - 0x439E]
0000350C  D8C7                     add.w      A4, D7
0000350E  4A14                     tst.b      [A4]
00003510  672C                     beq        +0x2E /* 0000353E */
00003512  3F3C 0003                move.w     -[A7], 0x3
00003516  4EBA 1ABA                jsr        [PC + 0x1ABA /* 00004FD2 */]
0000351A  4EBA 02BA                jsr        [PC + 0x2BA /* 000037D6 */]
0000351E  4EBA 03C6                jsr        [PC + 0x3C6 /* 000038E6 */]
00003522  4EBA 049E                jsr        [PC + 0x49E /* 000039C2 */]
00003526  3EBC 0001                move.w     [A7], 0x1
0000352A  4EBA 07E4                jsr        [PC + 0x7E4 /* 00003D10 */]
0000352E  3EBC 0001                move.w     [A7], 0x1
00003532  4EBA 0886                jsr        [PC + 0x886 /* 00003DBA */]
00003536  4EBA 0B0E                jsr        [PC + 0xB0E /* 00004046 */]
0000353A  4214                     clr.b      [A4]
0000353C  548F                     addq.l     A7, 2
label0000353E:
0000353E  4CDF 1080                movem.l    D7,A4, [A7]+
00003542  4E5E                     unlink     A6
00003544  4E75                     rts
fn00003546:
00003546  4E56 0000                link       A6, 0
0000354A  48E7 0708                movem.l    -[A7], D5,D6,D7,A4
0000354E  3C2E 0008                move.w     D6, [A6 + 0x8]
00003552  3E2E 000A                move.w     D7, [A6 + 0xA]
00003556  4A47                     tst.w      D7
00003558  6C10                     bge        +0x12 /* 0000356A */
0000355A  49ED E904                lea.l      A4, [A5 - 0x16FC]
0000355E  D8C6                     add.w      A4, D6
00003560  D8C6                     add.w      A4, D6
00003562  1E14                     move.b     D7, [A4]
00003564  1C2C 0001                move.b     D6, [A4 + 0x1]
00003568  601E                     bra        +0x20 /* 00003588 */
label0000356A:
0000356A  204D                     movea.l    A0, A5
0000356C  D0C6                     add.w      A0, D6
0000356E  D0C6                     add.w      A0, D6
00003570  3A28 B646                move.w     D5, [A0 - 0x49BA]
00003574  DA47                     add.w      D5, D7
00003576  206D BD82                movea.l    A0, [A5 - 0x427E]
0000357A  7E1F                     moveq.l    D7, 0x1F
0000357C  CE30 5000                and.b      D7, [A0 + D5.w]
00003580  226D BD86                movea.l    A1, [A5 - 0x427A]
00003584  1C31 5000                move.b     D6, [A1 + D5.w]
label00003588:
00003588  0C07 0006                cmpi.b     D7, 0x6
0000358C  6614                     bne        +0x16 /* 000035A2 */
0000358E  7000                     moveq.l    D0, 0x00
00003590  1006                     move.b     D0, D6
00003592  3F00                     move.w     -[A7], D0
00003594  4EBA F16A                jsr        [PC - 0xE96 /* 00002700 */]
00003598  5340                     subq.w     D0, 1
0000359A  548F                     addq.l     A7, 2
0000359C  6F1C                     ble        +0x1E /* 000035BA */
0000359E  7E05                     moveq.l    D7, 0x05
000035A0  6018                     bra        +0x1A /* 000035BA */
label000035A2:
000035A2  0C07 000F                cmpi.b     D7, 0xF
000035A6  6612                     bne        +0x14 /* 000035BA */
000035A8  7000                     moveq.l    D0, 0x00
000035AA  1006                     move.b     D0, D6
000035AC  3F00                     move.w     -[A7], D0
000035AE  4EBA F150                jsr        [PC - 0xEB0 /* 00002700 */]
000035B2  5340                     subq.w     D0, 1
000035B4  548F                     addq.l     A7, 2
000035B6  6F02                     ble        +0x4 /* 000035BA */
000035B8  7E01                     moveq.l    D7, 0x01
label000035BA:
000035BA  1007                     move.b     D0, D7
000035BC  4CDF 10E0                movem.l    D5,D6,D7,A4, [A7]+
000035C0  4E5E                     unlink     A6
000035C2  4E75                     rts
fn000035C4:
000035C4  4E56 0000                link       A6, 0
000035C8  48E7 0738                movem.l    -[A7], D5,D6,D7,A2,A3,A4
000035CC  3C2E 0008                move.w     D6, [A6 + 0x8]
000035D0  3E2E 000A                move.w     D7, [A6 + 0xA]
000035D4  286E 000C                movea.l    A4, [A6 + 0xC]
000035D8  266E 0010                movea.l    A3, [A6 + 0x10]
000035DC  4A47                     tst.w      D7
000035DE  6C10                     bge        +0x12 /* 000035F0 */
000035E0  45ED E904                lea.l      A2, [A5 - 0x16FC]
000035E4  D4C6                     add.w      A2, D6
000035E6  D4C6                     add.w      A2, D6
000035E8  1E12                     move.b     D7, [A2]
000035EA  1C2A 0001                move.b     D6, [A2 + 0x1]
000035EE  601E                     bra        +0x20 /* 0000360E */
label000035F0:
000035F0  204D                     movea.l    A0, A5
000035F2  D0C6                     add.w      A0, D6
000035F4  D0C6                     add.w      A0, D6
000035F6  3A28 B646                move.w     D5, [A0 - 0x49BA]
000035FA  DA47                     add.w      D5, D7
000035FC  206D BD82                movea.l    A0, [A5 - 0x427E]
00003600  7E1F                     moveq.l    D7, 0x1F
00003602  CE30 5000                and.b      D7, [A0 + D5.w]
00003606  226D BD86                movea.l    A1, [A5 - 0x427A]
0000360A  1C31 5000                move.b     D6, [A1 + D5.w]
label0000360E:
0000360E  0C07 0006                cmpi.b     D7, 0x6
00003612  6614                     bne        +0x16 /* 00003628 */
00003614  7000                     moveq.l    D0, 0x00
00003616  1006                     move.b     D0, D6
00003618  3F00                     move.w     -[A7], D0
0000361A  4EBA F0E4                jsr        [PC - 0xF1C /* 00002700 */]
0000361E  5340                     subq.w     D0, 1
00003620  548F                     addq.l     A7, 2
00003622  6F1E                     ble        +0x20 /* 00003642 */
00003624  7E05                     moveq.l    D7, 0x05
00003626  601A                     bra        +0x1C /* 00003642 */
label00003628:
00003628  0C07 000F                cmpi.b     D7, 0xF
0000362C  6614                     bne        +0x16 /* 00003642 */
0000362E  7000                     moveq.l    D0, 0x00
00003630  1006                     move.b     D0, D6
00003632  3F00                     move.w     -[A7], D0
00003634  4EBA F0CA                jsr        [PC - 0xF36 /* 00002700 */]
00003638  5340                     subq.w     D0, 1
0000363A  548F                     addq.l     A7, 2
0000363C  6F04                     ble        +0x6 /* 00003642 */
0000363E  7E01                     moveq.l    D7, 0x01
00003640  7C00                     moveq.l    D6, 0x00
label00003642:
00003642  1887                     move.b     [A4], D7
00003644  1686                     move.b     [A3], D6
00003646  4CDF 1CE0                movem.l    D5,D6,D7,A2,A3,A4, [A7]+
0000364A  4E5E                     unlink     A6
0000364C  4E75                     rts
fn0000364E:
0000364E  4A6D BA6A                tst.w      [A5 - 0x4596]
00003652  6732                     beq        +0x34 /* 00003686 */
00003654  486D BA95                pea.l      [A5 - 0x456B]
00003658  486D BA94                pea.l      [A5 - 0x456C]
0000365C  3F2D F220                move.w     -[A7], [A5 - 0xDE0]
00003660  3F2D F21E                move.w     -[A7], [A5 - 0xDE2]
00003664  4EBA FF5E                jsr        [PC - 0xA2 /* 000035C4 */]
00003668  486D BA97                pea.l      [A5 - 0x4569]
0000366C  486D BA96                pea.l      [A5 - 0x456A]
00003670  70FF                     moveq.l    D0, 0xFFFFFFFF
00003672  D06D F220                add.w      D0, [A5 - 0xDE0]
00003676  3F00                     move.w     -[A7], D0
00003678  3F2D F21E                move.w     -[A7], [A5 - 0xDE2]
0000367C  4EBA FF46                jsr        [PC - 0xBA /* 000035C4 */]
00003680  4FEF 0018                lea.l      A7, [A7 + 0x18]
00003684  6026                     bra        +0x28 /* 000036AC */
label00003686:
00003686  0C6D 0002 F21E           cmpi.w     [A5 - 0xDE2], 0x2
0000368C  6C0C                     bge        +0xE /* 0000369A */
0000368E  7014                     moveq.l    D0, 0x14
00003690  1B40 BA96                move.b     [A5 - 0x456A], D0
00003694  1B40 BA94                move.b     [A5 - 0x456C], D0
00003698  600A                     bra        +0xC /* 000036A4 */
label0000369A:
0000369A  7001                     moveq.l    D0, 0x01
0000369C  1B40 BA96                move.b     [A5 - 0x456A], D0
000036A0  1B40 BA94                move.b     [A5 - 0x456C], D0
label000036A4:
000036A4  422D BA97                clr.b      [A5 - 0x4569]
000036A8  422D BA95                clr.b      [A5 - 0x456B]
label000036AC:
000036AC  302D F220                move.w     D0, [A5 - 0xDE0]
000036B0  204D                     movea.l    A0, A5
000036B2  D0C0                     add.w      A0, D0
000036B4  D0C0                     add.w      A0, D0
000036B6  3B68 B8A4 F222           move.w     [A5 - 0xDDE], [A0 - 0x475C]
000036BC  4E75                     rts
fn000036BE:
000036BE  3F2D BA6C                move.w     -[A7], [A5 - 0x4594]
000036C2  4EBA 1ADA                jsr        [PC + 0x1ADA /* 0000519E */]
000036C6  4A6D BA6C                tst.w      [A5 - 0x4594]
000036CA  548F                     addq.l     A7, 2
000036CC  673A                     beq        +0x3C /* 00003708 */
000036CE  486D E905                pea.l      [A5 - 0x16FB]
000036D2  486D E904                pea.l      [A5 - 0x16FC]
000036D6  4878 0009                push.l     0x9 /* '\t' */
000036DA  4EBA FEE8                jsr        [PC - 0x118 /* 000035C4 */]
000036DE  486D E907                pea.l      [A5 - 0x16F9]
000036E2  486D E906                pea.l      [A5 - 0x16FA]
000036E6  2F3C 0001 0009           move.l     -[A7], 0x10009
000036EC  4EBA FED6                jsr        [PC - 0x12A /* 000035C4 */]
000036F0  486D E909                pea.l      [A5 - 0x16F7]
000036F4  486D E908                pea.l      [A5 - 0x16F8]
000036F8  2F3C 0002 0009           move.l     -[A7], 0x20009
000036FE  4EBA FEC4                jsr        [PC - 0x13C /* 000035C4 */]
00003702  4FEF 0024                lea.l      A7, [A7 + 0x24]
00003706  601A                     bra        +0x1C /* 00003722 */
label00003708:
00003708  7014                     moveq.l    D0, 0x14
0000370A  1B40 E908                move.b     [A5 - 0x16F8], D0
0000370E  1B40 E906                move.b     [A5 - 0x16FA], D0
00003712  1B40 E904                move.b     [A5 - 0x16FC], D0
00003716  422D E909                clr.b      [A5 - 0x16F7]
0000371A  422D E907                clr.b      [A5 - 0x16F9]
0000371E  422D E905                clr.b      [A5 - 0x16FB]
label00003722:
00003722  4E75                     rts
fn00003724:
00003724  48E7 0708                movem.l    -[A7], D5,D6,D7,A4
00003728  0C6D 0002 F21E           cmpi.w     [A5 - 0xDE2], 0x2
0000372E  660C                     bne        +0xE /* 0000373C */
00003730  3E2D BA72                move.w     D7, [A5 - 0x458E]
00003734  3C2D BA78                move.w     D6, [A5 - 0x4588]
00003738  7A00                     moveq.l    D5, 0x00
0000373A  600E                     bra        +0x10 /* 0000374A */
label0000373C:
0000373C  3E2D BA6A                move.w     D7, [A5 - 0x4596]
00003740  3C2D BA6C                move.w     D6, [A5 - 0x4594]
00003744  7A01                     moveq.l    D5, 0x01
00003746  DA6D F21E                add.w      D5, [A5 - 0xDE2]
label0000374A:
0000374A  3F07                     move.w     -[A7], D7
0000374C  4EBA 1A50                jsr        [PC + 0x1A50 /* 0000519E */]
00003750  4A47                     tst.w      D7
00003752  548F                     addq.l     A7, 2
00003754  672A                     beq        +0x2C /* 00003780 */
00003756  7E01                     moveq.l    D7, 0x01
00003758  49ED E90C                lea.l      A4, [A5 - 0x16F4]
0000375C  601A                     bra        +0x1C /* 00003778 */
label0000375E:
0000375E  486C 0001                pea.l      [A4 + 0x1]
00003762  2F0C                     move.l     -[A7], A4
00003764  70FF                     moveq.l    D0, 0xFFFFFFFF
00003766  D047                     add.w      D0, D7
00003768  3F00                     move.w     -[A7], D0
0000376A  3F05                     move.w     -[A7], D5
0000376C  4EBA FE56                jsr        [PC - 0x1AA /* 000035C4 */]
00003770  4FEF 000C                lea.l      A7, [A7 + 0xC]
00003774  5247                     addq.w     D7, 1
00003776  548C                     addq.l     A4, 2
label00003778:
00003778  0C47 000A                cmpi.w     D7, 0xA /* '\n' */
0000377C  6DE0                     blt        -0x1E /* 0000375E */
0000377E  6018                     bra        +0x1A /* 00003798 */
label00003780:
00003780  7E01                     moveq.l    D7, 0x01
00003782  49ED E90C                lea.l      A4, [A5 - 0x16F4]
00003786  600A                     bra        +0xC /* 00003792 */
label00003788:
00003788  4214                     clr.b      [A4]
0000378A  422C 0001                clr.b      [A4 + 0x1]
0000378E  5247                     addq.w     D7, 1
00003790  548C                     addq.l     A4, 2
label00003792:
00003792  0C47 000A                cmpi.w     D7, 0xA /* '\n' */
00003796  6DF0                     blt        -0xE /* 00003788 */
label00003798:
00003798  3F06                     move.w     -[A7], D6
0000379A  4EBA 1A02                jsr        [PC + 0x1A02 /* 0000519E */]
0000379E  4A46                     tst.w      D6
000037A0  548F                     addq.l     A7, 2
000037A2  6718                     beq        +0x1A /* 000037BC */
000037A4  486D E90B                pea.l      [A5 - 0x16F5]
000037A8  486D E90A                pea.l      [A5 - 0x16F6]
000037AC  3F3C 0009                move.w     -[A7], 0x9 /* '\t' */
000037B0  3F05                     move.w     -[A7], D5
000037B2  4EBA FE10                jsr        [PC - 0x1F0 /* 000035C4 */]
000037B6  4FEF 000C                lea.l      A7, [A7 + 0xC]
000037BA  600A                     bra        +0xC /* 000037C6 */
label000037BC:
000037BC  1B7C 0014 E90A           move.b     [A5 - 0x16F6], 0x14
000037C2  422D E90B                clr.b      [A5 - 0x16F5]
label000037C6:
000037C6  3F2D BA6A                move.w     -[A7], [A5 - 0x4596]
000037CA  4EBA 19D2                jsr        [PC + 0x19D2 /* 0000519E */]
000037CE  548F                     addq.l     A7, 2
000037D0  4CDF 10E0                movem.l    D5,D6,D7,A4, [A7]+
000037D4  4E75                     rts
fn000037D6:
000037D6  4EBA 0040                jsr        [PC + 0x40 /* 00003818 */]
000037DA  4A00                     tst.b      D0
000037DC  6738                     beq        +0x3A /* 00003816 */
000037DE  4EBA 0060                jsr        [PC + 0x60 /* 00003840 */]
000037E2  7000                     moveq.l    D0, 0x00
000037E4  102D BA96                move.b     D0, [A5 - 0x456A]
000037E8  C1FC 000C                muls.w     D0, 0xC
000037EC  204D                     movea.l    A0, A5
000037EE  D1C0                     add.l      A0, D0
000037F0  4A28 B404                tst.b      [A0 - 0x4BFC]
000037F4  6720                     beq        +0x22 /* 00003816 */
000037F6  102D B411                move.b     D0, [A5 - 0x4BEF]
000037FA  4880                     ext.w      D0
000037FC  D06D F226                add.w      D0, [A5 - 0xDDA]
00003800  3F00                     move.w     -[A7], D0
00003802  4267                     clr.w      -[A7]
00003804  3F2D F222                move.w     -[A7], [A5 - 0xDDE]
00003808  2F3C 0006 002A           move.l     -[A7], 0x6002A
0000380E  4EBA 0B66                jsr        [PC + 0xB66 /* 00004376 */]
00003812  4FEF 000A                lea.l      A7, [A7 + 0xA]
label00003816:
00003816  4E75                     rts
fn00003818:
00003818  2F07                     move.l     -[A7], D7
0000381A  7E00                     moveq.l    D7, 0x00
0000381C  1E2D BA94                move.b     D7, [A5 - 0x456C]
00003820  4A47                     tst.w      D7
00003822  6712                     beq        +0x14 /* 00003836 */
00003824  0C47 0009                cmpi.w     D7, 0x9 /* '\t' */
00003828  670C                     beq        +0xE /* 00003836 */
0000382A  0C47 000C                cmpi.w     D7, 0xC
0000382E  6706                     beq        +0x8 /* 00003836 */
00003830  0C47 001A                cmpi.w     D7, 0x1A
00003834  6604                     bne        +0x6 /* 0000383A */
label00003836:
00003836  7001                     moveq.l    D0, 0x01
00003838  6002                     bra        +0x4 /* 0000383C */
label0000383A:
0000383A  7000                     moveq.l    D0, 0x00
label0000383C:
0000383C  2E1F                     move.l     D7, [A7]+
0000383E  4E75                     rts
fn00003840:
00003840  2F07                     move.l     -[A7], D7
00003842  302D F220                move.w     D0, [A5 - 0xDE0]
00003846  204D                     movea.l    A0, A5
00003848  D0C0                     add.w      A0, D0
0000384A  D0C0                     add.w      A0, D0
0000384C  1E28 E90A                move.b     D7, [A0 - 0x16F6]
00003850  0C07 0007                cmpi.b     D7, 0x7
00003854  6706                     beq        +0x8 /* 0000385C */
00003856  0C07 000C                cmpi.b     D7, 0xC
0000385A  663C                     bne        +0x3E /* 00003898 */
label0000385C:
0000385C  4A2D B944                tst.b      [A5 - 0x46BC]
00003860  6700 0080                beq        +0x82 /* 000038E2 */
00003864  3F2D F224                move.w     -[A7], [A5 - 0xDDC]
00003868  4267                     clr.w      -[A7]
0000386A  3F2D F222                move.w     -[A7], [A5 - 0xDDE]
0000386E  302D F220                move.w     D0, [A5 - 0xDE0]
00003872  204D                     movea.l    A0, A5
00003874  D0C0                     add.w      A0, D0
00003876  D0C0                     add.w      A0, D0
00003878  7200                     moveq.l    D1, 0x00
0000387A  1228 E90B                move.b     D1, [A0 - 0x16F5]
0000387E  204D                     movea.l    A0, A5
00003880  D1C1                     add.l      A0, D1
00003882  7200                     moveq.l    D1, 0x00
00003884  1228 B626                move.b     D1, [A0 - 0x49DA]
00003888  3F01                     move.w     -[A7], D1
0000388A  3F3C 0006                move.w     -[A7], 0x6
0000388E  4EBA 0AE6                jsr        [PC + 0xAE6 /* 00004376 */]
00003892  4FEF 000A                lea.l      A7, [A7 + 0xA]
00003896  604A                     bra        +0x4C /* 000038E2 */
label00003898:
00003898  0C07 0014                cmpi.b     D7, 0x14
0000389C  661A                     bne        +0x1C /* 000038B8 */
0000389E  3F2D F224                move.w     -[A7], [A5 - 0xDDC]
000038A2  4267                     clr.w      -[A7]
000038A4  3F2D F222                move.w     -[A7], [A5 - 0xDDE]
000038A8  2F3C 0007 0002           move.l     -[A7], 0x70002
000038AE  4EBA 0AC6                jsr        [PC + 0xAC6 /* 00004376 */]
000038B2  4FEF 000A                lea.l      A7, [A7 + 0xA]
000038B6  602A                     bra        +0x2C /* 000038E2 */
label000038B8:
000038B8  3F2D F224                move.w     -[A7], [A5 - 0xDDC]
000038BC  4267                     clr.w      -[A7]
000038BE  3F2D F222                move.w     -[A7], [A5 - 0xDDE]
000038C2  7000                     moveq.l    D0, 0x00
000038C4  1007                     move.b     D0, D7
000038C6  C1FC 000C                muls.w     D0, 0xC
000038CA  204D                     movea.l    A0, A5
000038CC  D1C0                     add.l      A0, D0
000038CE  7000                     moveq.l    D0, 0x00
000038D0  1028 B407                move.b     D0, [A0 - 0x4BF9]
000038D4  3F00                     move.w     -[A7], D0
000038D6  3F3C 0006                move.w     -[A7], 0x6
000038DA  4EBA 0A9A                jsr        [PC + 0xA9A /* 00004376 */]
000038DE  4FEF 000A                lea.l      A7, [A7 + 0xA]
label000038E2:
000038E2  2E1F                     move.l     D7, [A7]+
000038E4  4E75                     rts
fn000038E6:
000038E6  48E7 0308                movem.l    -[A7], D6,D7,A4
000038EA  7E00                     moveq.l    D7, 0x00
000038EC  1E2D BA94                move.b     D7, [A5 - 0x456C]
000038F0  4A47                     tst.w      D7
000038F2  670E                     beq        +0x10 /* 00003902 */
000038F4  0C47 000C                cmpi.w     D7, 0xC
000038F8  6708                     beq        +0xA /* 00003902 */
000038FA  0C47 0009                cmpi.w     D7, 0x9 /* '\t' */
000038FE  6600 00BC                bne        +0xBE /* 000039BC */
label00003902:
00003902  302D F220                move.w     D0, [A5 - 0xDE0]
00003906  49ED E90A                lea.l      A4, [A5 - 0x16F6]
0000390A  D8C0                     add.w      A4, D0
0000390C  D8C0                     add.w      A4, D0
0000390E  0C14 0004                cmpi.b     [A4], 0x4
00003912  6600 00A8                bne        +0xAA /* 000039BC */
00003916  7E00                     moveq.l    D7, 0x00
00003918  1E2C 0001                move.b     D7, [A4 + 0x1]
0000391C  0C47 00BC                cmpi.w     D7, 0xBC
00003920  6F04                     ble        +0x6 /* 00003926 */
00003922  3E3C 00BC                move.w     D7, 0xBC
label00003926:
00003926  2C07                     move.l     D6, D7
00003928  48C6                     ext.l      D6
0000392A  8DFC 0004                divs.w     D6, 0x4
0000392E  4A2D A20A                tst.b      [A5 - 0x5DF6]
00003932  6742                     beq        +0x44 /* 00003976 */
00003934  3F2D F224                move.w     -[A7], [A5 - 0xDDC]
00003938  4267                     clr.w      -[A7]
0000393A  3F2D F222                move.w     -[A7], [A5 - 0xDDE]
0000393E  2F3C 0006 0044           move.l     -[A7], 0x60044
00003944  4EBA 0A30                jsr        [PC + 0xA30 /* 00004376 */]
00003948  3EAD F224                move.w     [A7], [A5 - 0xDDC]
0000394C  4267                     clr.w      -[A7]
0000394E  3F2D F222                move.w     -[A7], [A5 - 0xDDE]
00003952  2006                     move.l     D0, D6
00003954  48C0                     ext.l      D0
00003956  81FC 0008                divs.w     D0, 0x8
0000395A  4840                     swap.w     D0
0000395C  204D                     movea.l    A0, A5
0000395E  D0C0                     add.w      A0, D0
00003960  7000                     moveq.l    D0, 0x00
00003962  1028 B5E2                move.b     D0, [A0 - 0x4A1E]
00003966  3F00                     move.w     -[A7], D0
00003968  3F3C 0006                move.w     -[A7], 0x6
0000396C  4EBA 0A08                jsr        [PC + 0xA08 /* 00004376 */]
00003970  4FEF 0012                lea.l      A7, [A7 + 0x12]
00003974  6046                     bra        +0x48 /* 000039BC */
label00003976:
00003976  3F2D F224                move.w     -[A7], [A5 - 0xDDC]
0000397A  4267                     clr.w      -[A7]
0000397C  3F2D F222                move.w     -[A7], [A5 - 0xDDE]
00003980  2F3C 0006 0034           move.l     -[A7], 0x60034
00003986  4EBA 09EE                jsr        [PC + 0x9EE /* 00004376 */]
0000398A  0C46 002D                cmpi.w     D6, 0x2D /* '-' */
0000398E  4FEF 000A                lea.l      A7, [A7 + 0xA]
00003992  6F02                     ble        +0x4 /* 00003996 */
00003994  7C2D                     moveq.l    D6, 0x2D
label00003996:
00003996  3F2D F224                move.w     -[A7], [A5 - 0xDDC]
0000399A  4267                     clr.w      -[A7]
0000399C  3F2D F222                move.w     -[A7], [A5 - 0xDDE]
000039A0  204D                     movea.l    A0, A5
000039A2  D0C6                     add.w      A0, D6
000039A4  7000                     moveq.l    D0, 0x00
000039A6  1028 B5F2                move.b     D0, [A0 - 0x4A0E]
000039AA  0640 0035                addi.w     D0, 0x35 /* '5' */
000039AE  3F00                     move.w     -[A7], D0
000039B0  3F3C 0006                move.w     -[A7], 0x6
000039B4  4EBA 09C0                jsr        [PC + 0x9C0 /* 00004376 */]
000039B8  4FEF 000A                lea.l      A7, [A7 + 0xA]
label000039BC:
000039BC  4CDF 10C0                movem.l    D6,D7,A4, [A7]+
000039C0  4E75                     rts
fn000039C2:
000039C2  48E7 0F08                movem.l    -[A7], D4,D5,D6,D7,A4
000039C6  0C2D 0014 BA94           cmpi.b     [A5 - 0x456C], 0x14
000039CC  6700 0208                beq        +0x20A /* 00003BD6 */
000039D0  1E2D BA96                move.b     D7, [A5 - 0x456A]
000039D4  1C2D BA97                move.b     D6, [A5 - 0x4569]
000039D8  7000                     moveq.l    D0, 0x00
000039DA  1007                     move.b     D0, D7
000039DC  C1FC 000C                muls.w     D0, 0xC
000039E0  49ED B400                lea.l      A4, [A5 - 0x4C00]
000039E4  D08C                     add.l      D0, A4
000039E6  2840                     movea.l    A4, D0
000039E8  1A2C 0003                move.b     D5, [A4 + 0x3]
000039EC  182C 0005                move.b     D4, [A4 + 0x5]
000039F0  7000                     moveq.l    D0, 0x00
000039F2  1007                     move.b     D0, D7
000039F4  0C40 0014                cmpi.w     D0, 0x14
000039F8  6200 0166                bhi        +0x168 /* 00003B60 */
000039FC  43FA 01DE                lea.l      A1, [PC + 0x1DE /* 00003BDC, value 0xFE2CFE6A */]
00003A00  D040                     add.w      D0, D0
00003A02  D2F1 0000                add.w      A1, [A1 + D0.w]
00003A06  4ED1                     jmp        [A1]
00003A08  0C06 0003                cmpi.b     D6, 0x3
00003A0C  6200 01C8                bhi        +0x1CA /* 00003BD6 */
00003A10  7E00                     moveq.l    D7, 0x00
00003A12  1E06                     move.b     D7, D6
00003A14  204D                     movea.l    A0, A5
00003A16  D1C7                     add.l      A0, D7
00003A18  1028 B62E                move.b     D0, [A0 - 0x49D2]
00003A1C  4880                     ext.w      D0
00003A1E  D06D F226                add.w      D0, [A5 - 0xDDA]
00003A22  3F00                     move.w     -[A7], D0
00003A24  4267                     clr.w      -[A7]
00003A26  3F2D F222                move.w     -[A7], [A5 - 0xDDE]
00003A2A  204D                     movea.l    A0, A5
00003A2C  D1C7                     add.l      A0, D7
00003A2E  7000                     moveq.l    D0, 0x00
00003A30  1028 B62A                move.b     D0, [A0 - 0x49D6]
00003A34  3F00                     move.w     -[A7], D0
00003A36  3F3C 0006                move.w     -[A7], 0x6
00003A3A  4EBA 093A                jsr        [PC + 0x93A /* 00004376 */]
00003A3E  4FEF 000A                lea.l      A7, [A7 + 0xA]
00003A42  6000 0192                bra        +0x194 /* 00003BD6 */
00003A46  1004                     move.b     D0, D4
00003A48  4880                     ext.w      D0
00003A4A  D06D F226                add.w      D0, [A5 - 0xDDA]
00003A4E  3F00                     move.w     -[A7], D0
00003A50  4267                     clr.w      -[A7]
00003A52  3F2D F222                move.w     -[A7], [A5 - 0xDDE]
00003A56  2F3C 0006 002A           move.l     -[A7], 0x6002A
00003A5C  206D BD70                movea.l    A0, [A5 - 0x4290]
00003A60  4E90                     jsr        [A0]
00003A62  0C06 0003                cmpi.b     D6, 0x3
00003A66  4FEF 000A                lea.l      A7, [A7 + 0xA]
00003A6A  6302                     bls        +0x4 /* 00003A6E */
00003A6C  7C00                     moveq.l    D6, 0x00
label00003A6E:
00003A6E  4A2D B944                tst.b      [A5 - 0x46BC]
00003A72  6634                     bne        +0x36 /* 00003AA8 */
00003A74  4A06                     tst.b      D6
00003A76  6700 015E                beq        +0x160 /* 00003BD6 */
00003A7A  70EC                     moveq.l    D0, 0xFFFFFFEC
00003A7C  D06D F226                add.w      D0, [A5 - 0xDDA]
00003A80  3F00                     move.w     -[A7], D0
00003A82  4267                     clr.w      -[A7]
00003A84  3F2D F222                move.w     -[A7], [A5 - 0xDDE]
00003A88  7000                     moveq.l    D0, 0x00
00003A8A  1006                     move.b     D0, D6
00003A8C  204D                     movea.l    A0, A5
00003A8E  D1C0                     add.l      A0, D0
00003A90  7000                     moveq.l    D0, 0x00
00003A92  1028 B632                move.b     D0, [A0 - 0x49CE]
00003A96  3F00                     move.w     -[A7], D0
00003A98  3F3C 0006                move.w     -[A7], 0x6
00003A9C  4EBA 08D8                jsr        [PC + 0x8D8 /* 00004376 */]
00003AA0  4FEF 000A                lea.l      A7, [A7 + 0xA]
00003AA4  6000 0130                bra        +0x132 /* 00003BD6 */
label00003AA8:
00003AA8  0C06 0001                cmpi.b     D6, 0x1
00003AAC  6700 0128                beq        +0x12A /* 00003BD6 */
00003AB0  7002                     moveq.l    D0, 0x02
00003AB2  D06D F226                add.w      D0, [A5 - 0xDDA]
00003AB6  3F00                     move.w     -[A7], D0
00003AB8  4267                     clr.w      -[A7]
00003ABA  3F2D F222                move.w     -[A7], [A5 - 0xDDE]
00003ABE  7000                     moveq.l    D0, 0x00
00003AC0  1006                     move.b     D0, D6
00003AC2  204D                     movea.l    A0, A5
00003AC4  D1C0                     add.l      A0, D0
00003AC6  7000                     moveq.l    D0, 0x00
00003AC8  1028 B632                move.b     D0, [A0 - 0x49CE]
00003ACC  3F00                     move.w     -[A7], D0
00003ACE  3F3C 0006                move.w     -[A7], 0x6
00003AD2  4EBA 08A2                jsr        [PC + 0x8A2 /* 00004376 */]
00003AD6  4FEF 000A                lea.l      A7, [A7 + 0xA]
00003ADA  6000 00FA                bra        +0xFC /* 00003BD6 */
00003ADE  4A2D B944                tst.b      [A5 - 0x46BC]
00003AE2  6700 00F2                beq        +0xF4 /* 00003BD6 */
00003AE6  1004                     move.b     D0, D4
00003AE8  4880                     ext.w      D0
00003AEA  D06D F226                add.w      D0, [A5 - 0xDDA]
00003AEE  3F00                     move.w     -[A7], D0
00003AF0  4267                     clr.w      -[A7]
00003AF2  3F2D F222                move.w     -[A7], [A5 - 0xDDE]
00003AF6  7000                     moveq.l    D0, 0x00
00003AF8  1006                     move.b     D0, D6
00003AFA  204D                     movea.l    A0, A5
00003AFC  D1C0                     add.l      A0, D0
00003AFE  7000                     moveq.l    D0, 0x00
00003B00  1028 B622                move.b     D0, [A0 - 0x49DE]
00003B04  3F00                     move.w     -[A7], D0
00003B06  3F3C 0006                move.w     -[A7], 0x6
00003B0A  4EBA 086A                jsr        [PC + 0x86A /* 00004376 */]
00003B0E  4FEF 000A                lea.l      A7, [A7 + 0xA]
00003B12  6000 00C2                bra        +0xC4 /* 00003BD6 */
00003B16  4A2D B944                tst.b      [A5 - 0x46BC]
00003B1A  6724                     beq        +0x26 /* 00003B40 */
00003B1C  4A06                     tst.b      D6
00003B1E  6B20                     bmi        +0x22 /* 00003B40 */
00003B20  70E5                     moveq.l    D0, 0xFFFFFFE5
00003B22  D06D F226                add.w      D0, [A5 - 0xDDA]
00003B26  3F00                     move.w     -[A7], D0
00003B28  4267                     clr.w      -[A7]
00003B2A  7003                     moveq.l    D0, 0x03
00003B2C  D06D F222                add.w      D0, [A5 - 0xDDE]
00003B30  3F00                     move.w     -[A7], D0
00003B32  2F3C 0006 0054           move.l     -[A7], 0x60054
00003B38  4EBA 083C                jsr        [PC + 0x83C /* 00004376 */]
00003B3C  4FEF 000A                lea.l      A7, [A7 + 0xA]
label00003B40:
00003B40  1004                     move.b     D0, D4
00003B42  4880                     ext.w      D0
00003B44  D06D F226                add.w      D0, [A5 - 0xDDA]
00003B48  3F00                     move.w     -[A7], D0
00003B4A  4267                     clr.w      -[A7]
00003B4C  3F2D F222                move.w     -[A7], [A5 - 0xDDE]
00003B50  2F3C 0007 0001           move.l     -[A7], 0x70001
00003B56  4EBA 081E                jsr        [PC + 0x81E /* 00004376 */]
00003B5A  4FEF 000A                lea.l      A7, [A7 + 0xA]
00003B5E  6076                     bra        +0x78 /* 00003BD6 */
label00003B60:
00003B60  4A05                     tst.b      D5
00003B62  6722                     beq        +0x24 /* 00003B86 */
00003B64  1004                     move.b     D0, D4
00003B66  4880                     ext.w      D0
00003B68  D06D F226                add.w      D0, [A5 - 0xDDA]
00003B6C  3F00                     move.w     -[A7], D0
00003B6E  4267                     clr.w      -[A7]
00003B70  3F2D F222                move.w     -[A7], [A5 - 0xDDE]
00003B74  7000                     moveq.l    D0, 0x00
00003B76  1005                     move.b     D0, D5
00003B78  3F00                     move.w     -[A7], D0
00003B7A  3F3C 0006                move.w     -[A7], 0x6
00003B7E  4EBA 07F6                jsr        [PC + 0x7F6 /* 00004376 */]
00003B82  4FEF 000A                lea.l      A7, [A7 + 0xA]
label00003B86:
00003B86  4A2D B944                tst.b      [A5 - 0x46BC]
00003B8A  6722                     beq        +0x24 /* 00003BAE */
00003B8C  70E5                     moveq.l    D0, 0xFFFFFFE5
00003B8E  D06D F226                add.w      D0, [A5 - 0xDDA]
00003B92  3F00                     move.w     -[A7], D0
00003B94  4267                     clr.w      -[A7]
00003B96  3F2D F222                move.w     -[A7], [A5 - 0xDDE]
00003B9A  7000                     moveq.l    D0, 0x00
00003B9C  102C 0006                move.b     D0, [A4 + 0x6]
00003BA0  3F00                     move.w     -[A7], D0
00003BA2  3F3C 0006                move.w     -[A7], 0x6
00003BA6  4EBA 07CE                jsr        [PC + 0x7CE /* 00004376 */]
00003BAA  4FEF 000A                lea.l      A7, [A7 + 0xA]
label00003BAE:
00003BAE  0C07 0013                cmpi.b     D7, 0x13
00003BB2  6706                     beq        +0x8 /* 00003BBA */
00003BB4  0C07 001E                cmpi.b     D7, 0x1E
00003BB8  661C                     bne        +0x1E /* 00003BD6 */
label00003BBA:
00003BBA  70E4                     moveq.l    D0, 0xFFFFFFE4
00003BBC  D06D F224                add.w      D0, [A5 - 0xDDC]
00003BC0  3F00                     move.w     -[A7], D0
00003BC2  4267                     clr.w      -[A7]
00003BC4  3F2D F222                move.w     -[A7], [A5 - 0xDDE]
00003BC8  2F3C 0006 0092           move.l     -[A7], 0x60092
00003BCE  4EBA 07A6                jsr        [PC + 0x7A6 /* 00004376 */]
00003BD2  4FEF 000A                lea.l      A7, [A7 + 0xA]
label00003BD6:
00003BD6  4CDF 10F0                movem.l    D4,D5,D6,D7,A4, [A7]+
00003BDA  4E75                     rts
00003BDC  FE2C FE6A                .unknown   0xFE2C 0xFE6A (W = 7)
00003BE0  FF84                     .invalid   <<F/6/7>>
00003BE2  FF84                     .invalid   <<F/6/7>>
00003BE4  FF84                     .invalid   <<F/6/7>>
00003BE6  FF84                     .invalid   <<F/6/7>>
00003BE8  FF84                     .invalid   <<F/6/7>>
00003BEA  FF02                     .extension 0xF02 <<F/4-5/7>> // unimplemented
00003BEC  FF84                     .invalid   <<F/6/7>>
00003BEE  FF84                     .invalid   <<F/6/7>>
00003BF0  FF84                     .invalid   <<F/6/7>>
00003BF2  FF84                     .invalid   <<F/6/7>>
00003BF4  FF02                     .extension 0xF02 <<F/4-5/7>> // unimplemented
00003BF6  FF84                     .invalid   <<F/6/7>>
00003BF8  FF84                     .invalid   <<F/6/7>>
00003BFA  FF84                     .invalid   <<F/6/7>>
00003BFC  FF84                     .invalid   <<F/6/7>>
00003BFE  FF84                     .invalid   <<F/6/7>>
00003C00  FF84                     .invalid   <<F/6/7>>
00003C02  FF84                     .invalid   <<F/6/7>>
00003C04  FF3A                     .extension 0xF3A <<F/4-5/7>> // unimplemented
fn00003C06:
00003C06  48E7 0300                movem.l    -[A7], D6,D7
00003C0A  7000                     moveq.l    D0, 0x00
00003C0C  102D BA96                move.b     D0, [A5 - 0x456A]
00003C10  0C40 001E                cmpi.w     D0, 0x1E
00003C14  6200 00B6                bhi        +0xB8 /* 00003CCC */
00003C18  43FA 00B8                lea.l      A1, [PC + 0xB8 /* 00003CD2, value 0xFFFAFFFA */]
00003C1C  D040                     add.w      D0, D0
00003C1E  D2F1 0000                add.w      A1, [A1 + D0.w]
00003C22  4ED1                     jmp        [A1]
00003C24  70F9                     moveq.l    D0, 0xFFFFFFF9
00003C26  D06D F226                add.w      D0, [A5 - 0xDDA]
00003C2A  3F00                     move.w     -[A7], D0
00003C2C  4267                     clr.w      -[A7]
00003C2E  3F2D F222                move.w     -[A7], [A5 - 0xDDE]
00003C32  1F2D BA97                move.b     -[A7], [A5 - 0x4569]
00003C36  4EBA 069A                jsr        [PC + 0x69A /* 000042D2 */]
00003C3A  204D                     movea.l    A0, A5
00003C3C  D0C0                     add.w      A0, D0
00003C3E  7000                     moveq.l    D0, 0x00
00003C40  1028 B5CE                move.b     D0, [A0 - 0x4A32]
00003C44  3E80                     move.w     [A7], D0
00003C46  3F3C 0006                move.w     -[A7], 0x6
00003C4A  4EBA 072A                jsr        [PC + 0x72A /* 00004376 */]
00003C4E  4FEF 000A                lea.l      A7, [A7 + 0xA]
00003C52  6078                     bra        +0x7A /* 00003CCC */
00003C54  4EBA 0EA4                jsr        [PC + 0xEA4 /* 00004AFA */]
00003C58  6072                     bra        +0x74 /* 00003CCC */
00003C5A  0C2D 0009 BA97           cmpi.b     [A5 - 0x4569], 0x9 /* '\t' */
00003C60  646A                     bcc        +0x6C /* 00003CCC */
00003C62  7E00                     moveq.l    D7, 0x00
00003C64  7CD8                     moveq.l    D6, 0xFFFFFFD8
00003C66  DC6D F226                add.w      D6, [A5 - 0xDDA]
00003C6A  4A2D B944                tst.b      [A5 - 0x46BC]
00003C6E  6704                     beq        +0x6 /* 00003C74 */
00003C70  5247                     addq.w     D7, 1
00003C72  5546                     subq.w     D6, 2
label00003C74:
00003C74  3F06                     move.w     -[A7], D6
00003C76  3F07                     move.w     -[A7], D7
00003C78  7001                     moveq.l    D0, 0x01
00003C7A  D06D F222                add.w      D0, [A5 - 0xDDE]
00003C7E  3F00                     move.w     -[A7], D0
00003C80  7000                     moveq.l    D0, 0x00
00003C82  102D BA97                move.b     D0, [A5 - 0x4569]
00003C86  5240                     addq.w     D0, 1
00003C88  3F00                     move.w     -[A7], D0
00003C8A  3F3C 0001                move.w     -[A7], 0x1
00003C8E  4EBA 06E6                jsr        [PC + 0x6E6 /* 00004376 */]
00003C92  4FEF 000A                lea.l      A7, [A7 + 0xA]
00003C96  6034                     bra        +0x36 /* 00003CCC */
00003C98  4EBA 1430                jsr        [PC + 0x1430 /* 000050CA */]
00003C9C  602E                     bra        +0x30 /* 00003CCC */
00003C9E  70FF                     moveq.l    D0, 0xFFFFFFFF
00003CA0  D06D F224                add.w      D0, [A5 - 0xDDC]
00003CA4  3F00                     move.w     -[A7], D0
00003CA6  4267                     clr.w      -[A7]
00003CA8  3F2D F222                move.w     -[A7], [A5 - 0xDDE]
00003CAC  1F2D BA97                move.b     -[A7], [A5 - 0x4569]
00003CB0  4EBA 05FA                jsr        [PC + 0x5FA /* 000042AC */]
00003CB4  204D                     movea.l    A0, A5
00003CB6  D0C0                     add.w      A0, D0
00003CB8  7000                     moveq.l    D0, 0x00
00003CBA  1028 B580                move.b     D0, [A0 - 0x4A80]
00003CBE  3E80                     move.w     [A7], D0
00003CC0  3F3C 0006                move.w     -[A7], 0x6
00003CC4  4EBA 06B0                jsr        [PC + 0x6B0 /* 00004376 */]
00003CC8  4FEF 000A                lea.l      A7, [A7 + 0xA]
label00003CCC:
00003CCC  4CDF 00C0                movem.l    D6,D7, [A7]+
00003CD0  4E75                     rts
00003CD2  FFFA                     .invalid   <<F/7/7>>
00003CD4  FFFA                     .invalid   <<F/7/7>>
00003CD6  FF52                     .extension 0xF52 <<F/4-5/7>> // unimplemented
00003CD8  FFFA                     .invalid   <<F/7/7>>
00003CDA  FF82                     .invalid   <<F/6/7>>
00003CDC  FFFA                     .invalid   <<F/7/7>>
00003CDE  FFFA                     .invalid   <<F/7/7>>
00003CE0  FFFA                     .invalid   <<F/7/7>>
00003CE2  FFFA                     .invalid   <<F/7/7>>
00003CE4  FFFA                     .invalid   <<F/7/7>>
00003CE6  FFFA                     .invalid   <<F/7/7>>
00003CE8  FFCC                     .invalid   <<F/7/7>>
00003CEA  FFFA                     .invalid   <<F/7/7>>
00003CEC  FFFA                     .invalid   <<F/7/7>>
00003CEE  FFFA                     .invalid   <<F/7/7>>
00003CF0  FFFA                     .invalid   <<F/7/7>>
00003CF2  FFC6                     .invalid   <<F/7/7>>
00003CF4  FFFA                     .invalid   <<F/7/7>>
00003CF6  FFFA                     .invalid   <<F/7/7>>
00003CF8  FF88                     .invalid   <<F/6/7>>
00003CFA  FFFA                     .invalid   <<F/7/7>>
00003CFC  FFFA                     .invalid   <<F/7/7>>
00003CFE  FFFA                     .invalid   <<F/7/7>>
00003D00  FFFA                     .invalid   <<F/7/7>>
00003D02  FFFA                     .invalid   <<F/7/7>>
00003D04  FFFA                     .invalid   <<F/7/7>>
00003D06  FFFA                     .invalid   <<F/7/7>>
00003D08  FFFA                     .invalid   <<F/7/7>>
00003D0A  FFFA                     .invalid   <<F/7/7>>
00003D0C  FFFA                     .invalid   <<F/7/7>>
00003D0E  FF88                     .invalid   <<F/6/7>>
fn00003D10:
00003D10  4E56 0000                link       A6, 0
00003D14  48E7 0700                movem.l    -[A7], D5,D6,D7
00003D18  3A2E 0008                move.w     D5, [A6 + 0x8]
00003D1C  7E00                     moveq.l    D7, 0x00
00003D1E  7C06                     moveq.l    D6, 0x06
00003D20  102D BA94                move.b     D0, [A5 - 0x456C]
00003D24  6B30                     bmi        +0x32 /* 00003D56 */
00003D26  0400 0014                subi.b     D0, 0x14
00003D2A  6708                     beq        +0xA /* 00003D34 */
00003D2C  6A28                     bpl        +0x2A /* 00003D56 */
00003D2E  5000                     addq.b     D0, 8
00003D30  6724                     beq        +0x26 /* 00003D56 */
00003D32  6022                     bra        +0x24 /* 00003D56 */
label00003D34:
00003D34  7C07                     moveq.l    D6, 0x07
00003D36  4A2D B944                tst.b      [A5 - 0x46BC]
00003D3A  6704                     beq        +0x6 /* 00003D40 */
00003D3C  7E03                     moveq.l    D7, 0x03
00003D3E  602A                     bra        +0x2C /* 00003D6A */
label00003D40:
00003D40  7000                     moveq.l    D0, 0x00
00003D42  102D BA95                move.b     D0, [A5 - 0x456B]
00003D46  0240 007F                andi.w     D0, 0x7F
00003D4A  204D                     movea.l    A0, A5
00003D4C  D0C0                     add.w      A0, D0
00003D4E  7E00                     moveq.l    D7, 0x00
00003D50  1E28 B636                move.b     D7, [A0 - 0x49CA]
00003D54  6014                     bra        +0x16 /* 00003D6A */
label00003D56:
00003D56  7000                     moveq.l    D0, 0x00
00003D58  102D BA94                move.b     D0, [A5 - 0x456C]
00003D5C  C1FC 000C                muls.w     D0, 0xC
00003D60  204D                     movea.l    A0, A5
00003D62  D1C0                     add.l      A0, D0
00003D64  7E00                     moveq.l    D7, 0x00
00003D66  1E28 B408                move.b     D7, [A0 - 0x4BF8]
label00003D6A:
00003D6A  3F2D F224                move.w     -[A7], [A5 - 0xDDC]
00003D6E  4267                     clr.w      -[A7]
00003D70  3F2D F222                move.w     -[A7], [A5 - 0xDDE]
00003D74  3F07                     move.w     -[A7], D7
00003D76  3F06                     move.w     -[A7], D6
00003D78  206D BD70                movea.l    A0, [A5 - 0x4290]
00003D7C  4E90                     jsr        [A0]
00003D7E  4A45                     tst.w      D5
00003D80  4FEF 000A                lea.l      A7, [A7 + 0xA]
00003D84  6716                     beq        +0x18 /* 00003D9C */
00003D86  3F2D F224                move.w     -[A7], [A5 - 0xDDC]
00003D8A  4267                     clr.w      -[A7]
00003D8C  3F2D F222                move.w     -[A7], [A5 - 0xDDE]
00003D90  3F07                     move.w     -[A7], D7
00003D92  3F06                     move.w     -[A7], D6
00003D94  4EBA 06E0                jsr        [PC + 0x6E0 /* 00004476 */]
00003D98  4FEF 000A                lea.l      A7, [A7 + 0xA]
label00003D9C:
00003D9C  0C46 0007                cmpi.w     D6, 0x7
00003DA0  6610                     bne        +0x12 /* 00003DB2 */
00003DA2  4A2D B944                tst.b      [A5 - 0x46BC]
00003DA6  6706                     beq        +0x8 /* 00003DAE */
00003DA8  4EBA 2138                jsr        [PC + 0x2138 /* 00005EE2 */]
00003DAC  6004                     bra        +0x6 /* 00003DB2 */
label00003DAE:
00003DAE  4EBA 1ECC                jsr        [PC + 0x1ECC /* 00005C7C */]
label00003DB2:
00003DB2  4CDF 00E0                movem.l    D5,D6,D7, [A7]+
00003DB6  4E5E                     unlink     A6
00003DB8  4E75                     rts
fn00003DBA:
00003DBA  4E56 0000                link       A6, 0
00003DBE  48E7 0300                movem.l    -[A7], D6,D7
00003DC2  3E2E 0008                move.w     D7, [A6 + 0x8]
00003DC6  0C2D 000B BA94           cmpi.b     [A5 - 0x456C], 0xB
00003DCC  663E                     bne        +0x40 /* 00003E0C */
00003DCE  1F2D BA95                move.b     -[A7], [A5 - 0x456B]
00003DD2  4EBA 04D8                jsr        [PC + 0x4D8 /* 000042AC */]
00003DD6  204D                     movea.l    A0, A5
00003DD8  D0C0                     add.w      A0, D0
00003DDA  7C00                     moveq.l    D6, 0x00
00003DDC  1C28 B58C                move.b     D6, [A0 - 0x4A74]
00003DE0  3EAD F224                move.w     [A7], [A5 - 0xDDC]
00003DE4  4267                     clr.w      -[A7]
00003DE6  3F2D F222                move.w     -[A7], [A5 - 0xDDE]
00003DEA  3F06                     move.w     -[A7], D6
00003DEC  3F3C 0006                move.w     -[A7], 0x6
00003DF0  4EBA 0584                jsr        [PC + 0x584 /* 00004376 */]
00003DF4  3EAD F224                move.w     [A7], [A5 - 0xDDC]
00003DF8  4267                     clr.w      -[A7]
00003DFA  3F2D F222                move.w     -[A7], [A5 - 0xDDE]
00003DFE  3F06                     move.w     -[A7], D6
00003E00  3F3C 0006                move.w     -[A7], 0x6
00003E04  4EBA 0670                jsr        [PC + 0x670 /* 00004476 */]
00003E08  4FEF 0012                lea.l      A7, [A7 + 0x12]
label00003E0C:
00003E0C  4CDF 00C0                movem.l    D6,D7, [A7]+
00003E10  4E5E                     unlink     A6
00003E12  4E75                     rts
fn00003E14:
00003E14  48E7 0300                movem.l    -[A7], D6,D7
00003E18  3E2D F226                move.w     D7, [A5 - 0xDDA]
00003E1C  0C2D 001A BA96           cmpi.b     [A5 - 0x456A], 0x1A
00003E22  660E                     bne        +0x10 /* 00003E32 */
00003E24  0C2D 000C BA94           cmpi.b     [A5 - 0x456C], 0xC
00003E2A  6606                     bne        +0x8 /* 00003E32 */
00003E2C  7C06                     moveq.l    D6, 0x06
00003E2E  5647                     addq.w     D7, 3
00003E30  6046                     bra        +0x48 /* 00003E78 */
label00003E32:
00003E32  0C2D 000B BA94           cmpi.b     [A5 - 0x456C], 0xB
00003E38  6616                     bne        +0x18 /* 00003E50 */
00003E3A  1F2D BA95                move.b     -[A7], [A5 - 0x456B]
00003E3E  4EBA 046C                jsr        [PC + 0x46C /* 000042AC */]
00003E42  204D                     movea.l    A0, A5
00003E44  D0C0                     add.w      A0, D0
00003E46  7C00                     moveq.l    D6, 0x00
00003E48  1C28 B574                move.b     D6, [A0 - 0x4A8C]
00003E4C  548F                     addq.l     A7, 2
00003E4E  6028                     bra        +0x2A /* 00003E78 */
label00003E50:
00003E50  0C2D 000F BA94           cmpi.b     [A5 - 0x456C], 0xF
00003E56  660C                     bne        +0xE /* 00003E64 */
00003E58  4A2D BA96                tst.b      [A5 - 0x456A]
00003E5C  6606                     bne        +0x8 /* 00003E64 */
00003E5E  3C3C 0094                move.w     D6, 0x94
00003E62  6014                     bra        +0x16 /* 00003E78 */
label00003E64:
00003E64  7000                     moveq.l    D0, 0x00
00003E66  102D BA94                move.b     D0, [A5 - 0x456C]
00003E6A  C1FC 000C                muls.w     D0, 0xC
00003E6E  204D                     movea.l    A0, A5
00003E70  D1C0                     add.l      A0, D0
00003E72  7C00                     moveq.l    D6, 0x00
00003E74  1C28 B400                move.b     D6, [A0 - 0x4C00]
label00003E78:
00003E78  7000                     moveq.l    D0, 0x00
00003E7A  102D BA94                move.b     D0, [A5 - 0x456C]
00003E7E  C1FC 000C                muls.w     D0, 0xC
00003E82  204D                     movea.l    A0, A5
00003E84  D1C0                     add.l      A0, D0
00003E86  1028 B402                move.b     D0, [A0 - 0x4BFE]
00003E8A  4880                     ext.w      D0
00003E8C  D047                     add.w      D0, D7
00003E8E  3F00                     move.w     -[A7], D0
00003E90  4267                     clr.w      -[A7]
00003E92  3F2D F222                move.w     -[A7], [A5 - 0xDDE]
00003E96  3F06                     move.w     -[A7], D6
00003E98  3F3C 0006                move.w     -[A7], 0x6
00003E9C  206D BD70                movea.l    A0, [A5 - 0x4290]
00003EA0  4E90                     jsr        [A0]
00003EA2  4FEF 000A                lea.l      A7, [A7 + 0xA]
00003EA6  4CDF 00C0                movem.l    D6,D7, [A7]+
00003EAA  4E75                     rts
fn00003EAC:
00003EAC  48E7 0300                movem.l    -[A7], D6,D7
00003EB0  7000                     moveq.l    D0, 0x00
00003EB2  102D BA94                move.b     D0, [A5 - 0x456C]
00003EB6  0C40 0016                cmpi.w     D0, 0x16
00003EBA  6200 0156                bhi        +0x158 /* 00004012 */
00003EBE  43FA 0158                lea.l      A1, [PC + 0x158 /* 00004018, value 0xFFFAFFFA */]
00003EC2  D040                     add.w      D0, D0
00003EC4  D2F1 0000                add.w      A1, [A1 + D0.w]
00003EC8  4ED1                     jmp        [A1]
00003ECA  70FE                     moveq.l    D0, 0xFFFFFFFE
00003ECC  D06D F226                add.w      D0, [A5 - 0xDDA]
00003ED0  3F00                     move.w     -[A7], D0
00003ED2  4267                     clr.w      -[A7]
00003ED4  3F2D F222                move.w     -[A7], [A5 - 0xDDE]
00003ED8  1F2D BA95                move.b     -[A7], [A5 - 0x456B]
00003EDC  4EBA 03F4                jsr        [PC + 0x3F4 /* 000042D2 */]
00003EE0  204D                     movea.l    A0, A5
00003EE2  D0C0                     add.w      A0, D0
00003EE4  7000                     moveq.l    D0, 0x00
00003EE6  1028 B5C4                move.b     D0, [A0 - 0x4A3C]
00003EEA  3E80                     move.w     [A7], D0
00003EEC  3F3C 0006                move.w     -[A7], 0x6
00003EF0  206D BD70                movea.l    A0, [A5 - 0x4290]
00003EF4  4E90                     jsr        [A0]
00003EF6  4FEF 000A                lea.l      A7, [A7 + 0xA]
00003EFA  6000 0116                bra        +0x118 /* 00004012 */
00003EFE  522D AA35                addq.b     [A5 - 0x55CB], 1
00003F02  70F2                     moveq.l    D0, 0xFFFFFFF2
00003F04  D06D F226                add.w      D0, [A5 - 0xDDA]
00003F08  3F00                     move.w     -[A7], D0
00003F0A  3F3C 0001                move.w     -[A7], 0x1
00003F0E  7003                     moveq.l    D0, 0x03
00003F10  D06D F222                add.w      D0, [A5 - 0xDDE]
00003F14  3F00                     move.w     -[A7], D0
00003F16  1F2D BA95                move.b     -[A7], [A5 - 0x456B]
00003F1A  4EBA 03D8                jsr        [PC + 0x3D8 /* 000042F4 */]
00003F1E  3E80                     move.w     [A7], D0
00003F20  3F3C 0001                move.w     -[A7], 0x1
00003F24  4EBA 04AE                jsr        [PC + 0x4AE /* 000043D4 */]
00003F28  4FEF 000A                lea.l      A7, [A7 + 0xA]
00003F2C  6000 00E4                bra        +0xE6 /* 00004012 */
00003F30  0C2D 0001 BA95           cmpi.b     [A5 - 0x456B], 0x1
00003F36  6624                     bne        +0x26 /* 00003F5C */
00003F38  522D AA35                addq.b     [A5 - 0x55CB], 1
00003F3C  70FD                     moveq.l    D0, 0xFFFFFFFD
00003F3E  D06D F226                add.w      D0, [A5 - 0xDDA]
00003F42  3F00                     move.w     -[A7], D0
00003F44  4267                     clr.w      -[A7]
00003F46  3F2D F222                move.w     -[A7], [A5 - 0xDDE]
00003F4A  2F3C 0001 000B           move.l     -[A7], 0x1000B
00003F50  4EBA 0482                jsr        [PC + 0x482 /* 000043D4 */]
00003F54  4FEF 000A                lea.l      A7, [A7 + 0xA]
00003F58  6000 00B8                bra        +0xBA /* 00004012 */
label00003F5C:
00003F5C  70FD                     moveq.l    D0, 0xFFFFFFFD
00003F5E  D06D F226                add.w      D0, [A5 - 0xDDA]
00003F62  3F00                     move.w     -[A7], D0
00003F64  4267                     clr.w      -[A7]
00003F66  3F2D F222                move.w     -[A7], [A5 - 0xDDE]
00003F6A  2F3C 0001 000A           move.l     -[A7], 0x1000A
00003F70  4EBA 0462                jsr        [PC + 0x462 /* 000043D4 */]
00003F74  4FEF 000A                lea.l      A7, [A7 + 0xA]
00003F78  6000 0098                bra        +0x9A /* 00004012 */
00003F7C  7E00                     moveq.l    D7, 0x00
00003F7E  1E2D BA95                move.b     D7, [A5 - 0x456B]
00003F82  0247 007F                andi.w     D7, 0x7F
00003F86  0C47 0006                cmpi.w     D7, 0x6
00003F8A  6F02                     ble        +0x4 /* 00003F8E */
00003F8C  7E06                     moveq.l    D7, 0x06
label00003F8E:
00003F8E  204D                     movea.l    A0, A5
00003F90  D0C7                     add.w      A0, D7
00003F92  7C00                     moveq.l    D6, 0x00
00003F94  1C28 B5A4                move.b     D6, [A0 - 0x4A5C]
00003F98  3F2D F226                move.w     -[A7], [A5 - 0xDDA]
00003F9C  4267                     clr.w      -[A7]
00003F9E  3F2D F222                move.w     -[A7], [A5 - 0xDDE]
00003FA2  204D                     movea.l    A0, A5
00003FA4  D0C6                     add.w      A0, D6
00003FA6  7000                     moveq.l    D0, 0x00
00003FA8  1028 B5B2                move.b     D0, [A0 - 0x4A4E]
00003FAC  3F00                     move.w     -[A7], D0
00003FAE  3F3C 0006                move.w     -[A7], 0x6
00003FB2  4EBA 03C2                jsr        [PC + 0x3C2 /* 00004376 */]
00003FB6  204D                     movea.l    A0, A5
00003FB8  D0C6                     add.w      A0, D6
00003FBA  1028 B5B8                move.b     D0, [A0 - 0x4A48]
00003FBE  4880                     ext.w      D0
00003FC0  322D F226                move.w     D1, [A5 - 0xDDA]
00003FC4  9240                     sub.w      D1, D0
00003FC6  3E81                     move.w     [A7], D1
00003FC8  4267                     clr.w      -[A7]
00003FCA  3F2D F222                move.w     -[A7], [A5 - 0xDDE]
00003FCE  204D                     movea.l    A0, A5
00003FD0  D0C6                     add.w      A0, D6
00003FD2  7000                     moveq.l    D0, 0x00
00003FD4  1028 B5AC                move.b     D0, [A0 - 0x4A54]
00003FD8  3F00                     move.w     -[A7], D0
00003FDA  3F3C 0006                move.w     -[A7], 0x6
00003FDE  4EBA 0396                jsr        [PC + 0x396 /* 00004376 */]
00003FE2  4A2D BA95                tst.b      [A5 - 0x456B]
00003FE6  4FEF 0012                lea.l      A7, [A7 + 0x12]
00003FEA  6A26                     bpl        +0x28 /* 00004012 */
00003FEC  70FA                     moveq.l    D0, 0xFFFFFFFA
00003FEE  D06D F226                add.w      D0, [A5 - 0xDDA]
00003FF2  3F00                     move.w     -[A7], D0
00003FF4  3F3C 0004                move.w     -[A7], 0x4
00003FF8  7001                     moveq.l    D0, 0x01
00003FFA  D06D F222                add.w      D0, [A5 - 0xDDE]
00003FFE  3F00                     move.w     -[A7], D0
00004000  7072                     moveq.l    D0, 0x72
00004002  D046                     add.w      D0, D6
00004004  3F00                     move.w     -[A7], D0
00004006  3F3C 0006                move.w     -[A7], 0x6
0000400A  4EBA 036A                jsr        [PC + 0x36A /* 00004376 */]
0000400E  4FEF 000A                lea.l      A7, [A7 + 0xA]
label00004012:
00004012  4CDF 00C0                movem.l    D6,D7, [A7]+
00004016  4E75                     rts
00004018  FFFA                     .invalid   <<F/7/7>>
0000401A  FFFA                     .invalid   <<F/7/7>>
0000401C  FEB2 FFFA                .extension 0xEB2 <<F/2-3/7>> // unimplemented
00004020  FFFA                     .invalid   <<F/7/7>>
00004022  FFFA                     .invalid   <<F/7/7>>
00004024  FFFA                     .invalid   <<F/7/7>>
00004026  FFFA                     .invalid   <<F/7/7>>
00004028  FFFA                     .invalid   <<F/7/7>>
0000402A  FFFA                     .invalid   <<F/7/7>>
0000402C  FEE6 FFFA                .extension 0xEE6 <<F/2-3/7>> // unimplemented
00004030  FFFA                     .invalid   <<F/7/7>>
00004032  FFFA                     .invalid   <<F/7/7>>
00004034  FFFA                     .invalid   <<F/7/7>>
00004036  FFFA                     .invalid   <<F/7/7>>
00004038  FFFA                     .invalid   <<F/7/7>>
0000403A  FFFA                     .invalid   <<F/7/7>>
0000403C  FF64                     .extension 0xF64 <<F/4-5/7>> // unimplemented
0000403E  FFFA                     .invalid   <<F/7/7>>
00004040  FFFA                     .invalid   <<F/7/7>>
00004042  FFFA                     .invalid   <<F/7/7>>
00004044  FF18                     .extension 0xF18 <<F/4-5/7>> // unimplemented
fn00004046:
00004046  48E7 0F08                movem.l    -[A7], D4,D5,D6,D7,A4
0000404A  0C2D 0004 BA96           cmpi.b     [A5 - 0x456A], 0x4
00004050  662C                     bne        +0x2E /* 0000407E */
00004052  102D B96F                move.b     D0, [A5 - 0x4691]
00004056  4880                     ext.w      D0
00004058  B06D F21E                cmp.w      D0, [A5 - 0xDE2]
0000405C  6620                     bne        +0x22 /* 0000407E */
0000405E  102D B96E                move.b     D0, [A5 - 0x4692]
00004062  4880                     ext.w      D0
00004064  72FF                     moveq.l    D1, 0xFFFFFFFF
00004066  D26D F220                add.w      D1, [A5 - 0xDE0]
0000406A  B240                     cmp.w      D1, D0
0000406C  6610                     bne        +0x12 /* 0000407E */
0000406E  102D B973                move.b     D0, [A5 - 0x468D]
00004072  4880                     ext.w      D0
00004074  B06D BA6E                cmp.w      D0, [A5 - 0x4592]
00004078  6704                     beq        +0x6 /* 0000407E */
0000407A  4EBA 0BDC                jsr        [PC + 0xBDC /* 00004C58 */]
label0000407E:
0000407E  7000                     moveq.l    D0, 0x00
00004080  102D BA94                move.b     D0, [A5 - 0x456C]
00004084  C1FC 000C                muls.w     D0, 0xC
00004088  49ED B400                lea.l      A4, [A5 - 0x4C00]
0000408C  D08C                     add.l      D0, A4
0000408E  2840                     movea.l    A4, D0
00004090  7E00                     moveq.l    D7, 0x00
00004092  1E2C 0009                move.b     D7, [A4 + 0x9]
00004096  102C 000A                move.b     D0, [A4 + 0xA]
0000409A  4880                     ext.w      D0
0000409C  D06D F222                add.w      D0, [A5 - 0xDDE]
000040A0  3C00                     move.w     D6, D0
000040A2  102C 000B                move.b     D0, [A4 + 0xB]
000040A6  4880                     ext.w      D0
000040A8  D06D F226                add.w      D0, [A5 - 0xDDA]
000040AC  3A00                     move.w     D5, D0
000040AE  7000                     moveq.l    D0, 0x00
000040B0  102D BA94                move.b     D0, [A5 - 0x456C]
000040B4  0C40 0014                cmpi.w     D0, 0x14
000040B8  6200 0166                bhi        +0x168 /* 00004220 */
000040BC  43FA 0180                lea.l      A1, [PC + 0x180 /* 0000423E, value 0xFFE2FFE2 */]
000040C0  D040                     add.w      D0, D0
000040C2  D2F1 0000                add.w      A1, [A1 + D0.w]
000040C6  4ED1                     jmp        [A1]
000040C8  7800                     moveq.l    D4, 0x00
000040CA  182D BA95                move.b     D4, [A5 - 0x456B]
000040CE  0244 007F                andi.w     D4, 0x7F
000040D2  0C44 0006                cmpi.w     D4, 0x6
000040D6  6F02                     ble        +0x4 /* 000040DA */
000040D8  7806                     moveq.l    D4, 0x06
label000040DA:
000040DA  204D                     movea.l    A0, A5
000040DC  D0C4                     add.w      A0, D4
000040DE  7E00                     moveq.l    D7, 0x00
000040E0  1E28 B5A4                move.b     D7, [A0 - 0x4A5C]
000040E4  3F2D F226                move.w     -[A7], [A5 - 0xDDA]
000040E8  4267                     clr.w      -[A7]
000040EA  3F2D F222                move.w     -[A7], [A5 - 0xDDE]
000040EE  204D                     movea.l    A0, A5
000040F0  D0C7                     add.w      A0, D7
000040F2  7000                     moveq.l    D0, 0x00
000040F4  1028 B5BE                move.b     D0, [A0 - 0x4A42]
000040F8  3F00                     move.w     -[A7], D0
000040FA  3F3C 0006                move.w     -[A7], 0x6
000040FE  4EBA 0376                jsr        [PC + 0x376 /* 00004476 */]
00004102  4A2D BA95                tst.b      [A5 - 0x456B]
00004106  4FEF 000A                lea.l      A7, [A7 + 0xA]
0000410A  6A00 012C                bpl        +0x12E /* 00004238 */
0000410E  70FA                     moveq.l    D0, 0xFFFFFFFA
00004110  D06D F226                add.w      D0, [A5 - 0xDDA]
00004114  3F00                     move.w     -[A7], D0
00004116  3F3C 0004                move.w     -[A7], 0x4
0000411A  7001                     moveq.l    D0, 0x01
0000411C  D06D F222                add.w      D0, [A5 - 0xDDE]
00004120  3F00                     move.w     -[A7], D0
00004122  7077                     moveq.l    D0, 0x77
00004124  D047                     add.w      D0, D7
00004126  3F00                     move.w     -[A7], D0
00004128  3F3C 0006                move.w     -[A7], 0x6
0000412C  4EBA 0348                jsr        [PC + 0x348 /* 00004476 */]
00004130  4FEF 000A                lea.l      A7, [A7 + 0xA]
00004134  6000 0102                bra        +0x104 /* 00004238 */
00004138  4EBA 012E                jsr        [PC + 0x12E /* 00004268 */]
0000413C  204D                     movea.l    A0, A5
0000413E  D0C0                     add.w      A0, D0
00004140  D0C0                     add.w      A0, D0
00004142  3B68 9866 BD78           move.w     [A5 - 0x4288], [A0 - 0x679A]
00004148  70FE                     moveq.l    D0, 0xFFFFFFFE
0000414A  D06D F226                add.w      D0, [A5 - 0xDDA]
0000414E  3F00                     move.w     -[A7], D0
00004150  4267                     clr.w      -[A7]
00004152  3F2D F222                move.w     -[A7], [A5 - 0xDDE]
00004156  1F2D BA95                move.b     -[A7], [A5 - 0x456B]
0000415A  4EBA 0176                jsr        [PC + 0x176 /* 000042D2 */]
0000415E  204D                     movea.l    A0, A5
00004160  D0C0                     add.w      A0, D0
00004162  7000                     moveq.l    D0, 0x00
00004164  1028 B5D8                move.b     D0, [A0 - 0x4A28]
00004168  3E80                     move.w     [A7], D0
0000416A  3F3C 0006                move.w     -[A7], 0x6
0000416E  4EBA 0306                jsr        [PC + 0x306 /* 00004476 */]
00004172  4FEF 000A                lea.l      A7, [A7 + 0xA]
00004176  6000 00C0                bra        +0xC2 /* 00004238 */
0000417A  4EBA 00EC                jsr        [PC + 0xEC /* 00004268 */]
0000417E  204D                     movea.l    A0, A5
00004180  D0C0                     add.w      A0, D0
00004182  D0C0                     add.w      A0, D0
00004184  3B68 9866 BD78           move.w     [A5 - 0x4288], [A0 - 0x679A]
0000418A  3F05                     move.w     -[A7], D5
0000418C  4267                     clr.w      -[A7]
0000418E  3F06                     move.w     -[A7], D6
00004190  3F07                     move.w     -[A7], D7
00004192  3F3C 0006                move.w     -[A7], 0x6
00004196  4EBA 02DE                jsr        [PC + 0x2DE /* 00004476 */]
0000419A  4FEF 000A                lea.l      A7, [A7 + 0xA]
0000419E  6000 0098                bra        +0x9A /* 00004238 */
000041A2  4A2D B944                tst.b      [A5 - 0x46BC]
000041A6  6708                     beq        +0xA /* 000041B0 */
000041A8  4EBA 1B08                jsr        [PC + 0x1B08 /* 00005CB2 */]
000041AC  6000 008A                bra        +0x8C /* 00004238 */
label000041B0:
000041B0  4EBA 1A9C                jsr        [PC + 0x1A9C /* 00005C4E */]
000041B4  6000 0082                bra        +0x84 /* 00004238 */
000041B8  7800                     moveq.l    D4, 0x00
000041BA  182D BA95                move.b     D4, [A5 - 0x456B]
000041BE  0244 00E0                andi.w     D4, 0xE0
000041C2  4A2D B944                tst.b      [A5 - 0x46BC]
000041C6  6702                     beq        +0x4 /* 000041CA */
000041C8  5447                     addq.w     D7, 2
label000041CA:
000041CA  0C44 0040                cmpi.w     D4, 0x40 /* '@' */
000041CE  6602                     bne        +0x4 /* 000041D2 */
000041D0  5247                     addq.w     D7, 1
label000041D2:
000041D2  3F05                     move.w     -[A7], D5
000041D4  3F3C 0006                move.w     -[A7], 0x6
000041D8  3F06                     move.w     -[A7], D6
000041DA  3F07                     move.w     -[A7], D7
000041DC  3F3C 0001                move.w     -[A7], 0x1
000041E0  4EBA 0294                jsr        [PC + 0x294 /* 00004476 */]
000041E4  4EBA 0082                jsr        [PC + 0x82 /* 00004268 */]
000041E8  204D                     movea.l    A0, A5
000041EA  D0C0                     add.w      A0, D0
000041EC  D0C0                     add.w      A0, D0
000041EE  3B68 9866 BD78           move.w     [A5 - 0x4288], [A0 - 0x679A]
000041F4  70F2                     moveq.l    D0, 0xFFFFFFF2
000041F6  D06D F226                add.w      D0, [A5 - 0xDDA]
000041FA  3E80                     move.w     [A7], D0
000041FC  3F3C 0001                move.w     -[A7], 0x1
00004200  7003                     moveq.l    D0, 0x03
00004202  D06D F222                add.w      D0, [A5 - 0xDDE]
00004206  3F00                     move.w     -[A7], D0
00004208  1F2D BA95                move.b     -[A7], [A5 - 0x456B]
0000420C  4EBA 00E6                jsr        [PC + 0xE6 /* 000042F4 */]
00004210  3E80                     move.w     [A7], D0
00004212  3F3C 0001                move.w     -[A7], 0x1
00004216  4EBA 025E                jsr        [PC + 0x25E /* 00004476 */]
0000421A  4FEF 0012                lea.l      A7, [A7 + 0x12]
0000421E  6018                     bra        +0x1A /* 00004238 */
label00004220:
00004220  4A47                     tst.w      D7
00004222  6714                     beq        +0x16 /* 00004238 */
00004224  3F05                     move.w     -[A7], D5
00004226  4267                     clr.w      -[A7]
00004228  3F06                     move.w     -[A7], D6
0000422A  3F07                     move.w     -[A7], D7
0000422C  3F3C 0006                move.w     -[A7], 0x6
00004230  4EBA 0244                jsr        [PC + 0x244 /* 00004476 */]
00004234  4FEF 000A                lea.l      A7, [A7 + 0xA]
label00004238:
00004238  4CDF 10F0                movem.l    D4,D5,D6,D7,A4, [A7]+
0000423C  4E75                     rts
0000423E  FFE2                     .invalid   <<F/7/7>>
00004240  FFE2                     .invalid   <<F/7/7>>
00004242  FEFA FFE2                .extension 0xEFA <<F/2-3/7>> // unimplemented
00004246  FFE2                     .invalid   <<F/7/7>>
00004248  FFE2                     .invalid   <<F/7/7>>
0000424A  FFE2                     .invalid   <<F/7/7>>
0000424C  FFE2                     .invalid   <<F/7/7>>
0000424E  FFE2                     .invalid   <<F/7/7>>
00004250  FFE2                     .invalid   <<F/7/7>>
00004252  FF7A                     .extension 0xF7A <<F/4-5/7>> // unimplemented
00004254  FFE2                     .invalid   <<F/7/7>>
00004256  FFE2                     .invalid   <<F/7/7>>
00004258  FFE2                     .invalid   <<F/7/7>>
0000425A  FF3C                     .extension 0xF3C <<F/4-5/7>> // unimplemented
0000425C  FFE2                     .invalid   <<F/7/7>>
0000425E  FFE2                     .invalid   <<F/7/7>>
00004260  FFE2                     .invalid   <<F/7/7>>
00004262  FE8A FFE2                .extension 0xE8A <<F/2-3/7>> // unimplemented
00004266  FF64                     .extension 0xF64 <<F/4-5/7>> // unimplemented
fn00004268:
00004268  48E7 0700                movem.l    -[A7], D5,D6,D7
0000426C  7E01                     moveq.l    D7, 0x01
0000426E  DE6D F220                add.w      D7, [A5 - 0xDE0]
00004272  0C47 000A                cmpi.w     D7, 0xA /* '\n' */
00004276  6C2A                     bge        +0x2C /* 000042A2 */
00004278  302D F21E                move.w     D0, [A5 - 0xDE2]
0000427C  204D                     movea.l    A0, A5
0000427E  D0C0                     add.w      A0, D0
00004280  D0C0                     add.w      A0, D0
00004282  3C28 B646                move.w     D6, [A0 - 0x49BA]
00004286  DC47                     add.w      D6, D7
00004288  206D BD82                movea.l    A0, [A5 - 0x427E]
0000428C  7A00                     moveq.l    D5, 0x00
0000428E  1A30 6000                move.b     D5, [A0 + D6.w]
00004292  0245 001F                andi.w     D5, 0x1F
00004296  0C45 0014                cmpi.w     D5, 0x14
0000429A  6606                     bne        +0x8 /* 000042A2 */
0000429C  3007                     move.w     D0, D7
0000429E  EB48                     lsl        D0.w, 5
000042A0  6004                     bra        +0x6 /* 000042A6 */
label000042A2:
000042A2  303C 0140                move.w     D0, 0x140
label000042A6:
000042A6  4CDF 00E0                movem.l    D5,D6,D7, [A7]+
000042AA  4E75                     rts
fn000042AC:
000042AC  4E56 0000                link       A6, 0
000042B0  2F07                     move.l     -[A7], D7
000042B2  1E2E 0008                move.b     D7, [A6 + 0x8]
000042B6  4A07                     tst.b      D7
000042B8  6A0E                     bpl        +0x10 /* 000042C8 */
000042BA  0207 007F                andi.b     D7, 0x7F
000042BE  0C07 000A                cmpi.b     D7, 0xA /* '\n' */
000042C2  6304                     bls        +0x6 /* 000042C8 */
000042C4  7001                     moveq.l    D0, 0x01
000042C6  6004                     bra        +0x6 /* 000042CC */
label000042C8:
000042C8  7000                     moveq.l    D0, 0x00
000042CA  1007                     move.b     D0, D7
label000042CC:
000042CC  2E1F                     move.l     D7, [A7]+
000042CE  4E5E                     unlink     A6
000042D0  4E75                     rts
fn000042D2:
000042D2  4E56 0000                link       A6, 0
000042D6  48E7 0300                movem.l    -[A7], D6,D7
000042DA  1E2E 0008                move.b     D7, [A6 + 0x8]
000042DE  7C00                     moveq.l    D6, 0x00
000042E0  1C07                     move.b     D6, D7
000042E2  4A06                     tst.b      D6
000042E4  6A04                     bpl        +0x6 /* 000042EA */
000042E6  7005                     moveq.l    D0, 0x05
000042E8  6002                     bra        +0x4 /* 000042EC */
label000042EA:
000042EA  3006                     move.w     D0, D6
label000042EC:
000042EC  4CDF 00C0                movem.l    D6,D7, [A7]+
000042F0  4E5E                     unlink     A6
000042F2  4E75                     rts
fn000042F4:
000042F4  4E56 0000                link       A6, 0
000042F8  48E7 0700                movem.l    -[A7], D5,D6,D7
000042FC  1E2E 0008                move.b     D7, [A6 + 0x8]
00004300  7A00                     moveq.l    D5, 0x00
00004302  1A07                     move.b     D5, D7
00004304  3005                     move.w     D0, D5
00004306  0240 00E0                andi.w     D0, 0xE0
0000430A  6732                     beq        +0x34 /* 0000433E */
0000430C  6B3E                     bmi        +0x40 /* 0000434C */
0000430E  0440 0080                subi.w     D0, 0x80
00004312  6732                     beq        +0x34 /* 00004346 */
00004314  6A18                     bpl        +0x1A /* 0000432E */
00004316  0440 FFC0                subi.w     D0, 0xFFC0
0000431A  6722                     beq        +0x24 /* 0000433E */
0000431C  6A08                     bpl        +0xA /* 00004326 */
0000431E  0440 FFE0                subi.w     D0, 0xFFE0
00004322  671E                     beq        +0x20 /* 00004342 */
00004324  6026                     bra        +0x28 /* 0000434C */
label00004326:
00004326  0440 0020                subi.w     D0, 0x20 /* ' ' */
0000432A  671A                     beq        +0x1C /* 00004346 */
0000432C  601E                     bra        +0x20 /* 0000434C */
label0000432E:
0000432E  0440 0040                subi.w     D0, 0x40 /* '@' */
00004332  6716                     beq        +0x18 /* 0000434A */
00004334  6A16                     bpl        +0x18 /* 0000434C */
00004336  0440 FFE0                subi.w     D0, 0xFFE0
0000433A  670E                     beq        +0x10 /* 0000434A */
0000433C  600E                     bra        +0x10 /* 0000434C */
label0000433E:
0000433E  7CFF                     moveq.l    D6, 0xFFFFFFFF
00004340  600A                     bra        +0xC /* 0000434C */
label00004342:
00004342  7C00                     moveq.l    D6, 0x00
00004344  6006                     bra        +0x8 /* 0000434C */
label00004346:
00004346  7C06                     moveq.l    D6, 0x06
00004348  6002                     bra        +0x4 /* 0000434C */
label0000434A:
0000434A  7C0C                     moveq.l    D6, 0x0C
label0000434C:
0000434C  7E00                     moveq.l    D7, 0x00
0000434E  4A46                     tst.w      D6
00004350  6D1A                     blt        +0x1C /* 0000436C */
00004352  700F                     moveq.l    D0, 0x0F
00004354  C045                     and.w      D0, D5
00004356  204D                     movea.l    A0, A5
00004358  D0C0                     add.w      A0, D0
0000435A  7E00                     moveq.l    D7, 0x00
0000435C  1E28 B63E                move.b     D7, [A0 - 0x49C2]
00004360  4A47                     tst.w      D7
00004362  6708                     beq        +0xA /* 0000436C */
00004364  4A2D A209                tst.b      [A5 - 0x5DF7]
00004368  6702                     beq        +0x4 /* 0000436C */
0000436A  DE46                     add.w      D7, D6
label0000436C:
0000436C  3007                     move.w     D0, D7
0000436E  4CDF 00E0                movem.l    D5,D6,D7, [A7]+
00004372  4E5E                     unlink     A6
00004374  4E75                     rts
export_149:
fn00004376:
00004376  4E56 0000                link       A6, 0
0000437A  48E7 0108                movem.l    -[A7], D7,A4
0000437E  4A6E 000A                tst.w      [A6 + 0xA]
00004382  6742                     beq        +0x44 /* 000043C6 */
00004384  3E2D BD9C                move.w     D7, [A5 - 0x4264]
00004388  0C47 00FA                cmpi.w     D7, 0xFA
0000438C  6C3E                     bge        +0x40 /* 000043CC */
0000438E  700A                     moveq.l    D0, 0x0A
00004390  C1C7                     muls.w     D0, D7
00004392  49ED BDA6                lea.l      A4, [A5 - 0x425A]
00004396  D08C                     add.l      D0, A4
00004398  2840                     movea.l    A4, D0
0000439A  38AE 0008                move.w     [A4], [A6 + 0x8]
0000439E  70FF                     moveq.l    D0, 0xFFFFFFFF
000043A0  D06E 000A                add.w      D0, [A6 + 0xA]
000043A4  3940 0002                move.w     [A4 + 0x2], D0
000043A8  302E 000C                move.w     D0, [A6 + 0xC]
000043AC  E748                     lsl        D0.w, 3
000043AE  D06E 000E                add.w      D0, [A6 + 0xE]
000043B2  3940 0004                move.w     [A4 + 0x4], D0
000043B6  396E 0010 0006           move.w     [A4 + 0x6], [A6 + 0x10]
000043BC  396D BD74 0008           move.w     [A4 + 0x8], [A5 - 0x428C]
000043C2  526D BD9C                addq.w     [A5 - 0x4264], 1
label000043C6:
000043C6  3B6D A5CC BD74           move.w     [A5 - 0x428C], [A5 - 0x5A34]
label000043CC:
000043CC  4CDF 1080                movem.l    D7,A4, [A7]+
000043D0  4E5E                     unlink     A6
000043D2  4E75                     rts
export_150:
fn000043D4:
000043D4  4E56 0000                link       A6, 0
000043D8  48E7 0108                movem.l    -[A7], D7,A4
000043DC  4A6E 000A                tst.w      [A6 + 0xA]
000043E0  6700 0084                beq        +0x86 /* 00004466 */
000043E4  3E2D BDA2                move.w     D7, [A5 - 0x425E]
000043E8  0C47 0032                cmpi.w     D7, 0x32 /* '2' */
000043EC  6C00 0080                bge        +0x82 /* 0000446E */
000043F0  7014                     moveq.l    D0, 0x14
000043F2  C1C7                     muls.w     D0, D7
000043F4  49ED C76A                lea.l      A4, [A5 - 0x3896]
000043F8  D08C                     add.l      D0, A4
000043FA  2840                     movea.l    A4, D0
000043FC  38AE 0008                move.w     [A4], [A6 + 0x8]
00004400  70FF                     moveq.l    D0, 0xFFFFFFFF
00004402  D06E 000A                add.w      D0, [A6 + 0xA]
00004406  3940 0002                move.w     [A4 + 0x2], D0
0000440A  302E 000C                move.w     D0, [A6 + 0xC]
0000440E  E748                     lsl        D0.w, 3
00004410  D06E 000E                add.w      D0, [A6 + 0xE]
00004414  3940 0004                move.w     [A4 + 0x4], D0
00004418  396E 0010 0006           move.w     [A4 + 0x6], [A6 + 0x10]
0000441E  4A2D BAF1                tst.b      [A5 - 0x450F]
00004422  6614                     bne        +0x16 /* 00004438 */
00004424  204D                     movea.l    A0, A5
00004426  D0EE 0008                add.w      A0, [A6 + 0x8]
0000442A  4A28 B92C                tst.b      [A0 - 0x46D4]
0000442E  6708                     beq        +0xA /* 00004438 */
00004430  397C FFFF 0008           move.w     [A4 + 0x8], 0xFFFF
00004436  6006                     bra        +0x8 /* 0000443E */
label00004438:
00004438  397C 0001 0008           move.w     [A4 + 0x8], 0x1
label0000443E:
0000443E  196D AA35 000A           move.b     [A4 + 0xA], [A5 - 0x55CB]
00004444  196D AA36 000B           move.b     [A4 + 0xB], [A5 - 0x55CA]
0000444A  396D BAFE 000C           move.w     [A4 + 0xC], [A5 - 0x4502]
00004450  396D BB02 000E           move.w     [A4 + 0xE], [A5 - 0x44FE]
00004456  396D BB00 0010           move.w     [A4 + 0x10], [A5 - 0x4500]
0000445C  396D BB04 0012           move.w     [A4 + 0x12], [A5 - 0x44FC]
00004462  526D BDA2                addq.w     [A5 - 0x425E], 1
label00004466:
00004466  422D AA35                clr.b      [A5 - 0x55CB]
0000446A  422D AA36                clr.b      [A5 - 0x55CA]
label0000446E:
0000446E  4CDF 1080                movem.l    D7,A4, [A7]+
00004472  4E5E                     unlink     A6
00004474  4E75                     rts
export_151:
fn00004476:
00004476  4E56 0000                link       A6, 0
0000447A  48E7 0108                movem.l    -[A7], D7,A4
0000447E  4A6E 000A                tst.w      [A6 + 0xA]
00004482  6748                     beq        +0x4A /* 000044CC */
00004484  3E2D BD9E                move.w     D7, [A5 - 0x4262]
00004488  0C47 00FA                cmpi.w     D7, 0xFA
0000448C  6C4A                     bge        +0x4C /* 000044D8 */
0000448E  700C                     moveq.l    D0, 0x0C
00004490  C1C7                     muls.w     D0, D7
00004492  49ED CB52                lea.l      A4, [A5 - 0x34AE]
00004496  D08C                     add.l      D0, A4
00004498  2840                     movea.l    A4, D0
0000449A  38AE 0008                move.w     [A4], [A6 + 0x8]
0000449E  70FF                     moveq.l    D0, 0xFFFFFFFF
000044A0  D06E 000A                add.w      D0, [A6 + 0xA]
000044A4  3940 0002                move.w     [A4 + 0x2], D0
000044A8  302E 000C                move.w     D0, [A6 + 0xC]
000044AC  E748                     lsl        D0.w, 3
000044AE  D06E 000E                add.w      D0, [A6 + 0xE]
000044B2  3940 0004                move.w     [A4 + 0x4], D0
000044B6  396E 0010 0006           move.w     [A4 + 0x6], [A6 + 0x10]
000044BC  396D BD76 0008           move.w     [A4 + 0x8], [A5 - 0x428A]
000044C2  396D BD78 000A           move.w     [A4 + 0xA], [A5 - 0x4288]
000044C8  526D BD9E                addq.w     [A5 - 0x4262], 1
label000044CC:
000044CC  3B6D A5CC BD76           move.w     [A5 - 0x428A], [A5 - 0x5A34]
000044D2  3B6D A5D2 BD78           move.w     [A5 - 0x4288], [A5 - 0x5A2E]
label000044D8:
000044D8  4CDF 1080                movem.l    D7,A4, [A7]+
000044DC  4E5E                     unlink     A6
000044DE  4E75                     rts
fn000044E0:
000044E0  4E56 0000                link       A6, 0
000044E4  48E7 0F08                movem.l    -[A7], D4,D5,D6,D7,A4
000044E8  3E2D E6AA                move.w     D7, [A5 - 0x1956]
000044EC  0C47 0032                cmpi.w     D7, 0x32 /* '2' */
000044F0  6C74                     bge        +0x76 /* 00004566 */
000044F2  7C01                     moveq.l    D6, 0x01
000044F4  DC6E 000A                add.w      D6, [A6 + 0xA]
000044F8  204D                     movea.l    A0, A5
000044FA  302E 000C                move.w     D0, [A6 + 0xC]
000044FE  D0C0                     add.w      A0, D0
00004500  D0C0                     add.w      A0, D0
00004502  3A28 9866                move.w     D5, [A0 - 0x679A]
00004506  204D                     movea.l    A0, A5
00004508  322E 000E                move.w     D1, [A6 + 0xE]
0000450C  D0C1                     add.w      A0, D1
0000450E  D0C1                     add.w      A0, D1
00004510  3828 9C64                move.w     D4, [A0 - 0x639C]
00004514  3F2E 0010                move.w     -[A7], [A6 + 0x10]
00004518  3F04                     move.w     -[A7], D4
0000451A  3F05                     move.w     -[A7], D5
0000451C  3F06                     move.w     -[A7], D6
0000451E  3F2E 0008                move.w     -[A7], [A6 + 0x8]
00004522  4EAD 011A                jsr        [A5 + 0x11A /* export_31, CODE:2 @ 00002F40 */]
00004526  4217                     clr.b      [A7]
00004528  486D A5F4                pea.l      [A5 - 0x5A0C]
0000452C  486D A2E4                pea.l      [A5 - 0x5D1C]
00004530  486D A5F4                pea.l      [A5 - 0x5A0C]
00004534  A8AA                     syscall    SectRect
00004536  4A1F                     tst.b      [A7]+
00004538  508F                     addq.l     A7, 8
0000453A  672A                     beq        +0x2C /* 00004566 */
0000453C  700C                     moveq.l    D0, 0x0C
0000453E  C1C7                     muls.w     D0, D7
00004540  49ED E6AC                lea.l      A4, [A5 - 0x1954]
00004544  D08C                     add.l      D0, A4
00004546  2840                     movea.l    A4, D0
00004548  28AD A5F4                move.l     [A4], [A5 - 0x5A0C]
0000454C  296D A5F8 0004           move.l     [A4 + 0x4], [A5 - 0x5A08]
00004552  486D A5F4                pea.l      [A5 - 0x5A0C]
00004556  206D A3E6                movea.l    A0, [A5 - 0x5C1A]
0000455A  4E90                     jsr        [A0]
0000455C  2940 0008                move.l     [A4 + 0x8], D0
00004560  526D E6AA                addq.w     [A5 - 0x1956], 1
00004564  588F                     addq.l     A7, 4
label00004566:
00004566  4CDF 10F0                movem.l    D4,D5,D6,D7,A4, [A7]+
0000456A  4E5E                     unlink     A6
0000456C  4E75                     rts
fn0000456E:
0000456E  4E56 0000                link       A6, 0
00004572  48E7 0108                movem.l    -[A7], D7,A4
00004576  3E2D BDA0                move.w     D7, [A5 - 0x4260]
0000457A  0C47 012C                cmpi.w     D7, 0x12C
0000457E  6C3E                     bge        +0x40 /* 000045BE */
00004580  700A                     moveq.l    D0, 0x0A
00004582  C1C7                     muls.w     D0, D7
00004584  49ED D70A                lea.l      A4, [A5 - 0x28F6]
00004588  D08C                     add.l      D0, A4
0000458A  2840                     movea.l    A4, D0
0000458C  18AE 0009                move.b     [A4], [A6 + 0x9]
00004590  196E 0013 0001           move.b     [A4 + 0x1], [A6 + 0x13]
00004596  302E 000A                move.w     D0, [A6 + 0xA]
0000459A  E748                     lsl        D0.w, 3
0000459C  3940 0002                move.w     [A4 + 0x2], D0
000045A0  7001                     moveq.l    D0, 0x01
000045A2  D06E 000C                add.w      D0, [A6 + 0xC]
000045A6  3940 0004                move.w     [A4 + 0x4], D0
000045AA  302E 0010                move.w     D0, [A6 + 0x10]
000045AE  E748                     lsl        D0.w, 3
000045B0  3940 0006                move.w     [A4 + 0x6], D0
000045B4  396E 000E 0008           move.w     [A4 + 0x8], [A6 + 0xE]
000045BA  526D BDA0                addq.w     [A5 - 0x4260], 1
label000045BE:
000045BE  4CDF 1080                movem.l    D7,A4, [A7]+
000045C2  4E5E                     unlink     A6
000045C4  4E75                     rts
fn000045C6:
000045C6  4E56 0000                link       A6, 0
000045CA  48E7 1F08                movem.l    -[A7], D3,D4,D5,D6,D7,A4
000045CE  286E 0008                movea.l    A4, [A6 + 0x8]
000045D2  3E14                     move.w     D7, [A4]
000045D4  3C2C 0002                move.w     D6, [A4 + 0x2]
000045D8  3A2C 0004                move.w     D5, [A4 + 0x4]
000045DC  382C 0006                move.w     D4, [A4 + 0x6]
000045E0  BE6D A2E8                cmp.w      D7, [A5 - 0x5D18]
000045E4  6C00 00B4                bge        +0xB6 /* 0000469A */
000045E8  BC6D A2EA                cmp.w      D6, [A5 - 0x5D16]
000045EC  6C00 00AC                bge        +0xAE /* 0000469A */
000045F0  BA6D A2E4                cmp.w      D5, [A5 - 0x5D1C]
000045F4  6F00 00A4                ble        +0xA6 /* 0000469A */
000045F8  B86D A2E6                cmp.w      D4, [A5 - 0x5D1A]
000045FC  6F00 009C                ble        +0x9E /* 0000469A */
00004600  BE6D A2E4                cmp.w      D7, [A5 - 0x5D1C]
00004604  6C04                     bge        +0x6 /* 0000460A */
00004606  3E2D A2E4                move.w     D7, [A5 - 0x5D1C]
label0000460A:
0000460A  BC6D A2E6                cmp.w      D6, [A5 - 0x5D1A]
0000460E  6C04                     bge        +0x6 /* 00004614 */
00004610  3C2D A2E6                move.w     D6, [A5 - 0x5D1A]
label00004614:
00004614  BA6D A2E8                cmp.w      D5, [A5 - 0x5D18]
00004618  6F04                     ble        +0x6 /* 0000461E */
0000461A  3A2D A2E8                move.w     D5, [A5 - 0x5D18]
label0000461E:
0000461E  B86D A2EA                cmp.w      D4, [A5 - 0x5D16]
00004622  6F04                     ble        +0x6 /* 00004628 */
00004624  382D A2EA                move.w     D4, [A5 - 0x5D16]
label00004628:
00004628  CC6D A1B0                and.w      D6, [A5 - 0x5E50]
0000462C  D86D A1B2                add.w      D4, [A5 - 0x5E4E]
00004630  C86D A1B0                and.w      D4, [A5 - 0x5E50]
00004634  49ED F22C                lea.l      A4, [A5 - 0xDD4]
00004638  7600                     moveq.l    D3, 0x00
0000463A  6040                     bra        +0x42 /* 0000467C */
label0000463C:
0000463C  BE6C 0004                cmp.w      D7, [A4 + 0x4]
00004640  6E36                     bgt        +0x38 /* 00004678 */
00004642  BC6C 0006                cmp.w      D6, [A4 + 0x6]
00004646  6E30                     bgt        +0x32 /* 00004678 */
00004648  BA54                     cmp.w      D5, [A4]
0000464A  6D2C                     blt        +0x2E /* 00004678 */
0000464C  B86C 0002                cmp.w      D4, [A4 + 0x2]
00004650  6D26                     blt        +0x28 /* 00004678 */
00004652  BE54                     cmp.w      D7, [A4]
00004654  6C02                     bge        +0x4 /* 00004658 */
00004656  3887                     move.w     [A4], D7
label00004658:
00004658  BC6C 0002                cmp.w      D6, [A4 + 0x2]
0000465C  6C04                     bge        +0x6 /* 00004662 */
0000465E  3946 0002                move.w     [A4 + 0x2], D6
label00004662:
00004662  BA6C 0004                cmp.w      D5, [A4 + 0x4]
00004666  6F04                     ble        +0x6 /* 0000466C */
00004668  3945 0004                move.w     [A4 + 0x4], D5
label0000466C:
0000466C  B86C 0006                cmp.w      D4, [A4 + 0x6]
00004670  6F28                     ble        +0x2A /* 0000469A */
00004672  3944 0006                move.w     [A4 + 0x6], D4
00004676  6022                     bra        +0x24 /* 0000469A */
label00004678:
00004678  508C                     addq.l     A4, 8
0000467A  5243                     addq.w     D3, 1
label0000467C:
0000467C  B66D F22A                cmp.w      D3, [A5 - 0xDD6]
00004680  6DBA                     blt        -0x44 /* 0000463C */
00004682  0C43 001E                cmpi.w     D3, 0x1E
00004686  6C12                     bge        +0x14 /* 0000469A */
00004688  3887                     move.w     [A4], D7
0000468A  3946 0002                move.w     [A4 + 0x2], D6
0000468E  3945 0004                move.w     [A4 + 0x4], D5
00004692  3944 0006                move.w     [A4 + 0x6], D4
00004696  526D F22A                addq.w     [A5 - 0xDD6], 1
label0000469A:
0000469A  4CDF 10F8                movem.l    D3,D4,D5,D6,D7,A4, [A7]+
0000469E  4E5E                     unlink     A6
000046A0  4E75                     rts
fn000046A2:
000046A2  48E7 0300                movem.l    -[A7], D6,D7
000046A6  3E2D BD9C                move.w     D7, [A5 - 0x4264]
000046AA  7C00                     moveq.l    D6, 0x00
000046AC  600A                     bra        +0xC /* 000046B8 */
label000046AE:
000046AE  3F06                     move.w     -[A7], D6
000046B0  4EBA 0088                jsr        [PC + 0x88 /* 0000473A */]
000046B4  548F                     addq.l     A7, 2
000046B6  5246                     addq.w     D6, 1
label000046B8:
000046B8  BE46                     cmp.w      D7, D6
000046BA  6EF2                     bgt        -0xC /* 000046AE */
000046BC  4CDF 00C0                movem.l    D6,D7, [A7]+
000046C0  4E75                     rts
fn000046C2:
000046C2  48E7 0300                movem.l    -[A7], D6,D7
000046C6  3E2D BDA2                move.w     D7, [A5 - 0x425E]
000046CA  7C00                     moveq.l    D6, 0x00
000046CC  600A                     bra        +0xC /* 000046D8 */
label000046CE:
000046CE  3F06                     move.w     -[A7], D6
000046D0  4EBA 00CC                jsr        [PC + 0xCC /* 0000479E */]
000046D4  548F                     addq.l     A7, 2
000046D6  5246                     addq.w     D6, 1
label000046D8:
000046D8  BE46                     cmp.w      D7, D6
000046DA  6EF2                     bgt        -0xC /* 000046CE */
000046DC  4CDF 00C0                movem.l    D6,D7, [A7]+
000046E0  4E75                     rts
fn000046E2:
000046E2  48E7 0300                movem.l    -[A7], D6,D7
000046E6  3E2D BD9E                move.w     D7, [A5 - 0x4262]
000046EA  7C00                     moveq.l    D6, 0x00
000046EC  600A                     bra        +0xC /* 000046F8 */
label000046EE:
000046EE  3F06                     move.w     -[A7], D6
000046F0  4EBA 022A                jsr        [PC + 0x22A /* 0000491C */]
000046F4  548F                     addq.l     A7, 2
000046F6  5246                     addq.w     D6, 1
label000046F8:
000046F8  BE46                     cmp.w      D7, D6
000046FA  6EF2                     bgt        -0xC /* 000046EE */
000046FC  4CDF 00C0                movem.l    D6,D7, [A7]+
00004700  4E75                     rts
fn00004702:
00004702  4E56 0000                link       A6, 0
00004706  48E7 0308                movem.l    -[A7], D6,D7,A4
0000470A  3E2D BDA0                move.w     D7, [A5 - 0x4260]
0000470E  7C00                     moveq.l    D6, 0x00
00004710  49ED D70A                lea.l      A4, [A5 - 0x28F6]
00004714  6018                     bra        +0x1A /* 0000472E */
label00004716:
00004716  7000                     moveq.l    D0, 0x00
00004718  1014                     move.b     D0, [A4]
0000471A  B06E 0008                cmp.w      D0, [A6 + 0x8]
0000471E  6608                     bne        +0xA /* 00004728 */
00004720  3F06                     move.w     -[A7], D6
00004722  4EBA 02D0                jsr        [PC + 0x2D0 /* 000049F4 */]
00004726  548F                     addq.l     A7, 2
label00004728:
00004728  5246                     addq.w     D6, 1
0000472A  49EC 000A                lea.l      A4, [A4 + 0xA]
label0000472E:
0000472E  BE46                     cmp.w      D7, D6
00004730  6EE4                     bgt        -0x1A /* 00004716 */
00004732  4CDF 10C0                movem.l    D6,D7,A4, [A7]+
00004736  4E5E                     unlink     A6
00004738  4E75                     rts
fn0000473A:
0000473A  4E56 0000                link       A6, 0
0000473E  2F0C                     move.l     -[A7], A4
00004740  700A                     moveq.l    D0, 0x0A
00004742  C1EE 0008                muls.w     D0, [A6 + 0x8]
00004746  49ED BDA6                lea.l      A4, [A5 - 0x425A]
0000474A  D08C                     add.l      D0, A4
0000474C  2840                     movea.l    A4, D0
0000474E  2B6D A2E4 A2EC           move.l     [A5 - 0x5D14], [A5 - 0x5D1C]
00004754  2B6D A2E8 A2F0           move.l     [A5 - 0x5D10], [A5 - 0x5D18]
0000475A  4A6D BA32                tst.w      [A5 - 0x45CE]
0000475E  6608                     bne        +0xA /* 00004768 */
00004760  3B6C 0008 A2E4           move.w     [A5 - 0x5D1C], [A4 + 0x8]
00004766  600C                     bra        +0xE /* 00004774 */
label00004768:
00004768  302D A5D0                move.w     D0, [A5 - 0x5A30]
0000476C  906C 0008                sub.w      D0, [A4 + 0x8]
00004770  3B40 A2E8                move.w     [A5 - 0x5D18], D0
label00004774:
00004774  3F3C 0001                move.w     -[A7], 0x1
00004778  3F2C 0006                move.w     -[A7], [A4 + 0x6]
0000477C  3F2C 0004                move.w     -[A7], [A4 + 0x4]
00004780  3F2C 0002                move.w     -[A7], [A4 + 0x2]
00004784  3F14                     move.w     -[A7], [A4]
00004786  4EBA 01FE                jsr        [PC + 0x1FE /* 00004986 */]
0000478A  2B6D A2EC A2E4           move.l     [A5 - 0x5D1C], [A5 - 0x5D14]
00004790  2B6D A2F0 A2E8           move.l     [A5 - 0x5D18], [A5 - 0x5D10]
00004796  286E FFFC                movea.l    A4, [A6 - 0x4]
0000479A  4E5E                     unlink     A6
0000479C  4E75                     rts
fn0000479E:
0000479E  4E56 0000                link       A6, 0
000047A2  48E7 1F08                movem.l    -[A7], D3,D4,D5,D6,D7,A4
000047A6  7014                     moveq.l    D0, 0x14
000047A8  C1EE 0008                muls.w     D0, [A6 + 0x8]
000047AC  49ED C76A                lea.l      A4, [A5 - 0x3896]
000047B0  D08C                     add.l      D0, A4
000047B2  2840                     movea.l    A4, D0
000047B4  3E14                     move.w     D7, [A4]
000047B6  3C2C 0002                move.w     D6, [A4 + 0x2]
000047BA  3A2C 0004                move.w     D5, [A4 + 0x4]
000047BE  382C 0006                move.w     D4, [A4 + 0x6]
000047C2  204D                     movea.l    A0, A5
000047C4  D0C7                     add.w      A0, D7
000047C6  7600                     moveq.l    D3, 0x00
000047C8  1628 B92C                move.b     D3, [A0 - 0x46D4]
000047CC  4A43                     tst.w      D3
000047CE  6752                     beq        +0x54 /* 00004822 */
000047D0  2B6D A2E4 A2EC           move.l     [A5 - 0x5D14], [A5 - 0x5D1C]
000047D6  2B6D A2E8 A2F0           move.l     [A5 - 0x5D10], [A5 - 0x5D18]
000047DC  4A6D BA32                tst.w      [A5 - 0x45CE]
000047E0  660E                     bne        +0x10 /* 000047F0 */
000047E2  3B6C 000C A2E4           move.w     [A5 - 0x5D1C], [A4 + 0xC]
000047E8  3B6C 0010 A2E8           move.w     [A5 - 0x5D18], [A4 + 0x10]
000047EE  6018                     bra        +0x1A /* 00004808 */
label000047F0:
000047F0  302D A5D0                move.w     D0, [A5 - 0x5A30]
000047F4  906C 0010                sub.w      D0, [A4 + 0x10]
000047F8  3B40 A2E4                move.w     [A5 - 0x5D1C], D0
000047FC  302D A5D0                move.w     D0, [A5 - 0x5A30]
00004800  906C 000C                sub.w      D0, [A4 + 0xC]
00004804  3B40 A2E8                move.w     [A5 - 0x5D18], D0
label00004808:
00004808  3B6C 000E A2E6           move.w     [A5 - 0x5D1A], [A4 + 0xE]
0000480E  3B6C 0012 A2EA           move.w     [A5 - 0x5D16], [A4 + 0x12]
00004814  4A47                     tst.w      D7
00004816  670A                     beq        +0xC /* 00004822 */
00004818  3F05                     move.w     -[A7], D5
0000481A  4EBA 1184                jsr        [PC + 0x1184 /* 000059A0 */]
0000481E  3A00                     move.w     D5, D0
00004820  548F                     addq.l     A7, 2
label00004822:
00004822  4A2C 000A                tst.b      [A4 + 0xA]
00004826  6714                     beq        +0x16 /* 0000483C */
00004828  3F2C 0008                move.w     -[A7], [A4 + 0x8]
0000482C  3F04                     move.w     -[A7], D4
0000482E  3F05                     move.w     -[A7], D5
00004830  3F06                     move.w     -[A7], D6
00004832  3F07                     move.w     -[A7], D7
00004834  4EBA FCAA                jsr        [PC - 0x356 /* 000044E0 */]
00004838  4FEF 000A                lea.l      A7, [A7 + 0xA]
label0000483C:
0000483C  4A2C 000B                tst.b      [A4 + 0xB]
00004840  6754                     beq        +0x56 /* 00004896 */
00004842  4A2D A209                tst.b      [A5 - 0x5DF7]
00004846  674E                     beq        +0x50 /* 00004896 */
00004848  1B6D A3C3 A354           move.b     [A5 - 0x5CAC], [A5 - 0x5C3D]
0000484E  1B6D A3C4 A355           move.b     [A5 - 0x5CAB], [A5 - 0x5C3C]
00004854  1B6D A3C5 A356           move.b     [A5 - 0x5CAA], [A5 - 0x5C3B]
0000485A  1B6D A3C6 A357           move.b     [A5 - 0x5CA9], [A5 - 0x5C3A]
00004860  1B6D A3C7 A358           move.b     [A5 - 0x5CA8], [A5 - 0x5C39]
00004866  1B6D A3C8 A359           move.b     [A5 - 0x5CA7], [A5 - 0x5C38]
0000486C  1B6D A3C9 A35A           move.b     [A5 - 0x5CA6], [A5 - 0x5C37]
00004872  1B6D A3CA A35B           move.b     [A5 - 0x5CA5], [A5 - 0x5C36]
00004878  1B6D A3CB A35C           move.b     [A5 - 0x5CA4], [A5 - 0x5C35]
0000487E  1B6D A3CC A35D           move.b     [A5 - 0x5CA3], [A5 - 0x5C34]
00004884  1B6D A3CD A35E           move.b     [A5 - 0x5CA2], [A5 - 0x5C33]
0000488A  1B6D A3CE A35F           move.b     [A5 - 0x5CA1], [A5 - 0x5C32]
00004890  1B6D A3CF A360           move.b     [A5 - 0x5CA0], [A5 - 0x5C31]
label00004896:
00004896  3F2C 0008                move.w     -[A7], [A4 + 0x8]
0000489A  3F04                     move.w     -[A7], D4
0000489C  3F05                     move.w     -[A7], D5
0000489E  3F06                     move.w     -[A7], D6
000048A0  3F07                     move.w     -[A7], D7
000048A2  4EBA 00E2                jsr        [PC + 0xE2 /* 00004986 */]
000048A6  4A2C 000B                tst.b      [A4 + 0xB]
000048AA  4FEF 000A                lea.l      A7, [A7 + 0xA]
000048AE  6754                     beq        +0x56 /* 00004904 */
000048B0  4A2D A209                tst.b      [A5 - 0x5DF7]
000048B4  674E                     beq        +0x50 /* 00004904 */
000048B6  1B6D A3D0 A354           move.b     [A5 - 0x5CAC], [A5 - 0x5C30]
000048BC  1B6D A3D1 A355           move.b     [A5 - 0x5CAB], [A5 - 0x5C2F]
000048C2  1B6D A3D2 A356           move.b     [A5 - 0x5CAA], [A5 - 0x5C2E]
000048C8  1B6D A3D3 A357           move.b     [A5 - 0x5CA9], [A5 - 0x5C2D]
000048CE  1B6D A3D4 A358           move.b     [A5 - 0x5CA8], [A5 - 0x5C2C]
000048D4  1B6D A3D5 A359           move.b     [A5 - 0x5CA7], [A5 - 0x5C2B]
000048DA  1B6D A3D6 A35A           move.b     [A5 - 0x5CA6], [A5 - 0x5C2A]
000048E0  1B6D A3D7 A35B           move.b     [A5 - 0x5CA5], [A5 - 0x5C29]
000048E6  1B6D A3D8 A35C           move.b     [A5 - 0x5CA4], [A5 - 0x5C28]
000048EC  1B6D A3D9 A35D           move.b     [A5 - 0x5CA3], [A5 - 0x5C27]
000048F2  1B6D A3DA A35E           move.b     [A5 - 0x5CA2], [A5 - 0x5C26]
000048F8  1B6D A3DB A35F           move.b     [A5 - 0x5CA1], [A5 - 0x5C25]
000048FE  1B6D A3DC A360           move.b     [A5 - 0x5CA0], [A5 - 0x5C24]
label00004904:
00004904  4A43                     tst.w      D3
00004906  670C                     beq        +0xE /* 00004914 */
00004908  2B6D A2EC A2E4           move.l     [A5 - 0x5D1C], [A5 - 0x5D14]
0000490E  2B6D A2F0 A2E8           move.l     [A5 - 0x5D18], [A5 - 0x5D10]
label00004914:
00004914  4CDF 10F8                movem.l    D3,D4,D5,D6,D7,A4, [A7]+
00004918  4E5E                     unlink     A6
0000491A  4E75                     rts
fn0000491C:
0000491C  4E56 0000                link       A6, 0
00004920  2F0C                     move.l     -[A7], A4
00004922  700C                     moveq.l    D0, 0x0C
00004924  C1EE 0008                muls.w     D0, [A6 + 0x8]
00004928  49ED CB52                lea.l      A4, [A5 - 0x34AE]
0000492C  D08C                     add.l      D0, A4
0000492E  2840                     movea.l    A4, D0
00004930  2B6D A2E4 A2EC           move.l     [A5 - 0x5D14], [A5 - 0x5D1C]
00004936  2B6D A2E8 A2F0           move.l     [A5 - 0x5D10], [A5 - 0x5D18]
0000493C  4A6D BA32                tst.w      [A5 - 0x45CE]
00004940  6608                     bne        +0xA /* 0000494A */
00004942  3B6C 0008 A2E4           move.w     [A5 - 0x5D1C], [A4 + 0x8]
00004948  600C                     bra        +0xE /* 00004956 */
label0000494A:
0000494A  302D A5D0                move.w     D0, [A5 - 0x5A30]
0000494E  906C 0008                sub.w      D0, [A4 + 0x8]
00004952  3B40 A2E8                move.w     [A5 - 0x5D18], D0
label00004956:
00004956  3B6C 000A A2EA           move.w     [A5 - 0x5D16], [A4 + 0xA]
0000495C  3F3C 0001                move.w     -[A7], 0x1
00004960  3F2C 0006                move.w     -[A7], [A4 + 0x6]
00004964  3F2C 0004                move.w     -[A7], [A4 + 0x4]
00004968  3F2C 0002                move.w     -[A7], [A4 + 0x2]
0000496C  3F14                     move.w     -[A7], [A4]
0000496E  4EBA 0016                jsr        [PC + 0x16 /* 00004986 */]
00004972  2B6D A2EC A2E4           move.l     [A5 - 0x5D1C], [A5 - 0x5D14]
00004978  2B6D A2F0 A2E8           move.l     [A5 - 0x5D18], [A5 - 0x5D10]
0000497E  286E FFFC                movea.l    A4, [A6 - 0x4]
00004982  4E5E                     unlink     A6
00004984  4E75                     rts
export_152:
fn00004986:
00004986  4E56 0000                link       A6, 0
0000498A  48E7 0700                movem.l    -[A7], D5,D6,D7
0000498E  7E01                     moveq.l    D7, 0x01
00004990  DE6E 000A                add.w      D7, [A6 + 0xA]
00004994  204D                     movea.l    A0, A5
00004996  302E 000C                move.w     D0, [A6 + 0xC]
0000499A  D0C0                     add.w      A0, D0
0000499C  D0C0                     add.w      A0, D0
0000499E  3C28 9866                move.w     D6, [A0 - 0x679A]
000049A2  204D                     movea.l    A0, A5
000049A4  322E 000E                move.w     D1, [A6 + 0xE]
000049A8  D0C1                     add.w      A0, D1
000049AA  D0C1                     add.w      A0, D1
000049AC  3A28 9C64                move.w     D5, [A0 - 0x639C]
000049B0  3F2E 0010                move.w     -[A7], [A6 + 0x10]
000049B4  3F05                     move.w     -[A7], D5
000049B6  3F06                     move.w     -[A7], D6
000049B8  3F07                     move.w     -[A7], D7
000049BA  3F2E 0008                move.w     -[A7], [A6 + 0x8]
000049BE  206D A3DE                movea.l    A0, [A5 - 0x5C22]
000049C2  4E90                     jsr        [A0]
000049C4  4A6D F228                tst.w      [A5 - 0xDD8]
000049C8  4FEF 000A                lea.l      A7, [A7 + 0xA]
000049CC  671E                     beq        +0x20 /* 000049EC */
000049CE  3F2E 0010                move.w     -[A7], [A6 + 0x10]
000049D2  3F05                     move.w     -[A7], D5
000049D4  3F06                     move.w     -[A7], D6
000049D6  3F07                     move.w     -[A7], D7
000049D8  3F2E 0008                move.w     -[A7], [A6 + 0x8]
000049DC  4EAD 011A                jsr        [A5 + 0x11A /* export_31, CODE:2 @ 00002F40 */]
000049E0  486D A5F4                pea.l      [A5 - 0x5A0C]
000049E4  4EBA FBE0                jsr        [PC - 0x420 /* 000045C6 */]
000049E8  4FEF 000E                lea.l      A7, [A7 + 0xE]
label000049EC:
000049EC  4CDF 00E0                movem.l    D5,D6,D7, [A7]+
000049F0  4E5E                     unlink     A6
000049F2  4E75                     rts
fn000049F4:
000049F4  4E56 0000                link       A6, 0
000049F8  48E7 1F08                movem.l    -[A7], D3,D4,D5,D6,D7,A4
000049FC  700A                     moveq.l    D0, 0x0A
000049FE  C1EE 0008                muls.w     D0, [A6 + 0x8]
00004A02  49ED D70A                lea.l      A4, [A5 - 0x28F6]
00004A06  D08C                     add.l      D0, A4
00004A08  2840                     movea.l    A4, D0
00004A0A  3E2C 0004                move.w     D7, [A4 + 0x4]
00004A0E  3007                     move.w     D0, D7
00004A10  906C 0008                sub.w      D0, [A4 + 0x8]
00004A14  204D                     movea.l    A0, A5
00004A16  D0C0                     add.w      A0, D0
00004A18  D0C0                     add.w      A0, D0
00004A1A  3C28 9C64                move.w     D6, [A0 - 0x639C]
00004A1E  362C 0002                move.w     D3, [A4 + 0x2]
00004A22  204D                     movea.l    A0, A5
00004A24  D0C3                     add.w      A0, D3
00004A26  D0C3                     add.w      A0, D3
00004A28  3A28 9866                move.w     D5, [A0 - 0x679A]
00004A2C  204D                     movea.l    A0, A5
00004A2E  D0C7                     add.w      A0, D7
00004A30  D0C7                     add.w      A0, D7
00004A32  3828 9C64                move.w     D4, [A0 - 0x639C]
00004A36  306C 0006                movea.w    A0, [A4 + 0x6]
00004A3A  D0C3                     add.w      A0, D3
00004A3C  D1C8                     add.l      A0, A0
00004A3E  41E8 9866                lea.l      A0, [A0 - 0x679A]
00004A42  D1CD                     add.l      A0, A5
00004A44  3E10                     move.w     D7, [A0]
00004A46  4A6D BA32                tst.w      [A5 - 0x45CE]
00004A4A  660A                     bne        +0xC /* 00004A56 */
00004A4C  3B46 A5F4                move.w     [A5 - 0x5A0C], D6
00004A50  3B44 A5F8                move.w     [A5 - 0x5A08], D4
00004A54  6014                     bra        +0x16 /* 00004A6A */
label00004A56:
00004A56  302D A5D0                move.w     D0, [A5 - 0x5A30]
00004A5A  9044                     sub.w      D0, D4
00004A5C  3B40 A5F4                move.w     [A5 - 0x5A0C], D0
00004A60  302D A5D0                move.w     D0, [A5 - 0x5A30]
00004A64  9046                     sub.w      D0, D6
00004A66  3B40 A5F8                move.w     [A5 - 0x5A08], D0
label00004A6A:
00004A6A  3B45 A5F6                move.w     [A5 - 0x5A0A], D5
00004A6E  3B47 A5FA                move.w     [A5 - 0x5A06], D7
00004A72  4227                     clr.b      -[A7]
00004A74  486D A5F4                pea.l      [A5 - 0x5A0C]
00004A78  486D A2E4                pea.l      [A5 - 0x5D1C]
00004A7C  486D A5F4                pea.l      [A5 - 0x5A0C]
00004A80  A8AA                     syscall    SectRect
00004A82  4A1F                     tst.b      [A7]+
00004A84  6720                     beq        +0x22 /* 00004AA6 */
00004A86  1F2C 0001                move.b     -[A7], [A4 + 0x1]
00004A8A  486D A5F4                pea.l      [A5 - 0x5A0C]
00004A8E  206D A3E2                movea.l    A0, [A5 - 0x5C1E]
00004A92  4E90                     jsr        [A0]
00004A94  4A6D F228                tst.w      [A5 - 0xDD8]
00004A98  5C8F                     addq.l     A7, 6
00004A9A  670A                     beq        +0xC /* 00004AA6 */
00004A9C  486D A5F4                pea.l      [A5 - 0x5A0C]
00004AA0  4EBA FB24                jsr        [PC - 0x4DC /* 000045C6 */]
00004AA4  588F                     addq.l     A7, 4
label00004AA6:
00004AA6  4CDF 10F8                movem.l    D3,D4,D5,D6,D7,A4, [A7]+
00004AAA  4E5E                     unlink     A6
00004AAC  4E75                     rts
fn00004AAE:
00004AAE  48E7 0300                movem.l    -[A7], D6,D7
00004AB2  70C2                     moveq.l    D0, 0xFFFFFFC2
00004AB4  D06D F224                add.w      D0, [A5 - 0xDDC]
00004AB8  3B40 BD92                move.w     [A5 - 0x426E], D0
00004ABC  7E00                     moveq.l    D7, 0x00
00004ABE  1E2D BA97                move.b     D7, [A5 - 0x4569]
00004AC2  0C47 00BC                cmpi.w     D7, 0xBC
00004AC6  6F04                     ble        +0x6 /* 00004ACC */
00004AC8  3E3C 00BC                move.w     D7, 0xBC
label00004ACC:
00004ACC  2C07                     move.l     D6, D7
00004ACE  48C6                     ext.l      D6
00004AD0  8DFC 0004                divs.w     D6, 0x4
00004AD4  4A2D A20A                tst.b      [A5 - 0x5DF6]
00004AD8  6608                     bne        +0xA /* 00004AE2 */
00004ADA  0C46 002D                cmpi.w     D6, 0x2D /* '-' */
00004ADE  6F02                     ble        +0x4 /* 00004AE2 */
00004AE0  7C2D                     moveq.l    D6, 0x2D
label00004AE2:
00004AE2  7001                     moveq.l    D0, 0x01
00004AE4  D046                     add.w      D0, D6
00004AE6  3B40 BD94                move.w     [A5 - 0x426C], D0
00004AEA  322D F226                move.w     D1, [A5 - 0xDDA]
00004AEE  9240                     sub.w      D1, D0
00004AF0  3B41 BD96                move.w     [A5 - 0x426A], D1
00004AF4  4CDF 00C0                movem.l    D6,D7, [A7]+
00004AF8  4E75                     rts
fn00004AFA:
00004AFA  48E7 0300                movem.l    -[A7], D6,D7
00004AFE  4EBA FFAE                jsr        [PC - 0x52 /* 00004AAE */]
00004B02  4A2D A20A                tst.b      [A5 - 0x5DF6]
00004B06  6700 010E                beq        +0x110 /* 00004C16 */
00004B0A  2F3C 0003 0002           move.l     -[A7], 0x30002
00004B10  302D BD96                move.w     D0, [A5 - 0x426A]
00004B14  906D BD92                sub.w      D0, [A5 - 0x426E]
00004B18  5240                     addq.w     D0, 1
00004B1A  3F00                     move.w     -[A7], D0
00004B1C  3F2D BD96                move.w     -[A7], [A5 - 0x426A]
00004B20  3F2D F222                move.w     -[A7], [A5 - 0xDDE]
00004B24  4267                     clr.w      -[A7]
00004B26  4EBA FA46                jsr        [PC - 0x5BA /* 0000456E */]
00004B2A  700C                     moveq.l    D0, 0x0C
00004B2C  D06D BD96                add.w      D0, [A5 - 0x426A]
00004B30  B06D F226                cmp.w      D0, [A5 - 0xDDA]
00004B34  4FEF 000C                lea.l      A7, [A7 + 0xC]
00004B38  6C1A                     bge        +0x1C /* 00004B54 */
00004B3A  3F2D BD96                move.w     -[A7], [A5 - 0x426A]
00004B3E  4267                     clr.w      -[A7]
00004B40  3F2D F222                move.w     -[A7], [A5 - 0xDDE]
00004B44  2F3C 0006 0032           move.l     -[A7], 0x60032
00004B4A  4EBA F82A                jsr        [PC - 0x7D6 /* 00004376 */]
00004B4E  4FEF 000A                lea.l      A7, [A7 + 0xA]
00004B52  605E                     bra        +0x60 /* 00004BB2 */
label00004B54:
00004B54  102D B435                move.b     D0, [A5 - 0x4BCB]
00004B58  4880                     ext.w      D0
00004B5A  D06D F226                add.w      D0, [A5 - 0xDDA]
00004B5E  3F00                     move.w     -[A7], D0
00004B60  4267                     clr.w      -[A7]
00004B62  3F2D F222                move.w     -[A7], [A5 - 0xDDE]
00004B66  7000                     moveq.l    D0, 0x00
00004B68  102D B433                move.b     D0, [A5 - 0x4BCD]
00004B6C  3F00                     move.w     -[A7], D0
00004B6E  3F3C 0006                move.w     -[A7], 0x6
00004B72  4EBA F802                jsr        [PC - 0x7FE /* 00004376 */]
00004B76  4EBA ECA0                jsr        [PC - 0x1360 /* 00003818 */]
00004B7A  4A00                     tst.b      D0
00004B7C  4FEF 000A                lea.l      A7, [A7 + 0xA]
00004B80  6704                     beq        +0x6 /* 00004B86 */
00004B82  4EBA ECBC                jsr        [PC - 0x1344 /* 00003840 */]
label00004B86:
00004B86  4267                     clr.w      -[A7]
00004B88  4EBA F186                jsr        [PC - 0xE7A /* 00003D10 */]
00004B8C  4257                     clr.w      [A7]
00004B8E  4EBA F22A                jsr        [PC - 0xDD6 /* 00003DBA */]
00004B92  4EBA F280                jsr        [PC - 0xD80 /* 00003E14 */]
00004B96  70FE                     moveq.l    D0, 0xFFFFFFFE
00004B98  D06D BD96                add.w      D0, [A5 - 0x426A]
00004B9C  3E80                     move.w     [A7], D0
00004B9E  4267                     clr.w      -[A7]
00004BA0  3F2D F222                move.w     -[A7], [A5 - 0xDDE]
00004BA4  2F3C 0006 0033           move.l     -[A7], 0x60033
00004BAA  4EBA F7CA                jsr        [PC - 0x836 /* 00004376 */]
00004BAE  4FEF 000A                lea.l      A7, [A7 + 0xA]
label00004BB2:
00004BB2  7EF4                     moveq.l    D7, 0xFFFFFFF4
00004BB4  DE6D BD96                add.w      D7, [A5 - 0x426A]
00004BB8  0C47 00C0                cmpi.w     D7, 0xC0
00004BBC  6C00 0094                bge        +0x96 /* 00004C52 */
00004BC0  6018                     bra        +0x1A /* 00004BDA */
label00004BC2:
00004BC2  3F07                     move.w     -[A7], D7
00004BC4  4267                     clr.w      -[A7]
00004BC6  3F2D F222                move.w     -[A7], [A5 - 0xDDE]
00004BCA  2F3C 0006 0034           move.l     -[A7], 0x60034
00004BD0  4EBA F7A4                jsr        [PC - 0x85C /* 00004376 */]
00004BD4  5147                     subq.w     D7, 8
00004BD6  4FEF 000A                lea.l      A7, [A7 + 0xA]
label00004BDA:
00004BDA  70F8                     moveq.l    D0, 0xFFFFFFF8
00004BDC  D047                     add.w      D0, D7
00004BDE  B06D BD92                cmp.w      D0, [A5 - 0x426E]
00004BE2  6CDE                     bge        -0x20 /* 00004BC2 */
00004BE4  3C07                     move.w     D6, D7
00004BE6  9C6D BD92                sub.w      D6, [A5 - 0x426E]
00004BEA  4A46                     tst.w      D6
00004BEC  6D64                     blt        +0x66 /* 00004C52 */
00004BEE  0C46 0007                cmpi.w     D6, 0x7
00004BF2  6E5E                     bgt        +0x60 /* 00004C52 */
00004BF4  3F07                     move.w     -[A7], D7
00004BF6  4267                     clr.w      -[A7]
00004BF8  3F2D F222                move.w     -[A7], [A5 - 0xDDE]
00004BFC  204D                     movea.l    A0, A5
00004BFE  D0C6                     add.w      A0, D6
00004C00  7000                     moveq.l    D0, 0x00
00004C02  1028 B5EA                move.b     D0, [A0 - 0x4A16]
00004C06  3F00                     move.w     -[A7], D0
00004C08  3F3C 0006                move.w     -[A7], 0x6
00004C0C  4EBA F768                jsr        [PC - 0x898 /* 00004376 */]
00004C10  4FEF 000A                lea.l      A7, [A7 + 0xA]
00004C14  603C                     bra        +0x3E /* 00004C52 */
label00004C16:
00004C16  3F2D F226                move.w     -[A7], [A5 - 0xDDA]
00004C1A  4267                     clr.w      -[A7]
00004C1C  3F2D F222                move.w     -[A7], [A5 - 0xDDE]
00004C20  2F3C 0006 0032           move.l     -[A7], 0x60032
00004C26  4EBA F74E                jsr        [PC - 0x8B2 /* 00004376 */]
00004C2A  302D BD92                move.w     D0, [A5 - 0x426E]
00004C2E  204D                     movea.l    A0, A5
00004C30  D0C0                     add.w      A0, D0
00004C32  D0C0                     add.w      A0, D0
00004C34  3B68 9C64 BD74           move.w     [A5 - 0x428C], [A0 - 0x639C]
00004C3A  3EAD BD96                move.w     [A7], [A5 - 0x426A]
00004C3E  4267                     clr.w      -[A7]
00004C40  3F2D F222                move.w     -[A7], [A5 - 0xDDE]
00004C44  2F3C 0006 0033           move.l     -[A7], 0x60033
00004C4A  4EBA F72A                jsr        [PC - 0x8D6 /* 00004376 */]
00004C4E  4FEF 0012                lea.l      A7, [A7 + 0x12]
label00004C52:
00004C52  4CDF 00C0                movem.l    D6,D7, [A7]+
00004C56  4E75                     rts
fn00004C58:
00004C58  48E7 0300                movem.l    -[A7], D6,D7
00004C5C  4EBA FE50                jsr        [PC - 0x1B0 /* 00004AAE */]
00004C60  4A2D A20A                tst.b      [A5 - 0x5DF6]
00004C64  6700 0082                beq        +0x84 /* 00004CE8 */
00004C68  70FE                     moveq.l    D0, 0xFFFFFFFE
00004C6A  D06D BD96                add.w      D0, [A5 - 0x426A]
00004C6E  3F00                     move.w     -[A7], D0
00004C70  4267                     clr.w      -[A7]
00004C72  3F2D F222                move.w     -[A7], [A5 - 0xDDE]
00004C76  2F3C 0006 0033           move.l     -[A7], 0x60033
00004C7C  4EBA F7F8                jsr        [PC - 0x808 /* 00004476 */]
00004C80  7EF4                     moveq.l    D7, 0xFFFFFFF4
00004C82  DE6D BD96                add.w      D7, [A5 - 0x426A]
00004C86  0C47 00C0                cmpi.w     D7, 0xC0
00004C8A  4FEF 000A                lea.l      A7, [A7 + 0xA]
00004C8E  6C00 0080                bge        +0x82 /* 00004D10 */
00004C92  6018                     bra        +0x1A /* 00004CAC */
label00004C94:
00004C94  3F07                     move.w     -[A7], D7
00004C96  4267                     clr.w      -[A7]
00004C98  3F2D F222                move.w     -[A7], [A5 - 0xDDE]
00004C9C  2F3C 0006 0034           move.l     -[A7], 0x60034
00004CA2  4EBA F7D2                jsr        [PC - 0x82E /* 00004476 */]
00004CA6  5147                     subq.w     D7, 8
00004CA8  4FEF 000A                lea.l      A7, [A7 + 0xA]
label00004CAC:
00004CAC  70F8                     moveq.l    D0, 0xFFFFFFF8
00004CAE  D047                     add.w      D0, D7
00004CB0  B06D BD92                cmp.w      D0, [A5 - 0x426E]
00004CB4  6CDE                     bge        -0x20 /* 00004C94 */
00004CB6  3C07                     move.w     D6, D7
00004CB8  9C6D BD92                sub.w      D6, [A5 - 0x426E]
00004CBC  4A46                     tst.w      D6
00004CBE  6D50                     blt        +0x52 /* 00004D10 */
00004CC0  0C46 0007                cmpi.w     D6, 0x7
00004CC4  6E4A                     bgt        +0x4C /* 00004D10 */
00004CC6  3F07                     move.w     -[A7], D7
00004CC8  4267                     clr.w      -[A7]
00004CCA  3F2D F222                move.w     -[A7], [A5 - 0xDDE]
00004CCE  204D                     movea.l    A0, A5
00004CD0  D0C6                     add.w      A0, D6
00004CD2  7000                     moveq.l    D0, 0x00
00004CD4  1028 B5EA                move.b     D0, [A0 - 0x4A16]
00004CD8  3F00                     move.w     -[A7], D0
00004CDA  3F3C 0006                move.w     -[A7], 0x6
00004CDE  4EBA F796                jsr        [PC - 0x86A /* 00004476 */]
00004CE2  4FEF 000A                lea.l      A7, [A7 + 0xA]
00004CE6  6028                     bra        +0x2A /* 00004D10 */
label00004CE8:
00004CE8  302D BD92                move.w     D0, [A5 - 0x426E]
00004CEC  204D                     movea.l    A0, A5
00004CEE  D0C0                     add.w      A0, D0
00004CF0  D0C0                     add.w      A0, D0
00004CF2  3B68 9C64 BD76           move.w     [A5 - 0x428A], [A0 - 0x639C]
00004CF8  3F2D BD96                move.w     -[A7], [A5 - 0x426A]
00004CFC  4267                     clr.w      -[A7]
00004CFE  3F2D F222                move.w     -[A7], [A5 - 0xDDE]
00004D02  2F3C 0006 0033           move.l     -[A7], 0x60033
00004D08  4EBA F76C                jsr        [PC - 0x894 /* 00004476 */]
00004D0C  4FEF 000A                lea.l      A7, [A7 + 0xA]
label00004D10:
00004D10  4CDF 00C0                movem.l    D6,D7, [A7]+
00004D14  4E75                     rts
export_153:
00004D16  48E7 0308                movem.l    -[A7], D6,D7,A4
00004D1A  7E01                     moveq.l    D7, 0x01
00004D1C  603E                     bra        +0x40 /* 00004D5C */
label00004D1E:
00004D1E  3F07                     move.w     -[A7], D7
00004D20  4EBA 047C                jsr        [PC + 0x47C /* 0000519E */]
00004D24  2007                     move.l     D0, D7
00004D26  48C0                     ext.l      D0
00004D28  E588                     lsl        D0, 2
00004D2A  49ED F0BA                lea.l      A4, [A5 - 0xF46]
00004D2E  D08C                     add.l      D0, A4
00004D30  2840                     movea.l    A4, D0
00004D32  7000                     moveq.l    D0, 0x00
00004D34  1014                     move.b     D0, [A4]
00004D36  3B40 BA6C                move.w     [A5 - 0x4594], D0
00004D3A  7200                     moveq.l    D1, 0x00
00004D3C  122C 0001                move.b     D1, [A4 + 0x1]
00004D40  3B41 BA6E                move.w     [A5 - 0x4592], D1
00004D44  7C00                     moveq.l    D6, 0x00
00004D46  548F                     addq.l     A7, 2
00004D48  600A                     bra        +0xC /* 00004D54 */
label00004D4A:
00004D4A  3F06                     move.w     -[A7], D6
00004D4C  4EBA 001A                jsr        [PC + 0x1A /* 00004D68 */]
00004D50  548F                     addq.l     A7, 2
00004D52  5246                     addq.w     D6, 1
label00004D54:
00004D54  0C46 001E                cmpi.w     D6, 0x1E
00004D58  6DF0                     blt        -0xE /* 00004D4A */
00004D5A  5247                     addq.w     D7, 1
label00004D5C:
00004D5C  0C47 0018                cmpi.w     D7, 0x18
00004D60  6FBC                     ble        -0x42 /* 00004D1E */
00004D62  4CDF 10C0                movem.l    D6,D7,A4, [A7]+
00004D66  4E75                     rts
fn00004D68:
00004D68  4E56 0000                link       A6, 0
00004D6C  48E7 0F08                movem.l    -[A7], D4,D5,D6,D7,A4
00004D70  3E2E 0008                move.w     D7, [A6 + 0x8]
00004D74  286D BD86                movea.l    A4, [A5 - 0x427A]
00004D78  D8C7                     add.w      A4, D7
00004D7A  206D BD82                movea.l    A0, [A5 - 0x427E]
00004D7E  7C00                     moveq.l    D6, 0x00
00004D80  1C30 7000                move.b     D6, [A0 + D7.w]
00004D84  0246 001F                andi.w     D6, 0x1F
00004D88  3006                     move.w     D0, D6
00004D8A  5940                     subq.w     D0, 4
00004D8C  0C40 0010                cmpi.w     D0, 0x10
00004D90  6200 013A                bhi        +0x13C /* 00004ECC */
00004D94  43FA 013E                lea.l      A1, [PC + 0x13E /* 00004ED4, value 0xFECCFFF8 */]
00004D98  D040                     add.w      D0, D0
00004D9A  D2F1 0000                add.w      A1, [A1 + D0.w]
00004D9E  4ED1                     jmp        [A1]
00004DA0  0C14 0001                cmpi.b     [A4], 0x1
00004DA4  6608                     bne        +0xA /* 00004DAE */
00004DA6  18BC 00BC                move.b     [A4], 0xBC
00004DAA  6000 0120                bra        +0x122 /* 00004ECC */
label00004DAE:
00004DAE  4214                     clr.b      [A4]
00004DB0  6000 011A                bra        +0x11C /* 00004ECC */
00004DB4  4214                     clr.b      [A4]
00004DB6  6000 0114                bra        +0x116 /* 00004ECC */
00004DBA  1014                     move.b     D0, [A4]
00004DBC  EB08                     lsl        D0.b, 5
00004DBE  1880                     move.b     [A4], D0
00004DC0  0C6D 000F A90C           cmpi.w     [A5 - 0x56F4], 0xF
00004DC6  6600 0104                bne        +0x106 /* 00004ECC */
00004DCA  302D B942                move.w     D0, [A5 - 0x46BE]
00004DCE  204D                     movea.l    A0, A5
00004DD0  D0C0                     add.w      A0, D0
00004DD2  7200                     moveq.l    D1, 0x00
00004DD4  1228 A830                move.b     D1, [A0 - 0x57D0]
00004DD8  B26D BD80                cmp.w      D1, [A5 - 0x4280]
00004DDC  6600 00EE                bne        +0xF0 /* 00004ECC */
00004DE0  302D B942                move.w     D0, [A5 - 0x46BE]
00004DE4  204D                     movea.l    A0, A5
00004DE6  D0C0                     add.w      A0, D0
00004DE8  7200                     moveq.l    D1, 0x00
00004DEA  1228 A83E                move.b     D1, [A0 - 0x57C2]
00004DEE  B247                     cmp.w      D1, D7
00004DF0  6600 00DA                bne        +0xDC /* 00004ECC */
00004DF4  18BC 00C0                move.b     [A4], 0xC0
00004DF8  6000 00D2                bra        +0xD4 /* 00004ECC */
00004DFC  1014                     move.b     D0, [A4]
00004DFE  EF08                     lsl        D0.b, 7
00004E00  1880                     move.b     [A4], D0
00004E02  7A01                     moveq.l    D5, 0x01
00004E04  3C05                     move.w     D6, D5
00004E06  2807                     move.l     D4, D7
00004E08  48C4                     ext.l      D4
00004E0A  89FC 000A                divs.w     D4, 0xA /* '\n' */
00004E0E  4844                     swap.w     D4
00004E10  4A44                     tst.w      D4
00004E12  662E                     bne        +0x30 /* 00004E42 */
00004E14  4A6D BA6C                tst.w      [A5 - 0x4594]
00004E18  6740                     beq        +0x42 /* 00004E5A */
00004E1A  70FF                     moveq.l    D0, 0xFFFFFFFF
00004E1C  D06D BA6C                add.w      D0, [A5 - 0x4594]
00004E20  C1FC 001E                muls.w     D0, 0x1E
00004E24  41ED E927                lea.l      A0, [A5 - 0x16D9]
00004E28  D088                     add.l      D0, A0
00004E2A  3047                     movea.w    A0, D7
00004E2C  7200                     moveq.l    D1, 0x00
00004E2E  1230 0800                move.b     D1, [A0 + D0]
00004E32  0241 001F                andi.w     D1, 0x1F
00004E36  0C41 0014                cmpi.w     D1, 0x14
00004E3A  57C6                     seq        D6
00004E3C  4406                     neg.b      D6
00004E3E  4886                     ext.w      D6
00004E40  6018                     bra        +0x1A /* 00004E5A */
label00004E42:
00004E42  206D BD82                movea.l    A0, [A5 - 0x427E]
00004E46  7000                     moveq.l    D0, 0x00
00004E48  1030 70FF                move.b     D0, [A0 + D7.w - 0x1]
00004E4C  0240 001F                andi.w     D0, 0x1F
00004E50  0C40 0014                cmpi.w     D0, 0x14
00004E54  57C6                     seq        D6
00004E56  4406                     neg.b      D6
00004E58  4886                     ext.w      D6
label00004E5A:
00004E5A  0C44 0009                cmpi.w     D4, 0x9 /* '\t' */
00004E5E  662E                     bne        +0x30 /* 00004E8E */
00004E60  4A6D BA6E                tst.w      [A5 - 0x4592]
00004E64  6740                     beq        +0x42 /* 00004EA6 */
00004E66  70FF                     moveq.l    D0, 0xFFFFFFFF
00004E68  D06D BA6E                add.w      D0, [A5 - 0x4592]
00004E6C  C1FC 001E                muls.w     D0, 0x1E
00004E70  41ED E913                lea.l      A0, [A5 - 0x16ED]
00004E74  D088                     add.l      D0, A0
00004E76  3047                     movea.w    A0, D7
00004E78  7200                     moveq.l    D1, 0x00
00004E7A  1230 0800                move.b     D1, [A0 + D0]
00004E7E  0241 001F                andi.w     D1, 0x1F
00004E82  0C41 0014                cmpi.w     D1, 0x14
00004E86  57C5                     seq        D5
00004E88  4405                     neg.b      D5
00004E8A  4885                     ext.w      D5
00004E8C  6018                     bra        +0x1A /* 00004EA6 */
label00004E8E:
00004E8E  206D BD82                movea.l    A0, [A5 - 0x427E]
00004E92  7000                     moveq.l    D0, 0x00
00004E94  1030 7001                move.b     D0, [A0 + D7.w + 0x1]
00004E98  0240 001F                andi.w     D0, 0x1F
00004E9C  0C40 0014                cmpi.w     D0, 0x14
00004EA0  57C5                     seq        D5
00004EA2  4405                     neg.b      D5
00004EA4  4885                     ext.w      D5
label00004EA6:
00004EA6  4A46                     tst.w      D6
00004EA8  670A                     beq        +0xC /* 00004EB4 */
00004EAA  4A45                     tst.w      D5
00004EAC  6706                     beq        +0x8 /* 00004EB4 */
00004EAE  0014 0003                ori.b      [A4], 0x3
00004EB2  6018                     bra        +0x1A /* 00004ECC */
label00004EB4:
00004EB4  4A46                     tst.w      D6
00004EB6  6706                     beq        +0x8 /* 00004EBE */
00004EB8  0014 0002                ori.b      [A4], 0x2
00004EBC  600E                     bra        +0x10 /* 00004ECC */
label00004EBE:
00004EBE  4A45                     tst.w      D5
00004EC0  6706                     beq        +0x8 /* 00004EC8 */
00004EC2  0014 0001                ori.b      [A4], 0x1
00004EC6  6004                     bra        +0x6 /* 00004ECC */
label00004EC8:
00004EC8  0014 0000                ori.b      [A4], 0x0
label00004ECC:
00004ECC  4CDF 10F0                movem.l    D4,D5,D6,D7,A4, [A7]+
00004ED0  4E5E                     unlink     A6
00004ED2  4E75                     rts
00004ED4  FECC FFF8                .extension 0xECC <<F/2-3/7>> // unimplemented
00004ED8  FFF8                     .invalid   <<F/7/7>>
00004EDA  FFF8                     .invalid   <<F/7/7>>
00004EDC  FFF8                     .invalid   <<F/7/7>>
00004EDE  FFF8                     .invalid   <<F/7/7>>
00004EE0  FEE6 FEE0                .extension 0xEE6 <<F/2-3/7>> // unimplemented
00004EE4  FFF8                     .invalid   <<F/7/7>>
00004EE6  FFF8                     .invalid   <<F/7/7>>
00004EE8  FFF8                     .invalid   <<F/7/7>>
00004EEA  FFF8                     .invalid   <<F/7/7>>
00004EEC  FFF8                     .invalid   <<F/7/7>>
00004EEE  FFF8                     .invalid   <<F/7/7>>
00004EF0  FFF8                     .invalid   <<F/7/7>>
00004EF2  FFF8                     .invalid   <<F/7/7>>
00004EF4  FF28                     .extension 0xF28 <<F/4-5/7>> // unimplemented
export_154:
00004EF6  426D BDA4                clr.w      [A5 - 0x425C]
00004EFA  426D BDA2                clr.w      [A5 - 0x425E]
00004EFE  426D BDA0                clr.w      [A5 - 0x4260]
00004F02  426D BD9E                clr.w      [A5 - 0x4262]
00004F06  426D BD9C                clr.w      [A5 - 0x4264]
00004F0A  41ED 04CA                lea.l      A0, [A5 + 0x4CA /* export_149, CODE:4 @ 00004376 */]
00004F0E  2B48 BD70                move.l     [A5 - 0x4290], A0
00004F12  4EBA E020                jsr        [PC - 0x1FE0 /* 00002F34 */]
00004F16  4EBA 07BE                jsr        [PC + 0x7BE /* 000056D6 */]
00004F1A  4EBA 0004                jsr        [PC + 0x4 /* 00004F20 */]
00004F1E  4E75                     rts
export_155:
fn00004F20:
00004F20  48E7 0308                movem.l    -[A7], D6,D7,A4
00004F24  4EBA E798                jsr        [PC - 0x1868 /* 000036BE */]
00004F28  1F3C 001E                move.b     -[A7], 0x1E
00004F2C  4EBA 0402                jsr        [PC + 0x402 /* 00005330 */]
00004F30  3B7C 00BC F226           move.w     [A5 - 0xDDA], 0xBC
00004F36  3B7C 00BF F224           move.w     [A5 - 0xDDC], 0xBF
00004F3C  7E02                     moveq.l    D7, 0x02
00004F3E  49ED B64A                lea.l      A4, [A5 - 0x49B6]
00004F42  548F                     addq.l     A7, 2
00004F44  6038                     bra        +0x3A /* 00004F7E */
label00004F46:
00004F46  3B47 F21E                move.w     [A5 - 0xDE2], D7
00004F4A  4EBA E7D8                jsr        [PC - 0x1828 /* 00003724 */]
00004F4E  7C00                     moveq.l    D6, 0x00
00004F50  6016                     bra        +0x18 /* 00004F68 */
label00004F52:
00004F52  3B46 F220                move.w     [A5 - 0xDE0], D6
00004F56  4EBA E6F6                jsr        [PC - 0x190A /* 0000364E */]
00004F5A  3014                     move.w     D0, [A4]
00004F5C  D046                     add.w      D0, D6
00004F5E  3F00                     move.w     -[A7], D0
00004F60  4EBA E4DC                jsr        [PC - 0x1B24 /* 0000343E */]
00004F64  548F                     addq.l     A7, 2
00004F66  5246                     addq.w     D6, 1
label00004F68:
00004F68  0C46 000A                cmpi.w     D6, 0xA /* '\n' */
00004F6C  6DE4                     blt        -0x1A /* 00004F52 */
00004F6E  046D 003F F226           subi.w     [A5 - 0xDDA], 0x3F /* '?' */
00004F74  046D 003F F224           subi.w     [A5 - 0xDDC], 0x3F /* '?' */
00004F7A  5347                     subq.w     D7, 1
00004F7C  558C                     subq.l     A4, 2
label00004F7E:
00004F7E  4A47                     tst.w      D7
00004F80  6CC4                     bge        -0x3A /* 00004F46 */
00004F82  3E2D BA6A                move.w     D7, [A5 - 0x4596]
00004F86  3B6D BA70 BA6A           move.w     [A5 - 0x4596], [A5 - 0x4590]
00004F8C  4EBA E2C4                jsr        [PC - 0x1D3C /* 00003252 */]
00004F90  4EBA E72C                jsr        [PC - 0x18D4 /* 000036BE */]
00004F94  3B7C 0002 F21E           move.w     [A5 - 0xDE2], 0x2
00004F9A  4EBA E788                jsr        [PC - 0x1878 /* 00003724 */]
00004F9E  7C00                     moveq.l    D6, 0x00
00004FA0  6012                     bra        +0x14 /* 00004FB4 */
label00004FA2:
00004FA2  3B46 F220                move.w     [A5 - 0xDE0], D6
00004FA6  4EBA E6A6                jsr        [PC - 0x195A /* 0000364E */]
00004FAA  3F06                     move.w     -[A7], D6
00004FAC  4EBA E54E                jsr        [PC - 0x1AB2 /* 000034FC */]
00004FB0  548F                     addq.l     A7, 2
00004FB2  5246                     addq.w     D6, 1
label00004FB4:
00004FB4  0C46 000A                cmpi.w     D6, 0xA /* '\n' */
00004FB8  6DE8                     blt        -0x16 /* 00004FA2 */
00004FBA  3B47 BA6A                move.w     [A5 - 0x4596], D7
00004FBE  4EBA E292                jsr        [PC - 0x1D6E /* 00003252 */]
00004FC2  1F3C 00FF                move.b     -[A7], 0xFF
00004FC6  4EBA 0368                jsr        [PC + 0x368 /* 00005330 */]
00004FCA  548F                     addq.l     A7, 2
00004FCC  4CDF 10C0                movem.l    D6,D7,A4, [A7]+
00004FD0  4E75                     rts
fn00004FD2:
00004FD2  4E56 0000                link       A6, 0
00004FD6  2F3C 0004 0002           move.l     -[A7], 0x40002
00004FDC  3F2E 0008                move.w     -[A7], [A6 + 0x8]
00004FE0  3F2D F224                move.w     -[A7], [A5 - 0xDDC]
00004FE4  3F2D F222                move.w     -[A7], [A5 - 0xDDE]
00004FE8  4267                     clr.w      -[A7]
00004FEA  4EBA F582                jsr        [PC - 0xA7E /* 0000456E */]
00004FEE  4E5E                     unlink     A6
00004FF0  4E75                     rts
export_156:
00004FF2  426D F22A                clr.w      [A5 - 0xDD6]
00004FF6  4A6D B93C                tst.w      [A5 - 0x46C4]
00004FFA  6710                     beq        +0x12 /* 0000500C */
00004FFC  1F3C 0002                move.b     -[A7], 0x2
00005000  486D A5CC                pea.l      [A5 - 0x5A34]
00005004  206D A3E2                movea.l    A0, [A5 - 0x5C1E]
00005008  4E90                     jsr        [A0]
0000500A  5C8F                     addq.l     A7, 6
label0000500C:
0000500C  4EBA 0020                jsr        [PC + 0x20 /* 0000502E */]
00005010  4267                     clr.w      -[A7]
00005012  4EBA F6EE                jsr        [PC - 0x912 /* 00004702 */]
00005016  4EBA F68A                jsr        [PC - 0x976 /* 000046A2 */]
0000501A  4EBA F6A6                jsr        [PC - 0x95A /* 000046C2 */]
0000501E  3EBC 0001                move.w     [A7], 0x1
00005022  4EBA F6DE                jsr        [PC - 0x922 /* 00004702 */]
00005026  4EBA F6BA                jsr        [PC - 0x946 /* 000046E2 */]
0000502A  548F                     addq.l     A7, 2
0000502C  4E75                     rts
fn0000502E:
0000502E  48E7 0118                movem.l    -[A7], D7,A3,A4
00005032  3E2D E6AA                move.w     D7, [A5 - 0x1956]
00005036  700C                     moveq.l    D0, 0x0C
00005038  C1C7                     muls.w     D0, D7
0000503A  47ED E6AC                lea.l      A3, [A5 - 0x1954]
0000503E  D08B                     add.l      D0, A3
00005040  2640                     movea.l    A3, D0
00005042  603E                     bra        +0x40 /* 00005082 */
label00005044:
00005044  5347                     subq.w     D7, 1
00005046  47EB FFF4                lea.l      A3, [A3 - 0xC]
0000504A  2B53 A5F4                move.l     [A5 - 0x5A0C], [A3]
0000504E  2B6B 0004 A5F8           move.l     [A5 - 0x5A08], [A3 + 0x4]
00005054  286B 0008                movea.l    A4, [A3 + 0x8]
00005058  200C                     move.l     D0, A4
0000505A  6722                     beq        +0x24 /* 0000507E */
0000505C  2F0C                     move.l     -[A7], A4
0000505E  486D A5F4                pea.l      [A5 - 0x5A0C]
00005062  206D A3EA                movea.l    A0, [A5 - 0x5C16]
00005066  4E90                     jsr        [A0]
00005068  4A6D F228                tst.w      [A5 - 0xDD8]
0000506C  508F                     addq.l     A7, 8
0000506E  670A                     beq        +0xC /* 0000507A */
00005070  486D A5F4                pea.l      [A5 - 0x5A0C]
00005074  4EBA F550                jsr        [PC - 0xAB0 /* 000045C6 */]
00005078  588F                     addq.l     A7, 4
label0000507A:
0000507A  204C                     movea.l    A0, A4
0000507C  A023                     syscall    DisposHandle/DisposeHandle
label0000507E:
0000507E  42AB 0008                clr.l      [A3 + 0x8]
label00005082:
00005082  4A47                     tst.w      D7
00005084  66BE                     bne        -0x40 /* 00005044 */
00005086  426D E6AA                clr.w      [A5 - 0x1956]
0000508A  4CDF 1880                movem.l    D7,A3,A4, [A7]+
0000508E  4E75                     rts
export_157:
fn00005090:
00005090  48E7 0138                movem.l    -[A7], D7,A2,A3,A4
00005094  3E2D E6AA                move.w     D7, [A5 - 0x1956]
00005098  700C                     moveq.l    D0, 0x0C
0000509A  C1C7                     muls.w     D0, D7
0000509C  45ED E6AC                lea.l      A2, [A5 - 0x1954]
000050A0  D08A                     add.l      D0, A2
000050A2  2440                     movea.l    A2, D0
000050A4  6016                     bra        +0x18 /* 000050BC */
label000050A6:
000050A6  5347                     subq.w     D7, 1
000050A8  45EA FFF4                lea.l      A2, [A2 - 0xC]
000050AC  47EA 0008                lea.l      A3, [A2 + 0x8]
000050B0  2853                     movea.l    A4, [A3]
000050B2  200C                     move.l     D0, A4
000050B4  6704                     beq        +0x6 /* 000050BA */
000050B6  204C                     movea.l    A0, A4
000050B8  A023                     syscall    DisposHandle/DisposeHandle
label000050BA:
000050BA  4293                     clr.l      [A3]
label000050BC:
000050BC  4A47                     tst.w      D7
000050BE  66E6                     bne        -0x18 /* 000050A6 */
000050C0  426D E6AA                clr.w      [A5 - 0x1956]
000050C4  4CDF 1C80                movem.l    D7,A2,A3,A4, [A7]+
000050C8  4E75                     rts
fn000050CA:
000050CA  48E7 0F08                movem.l    -[A7], D4,D5,D6,D7,A4
000050CE  7E01                     moveq.l    D7, 0x01
000050D0  DE6D F222                add.w      D7, [A5 - 0xDDE]
000050D4  7CF3                     moveq.l    D6, 0xFFFFFFF3
000050D6  DC6D F226                add.w      D6, [A5 - 0xDDA]
000050DA  7000                     moveq.l    D0, 0x00
000050DC  102D BA97                move.b     D0, [A5 - 0x4569]
000050E0  3A06                     move.w     D5, D6
000050E2  9A40                     sub.w      D5, D0
000050E4  382D BA32                move.w     D4, [A5 - 0x45CE]
000050E8  426D BA32                clr.w      [A5 - 0x45CE]
000050EC  2007                     move.l     D0, D7
000050EE  E748                     lsl        D0.w, 3
000050F0  3840                     movea.w    A4, D0
000050F2  D9CC                     add.l      A4, A4
000050F4  41ED 9866                lea.l      A0, [A5 - 0x679A]
000050F8  D9C8                     add.l      A4, A0
000050FA  3F3C 0001                move.w     -[A7], 0x1
000050FE  204D                     movea.l    A0, A5
00005100  D0C6                     add.w      A0, D6
00005102  D0C6                     add.w      A0, D6
00005104  3F28 9C64                move.w     -[A7], [A0 - 0x639C]
00005108  3F14                     move.w     -[A7], [A4]
0000510A  2F3C 0006 0063           move.l     -[A7], 0x60063
00005110  4EAD 011A                jsr        [A5 + 0x11A /* export_31, CODE:2 @ 00002F40 */]
00005114  3B6D A5F4 BD9A           move.w     [A5 - 0x4266], [A5 - 0x5A0C]
0000511A  3B6D A5FA BAE2           move.w     [A5 - 0x451E], [A5 - 0x5A06]
00005120  3EBC 0001                move.w     [A7], 0x1
00005124  204D                     movea.l    A0, A5
00005126  D0C5                     add.w      A0, D5
00005128  D0C5                     add.w      A0, D5
0000512A  3F28 9C64                move.w     -[A7], [A0 - 0x639C]
0000512E  3F14                     move.w     -[A7], [A4]
00005130  2F3C 0006 0021           move.l     -[A7], 0x60021
00005136  4EAD 011A                jsr        [A5 + 0x11A /* export_31, CODE:2 @ 00002F40 */]
0000513A  3B6D A5F8 BD98           move.w     [A5 - 0x4268], [A5 - 0x5A08]
00005140  3B44 BA32                move.w     [A5 - 0x45CE], D4
00005144  3E86                     move.w     [A7], D6
00005146  4267                     clr.w      -[A7]
00005148  3F07                     move.w     -[A7], D7
0000514A  2F3C 0006 0063           move.l     -[A7], 0x60063
00005150  4EBA F224                jsr        [PC - 0xDDC /* 00004376 */]
00005154  7000                     moveq.l    D0, 0x00
00005156  102D F15E                move.b     D0, [A5 - 0xEA2]
0000515A  B06D BA6A                cmp.w      D0, [A5 - 0x4596]
0000515E  4FEF 001A                lea.l      A7, [A7 + 0x1A]
00005162  671A                     beq        +0x1C /* 0000517E */
00005164  4A2D BA97                tst.b      [A5 - 0x4569]
00005168  6714                     beq        +0x16 /* 0000517E */
0000516A  3F06                     move.w     -[A7], D6
0000516C  4267                     clr.w      -[A7]
0000516E  3F07                     move.w     -[A7], D7
00005170  2F3C 0006 0090           move.l     -[A7], 0x60090
00005176  4EBA F1FE                jsr        [PC - 0xE02 /* 00004376 */]
0000517A  4FEF 000A                lea.l      A7, [A7 + 0xA]
label0000517E:
0000517E  3B6D BD9A BD74           move.w     [A5 - 0x428C], [A5 - 0x4266]
00005184  3F05                     move.w     -[A7], D5
00005186  4267                     clr.w      -[A7]
00005188  3F07                     move.w     -[A7], D7
0000518A  2F3C 0006 0021           move.l     -[A7], 0x60021
00005190  4EBA F1E4                jsr        [PC - 0xE1C /* 00004376 */]
00005194  4FEF 000A                lea.l      A7, [A7 + 0xA]
00005198  4CDF 10F0                movem.l    D4,D5,D6,D7,A4, [A7]+
0000519C  4E75                     rts
export_158:
fn0000519E:
0000519E  4E56 0000                link       A6, 0
000051A2  48E7 0300                movem.l    -[A7], D6,D7
000051A6  3E2E 0008                move.w     D7, [A6 + 0x8]
000051AA  4A47                     tst.w      D7
000051AC  6720                     beq        +0x22 /* 000051CE */
000051AE  204D                     movea.l    A0, A5
000051B0  D0C7                     add.w      A0, D7
000051B2  D0C7                     add.w      A0, D7
000051B4  3C28 AA36                move.w     D6, [A0 - 0x55CA]
000051B8  48C6                     ext.l      D6
000051BA  41ED E91E                lea.l      A0, [A5 - 0x16E2]
000051BE  D1C6                     add.l      A0, D6
000051C0  2B48 BD82                move.l     [A5 - 0x427E], A0
000051C4  43ED EBEE                lea.l      A1, [A5 - 0x1412]
000051C8  D3C6                     add.l      A1, D6
000051CA  2B49 BD86                move.l     [A5 - 0x427A], A1
label000051CE:
000051CE  3B47 BD80                move.w     [A5 - 0x4280], D7
000051D2  4CDF 00C0                movem.l    D6,D7, [A7]+
000051D6  4E5E                     unlink     A6
000051D8  4E75                     rts
fn000051DA:
000051DA  4A2D BA96                tst.b      [A5 - 0x456A]
000051DE  6600 0082                bne        +0x84 /* 00005262 */
000051E2  4A2D B96D                tst.b      [A5 - 0x4693]
000051E6  667A                     bne        +0x7C /* 00005262 */
000051E8  102D B96E                move.b     D0, [A5 - 0x4692]
000051EC  4880                     ext.w      D0
000051EE  B06D F220                cmp.w      D0, [A5 - 0xDE0]
000051F2  666E                     bne        +0x70 /* 00005262 */
000051F4  41ED 04D2                lea.l      A0, [A5 + 0x4D2 /* export_150, CODE:4 @ 000043D4 */]
000051F8  2B48 BD70                move.l     [A5 - 0x4290], A0
000051FC  7000                     moveq.l    D0, 0x00
000051FE  102D BA94                move.b     D0, [A5 - 0x456C]
00005202  0C40 0019                cmpi.w     D0, 0x19
00005206  624E                     bhi        +0x50 /* 00005256 */
00005208  43FA 005A                lea.l      A1, [PC + 0x5A /* 00005264, value 0xFFF2FFB0 */]
0000520C  D040                     add.w      D0, D0
0000520E  D2F1 0000                add.w      A1, [A1 + D0.w]
00005212  4ED1                     jmp        [A1]
00005214  0C2D 0005 BA94           cmpi.b     [A5 - 0x456C], 0x5
0000521A  57C0                     seq        D0
0000521C  4400                     neg.b      D0
0000521E  4880                     ext.w      D0
00005220  D06D F226                add.w      D0, [A5 - 0xDDA]
00005224  3F00                     move.w     -[A7], D0
00005226  4267                     clr.w      -[A7]
00005228  3F2D F222                move.w     -[A7], [A5 - 0xDDE]
0000522C  7000                     moveq.l    D0, 0x00
0000522E  102D B96A                move.b     D0, [A5 - 0x4696]
00005232  204D                     movea.l    A0, A5
00005234  D0C0                     add.w      A0, D0
00005236  D0C0                     add.w      A0, D0
00005238  3F28 A972                move.w     -[A7], [A0 - 0x568E]
0000523C  3F3C 0006                move.w     -[A7], 0x6
00005240  4EBA F192                jsr        [PC - 0xE6E /* 000043D4 */]
00005244  4257                     clr.w      [A7]
00005246  4EBA EAC8                jsr        [PC - 0x1538 /* 00003D10 */]
0000524A  4257                     clr.w      [A7]
0000524C  4EBA EB6C                jsr        [PC - 0x1494 /* 00003DBA */]
00005250  4FEF 000A                lea.l      A7, [A7 + 0xA]
00005254  6004                     bra        +0x6 /* 0000525A */
label00005256:
00005256  4EBA 00B8                jsr        [PC + 0xB8 /* 00005310 */]
label0000525A:
0000525A  41ED 04CA                lea.l      A0, [A5 + 0x4CA /* export_149, CODE:4 @ 00004376 */]
0000525E  2B48 BD70                move.l     [A5 - 0x4290], A0
label00005262:
00005262  4E75                     rts
00005264  FFF2                     .invalid   <<F/7/7>>
00005266  FFB0                     .invalid   <<F/6/7>>
00005268  FFF2                     .invalid   <<F/7/7>>
0000526A  FFB0                     .invalid   <<F/6/7>>
0000526C  FFB0                     .invalid   <<F/6/7>>
0000526E  FFB0                     .invalid   <<F/6/7>>
00005270  FFB0                     .invalid   <<F/6/7>>
00005272  FFB0                     .invalid   <<F/6/7>>
00005274  FFB0                     .invalid   <<F/6/7>>
00005276  FFF2                     .invalid   <<F/7/7>>
00005278  FFF2                     .invalid   <<F/7/7>>
0000527A  FFB0                     .invalid   <<F/6/7>>
0000527C  FFF2                     .invalid   <<F/7/7>>
0000527E  FFF2                     .invalid   <<F/7/7>>
00005280  FFF2                     .invalid   <<F/7/7>>
00005282  FFF2                     .invalid   <<F/7/7>>
00005284  FFB0                     .invalid   <<F/6/7>>
00005286  FFF2                     .invalid   <<F/7/7>>
00005288  FFB0                     .invalid   <<F/6/7>>
0000528A  FFB0                     .invalid   <<F/6/7>>
0000528C  FFF2                     .invalid   <<F/7/7>>
0000528E  FFF2                     .invalid   <<F/7/7>>
00005290  FFF2                     .invalid   <<F/7/7>>
00005292  FFF2                     .invalid   <<F/7/7>>
00005294  FFF2                     .invalid   <<F/7/7>>
00005296  FFB0                     .invalid   <<F/6/7>>
fn00005298:
00005298  4A2D BA96                tst.b      [A5 - 0x456A]
0000529C  660E                     bne        +0x10 /* 000052AC */
0000529E  41ED 04D2                lea.l      A0, [A5 + 0x4D2 /* export_150, CODE:4 @ 000043D4 */]
000052A2  2B48 BD70                move.l     [A5 - 0x4290], A0
000052A6  4EBA 0068                jsr        [PC + 0x68 /* 00005310 */]
000052AA  605A                     bra        +0x5C /* 00005306 */
label000052AC:
000052AC  4A2D BA94                tst.b      [A5 - 0x456C]
000052B0  6754                     beq        +0x56 /* 00005306 */
000052B2  4A6D F220                tst.w      [A5 - 0xDE0]
000052B6  6F4E                     ble        +0x50 /* 00005306 */
000052B8  70FE                     moveq.l    D0, 0xFFFFFFFE
000052BA  D06D F220                add.w      D0, [A5 - 0xDE0]
000052BE  3F00                     move.w     -[A7], D0
000052C0  3F2D F21E                move.w     -[A7], [A5 - 0xDE2]
000052C4  4EBA E280                jsr        [PC - 0x1D80 /* 00003546 */]
000052C8  7200                     moveq.l    D1, 0x00
000052CA  1200                     move.b     D1, D0
000052CC  4A41                     tst.w      D1
000052CE  588F                     addq.l     A7, 4
000052D0  6634                     bne        +0x36 /* 00005306 */
000052D2  41ED 04D2                lea.l      A0, [A5 + 0x4D2 /* export_150, CODE:4 @ 000043D4 */]
000052D6  2B48 BD70                move.l     [A5 - 0x4290], A0
000052DA  4EBA 0034                jsr        [PC + 0x34 /* 00005310 */]
000052DE  41ED 04CA                lea.l      A0, [A5 + 0x4CA /* export_149, CODE:4 @ 00004376 */]
000052E2  2B48 BD70                move.l     [A5 - 0x4290], A0
000052E6  4EBA 0028                jsr        [PC + 0x28 /* 00005310 */]
000052EA  302D F21E                move.w     D0, [A5 - 0xDE2]
000052EE  204D                     movea.l    A0, A5
000052F0  D0C0                     add.w      A0, D0
000052F2  D0C0                     add.w      A0, D0
000052F4  3228 B646                move.w     D1, [A0 - 0x49BA]
000052F8  D26D F220                add.w      D1, [A5 - 0xDE0]
000052FC  204D                     movea.l    A0, A5
000052FE  D0C1                     add.w      A0, D1
00005300  117C 00FF BC44           move.b     [A0 - 0x43BC], 0xFF
label00005306:
00005306  41ED 04CA                lea.l      A0, [A5 + 0x4CA /* export_149, CODE:4 @ 00004376 */]
0000530A  2B48 BD70                move.l     [A5 - 0x4290], A0
0000530E  4E75                     rts
fn00005310:
00005310  4EBA E6B0                jsr        [PC - 0x1950 /* 000039C2 */]
00005314  4EBA E8F0                jsr        [PC - 0x1710 /* 00003C06 */]
00005318  4EBA EAFA                jsr        [PC - 0x1506 /* 00003E14 */]
0000531C  4EBA EB8E                jsr        [PC - 0x1472 /* 00003EAC */]
00005320  4267                     clr.w      -[A7]
00005322  4EBA E9EC                jsr        [PC - 0x1614 /* 00003D10 */]
00005326  4257                     clr.w      [A7]
00005328  4EBA EA90                jsr        [PC - 0x1570 /* 00003DBA */]
0000532C  548F                     addq.l     A7, 2
0000532E  4E75                     rts
fn00005330:
00005330  4E56 0000                link       A6, 0
00005334  48E7 0308                movem.l    -[A7], D6,D7,A4
00005338  3E2D BDA4                move.w     D7, [A5 - 0x425C]
0000533C  4A47                     tst.w      D7
0000533E  6760                     beq        +0x62 /* 000053A0 */
00005340  426D F380                clr.w      [A5 - 0xC80]
00005344  7CFF                     moveq.l    D6, 0xFFFFFFFF
00005346  DC47                     add.w      D6, D7
00005348  7014                     moveq.l    D0, 0x14
0000534A  C1C6                     muls.w     D0, D6
0000534C  49ED E2C2                lea.l      A4, [A5 - 0x1D3E]
00005350  D08C                     add.l      D0, A4
00005352  2840                     movea.l    A4, D0
00005354  6022                     bra        +0x24 /* 00005378 */
label00005356:
00005356  102C 000B                move.b     D0, [A4 + 0xB]
0000535A  B02E 0008                cmp.b      D0, [A6 + 0x8]
0000535E  6612                     bne        +0x14 /* 00005372 */
00005360  302D F380                move.w     D0, [A5 - 0xC80]
00005364  204D                     movea.l    A0, A5
00005366  D0C0                     add.w      A0, D0
00005368  D0C0                     add.w      A0, D0
0000536A  3146 F31C                move.w     [A0 - 0xCE4], D6
0000536E  526D F380                addq.w     [A5 - 0xC80], 1
label00005372:
00005372  5346                     subq.w     D6, 1
00005374  49EC FFEC                lea.l      A4, [A4 - 0x14]
label00005378:
00005378  4A46                     tst.w      D6
0000537A  6CDA                     bge        -0x24 /* 00005356 */
0000537C  4A6D F380                tst.w      [A5 - 0xC80]
00005380  671E                     beq        +0x20 /* 000053A0 */
00005382  4EBA 0024                jsr        [PC + 0x24 /* 000053A8 */]
00005386  7C00                     moveq.l    D6, 0x00
00005388  49ED F31C                lea.l      A4, [A5 - 0xCE4]
0000538C  600C                     bra        +0xE /* 0000539A */
label0000538E:
0000538E  3F14                     move.w     -[A7], [A4]
00005390  4EBA 0124                jsr        [PC + 0x124 /* 000054B6 */]
00005394  548F                     addq.l     A7, 2
00005396  5246                     addq.w     D6, 1
00005398  548C                     addq.l     A4, 2
label0000539A:
0000539A  BC6D F380                cmp.w      D6, [A5 - 0xC80]
0000539E  6DEE                     blt        -0x10 /* 0000538E */
label000053A0:
000053A0  4CDF 10C0                movem.l    D6,D7,A4, [A7]+
000053A4  4E5E                     unlink     A6
000053A6  4E75                     rts
fn000053A8:
000053A8  48E7 0718                movem.l    -[A7], D5,D6,D7,A3,A4
000053AC  7EFF                     moveq.l    D7, 0xFFFFFFFF
000053AE  DE6D F380                add.w      D7, [A5 - 0xC80]
label000053B2:
000053B2  7C00                     moveq.l    D6, 0x00
000053B4  7A00                     moveq.l    D5, 0x00
000053B6  49ED F31C                lea.l      A4, [A5 - 0xCE4]
000053BA  6026                     bra        +0x28 /* 000053E2 */
label000053BC:
000053BC  7001                     moveq.l    D0, 0x01
000053BE  D045                     add.w      D0, D5
000053C0  3F00                     move.w     -[A7], D0
000053C2  3F05                     move.w     -[A7], D5
000053C4  4EBA 002A                jsr        [PC + 0x2A /* 000053F0 */]
000053C8  4A00                     tst.b      D0
000053CA  588F                     addq.l     A7, 4
000053CC  6710                     beq        +0x12 /* 000053DE */
000053CE  3C14                     move.w     D6, [A4]
000053D0  47ED F31E                lea.l      A3, [A5 - 0xCE2]
000053D4  D6C5                     add.w      A3, D5
000053D6  D6C5                     add.w      A3, D5
000053D8  3893                     move.w     [A4], [A3]
000053DA  3686                     move.w     [A3], D6
000053DC  7C01                     moveq.l    D6, 0x01
label000053DE:
000053DE  5245                     addq.w     D5, 1
000053E0  548C                     addq.l     A4, 2
label000053E2:
000053E2  BE45                     cmp.w      D7, D5
000053E4  6ED6                     bgt        -0x28 /* 000053BC */
000053E6  4A46                     tst.w      D6
000053E8  66C8                     bne        -0x36 /* 000053B2 */
000053EA  4CDF 18E0                movem.l    D5,D6,D7,A3,A4, [A7]+
000053EE  4E75                     rts
fn000053F0:
000053F0  4E56 0000                link       A6, 0
000053F4  48E7 0718                movem.l    -[A7], D5,D6,D7,A3,A4
000053F8  204D                     movea.l    A0, A5
000053FA  302E 0008                move.w     D0, [A6 + 0x8]
000053FE  D0C0                     add.w      A0, D0
00005400  D0C0                     add.w      A0, D0
00005402  3E28 F31C                move.w     D7, [A0 - 0xCE4]
00005406  204D                     movea.l    A0, A5
00005408  322E 000A                move.w     D1, [A6 + 0xA]
0000540C  D0C1                     add.w      A0, D1
0000540E  D0C1                     add.w      A0, D1
00005410  3C28 F31C                move.w     D6, [A0 - 0xCE4]
00005414  7414                     moveq.l    D2, 0x14
00005416  C5C7                     muls.w     D2, D7
00005418  49ED E2C2                lea.l      A4, [A5 - 0x1D3E]
0000541C  D48C                     add.l      D2, A4
0000541E  2842                     movea.l    A4, D2
00005420  7E00                     moveq.l    D7, 0x00
00005422  1E2C 000A                move.b     D7, [A4 + 0xA]
00005426  7414                     moveq.l    D2, 0x14
00005428  C5C6                     muls.w     D2, D6
0000542A  47ED E2C2                lea.l      A3, [A5 - 0x1D3E]
0000542E  D48B                     add.l      D2, A3
00005430  2642                     movea.l    A3, D2
00005432  7C00                     moveq.l    D6, 0x00
00005434  1C2B 000A                move.b     D6, [A3 + 0xA]
00005438  0C47 0001                cmpi.w     D7, 0x1
0000543C  6604                     bne        +0x6 /* 00005442 */
0000543E  7001                     moveq.l    D0, 0x01
00005440  606C                     bra        +0x6E /* 000054AE */
label00005442:
00005442  0C46 0001                cmpi.w     D6, 0x1
00005446  6604                     bne        +0x6 /* 0000544C */
00005448  7000                     moveq.l    D0, 0x00
0000544A  6062                     bra        +0x64 /* 000054AE */
label0000544C:
0000544C  0C47 0002                cmpi.w     D7, 0x2
00005450  6618                     bne        +0x1A /* 0000546A */
00005452  3A2C 0002                move.w     D5, [A4 + 0x2]
00005456  0C45 0007                cmpi.w     D5, 0x7
0000545A  6604                     bne        +0x6 /* 00005460 */
0000545C  7000                     moveq.l    D0, 0x00
0000545E  604E                     bra        +0x50 /* 000054AE */
label00005460:
00005460  0C45 0021                cmpi.w     D5, 0x21 /* '!' */
00005464  6604                     bne        +0x6 /* 0000546A */
00005466  7001                     moveq.l    D0, 0x01
00005468  6044                     bra        +0x46 /* 000054AE */
label0000546A:
0000546A  0C46 0002                cmpi.w     D6, 0x2
0000546E  6618                     bne        +0x1A /* 00005488 */
00005470  3A2B 0002                move.w     D5, [A3 + 0x2]
00005474  0C45 0007                cmpi.w     D5, 0x7
00005478  6604                     bne        +0x6 /* 0000547E */
0000547A  7001                     moveq.l    D0, 0x01
0000547C  6030                     bra        +0x32 /* 000054AE */
label0000547E:
0000547E  0C45 0021                cmpi.w     D5, 0x21 /* '!' */
00005482  6604                     bne        +0x6 /* 00005488 */
00005484  7000                     moveq.l    D0, 0x00
00005486  6026                     bra        +0x28 /* 000054AE */
label00005488:
00005488  0C47 0080                cmpi.w     D7, 0x80
0000548C  6614                     bne        +0x16 /* 000054A2 */
0000548E  0C46 0080                cmpi.w     D6, 0x80
00005492  660E                     bne        +0x10 /* 000054A2 */
00005494  302C 0006                move.w     D0, [A4 + 0x6]
00005498  B06B 0006                cmp.w      D0, [A3 + 0x6]
0000549C  5DC0                     slt        D0
0000549E  4400                     neg.b      D0
000054A0  600C                     bra        +0xE /* 000054AE */
label000054A2:
000054A2  302C 0006                move.w     D0, [A4 + 0x6]
000054A6  B06B 0006                cmp.w      D0, [A3 + 0x6]
000054AA  5EC0                     sgt        D0
000054AC  4400                     neg.b      D0
label000054AE:
000054AE  4CDF 18E0                movem.l    D5,D6,D7,A3,A4, [A7]+
000054B2  4E5E                     unlink     A6
000054B4  4E75                     rts
fn000054B6:
000054B6  4E56 0000                link       A6, 0
000054BA  3F2E 0008                move.w     -[A7], [A6 + 0x8]
000054BE  4EBA 01AE                jsr        [PC + 0x1AE /* 0000566E */]
000054C2  4A40                     tst.w      D0
000054C4  548F                     addq.l     A7, 2
000054C6  6728                     beq        +0x2A /* 000054F0 */
000054C8  6B00 01A0                bmi        +0x1A2 /* 0000566A */
000054CC  5B40                     subq.w     D0, 5
000054CE  6700 0172                beq        +0x174 /* 00005642 */
000054D2  6A10                     bpl        +0x12 /* 000054E4 */
000054D4  5440                     addq.w     D0, 2
000054D6  6700 0140                beq        +0x142 /* 00005618 */
000054DA  6A14                     bpl        +0x16 /* 000054F0 */
000054DC  5240                     addq.w     D0, 1
000054DE  6A00 0162                bpl        +0x164 /* 00005642 */
000054E2  6058                     bra        +0x5A /* 0000553C */
label000054E4:
000054E4  0440 007B                subi.w     D0, 0x7B /* '{' */
000054E8  6700 0092                beq        +0x94 /* 0000557C */
000054EC  6000 017C                bra        +0x17E /* 0000566A */
label000054F0:
000054F0  0C6D 00FF BAF4           cmpi.w     [A5 - 0x450C], 0xFF
000054F6  6700 0172                beq        +0x174 /* 0000566A */
000054FA  4A6D BA8E                tst.w      [A5 - 0x4572]
000054FE  6710                     beq        +0x12 /* 00005510 */
00005500  302D BA8E                move.w     D0, [A5 - 0x4572]
00005504  48C0                     ext.l      D0
00005506  81FC 0002                divs.w     D0, 0x2
0000550A  4840                     swap.w     D0
0000550C  4A40                     tst.w      D0
0000550E  672C                     beq        +0x2E /* 0000553C */
label00005510:
00005510  522D AA35                addq.b     [A5 - 0x55CB], 1
00005514  3F2D BAF8                move.w     -[A7], [A5 - 0x4508]
00005518  7000                     moveq.l    D0, 0x00
0000551A  102D BD7E                move.b     D0, [A5 - 0x4282]
0000551E  3F00                     move.w     -[A7], D0
00005520  3F2D BD7A                move.w     -[A7], [A5 - 0x4286]
00005524  7001                     moveq.l    D0, 0x01
00005526  D06D BAF4                add.w      D0, [A5 - 0x450C]
0000552A  3F00                     move.w     -[A7], D0
0000552C  3F2D BAF2                move.w     -[A7], [A5 - 0x450E]
00005530  4EBA EEA2                jsr        [PC - 0x115E /* 000043D4 */]
00005534  4FEF 000A                lea.l      A7, [A7 + 0xA]
00005538  6000 0130                bra        +0x132 /* 0000566A */
label0000553C:
0000553C  4A6D BA8E                tst.w      [A5 - 0x4572]
00005540  6C0A                     bge        +0xC /* 0000554C */
00005542  3F3C 0029                move.w     -[A7], 0x29 /* ')' */
00005546  4EAD 03CA                jsr        [A5 + 0x3CA /* export_117, CODE:3 @ 000007B0 */]
0000554A  548F                     addq.l     A7, 2
label0000554C:
0000554C  522D AA35                addq.b     [A5 - 0x55CB], 1
00005550  522D AA36                addq.b     [A5 - 0x55CA], 1
00005554  3F2D BAF8                move.w     -[A7], [A5 - 0x4508]
00005558  7000                     moveq.l    D0, 0x00
0000555A  102D BD7E                move.b     D0, [A5 - 0x4282]
0000555E  3F00                     move.w     -[A7], D0
00005560  3F2D BD7A                move.w     -[A7], [A5 - 0x4286]
00005564  7001                     moveq.l    D0, 0x01
00005566  D06D BAF4                add.w      D0, [A5 - 0x450C]
0000556A  3F00                     move.w     -[A7], D0
0000556C  3F2D BAF2                move.w     -[A7], [A5 - 0x450E]
00005570  4EBA EE62                jsr        [PC - 0x119E /* 000043D4 */]
00005574  4FEF 000A                lea.l      A7, [A7 + 0xA]
00005578  6000 00F0                bra        +0xF2 /* 0000566A */
label0000557C:
0000557C  1B7C 00FF BAF1           move.b     [A5 - 0x450F], 0xFF
00005582  522D AA35                addq.b     [A5 - 0x55CB], 1
00005586  70FD                     moveq.l    D0, 0xFFFFFFFD
00005588  D06D BAF8                add.w      D0, [A5 - 0x4508]
0000558C  3F00                     move.w     -[A7], D0
0000558E  7000                     moveq.l    D0, 0x00
00005590  102D BD7E                move.b     D0, [A5 - 0x4282]
00005594  3F00                     move.w     -[A7], D0
00005596  3F2D BD7A                move.w     -[A7], [A5 - 0x4286]
0000559A  302D BAF4                move.w     D0, [A5 - 0x450C]
0000559E  204D                     movea.l    A0, A5
000055A0  D0C0                     add.w      A0, D0
000055A2  7200                     moveq.l    D1, 0x00
000055A4  1228 B574                move.b     D1, [A0 - 0x4A8C]
000055A8  3F01                     move.w     -[A7], D1
000055AA  3F2D BAF2                move.w     -[A7], [A5 - 0x450E]
000055AE  4EBA EE24                jsr        [PC - 0x11DC /* 000043D4 */]
000055B2  522D AA35                addq.b     [A5 - 0x55CB], 1
000055B6  3EAD BAF8                move.w     [A7], [A5 - 0x4508]
000055BA  7000                     moveq.l    D0, 0x00
000055BC  102D BD7E                move.b     D0, [A5 - 0x4282]
000055C0  3F00                     move.w     -[A7], D0
000055C2  3F2D BD7A                move.w     -[A7], [A5 - 0x4286]
000055C6  302D BAF4                move.w     D0, [A5 - 0x450C]
000055CA  204D                     movea.l    A0, A5
000055CC  D0C0                     add.w      A0, D0
000055CE  7200                     moveq.l    D1, 0x00
000055D0  1228 B58C                move.b     D1, [A0 - 0x4A74]
000055D4  3F01                     move.w     -[A7], D1
000055D6  3F2D BAF2                move.w     -[A7], [A5 - 0x450E]
000055DA  4EBA EDF8                jsr        [PC - 0x1208 /* 000043D4 */]
000055DE  522D AA35                addq.b     [A5 - 0x55CB], 1
000055E2  70FF                     moveq.l    D0, 0xFFFFFFFF
000055E4  D06D BAF8                add.w      D0, [A5 - 0x4508]
000055E8  3E80                     move.w     [A7], D0
000055EA  7000                     moveq.l    D0, 0x00
000055EC  102D BD7E                move.b     D0, [A5 - 0x4282]
000055F0  3F00                     move.w     -[A7], D0
000055F2  7004                     moveq.l    D0, 0x04
000055F4  D06D BAF6                add.w      D0, [A5 - 0x450A]
000055F8  3F00                     move.w     -[A7], D0
000055FA  302D BAF4                move.w     D0, [A5 - 0x450C]
000055FE  204D                     movea.l    A0, A5
00005600  D0C0                     add.w      A0, D0
00005602  7200                     moveq.l    D1, 0x00
00005604  1228 B580                move.b     D1, [A0 - 0x4A80]
00005608  3F01                     move.w     -[A7], D1
0000560A  3F2D BAF2                move.w     -[A7], [A5 - 0x450E]
0000560E  4EBA EDC4                jsr        [PC - 0x123C /* 000043D4 */]
00005612  4FEF 001A                lea.l      A7, [A7 + 0x1A]
00005616  6052                     bra        +0x54 /* 0000566A */
label00005618:
00005618  522D AA35                addq.b     [A5 - 0x55CB], 1
0000561C  3F2D BAF8                move.w     -[A7], [A5 - 0x4508]
00005620  7000                     moveq.l    D0, 0x00
00005622  102D BD7E                move.b     D0, [A5 - 0x4282]
00005626  3F00                     move.w     -[A7], D0
00005628  3F2D BD7A                move.w     -[A7], [A5 - 0x4286]
0000562C  7001                     moveq.l    D0, 0x01
0000562E  D06D BAF4                add.w      D0, [A5 - 0x450C]
00005632  3F00                     move.w     -[A7], D0
00005634  3F2D BAF2                move.w     -[A7], [A5 - 0x450E]
00005638  4EBA ED9A                jsr        [PC - 0x1266 /* 000043D4 */]
0000563C  4FEF 000A                lea.l      A7, [A7 + 0xA]
00005640  6028                     bra        +0x2A /* 0000566A */
label00005642:
00005642  522D AA35                addq.b     [A5 - 0x55CB], 1
00005646  3F2D BAF8                move.w     -[A7], [A5 - 0x4508]
0000564A  7000                     moveq.l    D0, 0x00
0000564C  102D BD7E                move.b     D0, [A5 - 0x4282]
00005650  3F00                     move.w     -[A7], D0
00005652  3F2D BD7A                move.w     -[A7], [A5 - 0x4286]
00005656  7001                     moveq.l    D0, 0x01
00005658  D06D BAF4                add.w      D0, [A5 - 0x450C]
0000565C  3F00                     move.w     -[A7], D0
0000565E  3F2D BAF2                move.w     -[A7], [A5 - 0x450E]
00005662  4EBA ED70                jsr        [PC - 0x1290 /* 000043D4 */]
00005666  4FEF 000A                lea.l      A7, [A7 + 0xA]
label0000566A:
0000566A  4E5E                     unlink     A6
0000566C  4E75                     rts
fn0000566E:
0000566E  4E56 0000                link       A6, 0
00005672  2F0C                     move.l     -[A7], A4
00005674  7014                     moveq.l    D0, 0x14
00005676  C1EE 0008                muls.w     D0, [A6 + 0x8]
0000567A  49ED E2C2                lea.l      A4, [A5 - 0x1D3E]
0000567E  D08C                     add.l      D0, A4
00005680  2840                     movea.l    A4, D0
00005682  102C 0004                move.b     D0, [A4 + 0x4]
00005686  4880                     ext.w      D0
00005688  3B40 BAF6                move.w     [A5 - 0x450A], D0
0000568C  3B40 BD7A                move.w     [A5 - 0x4286], D0
00005690  1B6C 0005 BD7E           move.b     [A5 - 0x4282], [A4 + 0x5]
00005696  322C 0006                move.w     D1, [A4 + 0x6]
0000569A  3B41 BAF8                move.w     [A5 - 0x4508], D1
0000569E  3B41 BD7C                move.w     [A5 - 0x4284], D1
000056A2  3B54 BAF2                move.w     [A5 - 0x450E], [A4]
000056A6  3B6C 0002 BAF4           move.w     [A5 - 0x450C], [A4 + 0x2]
000056AC  1B6C 0009 BAF1           move.b     [A5 - 0x450F], [A4 + 0x9]
000056B2  3B6C 000C BAFE           move.w     [A5 - 0x4502], [A4 + 0xC]
000056B8  3B6C 0010 BB00           move.w     [A5 - 0x4500], [A4 + 0x10]
000056BE  3B6C 000E BB02           move.w     [A5 - 0x44FE], [A4 + 0xE]
000056C4  3B6C 0012 BB04           move.w     [A5 - 0x44FC], [A4 + 0x12]
000056CA  7000                     moveq.l    D0, 0x00
000056CC  102C 000A                move.b     D0, [A4 + 0xA]
000056D0  285F                     movea.l    A4, [A7]+
000056D2  4E5E                     unlink     A6
000056D4  4E75                     rts
fn000056D6:
000056D6  4EAD 01F2                jsr        [A5 + 0x1F2 /* export_58, CODE:3 @ 0000170E */]
000056DA  4EBA 0010                jsr        [PC + 0x10 /* 000056EC */]
000056DE  4EBA 0032                jsr        [PC + 0x32 /* 00005712 */]
000056E2  4EAD 02DA                jsr        [A5 + 0x2DA /* export_87, CODE:3 @ 00004564 */]
000056E6  4EAD 03C2                jsr        [A5 + 0x3C2 /* export_116, CODE:3 @ 000006D8 */]
000056EA  4E75                     rts
fn000056EC:
000056EC  4A2D B973                tst.b      [A5 - 0x468D]
000056F0  671E                     beq        +0x20 /* 00005710 */
000056F2  102D B973                move.b     D0, [A5 - 0x468D]
000056F6  4880                     ext.w      D0
000056F8  B06D BA6A                cmp.w      D0, [A5 - 0x4596]
000056FC  6612                     bne        +0x14 /* 00005710 */
000056FE  4EBA 003A                jsr        [PC + 0x3A /* 0000573A */]
00005702  4A6D BA50                tst.w      [A5 - 0x45B0]
00005706  6C04                     bge        +0x6 /* 0000570C */
00005708  4EAD 038A                jsr        [A5 + 0x38A /* export_109, CODE:3 @ 00005756 */]
label0000570C:
0000570C  4EAD 0392                jsr        [A5 + 0x392 /* export_110, CODE:3 @ 0000583A */]
label00005710:
00005710  4E75                     rts
fn00005712:
00005712  0C2D 0056 B97F           cmpi.b     [A5 - 0x4681], 0x56 /* 'V' */
00005718  671E                     beq        +0x20 /* 00005738 */
0000571A  102D B985                move.b     D0, [A5 - 0x467B]
0000571E  4880                     ext.w      D0
00005720  B06D BA6A                cmp.w      D0, [A5 - 0x4596]
00005724  6612                     bne        +0x14 /* 00005738 */
00005726  4EBA 0062                jsr        [PC + 0x62 /* 0000578A */]
0000572A  4A6D BA52                tst.w      [A5 - 0x45AE]
0000572E  6C04                     bge        +0x6 /* 00005734 */
00005730  4EAD 038A                jsr        [A5 + 0x38A /* export_109, CODE:3 @ 00005756 */]
label00005734:
00005734  4EAD 0392                jsr        [A5 + 0x392 /* export_110, CODE:3 @ 0000583A */]
label00005738:
00005738  4E75                     rts
fn0000573A:
0000573A  4EAD 02C2                jsr        [A5 + 0x2C2 /* export_84, CODE:3 @ 0000447C */]
0000573E  4EAD 027A                jsr        [A5 + 0x27A /* export_75, CODE:3 @ 000040C8 */]
00005742  4EBA 0136                jsr        [PC + 0x136 /* 0000587A */]
00005746  4EAD 037A                jsr        [A5 + 0x37A /* export_107, CODE:3 @ 00005428 */]
0000574A  4EAD 02FA                jsr        [A5 + 0x2FA /* export_91, CODE:3 @ 0000477E */]
0000574E  4EAD 0382                jsr        [A5 + 0x382 /* export_108, CODE:3 @ 0000543A */]
00005752  4EAD 01E2                jsr        [A5 + 0x1E2 /* export_56, CODE:3 @ 000014DE */]
00005756  4EAD 01EA                jsr        [A5 + 0x1EA /* export_57, CODE:3 @ 000015B4 */]
0000575A  4EAD 0372                jsr        [A5 + 0x372 /* export_106, CODE:3 @ 0000521E */]
0000575E  0C6D 0004 A90C           cmpi.w     [A5 - 0x56F4], 0x4
00005764  661A                     bne        +0x1C /* 00005780 */
00005766  0C2D 0004 B94F           cmpi.b     [A5 - 0x46B1], 0x4
0000576C  6612                     bne        +0x14 /* 00005780 */
0000576E  0C6D 004D BA3C           cmpi.w     [A5 - 0x45C4], 0x4D /* 'M' */
00005774  660A                     bne        +0xC /* 00005780 */
00005776  3F3C 0004                move.w     -[A7], 0x4
0000577A  4EBA CB58                jsr        [PC - 0x34A8 /* 000022D4 */]
0000577E  548F                     addq.l     A7, 2
label00005780:
00005780  4227                     clr.b      -[A7]
00005782  4EBA 0070                jsr        [PC + 0x70 /* 000057F4 */]
00005786  548F                     addq.l     A7, 2
00005788  4E75                     rts
fn0000578A:
0000578A  2F07                     move.l     -[A7], D7
0000578C  4EAD 02D2                jsr        [A5 + 0x2D2 /* export_86, CODE:3 @ 000044A4 */]
00005790  4EAD 027A                jsr        [A5 + 0x27A /* export_75, CODE:3 @ 000040C8 */]
00005794  4EBA 00E4                jsr        [PC + 0xE4 /* 0000587A */]
00005798  4EAD 037A                jsr        [A5 + 0x37A /* export_107, CODE:3 @ 00005428 */]
0000579C  4EAD 02FA                jsr        [A5 + 0x2FA /* export_91, CODE:3 @ 0000477E */]
000057A0  4EAD 0382                jsr        [A5 + 0x382 /* export_108, CODE:3 @ 0000543A */]
000057A4  4EAD 01E2                jsr        [A5 + 0x1E2 /* export_56, CODE:3 @ 000014DE */]
000057A8  4EAD 01EA                jsr        [A5 + 0x1EA /* export_57, CODE:3 @ 000015B4 */]
000057AC  4EAD 0372                jsr        [A5 + 0x372 /* export_106, CODE:3 @ 0000521E */]
000057B0  0C2D 0001 B951           cmpi.b     [A5 - 0x46AF], 0x1
000057B6  6620                     bne        +0x22 /* 000057D8 */
000057B8  0C6D 0004 A90C           cmpi.w     [A5 - 0x56F4], 0x4
000057BE  6614                     bne        +0x16 /* 000057D4 */
000057C0  0C2D 0004 B94F           cmpi.b     [A5 - 0x46B1], 0x4
000057C6  660C                     bne        +0xE /* 000057D4 */
000057C8  3B6D 9976 BB02           move.w     [A5 - 0x44FE], [A5 - 0x668A]
000057CE  3B6D 9AE6 BB04           move.w     [A5 - 0x44FC], [A5 - 0x651A]
label000057D4:
000057D4  7E01                     moveq.l    D7, 0x01
000057D6  6010                     bra        +0x12 /* 000057E8 */
label000057D8:
000057D8  0C2D 00B9 B946           cmpi.b     [A5 - 0x46BA], 0xB9
000057DE  6606                     bne        +0x8 /* 000057E6 */
000057E0  1B7C 00FF BAF0           move.b     [A5 - 0x4510], 0xFF
label000057E6:
000057E6  7E02                     moveq.l    D7, 0x02
label000057E8:
000057E8  1F07                     move.b     -[A7], D7
000057EA  4EBA 0008                jsr        [PC + 0x8 /* 000057F4 */]
000057EE  548F                     addq.l     A7, 2
000057F0  2E1F                     move.l     D7, [A7]+
000057F2  4E75                     rts
export_159:
fn000057F4:
000057F4  4E56 0000                link       A6, 0
000057F8  48E7 0108                movem.l    -[A7], D7,A4
000057FC  3E2D BDA4                move.w     D7, [A5 - 0x425C]
00005800  0C47 0032                cmpi.w     D7, 0x32 /* '2' */
00005804  6C6A                     bge        +0x6C /* 00005870 */
00005806  7014                     moveq.l    D0, 0x14
00005808  C1C7                     muls.w     D0, D7
0000580A  49ED E2C2                lea.l      A4, [A5 - 0x1D3E]
0000580E  D08C                     add.l      D0, A4
00005810  2840                     movea.l    A4, D0
00005812  38AD BAF2                move.w     [A4], [A5 - 0x450E]
00005816  396D BAF4 0002           move.w     [A4 + 0x2], [A5 - 0x450C]
0000581C  486C 0005                pea.l      [A4 + 0x5]
00005820  486C 0004                pea.l      [A4 + 0x4]
00005824  3F2D BAF6                move.w     -[A7], [A5 - 0x450A]
00005828  4EBA 0154                jsr        [PC + 0x154 /* 0000597E */]
0000582C  396D BAF8 0006           move.w     [A4 + 0x6], [A5 - 0x4508]
00005832  422C 0008                clr.b      [A4 + 0x8]
00005836  196D BAF1 0009           move.b     [A4 + 0x9], [A5 - 0x450F]
0000583C  196E 0008 000A           move.b     [A4 + 0xA], [A6 + 0x8]
00005842  196D BAF0 000B           move.b     [A4 + 0xB], [A5 - 0x4510]
00005848  396D BAFE 000C           move.w     [A4 + 0xC], [A5 - 0x4502]
0000584E  396D BB02 000E           move.w     [A4 + 0xE], [A5 - 0x44FE]
00005854  396D BB00 0010           move.w     [A4 + 0x10], [A5 - 0x4500]
0000585A  396D BB04 0012           move.w     [A4 + 0x12], [A5 - 0x44FC]
00005860  102D BAF0                move.b     D0, [A5 - 0x4510]
00005864  4880                     ext.w      D0
00005866  3E80                     move.w     [A7], D0
00005868  4EBA CB36                jsr        [PC - 0x34CA /* 000023A0 */]
0000586C  526D BDA4                addq.w     [A5 - 0x425C], 1
label00005870:
00005870  4CEE 1080 FFF8           movem.l    D7,A4, [A6 - 0x8]
00005876  4E5E                     unlink     A6
00005878  4E75                     rts
export_160:
fn0000587A:
0000587A  48E7 0308                movem.l    -[A7], D6,D7,A4
0000587E  4EAD 02DA                jsr        [A5 + 0x2DA /* export_87, CODE:3 @ 00004564 */]
00005882  4EAD 028A                jsr        [A5 + 0x28A /* export_77, CODE:3 @ 000040E4 */]
00005886  1B6D B949 BAF1           move.b     [A5 - 0x450F], [A5 - 0x46B7]
0000588C  0C2D 00FF B98E           cmpi.b     [A5 - 0x4672], 0xFF
00005892  6608                     bne        +0xA /* 0000589C */
00005894  3B7C FFFF BAF4           move.w     [A5 - 0x450C], 0xFFFF
0000589A  600A                     bra        +0xC /* 000058A6 */
label0000589C:
0000589C  7000                     moveq.l    D0, 0x00
0000589E  102D B98E                move.b     D0, [A5 - 0x4672]
000058A2  3B40 BAF4                move.w     [A5 - 0x450C], D0
label000058A6:
000058A6  7000                     moveq.l    D0, 0x00
000058A8  102D B98F                move.b     D0, [A5 - 0x4671]
000058AC  EC40                     asr        D0.w, 6
000058AE  5440                     addq.w     D0, 2
000058B0  3B40 BAF2                move.w     [A5 - 0x450E], D0
000058B4  122D B990                move.b     D1, [A5 - 0x4670]
000058B8  4881                     ext.w      D1
000058BA  3F01                     move.w     -[A7], D1
000058BC  4EAD 029A                jsr        [A5 + 0x29A /* export_79, CODE:3 @ 000041FE */]
000058C0  D040                     add.w      D0, D0
000058C2  0640 FF8C                addi.w     D0, 0xFF8C
000058C6  3B40 BAF6                move.w     [A5 - 0x450A], D0
000058CA  7E00                     moveq.l    D7, 0x00
000058CC  1E2D B948                move.b     D7, [A5 - 0x46B8]
000058D0  122D B991                move.b     D1, [A5 - 0x466F]
000058D4  4881                     ext.w      D1
000058D6  D247                     add.w      D1, D7
000058D8  3B41 BAF8                move.w     [A5 - 0x4508], D1
000058DC  142D B992                move.b     D2, [A5 - 0x466E]
000058E0  4882                     ext.w      D2
000058E2  102D BAF1                move.b     D0, [A5 - 0x450F]
000058E6  4880                     ext.w      D0
000058E8  B142                     xor.w      D2, D0
000058EA  0242 0080                andi.w     D2, 0x80
000058EE  548F                     addq.l     A7, 2
000058F0  6604                     bne        +0x6 /* 000058F6 */
000058F2  526D BAF6                addq.w     [A5 - 0x450A], 1
label000058F6:
000058F6  4A2D BAF1                tst.b      [A5 - 0x450F]
000058FA  6C04                     bge        +0x6 /* 00005900 */
000058FC  7001                     moveq.l    D0, 0x01
000058FE  6002                     bra        +0x4 /* 00005902 */
label00005900:
00005900  70FF                     moveq.l    D0, 0xFFFFFFFF
label00005902:
00005902  3F00                     move.w     -[A7], D0
00005904  302D BAF8                move.w     D0, [A5 - 0x4508]
00005908  204D                     movea.l    A0, A5
0000590A  D0C0                     add.w      A0, D0
0000590C  D0C0                     add.w      A0, D0
0000590E  3F28 9C64                move.w     -[A7], [A0 - 0x639C]
00005912  3F2D BAF6                move.w     -[A7], [A5 - 0x450A]
00005916  4EBA 0088                jsr        [PC + 0x88 /* 000059A0 */]
0000591A  204D                     movea.l    A0, A5
0000591C  D0C0                     add.w      A0, D0
0000591E  D0C0                     add.w      A0, D0
00005920  3EA8 9866                move.w     [A7], [A0 - 0x679A]
00005924  7001                     moveq.l    D0, 0x01
00005926  D06D BAF4                add.w      D0, [A5 - 0x450C]
0000592A  3F00                     move.w     -[A7], D0
0000592C  3F2D BAF2                move.w     -[A7], [A5 - 0x450E]
00005930  4EAD 011A                jsr        [A5 + 0x11A /* export_31, CODE:2 @ 00002F40 */]
00005934  3E2D A5FA                move.w     D7, [A5 - 0x5A06]
00005938  9E6D A5F6                sub.w      D7, [A5 - 0x5A0A]
0000593C  7C00                     moveq.l    D6, 0x00
0000593E  49ED 9866                lea.l      A4, [A5 - 0x679A]
00005942  4FEF 000A                lea.l      A7, [A7 + 0xA]
00005946  6004                     bra        +0x6 /* 0000594C */
label00005948:
00005948  548C                     addq.l     A4, 2
0000594A  5246                     addq.w     D6, 1
label0000594C:
0000594C  BE54                     cmp.w      D7, [A4]
0000594E  6EF8                     bgt        -0x6 /* 00005948 */
00005950  3006                     move.w     D0, D6
00005952  E748                     lsl        D0.w, 3
00005954  9046                     sub.w      D0, D6
00005956  E840                     asr        D0.w, 4
00005958  3B40 BAFA                move.w     [A5 - 0x4506], D0
0000595C  3E2D A5F8                move.w     D7, [A5 - 0x5A08]
00005960  9E6D A5F4                sub.w      D7, [A5 - 0x5A0C]
00005964  7C00                     moveq.l    D6, 0x00
00005966  49ED 9C64                lea.l      A4, [A5 - 0x639C]
0000596A  6004                     bra        +0x6 /* 00005970 */
label0000596C:
0000596C  548C                     addq.l     A4, 2
0000596E  5246                     addq.w     D6, 1
label00005970:
00005970  BE54                     cmp.w      D7, [A4]
00005972  6EF8                     bgt        -0x6 /* 0000596C */
00005974  3B46 BAFC                move.w     [A5 - 0x4504], D6
00005978  4CDF 10C0                movem.l    D6,D7,A4, [A7]+
0000597C  4E75                     rts
fn0000597E:
0000597E  4E56 0000                link       A6, 0
00005982  206E 000A                movea.l    A0, [A6 + 0xA]
00005986  302E 0008                move.w     D0, [A6 + 0x8]
0000598A  E640                     asr        D0.w, 3
0000598C  1080                     move.b     [A0], D0
0000598E  206E 000E                movea.l    A0, [A6 + 0xE]
00005992  302E 0008                move.w     D0, [A6 + 0x8]
00005996  0240 0007                andi.w     D0, 0x7
0000599A  1080                     move.b     [A0], D0
0000599C  4E5E                     unlink     A6
0000599E  4E75                     rts
export_161:
fn000059A0:
000059A0  4E56 0000                link       A6, 0
000059A4  302E 0008                move.w     D0, [A6 + 0x8]
000059A8  48C0                     ext.l      D0
000059AA  E780                     asl        D0, 3
000059AC  81FC 0007                divs.w     D0, 0x7
000059B0  4E5E                     unlink     A6
000059B2  4E75                     rts
export_162:
000059B4  2F07                     move.l     -[A7], D7
000059B6  0C6D 000F BA64           cmpi.w     [A5 - 0x459C], 0xF
000059BC  6700 011A                beq        +0x11C /* 00005AD8 */
000059C0  4A2D B977                tst.b      [A5 - 0x4689]
000059C4  6C72                     bge        +0x74 /* 00005A38 */
000059C6  4A6D BA8C                tst.w      [A5 - 0x4574]
000059CA  676C                     beq        +0x6E /* 00005A38 */
000059CC  0C6D 000D A90C           cmpi.w     [A5 - 0x56F4], 0xD /* '\r' */
000059D2  6E64                     bgt        +0x66 /* 00005A38 */
000059D4  0C6D 000D A90C           cmpi.w     [A5 - 0x56F4], 0xD /* '\r' */
000059DA  6606                     bne        +0x8 /* 000059E2 */
000059DC  4A6D BA3C                tst.w      [A5 - 0x45C4]
000059E0  6656                     bne        +0x58 /* 00005A38 */
label000059E2:
000059E2  536D BA80                subq.w     [A5 - 0x4580], 1
000059E6  4A6D BA80                tst.w      [A5 - 0x4580]
000059EA  662A                     bne        +0x2C /* 00005A16 */
000059EC  536D BA8C                subq.w     [A5 - 0x4574], 1
000059F0  3B7C 02CF BA80           move.w     [A5 - 0x4580], 0x2CF
000059F6  302D BA8C                move.w     D0, [A5 - 0x4574]
000059FA  48C0                     ext.l      D0
000059FC  81FC 0005                divs.w     D0, 0x5
00005A00  4840                     swap.w     D0
00005A02  4A40                     tst.w      D0
00005A04  6708                     beq        +0xA /* 00005A0E */
00005A06  0C6D 0005 BA8C           cmpi.w     [A5 - 0x4574], 0x5
00005A0C  6C2A                     bge        +0x2C /* 00005A38 */
label00005A0E:
00005A0E  3B7C 0001 BA42           move.w     [A5 - 0x45BE], 0x1
00005A14  6022                     bra        +0x24 /* 00005A38 */
label00005A16:
00005A16  0C6D 0001 BA8C           cmpi.w     [A5 - 0x4574], 0x1
00005A1C  661A                     bne        +0x1C /* 00005A38 */
00005A1E  302D BA80                move.w     D0, [A5 - 0x4580]
00005A22  48C0                     ext.l      D0
00005A24  81FC 000C                divs.w     D0, 0xC
00005A28  4840                     swap.w     D0
00005A2A  4A40                     tst.w      D0
00005A2C  660A                     bne        +0xC /* 00005A38 */
00005A2E  3B7C 0001 BA42           move.w     [A5 - 0x45BE], 0x1
00005A34  426D BA86                clr.w      [A5 - 0x457A]
label00005A38:
00005A38  4A6D BA42                tst.w      [A5 - 0x45BE]
00005A3C  6700 009A                beq        +0x9C /* 00005AD8 */
00005A40  4A6D BA86                tst.w      [A5 - 0x457A]
00005A44  6600 0092                bne        +0x94 /* 00005AD8 */
00005A48  7018                     moveq.l    D0, 0x18
00005A4A  3B40 BA90                move.w     [A5 - 0x4570], D0
00005A4E  3B40 BA86                move.w     [A5 - 0x457A], D0
00005A52  4A6D BA8C                tst.w      [A5 - 0x4574]
00005A56  660C                     bne        +0xE /* 00005A64 */
00005A58  486D 96F4                pea.l      [A5 - 0x690C]
00005A5C  4EBA 0110                jsr        [PC + 0x110 /* 00005B6E */]
00005A60  588F                     addq.l     A7, 4
00005A62  6070                     bra        +0x72 /* 00005AD4 */
label00005A64:
00005A64  0C6D 0001 BA8C           cmpi.w     [A5 - 0x4574], 0x1
00005A6A  6646                     bne        +0x48 /* 00005AB2 */
00005A6C  3E2D BA80                move.w     D7, [A5 - 0x4580]
00005A70  48C7                     ext.l      D7
00005A72  8FFC 000C                divs.w     D7, 0xC
00005A76  0C47 0001                cmpi.w     D7, 0x1
00005A7A  6E16                     bgt        +0x18 /* 00005A92 */
00005A7C  486D 96E4                pea.l      [A5 - 0x691C]
00005A80  4EBA 00EC                jsr        [PC + 0xEC /* 00005B6E */]
00005A84  700C                     moveq.l    D0, 0x0C
00005A86  3B40 BA90                move.w     [A5 - 0x4570], D0
00005A8A  3B40 BA86                move.w     [A5 - 0x457A], D0
00005A8E  588F                     addq.l     A7, 4
00005A90  6042                     bra        +0x44 /* 00005AD4 */
label00005A92:
00005A92  3F07                     move.w     -[A7], D7
00005A94  4EAD 007A                jsr        [A5 + 0x7A /* export_11, CODE:2 @ 00002268 */]
00005A98  1B40 96D5                move.b     [A5 - 0x692B], D0
00005A9C  3E87                     move.w     [A7], D7
00005A9E  4EAD 008A                jsr        [A5 + 0x8A /* export_13, CODE:2 @ 000022B4 */]
00005AA2  1B40 96D6                move.b     [A5 - 0x692A], D0
00005AA6  486D 96D4                pea.l      [A5 - 0x692C]
00005AAA  4EBA 00C2                jsr        [PC + 0xC2 /* 00005B6E */]
00005AAE  5C8F                     addq.l     A7, 6
00005AB0  6022                     bra        +0x24 /* 00005AD4 */
label00005AB2:
00005AB2  3F2D BA8C                move.w     -[A7], [A5 - 0x4574]
00005AB6  4EAD 007A                jsr        [A5 + 0x7A /* export_11, CODE:2 @ 00002268 */]
00005ABA  1B40 96C5                move.b     [A5 - 0x693B], D0
00005ABE  3EAD BA8C                move.w     [A7], [A5 - 0x4574]
00005AC2  4EAD 008A                jsr        [A5 + 0x8A /* export_13, CODE:2 @ 000022B4 */]
00005AC6  1B40 96C6                move.b     [A5 - 0x693A], D0
00005ACA  486D 96C4                pea.l      [A5 - 0x693C]
00005ACE  4EBA 009E                jsr        [PC + 0x9E /* 00005B6E */]
00005AD2  5C8F                     addq.l     A7, 6
label00005AD4:
00005AD4  426D BA42                clr.w      [A5 - 0x45BE]
label00005AD8:
00005AD8  2E1F                     move.l     D7, [A7]+
00005ADA  4E75                     rts
export_163:
00005ADC  2F07                     move.l     -[A7], D7
00005ADE  3E2D A90C                move.w     D7, [A5 - 0x56F4]
00005AE2  0C47 000F                cmpi.w     D7, 0xF
00005AE6  661C                     bne        +0x1E /* 00005B04 */
00005AE8  303C 7530                move.w     D0, 0x7530 /* 'u0' */
00005AEC  3B40 BA90                move.w     [A5 - 0x4570], D0
00005AF0  3B40 BA86                move.w     [A5 - 0x457A], D0
00005AF4  486D 9746                pea.l      [A5 - 0x68BA]
00005AF8  4EBA 0074                jsr        [PC + 0x74 /* 00005B6E */]
00005AFC  426D BA42                clr.w      [A5 - 0x45BE]
00005B00  588F                     addq.l     A7, 4
00005B02  6062                     bra        +0x64 /* 00005B66 */
label00005B04:
00005B04  4A47                     tst.w      D7
00005B06  675E                     beq        +0x60 /* 00005B66 */
00005B08  0C47 000E                cmpi.w     D7, 0xE
00005B0C  6758                     beq        +0x5A /* 00005B66 */
00005B0E  4A6D BA22                tst.w      [A5 - 0x45DE]
00005B12  6652                     bne        +0x54 /* 00005B66 */
00005B14  0C47 000D                cmpi.w     D7, 0xD /* '\r' */
00005B18  6602                     bne        +0x4 /* 00005B1C */
00005B1A  5347                     subq.w     D7, 1
label00005B1C:
00005B1C  7018                     moveq.l    D0, 0x18
00005B1E  3B40 BA90                move.w     [A5 - 0x4570], D0
00005B22  3B40 BA86                move.w     [A5 - 0x457A], D0
00005B26  0C47 000A                cmpi.w     D7, 0xA /* '\n' */
00005B2A  6C14                     bge        +0x16 /* 00005B40 */
00005B2C  3F07                     move.w     -[A7], D7
00005B2E  4EAD 008A                jsr        [A5 + 0x8A /* export_13, CODE:2 @ 000022B4 */]
00005B32  1B40 96C1                move.b     [A5 - 0x693F], D0
00005B36  1B7C 0020 96C2           move.b     [A5 - 0x693E], 0x20 /* ' ' */
00005B3C  548F                     addq.l     A7, 2
00005B3E  6016                     bra        +0x18 /* 00005B56 */
label00005B40:
00005B40  3F07                     move.w     -[A7], D7
00005B42  4EAD 0082                jsr        [A5 + 0x82 /* export_12, CODE:2 @ 00002292 */]
00005B46  1B40 96C1                move.b     [A5 - 0x693F], D0
00005B4A  3E87                     move.w     [A7], D7
00005B4C  4EAD 008A                jsr        [A5 + 0x8A /* export_13, CODE:2 @ 000022B4 */]
00005B50  1B40 96C2                move.b     [A5 - 0x693E], D0
00005B54  548F                     addq.l     A7, 2
label00005B56:
00005B56  486D 96BA                pea.l      [A5 - 0x6946]
00005B5A  4EBA 0012                jsr        [PC + 0x12 /* 00005B6E */]
00005B5E  3B7C 0001 BA42           move.w     [A5 - 0x45BE], 0x1
00005B64  588F                     addq.l     A7, 4
label00005B66:
00005B66  426D BA22                clr.w      [A5 - 0x45DE]
00005B6A  2E1F                     move.l     D7, [A7]+
00005B6C  4E75                     rts
export_164:
fn00005B6E:
00005B6E  4E56 FFAE                link       A6, -0x0052
00005B72  48E7 0300                movem.l    -[A7], D6,D7
00005B76  1F3C 0001                move.b     -[A7], 0x1
00005B7A  486D A5E4                pea.l      [A5 - 0x5A1C]
00005B7E  206D A3E2                movea.l    A0, [A5 - 0x5C1E]
00005B82  4E90                     jsr        [A0]
00005B84  206E 0008                movea.l    A0, [A6 + 0x8]
00005B88  1E10                     move.b     D7, [A0]
00005B8A  4887                     ext.w      D7
00005B8C  0C47 003F                cmpi.w     D7, 0x3F /* '?' */
00005B90  5C8F                     addq.l     A7, 6
00005B92  6F02                     ble        +0x4 /* 00005B96 */
00005B94  7E3F                     moveq.l    D7, 0x3F
label00005B96:
00005B96  1D47 FFC0                move.b     [A6 - 0x40], D7
00005B9A  7001                     moveq.l    D0, 0x01
00005B9C  D0AE 0008                add.l      D0, [A6 + 0x8]
00005BA0  2040                     movea.l    A0, D0
00005BA2  43EE FFC1                lea.l      A1, [A6 - 0x3F]
00005BA6  2007                     move.l     D0, D7
00005BA8  48C0                     ext.l      D0
00005BAA  A02E                     syscall    BlockMove/BlockMoveData
00005BAC  486E FFC0                pea.l      [A6 - 0x40]
00005BB0  1F3C 0001                move.b     -[A7], 0x1
00005BB4  4EAD 0182                jsr        [A5 + 0x182 /* export_44, CODE:2 @ 000041BC */]
00005BB8  486D A0B6                pea.l      [A5 - 0x5F4A]
00005BBC  A874                     syscall    GetPort
00005BBE  486D A25E                pea.l      [A5 - 0x5DA2]
00005BC2  A873                     syscall    SetPort
00005BC4  486D A5E4                pea.l      [A5 - 0x5A1C]
00005BC8  A87B                     syscall    ClipRect
00005BCA  2F3C FC18 0000           move.l     -[A7], 0xFC180000
00005BD0  A893                     syscall    MoveTo
00005BD2  486E FFC0                pea.l      [A6 - 0x40]
00005BD6  A884                     syscall    DrawString
00005BD8  486E FFAE                pea.l      [A6 - 0x52]
00005BDC  A898                     syscall    GetPenState
00005BDE  3E2E FFB0                move.w     D7, [A6 - 0x50]
00005BE2  3C2D A5EA                move.w     D6, [A5 - 0x5A16]
00005BE6  9C6D A5E6                sub.w      D6, [A5 - 0x5A1A]
00005BEA  9C47                     sub.w      D6, D7
00005BEC  48C6                     ext.l      D6
00005BEE  8DFC 0002                divs.w     D6, 0x2
00005BF2  302D A5E6                move.w     D0, [A5 - 0x5A1A]
00005BF6  D046                     add.w      D0, D6
00005BF8  3F00                     move.w     -[A7], D0
00005BFA  70FF                     moveq.l    D0, 0xFFFFFFFF
00005BFC  D06D A5E8                add.w      D0, [A5 - 0x5A18]
00005C00  3F00                     move.w     -[A7], D0
00005C02  A893                     syscall    MoveTo
00005C04  486E FFC0                pea.l      [A6 - 0x40]
00005C08  A884                     syscall    DrawString
00005C0A  486D A2DC                pea.l      [A5 - 0x5D24]
00005C0E  A87B                     syscall    ClipRect
00005C10  2F2D A0B6                move.l     -[A7], [A5 - 0x5F4A]
00005C14  A873                     syscall    SetPort
00005C16  486D A5E4                pea.l      [A5 - 0x5A1C]
00005C1A  A928                     syscall    InvalRect
00005C1C  4CDF 00C0                movem.l    D6,D7, [A7]+
00005C20  4E5E                     unlink     A6
00005C22  4E75                     rts
export_165:
00005C24  4E56 0000                link       A6, 0
00005C28  4A6E 0008                tst.w      [A6 + 0x8]
00005C2C  6708                     beq        +0xA /* 00005C36 */
00005C2E  426D BA90                clr.w      [A5 - 0x4570]
00005C32  426D BA86                clr.w      [A5 - 0x457A]
label00005C36:
00005C36  1F3C 0001                move.b     -[A7], 0x1
00005C3A  486D A5E4                pea.l      [A5 - 0x5A1C]
00005C3E  206D A3E2                movea.l    A0, [A5 - 0x5C1E]
00005C42  4E90                     jsr        [A0]
00005C44  486D A5E4                pea.l      [A5 - 0x5A1C]
00005C48  A928                     syscall    InvalRect
00005C4A  4E5E                     unlink     A6
00005C4C  4E75                     rts
fn00005C4E:
00005C4E  3F2D F226                move.w     -[A7], [A5 - 0xDDA]
00005C52  4267                     clr.w      -[A7]
00005C54  3F2D F222                move.w     -[A7], [A5 - 0xDDE]
00005C58  7000                     moveq.l    D0, 0x00
00005C5A  102D BA95                move.b     D0, [A5 - 0x456B]
00005C5E  0240 007F                andi.w     D0, 0x7F
00005C62  204D                     movea.l    A0, A5
00005C64  D0C0                     add.w      A0, D0
00005C66  7000                     moveq.l    D0, 0x00
00005C68  1028 B63A                move.b     D0, [A0 - 0x49C6]
00005C6C  3F00                     move.w     -[A7], D0
00005C6E  3F3C 0007                move.w     -[A7], 0x7
00005C72  4EBA E802                jsr        [PC - 0x17FE /* 00004476 */]
00005C76  4FEF 000A                lea.l      A7, [A7 + 0xA]
00005C7A  4E75                     rts
fn00005C7C:
00005C7C  4E75                     rts
00005C7E  4E56 0000                link       A6, 0
00005C82  48E7 0700                movem.l    -[A7], D5,D6,D7
00005C86  3E2E 0008                move.w     D7, [A6 + 0x8]
00005C8A  3C2E 000A                move.w     D6, [A6 + 0xA]
00005C8E  3A2E 000C                move.w     D5, [A6 + 0xC]
00005C92  4CDF 00E0                movem.l    D5,D6,D7, [A7]+
00005C96  4E5E                     unlink     A6
00005C98  4E75                     rts
00005C9A  4E56 0000                link       A6, 0
00005C9E  48E7 0300                movem.l    -[A7], D6,D7
00005CA2  3E2E 0008                move.w     D7, [A6 + 0x8]
00005CA6  3C2E 000A                move.w     D6, [A6 + 0xA]
00005CAA  4CDF 00C0                movem.l    D6,D7, [A7]+
00005CAE  4E5E                     unlink     A6
00005CB0  4E75                     rts
fn00005CB2:
00005CB2  2B6D 9622 9626           move.l     [A5 - 0x69DA], [A5 - 0x69DE]
00005CB8  302D F21E                move.w     D0, [A5 - 0xDE2]
00005CBC  204D                     movea.l    A0, A5
00005CBE  D0C0                     add.w      A0, D0
00005CC0  D0C0                     add.w      A0, D0
00005CC2  3228 B646                move.w     D1, [A0 - 0x49BA]
00005CC6  D26D BA6A                add.w      D1, [A5 - 0x4596]
00005CCA  306D F220                movea.w    A0, [A5 - 0xDE0]
00005CCE  D0C1                     add.w      A0, D1
00005CD0  2B48 9622                move.l     [A5 - 0x69DE], A0
00005CD4  4A2D A209                tst.b      [A5 - 0x5DF7]
00005CD8  6700 0122                beq        +0x124 /* 00005DFC */
00005CDC  702C                     moveq.l    D0, 0x2C
00005CDE  C1ED F21E                muls.w     D0, [A5 - 0xDE2]
00005CE2  D08D                     add.l      D0, A5
00005CE4  306D F220                movea.w    A0, [A5 - 0xDE0]
00005CE8  D1C0                     add.l      A0, D0
00005CEA  1028 B994                move.b     D0, [A0 - 0x466C]
00005CEE  4880                     ext.w      D0
00005CF0  3F00                     move.w     -[A7], D0
00005CF2  2F3C 0014 0004           move.l     -[A7], 0x140004
00005CF8  70D8                     moveq.l    D0, 0xFFFFFFD8
00005CFA  D06D F226                add.w      D0, [A5 - 0xDDA]
00005CFE  3F00                     move.w     -[A7], D0
00005D00  3F2D F222                move.w     -[A7], [A5 - 0xDDE]
00005D04  3F3C 0001                move.w     -[A7], 0x1
00005D08  4EBA E864                jsr        [PC - 0x179C /* 0000456E */]
00005D0C  702C                     moveq.l    D0, 0x2C
00005D0E  C1ED F21E                muls.w     D0, [A5 - 0xDE2]
00005D12  D08D                     add.l      D0, A5
00005D14  306D F220                movea.w    A0, [A5 - 0xDE0]
00005D18  D1C0                     add.l      A0, D0
00005D1A  1028 B99F                move.b     D0, [A0 - 0x4661]
00005D1E  4880                     ext.w      D0
00005D20  3E80                     move.w     [A7], D0
00005D22  2F3C 0015 0002           move.l     -[A7], 0x150002
00005D28  70ED                     moveq.l    D0, 0xFFFFFFED
00005D2A  D06D F226                add.w      D0, [A5 - 0xDDA]
00005D2E  3F00                     move.w     -[A7], D0
00005D30  3F2D F222                move.w     -[A7], [A5 - 0xDDE]
00005D34  3F3C 0001                move.w     -[A7], 0x1
00005D38  4EBA E834                jsr        [PC - 0x17CC /* 0000456E */]
00005D3C  702C                     moveq.l    D0, 0x2C
00005D3E  C1ED F21E                muls.w     D0, [A5 - 0xDE2]
00005D42  D08D                     add.l      D0, A5
00005D44  306D F220                movea.w    A0, [A5 - 0xDE0]
00005D48  D1C0                     add.l      A0, D0
00005D4A  1028 B9A0                move.b     D0, [A0 - 0x4660]
00005D4E  4880                     ext.w      D0
00005D50  3E80                     move.w     [A7], D0
00005D52  2F3C 0015 0002           move.l     -[A7], 0x150002
00005D58  70ED                     moveq.l    D0, 0xFFFFFFED
00005D5A  D06D F226                add.w      D0, [A5 - 0xDDA]
00005D5E  3F00                     move.w     -[A7], D0
00005D60  7002                     moveq.l    D0, 0x02
00005D62  D06D F222                add.w      D0, [A5 - 0xDDE]
00005D66  3F00                     move.w     -[A7], D0
00005D68  3F3C 0001                move.w     -[A7], 0x1
00005D6C  4EBA E800                jsr        [PC - 0x1800 /* 0000456E */]
00005D70  702C                     moveq.l    D0, 0x2C
00005D72  C1ED F21E                muls.w     D0, [A5 - 0xDE2]
00005D76  D08D                     add.l      D0, A5
00005D78  306D F220                movea.w    A0, [A5 - 0xDE0]
00005D7C  D1C0                     add.l      A0, D0
00005D7E  1028 B9AA                move.b     D0, [A0 - 0x4656]
00005D82  4880                     ext.w      D0
00005D84  3E80                     move.w     [A7], D0
00005D86  2F3C 0013 0001           move.l     -[A7], 0x130001
00005D8C  3F2D F226                move.w     -[A7], [A5 - 0xDDA]
00005D90  3F2D F222                move.w     -[A7], [A5 - 0xDDE]
00005D94  3F3C 0001                move.w     -[A7], 0x1
00005D98  4EBA E7D4                jsr        [PC - 0x182C /* 0000456E */]
00005D9C  702C                     moveq.l    D0, 0x2C
00005D9E  C1ED F21E                muls.w     D0, [A5 - 0xDE2]
00005DA2  D08D                     add.l      D0, A5
00005DA4  306D F220                movea.w    A0, [A5 - 0xDE0]
00005DA8  D1C0                     add.l      A0, D0
00005DAA  1028 B9AB                move.b     D0, [A0 - 0x4655]
00005DAE  4880                     ext.w      D0
00005DB0  3E80                     move.w     [A7], D0
00005DB2  2F3C 0013 0003           move.l     -[A7], 0x130003
00005DB8  3F2D F226                move.w     -[A7], [A5 - 0xDDA]
00005DBC  7001                     moveq.l    D0, 0x01
00005DBE  D06D F222                add.w      D0, [A5 - 0xDDE]
00005DC2  3F00                     move.w     -[A7], D0
00005DC4  3F3C 0001                move.w     -[A7], 0x1
00005DC8  4EBA E7A4                jsr        [PC - 0x185C /* 0000456E */]
00005DCC  702C                     moveq.l    D0, 0x2C
00005DCE  C1ED F21E                muls.w     D0, [A5 - 0xDE2]
00005DD2  D08D                     add.l      D0, A5
00005DD4  306D F220                movea.w    A0, [A5 - 0xDE0]
00005DD8  D1C0                     add.l      A0, D0
00005DDA  1028 B9B5                move.b     D0, [A0 - 0x464B]
00005DDE  4880                     ext.w      D0
00005DE0  3E80                     move.w     [A7], D0
00005DE2  2F3C 0003 0004           move.l     -[A7], 0x30004
00005DE8  3F2D F224                move.w     -[A7], [A5 - 0xDDC]
00005DEC  3F2D F222                move.w     -[A7], [A5 - 0xDDE]
00005DF0  3F3C 0001                move.w     -[A7], 0x1
00005DF4  4EBA E778                jsr        [PC - 0x1888 /* 0000456E */]
00005DF8  4FEF 003E                lea.l      A7, [A7 + 0x3E]
label00005DFC:
00005DFC  4A2D A209                tst.b      [A5 - 0x5DF7]
00005E00  6700 00BA                beq        +0xBC /* 00005EBC */
00005E04  4A2D A20A                tst.b      [A5 - 0x5DF6]
00005E08  6700 00B2                beq        +0xB4 /* 00005EBC */
00005E0C  3F2D F224                move.w     -[A7], [A5 - 0xDDC]
00005E10  4267                     clr.w      -[A7]
00005E12  3F2D F222                move.w     -[A7], [A5 - 0xDDE]
00005E16  3F3C 0002                move.w     -[A7], 0x2
00005E1A  4EAD 0072                jsr        [A5 + 0x72 /* export_10, CODE:2 @ 0000223A */]
00005E1E  0640 000F                addi.w     D0, 0xF
00005E22  3E80                     move.w     [A7], D0
00005E24  3F3C 0007                move.w     -[A7], 0x7
00005E28  4EBA E64C                jsr        [PC - 0x19B4 /* 00004476 */]
00005E2C  70CB                     moveq.l    D0, 0xFFFFFFCB
00005E2E  D06D F226                add.w      D0, [A5 - 0xDDA]
00005E32  3E80                     move.w     [A7], D0
00005E34  4267                     clr.w      -[A7]
00005E36  7003                     moveq.l    D0, 0x03
00005E38  D06D F222                add.w      D0, [A5 - 0xDDE]
00005E3C  3F00                     move.w     -[A7], D0
00005E3E  3F3C 0002                move.w     -[A7], 0x2
00005E42  4EAD 0072                jsr        [A5 + 0x72 /* export_10, CODE:2 @ 0000223A */]
00005E46  5640                     addq.w     D0, 3
00005E48  3E80                     move.w     [A7], D0
00005E4A  3F3C 0007                move.w     -[A7], 0x7
00005E4E  4EBA E626                jsr        [PC - 0x19DA /* 00004476 */]
00005E52  70DE                     moveq.l    D0, 0xFFFFFFDE
00005E54  D06D F226                add.w      D0, [A5 - 0xDDA]
00005E58  3E80                     move.w     [A7], D0
00005E5A  4267                     clr.w      -[A7]
00005E5C  3F2D F222                move.w     -[A7], [A5 - 0xDDE]
00005E60  3F3C 0002                move.w     -[A7], 0x2
00005E64  4EAD 0072                jsr        [A5 + 0x72 /* export_10, CODE:2 @ 0000223A */]
00005E68  5C40                     addq.w     D0, 6
00005E6A  3E80                     move.w     [A7], D0
00005E6C  3F3C 0007                move.w     -[A7], 0x7
00005E70  4EBA E604                jsr        [PC - 0x19FC /* 00004476 */]
00005E74  70F3                     moveq.l    D0, 0xFFFFFFF3
00005E76  D06D F226                add.w      D0, [A5 - 0xDDA]
00005E7A  3E80                     move.w     [A7], D0
00005E7C  4267                     clr.w      -[A7]
00005E7E  3F2D F222                move.w     -[A7], [A5 - 0xDDE]
00005E82  3F3C 0002                move.w     -[A7], 0x2
00005E86  4EAD 0072                jsr        [A5 + 0x72 /* export_10, CODE:2 @ 0000223A */]
00005E8A  0640 0009                addi.w     D0, 0x9 /* '\t' */
00005E8E  3E80                     move.w     [A7], D0
00005E90  3F3C 0007                move.w     -[A7], 0x7
00005E94  4EBA E5E0                jsr        [PC - 0x1A20 /* 00004476 */]
00005E98  3EAD F226                move.w     [A7], [A5 - 0xDDA]
00005E9C  4267                     clr.w      -[A7]
00005E9E  3F2D F222                move.w     -[A7], [A5 - 0xDDE]
00005EA2  3F3C 0002                move.w     -[A7], 0x2
00005EA6  4EAD 0072                jsr        [A5 + 0x72 /* export_10, CODE:2 @ 0000223A */]
00005EAA  0640 000C                addi.w     D0, 0xC
00005EAE  3E80                     move.w     [A7], D0
00005EB0  3F3C 0007                move.w     -[A7], 0x7
00005EB4  4EBA E5C0                jsr        [PC - 0x1A40 /* 00004476 */]
00005EB8  4FEF 002A                lea.l      A7, [A7 + 0x2A]
label00005EBC:
00005EBC  4A2D A20A                tst.b      [A5 - 0x5DF6]
00005EC0  6618                     bne        +0x1A /* 00005EDA */
00005EC2  3F2D F226                move.w     -[A7], [A5 - 0xDDA]
00005EC6  4267                     clr.w      -[A7]
00005EC8  3F2D F222                move.w     -[A7], [A5 - 0xDDE]
00005ECC  2F3C 0007 0004           move.l     -[A7], 0x70004
00005ED2  4EBA E5A2                jsr        [PC - 0x1A5E /* 00004476 */]
00005ED6  4FEF 000A                lea.l      A7, [A7 + 0xA]
label00005EDA:
00005EDA  2B6D 9626 9622           move.l     [A5 - 0x69DE], [A5 - 0x69DA]
00005EE0  4E75                     rts
fn00005EE2:
00005EE2  2B6D 9622 9626           move.l     [A5 - 0x69DA], [A5 - 0x69DE]
00005EE8  302D F21E                move.w     D0, [A5 - 0xDE2]
00005EEC  204D                     movea.l    A0, A5
00005EEE  D0C0                     add.w      A0, D0
00005EF0  D0C0                     add.w      A0, D0
00005EF2  3228 B646                move.w     D1, [A0 - 0x49BA]
00005EF6  D26D BA6A                add.w      D1, [A5 - 0x4596]
00005EFA  306D F220                movea.w    A0, [A5 - 0xDE0]
00005EFE  D0C1                     add.w      A0, D1
00005F00  2B48 9622                move.l     [A5 - 0x69DE], A0
00005F04  4A2D A209                tst.b      [A5 - 0x5DF7]
00005F08  6758                     beq        +0x5A /* 00005F62 */
00005F0A  702C                     moveq.l    D0, 0x2C
00005F0C  C1ED F21E                muls.w     D0, [A5 - 0xDE2]
00005F10  D08D                     add.l      D0, A5
00005F12  306D F220                movea.w    A0, [A5 - 0xDE0]
00005F16  D1C0                     add.l      A0, D0
00005F18  1028 B9B5                move.b     D0, [A0 - 0x464B]
00005F1C  4880                     ext.w      D0
00005F1E  3F00                     move.w     -[A7], D0
00005F20  2F3C 0003 0004           move.l     -[A7], 0x30004
00005F26  3F2D F224                move.w     -[A7], [A5 - 0xDDC]
00005F2A  3F2D F222                move.w     -[A7], [A5 - 0xDDE]
00005F2E  4267                     clr.w      -[A7]
00005F30  4EBA E63C                jsr        [PC - 0x19C4 /* 0000456E */]
00005F34  4A2D A20A                tst.b      [A5 - 0x5DF6]
00005F38  4FEF 000C                lea.l      A7, [A7 + 0xC]
00005F3C  6724                     beq        +0x26 /* 00005F62 */
00005F3E  3F2D F224                move.w     -[A7], [A5 - 0xDDC]
00005F42  4267                     clr.w      -[A7]
00005F44  3F2D F222                move.w     -[A7], [A5 - 0xDDE]
00005F48  3F3C 0002                move.w     -[A7], 0x2
00005F4C  4EAD 0072                jsr        [A5 + 0x72 /* export_10, CODE:2 @ 0000223A */]
00005F50  0640 000F                addi.w     D0, 0xF
00005F54  3E80                     move.w     [A7], D0
00005F56  3F3C 0007                move.w     -[A7], 0x7
00005F5A  4EBA E41A                jsr        [PC - 0x1BE6 /* 00004376 */]
00005F5E  4FEF 000A                lea.l      A7, [A7 + 0xA]
label00005F62:
00005F62  2B6D 9626 9622           move.l     [A5 - 0x69DE], [A5 - 0x69DA]
00005F68  4E75                     rts
