# near model CODE resource
# jump table entries: 80-122 (43 of them)
export_52:
00000000  4EBA 016A                jsr        [PC + 0x16A /* 0000016C */]
00000004  4A2D 961E                tst.b      [A5 - 0x69E2]
00000008  6604                     bne        +0x6 /* 0000000E */
0000000A  4EBA 01C8                jsr        [PC + 0x1C8 /* 000001D4 */]
label0000000E:
0000000E  4A2D 961E                tst.b      [A5 - 0x69E2]
00000012  6604                     bne        +0x6 /* 00000018 */
00000014  4EBA 0272                jsr        [PC + 0x272 /* 00000288 */]
label00000018:
00000018  4A2D 961E                tst.b      [A5 - 0x69E2]
0000001C  6604                     bne        +0x6 /* 00000022 */
0000001E  4EBA 0300                jsr        [PC + 0x300 /* 00000320 */]
label00000022:
00000022  4A2D 961E                tst.b      [A5 - 0x69E2]
00000026  6604                     bne        +0x6 /* 0000002C */
00000028  4EBA 045C                jsr        [PC + 0x45C /* 00000486 */]
label0000002C:
0000002C  4A2D 961E                tst.b      [A5 - 0x69E2]
00000030  6604                     bne        +0x6 /* 00000036 */
00000032  4EBA 1D48                jsr        [PC + 0x1D48 /* 00001D7C */]
label00000036:
00000036  42A7                     clr.l      -[A7]
00000038  A975                     syscall    TickCount
0000003A  2B5F A55E                move.l     [A5 - 0x5AA2], [A7]+
0000003E  42AD 964C                clr.l      [A5 - 0x69B4]
00000042  42AD 9650                clr.l      [A5 - 0x69B0]
00000046  6000 00FE                bra        +0x100 /* 00000146 */
label0000004A:
0000004A  4A2D 961A                tst.b      [A5 - 0x69E6]
0000004E  6714                     beq        +0x16 /* 00000064 */
00000050  4227                     clr.b      -[A7]
00000052  3F3C FFFF                move.w     -[A7], 0xFFFF
00000056  486D A1E8                pea.l      [A5 - 0x5E18]
0000005A  42A7                     clr.l      -[A7]
0000005C  42A7                     clr.l      -[A7]
0000005E  A860                     syscall    WaitNextEvent
00000060  548F                     addq.l     A7, 2
00000062  6010                     bra        +0x12 /* 00000074 */
label00000064:
00000064  A9B4                     syscall    SystemTask
00000066  4227                     clr.b      -[A7]
00000068  3F3C FFFF                move.w     -[A7], 0xFFFF
0000006C  486D A1E8                pea.l      [A5 - 0x5E18]
00000070  A970                     syscall    GetNextEvent
00000072  548F                     addq.l     A7, 2
label00000074:
00000074  4EBA 0CB6                jsr        [PC + 0xCB6 /* 00000D2C */]
00000078  4A2D 961B                tst.b      [A5 - 0x69E5]
0000007C  6700 00C8                beq        +0xCA /* 00000146 */
00000080  4EBA 2B88                jsr        [PC + 0x2B88 /* 00002C0A */]
00000084  4A2D 962C                tst.b      [A5 - 0x69D4]
00000088  6756                     beq        +0x58 /* 000000E0 */
0000008A  302D 9648                move.w     D0, [A5 - 0x69B8]
0000008E  0C40 000B                cmpi.w     D0, 0xB
00000092  624C                     bhi        +0x4E /* 000000E0 */
00000094  43FA 00BE                lea.l      A1, [PC + 0xBE /* 00000154, value 0xFF8CFF4C */]
00000098  D040                     add.w      D0, D0
0000009A  D2F1 0000                add.w      A1, [A1 + D0.w]
0000009E  4ED1                     jmp        [A1]
000000A0  4EBA 1D5A                jsr        [PC + 0x1D5A /* 00001DFC */]
000000A4  603A                     bra        +0x3C /* 000000E0 */
000000A6  4EBA 1D88                jsr        [PC + 0x1D88 /* 00001E30 */]
000000AA  6034                     bra        +0x36 /* 000000E0 */
000000AC  4EBA 1DE6                jsr        [PC + 0x1DE6 /* 00001E94 */]
000000B0  602E                     bra        +0x30 /* 000000E0 */
000000B2  4EBA 1E5A                jsr        [PC + 0x1E5A /* 00001F0E */]
000000B6  6028                     bra        +0x2A /* 000000E0 */
000000B8  4EBA 1E90                jsr        [PC + 0x1E90 /* 00001F4A */]
000000BC  6022                     bra        +0x24 /* 000000E0 */
000000BE  4EBA 1EF6                jsr        [PC + 0x1EF6 /* 00001FB6 */]
000000C2  601C                     bra        +0x1E /* 000000E0 */
000000C4  4EBA 1F10                jsr        [PC + 0x1F10 /* 00001FD6 */]
000000C8  6016                     bra        +0x18 /* 000000E0 */
000000CA  4EBA 1F4E                jsr        [PC + 0x1F4E /* 0000201A */]
000000CE  6010                     bra        +0x12 /* 000000E0 */
000000D0  4EBA 1F94                jsr        [PC + 0x1F94 /* 00002066 */]
000000D4  600A                     bra        +0xC /* 000000E0 */
000000D6  4EBA 2084                jsr        [PC + 0x2084 /* 0000215C */]
000000DA  6004                     bra        +0x6 /* 000000E0 */
000000DC  4EBA 20FE                jsr        [PC + 0x20FE /* 000021DC */]
label000000E0:
000000E0  4A2D 962F                tst.b      [A5 - 0x69D1]
000000E4  6708                     beq        +0xA /* 000000EE */
000000E6  422D 962C                clr.b      [A5 - 0x69D4]
000000EA  422D 962F                clr.b      [A5 - 0x69D1]
label000000EE:
000000EE  42A7                     clr.l      -[A7]
000000F0  A975                     syscall    TickCount
000000F2  2B5F A562                move.l     [A5 - 0x5A9E], [A7]+
000000F6  4EBA 2B12                jsr        [PC + 0x2B12 /* 00002C0A */]
000000FA  202D A562                move.l     D0, [A5 - 0x5A9E]
000000FE  90AD A55E                sub.l      D0, [A5 - 0x5AA2]
00000102  B0AD 964C                cmp.l      D0, [A5 - 0x69B4]
00000106  6FE6                     ble        -0x18 /* 000000EE */
00000108  2B6D A562 A55E           move.l     [A5 - 0x5AA2], [A5 - 0x5A9E]
0000010E  4EBA 1A4A                jsr        [PC + 0x1A4A /* 00001B5A */]
00000112  4227                     clr.b      -[A7]
00000114  3F3C 0040                move.w     -[A7], 0x40 /* '@' */
00000118  486D A1E8                pea.l      [A5 - 0x5E18]
0000011C  A971                     syscall    EventAvail
0000011E  4A1F                     tst.b      [A7]+
00000120  670A                     beq        +0xC /* 0000012C */
00000122  2F2D A212                move.l     -[A7], [A5 - 0x5DEE]
00000126  4EBA 0E3A                jsr        [PC + 0xE3A /* 00000F62 */]
0000012A  588F                     addq.l     A7, 4
label0000012C:
0000012C  4EBA 2ADC                jsr        [PC + 0x2ADC /* 00002C0A */]
00000130  4A6D F22A                tst.w      [A5 - 0xDD6]
00000134  6704                     beq        +0x6 /* 0000013A */
00000136  4EBA 1B38                jsr        [PC + 0x1B38 /* 00001C70 */]
label0000013A:
0000013A  4EBA 2ACE                jsr        [PC + 0x2ACE /* 00002C0A */]
0000013E  4EBA 1B9E                jsr        [PC + 0x1B9E /* 00001CDE */]
00000142  52AD 9650                addq.l     [A5 - 0x69B0], 1
label00000146:
00000146  4A2D 961E                tst.b      [A5 - 0x69E2]
0000014A  6700 FEFE                beq        -0x100 /* 0000004A */
0000014E  4EBA 0B8E                jsr        [PC + 0xB8E /* 00000CDE */]
00000152  4E75                     rts
00000154  FF8C                     .invalid   <<F/6/7>>
00000156  FF4C                     .extension 0xF4C <<F/4-5/7>> // unimplemented
00000158  FF52                     .extension 0xF52 <<F/4-5/7>> // unimplemented
0000015A  FF58                     .extension 0xF58 <<F/4-5/7>> // unimplemented
0000015C  FF5E                     .extension 0xF5E <<F/4-5/7>> // unimplemented
0000015E  FF64                     .extension 0xF64 <<F/4-5/7>> // unimplemented
00000160  FF6A                     .extension 0xF6A <<F/4-5/7>> // unimplemented
00000162  FF70                     .extension 0xF70 <<F/4-5/7>> // unimplemented
00000164  FF76                     .extension 0xF76 <<F/4-5/7>> // unimplemented
00000166  FF7C                     .extension 0xF7C <<F/4-5/7>> // unimplemented
00000168  FF82                     .invalid   <<F/6/7>>
0000016A  FF88                     .invalid   <<F/6/7>>
fn0000016C:
0000016C  A063                     syscall    MaxApplZone
0000016E  486D A6CE                pea.l      [A5 - 0x5932]
00000172  A86E                     syscall    InitGraf
00000174  A8FE                     syscall    InitFonts
00000176  A912                     syscall    InitWindows
00000178  A930                     syscall    InitMenus
0000017A  A9CC                     syscall    TEInit
0000017C  42A7                     clr.l      -[A7]
0000017E  A97B                     syscall    InitDialogs
00000180  A850                     syscall    InitCursor
00000182  A01C                     syscall    FreeMem
00000184  A040                     syscall    ResrvMem/ReserveMem
00000186  A036                     syscall    MoreMasters
00000188  A036                     syscall    MoreMasters
0000018A  A036                     syscall    MoreMasters
0000018C  A036                     syscall    MoreMasters
0000018E  A036                     syscall    MoreMasters
00000190  A036                     syscall    MoreMasters
00000192  3B78 0144 A0A2           move.w     [A5 - 0x5F5E], [0x00000144 /* SysEvtMask */]
00000198  70DF                     moveq.l    D0, 0xFFFFFFDF
0000019A  31C0 0144                move.w     [0x00000144 /* SysEvtMask */], D0
0000019E  2F3C 0000 FFFF           move.l     -[A7], 0xFFFF
000001A4  201F                     move.l     D0, [A7]+
000001A6  A032                     syscall    FlushEvents
000001A8  4227                     clr.b      -[A7]
000001AA  3F3C FFFF                move.w     -[A7], 0xFFFF
000001AE  486D A1E8                pea.l      [A5 - 0x5E18]
000001B2  A970                     syscall    GetNextEvent
000001B4  082D 0004 A1F6           btst.b     [A5 - 0x5E0A], 0x4
000001BA  548F                     addq.l     A7, 2
000001BC  6706                     beq        +0x8 /* 000001C4 */
000001BE  1B7C 0001 962B           move.b     [A5 - 0x69D5], 0x1
label000001C4:
000001C4  082D 0003 A1F6           btst.b     [A5 - 0x5E0A], 0x3
000001CA  6706                     beq        +0x8 /* 000001D2 */
000001CC  1B7C 0001 962A           move.b     [A5 - 0x69D6], 0x1
label000001D2:
000001D2  4E75                     rts
fn000001D4:
000001D4  4E56 FFFC                link       A6, -0x0004
000001D8  4267                     clr.w      -[A7]
000001DA  3F3C 0001                move.w     -[A7], 0x1
000001DE  486D A090                pea.l      [A5 - 0x5F70]
000001E2  4EBA 3E4C                jsr        [PC + 0x3E4C /* 00004030 */]
000001E6  3B5F A16C                move.w     [A5 - 0x5E94], [A7]+
000001EA  4A6D A16C                tst.w      [A5 - 0x5E94]
000001EE  6600 0082                bne        +0x84 /* 00000272 */
000001F2  0C6D 0600 A094           cmpi.w     [A5 - 0x5F6C], 0x600
000001F8  6D0E                     blt        +0x10 /* 00000208 */
000001FA  0C6D 0003 A096           cmpi.w     [A5 - 0x5F6A], 0x3
00000200  6D06                     blt        +0x8 /* 00000208 */
00000202  1B7C 0001 9618           move.b     [A5 - 0x69E8], 0x1
label00000208:
00000208  4A2D A099                tst.b      [A5 - 0x5F67]
0000020C  672A                     beq        +0x2C /* 00000238 */
0000020E  42A7                     clr.l      -[A7]
00000210  2F3C 0100 AB03           move.l     -[A7], 0x100AB03
00000216  4EBA 3F90                jsr        [PC + 0x3F90 /* 000041A8 */]
0000021A  2D5F FFFC                move.l     [A6 - 0x4], [A7]+
0000021E  42A7                     clr.l      -[A7]
00000220  2F3C 0100 A89F           move.l     -[A7], 0x100A89F
00000226  4EBA 3F80                jsr        [PC + 0x3F80 /* 000041A8 */]
0000022A  202E FFFC                move.l     D0, [A6 - 0x4]
0000022E  B09F                     cmp.l      D0, [A7]+
00000230  6706                     beq        +0x8 /* 00000238 */
00000232  1B7C 0001 9619           move.b     [A5 - 0x69E7], 0x1
label00000238:
00000238  4A6D A092                tst.w      [A5 - 0x5F6E]
0000023C  6F46                     ble        +0x48 /* 00000284 */
0000023E  0C6D 0600 A094           cmpi.w     [A5 - 0x5F6C], 0x600
00000244  6C24                     bge        +0x26 /* 0000026A */
00000246  42A7                     clr.l      -[A7]
00000248  2F3C 0100 A860           move.l     -[A7], 0x100A860
0000024E  4EBA 3F58                jsr        [PC + 0x3F58 /* 000041A8 */]
00000252  2D5F FFFC                move.l     [A6 - 0x4], [A7]+
00000256  42A7                     clr.l      -[A7]
00000258  2F3C 0100 A89F           move.l     -[A7], 0x100A89F
0000025E  4EBA 3F48                jsr        [PC + 0x3F48 /* 000041A8 */]
00000262  202E FFFC                move.l     D0, [A6 - 0x4]
00000266  B09F                     cmp.l      D0, [A7]+
00000268  671A                     beq        +0x1C /* 00000284 */
label0000026A:
0000026A  1B7C 0001 961A           move.b     [A5 - 0x69E6], 0x1
00000270  6012                     bra        +0x14 /* 00000284 */
label00000272:
00000272  4267                     clr.w      -[A7]
00000274  3F3C 03E8                move.w     -[A7], 0x3E8
00000278  42A7                     clr.l      -[A7]
0000027A  A985                     syscall    Alert
0000027C  1B7C 0001 961E           move.b     [A5 - 0x69E2], 0x1
00000282  548F                     addq.l     A7, 2
label00000284:
00000284  4E5E                     unlink     A6
00000286  4E75                     rts
fn00000288:
00000288  42A7                     clr.l      -[A7]
0000028A  3F3C 03E8                move.w     -[A7], 0x3E8
0000028E  A9BF                     syscall    GetRMenu
00000290  2B5F A1D0                move.l     [A5 - 0x5E30], [A7]+
00000294  2F2D A1D0                move.l     -[A7], [A5 - 0x5E30]
00000298  4EBA 2580                jsr        [PC + 0x2580 /* 0000281A */]
0000029C  4A00                     tst.b      D0
0000029E  588F                     addq.l     A7, 4
000002A0  667C                     bne        +0x7E /* 0000031E */
000002A2  2F2D A1D0                move.l     -[A7], [A5 - 0x5E30]
000002A6  2F3C 4452 5652           move.l     -[A7], 0x44525652 /* 'DRVR' */
000002AC  A94D                     syscall    AppendResMenu/AddResMenu
000002AE  2F2D A1D0                move.l     -[A7], [A5 - 0x5E30]
000002B2  4267                     clr.w      -[A7]
000002B4  A935                     syscall    InsertMenu
000002B6  42A7                     clr.l      -[A7]
000002B8  3F3C 03E9                move.w     -[A7], 0x3E9
000002BC  A9BF                     syscall    GetRMenu
000002BE  2B5F A1D4                move.l     [A5 - 0x5E2C], [A7]+
000002C2  2F2D A1D4                move.l     -[A7], [A5 - 0x5E2C]
000002C6  4EBA 2552                jsr        [PC + 0x2552 /* 0000281A */]
000002CA  4A00                     tst.b      D0
000002CC  588F                     addq.l     A7, 4
000002CE  664E                     bne        +0x50 /* 0000031E */
000002D0  2F2D A1D4                move.l     -[A7], [A5 - 0x5E2C]
000002D4  4267                     clr.w      -[A7]
000002D6  A935                     syscall    InsertMenu
000002D8  42A7                     clr.l      -[A7]
000002DA  3F3C 03EA                move.w     -[A7], 0x3EA
000002DE  A9BF                     syscall    GetRMenu
000002E0  2B5F A1D8                move.l     [A5 - 0x5E28], [A7]+
000002E4  2F2D A1D8                move.l     -[A7], [A5 - 0x5E28]
000002E8  4EBA 2530                jsr        [PC + 0x2530 /* 0000281A */]
000002EC  4A00                     tst.b      D0
000002EE  588F                     addq.l     A7, 4
000002F0  662C                     bne        +0x2E /* 0000031E */
000002F2  2F2D A1D8                move.l     -[A7], [A5 - 0x5E28]
000002F6  4267                     clr.w      -[A7]
000002F8  A935                     syscall    InsertMenu
000002FA  42A7                     clr.l      -[A7]
000002FC  3F3C 03EB                move.w     -[A7], 0x3EB
00000300  A9BF                     syscall    GetRMenu
00000302  2B5F A1DC                move.l     [A5 - 0x5E24], [A7]+
00000306  2F2D A1DC                move.l     -[A7], [A5 - 0x5E24]
0000030A  4EBA 250E                jsr        [PC + 0x250E /* 0000281A */]
0000030E  4A00                     tst.b      D0
00000310  588F                     addq.l     A7, 4
00000312  660A                     bne        +0xC /* 0000031E */
00000314  2F2D A1DC                move.l     -[A7], [A5 - 0x5E24]
00000318  4267                     clr.w      -[A7]
0000031A  A935                     syscall    InsertMenu
0000031C  A937                     syscall    DrawMenuBar
label0000031E:
0000031E  4E75                     rts
fn00000320:
00000320  4E56 FEF0                link       A6, -0x0110
00000324  48E7 0108                movem.l    -[A7], D7,A4
00000328  41ED 00BA                lea.l      A0, [A5 + 0xBA /* export_19, CODE:2 @ 00002722 */]
0000032C  A04B                     syscall    SetGrowZone
0000032E  2B78 09EE A0A4           move.l     [A5 - 0x5F5C], [0x000009EE /* GrayRgn */]
00000334  42A7                     clr.l      -[A7]
00000336  A8D8                     syscall    NewRgn
00000338  2B5F A0A8                move.l     [A5 - 0x5F58], [A7]+
0000033C  2F2D A0A8                move.l     -[A7], [A5 - 0x5F58]
00000340  486D A65A                pea.l      [A5 - 0x59A6]
00000344  A8DF                     syscall    RectRgn
00000346  2F2D A0A8                move.l     -[A7], [A5 - 0x5F58]
0000034A  2F38 09EE                move.l     -[A7], [0x000009EE /* GrayRgn */]
0000034E  2F2D A0A8                move.l     -[A7], [A5 - 0x5F58]
00000352  A8E6                     syscall    DiffRgn
00000354  42A7                     clr.l      -[A7]
00000356  A8D8                     syscall    NewRgn
00000358  2B5F A0AC                move.l     [A5 - 0x5F54], [A7]+
0000035C  2F2D A0AC                move.l     -[A7], [A5 - 0x5F54]
00000360  486D A65A                pea.l      [A5 - 0x59A6]
00000364  A8DF                     syscall    RectRgn
00000366  2F2D A0AC                move.l     -[A7], [A5 - 0x5F54]
0000036A  2F38 09EE                move.l     -[A7], [0x000009EE /* GrayRgn */]
0000036E  2F2D A0AC                move.l     -[A7], [A5 - 0x5F54]
00000372  A8E5                     syscall    UnionRgn
00000374  3B78 0BAA A0B0           move.w     [A5 - 0x5F50], [0x00000BAA /* MBarHeight */]
0000037A  42A7                     clr.l      -[A7]
0000037C  3F3C 0004                move.w     -[A7], 0x4
00000380  A9B9                     syscall    GetCursor
00000382  2B5F A1CC                move.l     [A5 - 0x5E34], [A7]+
00000386  4267                     clr.w      -[A7]
00000388  486D A0C0                pea.l      [A5 - 0x5F40]
0000038C  486D A0BE                pea.l      [A5 - 0x5F42]
00000390  4EBA 3F3E                jsr        [PC + 0x3F3E /* 000042D0 */]
00000394  486D A0E2                pea.l      [A5 - 0x5F1E]
00000398  486D A0E0                pea.l      [A5 - 0x5F20]
0000039C  486E FFFC                pea.l      [A6 - 0x4]
000003A0  A9F5                     syscall    GetAppParms
000003A2  486E FFFA                pea.l      [A6 - 0x6]
000003A6  486E FFF8                pea.l      [A6 - 0x8]
000003AA  4EBA 4014                jsr        [PC + 0x4014 /* 000043C0 */]
000003AE  4A6E FFFA                tst.w      [A6 - 0x6]
000003B2  548F                     addq.l     A7, 2
000003B4  6638                     bne        +0x3A /* 000003EE */
000003B6  0C6E 0001 FFF8           cmpi.w     [A6 - 0x8], 0x1
000003BC  6630                     bne        +0x32 /* 000003EE */
000003BE  3F3C 0001                move.w     -[A7], 0x1
000003C2  486E FEF0                pea.l      [A6 - 0x110]
000003C6  4EBA 401C                jsr        [PC + 0x401C /* 000043E4 */]
000003CA  0CAE 5050 7367 FEF2      cmpi.l     [A6 - 0x10E], 0x50507367 /* 'PPsg' */
000003D2  661A                     bne        +0x1C /* 000003EE */
000003D4  3B6E FEF0 A122           move.w     [A5 - 0x5EDE], [A6 - 0x110]
000003DA  41EE FEF8                lea.l      A0, [A6 - 0x108]
000003DE  43ED A124                lea.l      A1, [A5 - 0x5EDC]
000003E2  7000                     moveq.l    D0, 0x00
000003E4  102E FEF8                move.b     D0, [A6 - 0x108]
000003E8  5240                     addq.w     D0, 1
000003EA  48C0                     ext.l      D0
000003EC  A02E                     syscall    BlockMove/BlockMoveData
label000003EE:
000003EE  7E01                     moveq.l    D7, 0x01
000003F0  6008                     bra        +0xA /* 000003FA */
label000003F2:
000003F2  3F07                     move.w     -[A7], D7
000003F4  4EBA 4034                jsr        [PC + 0x4034 /* 0000442A */]
000003F8  5247                     addq.w     D7, 1
label000003FA:
000003FA  BE6E FFF8                cmp.w      D7, [A6 - 0x8]
000003FE  6FF2                     ble        -0xC /* 000003F2 */
00000400  42A7                     clr.l      -[A7]
00000402  2F3C 4F50 5453           move.l     -[A7], 0x4F505453 /* 'OPTS' */
00000408  4267                     clr.w      -[A7]
0000040A  A9A0                     syscall    GetResource
0000040C  2B5F A550                move.l     [A5 - 0x5AB0], [A7]+
00000410  4AAD A550                tst.l      [A5 - 0x5AB0]
00000414  6710                     beq        +0x12 /* 00000426 */
00000416  206D A550                movea.l    A0, [A5 - 0x5AB0]
0000041A  2850                     movea.l    A4, [A0]
0000041C  1B54 965A                move.b     [A5 - 0x69A6], [A4]
00000420  1B6C 0001 965C           move.b     [A5 - 0x69A4], [A4 + 0x1]
label00000426:
00000426  4EBA 147C                jsr        [PC + 0x147C /* 000018A4 */]
0000042A  42A7                     clr.l      -[A7]
0000042C  2F3C 4849 4748           move.l     -[A7], 0x48494748 /* 'HIGH' */
00000432  4267                     clr.w      -[A7]
00000434  A9A0                     syscall    GetResource
00000436  2B5F A554                move.l     [A5 - 0x5AAC], [A7]+
0000043A  4AAD A554                tst.l      [A5 - 0x5AAC]
0000043E  661A                     bne        +0x1C /* 0000045A */
00000440  203C 0000 0140           move.l     D0, 0x140
00000446  A322                     syscall    NewHandleClear, flags=3
00000448  2B48 A554                move.l     [A5 - 0x5AAC], A0
0000044C  2F08                     move.l     -[A7], A0
0000044E  2F3C 4849 4748           move.l     -[A7], 0x48494748 /* 'HIGH' */
00000454  4267                     clr.w      -[A7]
00000456  42A7                     clr.l      -[A7]
00000458  A9AB                     syscall    AddResource
label0000045A:
0000045A  426D A558                clr.w      [A5 - 0x5AA8]
0000045E  99CC                     sub.l      A4, A4
00000460  6014                     bra        +0x16 /* 00000476 */
label00000462:
00000462  206D A554                movea.l    A0, [A5 - 0x5AAC]
00000466  224C                     movea.l    A1, A4
00000468  D3D0                     add.l      A1, [A0]
0000046A  4A11                     tst.b      [A1]
0000046C  6710                     beq        +0x12 /* 0000047E */
0000046E  526D A558                addq.w     [A5 - 0x5AA8], 1
00000472  49EC 0020                lea.l      A4, [A4 + 0x20]
label00000476:
00000476  0C6D 000A A558           cmpi.w     [A5 - 0x5AA8], 0xA /* '\n' */
0000047C  6DE4                     blt        -0x1A /* 00000462 */
label0000047E:
0000047E  4CDF 1080                movem.l    D7,A4, [A7]+
00000482  4E5E                     unlink     A6
00000484  4E75                     rts
fn00000486:
00000486  4EBA 004E                jsr        [PC + 0x4E /* 000004D6 */]
0000048A  3B40 A16C                move.w     [A5 - 0x5E94], D0
0000048E  4A40                     tst.w      D0
00000490  6642                     bne        +0x44 /* 000004D4 */
00000492  4EBA 02AC                jsr        [PC + 0x2AC /* 00000740 */]
00000496  4267                     clr.w      -[A7]
00000498  2F2D A168                move.l     -[A7], [A5 - 0x5E98]
0000049C  3F2D A0BE                move.w     -[A7], [A5 - 0x5F42]
000004A0  4227                     clr.b      -[A7]
000004A2  A9C4                     syscall    OpenRFPerm
000004A4  3B5F A164                move.w     [A5 - 0x5E9C], [A7]+
000004A8  3F2D A164                move.w     -[A7], [A5 - 0x5E9C]
000004AC  4EBA 22F8                jsr        [PC + 0x22F8 /* 000027A6 */]
000004B0  4A00                     tst.b      D0
000004B2  548F                     addq.l     A7, 2
000004B4  661E                     bne        +0x20 /* 000004D4 */
000004B6  4EBA 030C                jsr        [PC + 0x30C /* 000007C4 */]
000004BA  4EBA 01D2                jsr        [PC + 0x1D2 /* 0000068E */]
000004BE  4EBA 0448                jsr        [PC + 0x448 /* 00000908 */]
000004C2  3B40 A16C                move.w     [A5 - 0x5E94], D0
000004C6  4A40                     tst.w      D0
000004C8  660A                     bne        +0xC /* 000004D4 */
000004CA  4EBA 057E                jsr        [PC + 0x57E /* 00000A4A */]
000004CE  3B40 A16C                move.w     [A5 - 0x5E94], D0
000004D2  4A40                     tst.w      D0
label000004D4:
000004D4  4E75                     rts
fn000004D6:
000004D6  48E7 0118                movem.l    -[A7], D7,A3,A4
000004DA  4A2D A099                tst.b      [A5 - 0x5F67]
000004DE  6700 0168                beq        +0x16A /* 00000648 */
000004E2  4A2D 9619                tst.b      [A5 - 0x69E7]
000004E6  6700 0160                beq        +0x162 /* 00000648 */
000004EA  42A7                     clr.l      -[A7]
000004EC  AA2A                     syscall    GetMainDevice
000004EE  285F                     movea.l    A4, [A7]+
000004F0  42A7                     clr.l      -[A7]
000004F2  AA29                     syscall    GetDeviceList
000004F4  265F                     movea.l    A3, [A7]+
000004F6  B9CB                     cmpa.l     A4, A3
000004F8  6608                     bne        +0xA /* 00000502 */
000004FA  42A7                     clr.l      -[A7]
000004FC  2F0B                     move.l     -[A7], A3
000004FE  AA2B                     syscall    GetNextDevice
00000500  265F                     movea.l    A3, [A7]+
label00000502:
00000502  4A2D 962B                tst.b      [A5 - 0x69D5]
00000506  6704                     beq        +0x6 /* 0000050C */
00000508  200B                     move.l     D0, A3
0000050A  660C                     bne        +0xE /* 00000518 */
label0000050C:
0000050C  1B7C 0001 A208           move.b     [A5 - 0x5DF8], 0x1
00000512  2B4C A1BC                move.l     [A5 - 0x5E44], A4
00000516  6008                     bra        +0xA /* 00000520 */
label00000518:
00000518  422D A208                clr.b      [A5 - 0x5DF8]
0000051C  2B4B A1BC                move.l     [A5 - 0x5E44], A3
label00000520:
00000520  1B7C 0001 A209           move.b     [A5 - 0x5DF7], 0x1
00000526  206D A1BC                movea.l    A0, [A5 - 0x5E44]
0000052A  2050                     movea.l    A0, [A0]
0000052C  2B68 0016 A1C0           move.l     [A5 - 0x5E40], [A0 + 0x16]
00000532  206D A1C0                movea.l    A0, [A5 - 0x5E40]
00000536  2850                     movea.l    A4, [A0]
00000538  2B6C 002A A1C4           move.l     [A5 - 0x5E3C], [A4 + 0x2A]
0000053E  226D A1C4                movea.l    A1, [A5 - 0x5E3C]
00000542  2251                     movea.l    A1, [A1]
00000544  2B51 A1C8                move.l     [A5 - 0x5E38], [A1]
00000548  426D A1AE                clr.w      [A5 - 0x5E52]
0000054C  4A6C 001E                tst.w      [A4 + 0x1E]
00000550  660C                     bne        +0xE /* 0000055E */
00000552  302C 0022                move.w     D0, [A4 + 0x22]
00000556  C1EC 0024                muls.w     D0, [A4 + 0x24]
0000055A  3B40 A1AE                move.w     [A5 - 0x5E52], D0
label0000055E:
0000055E  0C6D 0001 A1AE           cmpi.w     [A5 - 0x5E52], 0x1
00000564  6730                     beq        +0x32 /* 00000596 */
00000566  0C6D 0002 A1AE           cmpi.w     [A5 - 0x5E52], 0x2
0000056C  6728                     beq        +0x2A /* 00000596 */
0000056E  0C6D 0004 A1AE           cmpi.w     [A5 - 0x5E52], 0x4
00000574  6720                     beq        +0x22 /* 00000596 */
00000576  0C6D 0008 A1AE           cmpi.w     [A5 - 0x5E52], 0x8
0000057C  6718                     beq        +0x1A /* 00000596 */
0000057E  4267                     clr.w      -[A7]
00000580  3F3C 03ED                move.w     -[A7], 0x3ED
00000584  42A7                     clr.l      -[A7]
00000586  A985                     syscall    Alert
00000588  1B7C 0001 961E           move.b     [A5 - 0x69E2], 0x1
0000058E  70FF                     moveq.l    D0, 0xFFFFFFFF
00000590  548F                     addq.l     A7, 2
00000592  6000 00E2                bra        +0xE4 /* 00000676 */
label00000596:
00000596  302D A1AE                move.w     D0, [A5 - 0x5E52]
0000059A  0C40 0008                cmpi.w     D0, 0x8
0000059E  6242                     bhi        +0x44 /* 000005E2 */
000005A0  43FA 00DA                lea.l      A1, [PC + 0xDA /* 0000067C, value 0xFF66FF30 */]
000005A4  D040                     add.w      D0, D0
000005A6  D2F1 0000                add.w      A1, [A1 + D0.w]
000005AA  4ED1                     jmp        [A1]
000005AC  3B7C FFF0 A1B0           move.w     [A5 - 0x5E50], 0xFFF0
000005B2  3B7C 000F A1B2           move.w     [A5 - 0x5E4E], 0xF
000005B8  6028                     bra        +0x2A /* 000005E2 */
000005BA  3B7C FFF8 A1B0           move.w     [A5 - 0x5E50], 0xFFF8
000005C0  3B7C 0007 A1B2           move.w     [A5 - 0x5E4E], 0x7
000005C6  601A                     bra        +0x1C /* 000005E2 */
000005C8  3B7C FFFC A1B0           move.w     [A5 - 0x5E50], 0xFFFC
000005CE  3B7C 0003 A1B2           move.w     [A5 - 0x5E4E], 0x3
000005D4  600C                     bra        +0xE /* 000005E2 */
000005D6  3B7C FFFE A1B0           move.w     [A5 - 0x5E50], 0xFFFE
000005DC  3B7C 0001 A1B2           move.w     [A5 - 0x5E4E], 0x1
label000005E2:
000005E2  206D A1C0                movea.l    A0, [A5 - 0x5E40]
000005E6  2050                     movea.l    A0, [A0]
000005E8  2B68 0006 A1B4           move.l     [A5 - 0x5E4C], [A0 + 0x6]
000005EE  2B68 000A A1B8           move.l     [A5 - 0x5E48], [A0 + 0xA]
000005F4  302D A1B8                move.w     D0, [A5 - 0x5E48]
000005F8  906D A1B4                sub.w      D0, [A5 - 0x5E4C]
000005FC  0C40 0190                cmpi.w     D0, 0x190
00000600  6D12                     blt        +0x14 /* 00000614 */
00000602  302D A1BA                move.w     D0, [A5 - 0x5E46]
00000606  906D A1B6                sub.w      D0, [A5 - 0x5E4A]
0000060A  0C40 0280                cmpi.w     D0, 0x280
0000060E  6D04                     blt        +0x6 /* 00000614 */
00000610  7E01                     moveq.l    D7, 0x01
00000612  6002                     bra        +0x4 /* 00000616 */
label00000614:
00000614  7E00                     moveq.l    D7, 0x00
label00000616:
00000616  4A2D 962A                tst.b      [A5 - 0x69D6]
0000061A  6604                     bne        +0x6 /* 00000620 */
0000061C  4A07                     tst.b      D7
0000061E  660A                     bne        +0xC /* 0000062A */
label00000620:
00000620  4A2D 962A                tst.b      [A5 - 0x69D6]
00000624  670C                     beq        +0xE /* 00000632 */
00000626  4A07                     tst.b      D7
00000628  6608                     bne        +0xA /* 00000632 */
label0000062A:
0000062A  1B7C 0001 A20A           move.b     [A5 - 0x5DF6], 0x1
00000630  6004                     bra        +0x6 /* 00000636 */
label00000632:
00000632  422D A20A                clr.b      [A5 - 0x5DF6]
label00000636:
00000636  0C6D 0004 A1AE           cmpi.w     [A5 - 0x5E52], 0x4
0000063C  6C36                     bge        +0x38 /* 00000674 */
0000063E  422D A209                clr.b      [A5 - 0x5DF7]
00000642  422D A20A                clr.b      [A5 - 0x5DF6]
00000646  602C                     bra        +0x2E /* 00000674 */
label00000648:
00000648  1B7C 0001 A208           move.b     [A5 - 0x5DF8], 0x1
0000064E  422D A209                clr.b      [A5 - 0x5DF7]
00000652  422D A20A                clr.b      [A5 - 0x5DF6]
00000656  3B7C 0001 A1AE           move.w     [A5 - 0x5E52], 0x1
0000065C  3B7C FFF0 A1B0           move.w     [A5 - 0x5E50], 0xFFF0
00000662  3B7C 000F A1B2           move.w     [A5 - 0x5E4E], 0xF
00000668  2B6D A65A A1B4           move.l     [A5 - 0x5E4C], [A5 - 0x59A6]
0000066E  2B6D A65E A1B8           move.l     [A5 - 0x5E48], [A5 - 0x59A2]
label00000674:
00000674  7000                     moveq.l    D0, 0x00
label00000676:
00000676  4CDF 1880                movem.l    D7,A3,A4, [A7]+
0000067A  4E75                     rts
0000067C  FF66                     .extension 0xF66 <<F/4-5/7>> // unimplemented
0000067E  FF30                     .extension 0xF30 <<F/4-5/7>> // unimplemented
00000680  FF3E                     .extension 0xF3E <<F/4-5/7>> // unimplemented
00000682  FF66                     .extension 0xF66 <<F/4-5/7>> // unimplemented
00000684  FF4C                     .extension 0xF4C <<F/4-5/7>> // unimplemented
00000686  FF66                     .extension 0xF66 <<F/4-5/7>> // unimplemented
00000688  FF66                     .extension 0xF66 <<F/4-5/7>> // unimplemented
0000068A  FF66                     .extension 0xF66 <<F/4-5/7>> // unimplemented
0000068C  FF5A                     .extension 0xF5A <<F/4-5/7>> // unimplemented
fn0000068E:
0000068E  4A2D A209                tst.b      [A5 - 0x5DF7]
00000692  6710                     beq        +0x12 /* 000006A4 */
00000694  0C6D 0008 A1AE           cmpi.w     [A5 - 0x5E52], 0x8
0000069A  6608                     bne        +0xA /* 000006A4 */
0000069C  3B7C 0008 A25C           move.w     [A5 - 0x5DA4], 0x8
000006A2  601C                     bra        +0x1E /* 000006C0 */
label000006A4:
000006A4  4A2D A209                tst.b      [A5 - 0x5DF7]
000006A8  6710                     beq        +0x12 /* 000006BA */
000006AA  0C6D 0004 A1AE           cmpi.w     [A5 - 0x5E52], 0x4
000006B0  6608                     bne        +0xA /* 000006BA */
000006B2  3B7C 0004 A25C           move.w     [A5 - 0x5DA4], 0x4
000006B8  6006                     bra        +0x8 /* 000006C0 */
label000006BA:
000006BA  3B7C 0001 A25C           move.w     [A5 - 0x5DA4], 0x1
label000006C0:
000006C0  302D A25C                move.w     D0, [A5 - 0x5DA4]
000006C4  6778                     beq        +0x7A /* 0000073E */
000006C6  6B76                     bmi        +0x78 /* 0000073E */
000006C8  5940                     subq.w     D0, 4
000006CA  6730                     beq        +0x32 /* 000006FC */
000006CC  6A06                     bpl        +0x8 /* 000006D4 */
000006CE  5440                     addq.w     D0, 2
000006D0  6A6C                     bpl        +0x6E /* 0000073E */
000006D2  604A                     bra        +0x4C /* 0000071E */
label000006D4:
000006D4  5940                     subq.w     D0, 4
000006D6  6702                     beq        +0x4 /* 000006DA */
000006D8  6064                     bra        +0x66 /* 0000073E */
label000006DA:
000006DA  41ED 0162                lea.l      A0, [A5 + 0x162 /* export_40, CODE:2 @ 00003DC4 */]
000006DE  2B48 A3DE                move.l     [A5 - 0x5C22], A0
000006E2  43ED 016A                lea.l      A1, [A5 + 0x16A /* export_41, CODE:2 @ 00003F24 */]
000006E6  2B49 A3E2                move.l     [A5 - 0x5C1E], A1
000006EA  41ED 0172                lea.l      A0, [A5 + 0x172 /* export_42, CODE:2 @ 00003F76 */]
000006EE  2B48 A3E6                move.l     [A5 - 0x5C1A], A0
000006F2  41ED 017A                lea.l      A0, [A5 + 0x17A /* export_43, CODE:2 @ 00003FD8 */]
000006F6  2B48 A3EA                move.l     [A5 - 0x5C16], A0
000006FA  6042                     bra        +0x44 /* 0000073E */
label000006FC:
000006FC  41ED 0142                lea.l      A0, [A5 + 0x142 /* export_36, CODE:2 @ 00003A24 */]
00000700  2B48 A3DE                move.l     [A5 - 0x5C22], A0
00000704  43ED 014A                lea.l      A1, [A5 + 0x14A /* export_37, CODE:2 @ 00003C86 */]
00000708  2B49 A3E2                move.l     [A5 - 0x5C1E], A1
0000070C  41ED 0152                lea.l      A0, [A5 + 0x152 /* export_38, CODE:2 @ 00003D0A */]
00000710  2B48 A3E6                move.l     [A5 - 0x5C1A], A0
00000714  41ED 015A                lea.l      A0, [A5 + 0x15A /* export_39, CODE:2 @ 00003D6C */]
00000718  2B48 A3EA                move.l     [A5 - 0x5C16], A0
0000071C  6020                     bra        +0x22 /* 0000073E */
label0000071E:
0000071E  41ED 0122                lea.l      A0, [A5 + 0x122 /* export_32, CODE:2 @ 00002FDE */]
00000722  2B48 A3DE                move.l     [A5 - 0x5C22], A0
00000726  43ED 012A                lea.l      A1, [A5 + 0x12A /* export_33, CODE:2 @ 000037A2 */]
0000072A  2B49 A3E2                move.l     [A5 - 0x5C1E], A1
0000072E  41ED 0132                lea.l      A0, [A5 + 0x132 /* export_34, CODE:2 @ 00003862 */]
00000732  2B48 A3E6                move.l     [A5 - 0x5C1A], A0
00000736  41ED 013A                lea.l      A0, [A5 + 0x13A /* export_35, CODE:2 @ 00003948 */]
0000073A  2B48 A3EA                move.l     [A5 - 0x5C16], A0
label0000073E:
0000073E  4E75                     rts
fn00000740:
00000740  4E56 FFF0                link       A6, -0x0010
label00000744:
00000744  4A2D A209                tst.b      [A5 - 0x5DF7]
00000748  6710                     beq        +0x12 /* 0000075A */
0000074A  4A2D A20A                tst.b      [A5 - 0x5DF6]
0000074E  670A                     beq        +0xC /* 0000075A */
00000750  41ED 965E                lea.l      A0, [A5 - 0x69A2]
00000754  2B48 A168                move.l     [A5 - 0x5E98], A0
00000758  6018                     bra        +0x1A /* 00000772 */
label0000075A:
0000075A  4A2D A209                tst.b      [A5 - 0x5DF7]
0000075E  670A                     beq        +0xC /* 0000076A */
00000760  41ED 966C                lea.l      A0, [A5 - 0x6994]
00000764  2B48 A168                move.l     [A5 - 0x5E98], A0
00000768  6008                     bra        +0xA /* 00000772 */
label0000076A:
0000076A  41ED 9678                lea.l      A0, [A5 - 0x6988]
0000076E  2B48 A168                move.l     [A5 - 0x5E98], A0
label00000772:
00000772  4267                     clr.w      -[A7]
00000774  2F2D A168                move.l     -[A7], [A5 - 0x5E98]
00000778  3F2D A0BE                move.w     -[A7], [A5 - 0x5F42]
0000077C  486E FFF0                pea.l      [A6 - 0x10]
00000780  4EBA 3B18                jsr        [PC + 0x3B18 /* 0000429A */]
00000784  3B5F A16C                move.w     [A5 - 0x5E94], [A7]+
00000788  4A6D A16C                tst.w      [A5 - 0x5E94]
0000078C  6614                     bne        +0x16 /* 000007A2 */
0000078E  0CAE 5050 6766 FFF0      cmpi.l     [A6 - 0x10], 0x50506766 /* 'PPgf' */
00000796  660A                     bne        +0xC /* 000007A2 */
00000798  0CAE 506F C450 FFF4      cmpi.l     [A6 - 0xC], 0x506FC450
000007A0  671E                     beq        +0x20 /* 000007C0 */
label000007A2:
000007A2  4A2D A209                tst.b      [A5 - 0x5DF7]
000007A6  670C                     beq        +0xE /* 000007B4 */
000007A8  4A2D A20A                tst.b      [A5 - 0x5DF6]
000007AC  6706                     beq        +0x8 /* 000007B4 */
000007AE  422D A20A                clr.b      [A5 - 0x5DF6]
000007B2  6090                     bra        -0x6E /* 00000744 */
label000007B4:
000007B4  4A2D A209                tst.b      [A5 - 0x5DF7]
000007B8  6706                     beq        +0x8 /* 000007C0 */
000007BA  422D A209                clr.b      [A5 - 0x5DF7]
000007BE  6084                     bra        -0x7A /* 00000744 */
label000007C0:
000007C0  4E5E                     unlink     A6
000007C2  4E75                     rts
fn000007C4:
000007C4  4E56 FFFC                link       A6, -0x0004
000007C8  48E7 1F08                movem.l    -[A7], D3,D4,D5,D6,D7,A4
000007CC  4A2D A20A                tst.b      [A5 - 0x5DF6]
000007D0  6730                     beq        +0x32 /* 00000802 */
000007D2  7E80                     moveq.l    D7, 0xFFFFFF80
000007D4  49ED 9766                lea.l      A4, [A5 - 0x689A]
000007D8  600A                     bra        +0xC /* 000007E4 */
label000007DA:
000007DA  3007                     move.w     D0, D7
000007DC  D040                     add.w      D0, D0
000007DE  3880                     move.w     [A4], D0
000007E0  5247                     addq.w     D7, 1
000007E2  548C                     addq.l     A4, 2
label000007E4:
000007E4  0C47 01C0                cmpi.w     D7, 0x1C0
000007E8  6DF0                     blt        -0xE /* 000007DA */
000007EA  7EC1                     moveq.l    D7, 0xFFFFFFC1
000007EC  49ED 9BE6                lea.l      A4, [A5 - 0x641A]
000007F0  600A                     bra        +0xC /* 000007FC */
label000007F2:
000007F2  3007                     move.w     D0, D7
000007F4  D040                     add.w      D0, D0
000007F6  3880                     move.w     [A4], D0
000007F8  5247                     addq.w     D7, 1
000007FA  548C                     addq.l     A4, 2
label000007FC:
000007FC  0C47 00FF                cmpi.w     D7, 0xFF
00000800  6DF0                     blt        -0xE /* 000007F2 */
label00000802:
00000802  4A2D A20A                tst.b      [A5 - 0x5DF6]
00000806  661C                     bne        +0x1E /* 00000824 */
00000808  532D B37D                subq.b     [A5 - 0x4C83], 1
0000080C  592D B389                subq.b     [A5 - 0x4C77], 4
00000810  572D B391                subq.b     [A5 - 0x4C6F], 3
00000814  572D B395                subq.b     [A5 - 0x4C6B], 3
00000818  552D B399                subq.b     [A5 - 0x4C67], 2
0000081C  532D B39D                subq.b     [A5 - 0x4C63], 1
00000820  522D B3B9                addq.b     [A5 - 0x4C47], 1
label00000824:
00000824  4A2D A20A                tst.b      [A5 - 0x5DF6]
00000828  671E                     beq        +0x20 /* 00000848 */
0000082A  3B7C 0280 A5C0           move.w     [A5 - 0x5A40], 0x280
00000830  3B7C 0190 A5C2           move.w     [A5 - 0x5A3E], 0x190
00000836  3C3C 0280                move.w     D6, 0x280
0000083A  3A3C 0180                move.w     D5, 0x180
0000083E  383C 012C                move.w     D4, 0x12C
00000842  363C 015E                move.w     D3, 0x15E
00000846  601C                     bra        +0x1E /* 00000864 */
label00000848:
00000848  3B7C 0200 A5C0           move.w     [A5 - 0x5A40], 0x200
0000084E  3B7C 014E A5C2           move.w     [A5 - 0x5A3E], 0x14E
00000854  3C3C 01FE                move.w     D6, 0x1FE
00000858  3A3C 013E                move.w     D5, 0x13E
0000085C  383C 00F0                move.w     D4, 0xF0
00000860  363C 015E                move.w     D3, 0x15E
label00000864:
00000864  3E06                     move.w     D7, D6
00000866  E247                     asr        D7.w, 1
00000868  E244                     asr        D4.w, 1
0000086A  E243                     asr        D3.w, 1
0000086C  486D A5C4                pea.l      [A5 - 0x5A3C]
00000870  42A7                     clr.l      -[A7]
00000872  3F2D A5C0                move.w     -[A7], [A5 - 0x5A40]
00000876  3F2D A5C2                move.w     -[A7], [A5 - 0x5A3E]
0000087A  A8A7                     syscall    SetRect
0000087C  486D A5CC                pea.l      [A5 - 0x5A34]
00000880  42A7                     clr.l      -[A7]
00000882  3F06                     move.w     -[A7], D6
00000884  3F05                     move.w     -[A7], D5
00000886  A8A7                     syscall    SetRect
00000888  486D A5D4                pea.l      [A5 - 0x5A2C]
0000088C  4267                     clr.w      -[A7]
0000088E  3F05                     move.w     -[A7], D5
00000890  3F06                     move.w     -[A7], D6
00000892  3F2D A5C2                move.w     -[A7], [A5 - 0x5A3E]
00000896  A8A7                     syscall    SetRect
00000898  3007                     move.w     D0, D7
0000089A  9044                     sub.w      D0, D4
0000089C  3D40 FFFE                move.w     [A6 - 0x2], D0
000008A0  486D A5DC                pea.l      [A5 - 0x5A24]
000008A4  4267                     clr.w      -[A7]
000008A6  3F05                     move.w     -[A7], D5
000008A8  3F00                     move.w     -[A7], D0
000008AA  3F2D A5C2                move.w     -[A7], [A5 - 0x5A3E]
000008AE  A8A7                     syscall    SetRect
000008B0  3007                     move.w     D0, D7
000008B2  D044                     add.w      D0, D4
000008B4  3D40 FFFC                move.w     [A6 - 0x4], D0
000008B8  486D A5E4                pea.l      [A5 - 0x5A1C]
000008BC  3F2E FFFE                move.w     -[A7], [A6 - 0x2]
000008C0  3F05                     move.w     -[A7], D5
000008C2  3F00                     move.w     -[A7], D0
000008C4  3F2D A5C2                move.w     -[A7], [A5 - 0x5A3E]
000008C8  A8A7                     syscall    SetRect
000008CA  486D A5EC                pea.l      [A5 - 0x5A14]
000008CE  3F2E FFFC                move.w     -[A7], [A6 - 0x4]
000008D2  3F05                     move.w     -[A7], D5
000008D4  3F06                     move.w     -[A7], D6
000008D6  3F2D A5C2                move.w     -[A7], [A5 - 0x5A3E]
000008DA  A8A7                     syscall    SetRect
000008DC  486D A5FC                pea.l      [A5 - 0x5A04]
000008E0  3007                     move.w     D0, D7
000008E2  9043                     sub.w      D0, D3
000008E4  3F00                     move.w     -[A7], D0
000008E6  4267                     clr.w      -[A7]
000008E8  3007                     move.w     D0, D7
000008EA  D043                     add.w      D0, D3
000008EC  3F00                     move.w     -[A7], D0
000008EE  3F3C 0014                move.w     -[A7], 0x14
000008F2  A8A7                     syscall    SetRect
000008F4  486D A5FC                pea.l      [A5 - 0x5A04]
000008F8  4267                     clr.w      -[A7]
000008FA  3F2D 9D0E                move.w     -[A7], [A5 - 0x62F2]
000008FE  A8A8                     syscall    OffsetRect
00000900  4CDF 10F8                movem.l    D3,D4,D5,D6,D7,A4, [A7]+
00000904  4E5E                     unlink     A6
00000906  4E75                     rts
fn00000908:
00000908  486D A0B6                pea.l      [A5 - 0x5F4A]
0000090C  A874                     syscall    GetPort
0000090E  4A2D A209                tst.b      [A5 - 0x5DF7]
00000912  673C                     beq        +0x3E /* 00000950 */
00000914  42A7                     clr.l      -[A7]
00000916  2F3C 636C 7574           move.l     -[A7], 0x636C7574 /* 'clut' */
0000091C  3F3C 07D0                move.w     -[A7], 0x7D0
00000920  A9A0                     syscall    GetResource
00000922  2B5F A2F4                move.l     [A5 - 0x5D0C], [A7]+
00000926  2F2D A2F4                move.l     -[A7], [A5 - 0x5D0C]
0000092A  4EBA 1EEE                jsr        [PC + 0x1EEE /* 0000281A */]
0000092E  4A00                     tst.b      D0
00000930  588F                     addq.l     A7, 4
00000932  6706                     beq        +0x8 /* 0000093A */
00000934  70FF                     moveq.l    D0, 0xFFFFFFFF
00000936  6000 0110                bra        +0x112 /* 00000A48 */
label0000093A:
0000093A  2F2D A2F4                move.l     -[A7], [A5 - 0x5D0C]
0000093E  A992                     syscall    DetachResource
00000940  206D A2F4                movea.l    A0, [A5 - 0x5D0C]
00000944  2050                     movea.l    A0, [A0]
00000946  7001                     moveq.l    D0, 0x01
00000948  D068 0006                add.w      D0, [A0 + 0x6]
0000094C  3B40 A2F8                move.w     [A5 - 0x5D08], D0
label00000950:
00000950  302D A25C                move.w     D0, [A5 - 0x5DA4]
00000954  C1ED A5C0                muls.w     D0, [A5 - 0x5A40]
00000958  0640 000F                addi.w     D0, 0xF
0000095C  E840                     asr        D0.w, 4
0000095E  D040                     add.w      D0, D0
00000960  3B40 A2DA                move.w     [A5 - 0x5D26], D0
00000964  C1ED A5C2                muls.w     D0, [A5 - 0x5A3E]
00000968  2B40 A2D6                move.l     [A5 - 0x5D2A], D0
0000096C  A11E                     syscall    NewPtr, flags=1
0000096E  2B48 A2D2                move.l     [A5 - 0x5D2E], A0
00000972  2F08                     move.l     -[A7], A0
00000974  4EBA 1EE6                jsr        [PC + 0x1EE6 /* 0000285C */]
00000978  4A00                     tst.b      D0
0000097A  588F                     addq.l     A7, 4
0000097C  6706                     beq        +0x8 /* 00000984 */
0000097E  70FF                     moveq.l    D0, 0xFFFFFFFF
00000980  6000 00C6                bra        +0xC8 /* 00000A48 */
label00000984:
00000984  2B6D A5C4 A2DC           move.l     [A5 - 0x5D24], [A5 - 0x5A3C]
0000098A  2B6D A5C8 A2E0           move.l     [A5 - 0x5D20], [A5 - 0x5A38]
00000990  2B6D A2DC A2E4           move.l     [A5 - 0x5D1C], [A5 - 0x5D24]
00000996  2B6D A2E0 A2E8           move.l     [A5 - 0x5D18], [A5 - 0x5D20]
0000099C  4A2D A209                tst.b      [A5 - 0x5DF7]
000009A0  6750                     beq        +0x52 /* 000009F2 */
000009A2  42A7                     clr.l      -[A7]
000009A4  AA32                     syscall    GetGDevice
000009A6  2B5F A0BA                move.l     [A5 - 0x5F46], [A7]+
000009AA  2F2D A1BC                move.l     -[A7], [A5 - 0x5E44]
000009AE  AA31                     syscall    SetGDevice
000009B0  486D A25E                pea.l      [A5 - 0x5DA2]
000009B4  AA00                     syscall    OpenCPort
000009B6  2B6D A260 A2CA           move.l     [A5 - 0x5D36], [A5 - 0x5DA0]
000009BC  206D A2CA                movea.l    A0, [A5 - 0x5D36]
000009C0  2050                     movea.l    A0, [A0]
000009C2  20AD A2D2                move.l     [A0], [A5 - 0x5D2E]
000009C6  302D A2DA                move.w     D0, [A5 - 0x5D26]
000009CA  0040 8000                ori.w      D0, 0x8000
000009CE  206D A2CA                movea.l    A0, [A5 - 0x5D36]
000009D2  2050                     movea.l    A0, [A0]
000009D4  3140 0004                move.w     [A0 + 0x4], D0
000009D8  206D A2CA                movea.l    A0, [A5 - 0x5D36]
000009DC  2050                     movea.l    A0, [A0]
000009DE  216D A2DC 0006           move.l     [A0 + 0x6], [A5 - 0x5D24]
000009E4  216D A2E0 000A           move.l     [A0 + 0xA], [A5 - 0x5D20]
000009EA  2F2D A0BA                move.l     -[A7], [A5 - 0x5F46]
000009EE  AA31                     syscall    SetGDevice
000009F0  602C                     bra        +0x2E /* 00000A1E */
label000009F2:
000009F2  486D A25E                pea.l      [A5 - 0x5DA2]
000009F6  A86F                     syscall    OpenPort
000009F8  41ED A260                lea.l      A0, [A5 - 0x5DA0]
000009FC  2B48 A2CE                move.l     [A5 - 0x5D32], A0
00000A00  20AD A2D2                move.l     [A0], [A5 - 0x5D2E]
00000A04  206D A2CE                movea.l    A0, [A5 - 0x5D32]
00000A08  316D A2DA 0004           move.w     [A0 + 0x4], [A5 - 0x5D26]
00000A0E  206D A2CE                movea.l    A0, [A5 - 0x5D32]
00000A12  216D A2DC 0006           move.l     [A0 + 0x6], [A5 - 0x5D24]
00000A18  216D A2E0 000A           move.l     [A0 + 0xA], [A5 - 0x5D20]
label00000A1E:
00000A1E  486D A2DC                pea.l      [A5 - 0x5D24]
00000A22  A87B                     syscall    ClipRect
00000A24  486D A2DC                pea.l      [A5 - 0x5D24]
00000A28  A8A2                     syscall    PaintRect
00000A2A  3F3C 00C8                move.w     -[A7], 0xC8
00000A2E  A887                     syscall    TextFont
00000A30  3F3C 0010                move.w     -[A7], 0x10
00000A34  A88A                     syscall    TextSize
00000A36  4267                     clr.w      -[A7]
00000A38  A888                     syscall    TextFace
00000A3A  3F3C 0003                move.w     -[A7], 0x3
00000A3E  A889                     syscall    TextMode
00000A40  2F2D A0B6                move.l     -[A7], [A5 - 0x5F4A]
00000A44  A873                     syscall    SetPort
00000A46  7000                     moveq.l    D0, 0x00
label00000A48:
00000A48  4E75                     rts
fn00000A4A:
00000A4A  48E7 0318                movem.l    -[A7], D6,D7,A3,A4
00000A4E  4A2D A209                tst.b      [A5 - 0x5DF7]
00000A52  6720                     beq        +0x22 /* 00000A74 */
00000A54  42A7                     clr.l      -[A7]
00000A56  42A7                     clr.l      -[A7]
00000A58  486D A1B4                pea.l      [A5 - 0x5E4C]
00000A5C  42A7                     clr.l      -[A7]
00000A5E  2F3C 0002 0100           move.l     -[A7], 0x20100
00000A64  4878 FFFF                push.l     0xFFFF
00000A68  4227                     clr.b      -[A7]
00000A6A  42A7                     clr.l      -[A7]
00000A6C  AA45                     syscall    NewCWindow
00000A6E  2B5F A212                move.l     [A5 - 0x5DEE], [A7]+
00000A72  601E                     bra        +0x20 /* 00000A92 */
label00000A74:
00000A74  42A7                     clr.l      -[A7]
00000A76  42A7                     clr.l      -[A7]
00000A78  486D A1B4                pea.l      [A5 - 0x5E4C]
00000A7C  42A7                     clr.l      -[A7]
00000A7E  2F3C 0002 0100           move.l     -[A7], 0x20100
00000A84  4878 FFFF                push.l     0xFFFF
00000A88  4227                     clr.b      -[A7]
00000A8A  42A7                     clr.l      -[A7]
00000A8C  A913                     syscall    NewWindow
00000A8E  2B5F A212                move.l     [A5 - 0x5DEE], [A7]+
label00000A92:
00000A92  2F2D A212                move.l     -[A7], [A5 - 0x5DEE]
00000A96  4EBA 1DC4                jsr        [PC + 0x1DC4 /* 0000285C */]
00000A9A  4A00                     tst.b      D0
00000A9C  588F                     addq.l     A7, 4
00000A9E  6706                     beq        +0x8 /* 00000AA6 */
00000AA0  70FF                     moveq.l    D0, 0xFFFFFFFF
00000AA2  6000 0234                bra        +0x236 /* 00000CD8 */
label00000AA6:
00000AA6  2F2D A212                move.l     -[A7], [A5 - 0x5DEE]
00000AAA  A873                     syscall    SetPort
00000AAC  3E2D A1BA                move.w     D7, [A5 - 0x5E46]
00000AB0  DE6D A1B6                add.w      D7, [A5 - 0x5E4A]
00000AB4  9E6D A5C0                sub.w      D7, [A5 - 0x5A40]
00000AB8  48C7                     ext.l      D7
00000ABA  8FFC 0002                divs.w     D7, 0x2
00000ABE  CE6D A1B0                and.w      D7, [A5 - 0x5E50]
00000AC2  3C2D A1B8                move.w     D6, [A5 - 0x5E48]
00000AC6  DC6D A1B4                add.w      D6, [A5 - 0x5E4C]
00000ACA  9C6D A5C2                sub.w      D6, [A5 - 0x5A3E]
00000ACE  48C6                     ext.l      D6
00000AD0  8DFC 0002                divs.w     D6, 0x2
00000AD4  302D A1B6                move.w     D0, [A5 - 0x5E4A]
00000AD8  9047                     sub.w      D0, D7
00000ADA  3F00                     move.w     -[A7], D0
00000ADC  302D A1B4                move.w     D0, [A5 - 0x5E4C]
00000AE0  9046                     sub.w      D0, D6
00000AE2  3F00                     move.w     -[A7], D0
00000AE4  A878                     syscall    SetOrigin
00000AE6  4A2D A209                tst.b      [A5 - 0x5DF7]
00000AEA  6718                     beq        +0x1A /* 00000B04 */
00000AEC  206D A212                movea.l    A0, [A5 - 0x5DEE]
00000AF0  2B68 0002 A216           move.l     [A5 - 0x5DEA], [A0 + 0x2]
00000AF6  2B68 0010 A21E           move.l     [A5 - 0x5DE2], [A0 + 0x10]
00000AFC  2B68 0014 A222           move.l     [A5 - 0x5DDE], [A0 + 0x14]
00000B02  601A                     bra        +0x1C /* 00000B1E */
label00000B04:
00000B04  7002                     moveq.l    D0, 0x02
00000B06  D0AD A212                add.l      D0, [A5 - 0x5DEE]
00000B0A  2B40 A21A                move.l     [A5 - 0x5DE6], D0
00000B0E  206D A212                movea.l    A0, [A5 - 0x5DEE]
00000B12  2B68 0010 A21E           move.l     [A5 - 0x5DE2], [A0 + 0x10]
00000B18  2B68 0014 A222           move.l     [A5 - 0x5DDE], [A0 + 0x14]
label00000B1E:
00000B1E  4878 001E                push.l     0x1E
00000B22  A863                     syscall    BackColor
00000B24  4878 0021                push.l     0x21 /* '!' */
00000B28  A862                     syscall    ForeColor
00000B2A  486D A21E                pea.l      [A5 - 0x5DE2]
00000B2E  A8A2                     syscall    PaintRect
00000B30  42A7                     clr.l      -[A7]
00000B32  A8D8                     syscall    NewRgn
00000B34  2B5F A22A                move.l     [A5 - 0x5DD6], [A7]+
00000B38  2F2D A22A                move.l     -[A7], [A5 - 0x5DD6]
00000B3C  486D A21E                pea.l      [A5 - 0x5DE2]
00000B40  A8DF                     syscall    RectRgn
00000B42  42A7                     clr.l      -[A7]
00000B44  A8D8                     syscall    NewRgn
00000B46  285F                     movea.l    A4, [A7]+
00000B48  2F0C                     move.l     -[A7], A4
00000B4A  486D A5C4                pea.l      [A5 - 0x5A3C]
00000B4E  A8DF                     syscall    RectRgn
00000B50  2F2D A22A                move.l     -[A7], [A5 - 0x5DD6]
00000B54  2F0C                     move.l     -[A7], A4
00000B56  2F2D A22A                move.l     -[A7], [A5 - 0x5DD6]
00000B5A  A8E6                     syscall    DiffRgn
00000B5C  2F0C                     move.l     -[A7], A4
00000B5E  A8D9                     syscall    DisposRgn/DisposeRgn
00000B60  4A2D A209                tst.b      [A5 - 0x5DF7]
00000B64  6700 00E6                beq        +0xE8 /* 00000C4C */
00000B68  0C6D 0008 A25C           cmpi.w     [A5 - 0x5DA4], 0x8
00000B6E  6C06                     bge        +0x8 /* 00000B76 */
00000B70  3E3C 0FA0                move.w     D7, 0xFA0
00000B74  6004                     bra        +0x6 /* 00000B7A */
label00000B76:
00000B76  3E3C 07D0                move.w     D7, 0x7D0
label00000B7A:
00000B7A  42A7                     clr.l      -[A7]
00000B7C  2F3C 636C 7574           move.l     -[A7], 0x636C7574 /* 'clut' */
00000B82  3F07                     move.w     -[A7], D7
00000B84  A9A0                     syscall    GetResource
00000B86  2B5F A232                move.l     [A5 - 0x5DCE], [A7]+
00000B8A  2F2D A232                move.l     -[A7], [A5 - 0x5DCE]
00000B8E  4EBA 1C8A                jsr        [PC + 0x1C8A /* 0000281A */]
00000B92  4A00                     tst.b      D0
00000B94  588F                     addq.l     A7, 4
00000B96  6706                     beq        +0x8 /* 00000B9E */
00000B98  70FF                     moveq.l    D0, 0xFFFFFFFF
00000B9A  6000 013C                bra        +0x13E /* 00000CD8 */
label00000B9E:
00000B9E  0C6D 0008 A25C           cmpi.w     [A5 - 0x5DA4], 0x8
00000BA4  6C0E                     bge        +0x10 /* 00000BB4 */
00000BA6  2F2D A2F4                move.l     -[A7], [A5 - 0x5D0C]
00000BAA  3F3C 0004                move.w     -[A7], 0x4
00000BAE  2F2D A232                move.l     -[A7], [A5 - 0x5DCE]
00000BB2  AA37                     syscall    GetSubTable
label00000BB4:
00000BB4  206D A232                movea.l    A0, [A5 - 0x5DCE]
00000BB8  2050                     movea.l    A0, [A0]
00000BBA  7001                     moveq.l    D0, 0x01
00000BBC  D068 0006                add.w      D0, [A0 + 0x6]
00000BC0  3B40 A236                move.w     [A5 - 0x5DCA], D0
00000BC4  42A7                     clr.l      -[A7]
00000BC6  3F00                     move.w     -[A7], D0
00000BC8  2F2D A232                move.l     -[A7], [A5 - 0x5DCE]
00000BCC  4878 0004                push.l     0x4
00000BD0  AA91                     syscall    NewPalette
00000BD2  2B5F A22E                move.l     [A5 - 0x5DD2], [A7]+
00000BD6  2F2D A22E                move.l     -[A7], [A5 - 0x5DD2]
00000BDA  4EBA 1C3E                jsr        [PC + 0x1C3E /* 0000281A */]
00000BDE  4A00                     tst.b      D0
00000BE0  588F                     addq.l     A7, 4
00000BE2  6706                     beq        +0x8 /* 00000BEA */
00000BE4  70FF                     moveq.l    D0, 0xFFFFFFFF
00000BE6  6000 00F0                bra        +0xF2 /* 00000CD8 */
label00000BEA:
00000BEA  7E00                     moveq.l    D7, 0x00
00000BEC  99CC                     sub.l      A4, A4
00000BEE  97CB                     sub.l      A3, A3
00000BF0  6020                     bra        +0x22 /* 00000C12 */
label00000BF2:
00000BF2  206D A232                movea.l    A0, [A5 - 0x5DCE]
00000BF6  2010                     move.l     D0, [A0]
00000BF8  226D A22E                movea.l    A1, [A5 - 0x5DD2]
00000BFC  2211                     move.l     D1, [A1]
00000BFE  41F3 1810                lea.l      A0, [A3 + D1 + 0x10]
00000C02  20F4 080A                move.l     [A0]+, [A4 + D0 + 0xA]
00000C06  30F4 080E                move.w     [A0]+, [A4 + D0 + 0xE]
00000C0A  5247                     addq.w     D7, 1
00000C0C  508C                     addq.l     A4, 8
00000C0E  47EB 0010                lea.l      A3, [A3 + 0x10]
label00000C12:
00000C12  BE6D A236                cmp.w      D7, [A5 - 0x5DCA]
00000C16  6DDA                     blt        -0x24 /* 00000BF2 */
00000C18  2F2D A22E                move.l     -[A7], [A5 - 0x5DD2]
00000C1C  2F3C 0002 0000           move.l     -[A7], 0x20000
00000C22  4267                     clr.w      -[A7]
00000C24  AA9E                     syscall    SetEntryUsage
00000C26  2F2D A22E                move.l     -[A7], [A5 - 0x5DD2]
00000C2A  2F3C 0002 0001           move.l     -[A7], 0x20001
00000C30  4267                     clr.w      -[A7]
00000C32  AA9E                     syscall    SetEntryUsage
00000C34  2F2D A212                move.l     -[A7], [A5 - 0x5DEE]
00000C38  2F2D A22E                move.l     -[A7], [A5 - 0x5DD2]
00000C3C  1F3C 0001                move.b     -[A7], 0x1
00000C40  AA95                     syscall    SetPalette/NSetPalette
00000C42  3B7C 0100 9654           move.w     [A5 - 0x69AC], 0x100
00000C48  4EBA 0D74                jsr        [PC + 0xD74 /* 000019BE */]
label00000C4C:
00000C4C  1B7C 0001 A20C           move.b     [A5 - 0x5DF4], 0x1
00000C52  0C6D 0004 A25C           cmpi.w     [A5 - 0x5DA4], 0x4
00000C58  6608                     bne        +0xA /* 00000C62 */
00000C5A  1B7C 0001 A20D           move.b     [A5 - 0x5DF3], 0x1
00000C60  6074                     bra        +0x76 /* 00000CD6 */
label00000C62:
00000C62  0C6D 0008 A25C           cmpi.w     [A5 - 0x5DA4], 0x8
00000C68  666C                     bne        +0x6E /* 00000CD6 */
00000C6A  1B7C 0001 A20D           move.b     [A5 - 0x5DF3], 0x1
00000C70  7E00                     moveq.l    D7, 0x00
00000C72  49ED A238                lea.l      A4, [A5 - 0x5DC8]
00000C76  6028                     bra        +0x2A /* 00000CA0 */
label00000C78:
00000C78  42A7                     clr.l      -[A7]
00000C7A  2F3C 636C 7574           move.l     -[A7], 0x636C7574 /* 'clut' */
00000C80  3007                     move.w     D0, D7
00000C82  0640 0BB8                addi.w     D0, 0xBB8
00000C86  3F00                     move.w     -[A7], D0
00000C88  A9A0                     syscall    GetResource
00000C8A  289F                     move.l     [A4], [A7]+
00000C8C  2F14                     move.l     -[A7], [A4]
00000C8E  4EBA 1B8A                jsr        [PC + 0x1B8A /* 0000281A */]
00000C92  4A00                     tst.b      D0
00000C94  588F                     addq.l     A7, 4
00000C96  6704                     beq        +0x6 /* 00000C9C */
00000C98  70FF                     moveq.l    D0, 0xFFFFFFFF
00000C9A  603C                     bra        +0x3E /* 00000CD8 */
label00000C9C:
00000C9C  5247                     addq.w     D7, 1
00000C9E  588C                     addq.l     A4, 4
label00000CA0:
00000CA0  0C47 0007                cmpi.w     D7, 0x7
00000CA4  6FD2                     ble        -0x2C /* 00000C78 */
00000CA6  1B7C 0001 A20E           move.b     [A5 - 0x5DF2], 0x1
00000CAC  42A7                     clr.l      -[A7]
00000CAE  2F3C 636C 7574           move.l     -[A7], 0x636C7574 /* 'clut' */
00000CB4  3F3C 0DAC                move.w     -[A7], 0xDAC
00000CB8  A9A0                     syscall    GetResource
00000CBA  2B5F A258                move.l     [A5 - 0x5DA8], [A7]+
00000CBE  2F2D A258                move.l     -[A7], [A5 - 0x5DA8]
00000CC2  4EBA 1B56                jsr        [PC + 0x1B56 /* 0000281A */]
00000CC6  4A00                     tst.b      D0
00000CC8  588F                     addq.l     A7, 4
00000CCA  6704                     beq        +0x6 /* 00000CD0 */
00000CCC  70FF                     moveq.l    D0, 0xFFFFFFFF
00000CCE  6008                     bra        +0xA /* 00000CD8 */
label00000CD0:
00000CD0  1B7C 0001 A20F           move.b     [A5 - 0x5DF1], 0x1
label00000CD6:
00000CD6  7000                     moveq.l    D0, 0x00
label00000CD8:
00000CD8  4CDF 18C0                movem.l    D6,D7,A3,A4, [A7]+
00000CDC  4E75                     rts
fn00000CDE:
00000CDE  486D A0B6                pea.l      [A5 - 0x5F4A]
00000CE2  A874                     syscall    GetPort
00000CE4  4AAD A212                tst.l      [A5 - 0x5DEE]
00000CE8  670C                     beq        +0xE /* 00000CF6 */
00000CEA  2F2D A212                move.l     -[A7], [A5 - 0x5DEE]
00000CEE  A873                     syscall    SetPort
00000CF0  486D A21E                pea.l      [A5 - 0x5DE2]
00000CF4  A8A2                     syscall    PaintRect
label00000CF6:
00000CF6  2F2D A0B6                move.l     -[A7], [A5 - 0x5F4A]
00000CFA  A873                     syscall    SetPort
00000CFC  4AAD A22E                tst.l      [A5 - 0x5DD2]
00000D00  6706                     beq        +0x8 /* 00000D08 */
00000D02  2F2D A22E                move.l     -[A7], [A5 - 0x5DD2]
00000D06  AA93                     syscall    DisposePalette
label00000D08:
00000D08  4AAD A212                tst.l      [A5 - 0x5DEE]
00000D0C  6706                     beq        +0x8 /* 00000D14 */
00000D0E  2F2D A212                move.l     -[A7], [A5 - 0x5DEE]
00000D12  A914                     syscall    DisposeWindow
label00000D14:
00000D14  4EBA 18F8                jsr        [PC + 0x18F8 /* 0000260E */]
00000D18  302D A0A2                move.w     D0, [A5 - 0x5F5E]
00000D1C  31C0 0144                move.w     [0x00000144 /* SysEvtMask */], D0
00000D20  2F3C 0000 FFFF           move.l     -[A7], 0xFFFF
00000D26  201F                     move.l     D0, [A7]+
00000D28  A032                     syscall    FlushEvents
00000D2A  4E75                     rts
fn00000D2C:
00000D2C  4E56 FFFC                link       A6, -0x0004
00000D30  302D A1E8                move.w     D0, [A5 - 0x5E18]
00000D34  0C40 000F                cmpi.w     D0, 0xF
00000D38  6200 0146                bhi        +0x148 /* 00000E80 */
00000D3C  43FA 0154                lea.l      A1, [PC + 0x154 /* 00000E92, value 0xFEB6FEDE */]
00000D40  D040                     add.w      D0, D0
00000D42  D2F1 0000                add.w      A1, [A1 + D0.w]
00000D46  4ED1                     jmp        [A1]
00000D48  4A2D 961D                tst.b      [A5 - 0x69E3]
00000D4C  6700 0132                beq        +0x134 /* 00000E80 */
00000D50  4227                     clr.b      -[A7]
00000D52  2F2D A1F2                move.l     -[A7], [A5 - 0x5E0E]
00000D56  486D A1B4                pea.l      [A5 - 0x5E4C]
00000D5A  A8AD                     syscall    PtInRect
00000D5C  4A1F                     tst.b      [A7]+
00000D5E  6708                     beq        +0xA /* 00000D68 */
00000D60  4EBA 190A                jsr        [PC + 0x190A /* 0000266C */]
00000D64  6000 011A                bra        +0x11C /* 00000E80 */
label00000D68:
00000D68  4EBA 1918                jsr        [PC + 0x1918 /* 00002682 */]
00000D6C  6000 0112                bra        +0x114 /* 00000E80 */
00000D70  4267                     clr.w      -[A7]
00000D72  2F2D A1F2                move.l     -[A7], [A5 - 0x5E0E]
00000D76  486E FFFC                pea.l      [A6 - 0x4]
00000D7A  A92C                     syscall    FindWindow
00000D7C  301F                     move.w     D0, [A7]+
00000D7E  0C40 0006                cmpi.w     D0, 0x6
00000D82  6200 00FC                bhi        +0xFE /* 00000E80 */
00000D86  43FA 00FC                lea.l      A1, [PC + 0xFC /* 00000E84, value 0xFFFCFF0E */]
00000D8A  D040                     add.w      D0, D0
00000D8C  D2F1 0000                add.w      A1, [A1 + D0.w]
00000D90  4ED1                     jmp        [A1]
00000D92  4EBA 1EAE                jsr        [PC + 0x1EAE /* 00002C42 */]
00000D96  42A7                     clr.l      -[A7]
00000D98  2F2D A1F2                move.l     -[A7], [A5 - 0x5E0E]
00000D9C  A93D                     syscall    MenuSelect
00000D9E  4EBA 02D6                jsr        [PC + 0x2D6 /* 00001076 */]
00000DA2  4EBA 1ECC                jsr        [PC + 0x1ECC /* 00002C70 */]
00000DA6  588F                     addq.l     A7, 4
00000DA8  6000 00D6                bra        +0xD8 /* 00000E80 */
00000DAC  486D A1E8                pea.l      [A5 - 0x5E18]
00000DB0  2F2E FFFC                move.l     -[A7], [A6 - 0x4]
00000DB4  A9B3                     syscall    SystemClick
00000DB6  6000 00C8                bra        +0xCA /* 00000E80 */
00000DBA  202E FFFC                move.l     D0, [A6 - 0x4]
00000DBE  B0AD A212                cmp.l      D0, [A5 - 0x5DEE]
00000DC2  6600 00BC                bne        +0xBE /* 00000E80 */
00000DC6  4EBA 1846                jsr        [PC + 0x1846 /* 0000260E */]
00000DCA  486D A5C4                pea.l      [A5 - 0x5A3C]
00000DCE  A928                     syscall    InvalRect
00000DD0  2F2D A1F2                move.l     -[A7], [A5 - 0x5E0E]
00000DD4  4EBA 022C                jsr        [PC + 0x22C /* 00001002 */]
00000DD8  588F                     addq.l     A7, 4
00000DDA  6000 00A4                bra        +0xA6 /* 00000E80 */
00000DDE  082D 0000 A1F6           btst.b     [A5 - 0x5E0A], 0x0
00000DE4  6720                     beq        +0x22 /* 00000E06 */
00000DE6  4EBA 1E5A                jsr        [PC + 0x1E5A /* 00002C42 */]
00000DEA  42A7                     clr.l      -[A7]
00000DEC  70FF                     moveq.l    D0, 0xFFFFFFFF
00000DEE  C02D A1ED                and.b      D0, [A5 - 0x5E13]
00000DF2  7200                     moveq.l    D1, 0x00
00000DF4  1200                     move.b     D1, D0
00000DF6  3F01                     move.w     -[A7], D1
00000DF8  A93E                     syscall    MenuKey
00000DFA  4EBA 027A                jsr        [PC + 0x27A /* 00001076 */]
00000DFE  4EBA 1E70                jsr        [PC + 0x1E70 /* 00002C70 */]
00000E02  588F                     addq.l     A7, 4
00000E04  607A                     bra        +0x7C /* 00000E80 */
label00000E06:
00000E06  3F2D A1F6                move.w     -[A7], [A5 - 0x5E0A]
00000E0A  70FF                     moveq.l    D0, 0xFFFFFFFF
00000E0C  C02D A1ED                and.b      D0, [A5 - 0x5E13]
00000E10  1F00                     move.b     -[A7], D0
00000E12  202D A1EA                move.l     D0, [A5 - 0x5E16]
00000E16  0280 0000 FF00           andi.l     D0, 0xFF00
00000E1C  E080                     asr        D0, 8
00000E1E  1F00                     move.b     -[A7], D0
00000E20  4EBA 01E8                jsr        [PC + 0x1E8 /* 0000100A */]
00000E24  5C8F                     addq.l     A7, 6
00000E26  6058                     bra        +0x5A /* 00000E80 */
00000E28  4A2D 961B                tst.b      [A5 - 0x69E5]
00000E2C  6652                     bne        +0x54 /* 00000E80 */
00000E2E  2F2D A1EA                move.l     -[A7], [A5 - 0x5E16]
00000E32  4EBA 01A6                jsr        [PC + 0x1A6 /* 00000FDA */]
00000E36  588F                     addq.l     A7, 4
00000E38  6046                     bra        +0x48 /* 00000E80 */
00000E3A  082D 0000 A1F7           btst.b     [A5 - 0x5E09], 0x0
00000E40  670C                     beq        +0xE /* 00000E4E */
00000E42  2F2D A1EA                move.l     -[A7], [A5 - 0x5E16]
00000E46  4EBA 006A                jsr        [PC + 0x6A /* 00000EB2 */]
00000E4A  588F                     addq.l     A7, 4
00000E4C  6032                     bra        +0x34 /* 00000E80 */
label00000E4E:
00000E4E  2F2D A1EA                move.l     -[A7], [A5 - 0x5E16]
00000E52  4EBA 00AC                jsr        [PC + 0xAC /* 00000F00 */]
00000E56  588F                     addq.l     A7, 4
00000E58  6026                     bra        +0x28 /* 00000E80 */
00000E5A  0C2D 0001 A1EA           cmpi.b     [A5 - 0x5E16], 0x1
00000E60  661E                     bne        +0x20 /* 00000E80 */
00000E62  082D 0000 A1ED           btst.b     [A5 - 0x5E13], 0x0
00000E68  670C                     beq        +0xE /* 00000E76 */
00000E6A  42A7                     clr.l      -[A7]
00000E6C  A924                     syscall    FrontWindow
00000E6E  4EBA 0042                jsr        [PC + 0x42 /* 00000EB2 */]
00000E72  588F                     addq.l     A7, 4
00000E74  600A                     bra        +0xC /* 00000E80 */
label00000E76:
00000E76  42A7                     clr.l      -[A7]
00000E78  A924                     syscall    FrontWindow
00000E7A  4EBA 0084                jsr        [PC + 0x84 /* 00000F00 */]
00000E7E  588F                     addq.l     A7, 4
label00000E80:
00000E80  4E5E                     unlink     A6
00000E82  4E75                     rts
00000E84  FFFC                     .invalid   <<F/7/7>>
00000E86  FF0E                     .extension 0xF0E <<F/4-5/7>> // unimplemented
00000E88  FF28                     .extension 0xF28 <<F/4-5/7>> // unimplemented
00000E8A  FF36                     .extension 0xF36 <<F/4-5/7>> // unimplemented
00000E8C  FFFC                     .invalid   <<F/7/7>>
00000E8E  FFFC                     .invalid   <<F/7/7>>
00000E90  FFFC                     .invalid   <<F/7/7>>
00000E92  FEB6 FEDE                .extension 0xEB6 <<F/2-3/7>> // unimplemented
00000E96  FFEE                     .invalid   <<F/7/7>>
00000E98  FF4C                     .extension 0xF4C <<F/4-5/7>> // unimplemented
00000E9A  FFEE                     .invalid   <<F/7/7>>
00000E9C  FFEE                     .invalid   <<F/7/7>>
00000E9E  FF96                     .invalid   <<F/6/7>>
00000EA0  FFEE                     .invalid   <<F/7/7>>
00000EA2  FFA8                     .invalid   <<F/6/7>>
00000EA4  FFEE                     .invalid   <<F/7/7>>
00000EA6  FFEE                     .invalid   <<F/7/7>>
00000EA8  FFEE                     .invalid   <<F/7/7>>
00000EAA  FFEE                     .invalid   <<F/7/7>>
00000EAC  FFEE                     .invalid   <<F/7/7>>
00000EAE  FFEE                     .invalid   <<F/7/7>>
00000EB0  FFC8                     .invalid   <<F/7/7>>
fn00000EB2:
00000EB2  4E56 0000                link       A6, 0
00000EB6  202E 0008                move.l     D0, [A6 + 0x8]
00000EBA  B0AD A212                cmp.l      D0, [A5 - 0x5DEE]
00000EBE  663C                     bne        +0x3E /* 00000EFC */
00000EC0  2F2D A1D4                move.l     -[A7], [A5 - 0x5E2C]
00000EC4  4267                     clr.w      -[A7]
00000EC6  A939                     syscall    EnableItem
00000EC8  2F2D A1D8                move.l     -[A7], [A5 - 0x5E28]
00000ECC  4267                     clr.w      -[A7]
00000ECE  A93A                     syscall    DisableItem
00000ED0  2F2D A1DC                move.l     -[A7], [A5 - 0x5E24]
00000ED4  4267                     clr.w      -[A7]
00000ED6  A939                     syscall    EnableItem
00000ED8  A937                     syscall    DrawMenuBar
00000EDA  4EBA 16B8                jsr        [PC + 0x16B8 /* 00002594 */]
00000EDE  2F2E 0008                move.l     -[A7], [A6 + 0x8]
00000EE2  A873                     syscall    SetPort
00000EE4  4A2D A209                tst.b      [A5 - 0x5DF7]
00000EE8  6708                     beq        +0xA /* 00000EF2 */
00000EEA  4EBA 0BC6                jsr        [PC + 0xBC6 /* 00001AB2 */]
00000EEE  4EBA 0ACE                jsr        [PC + 0xACE /* 000019BE */]
label00000EF2:
00000EF2  4EBA 1D7C                jsr        [PC + 0x1D7C /* 00002C70 */]
00000EF6  1B7C 0001 961B           move.b     [A5 - 0x69E5], 0x1
label00000EFC:
00000EFC  4E5E                     unlink     A6
00000EFE  4E75                     rts
fn00000F00:
00000F00  4E56 0000                link       A6, 0
00000F04  202E 0008                move.l     D0, [A6 + 0x8]
00000F08  B0AD A212                cmp.l      D0, [A5 - 0x5DEE]
00000F0C  6650                     bne        +0x52 /* 00000F5E */
00000F0E  0C6D 0007 9648           cmpi.w     [A5 - 0x69B8], 0x7
00000F14  6618                     bne        +0x1A /* 00000F2E */
00000F16  0C6D 000F BA64           cmpi.w     [A5 - 0x459C], 0xF
00000F1C  6710                     beq        +0x12 /* 00000F2E */
00000F1E  486D 9684                pea.l      [A5 - 0x697C]
00000F22  4EAD 0542                jsr        [A5 + 0x542 /* export_164, CODE:4 @ 00005B6E */]
00000F26  3B7C 0002 BA86           move.w     [A5 - 0x457A], 0x2
00000F2C  588F                     addq.l     A7, 4
label00000F2E:
00000F2E  4A2D A209                tst.b      [A5 - 0x5DF7]
00000F32  6704                     beq        +0x6 /* 00000F38 */
00000F34  4EBA 0BEC                jsr        [PC + 0xBEC /* 00001B22 */]
label00000F38:
00000F38  4EBA 1D08                jsr        [PC + 0x1D08 /* 00002C42 */]
00000F3C  422D 961B                clr.b      [A5 - 0x69E5]
00000F40  4EBA 16CC                jsr        [PC + 0x16CC /* 0000260E */]
00000F44  2F2D A1D4                move.l     -[A7], [A5 - 0x5E2C]
00000F48  4267                     clr.w      -[A7]
00000F4A  A93A                     syscall    DisableItem
00000F4C  2F2D A1D8                move.l     -[A7], [A5 - 0x5E28]
00000F50  4267                     clr.w      -[A7]
00000F52  A939                     syscall    EnableItem
00000F54  2F2D A1DC                move.l     -[A7], [A5 - 0x5E24]
00000F58  4267                     clr.w      -[A7]
00000F5A  A93A                     syscall    DisableItem
00000F5C  A937                     syscall    DrawMenuBar
label00000F5E:
00000F5E  4E5E                     unlink     A6
00000F60  4E75                     rts
fn00000F62:
00000F62  4E56 0000                link       A6, 0
00000F66  48E7 0718                movem.l    -[A7], D5,D6,D7,A3,A4
00000F6A  266E 0008                movea.l    A3, [A6 + 0x8]
00000F6E  4A2D A209                tst.b      [A5 - 0x5DF7]
00000F72  6746                     beq        +0x48 /* 00000FBA */
00000F74  206D A1C4                movea.l    A0, [A5 - 0x5E3C]
00000F78  2050                     movea.l    A0, [A0]
00000F7A  2E10                     move.l     D7, [A0]
00000F7C  BEAD A1C8                cmp.l      D7, [A5 - 0x5E38]
00000F80  6738                     beq        +0x3A /* 00000FBA */
00000F82  7CFF                     moveq.l    D6, 0xFFFFFFFF
00000F84  206D A1C0                movea.l    A0, [A5 - 0x5E40]
00000F88  2850                     movea.l    A4, [A0]
00000F8A  3A2C 001E                move.w     D5, [A4 + 0x1E]
00000F8E  4A45                     tst.w      D5
00000F90  6706                     beq        +0x8 /* 00000F98 */
00000F92  0C45 0010                cmpi.w     D5, 0x10
00000F96  6608                     bne        +0xA /* 00000FA0 */
label00000F98:
00000F98  3C2C 0024                move.w     D6, [A4 + 0x24]
00000F9C  CDEC 0022                muls.w     D6, [A4 + 0x22]
label00000FA0:
00000FA0  BC6D A1AE                cmp.w      D6, [A5 - 0x5E52]
00000FA4  670C                     beq        +0xE /* 00000FB2 */
00000FA6  4267                     clr.w      -[A7]
00000FA8  3F3C 03EC                move.w     -[A7], 0x3EC
00000FAC  42A7                     clr.l      -[A7]
00000FAE  A985                     syscall    Alert
00000FB0  548F                     addq.l     A7, 2
label00000FB2:
00000FB2  4EBA 0A0A                jsr        [PC + 0xA0A /* 000019BE */]
00000FB6  2B47 A1C8                move.l     [A5 - 0x5E38], D7
label00000FBA:
00000FBA  2F0B                     move.l     -[A7], A3
00000FBC  A922                     syscall    BeginUpdate
00000FBE  B7ED A212                cmpa.l     A3, [A5 - 0x5DEE]
00000FC2  660A                     bne        +0xC /* 00000FCE */
00000FC4  2F2D A22A                move.l     -[A7], [A5 - 0x5DD6]
00000FC8  A8D3                     syscall    PaintRgn
00000FCA  4EBA 0C5A                jsr        [PC + 0xC5A /* 00001C26 */]
label00000FCE:
00000FCE  2F0B                     move.l     -[A7], A3
00000FD0  A923                     syscall    EndUpdate
00000FD2  4CDF 18E0                movem.l    D5,D6,D7,A3,A4, [A7]+
00000FD6  4E5E                     unlink     A6
00000FD8  4E75                     rts
fn00000FDA:
00000FDA  4E56 FFFC                link       A6, -0x0004
00000FDE  2F2E 0008                move.l     -[A7], [A6 + 0x8]
00000FE2  A922                     syscall    BeginUpdate
00000FE4  202E 0008                move.l     D0, [A6 + 0x8]
00000FE8  B0AD A212                cmp.l      D0, [A5 - 0x5DEE]
00000FEC  660A                     bne        +0xC /* 00000FF8 */
00000FEE  2F2D A22A                move.l     -[A7], [A5 - 0x5DD6]
00000FF2  A8D3                     syscall    PaintRgn
00000FF4  4EBA 0C30                jsr        [PC + 0xC30 /* 00001C26 */]
label00000FF8:
00000FF8  2F2E 0008                move.l     -[A7], [A6 + 0x8]
00000FFC  A923                     syscall    EndUpdate
00000FFE  4E5E                     unlink     A6
00001000  4E75                     rts
fn00001002:
00001002  4E56 0000                link       A6, 0
00001006  4E5E                     unlink     A6
00001008  4E75                     rts
fn0000100A:
0000100A  4E56 0000                link       A6, 0
0000100E  102E 000A                move.b     D0, [A6 + 0xA]
00001012  6B5E                     bmi        +0x60 /* 00001072 */
00001014  0400 001B                subi.b     D0, 0x1B
00001018  6720                     beq        +0x22 /* 0000103A */
0000101A  6A0E                     bpl        +0x10 /* 0000102A */
0000101C  0400 00EE                subi.b     D0, 0xEE
00001020  6724                     beq        +0x26 /* 00001046 */
00001022  6A4E                     bpl        +0x50 /* 00001072 */
00001024  5200                     addq.b     D0, 1
00001026  6A3A                     bpl        +0x3C /* 00001062 */
00001028  6048                     bra        +0x4A /* 00001072 */
label0000102A:
0000102A  0400 0045                subi.b     D0, 0x45 /* 'E' */
0000102E  670A                     beq        +0xC /* 0000103A */
00001030  6A40                     bpl        +0x42 /* 00001072 */
00001032  0400 00C0                subi.b     D0, 0xC0
00001036  6708                     beq        +0xA /* 00001040 */
00001038  6038                     bra        +0x3A /* 00001072 */
label0000103A:
0000103A  4EBA 06C6                jsr        [PC + 0x6C6 /* 00001702 */]
0000103E  6032                     bra        +0x34 /* 00001072 */
label00001040:
00001040  4EBA 07CC                jsr        [PC + 0x7CC /* 0000180E */]
00001044  602C                     bra        +0x2E /* 00001072 */
label00001046:
00001046  4EBA 1BFA                jsr        [PC + 0x1BFA /* 00002C42 */]
0000104A  1B7C 0001 9658           move.b     [A5 - 0x69A8], 0x1
00001050  4EBA 0852                jsr        [PC + 0x852 /* 000018A4 */]
00001054  1B7C 0001 962F           move.b     [A5 - 0x69D1], 0x1
0000105A  1B7C 0001 962C           move.b     [A5 - 0x69D4], 0x1
00001060  6010                     bra        +0x12 /* 00001072 */
label00001062:
00001062  4A2D 961D                tst.b      [A5 - 0x69E3]
00001066  6606                     bne        +0x8 /* 0000106E */
00001068  4EBA 152A                jsr        [PC + 0x152A /* 00002594 */]
0000106C  6004                     bra        +0x6 /* 00001072 */
label0000106E:
0000106E  4EBA 159E                jsr        [PC + 0x159E /* 0000260E */]
label00001072:
00001072  4E5E                     unlink     A6
00001074  4E75                     rts
fn00001076:
00001076  4E56 FF00                link       A6, -0x0100
0000107A  2F07                     move.l     -[A7], D7
0000107C  4EBA 1604                jsr        [PC + 0x1604 /* 00002682 */]
00001080  4267                     clr.w      -[A7]
00001082  2F2E 0008                move.l     -[A7], [A6 + 0x8]
00001086  A86B                     syscall    LoWord
00001088  3E1F                     move.w     D7, [A7]+
0000108A  4267                     clr.w      -[A7]
0000108C  2F2E 0008                move.l     -[A7], [A6 + 0x8]
00001090  A86A                     syscall    HiWord
00001092  301F                     move.w     D0, [A7]+
00001094  6B00 00CA                bmi        +0xCC /* 00001160 */
00001098  0440 03EA                subi.w     D0, 0x3EA
0000109C  6778                     beq        +0x7A /* 00001116 */
0000109E  6A0A                     bpl        +0xC /* 000010AA */
000010A0  5440                     addq.w     D0, 2
000010A2  670E                     beq        +0x10 /* 000010B2 */
000010A4  6A38                     bpl        +0x3A /* 000010DE */
000010A6  6000 00B8                bra        +0xBA /* 00001160 */
label000010AA:
000010AA  5540                     subq.w     D0, 2
000010AC  6A00 00B2                bpl        +0xB4 /* 00001160 */
000010B0  6078                     bra        +0x7A /* 0000112A */
label000010B2:
000010B2  3007                     move.w     D0, D7
000010B4  670E                     beq        +0x10 /* 000010C4 */
000010B6  6B0C                     bmi        +0xE /* 000010C4 */
000010B8  5540                     subq.w     D0, 2
000010BA  6A08                     bpl        +0xA /* 000010C4 */
000010BC  4EBA 00D8                jsr        [PC + 0xD8 /* 00001196 */]
000010C0  6000 009E                bra        +0xA0 /* 00001160 */
label000010C4:
000010C4  2F2D A1D0                move.l     -[A7], [A5 - 0x5E30]
000010C8  3F07                     move.w     -[A7], D7
000010CA  486E FF00                pea.l      [A6 - 0x100]
000010CE  A946                     syscall    GetMenuItemText/GetItem
000010D0  4267                     clr.w      -[A7]
000010D2  486E FF00                pea.l      [A6 - 0x100]
000010D6  A9B6                     syscall    OpenDeskAcc
000010D8  548F                     addq.l     A7, 2
000010DA  6000 0084                bra        +0x86 /* 00001160 */
label000010DE:
000010DE  3007                     move.w     D0, D7
000010E0  0C40 0008                cmpi.w     D0, 0x8
000010E4  627A                     bhi        +0x7C /* 00001160 */
000010E6  43FA 009C                lea.l      A1, [PC + 0x9C /* 00001184, value 0xFFDCFF6E */]
000010EA  D040                     add.w      D0, D0
000010EC  D2F1 0000                add.w      A1, [A1 + D0.w]
000010F0  4ED1                     jmp        [A1]
000010F2  4EBA 00F6                jsr        [PC + 0xF6 /* 000011EA */]
000010F6  6068                     bra        +0x6A /* 00001160 */
000010F8  4EBA 0124                jsr        [PC + 0x124 /* 0000121E */]
000010FC  6062                     bra        +0x64 /* 00001160 */
000010FE  4EBA 0148                jsr        [PC + 0x148 /* 00001248 */]
00001102  605C                     bra        +0x5E /* 00001160 */
00001104  4EBA 0184                jsr        [PC + 0x184 /* 0000128A */]
00001108  6056                     bra        +0x58 /* 00001160 */
0000110A  4EBA 01BC                jsr        [PC + 0x1BC /* 000012C8 */]
0000110E  6050                     bra        +0x52 /* 00001160 */
00001110  4EBA 01EE                jsr        [PC + 0x1EE /* 00001300 */]
00001114  604A                     bra        +0x4C /* 00001160 */
label00001116:
00001116  4A2D 961B                tst.b      [A5 - 0x69E5]
0000111A  6644                     bne        +0x46 /* 00001160 */
0000111C  4227                     clr.b      -[A7]
0000111E  70FF                     moveq.l    D0, 0xFFFFFFFF
00001120  D047                     add.w      D0, D7
00001122  3F00                     move.w     -[A7], D0
00001124  A9C2                     syscall    SysEdit
00001126  548F                     addq.l     A7, 2
00001128  6036                     bra        +0x38 /* 00001160 */
label0000112A:
0000112A  3007                     move.w     D0, D7
0000112C  0C40 0007                cmpi.w     D0, 0x7
00001130  622E                     bhi        +0x30 /* 00001160 */
00001132  43FA 0040                lea.l      A1, [PC + 0x40 /* 00001174, value 0xFFECFFCA */]
00001136  D040                     add.w      D0, D0
00001138  D2F1 0000                add.w      A1, [A1 + D0.w]
0000113C  4ED1                     jmp        [A1]
0000113E  4EBA 05C2                jsr        [PC + 0x5C2 /* 00001702 */]
00001142  601C                     bra        +0x1E /* 00001160 */
00001144  4EBA 0618                jsr        [PC + 0x618 /* 0000175E */]
00001148  6016                     bra        +0x18 /* 00001160 */
0000114A  4EBA 065C                jsr        [PC + 0x65C /* 000017A8 */]
0000114E  6010                     bra        +0x12 /* 00001160 */
00001150  4EBA 06A2                jsr        [PC + 0x6A2 /* 000017F4 */]
00001154  600A                     bra        +0xC /* 00001160 */
00001156  4EBA 06B6                jsr        [PC + 0x6B6 /* 0000180E */]
0000115A  6004                     bra        +0x6 /* 00001160 */
0000115C  4EBA 06C8                jsr        [PC + 0x6C8 /* 00001826 */]
label00001160:
00001160  4267                     clr.w      -[A7]
00001162  A938                     syscall    HiliteMenu
00001164  4A2D 961B                tst.b      [A5 - 0x69E5]
00001168  6704                     beq        +0x6 /* 0000116E */
0000116A  4EBA 1428                jsr        [PC + 0x1428 /* 00002594 */]
label0000116E:
0000116E  2E1F                     move.l     D7, [A7]+
00001170  4E5E                     unlink     A6
00001172  4E75                     rts
00001174  FFEC                     .invalid   <<F/7/7>>
00001176  FFCA                     .invalid   <<F/7/7>>
00001178  FFD0                     .invalid   <<F/7/7>>
0000117A  FFD6                     .invalid   <<F/7/7>>
0000117C  FFEC                     .invalid   <<F/7/7>>
0000117E  FFDC                     .invalid   <<F/7/7>>
00001180  FFE2                     .invalid   <<F/7/7>>
00001182  FFE8                     .invalid   <<F/7/7>>
00001184  FFDC                     .invalid   <<F/7/7>>
00001186  FF6E                     .extension 0xF6E <<F/4-5/7>> // unimplemented
00001188  FF74                     .extension 0xF74 <<F/4-5/7>> // unimplemented
0000118A  FFDC                     .invalid   <<F/7/7>>
0000118C  FF7A                     .extension 0xF7A <<F/4-5/7>> // unimplemented
0000118E  FF80                     .invalid   <<F/6/7>>
00001190  FF86                     .invalid   <<F/6/7>>
00001192  FFDC                     .invalid   <<F/7/7>>
00001194  FF8C                     .invalid   <<F/6/7>>
fn00001196:
00001196  4E56 FFFE                link       A6, -0x0002
0000119A  48E7 0018                movem.l    -[A7], A3,A4
0000119E  42A7                     clr.l      -[A7]
000011A0  2F3C 506F C450           move.l     -[A7], 0x506FC450
000011A6  4267                     clr.w      -[A7]
000011A8  A9A0                     syscall    GetResource
000011AA  285F                     movea.l    A4, [A7]+
000011AC  4EBA 14E2                jsr        [PC + 0x14E2 /* 00002690 */]
000011B0  2F14                     move.l     -[A7], [A4]
000011B2  42A7                     clr.l      -[A7]
000011B4  42A7                     clr.l      -[A7]
000011B6  42A7                     clr.l      -[A7]
000011B8  A98B                     syscall    ParamText
000011BA  42A7                     clr.l      -[A7]
000011BC  3F3C 03E8                move.w     -[A7], 0x3E8
000011C0  42A7                     clr.l      -[A7]
000011C2  4878 FFFF                push.l     0xFFFF
000011C6  A97C                     syscall    GetNewDialog
000011C8  265F                     movea.l    A3, [A7]+
000011CA  200B                     move.l     D0, A3
000011CC  670C                     beq        +0xE /* 000011DA */
000011CE  42A7                     clr.l      -[A7]
000011D0  486E FFFE                pea.l      [A6 - 0x2]
000011D4  A991                     syscall    ModalDialog
000011D6  2F0B                     move.l     -[A7], A3
000011D8  A983                     syscall    DisposeDialog
label000011DA:
000011DA  4EBA 14BE                jsr        [PC + 0x14BE /* 0000269A */]
000011DE  2F0C                     move.l     -[A7], A4
000011E0  A9A3                     syscall    ReleaseResource
000011E2  4CDF 1800                movem.l    A3,A4, [A7]+
000011E6  4E5E                     unlink     A6
000011E8  4E75                     rts
fn000011EA:
000011EA  4EBA 02C2                jsr        [PC + 0x2C2 /* 000014AE */]
000011EE  3B7C 0001 BA64           move.w     [A5 - 0x459C], 0x1
000011F4  422D A124                clr.b      [A5 - 0x5EDC]
000011F8  7000                     moveq.l    D0, 0x00
000011FA  4880                     ext.w      D0
000011FC  3B40 A122                move.w     [A5 - 0x5EDE], D0
00001200  3B40 B93E                move.w     [A5 - 0x46C2], D0
00001204  422D 961F                clr.b      [A5 - 0x69E1]
00001208  3B7C 0004 9648           move.w     [A5 - 0x69B8], 0x4
0000120E  3F3C 0003                move.w     -[A7], 0x3
00001212  4EBA 0FDA                jsr        [PC + 0xFDA /* 000021EE */]
00001216  4EBA 052C                jsr        [PC + 0x52C /* 00001744 */]
0000121A  548F                     addq.l     A7, 2
0000121C  4E75                     rts
fn0000121E:
0000121E  4A2D 962D                tst.b      [A5 - 0x69D3]
00001222  6722                     beq        +0x24 /* 00001246 */
00001224  4EBA 0288                jsr        [PC + 0x288 /* 000014AE */]
00001228  422D A124                clr.b      [A5 - 0x5EDC]
0000122C  7000                     moveq.l    D0, 0x00
0000122E  4880                     ext.w      D0
00001230  3B40 A122                move.w     [A5 - 0x5EDE], D0
00001234  3B40 B93E                move.w     [A5 - 0x46C2], D0
00001238  422D 961F                clr.b      [A5 - 0x69E1]
0000123C  3B7C 000A 9648           move.w     [A5 - 0x69B8], 0xA /* '\n' */
00001242  4EBA 0500                jsr        [PC + 0x500 /* 00001744 */]
label00001246:
00001246  4E75                     rts
fn00001248:
00001248  4EBA 0264                jsr        [PC + 0x264 /* 000014AE */]
0000124C  4EBA 00C6                jsr        [PC + 0xC6 /* 00001314 */]
00001250  4A00                     tst.b      D0
00001252  6734                     beq        +0x36 /* 00001288 */
00001254  4EBA 029C                jsr        [PC + 0x29C /* 000014F2 */]
00001258  4A00                     tst.b      D0
0000125A  672C                     beq        +0x2E /* 00001288 */
0000125C  4A6D BA62                tst.w      [A5 - 0x459E]
00001260  6D06                     blt        +0x8 /* 00001268 */
00001262  3B6D BA64 BA62           move.w     [A5 - 0x459E], [A5 - 0x459C]
label00001268:
00001268  1B7C 0001 961F           move.b     [A5 - 0x69E1], 0x1
0000126E  3B7C 0001 B93E           move.w     [A5 - 0x46C2], 0x1
00001274  3B7C 0004 9648           move.w     [A5 - 0x69B8], 0x4
0000127A  3F3C 0003                move.w     -[A7], 0x3
0000127E  4EBA 0F6E                jsr        [PC + 0xF6E /* 000021EE */]
00001282  4EBA 04C0                jsr        [PC + 0x4C0 /* 00001744 */]
00001286  548F                     addq.l     A7, 2
label00001288:
00001288  4E75                     rts
fn0000128A:
0000128A  4A2D 962D                tst.b      [A5 - 0x69D3]
0000128E  6736                     beq        +0x38 /* 000012C6 */
00001290  4A2D 962E                tst.b      [A5 - 0x69D2]
00001294  6730                     beq        +0x32 /* 000012C6 */
00001296  4A6D A122                tst.w      [A5 - 0x5EDE]
0000129A  6608                     bne        +0xA /* 000012A4 */
0000129C  4EBA 00DE                jsr        [PC + 0xDE /* 0000137C */]
000012A0  4A00                     tst.b      D0
000012A2  6722                     beq        +0x24 /* 000012C6 */
label000012A4:
000012A4  4EBA 0346                jsr        [PC + 0x346 /* 000015EC */]
000012A8  4A00                     tst.b      D0
000012AA  671A                     beq        +0x1C /* 000012C6 */
000012AC  1B7C 0001 961F           move.b     [A5 - 0x69E1], 0x1
000012B2  486D 9706                pea.l      [A5 - 0x68FA]
000012B6  4EAD 0542                jsr        [A5 + 0x542 /* export_164, CODE:4 @ 00005B6E */]
000012BA  3B7C 000F BA86           move.w     [A5 - 0x457A], 0xF
000012C0  4EBA 0482                jsr        [PC + 0x482 /* 00001744 */]
000012C4  588F                     addq.l     A7, 4
label000012C6:
000012C6  4E75                     rts
fn000012C8:
000012C8  4A2D 962D                tst.b      [A5 - 0x69D3]
000012CC  6730                     beq        +0x32 /* 000012FE */
000012CE  4A2D 962E                tst.b      [A5 - 0x69D2]
000012D2  672A                     beq        +0x2C /* 000012FE */
000012D4  4EBA 00A6                jsr        [PC + 0xA6 /* 0000137C */]
000012D8  4A00                     tst.b      D0
000012DA  6722                     beq        +0x24 /* 000012FE */
000012DC  4EBA 030E                jsr        [PC + 0x30E /* 000015EC */]
000012E0  4A00                     tst.b      D0
000012E2  671A                     beq        +0x1C /* 000012FE */
000012E4  1B7C 0001 961F           move.b     [A5 - 0x69E1], 0x1
000012EA  486D 9706                pea.l      [A5 - 0x68FA]
000012EE  4EAD 0542                jsr        [A5 + 0x542 /* export_164, CODE:4 @ 00005B6E */]
000012F2  3B7C 000F BA86           move.w     [A5 - 0x457A], 0xF
000012F8  4EBA 044A                jsr        [PC + 0x44A /* 00001744 */]
000012FC  588F                     addq.l     A7, 4
label000012FE:
000012FE  4E75                     rts
fn00001300:
00001300  4EBA 01AC                jsr        [PC + 0x1AC /* 000014AE */]
00001304  4EBA 1740                jsr        [PC + 0x1740 /* 00002A46 */]
00001308  422D 962C                clr.b      [A5 - 0x69D4]
0000130C  1B7C 0001 961E           move.b     [A5 - 0x69E2], 0x1
00001312  4E75                     rts
fn00001314:
00001314  4E56 FFA2                link       A6, -0x005E
00001318  4EBA 1376                jsr        [PC + 0x1376 /* 00002690 */]
0000131C  2D7C 5050 7367 FFF0      move.l     [A6 - 0x10], 0x50507367 /* 'PPsg' */
00001324  3D7C 003C FFEC           move.w     [A6 - 0x14], 0x3C /* '<' */
0000132A  3D7C 0050 FFEE           move.w     [A6 - 0x12], 0x50 /* 'P' */
00001330  2F2E FFEC                move.l     -[A7], [A6 - 0x14]
00001334  486D 9712                pea.l      [A5 - 0x68EE]
00001338  42A7                     clr.l      -[A7]
0000133A  3F3C 0001                move.w     -[A7], 0x1
0000133E  486E FFF0                pea.l      [A6 - 0x10]
00001342  42A7                     clr.l      -[A7]
00001344  486E FFA2                pea.l      [A6 - 0x5E]
00001348  3F3C 0002                move.w     -[A7], 0x2
0000134C  A9EA                     syscall    Pack3
0000134E  4EBA 134A                jsr        [PC + 0x134A /* 0000269A */]
00001352  4A2E FFA2                tst.b      [A6 - 0x5E]
00001356  671E                     beq        +0x20 /* 00001376 */
00001358  3B6E FFA8 A122           move.w     [A5 - 0x5EDE], [A6 - 0x58]
0000135E  41EE FFAC                lea.l      A0, [A6 - 0x54]
00001362  43ED A124                lea.l      A1, [A5 - 0x5EDC]
00001366  7000                     moveq.l    D0, 0x00
00001368  102E FFAC                move.b     D0, [A6 - 0x54]
0000136C  5240                     addq.w     D0, 1
0000136E  48C0                     ext.l      D0
00001370  A02E                     syscall    BlockMove/BlockMoveData
00001372  7001                     moveq.l    D0, 0x01
00001374  6002                     bra        +0x4 /* 00001378 */
label00001376:
00001376  7000                     moveq.l    D0, 0x00
label00001378:
00001378  4E5E                     unlink     A6
0000137A  4E75                     rts
fn0000137C:
0000137C  4E56 FF9C                link       A6, -0x0064
00001380  2F0C                     move.l     -[A7], A4
00001382  4A2D A124                tst.b      [A5 - 0x5EDC]
00001386  6706                     beq        +0x8 /* 0000138E */
00001388  49ED A124                lea.l      A4, [A5 - 0x5EDC]
0000138C  6004                     bra        +0x6 /* 00001392 */
label0000138E:
0000138E  49ED 972C                lea.l      A4, [A5 - 0x68D4]
label00001392:
00001392  4EBA 12FC                jsr        [PC + 0x12FC /* 00002690 */]
00001396  3D7C 003C FFFC           move.w     [A6 - 0x4], 0x3C /* '<' */
0000139C  3D7C 0050 FFFE           move.w     [A6 - 0x2], 0x50 /* 'P' */
000013A2  2F2E FFFC                move.l     -[A7], [A6 - 0x4]
000013A6  486D 971E                pea.l      [A5 - 0x68E2]
000013AA  2F0C                     move.l     -[A7], A4
000013AC  42A7                     clr.l      -[A7]
000013AE  486E FFB2                pea.l      [A6 - 0x4E]
000013B2  3F3C 0001                move.w     -[A7], 0x1
000013B6  A9EA                     syscall    Pack3
000013B8  4EBA 12E0                jsr        [PC + 0x12E0 /* 0000269A */]
000013BC  4A2E FFB2                tst.b      [A6 - 0x4E]
000013C0  6700 00E0                beq        +0xE2 /* 000014A2 */
000013C4  4267                     clr.w      -[A7]
000013C6  486E FFBC                pea.l      [A6 - 0x44]
000013CA  3F2E FFB8                move.w     -[A7], [A6 - 0x48]
000013CE  486E FFA2                pea.l      [A6 - 0x5E]
000013D2  4EBA 2EC6                jsr        [PC + 0x2EC6 /* 0000429A */]
000013D6  3B5F A16C                move.w     [A5 - 0x5E94], [A7]+
000013DA  4A6D A16C                tst.w      [A5 - 0x5E94]
000013DE  661C                     bne        +0x1E /* 000013FC */
000013E0  0CAE 506F C450 FFA6      cmpi.l     [A6 - 0x5A], 0x506FC450
000013E8  6600 00BC                bne        +0xBE /* 000014A6 */
000013EC  0CAE 5050 7367 FFA2      cmpi.l     [A6 - 0x5E], 0x50507367 /* 'PPsg' */
000013F4  6600 00B0                bne        +0xB2 /* 000014A6 */
000013F8  6000 008A                bra        +0x8C /* 00001484 */
label000013FC:
000013FC  0C6D FFD5 A16C           cmpi.w     [A5 - 0x5E94], 0xFFD5
00001402  6600 00A2                bne        +0xA4 /* 000014A6 */
00001406  4267                     clr.w      -[A7]
00001408  486E FFBC                pea.l      [A6 - 0x44]
0000140C  3F2E FFB8                move.w     -[A7], [A6 - 0x48]
00001410  2F3C 506F C450           move.l     -[A7], 0x506FC450
00001416  2F3C 5050 7367           move.l     -[A7], 0x50507367 /* 'PPsg' */
0000141C  4EBA 2EF4                jsr        [PC + 0x2EF4 /* 00004312 */]
00001420  3B5F A16C                move.w     [A5 - 0x5E94], [A7]+
00001424  4A6D A16C                tst.w      [A5 - 0x5E94]
00001428  667C                     bne        +0x7E /* 000014A6 */
0000142A  4267                     clr.w      -[A7]
0000142C  486E FFBC                pea.l      [A6 - 0x44]
00001430  3F2E FFB8                move.w     -[A7], [A6 - 0x48]
00001434  486E FFA0                pea.l      [A6 - 0x60]
00001438  4EBA 2DBE                jsr        [PC + 0x2DBE /* 000041F8 */]
0000143C  3B5F A16C                move.w     [A5 - 0x5E94], [A7]+
00001440  4A6D A16C                tst.w      [A5 - 0x5E94]
00001444  6660                     bne        +0x62 /* 000014A6 */
00001446  7010                     moveq.l    D0, 0x10
00001448  2D40 FF9C                move.l     [A6 - 0x64], D0
0000144C  4267                     clr.w      -[A7]
0000144E  3F2E FFA0                move.w     -[A7], [A6 - 0x60]
00001452  486E FF9C                pea.l      [A6 - 0x64]
00001456  4EBA 2F1C                jsr        [PC + 0x2F1C /* 00004374 */]
0000145A  3B5F A16C                move.w     [A5 - 0x5E94], [A7]+
0000145E  4267                     clr.w      -[A7]
00001460  3F2E FFA0                move.w     -[A7], [A6 - 0x60]
00001464  4EBA 2DD2                jsr        [PC + 0x2DD2 /* 00004238 */]
00001468  4A6D A16C                tst.w      [A5 - 0x5E94]
0000146C  548F                     addq.l     A7, 2
0000146E  6714                     beq        +0x16 /* 00001484 */
00001470  4267                     clr.w      -[A7]
00001472  486E FFBC                pea.l      [A6 - 0x44]
00001476  3F2E FFB8                move.w     -[A7], [A6 - 0x48]
0000147A  4EBA 2ED4                jsr        [PC + 0x2ED4 /* 00004350 */]
0000147E  3B5F A16C                move.w     [A5 - 0x5E94], [A7]+
00001482  6022                     bra        +0x24 /* 000014A6 */
label00001484:
00001484  3B6E FFB8 A122           move.w     [A5 - 0x5EDE], [A6 - 0x48]
0000148A  41EE FFBC                lea.l      A0, [A6 - 0x44]
0000148E  43ED A124                lea.l      A1, [A5 - 0x5EDC]
00001492  7000                     moveq.l    D0, 0x00
00001494  102E FFBC                move.b     D0, [A6 - 0x44]
00001498  5240                     addq.w     D0, 1
0000149A  48C0                     ext.l      D0
0000149C  A02E                     syscall    BlockMove/BlockMoveData
0000149E  7001                     moveq.l    D0, 0x01
000014A0  6006                     bra        +0x8 /* 000014A8 */
label000014A2:
000014A2  7000                     moveq.l    D0, 0x00
000014A4  6002                     bra        +0x4 /* 000014A8 */
label000014A6:
000014A6  7000                     moveq.l    D0, 0x00
label000014A8:
000014A8  285F                     movea.l    A4, [A7]+
000014AA  4E5E                     unlink     A6
000014AC  4E75                     rts
fn000014AE:
000014AE  2F07                     move.l     -[A7], D7
000014B0  7E00                     moveq.l    D7, 0x00
000014B2  4A2D 962D                tst.b      [A5 - 0x69D3]
000014B6  6734                     beq        +0x36 /* 000014EC */
000014B8  4A2D 961F                tst.b      [A5 - 0x69E1]
000014BC  662E                     bne        +0x30 /* 000014EC */
000014BE  0C6D 0001 BA64           cmpi.w     [A5 - 0x459C], 0x1
000014C4  6726                     beq        +0x28 /* 000014EC */
000014C6  0C6D 000F BA64           cmpi.w     [A5 - 0x459C], 0xF
000014CC  671E                     beq        +0x20 /* 000014EC */
000014CE  4EBA 11C0                jsr        [PC + 0x11C0 /* 00002690 */]
000014D2  4267                     clr.w      -[A7]
000014D4  3F3C 03EF                move.w     -[A7], 0x3EF
000014D8  42A7                     clr.l      -[A7]
000014DA  A985                     syscall    Alert
000014DC  0C5F 0001                cmpi.w     [A7]+, 0x1
000014E0  6606                     bne        +0x8 /* 000014E8 */
000014E2  4EBA FDA6                jsr        [PC - 0x25A /* 0000128A */]
000014E6  7E01                     moveq.l    D7, 0x01
label000014E8:
000014E8  4EBA 11B0                jsr        [PC + 0x11B0 /* 0000269A */]
label000014EC:
000014EC  1007                     move.b     D0, D7
000014EE  2E1F                     move.l     D7, [A7]+
000014F0  4E75                     rts
fn000014F2:
000014F2  4E56 FFEA                link       A6, -0x0016
000014F6  2F07                     move.l     -[A7], D7
000014F8  4267                     clr.w      -[A7]
000014FA  486D A124                pea.l      [A5 - 0x5EDC]
000014FE  3F2D A122                move.w     -[A7], [A5 - 0x5EDE]
00001502  486E FFEE                pea.l      [A6 - 0x12]
00001506  4EBA 2CF0                jsr        [PC + 0x2CF0 /* 000041F8 */]
0000150A  3B5F A16C                move.w     [A5 - 0x5E94], [A7]+
0000150E  4A6D A16C                tst.w      [A5 - 0x5E94]
00001512  6600 00C4                bne        +0xC6 /* 000015D8 */
00001516  4267                     clr.w      -[A7]
00001518  3F2E FFEE                move.w     -[A7], [A6 - 0x12]
0000151C  3F3C 0001                move.w     -[A7], 0x1
00001520  42A7                     clr.l      -[A7]
00001522  4EBA 2E76                jsr        [PC + 0x2E76 /* 0000439A */]
00001526  3B5F A16C                move.w     [A5 - 0x5E94], [A7]+
0000152A  4A6D A16C                tst.w      [A5 - 0x5E94]
0000152E  6600 00A8                bne        +0xAA /* 000015D8 */
00001532  7010                     moveq.l    D0, 0x10
00001534  2D40 FFEA                move.l     [A6 - 0x16], D0
00001538  4267                     clr.w      -[A7]
0000153A  3F2E FFEE                move.w     -[A7], [A6 - 0x12]
0000153E  486E FFEA                pea.l      [A6 - 0x16]
00001542  486E FFF0                pea.l      [A6 - 0x10]
00001546  4EBA 2D0A                jsr        [PC + 0x2D0A /* 00004252 */]
0000154A  3B5F A16C                move.w     [A5 - 0x5E94], [A7]+
0000154E  4A6D A16C                tst.w      [A5 - 0x5E94]
00001552  6600 0084                bne        +0x86 /* 000015D8 */
00001556  4267                     clr.w      -[A7]
00001558  3F2E FFEE                move.w     -[A7], [A6 - 0x12]
0000155C  4EBA 2CDA                jsr        [PC + 0x2CDA /* 00004238 */]
00001560  3B5F A16C                move.w     [A5 - 0x5E94], [A7]+
00001564  4A6D A16C                tst.w      [A5 - 0x5E94]
00001568  666E                     bne        +0x70 /* 000015D8 */
0000156A  3E2E FFFE                move.w     D7, [A6 - 0x2]
0000156E  700D                     moveq.l    D0, 0x0D
00001570  C1EE FFFC                muls.w     D0, [A6 - 0x4]
00001574  DE40                     add.w      D7, D0
00001576  7017                     moveq.l    D0, 0x17
00001578  C1EE FFFA                muls.w     D0, [A6 - 0x6]
0000157C  DE40                     add.w      D7, D0
0000157E  303C 00C1                move.w     D0, 0xC1
00001582  C1EE FFF8                muls.w     D0, [A6 - 0x8]
00001586  DE40                     add.w      D7, D0
00001588  7025                     moveq.l    D0, 0x25
0000158A  C1EE FFF6                muls.w     D0, [A6 - 0xA]
0000158E  DE40                     add.w      D7, D0
00001590  7011                     moveq.l    D0, 0x11
00001592  C1EE FFF4                muls.w     D0, [A6 - 0xC]
00001596  DE40                     add.w      D7, D0
00001598  DE6E FFF2                add.w      D7, [A6 - 0xE]
0000159C  700B                     moveq.l    D0, 0x0B
0000159E  C1EE FFF0                muls.w     D0, [A6 - 0x10]
000015A2  DE40                     add.w      D7, D0
000015A4  BE6D 9620                cmp.w      D7, [A5 - 0x69E0]
000015A8  663A                     bne        +0x3C /* 000015E4 */
000015AA  3B6E FFF0 BA8C           move.w     [A5 - 0x4574], [A6 - 0x10]
000015B0  3B6E FFF2 BA80           move.w     [A5 - 0x4580], [A6 - 0xE]
000015B6  3B6E FFF4 BA64           move.w     [A5 - 0x459C], [A6 - 0xC]
000015BC  3B6E FFF6 BA46           move.w     [A5 - 0x45BA], [A6 - 0xA]
000015C2  3B6E FFF8 BA40           move.w     [A5 - 0x45C0], [A6 - 0x8]
000015C8  3B6E FFFA 9634           move.w     [A5 - 0x69CC], [A6 - 0x6]
000015CE  3B6E FFFC 9636           move.w     [A5 - 0x69CA], [A6 - 0x4]
000015D4  7001                     moveq.l    D0, 0x01
000015D6  600E                     bra        +0x10 /* 000015E6 */
label000015D8:
000015D8  4267                     clr.w      -[A7]
000015DA  3F2E FFEE                move.w     -[A7], [A6 - 0x12]
000015DE  4EBA 2C58                jsr        [PC + 0x2C58 /* 00004238 */]
000015E2  548F                     addq.l     A7, 2
label000015E4:
000015E4  7000                     moveq.l    D0, 0x00
label000015E6:
000015E6  2E1F                     move.l     D7, [A7]+
000015E8  4E5E                     unlink     A6
000015EA  4E75                     rts
fn000015EC:
000015EC  4E56 FFEA                link       A6, -0x0016
000015F0  2F07                     move.l     -[A7], D7
000015F2  3D6D BA8C FFF0           move.w     [A6 - 0x10], [A5 - 0x4574]
000015F8  3D6D BA80 FFF2           move.w     [A6 - 0xE], [A5 - 0x4580]
000015FE  3D6D BA64 FFF4           move.w     [A6 - 0xC], [A5 - 0x459C]
00001604  3D6D BA46 FFF6           move.w     [A6 - 0xA], [A5 - 0x45BA]
0000160A  3D6D BA40 FFF8           move.w     [A6 - 0x8], [A5 - 0x45C0]
00001610  3D6D 9634 FFFA           move.w     [A6 - 0x6], [A5 - 0x69CC]
00001616  3D6D 9636 FFFC           move.w     [A6 - 0x4], [A5 - 0x69CA]
0000161C  3E2D 9620                move.w     D7, [A5 - 0x69E0]
00001620  700B                     moveq.l    D0, 0x0B
00001622  C1EE FFF0                muls.w     D0, [A6 - 0x10]
00001626  9E40                     sub.w      D7, D0
00001628  9E6E FFF2                sub.w      D7, [A6 - 0xE]
0000162C  7011                     moveq.l    D0, 0x11
0000162E  C1EE FFF4                muls.w     D0, [A6 - 0xC]
00001632  9E40                     sub.w      D7, D0
00001634  7025                     moveq.l    D0, 0x25
00001636  C1EE FFF6                muls.w     D0, [A6 - 0xA]
0000163A  9E40                     sub.w      D7, D0
0000163C  303C 00C1                move.w     D0, 0xC1
00001640  C1EE FFF8                muls.w     D0, [A6 - 0x8]
00001644  9E40                     sub.w      D7, D0
00001646  7017                     moveq.l    D0, 0x17
00001648  C1EE FFFA                muls.w     D0, [A6 - 0x6]
0000164C  9E40                     sub.w      D7, D0
0000164E  700D                     moveq.l    D0, 0x0D
00001650  C1EE FFFC                muls.w     D0, [A6 - 0x4]
00001654  9E40                     sub.w      D7, D0
00001656  3D47 FFFE                move.w     [A6 - 0x2], D7
0000165A  426E FFEE                clr.w      [A6 - 0x12]
0000165E  4267                     clr.w      -[A7]
00001660  486D A124                pea.l      [A5 - 0x5EDC]
00001664  3F2D A122                move.w     -[A7], [A5 - 0x5EDE]
00001668  486E FFEE                pea.l      [A6 - 0x12]
0000166C  4EBA 2B8A                jsr        [PC + 0x2B8A /* 000041F8 */]
00001670  3B5F A16C                move.w     [A5 - 0x5E94], [A7]+
00001674  4A6D A16C                tst.w      [A5 - 0x5E94]
00001678  666E                     bne        +0x70 /* 000016E8 */
0000167A  4267                     clr.w      -[A7]
0000167C  3F2E FFEE                move.w     -[A7], [A6 - 0x12]
00001680  3F3C 0001                move.w     -[A7], 0x1
00001684  42A7                     clr.l      -[A7]
00001686  4EBA 2D12                jsr        [PC + 0x2D12 /* 0000439A */]
0000168A  3B5F A16C                move.w     [A5 - 0x5E94], [A7]+
0000168E  4A6D A16C                tst.w      [A5 - 0x5E94]
00001692  6654                     bne        +0x56 /* 000016E8 */
00001694  7010                     moveq.l    D0, 0x10
00001696  2D40 FFEA                move.l     [A6 - 0x16], D0
0000169A  4267                     clr.w      -[A7]
0000169C  3F2E FFEE                move.w     -[A7], [A6 - 0x12]
000016A0  486E FFEA                pea.l      [A6 - 0x16]
000016A4  486E FFF0                pea.l      [A6 - 0x10]
000016A8  4EBA 2BAC                jsr        [PC + 0x2BAC /* 00004256 */]
000016AC  3B5F A16C                move.w     [A5 - 0x5E94], [A7]+
000016B0  4A6D A16C                tst.w      [A5 - 0x5E94]
000016B4  6632                     bne        +0x34 /* 000016E8 */
000016B6  4267                     clr.w      -[A7]
000016B8  3F2E FFEE                move.w     -[A7], [A6 - 0x12]
000016BC  4EBA 2B7A                jsr        [PC + 0x2B7A /* 00004238 */]
000016C0  3B5F A16C                move.w     [A5 - 0x5E94], [A7]+
000016C4  4A6D A16C                tst.w      [A5 - 0x5E94]
000016C8  661E                     bne        +0x20 /* 000016E8 */
000016CA  426E FFEE                clr.w      [A6 - 0x12]
000016CE  4267                     clr.w      -[A7]
000016D0  42A7                     clr.l      -[A7]
000016D2  3F2D A122                move.w     -[A7], [A5 - 0x5EDE]
000016D6  4EBA 2C1A                jsr        [PC + 0x2C1A /* 000042F2 */]
000016DA  3B5F A16C                move.w     [A5 - 0x5E94], [A7]+
000016DE  4A6D A16C                tst.w      [A5 - 0x5E94]
000016E2  6604                     bne        +0x6 /* 000016E8 */
000016E4  7001                     moveq.l    D0, 0x01
000016E6  6014                     bra        +0x16 /* 000016FC */
label000016E8:
000016E8  4A6E FFEE                tst.w      [A6 - 0x12]
000016EC  670C                     beq        +0xE /* 000016FA */
000016EE  4267                     clr.w      -[A7]
000016F0  3F2E FFEE                move.w     -[A7], [A6 - 0x12]
000016F4  4EBA 2B42                jsr        [PC + 0x2B42 /* 00004238 */]
000016F8  548F                     addq.l     A7, 2
label000016FA:
000016FA  7000                     moveq.l    D0, 0x00
label000016FC:
000016FC  2E1F                     move.l     D7, [A7]+
000016FE  4E5E                     unlink     A6
00001700  4E75                     rts
fn00001702:
00001702  4A2D 9658                tst.b      [A5 - 0x69A8]
00001706  6710                     beq        +0x12 /* 00001718 */
00001708  4EBA 1566                jsr        [PC + 0x1566 /* 00002C70 */]
0000170C  422D 9658                clr.b      [A5 - 0x69A8]
00001710  1B7C 0001 962C           move.b     [A5 - 0x69D4], 0x1
00001716  6026                     bra        +0x28 /* 0000173E */
label00001718:
00001718  4EBA 1528                jsr        [PC + 0x1528 /* 00002C42 */]
0000171C  0C6D 0007 9648           cmpi.w     [A5 - 0x69B8], 0x7
00001722  6610                     bne        +0x12 /* 00001734 */
00001724  486D 9696                pea.l      [A5 - 0x696A]
00001728  4EAD 0542                jsr        [A5 + 0x542 /* export_164, CODE:4 @ 00005B6E */]
0000172C  3B7C 0002 BA86           move.w     [A5 - 0x457A], 0x2
00001732  588F                     addq.l     A7, 4
label00001734:
00001734  1B7C 0001 9658           move.b     [A5 - 0x69A8], 0x1
0000173A  422D 962C                clr.b      [A5 - 0x69D4]
label0000173E:
0000173E  4EBA 0164                jsr        [PC + 0x164 /* 000018A4 */]
00001742  4E75                     rts
fn00001744:
00001744  4A2D 9658                tst.b      [A5 - 0x69A8]
00001748  6712                     beq        +0x14 /* 0000175C */
0000174A  4EBA 1524                jsr        [PC + 0x1524 /* 00002C70 */]
0000174E  422D 9658                clr.b      [A5 - 0x69A8]
00001752  1B7C 0001 962C           move.b     [A5 - 0x69D4], 0x1
00001758  4EBA 014A                jsr        [PC + 0x14A /* 000018A4 */]
label0000175C:
0000175C  4E75                     rts
fn0000175E:
0000175E  4A2D 9659                tst.b      [A5 - 0x69A7]
00001762  6642                     bne        +0x44 /* 000017A6 */
00001764  4A2D 965A                tst.b      [A5 - 0x69A6]
00001768  6714                     beq        +0x16 /* 0000177E */
0000176A  4A2D 963C                tst.b      [A5 - 0x69C4]
0000176E  6708                     beq        +0xA /* 00001778 */
00001770  4EBA 13AA                jsr        [PC + 0x13AA /* 00002B1C */]
00001774  4EBA 1582                jsr        [PC + 0x1582 /* 00002CF8 */]
label00001778:
00001778  422D 965A                clr.b      [A5 - 0x69A6]
0000177C  6010                     bra        +0x12 /* 0000178E */
label0000177E:
0000177E  4A2D 963C                tst.b      [A5 - 0x69C4]
00001782  6704                     beq        +0x6 /* 00001788 */
00001784  4EBA 1514                jsr        [PC + 0x1514 /* 00002C9A */]
label00001788:
00001788  1B7C 0001 965A           move.b     [A5 - 0x69A6], 0x1
label0000178E:
0000178E  4EBA 0114                jsr        [PC + 0x114 /* 000018A4 */]
00001792  4AAD A550                tst.l      [A5 - 0x5AB0]
00001796  670E                     beq        +0x10 /* 000017A6 */
00001798  206D A550                movea.l    A0, [A5 - 0x5AB0]
0000179C  2050                     movea.l    A0, [A0]
0000179E  10AD 965A                move.b     [A0], [A5 - 0x69A6]
000017A2  4EBA 009A                jsr        [PC + 0x9A /* 0000183E */]
label000017A6:
000017A6  4E75                     rts
fn000017A8:
000017A8  4A2D 965B                tst.b      [A5 - 0x69A5]
000017AC  6644                     bne        +0x46 /* 000017F2 */
000017AE  4A2D 965C                tst.b      [A5 - 0x69A4]
000017B2  6714                     beq        +0x16 /* 000017C8 */
000017B4  4A2D 963C                tst.b      [A5 - 0x69C4]
000017B8  6708                     beq        +0xA /* 000017C2 */
000017BA  4EBA 1360                jsr        [PC + 0x1360 /* 00002B1C */]
000017BE  4EBA 169A                jsr        [PC + 0x169A /* 00002E5A */]
label000017C2:
000017C2  422D 965C                clr.b      [A5 - 0x69A4]
000017C6  6010                     bra        +0x12 /* 000017D8 */
label000017C8:
000017C8  4A2D 963C                tst.b      [A5 - 0x69C4]
000017CC  6704                     beq        +0x6 /* 000017D2 */
000017CE  4EBA 15C4                jsr        [PC + 0x15C4 /* 00002D94 */]
label000017D2:
000017D2  1B7C 0001 965C           move.b     [A5 - 0x69A4], 0x1
label000017D8:
000017D8  4EBA 00CA                jsr        [PC + 0xCA /* 000018A4 */]
000017DC  4AAD A550                tst.l      [A5 - 0x5AB0]
000017E0  6710                     beq        +0x12 /* 000017F2 */
000017E2  206D A550                movea.l    A0, [A5 - 0x5AB0]
000017E6  2050                     movea.l    A0, [A0]
000017E8  116D 965C 0001           move.b     [A0 + 0x1], [A5 - 0x69A4]
000017EE  4EBA 004E                jsr        [PC + 0x4E /* 0000183E */]
label000017F2:
000017F2  4E75                     rts
fn000017F4:
000017F4  4A2D 962D                tst.b      [A5 - 0x69D3]
000017F8  6712                     beq        +0x14 /* 0000180C */
000017FA  4A2D 962E                tst.b      [A5 - 0x69D2]
000017FE  670C                     beq        +0xE /* 0000180C */
00001800  4EAD 053A                jsr        [A5 + 0x53A /* export_163, CODE:4 @ 00005ADC */]
00001804  426D BA42                clr.w      [A5 - 0x45BE]
00001808  4EBA FF3A                jsr        [PC - 0xC6 /* 00001744 */]
label0000180C:
0000180C  4E75                     rts
fn0000180E:
0000180E  4A2D 962D                tst.b      [A5 - 0x69D3]
00001812  6710                     beq        +0x12 /* 00001824 */
00001814  4A2D 962E                tst.b      [A5 - 0x69D2]
00001818  670A                     beq        +0xC /* 00001824 */
0000181A  3B7C 0001 BA42           move.w     [A5 - 0x45BE], 0x1
00001820  4EBA FF22                jsr        [PC - 0xDE /* 00001744 */]
label00001824:
00001824  4E75                     rts
fn00001826:
00001826  4A2D 962D                tst.b      [A5 - 0x69D3]
0000182A  6710                     beq        +0x12 /* 0000183C */
0000182C  4A2D 962E                tst.b      [A5 - 0x69D2]
00001830  670A                     beq        +0xC /* 0000183C */
00001832  3B7C 0005 9648           move.w     [A5 - 0x69B8], 0x5
00001838  4EBA FF0A                jsr        [PC - 0xF6 /* 00001744 */]
label0000183C:
0000183C  4E75                     rts
fn0000183E:
0000183E  4AAD A550                tst.l      [A5 - 0x5AB0]
00001842  671A                     beq        +0x1C /* 0000185E */
00001844  2F2D A550                move.l     -[A7], [A5 - 0x5AB0]
00001848  A9AA                     syscall    ChangedResource
0000184A  4267                     clr.w      -[A7]
0000184C  A9AF                     syscall    ResError
0000184E  3B5F A16C                move.w     [A5 - 0x5E94], [A7]+
00001852  4A6D A16C                tst.w      [A5 - 0x5E94]
00001856  6606                     bne        +0x8 /* 0000185E */
00001858  2F2D A550                move.l     -[A7], [A5 - 0x5AB0]
0000185C  A9B0                     syscall    WriteResource
label0000185E:
0000185E  4E75                     rts
fn00001860:
00001860  4E56 FFFE                link       A6, -0x0002
00001864  2F0C                     move.l     -[A7], A4
00001866  4EBA 0E28                jsr        [PC + 0xE28 /* 00002690 */]
0000186A  486D 9742                pea.l      [A5 - 0x68BE]
0000186E  486D 973E                pea.l      [A5 - 0x68C2]
00001872  486D 973A                pea.l      [A5 - 0x68C6]
00001876  42A7                     clr.l      -[A7]
00001878  A98B                     syscall    ParamText
0000187A  42A7                     clr.l      -[A7]
0000187C  3F3C 03E9                move.w     -[A7], 0x3E9
00001880  42A7                     clr.l      -[A7]
00001882  4878 FFFF                push.l     0xFFFF
00001886  A97C                     syscall    GetNewDialog
00001888  285F                     movea.l    A4, [A7]+
0000188A  200C                     move.l     D0, A4
0000188C  670C                     beq        +0xE /* 0000189A */
0000188E  42A7                     clr.l      -[A7]
00001890  486E FFFE                pea.l      [A6 - 0x2]
00001894  A991                     syscall    ModalDialog
00001896  2F0C                     move.l     -[A7], A4
00001898  A983                     syscall    DisposeDialog
label0000189A:
0000189A  4EBA 0DFE                jsr        [PC + 0xDFE /* 0000269A */]
0000189E  285F                     movea.l    A4, [A7]+
000018A0  4E5E                     unlink     A6
000018A2  4E75                     rts
fn000018A4:
000018A4  2F2D A1D4                move.l     -[A7], [A5 - 0x5E2C]
000018A8  3F3C 0001                move.w     -[A7], 0x1
000018AC  A93A                     syscall    DisableItem
000018AE  2F2D A1D4                move.l     -[A7], [A5 - 0x5E2C]
000018B2  3F3C 0002                move.w     -[A7], 0x2
000018B6  A93A                     syscall    DisableItem
000018B8  2F2D A1D4                move.l     -[A7], [A5 - 0x5E2C]
000018BC  3F3C 0004                move.w     -[A7], 0x4
000018C0  A93A                     syscall    DisableItem
000018C2  2F2D A1D4                move.l     -[A7], [A5 - 0x5E2C]
000018C6  3F3C 0005                move.w     -[A7], 0x5
000018CA  A93A                     syscall    DisableItem
000018CC  2F2D A1D4                move.l     -[A7], [A5 - 0x5E2C]
000018D0  3F3C 0006                move.w     -[A7], 0x6
000018D4  A93A                     syscall    DisableItem
000018D6  2F2D A1DC                move.l     -[A7], [A5 - 0x5E24]
000018DA  4267                     clr.w      -[A7]
000018DC  A93A                     syscall    DisableItem
000018DE  4A2D 9659                tst.b      [A5 - 0x69A7]
000018E2  670A                     beq        +0xC /* 000018EE */
000018E4  2F2D A1DC                move.l     -[A7], [A5 - 0x5E24]
000018E8  3F3C 0002                move.w     -[A7], 0x2
000018EC  A93A                     syscall    DisableItem
label000018EE:
000018EE  4A2D 965B                tst.b      [A5 - 0x69A5]
000018F2  670A                     beq        +0xC /* 000018FE */
000018F4  2F2D A1DC                move.l     -[A7], [A5 - 0x5E24]
000018F8  3F3C 0003                move.w     -[A7], 0x3
000018FC  A93A                     syscall    DisableItem
label000018FE:
000018FE  2F2D A1DC                move.l     -[A7], [A5 - 0x5E24]
00001902  3F3C 0005                move.w     -[A7], 0x5
00001906  A93A                     syscall    DisableItem
00001908  2F2D A1DC                move.l     -[A7], [A5 - 0x5E24]
0000190C  3F3C 0006                move.w     -[A7], 0x6
00001910  A93A                     syscall    DisableItem
00001912  2F2D A1DC                move.l     -[A7], [A5 - 0x5E24]
00001916  3F3C 0007                move.w     -[A7], 0x7
0000191A  A93A                     syscall    DisableItem
0000191C  0C6D 000F BA64           cmpi.w     [A5 - 0x459C], 0xF
00001922  6700 0096                beq        +0x98 /* 000019BA */
00001926  2F2D A1D4                move.l     -[A7], [A5 - 0x5E2C]
0000192A  3F3C 0001                move.w     -[A7], 0x1
0000192E  A939                     syscall    EnableItem
00001930  2F2D A1D4                move.l     -[A7], [A5 - 0x5E2C]
00001934  3F3C 0004                move.w     -[A7], 0x4
00001938  A939                     syscall    EnableItem
0000193A  4A2D 962D                tst.b      [A5 - 0x69D3]
0000193E  6724                     beq        +0x26 /* 00001964 */
00001940  2F2D A1D4                move.l     -[A7], [A5 - 0x5E2C]
00001944  3F3C 0002                move.w     -[A7], 0x2
00001948  A939                     syscall    EnableItem
0000194A  4A2D 962E                tst.b      [A5 - 0x69D2]
0000194E  6714                     beq        +0x16 /* 00001964 */
00001950  2F2D A1D4                move.l     -[A7], [A5 - 0x5E2C]
00001954  3F3C 0005                move.w     -[A7], 0x5
00001958  A939                     syscall    EnableItem
0000195A  2F2D A1D4                move.l     -[A7], [A5 - 0x5E2C]
0000195E  3F3C 0006                move.w     -[A7], 0x6
00001962  A939                     syscall    EnableItem
label00001964:
00001964  2F2D A1DC                move.l     -[A7], [A5 - 0x5E24]
00001968  4267                     clr.w      -[A7]
0000196A  A939                     syscall    EnableItem
0000196C  2F2D A1DC                move.l     -[A7], [A5 - 0x5E24]
00001970  3F3C 0001                move.w     -[A7], 0x1
00001974  1F2D 9658                move.b     -[A7], [A5 - 0x69A8]
00001978  A945                     syscall    CheckItem
0000197A  2F2D A1DC                move.l     -[A7], [A5 - 0x5E24]
0000197E  3F3C 0002                move.w     -[A7], 0x2
00001982  1F2D 965A                move.b     -[A7], [A5 - 0x69A6]
00001986  A945                     syscall    CheckItem
00001988  2F2D A1DC                move.l     -[A7], [A5 - 0x5E24]
0000198C  3F3C 0003                move.w     -[A7], 0x3
00001990  1F2D 965C                move.b     -[A7], [A5 - 0x69A4]
00001994  A945                     syscall    CheckItem
00001996  4A2D 962D                tst.b      [A5 - 0x69D3]
0000199A  671E                     beq        +0x20 /* 000019BA */
0000199C  2F2D A1DC                move.l     -[A7], [A5 - 0x5E24]
000019A0  3F3C 0005                move.w     -[A7], 0x5
000019A4  A939                     syscall    EnableItem
000019A6  2F2D A1DC                move.l     -[A7], [A5 - 0x5E24]
000019AA  3F3C 0006                move.w     -[A7], 0x6
000019AE  A939                     syscall    EnableItem
000019B0  2F2D A1DC                move.l     -[A7], [A5 - 0x5E24]
000019B4  3F3C 0007                move.w     -[A7], 0x7
000019B8  A939                     syscall    EnableItem
label000019BA:
000019BA  A937                     syscall    DrawMenuBar
000019BC  4E75                     rts
fn000019BE:
000019BE  48E7 0318                movem.l    -[A7], D6,D7,A3,A4
000019C2  42A7                     clr.l      -[A7]
000019C4  AA32                     syscall    GetGDevice
000019C6  285F                     movea.l    A4, [A7]+
000019C8  2F2D A1BC                move.l     -[A7], [A5 - 0x5E44]
000019CC  AA31                     syscall    SetGDevice
000019CE  7E00                     moveq.l    D7, 0x00
000019D0  97CB                     sub.l      A3, A3
000019D2  6022                     bra        +0x24 /* 000019F6 */
label000019D4:
000019D4  206D A2F4                movea.l    A0, [A5 - 0x5D0C]
000019D8  2010                     move.l     D0, [A0]
000019DA  3C33 0808                move.w     D6, [A3 + D0 + 0x8]
000019DE  3F06                     move.w     -[A7], D6
000019E0  AA97                     syscall    PmForeColor
000019E2  206D A212                movea.l    A0, [A5 - 0x5DEE]
000019E6  2C28 0050                move.l     D6, [A0 + 0x50]
000019EA  224D                     movea.l    A1, A5
000019EC  D2C7                     add.w      A1, D7
000019EE  1346 A2FA                move.b     [A1 - 0x5D06], D6
000019F2  5247                     addq.w     D7, 1
000019F4  508B                     addq.l     A3, 8
label000019F6:
000019F6  BE6D A2F8                cmp.w      D7, [A5 - 0x5D08]
000019FA  6DD8                     blt        -0x26 /* 000019D4 */
000019FC  3F3C 0001                move.w     -[A7], 0x1
00001A00  AA97                     syscall    PmForeColor
00001A02  206D A1C4                movea.l    A0, [A5 - 0x5E3C]
00001A06  2050                     movea.l    A0, [A0]
00001A08  2B50 A1C8                move.l     [A5 - 0x5E38], [A0]
00001A0C  2F0C                     move.l     -[A7], A4
00001A0E  AA31                     syscall    SetGDevice
00001A10  1B6D A354 A3D0           move.b     [A5 - 0x5C30], [A5 - 0x5CAC]
00001A16  1B6D A355 A3D1           move.b     [A5 - 0x5C2F], [A5 - 0x5CAB]
00001A1C  1B6D A356 A3D2           move.b     [A5 - 0x5C2E], [A5 - 0x5CAA]
00001A22  1B6D A357 A3D3           move.b     [A5 - 0x5C2D], [A5 - 0x5CA9]
00001A28  1B6D A358 A3D4           move.b     [A5 - 0x5C2C], [A5 - 0x5CA8]
00001A2E  1B6D A359 A3D5           move.b     [A5 - 0x5C2B], [A5 - 0x5CA7]
00001A34  1B6D A35A A3D6           move.b     [A5 - 0x5C2A], [A5 - 0x5CA6]
00001A3A  1B6D A35B A3D7           move.b     [A5 - 0x5C29], [A5 - 0x5CA5]
00001A40  1B6D A35C A3D8           move.b     [A5 - 0x5C28], [A5 - 0x5CA4]
00001A46  1B6D A35D A3D9           move.b     [A5 - 0x5C27], [A5 - 0x5CA3]
00001A4C  1B6D A35E A3DA           move.b     [A5 - 0x5C26], [A5 - 0x5CA2]
00001A52  1B6D A35F A3DB           move.b     [A5 - 0x5C25], [A5 - 0x5CA1]
00001A58  1B6D A360 A3DC           move.b     [A5 - 0x5C24], [A5 - 0x5CA0]
00001A5E  1B6D A2FF A3C3           move.b     [A5 - 0x5C3D], [A5 - 0x5D01]
00001A64  1B6D A300 A3C4           move.b     [A5 - 0x5C3C], [A5 - 0x5D00]
00001A6A  1B6D A301 A3C5           move.b     [A5 - 0x5C3B], [A5 - 0x5CFF]
00001A70  1B6D A311 A3C6           move.b     [A5 - 0x5C3A], [A5 - 0x5CEF]
00001A76  1B6D A312 A3C7           move.b     [A5 - 0x5C39], [A5 - 0x5CEE]
00001A7C  1B6D A313 A3C8           move.b     [A5 - 0x5C38], [A5 - 0x5CED]
00001A82  1B6D A30A A3C9           move.b     [A5 - 0x5C37], [A5 - 0x5CF6]
00001A88  1B6D A30B A3CA           move.b     [A5 - 0x5C36], [A5 - 0x5CF5]
00001A8E  1B6D A2FD A3CB           move.b     [A5 - 0x5C35], [A5 - 0x5D03]
00001A94  1B6D A2FE A3CC           move.b     [A5 - 0x5C34], [A5 - 0x5D02]
00001A9A  1B6D A2FF A3CD           move.b     [A5 - 0x5C33], [A5 - 0x5D01]
00001AA0  1B6D A30C A3CE           move.b     [A5 - 0x5C32], [A5 - 0x5CF4]
00001AA6  1B6D A30D A3CF           move.b     [A5 - 0x5C31], [A5 - 0x5CF3]
00001AAC  4CDF 18C0                movem.l    D6,D7,A3,A4, [A7]+
00001AB0  4E75                     rts
fn00001AB2:
00001AB2  2F07                     move.l     -[A7], D7
00001AB4  7E00                     moveq.l    D7, 0x00
00001AB6  600E                     bra        +0x10 /* 00001AC6 */
label00001AB8:
00001AB8  2F2D A22E                move.l     -[A7], [A5 - 0x5DD2]
00001ABC  3F07                     move.w     -[A7], D7
00001ABE  4878 0004                push.l     0x4
00001AC2  AA9E                     syscall    SetEntryUsage
00001AC4  5247                     addq.w     D7, 1
label00001AC6:
00001AC6  BE6D A236                cmp.w      D7, [A5 - 0x5DCA]
00001ACA  6DEC                     blt        -0x12 /* 00001AB8 */
00001ACC  2F2D A22E                move.l     -[A7], [A5 - 0x5DD2]
00001AD0  2F3C 0002 0000           move.l     -[A7], 0x20000
00001AD6  4267                     clr.w      -[A7]
00001AD8  AA9E                     syscall    SetEntryUsage
00001ADA  2F2D A22E                move.l     -[A7], [A5 - 0x5DD2]
00001ADE  2F3C 0002 0001           move.l     -[A7], 0x20001
00001AE4  4267                     clr.w      -[A7]
00001AE6  AA9E                     syscall    SetEntryUsage
00001AE8  2F2D A212                move.l     -[A7], [A5 - 0x5DEE]
00001AEC  AA94                     syscall    ActivatePalette
00001AEE  206D A1BC                movea.l    A0, [A5 - 0x5E44]
00001AF2  2050                     movea.l    A0, [A0]
00001AF4  2068 0016                movea.l    A0, [A0 + 0x16]
00001AF8  2050                     movea.l    A0, [A0]
00001AFA  226D A2CA                movea.l    A1, [A5 - 0x5D36]
00001AFE  2251                     movea.l    A1, [A1]
00001B00  2368 002A 002A           move.l     [A1 + 0x2A], [A0 + 0x2A]
00001B06  206D A1BC                movea.l    A0, [A5 - 0x5E44]
00001B0A  2050                     movea.l    A0, [A0]
00001B0C  2068 0016                movea.l    A0, [A0 + 0x16]
00001B10  2050                     movea.l    A0, [A0]
00001B12  226D A2CA                movea.l    A1, [A5 - 0x5D36]
00001B16  2251                     movea.l    A1, [A1]
00001B18  3368 000E 000E           move.w     [A1 + 0xE], [A0 + 0xE]
00001B1E  2E1F                     move.l     D7, [A7]+
00001B20  4E75                     rts
fn00001B22:
00001B22  2F07                     move.l     -[A7], D7
00001B24  7E00                     moveq.l    D7, 0x00
00001B26  600C                     bra        +0xE /* 00001B34 */
label00001B28:
00001B28  2F2D A22E                move.l     -[A7], [A5 - 0x5DD2]
00001B2C  3F07                     move.w     -[A7], D7
00001B2E  42A7                     clr.l      -[A7]
00001B30  AA9E                     syscall    SetEntryUsage
00001B32  5247                     addq.w     D7, 1
label00001B34:
00001B34  BE6D A236                cmp.w      D7, [A5 - 0x5DCA]
00001B38  6DEE                     blt        -0x10 /* 00001B28 */
00001B3A  2F2D A212                move.l     -[A7], [A5 - 0x5DEE]
00001B3E  AA94                     syscall    ActivatePalette
00001B40  206D A2CA                movea.l    A0, [A5 - 0x5D36]
00001B44  2050                     movea.l    A0, [A0]
00001B46  216D A2F4 002A           move.l     [A0 + 0x2A], [A5 - 0x5D0C]
00001B4C  206D A2CA                movea.l    A0, [A5 - 0x5D36]
00001B50  2050                     movea.l    A0, [A0]
00001B52  4268 000E                clr.w      [A0 + 0xE]
00001B56  2E1F                     move.l     D7, [A7]+
00001B58  4E75                     rts
fn00001B5A:
00001B5A  302D A55C                move.w     D0, [A5 - 0x5AA4]
00001B5E  0C40 000A                cmpi.w     D0, 0xA /* '\n' */
00001B62  6200 00AA                bhi        +0xAC /* 00001C0E */
00001B66  43FA 00A8                lea.l      A1, [PC + 0xA8 /* 00001C10, value 0xFF62FFFE */]
00001B6A  D040                     add.w      D0, D0
00001B6C  D2F1 0000                add.w      A1, [A1 + D0.w]
00001B70  4ED1                     jmp        [A1]
00001B72  4A6D BA1A                tst.w      [A5 - 0x45E6]
00001B76  6700 0096                beq        +0x98 /* 00001C0E */
00001B7A  3F3C 0001                move.w     -[A7], 0x1
00001B7E  3F2D BA18                move.w     -[A7], [A5 - 0x45E8]
00001B82  3F3C 0002                move.w     -[A7], 0x2
00001B86  4EBA 08E2                jsr        [PC + 0x8E2 /* 0000246A */]
00001B8A  3B7C 0001 964A           move.w     [A5 - 0x69B6], 0x1
00001B90  5C8F                     addq.l     A7, 6
00001B92  607A                     bra        +0x7C /* 00001C0E */
00001B94  2F3C 0020 FFF8           move.l     -[A7], 0x20FFF8
00001B9A  4EBA 0824                jsr        [PC + 0x824 /* 000023C0 */]
00001B9E  588F                     addq.l     A7, 4
00001BA0  606C                     bra        +0x6E /* 00001C0E */
00001BA2  2F3C 0008 FFE0           move.l     -[A7], 0x8FFE0
00001BA8  4EBA 0816                jsr        [PC + 0x816 /* 000023C0 */]
00001BAC  588F                     addq.l     A7, 4
00001BAE  605E                     bra        +0x60 /* 00001C0E */
00001BB0  2F3C 0005 FFE0           move.l     -[A7], 0x5FFE0
00001BB6  4EBA 0808                jsr        [PC + 0x808 /* 000023C0 */]
00001BBA  588F                     addq.l     A7, 4
00001BBC  6050                     bra        +0x52 /* 00001C0E */
00001BBE  2F3C 0008 FFE0           move.l     -[A7], 0x8FFE0
00001BC4  4EBA 07FA                jsr        [PC + 0x7FA /* 000023C0 */]
00001BC8  588F                     addq.l     A7, 4
00001BCA  6042                     bra        +0x44 /* 00001C0E */
00001BCC  2F3C 0001 FF00           move.l     -[A7], 0x1FF00
00001BD2  4EBA 07EC                jsr        [PC + 0x7EC /* 000023C0 */]
00001BD6  588F                     addq.l     A7, 4
00001BD8  6034                     bra        +0x36 /* 00001C0E */
00001BDA  2F3C 0008 0000           move.l     -[A7], 0x80000
00001BE0  4EBA 06EE                jsr        [PC + 0x6EE /* 000022D0 */]
00001BE4  588F                     addq.l     A7, 4
00001BE6  6026                     bra        +0x28 /* 00001C0E */
00001BE8  2F3C FFF8 0000           move.l     -[A7], 0xFFF80000
00001BEE  4EBA 06E0                jsr        [PC + 0x6E0 /* 000022D0 */]
00001BF2  588F                     addq.l     A7, 4
00001BF4  6018                     bra        +0x1A /* 00001C0E */
00001BF6  4878 0004                push.l     0x4
00001BFA  4EBA 06D4                jsr        [PC + 0x6D4 /* 000022D0 */]
00001BFE  588F                     addq.l     A7, 4
00001C00  600C                     bra        +0xE /* 00001C0E */
00001C02  2F3C 0000 FFFC           move.l     -[A7], 0xFFFC
00001C08  4EBA 06C6                jsr        [PC + 0x6C6 /* 000022D0 */]
00001C0C  588F                     addq.l     A7, 4
label00001C0E:
00001C0E  4E75                     rts
00001C10  FF62                     .extension 0xF62 <<F/4-5/7>> // unimplemented
00001C12  FFFE                     .invalid   <<F/7/7>>
00001C14  FF84                     .invalid   <<F/6/7>>
00001C16  FF92                     .invalid   <<F/6/7>>
00001C18  FFA0                     .invalid   <<F/6/7>>
00001C1A  FFAE                     .invalid   <<F/6/7>>
00001C1C  FFBC                     .invalid   <<F/6/7>>
00001C1E  FFCA                     .invalid   <<F/7/7>>
00001C20  FFD8                     .invalid   <<F/7/7>>
00001C22  FFE6                     .invalid   <<F/7/7>>
00001C24  FFF2                     .invalid   <<F/7/7>>
fn00001C26:
00001C26  2F07                     move.l     -[A7], D7
00001C28  4A2D A209                tst.b      [A5 - 0x5DF7]
00001C2C  671C                     beq        +0x1E /* 00001C4A */
00001C2E  206D A2CA                movea.l    A0, [A5 - 0x5D36]
00001C32  2F10                     move.l     -[A7], [A0]
00001C34  226D A216                movea.l    A1, [A5 - 0x5DEA]
00001C38  2F11                     move.l     -[A7], [A1]
00001C3A  486D A2DC                pea.l      [A5 - 0x5D24]
00001C3E  486D A5C4                pea.l      [A5 - 0x5A3C]
00001C42  4267                     clr.w      -[A7]
00001C44  42A7                     clr.l      -[A7]
00001C46  A8EC                     syscall    CopyBits
00001C48  6022                     bra        +0x24 /* 00001C6C */
label00001C4A:
00001C4A  4A6D 964A                tst.w      [A5 - 0x69B6]
00001C4E  6604                     bne        +0x6 /* 00001C54 */
00001C50  7E00                     moveq.l    D7, 0x00
00001C52  6002                     bra        +0x4 /* 00001C56 */
label00001C54:
00001C54  7E04                     moveq.l    D7, 0x04
label00001C56:
00001C56  2F2D A2CE                move.l     -[A7], [A5 - 0x5D32]
00001C5A  2F2D A21A                move.l     -[A7], [A5 - 0x5DE6]
00001C5E  486D A2DC                pea.l      [A5 - 0x5D24]
00001C62  486D A5C4                pea.l      [A5 - 0x5A3C]
00001C66  3F07                     move.w     -[A7], D7
00001C68  42A7                     clr.l      -[A7]
00001C6A  A8EC                     syscall    CopyBits
label00001C6C:
00001C6C  2E1F                     move.l     D7, [A7]+
00001C6E  4E75                     rts
fn00001C70:
00001C70  48E7 0308                movem.l    -[A7], D6,D7,A4
00001C74  4A2D A209                tst.b      [A5 - 0x5DF7]
00001C78  672A                     beq        +0x2C /* 00001CA4 */
00001C7A  7E00                     moveq.l    D7, 0x00
00001C7C  49ED F22C                lea.l      A4, [A5 - 0xDD4]
00001C80  601A                     bra        +0x1C /* 00001C9C */
label00001C82:
00001C82  206D A2CA                movea.l    A0, [A5 - 0x5D36]
00001C86  2F10                     move.l     -[A7], [A0]
00001C88  226D A216                movea.l    A1, [A5 - 0x5DEA]
00001C8C  2F11                     move.l     -[A7], [A1]
00001C8E  2F0C                     move.l     -[A7], A4
00001C90  2F0C                     move.l     -[A7], A4
00001C92  4267                     clr.w      -[A7]
00001C94  42A7                     clr.l      -[A7]
00001C96  A8EC                     syscall    CopyBits
00001C98  5247                     addq.w     D7, 1
00001C9A  508C                     addq.l     A4, 8
label00001C9C:
00001C9C  BE6D F22A                cmp.w      D7, [A5 - 0xDD6]
00001CA0  6DE0                     blt        -0x1E /* 00001C82 */
00001CA2  6030                     bra        +0x32 /* 00001CD4 */
label00001CA4:
00001CA4  4A6D 964A                tst.w      [A5 - 0x69B6]
00001CA8  6604                     bne        +0x6 /* 00001CAE */
00001CAA  7C00                     moveq.l    D6, 0x00
00001CAC  6002                     bra        +0x4 /* 00001CB0 */
label00001CAE:
00001CAE  7C04                     moveq.l    D6, 0x04
label00001CB0:
00001CB0  7E00                     moveq.l    D7, 0x00
00001CB2  49ED F22C                lea.l      A4, [A5 - 0xDD4]
00001CB6  6016                     bra        +0x18 /* 00001CCE */
label00001CB8:
00001CB8  2F2D A2CE                move.l     -[A7], [A5 - 0x5D32]
00001CBC  2F2D A21A                move.l     -[A7], [A5 - 0x5DE6]
00001CC0  2F0C                     move.l     -[A7], A4
00001CC2  2F0C                     move.l     -[A7], A4
00001CC4  3F06                     move.w     -[A7], D6
00001CC6  42A7                     clr.l      -[A7]
00001CC8  A8EC                     syscall    CopyBits
00001CCA  5247                     addq.w     D7, 1
00001CCC  508C                     addq.l     A4, 8
label00001CCE:
00001CCE  BE6D F22A                cmp.w      D7, [A5 - 0xDD6]
00001CD2  6DE4                     blt        -0x1A /* 00001CB8 */
label00001CD4:
00001CD4  426D F22A                clr.w      [A5 - 0xDD6]
00001CD8  4CDF 10C0                movem.l    D6,D7,A4, [A7]+
00001CDC  4E75                     rts
fn00001CDE:
00001CDE  302D A55C                move.w     D0, [A5 - 0x5AA4]
00001CE2  0C40 0006                cmpi.w     D0, 0x6
00001CE6  6200 0080                bhi        +0x82 /* 00001D68 */
00001CEA  43FA 0082                lea.l      A1, [PC + 0x82 /* 00001D6E, value 0xFF88FFA8 */]
00001CEE  D040                     add.w      D0, D0
00001CF0  D2F1 0000                add.w      A1, [A1 + D0.w]
00001CF4  4ED1                     jmp        [A1]
00001CF6  4A6D BA1A                tst.w      [A5 - 0x45E6]
00001CFA  676C                     beq        +0x6E /* 00001D68 */
00001CFC  536D BA1A                subq.w     [A5 - 0x45E6], 1
00001D00  2F3C 0002 0000           move.l     -[A7], 0x20000
00001D06  3F3C 0002                move.w     -[A7], 0x2
00001D0A  4EBA 075E                jsr        [PC + 0x75E /* 0000246A */]
00001D0E  426D 964A                clr.w      [A5 - 0x69B6]
00001D12  5C8F                     addq.l     A7, 6
00001D14  6052                     bra        +0x54 /* 00001D68 */
00001D16  2F3C 0001 0100           move.l     -[A7], 0x10100
00001D1C  4EBA 06A2                jsr        [PC + 0x6A2 /* 000023C0 */]
00001D20  588F                     addq.l     A7, 4
00001D22  6044                     bra        +0x46 /* 00001D68 */
00001D24  2F3C 0020 0008           move.l     -[A7], 0x200008
00001D2A  4EBA 0694                jsr        [PC + 0x694 /* 000023C0 */]
00001D2E  588F                     addq.l     A7, 4
00001D30  6036                     bra        +0x38 /* 00001D68 */
00001D32  2F3C 0008 0020           move.l     -[A7], 0x80020
00001D38  4EBA 0686                jsr        [PC + 0x686 /* 000023C0 */]
00001D3C  588F                     addq.l     A7, 4
00001D3E  6028                     bra        +0x2A /* 00001D68 */
00001D40  2F3C 0005 0020           move.l     -[A7], 0x50020
00001D46  4EBA 0678                jsr        [PC + 0x678 /* 000023C0 */]
00001D4A  588F                     addq.l     A7, 4
00001D4C  601A                     bra        +0x1C /* 00001D68 */
00001D4E  2F3C 0001 0100           move.l     -[A7], 0x10100
00001D54  4EBA 066A                jsr        [PC + 0x66A /* 000023C0 */]
00001D58  588F                     addq.l     A7, 4
00001D5A  600C                     bra        +0xE /* 00001D68 */
00001D5C  2F3C 0008 0020           move.l     -[A7], 0x80020
00001D62  4EBA 065C                jsr        [PC + 0x65C /* 000023C0 */]
00001D66  588F                     addq.l     A7, 4
label00001D68:
00001D68  426D A55C                clr.w      [A5 - 0x5AA4]
00001D6C  4E75                     rts
00001D6E  FF88                     .invalid   <<F/6/7>>
00001D70  FFA8                     .invalid   <<F/6/7>>
00001D72  FFB6                     .invalid   <<F/6/7>>
00001D74  FFC4                     .invalid   <<F/7/7>>
00001D76  FFD2                     .invalid   <<F/7/7>>
00001D78  FFE0                     .invalid   <<F/7/7>>
00001D7A  FFEE                     .invalid   <<F/7/7>>
fn00001D7C:
00001D7C  2F07                     move.l     -[A7], D7
00001D7E  1B7C 0001 962C           move.b     [A5 - 0x69D4], 0x1
00001D84  422D 962D                clr.b      [A5 - 0x69D3]
00001D88  422D 962E                clr.b      [A5 - 0x69D2]
00001D8C  426D A5BA                clr.w      [A5 - 0x5A46]
00001D90  3B7C 0001 A5BC           move.w     [A5 - 0x5A44], 0x1
00001D96  422D 9658                clr.b      [A5 - 0x69A8]
00001D9A  42A7                     clr.l      -[A7]
00001D9C  A975                     syscall    TickCount
00001D9E  2E1F                     move.l     D7, [A7]+
00001DA0  0247 0FFF                andi.w     D7, 0xFFF
00001DA4  0647 00C8                addi.w     D7, 0xC8
00001DA8  600A                     bra        +0xC /* 00001DB4 */
label00001DAA:
00001DAA  3F3C 0001                move.w     -[A7], 0x1
00001DAE  4EBA 048A                jsr        [PC + 0x48A /* 0000223A */]
00001DB2  548F                     addq.l     A7, 2
label00001DB4:
00001DB4  3007                     move.w     D0, D7
00001DB6  5347                     subq.w     D7, 1
00001DB8  4A40                     tst.w      D0
00001DBA  66EE                     bne        -0x10 /* 00001DAA */
00001DBC  4EAD 03B2                jsr        [A5 + 0x3B2 /* export_114, CODE:3 @ 00000000 */]
00001DC0  4EAD 03BA                jsr        [A5 + 0x3BA /* export_115, CODE:3 @ 00000050 */]
00001DC4  4A6D A122                tst.w      [A5 - 0x5EDE]
00001DC8  6722                     beq        +0x24 /* 00001DEC */
00001DCA  4EBA F726                jsr        [PC - 0x8DA /* 000014F2 */]
00001DCE  4A00                     tst.b      D0
00001DD0  6726                     beq        +0x28 /* 00001DF8 */
00001DD2  3B6D BA64 BA62           move.w     [A5 - 0x459E], [A5 - 0x459C]
00001DD8  3B7C 0001 B93E           move.w     [A5 - 0x46C2], 0x1
00001DDE  1B7C 0001 961F           move.b     [A5 - 0x69E1], 0x1
00001DE4  3B7C 0004 9648           move.w     [A5 - 0x69B8], 0x4
00001DEA  600C                     bra        +0xE /* 00001DF8 */
label00001DEC:
00001DEC  3B7C 0002 BA62           move.w     [A5 - 0x459E], 0x2
00001DF2  3B7C 0001 9648           move.w     [A5 - 0x69B8], 0x1
label00001DF8:
00001DF8  2E1F                     move.l     D7, [A7]+
00001DFA  4E75                     rts
fn00001DFC:
00001DFC  422D 961F                clr.b      [A5 - 0x69E1]
00001E00  422D 962D                clr.b      [A5 - 0x69D3]
00001E04  422D 962E                clr.b      [A5 - 0x69D2]
00001E08  4EBA FA9A                jsr        [PC - 0x566 /* 000018A4 */]
00001E0C  426D BA64                clr.w      [A5 - 0x459C]
00001E10  426D 9632                clr.w      [A5 - 0x69CE]
00001E14  426D B93E                clr.w      [A5 - 0x46C2]
00001E18  426D A566                clr.w      [A5 - 0x5A9A]
00001E1C  426D A568                clr.w      [A5 - 0x5A98]
00001E20  422D A56A                clr.b      [A5 - 0x5A96]
00001E24  42AD A56C                clr.l      [A5 - 0x5A94]
00001E28  3B7C 0002 9648           move.w     [A5 - 0x69B8], 0x2
00001E2E  4E75                     rts
fn00001E30:
00001E30  4A6D A568                tst.w      [A5 - 0x5A98]
00001E34  663C                     bne        +0x3E /* 00001E72 */
00001E36  4A2D A56A                tst.b      [A5 - 0x5A96]
00001E3A  670C                     beq        +0xE /* 00001E48 */
00001E3C  4EBA 0D0E                jsr        [PC + 0xD0E /* 00002B4C */]
00001E40  4A00                     tst.b      D0
00001E42  6604                     bne        +0x6 /* 00001E48 */
00001E44  422D A56A                clr.b      [A5 - 0x5A96]
label00001E48:
00001E48  4AAD A56C                tst.l      [A5 - 0x5A94]
00001E4C  6F12                     ble        +0x14 /* 00001E60 */
00001E4E  2F2D A56C                move.l     -[A7], [A5 - 0x5A94]
00001E52  4EBA 0D76                jsr        [PC + 0xD76 /* 00002BCA */]
00001E56  4A00                     tst.b      D0
00001E58  588F                     addq.l     A7, 4
00001E5A  6704                     beq        +0x6 /* 00001E60 */
00001E5C  42AD A56C                clr.l      [A5 - 0x5A94]
label00001E60:
00001E60  4A2D A56A                tst.b      [A5 - 0x5A96]
00001E64  6610                     bne        +0x12 /* 00001E76 */
00001E66  4AAD A56C                tst.l      [A5 - 0x5A94]
00001E6A  660A                     bne        +0xC /* 00001E76 */
00001E6C  4EAD 03D2                jsr        [A5 + 0x3D2 /* export_118, CODE:3 @ 00000BEE */]
00001E70  6004                     bra        +0x6 /* 00001E76 */
label00001E72:
00001E72  536D A568                subq.w     [A5 - 0x5A98], 1
label00001E76:
00001E76  7005                     moveq.l    D0, 0x05
00001E78  2B40 964C                move.l     [A5 - 0x69B4], D0
00001E7C  4A6D A566                tst.w      [A5 - 0x5A9A]
00001E80  6610                     bne        +0x12 /* 00001E92 */
00001E82  3F3C 0005                move.w     -[A7], 0x5
00001E86  4EBA 0366                jsr        [PC + 0x366 /* 000021EE */]
00001E8A  3B7C 0004 9648           move.w     [A5 - 0x69B8], 0x4
00001E90  548F                     addq.l     A7, 2
label00001E92:
00001E92  4E75                     rts
fn00001E94:
00001E94  4A6D A572                tst.w      [A5 - 0x5A8E]
00001E98  663E                     bne        +0x40 /* 00001ED8 */
00001E9A  4A2D A56A                tst.b      [A5 - 0x5A96]
00001E9E  670C                     beq        +0xE /* 00001EAC */
00001EA0  4EBA 0CAA                jsr        [PC + 0xCAA /* 00002B4C */]
00001EA4  4A00                     tst.b      D0
00001EA6  6604                     bne        +0x6 /* 00001EAC */
00001EA8  422D A56A                clr.b      [A5 - 0x5A96]
label00001EAC:
00001EAC  4AAD A56C                tst.l      [A5 - 0x5A94]
00001EB0  6F12                     ble        +0x14 /* 00001EC4 */
00001EB2  2F2D A56C                move.l     -[A7], [A5 - 0x5A94]
00001EB6  4EBA 0D12                jsr        [PC + 0xD12 /* 00002BCA */]
00001EBA  4A00                     tst.b      D0
00001EBC  588F                     addq.l     A7, 4
00001EBE  6704                     beq        +0x6 /* 00001EC4 */
00001EC0  42AD A56C                clr.l      [A5 - 0x5A94]
label00001EC4:
00001EC4  4A2D A56A                tst.b      [A5 - 0x5A96]
00001EC8  6612                     bne        +0x14 /* 00001EDC */
00001ECA  4AAD A56C                tst.l      [A5 - 0x5A94]
00001ECE  660C                     bne        +0xE /* 00001EDC */
00001ED0  206D A574                movea.l    A0, [A5 - 0x5A8C]
00001ED4  4E90                     jsr        [A0]
00001ED6  6004                     bra        +0x6 /* 00001EDC */
label00001ED8:
00001ED8  536D A572                subq.w     [A5 - 0x5A8E], 1
label00001EDC:
00001EDC  7005                     moveq.l    D0, 0x05
00001EDE  2B40 964C                move.l     [A5 - 0x69B4], D0
00001EE2  4EAD 0202                jsr        [A5 + 0x202 /* export_60, CODE:3 @ 00001C66 */]
00001EE6  4A2D 962D                tst.b      [A5 - 0x69D3]
00001EEA  670A                     beq        +0xC /* 00001EF6 */
00001EEC  4A2D A5BE                tst.b      [A5 - 0x5A42]
00001EF0  6704                     beq        +0x6 /* 00001EF6 */
00001EF2  426D A570                clr.w      [A5 - 0x5A90]
label00001EF6:
00001EF6  4A6D A570                tst.w      [A5 - 0x5A90]
00001EFA  6610                     bne        +0x12 /* 00001F0C */
00001EFC  3F3C 0005                move.w     -[A7], 0x5
00001F00  4EBA 02EC                jsr        [PC + 0x2EC /* 000021EE */]
00001F04  3B6D A578 9648           move.w     [A5 - 0x69B8], [A5 - 0x5A88]
00001F0A  548F                     addq.l     A7, 2
label00001F0C:
00001F0C  4E75                     rts
fn00001F0E:
00001F0E  3F3C 0007                move.w     -[A7], 0x7
00001F12  4EBA 02DA                jsr        [PC + 0x2DA /* 000021EE */]
00001F16  426D A566                clr.w      [A5 - 0x5A9A]
00001F1A  426D A568                clr.w      [A5 - 0x5A98]
00001F1E  7005                     moveq.l    D0, 0x05
00001F20  2B40 964C                move.l     [A5 - 0x69B4], D0
00001F24  3EAD BA64                move.w     [A7], [A5 - 0x459C]
00001F28  4EAD 01CA                jsr        [A5 + 0x1CA /* export_53, CODE:3 @ 000010CA */]
00001F2C  4A6D BA64                tst.w      [A5 - 0x459C]
00001F30  548F                     addq.l     A7, 2
00001F32  6F06                     ble        +0x8 /* 00001F3A */
00001F34  1B7C 0001 962D           move.b     [A5 - 0x69D3], 0x1
label00001F3A:
00001F3A  4EBA F968                jsr        [PC - 0x698 /* 000018A4 */]
00001F3E  426D 9630                clr.w      [A5 - 0x69D0]
00001F42  3B7C 0005 9648           move.w     [A5 - 0x69B8], 0x5
00001F48  4E75                     rts
fn00001F4A:
00001F4A  422D 962E                clr.b      [A5 - 0x69D2]
00001F4E  3F3C 000B                move.w     -[A7], 0xB
00001F52  4EBA 029A                jsr        [PC + 0x29A /* 000021EE */]
00001F56  3EBC 000D                move.w     [A7], 0xD /* '\r' */
00001F5A  4EBA 02DE                jsr        [PC + 0x2DE /* 0000223A */]
00001F5E  3B40 B942                move.w     [A5 - 0x46BE], D0
00001F62  322D BA64                move.w     D1, [A5 - 0x459C]
00001F66  B26D BA62                cmp.w      D1, [A5 - 0x459E]
00001F6A  548F                     addq.l     A7, 2
00001F6C  660A                     bne        +0xC /* 00001F78 */
00001F6E  3B7C 000F BA64           move.w     [A5 - 0x459C], 0xF
00001F74  4EAD 01FA                jsr        [A5 + 0x1FA /* export_59, CODE:3 @ 00001A92 */]
label00001F78:
00001F78  3F2D BA64                move.w     -[A7], [A5 - 0x459C]
00001F7C  4EAD 01D2                jsr        [A5 + 0x1D2 /* export_54, CODE:3 @ 0000112C */]
00001F80  4A6D BA64                tst.w      [A5 - 0x459C]
00001F84  548F                     addq.l     A7, 2
00001F86  6608                     bne        +0xA /* 00001F90 */
00001F88  3B7C 0006 9648           move.w     [A5 - 0x69B8], 0x6
00001F8E  601C                     bra        +0x1E /* 00001FAC */
label00001F90:
00001F90  0C6D 000F BA64           cmpi.w     [A5 - 0x459C], 0xF
00001F96  670E                     beq        +0x10 /* 00001FA6 */
00001F98  1B7C 0001 962E           move.b     [A5 - 0x69D2], 0x1
00001F9E  3B7C 0007 9648           move.w     [A5 - 0x69B8], 0x7
00001FA4  6006                     bra        +0x8 /* 00001FAC */
label00001FA6:
00001FA6  3B7C 0008 9648           move.w     [A5 - 0x69B8], 0x8
label00001FAC:
00001FAC  4EBA F8F6                jsr        [PC - 0x70A /* 000018A4 */]
00001FB0  4EBA 0A66                jsr        [PC + 0xA66 /* 00002A18 */]
00001FB4  4E75                     rts
fn00001FB6:
00001FB6  2F07                     move.l     -[A7], D7
00001FB8  4EAD 01DA                jsr        [A5 + 0x1DA /* export_55, CODE:3 @ 00001456 */]
00001FBC  3E00                     move.w     D7, D0
00001FBE  4A47                     tst.w      D7
00001FC0  6710                     beq        +0x12 /* 00001FD2 */
00001FC2  3F3C 000F                move.w     -[A7], 0xF
00001FC6  4EBA 0226                jsr        [PC + 0x226 /* 000021EE */]
00001FCA  3B7C 000B 9648           move.w     [A5 - 0x69B8], 0xB
00001FD0  548F                     addq.l     A7, 2
label00001FD2:
00001FD2  2E1F                     move.l     D7, [A7]+
00001FD4  4E75                     rts
fn00001FD6:
00001FD6  2F07                     move.l     -[A7], D7
00001FD8  4EAD 01DA                jsr        [A5 + 0x1DA /* export_55, CODE:3 @ 00001456 */]
00001FDC  3E00                     move.w     D7, D0
00001FDE  4A47                     tst.w      D7
00001FE0  6734                     beq        +0x36 /* 00002016 */
00001FE2  3F3C 0009                move.w     -[A7], 0x9 /* '\t' */
00001FE6  4EBA 0206                jsr        [PC + 0x206 /* 000021EE */]
00001FEA  3007                     move.w     D0, D7
00001FEC  548F                     addq.l     A7, 2
00001FEE  6726                     beq        +0x28 /* 00002016 */
00001FF0  6B24                     bmi        +0x26 /* 00002016 */
00001FF2  5740                     subq.w     D0, 3
00001FF4  6716                     beq        +0x18 /* 0000200C */
00001FF6  6A1E                     bpl        +0x20 /* 00002016 */
00001FF8  5240                     addq.w     D0, 1
00001FFA  6A08                     bpl        +0xA /* 00002004 */
00001FFC  3B7C 0005 9648           move.w     [A5 - 0x69B8], 0x5
00002002  6012                     bra        +0x14 /* 00002016 */
label00002004:
00002004  3B7C 0009 9648           move.w     [A5 - 0x69B8], 0x9 /* '\t' */
0000200A  600A                     bra        +0xC /* 00002016 */
label0000200C:
0000200C  4EBA FDEE                jsr        [PC - 0x212 /* 00001DFC */]
00002010  3B7C 000A 9648           move.w     [A5 - 0x69B8], 0xA /* '\n' */
label00002016:
00002016  2E1F                     move.l     D7, [A7]+
00002018  4E75                     rts
fn0000201A:
0000201A  2F07                     move.l     -[A7], D7
0000201C  4EAD 01DA                jsr        [A5 + 0x1DA /* export_55, CODE:3 @ 00001456 */]
00002020  3E00                     move.w     D7, D0
00002022  4A47                     tst.w      D7
00002024  6724                     beq        +0x26 /* 0000204A */
00002026  3F3C 0009                move.w     -[A7], 0x9 /* '\t' */
0000202A  4EBA 01C2                jsr        [PC + 0x1C2 /* 000021EE */]
0000202E  0C47 0002                cmpi.w     D7, 0x2
00002032  548F                     addq.l     A7, 2
00002034  6608                     bne        +0xA /* 0000203E */
00002036  3B7C 0009 9648           move.w     [A5 - 0x69B8], 0x9 /* '\t' */
0000203C  6024                     bra        +0x26 /* 00002062 */
label0000203E:
0000203E  4EBA FDBC                jsr        [PC - 0x244 /* 00001DFC */]
00002042  3B7C 000A 9648           move.w     [A5 - 0x69B8], 0xA /* '\n' */
00002048  6018                     bra        +0x1A /* 00002062 */
label0000204A:
0000204A  0C6D 0001 BA3A           cmpi.w     [A5 - 0x45C6], 0x1
00002050  6610                     bne        +0x12 /* 00002062 */
00002052  4EBA 0AF8                jsr        [PC + 0xAF8 /* 00002B4C */]
00002056  4A00                     tst.b      D0
00002058  6608                     bne        +0xA /* 00002062 */
0000205A  4EBA F804                jsr        [PC - 0x7FC /* 00001860 */]
0000205E  526D BA3A                addq.w     [A5 - 0x45C6], 1
label00002062:
00002062  2E1F                     move.l     D7, [A7]+
00002064  4E75                     rts
fn00002066:
00002066  422D 962E                clr.b      [A5 - 0x69D2]
0000206A  0C6D 000F BA64           cmpi.w     [A5 - 0x459C], 0xF
00002070  6704                     beq        +0x6 /* 00002076 */
00002072  422D 961F                clr.b      [A5 - 0x69E1]
label00002076:
00002076  3F3C 0005                move.w     -[A7], 0x5
0000207A  4EBA 0172                jsr        [PC + 0x172 /* 000021EE */]
0000207E  0C6D 000F BA64           cmpi.w     [A5 - 0x459C], 0xF
00002084  548F                     addq.l     A7, 2
00002086  660C                     bne        +0xE /* 00002094 */
00002088  3B6D BA62 BA38           move.w     [A5 - 0x45C8], [A5 - 0x459E]
0000208E  3B7C FFFF BA62           move.w     [A5 - 0x459E], 0xFFFF
label00002094:
00002094  3B6D BA38 BA64           move.w     [A5 - 0x459C], [A5 - 0x45C8]
0000209A  302D BA38                move.w     D0, [A5 - 0x45C8]
0000209E  B06D BA62                cmp.w      D0, [A5 - 0x459E]
000020A2  6606                     bne        +0x8 /* 000020AA */
000020A4  3B7C 000F BA38           move.w     [A5 - 0x45C8], 0xF
label000020AA:
000020AA  4EBA F7F8                jsr        [PC - 0x808 /* 000018A4 */]
000020AE  3B7C 0005 9648           move.w     [A5 - 0x69B8], 0x5
000020B4  302D BA38                move.w     D0, [A5 - 0x45C8]
000020B8  0C40 000C                cmpi.w     D0, 0xC
000020BC  6200 0082                bhi        +0x84 /* 00002140 */
000020C0  43FA 0080                lea.l      A1, [PC + 0x80 /* 00002142, value 0xFFFEFFFE */]
000020C4  D040                     add.w      D0, D0
000020C6  D2F1 0000                add.w      A1, [A1 + D0.w]
000020CA  4ED1                     jmp        [A1]
000020CC  486D 023A                pea.l      [A5 + 0x23A /* export_67, CODE:3 @ 0000226C */]
000020D0  4267                     clr.w      -[A7]
000020D2  4EAD 025A                jsr        [A5 + 0x25A /* export_71, CODE:3 @ 000027A6 */]
000020D6  5C8F                     addq.l     A7, 6
000020D8  6066                     bra        +0x68 /* 00002140 */
000020DA  486D 0232                pea.l      [A5 + 0x232 /* export_66, CODE:3 @ 00002210 */]
000020DE  3F3C 0001                move.w     -[A7], 0x1
000020E2  4EAD 025A                jsr        [A5 + 0x25A /* export_71, CODE:3 @ 000027A6 */]
000020E6  5C8F                     addq.l     A7, 6
000020E8  6056                     bra        +0x58 /* 00002140 */
000020EA  486D 023A                pea.l      [A5 + 0x23A /* export_67, CODE:3 @ 0000226C */]
000020EE  3F3C 0001                move.w     -[A7], 0x1
000020F2  4EAD 025A                jsr        [A5 + 0x25A /* export_71, CODE:3 @ 000027A6 */]
000020F6  5C8F                     addq.l     A7, 6
000020F8  6046                     bra        +0x48 /* 00002140 */
000020FA  486D 020A                pea.l      [A5 + 0x20A /* export_61, CODE:3 @ 00001F38 */]
000020FE  3F3C 0001                move.w     -[A7], 0x1
00002102  4EAD 025A                jsr        [A5 + 0x25A /* export_71, CODE:3 @ 000027A6 */]
00002106  5C8F                     addq.l     A7, 6
00002108  6036                     bra        +0x38 /* 00002140 */
0000210A  486D 0212                pea.l      [A5 + 0x212 /* export_62, CODE:3 @ 00001FCE */]
0000210E  3F3C 0001                move.w     -[A7], 0x1
00002112  4EAD 025A                jsr        [A5 + 0x25A /* export_71, CODE:3 @ 000027A6 */]
00002116  5C8F                     addq.l     A7, 6
00002118  6026                     bra        +0x28 /* 00002140 */
0000211A  0C6D 0005 BA8C           cmpi.w     [A5 - 0x4574], 0x5
00002120  6E10                     bgt        +0x12 /* 00002132 */
00002122  486D 022A                pea.l      [A5 + 0x22A /* export_65, CODE:3 @ 000021A0 */]
00002126  3F3C 0001                move.w     -[A7], 0x1
0000212A  4EAD 025A                jsr        [A5 + 0x25A /* export_71, CODE:3 @ 000027A6 */]
0000212E  5C8F                     addq.l     A7, 6
00002130  600E                     bra        +0x10 /* 00002140 */
label00002132:
00002132  486D 023A                pea.l      [A5 + 0x23A /* export_67, CODE:3 @ 0000226C */]
00002136  3F3C 0001                move.w     -[A7], 0x1
0000213A  4EAD 025A                jsr        [A5 + 0x25A /* export_71, CODE:3 @ 000027A6 */]
0000213E  5C8F                     addq.l     A7, 6
label00002140:
00002140  4E75                     rts
00002142  FFFE                     .invalid   <<F/7/7>>
00002144  FFFE                     .invalid   <<F/7/7>>
00002146  FF8A                     .invalid   <<F/6/7>>
00002148  FFFE                     .invalid   <<F/7/7>>
0000214A  FF98                     .invalid   <<F/6/7>>
0000214C  FFFE                     .invalid   <<F/7/7>>
0000214E  FFA8                     .invalid   <<F/6/7>>
00002150  FFFE                     .invalid   <<F/7/7>>
00002152  FFB8                     .invalid   <<F/6/7>>
00002154  FFC8                     .invalid   <<F/7/7>>
00002156  FFFE                     .invalid   <<F/7/7>>
00002158  FFFE                     .invalid   <<F/7/7>>
0000215A  FFD8                     .invalid   <<F/7/7>>
fn0000215C:
0000215C  422D 962E                clr.b      [A5 - 0x69D2]
00002160  4A6D A568                tst.w      [A5 - 0x5A98]
00002164  6650                     bne        +0x52 /* 000021B6 */
00002166  4A2D A56A                tst.b      [A5 - 0x5A96]
0000216A  670C                     beq        +0xE /* 00002178 */
0000216C  4EBA 09DE                jsr        [PC + 0x9DE /* 00002B4C */]
00002170  4A00                     tst.b      D0
00002172  6604                     bne        +0x6 /* 00002178 */
00002174  422D A56A                clr.b      [A5 - 0x5A96]
label00002178:
00002178  4AAD A56C                tst.l      [A5 - 0x5A94]
0000217C  6F12                     ble        +0x14 /* 00002190 */
0000217E  2F2D A56C                move.l     -[A7], [A5 - 0x5A94]
00002182  4EBA 0A46                jsr        [PC + 0xA46 /* 00002BCA */]
00002186  4A00                     tst.b      D0
00002188  588F                     addq.l     A7, 4
0000218A  6704                     beq        +0x6 /* 00002190 */
0000218C  42AD A56C                clr.l      [A5 - 0x5A94]
label00002190:
00002190  4A2D A56A                tst.b      [A5 - 0x5A96]
00002194  6624                     bne        +0x26 /* 000021BA */
00002196  4AAD A56C                tst.l      [A5 - 0x5A94]
0000219A  661E                     bne        +0x20 /* 000021BA */
0000219C  302D 9630                move.w     D0, [A5 - 0x69D0]
000021A0  6718                     beq        +0x1A /* 000021BA */
000021A2  6B16                     bmi        +0x18 /* 000021BA */
000021A4  5540                     subq.w     D0, 2
000021A6  6708                     beq        +0xA /* 000021B0 */
000021A8  6A10                     bpl        +0x12 /* 000021BA */
000021AA  4EAD 024A                jsr        [A5 + 0x24A /* export_69, CODE:3 @ 000025F4 */]
000021AE  600A                     bra        +0xC /* 000021BA */
label000021B0:
000021B0  4EAD 0252                jsr        [A5 + 0x252 /* export_70, CODE:3 @ 0000275E */]
000021B4  6004                     bra        +0x6 /* 000021BA */
label000021B6:
000021B6  536D A568                subq.w     [A5 - 0x5A98], 1
label000021BA:
000021BA  7005                     moveq.l    D0, 0x05
000021BC  2B40 964C                move.l     [A5 - 0x69B4], D0
000021C0  4A6D A566                tst.w      [A5 - 0x5A9A]
000021C4  6614                     bne        +0x16 /* 000021DA */
000021C6  3F3C 000F                move.w     -[A7], 0xF
000021CA  4EBA 0022                jsr        [PC + 0x22 /* 000021EE */]
000021CE  4EAD 03BA                jsr        [A5 + 0x3BA /* export_115, CODE:3 @ 00000050 */]
000021D2  3B7C 000B 9648           move.w     [A5 - 0x69B8], 0xB
000021D8  548F                     addq.l     A7, 2
label000021DA:
000021DA  4E75                     rts
fn000021DC:
000021DC  3F3C 0007                move.w     -[A7], 0x7
000021E0  4EBA 000C                jsr        [PC + 0xC /* 000021EE */]
000021E4  3B7C 0001 9648           move.w     [A5 - 0x69B8], 0x1
000021EA  548F                     addq.l     A7, 2
000021EC  4E75                     rts
fn000021EE:
000021EE  4E56 0000                link       A6, 0
000021F2  2F07                     move.l     -[A7], D7
000021F4  3E2E 0008                move.w     D7, [A6 + 0x8]
000021F8  0807 0003                btst.b     D7, 0x3
000021FC  6704                     beq        +0x6 /* 00002202 */
000021FE  4EBA 0846                jsr        [PC + 0x846 /* 00002A46 */]
label00002202:
00002202  0807 0002                btst.b     D7, 0x2
00002206  6704                     beq        +0x6 /* 0000220C */
00002208  4EAD 03DA                jsr        [A5 + 0x3DA /* export_119, CODE:3 @ 00000F4E */]
label0000220C:
0000220C  0807 0001                btst.b     D7, 0x1
00002210  6706                     beq        +0x8 /* 00002218 */
00002212  486D A5C4                pea.l      [A5 - 0x5A3C]
00002216  A8A2                     syscall    PaintRect
label00002218:
00002218  0807 0000                btst.b     D7, 0x0
0000221C  6716                     beq        +0x18 /* 00002234 */
0000221E  1F3C 0001                move.b     -[A7], 0x1
00002222  486D A5C4                pea.l      [A5 - 0x5A3C]
00002226  206D A3E2                movea.l    A0, [A5 - 0x5C1E]
0000222A  4E90                     jsr        [A0]
0000222C  486D A5C4                pea.l      [A5 - 0x5A3C]
00002230  A928                     syscall    InvalRect
00002232  5C8F                     addq.l     A7, 6
label00002234:
00002234  2E1F                     move.l     D7, [A7]+
00002236  4E5E                     unlink     A6
00002238  4E75                     rts
export_10:
fn0000223A:
0000223A  4E56 0000                link       A6, 0
0000223E  202D 9622                move.l     D0, [A5 - 0x69DE]
00002242  2200                     move.l     D1, D0
00002244  0A40 569A                xori.w     D0, 0x569A
00002248  4841                     swap.w     D1
0000224A  D041                     add.w      D0, D1
0000224C  C0FC 6A59                mulu.w     D0, 0x6A59 /* 'jY' */
00002250  2B40 9622                move.l     [A5 - 0x69DE], D0
00002254  4841                     swap.w     D1
00002256  D041                     add.w      D0, D1
00002258  322E 0008                move.w     D1, [A6 + 0x8]
0000225C  5241                     addq.w     D1, 1
0000225E  C0C1                     mulu.w     D0, D1
00002260  4240                     clr.w      D0
00002262  4840                     swap.w     D0
00002264  4E5E                     unlink     A6
00002266  4E75                     rts
export_11:
00002268  4E56 0000                link       A6, 0
0000226C  2F07                     move.l     -[A7], D7
0000226E  3E2E 0008                move.w     D7, [A6 + 0x8]
00002272  48C7                     ext.l      D7
00002274  8FFC 0064                divs.w     D7, 0x64 /* 'd' */
00002278  4847                     swap.w     D7
0000227A  48C7                     ext.l      D7
0000227C  8FFC 000A                divs.w     D7, 0xA /* '\n' */
00002280  4A47                     tst.w      D7
00002282  6604                     bne        +0x6 /* 00002288 */
00002284  7020                     moveq.l    D0, 0x20
00002286  6004                     bra        +0x6 /* 0000228C */
label00002288:
00002288  7030                     moveq.l    D0, 0x30
0000228A  D007                     add.b      D0, D7
label0000228C:
0000228C  2E1F                     move.l     D7, [A7]+
0000228E  4E5E                     unlink     A6
00002290  4E75                     rts
export_12:
00002292  4E56 0000                link       A6, 0
00002296  2F07                     move.l     -[A7], D7
00002298  3E2E 0008                move.w     D7, [A6 + 0x8]
0000229C  48C7                     ext.l      D7
0000229E  8FFC 0064                divs.w     D7, 0x64 /* 'd' */
000022A2  4847                     swap.w     D7
000022A4  48C7                     ext.l      D7
000022A6  8FFC 000A                divs.w     D7, 0xA /* '\n' */
000022AA  7030                     moveq.l    D0, 0x30
000022AC  D007                     add.b      D0, D7
000022AE  2E1F                     move.l     D7, [A7]+
000022B0  4E5E                     unlink     A6
000022B2  4E75                     rts
export_13:
000022B4  4E56 0000                link       A6, 0
000022B8  2F07                     move.l     -[A7], D7
000022BA  3E2E 0008                move.w     D7, [A6 + 0x8]
000022BE  48C7                     ext.l      D7
000022C0  8FFC 000A                divs.w     D7, 0xA /* '\n' */
000022C4  4847                     swap.w     D7
000022C6  7030                     moveq.l    D0, 0x30
000022C8  D007                     add.b      D0, D7
000022CA  2E1F                     move.l     D7, [A7]+
000022CC  4E5E                     unlink     A6
000022CE  4E75                     rts
fn000022D0:
000022D0  4E56 FFF8                link       A6, -0x0008
000022D4  48E7 0F00                movem.l    -[A7], D4,D5,D6,D7
000022D8  3E2E 0008                move.w     D7, [A6 + 0x8]
000022DC  3A2E 000A                move.w     D5, [A6 + 0xA]
000022E0  4A2D A20C                tst.b      [A5 - 0x5DF4]
000022E4  6700 00D2                beq        +0xD4 /* 000023B8 */
000022E8  2D6D A5C4 FFF8           move.l     [A6 - 0x8], [A5 - 0x5A3C]
000022EE  2D6D A5C8 FFFC           move.l     [A6 - 0x4], [A5 - 0x5A38]
000022F4  4A47                     tst.w      D7
000022F6  6F18                     ble        +0x1A /* 00002310 */
000022F8  3C2E FFFE                move.w     D6, [A6 - 0x2]
000022FC  9C6E FFFA                sub.w      D6, [A6 - 0x6]
00002300  48C6                     ext.l      D6
00002302  8DC7                     divs.w     D6, D7
00002304  302E FFFA                move.w     D0, [A6 - 0x6]
00002308  D047                     add.w      D0, D7
0000230A  3D40 FFFE                move.w     [A6 - 0x2], D0
0000230E  601A                     bra        +0x1C /* 0000232A */
label00002310:
00002310  4A47                     tst.w      D7
00002312  6C16                     bge        +0x18 /* 0000232A */
00002314  3C2E FFFA                move.w     D6, [A6 - 0x6]
00002318  9C6E FFFE                sub.w      D6, [A6 - 0x2]
0000231C  48C6                     ext.l      D6
0000231E  8DC7                     divs.w     D6, D7
00002320  302E FFFE                move.w     D0, [A6 - 0x2]
00002324  D047                     add.w      D0, D7
00002326  3D40 FFFA                move.w     [A6 - 0x6], D0
label0000232A:
0000232A  4A45                     tst.w      D5
0000232C  6F18                     ble        +0x1A /* 00002346 */
0000232E  3C2E FFFC                move.w     D6, [A6 - 0x4]
00002332  9C6E FFF8                sub.w      D6, [A6 - 0x8]
00002336  48C6                     ext.l      D6
00002338  8DC5                     divs.w     D6, D5
0000233A  302E FFF8                move.w     D0, [A6 - 0x8]
0000233E  D045                     add.w      D0, D5
00002340  3D40 FFFC                move.w     [A6 - 0x4], D0
00002344  606E                     bra        +0x70 /* 000023B4 */
label00002346:
00002346  4A45                     tst.w      D5
00002348  6C6A                     bge        +0x6C /* 000023B4 */
0000234A  3C2E FFF8                move.w     D6, [A6 - 0x8]
0000234E  9C6E FFFC                sub.w      D6, [A6 - 0x4]
00002352  48C6                     ext.l      D6
00002354  8DC5                     divs.w     D6, D5
00002356  302E FFFC                move.w     D0, [A6 - 0x4]
0000235A  D045                     add.w      D0, D5
0000235C  3D40 FFF8                move.w     [A6 - 0x8], D0
00002360  6052                     bra        +0x54 /* 000023B4 */
label00002362:
00002362  42A7                     clr.l      -[A7]
00002364  A975                     syscall    TickCount
00002366  281F                     move.l     D4, [A7]+
00002368  4A2D A209                tst.b      [A5 - 0x5DF7]
0000236C  671C                     beq        +0x1E /* 0000238A */
0000236E  206D A2CA                movea.l    A0, [A5 - 0x5D36]
00002372  2F10                     move.l     -[A7], [A0]
00002374  226D A216                movea.l    A1, [A5 - 0x5DEA]
00002378  2F11                     move.l     -[A7], [A1]
0000237A  486E FFF8                pea.l      [A6 - 0x8]
0000237E  486E FFF8                pea.l      [A6 - 0x8]
00002382  4267                     clr.w      -[A7]
00002384  42A7                     clr.l      -[A7]
00002386  A8EC                     syscall    CopyBits
00002388  6016                     bra        +0x18 /* 000023A0 */
label0000238A:
0000238A  2F2D A2CE                move.l     -[A7], [A5 - 0x5D32]
0000238E  2F2D A21A                move.l     -[A7], [A5 - 0x5DE6]
00002392  486E FFF8                pea.l      [A6 - 0x8]
00002396  486E FFF8                pea.l      [A6 - 0x8]
0000239A  4267                     clr.w      -[A7]
0000239C  42A7                     clr.l      -[A7]
0000239E  A8EC                     syscall    CopyBits
label000023A0:
000023A0  42A7                     clr.l      -[A7]
000023A2  A975                     syscall    TickCount
000023A4  B89F                     cmp.l      D4, [A7]+
000023A6  67F8                     beq        -0x6 /* 000023A0 */
000023A8  486E FFF8                pea.l      [A6 - 0x8]
000023AC  3F07                     move.w     -[A7], D7
000023AE  3F05                     move.w     -[A7], D5
000023B0  A8A8                     syscall    OffsetRect
000023B2  5346                     subq.w     D6, 1
label000023B4:
000023B4  4A46                     tst.w      D6
000023B6  66AA                     bne        -0x54 /* 00002362 */
label000023B8:
000023B8  4CDF 00F0                movem.l    D4,D5,D6,D7, [A7]+
000023BC  4E5E                     unlink     A6
000023BE  4E75                     rts
export_14:
fn000023C0:
000023C0  4E56 0000                link       A6, 0
000023C4  48E7 0108                movem.l    -[A7], D7,A4
000023C8  4A2D A20D                tst.b      [A5 - 0x5DF3]
000023CC  6754                     beq        +0x56 /* 00002422 */
000023CE  42A7                     clr.l      -[A7]
000023D0  2F2D A232                move.l     -[A7], [A5 - 0x5DCE]
000023D4  4EBA 1DC4                jsr        [PC + 0x1DC4 /* 0000419A */]
000023D8  201F                     move.l     D0, [A7]+
000023DA  A122                     syscall    NewHandle, flags=1
000023DC  2848                     movea.l    A4, A0
000023DE  200C                     move.l     D0, A4
000023E0  6740                     beq        +0x42 /* 00002422 */
000023E2  6034                     bra        +0x36 /* 00002418 */
label000023E4:
000023E4  302E 000A                move.w     D0, [A6 + 0xA]
000023E8  D16D 9654                add.w      [A5 - 0x69AC], D0
000023EC  42A7                     clr.l      -[A7]
000023EE  A975                     syscall    TickCount
000023F0  2E1F                     move.l     D7, [A7]+
000023F2  3F2D 9654                move.w     -[A7], [A5 - 0x69AC]
000023F6  2F0C                     move.l     -[A7], A4
000023F8  4EBA 0030                jsr        [PC + 0x30 /* 0000242A */]
000023FC  5C8F                     addq.l     A7, 6
label000023FE:
000023FE  42A7                     clr.l      -[A7]
00002400  A975                     syscall    TickCount
00002402  BE9F                     cmp.l      D7, [A7]+
00002404  67F8                     beq        -0x6 /* 000023FE */
00002406  2F2D A212                move.l     -[A7], [A5 - 0x5DEE]
0000240A  2F0C                     move.l     -[A7], A4
0000240C  42A7                     clr.l      -[A7]
0000240E  3F2D A236                move.w     -[A7], [A5 - 0x5DCA]
00002412  AA9A                     syscall    AnimatePalette
00002414  536E 0008                subq.w     [A6 + 0x8], 1
label00002418:
00002418  4A6E 0008                tst.w      [A6 + 0x8]
0000241C  66C6                     bne        -0x38 /* 000023E4 */
0000241E  2F0C                     move.l     -[A7], A4
00002420  AA24                     syscall    DisposeCTable/DisposCTable
label00002422:
00002422  4CDF 1080                movem.l    D7,A4, [A7]+
00002426  4E5E                     unlink     A6
00002428  4E75                     rts
fn0000242A:
0000242A  4E56 0000                link       A6, 0
0000242E  226D A232                movea.l    A1, [A5 - 0x5DCE]
00002432  2251                     movea.l    A1, [A1]
00002434  322D A236                move.w     D1, [A5 - 0x5DCA]
00002438  206E 0008                movea.l    A0, [A6 + 0x8]
0000243C  2050                     movea.l    A0, [A0]
0000243E  342E 000C                move.w     D2, [A6 + 0xC]
00002442  20D9                     move.l     [A0]+, [A1]+
00002444  20D9                     move.l     [A0]+, [A1]+
00002446  601A                     bra        +0x1C /* 00002462 */
label00002448:
00002448  30D9                     move.w     [A0]+, [A1]+
0000244A  3019                     move.w     D0, [A1]+
0000244C  C0C2                     mulu.w     D0, D2
0000244E  E088                     lsr        D0, 8
00002450  30C0                     move.w     [A0]+, D0
00002452  3019                     move.w     D0, [A1]+
00002454  C0C2                     mulu.w     D0, D2
00002456  E088                     lsr        D0, 8
00002458  30C0                     move.w     [A0]+, D0
0000245A  3019                     move.w     D0, [A1]+
0000245C  C0C2                     mulu.w     D0, D2
0000245E  E088                     lsr        D0, 8
00002460  30C0                     move.w     [A0]+, D0
label00002462:
00002462  51C9 FFE4                dbf        D1, -0x1E /* 00002448 */
00002466  4E5E                     unlink     A6
00002468  4E75                     rts
fn0000246A:
0000246A  4E56 0000                link       A6, 0
0000246E  2F07                     move.l     -[A7], D7
00002470  42A7                     clr.l      -[A7]
00002472  A975                     syscall    TickCount
00002474  2E1F                     move.l     D7, [A7]+
00002476  4A2D A20D                tst.b      [A5 - 0x5DF3]
0000247A  671E                     beq        +0x20 /* 0000249A */
0000247C  2F2D A212                move.l     -[A7], [A5 - 0x5DEE]
00002480  3F2E 0008                move.w     -[A7], [A6 + 0x8]
00002484  206D A2F4                movea.l    A0, [A5 - 0x5D0C]
00002488  302E 000A                move.w     D0, [A6 + 0xA]
0000248C  48C0                     ext.l      D0
0000248E  E788                     lsl        D0, 3
00002490  2050                     movea.l    A0, [A0]
00002492  4870 080A                pea.l      [A0 + D0 + 0xA]
00002496  AA99                     syscall    AnimateEntry
00002498  601A                     bra        +0x1C /* 000024B4 */
label0000249A:
0000249A  486D A5C4                pea.l      [A5 - 0x5A3C]
0000249E  A8A4                     syscall    InvertRect
000024A0  6012                     bra        +0x14 /* 000024B4 */
label000024A2:
000024A2  42A7                     clr.l      -[A7]
000024A4  A975                     syscall    TickCount
000024A6  BE9F                     cmp.l      D7, [A7]+
000024A8  67F8                     beq        -0x6 /* 000024A2 */
000024AA  42A7                     clr.l      -[A7]
000024AC  A975                     syscall    TickCount
000024AE  2E1F                     move.l     D7, [A7]+
000024B0  536E 000C                subq.w     [A6 + 0xC], 1
label000024B4:
000024B4  4A6E 000C                tst.w      [A6 + 0xC]
000024B8  66E8                     bne        -0x16 /* 000024A2 */
000024BA  2E1F                     move.l     D7, [A7]+
000024BC  4E5E                     unlink     A6
000024BE  4E75                     rts
export_15:
000024C0  4E56 0000                link       A6, 0
000024C4  48E7 0708                movem.l    -[A7], D5,D6,D7,A4
000024C8  3E2E 0008                move.w     D7, [A6 + 0x8]
000024CC  3A2E 000A                move.w     D5, [A6 + 0xA]
000024D0  4A2D A20E                tst.b      [A5 - 0x5DF2]
000024D4  6758                     beq        +0x5A /* 0000252E */
000024D6  0C47 0007                cmpi.w     D7, 0x7
000024DA  6C52                     bge        +0x54 /* 0000252E */
000024DC  7C00                     moveq.l    D6, 0x00
000024DE  99CC                     sub.l      A4, A4
000024E0  602E                     bra        +0x30 /* 00002510 */
label000024E2:
000024E2  204D                     movea.l    A0, A5
000024E4  2007                     move.l     D0, D7
000024E6  48C0                     ext.l      D0
000024E8  E588                     lsl        D0, 2
000024EA  D1C0                     add.l      A0, D0
000024EC  2068 A238                movea.l    A0, [A0 - 0x5DC8]
000024F0  2010                     move.l     D0, [A0]
000024F2  206D A232                movea.l    A0, [A5 - 0x5DCE]
000024F6  2206                     move.l     D1, D6
000024F8  48C1                     ext.l      D1
000024FA  E789                     lsl        D1, 3
000024FC  D290                     add.l      D1, [A0]
000024FE  2241                     movea.l    A1, D1
00002500  2374 080A 0352           move.l     [A1 + 0x352], [A4 + D0 + 0xA]
00002506  3374 080E 0356           move.w     [A1 + 0x356], [A4 + D0 + 0xE]
0000250C  5246                     addq.w     D6, 1
0000250E  508C                     addq.l     A4, 8
label00002510:
00002510  0C46 000D                cmpi.w     D6, 0xD /* '\r' */
00002514  6DCC                     blt        -0x32 /* 000024E2 */
00002516  4A45                     tst.w      D5
00002518  6714                     beq        +0x16 /* 0000252E */
0000251A  2F2D A212                move.l     -[A7], [A5 - 0x5DEE]
0000251E  2F2D A232                move.l     -[A7], [A5 - 0x5DCE]
00002522  2F3C 0069 0069           move.l     -[A7], 0x690069 /* 'i\0i' */
00002528  3F3C 000D                move.w     -[A7], 0xD /* '\r' */
0000252C  AA9A                     syscall    AnimatePalette
label0000252E:
0000252E  4CDF 10E0                movem.l    D5,D6,D7,A4, [A7]+
00002532  4E5E                     unlink     A6
00002534  4E75                     rts
export_16:
00002536  4E56 0000                link       A6, 0
0000253A  48E7 3820                movem.l    -[A7], D2,D3,D4,A2
0000253E  246E 0008                movea.l    A2, [A6 + 0x8]
00002542  282E 000C                move.l     D4, [A6 + 0xC]
00002546  226E 0010                movea.l    A1, [A6 + 0x10]
label0000254A:
0000254A  5384                     subq.l     D4, 1
0000254C  6B3E                     bmi        +0x40 /* 0000258C */
0000254E  141A                     move.b     D2, [A2]+
00002550  7607                     moveq.l    D3, 0x07
label00002552:
00002552  E20A                     lsr        D2.b, 1
00002554  650C                     bcs        +0xE /* 00002562 */
00002556  5384                     subq.l     D4, 1
00002558  6B32                     bmi        +0x34 /* 0000258C */
0000255A  12DA                     move.b     [A1]+, [A2]+
0000255C  51CB FFF4                dbf        D3, -0xE /* 00002552 */
00002560  60E8                     bra        -0x16 /* 0000254A */
label00002562:
00002562  5584                     subq.l     D4, 2
00002564  6B26                     bmi        +0x28 /* 0000258C */
00002566  101A                     move.b     D0, [A2]+
00002568  E148                     lsl        D0.w, 8
0000256A  101A                     move.b     D0, [A2]+
0000256C  3200                     move.w     D1, D0
0000256E  2049                     movea.l    A0, A1
00002570  0240 0FFF                andi.w     D0, 0xFFF
00002574  5240                     addq.w     D0, 1
00002576  90C0                     sub.w      A0, D0
00002578  E959                     rol        D1.w, 4
0000257A  0241 000F                andi.w     D1, 0xF
0000257E  5441                     addq.w     D1, 2
label00002580:
00002580  12D8                     move.b     [A1]+, [A0]+
00002582  51C9 FFFC                dbf        D1, -0x6 /* 00002580 */
00002586  51CB FFCA                dbf        D3, -0x38 /* 00002552 */
0000258A  60BE                     bra        -0x40 /* 0000254A */
label0000258C:
0000258C  4CDF 041C                movem.l    D2,D3,D4,A2, [A7]+
00002590  4E5E                     unlink     A6
00002592  4E75                     rts
fn00002594:
00002594  4E56 FFF8                link       A6, -0x0008
00002598  2F0C                     move.l     -[A7], A4
0000259A  4A2D 961D                tst.b      [A5 - 0x69E3]
0000259E  6664                     bne        +0x66 /* 00002604 */
000025A0  4A2D A208                tst.b      [A5 - 0x5DF8]
000025A4  675E                     beq        +0x60 /* 00002604 */
000025A6  4278 0BAA                clr.w      [0x00000BAA /* MBarHeight */]
000025AA  21ED A0AC 09EE           move.l     [0x000009EE /* GrayRgn */], [A5 - 0x5F54]
000025B0  486D A0B6                pea.l      [A5 - 0x5F4A]
000025B4  A874                     syscall    GetPort
000025B6  486E FFFC                pea.l      [A6 - 0x4]
000025BA  A910                     syscall    GetWMgrPort
000025BC  2F2E FFFC                move.l     -[A7], [A6 - 0x4]
000025C0  A873                     syscall    SetPort
000025C2  2F38 09EE                move.l     -[A7], [0x000009EE /* GrayRgn */]
000025C6  A879                     syscall    SetClip
000025C8  42A7                     clr.l      -[A7]
000025CA  2F2D A0AC                move.l     -[A7], [A5 - 0x5F54]
000025CE  A90C                     syscall    PaintOne
000025D0  2F2D A0A8                move.l     -[A7], [A5 - 0x5F58]
000025D4  A8D3                     syscall    PaintRgn
000025D6  42A7                     clr.l      -[A7]
000025D8  A924                     syscall    FrontWindow
000025DA  285F                     movea.l    A4, [A7]+
000025DC  2F0C                     move.l     -[A7], A4
000025DE  2F2D A0A8                move.l     -[A7], [A5 - 0x5F58]
000025E2  A90C                     syscall    PaintOne
000025E4  2F0C                     move.l     -[A7], A4
000025E6  2F2D A0A8                move.l     -[A7], [A5 - 0x5F58]
000025EA  A90D                     syscall    PaintBehind
000025EC  2F0C                     move.l     -[A7], A4
000025EE  A909                     syscall    CalcVis
000025F0  2F0C                     move.l     -[A7], A4
000025F2  2F2D A0A8                move.l     -[A7], [A5 - 0x5F58]
000025F6  A90A                     syscall    CalcVBehind
000025F8  2F2D A0B6                move.l     -[A7], [A5 - 0x5F4A]
000025FC  A873                     syscall    SetPort
000025FE  1B7C 0001 961D           move.b     [A5 - 0x69E3], 0x1
label00002604:
00002604  4EBA 0066                jsr        [PC + 0x66 /* 0000266C */]
00002608  285F                     movea.l    A4, [A7]+
0000260A  4E5E                     unlink     A6
0000260C  4E75                     rts
fn0000260E:
0000260E  4E56 FFFC                link       A6, -0x0004
00002612  2F0C                     move.l     -[A7], A4
00002614  4A2D 961D                tst.b      [A5 - 0x69E3]
00002618  6748                     beq        +0x4A /* 00002662 */
0000261A  31ED A0B0 0BAA           move.w     [0x00000BAA /* MBarHeight */], [A5 - 0x5F50]
00002620  21ED A0A4 09EE           move.l     [0x000009EE /* GrayRgn */], [A5 - 0x5F5C]
00002626  486D A0B6                pea.l      [A5 - 0x5F4A]
0000262A  A874                     syscall    GetPort
0000262C  486E FFFC                pea.l      [A6 - 0x4]
00002630  A910                     syscall    GetWMgrPort
00002632  2F2E FFFC                move.l     -[A7], [A6 - 0x4]
00002636  A873                     syscall    SetPort
00002638  2F2D A0A8                move.l     -[A7], [A5 - 0x5F58]
0000263C  A8D3                     syscall    PaintRgn
0000263E  42A7                     clr.l      -[A7]
00002640  A924                     syscall    FrontWindow
00002642  285F                     movea.l    A4, [A7]+
00002644  2F0C                     move.l     -[A7], A4
00002646  A909                     syscall    CalcVis
00002648  2F0C                     move.l     -[A7], A4
0000264A  2F2D A0A8                move.l     -[A7], [A5 - 0x5F58]
0000264E  A90A                     syscall    CalcVBehind
00002650  A937                     syscall    DrawMenuBar
00002652  2F38 09EE                move.l     -[A7], [0x000009EE /* GrayRgn */]
00002656  A879                     syscall    SetClip
00002658  2F2D A0B6                move.l     -[A7], [A5 - 0x5F4A]
0000265C  A873                     syscall    SetPort
0000265E  422D 961D                clr.b      [A5 - 0x69E3]
label00002662:
00002662  4EBA 001E                jsr        [PC + 0x1E /* 00002682 */]
00002666  285F                     movea.l    A4, [A7]+
00002668  4E5E                     unlink     A6
0000266A  4E75                     rts
fn0000266C:
0000266C  4A2D 961C                tst.b      [A5 - 0x69E4]
00002670  660E                     bne        +0x10 /* 00002680 */
00002672  4A2D A208                tst.b      [A5 - 0x5DF8]
00002676  6708                     beq        +0xA /* 00002680 */
00002678  A852                     syscall    HideCursor
0000267A  1B7C 0001 961C           move.b     [A5 - 0x69E4], 0x1
label00002680:
00002680  4E75                     rts
export_17:
fn00002682:
00002682  4A2D 961C                tst.b      [A5 - 0x69E4]
00002686  6706                     beq        +0x8 /* 0000268E */
00002688  A853                     syscall    ShowCursor
0000268A  422D 961C                clr.b      [A5 - 0x69E4]
label0000268E:
0000268E  4E75                     rts
fn00002690:
00002690  4EBA 05B0                jsr        [PC + 0x5B0 /* 00002C42 */]
00002694  4EBA FFEC                jsr        [PC - 0x14 /* 00002682 */]
00002698  4E75                     rts
fn0000269A:
0000269A  4EBA 05D4                jsr        [PC + 0x5D4 /* 00002C70 */]
0000269E  4EBA FFCC                jsr        [PC - 0x34 /* 0000266C */]
000026A2  4E75                     rts
export_18:
000026A4  4E56 0000                link       A6, 0
000026A8  48E7 0308                movem.l    -[A7], D6,D7,A4
000026AC  286E 000C                movea.l    A4, [A6 + 0xC]
000026B0  4EBA 0558                jsr        [PC + 0x558 /* 00002C0A */]
000026B4  3014                     move.w     D0, [A4]
000026B6  6B58                     bmi        +0x5A /* 00002710 */
000026B8  5740                     subq.w     D0, 3
000026BA  6702                     beq        +0x4 /* 000026BE */
000026BC  6052                     bra        +0x54 /* 00002710 */
label000026BE:
000026BE  2E2C 0002                move.l     D7, [A4 + 0x2]
000026C2  2C07                     move.l     D6, D7
000026C4  0286 0000 FF00           andi.l     D6, 0xFF00
000026CA  E086                     asr        D6, 8
000026CC  7CFF                     moveq.l    D6, 0xFFFFFFFF
000026CE  CC07                     and.b      D6, D7
000026D0  3E2C 000E                move.w     D7, [A4 + 0xE]
000026D4  1006                     move.b     D0, D6
000026D6  6B38                     bmi        +0x3A /* 00002710 */
000026D8  0400 000D                subi.b     D0, 0xD /* '\r' */
000026DC  6712                     beq        +0x14 /* 000026F0 */
000026DE  6A08                     bpl        +0xA /* 000026E8 */
000026E0  0400 00F6                subi.b     D0, 0xF6
000026E4  670A                     beq        +0xC /* 000026F0 */
000026E6  6028                     bra        +0x2A /* 00002710 */
label000026E8:
000026E8  0400 000E                subi.b     D0, 0xE
000026EC  6712                     beq        +0x14 /* 00002700 */
000026EE  6020                     bra        +0x22 /* 00002710 */
label000026F0:
000026F0  206E 0008                movea.l    A0, [A6 + 0x8]
000026F4  30BC 0001                move.w     [A0], 0x1
000026F8  1D7C 0001 0014           move.b     [A6 + 0x14], 0x1
000026FE  6014                     bra        +0x16 /* 00002714 */
label00002700:
00002700  206E 0008                movea.l    A0, [A6 + 0x8]
00002704  30BC 0002                move.w     [A0], 0x2
00002708  1D7C 0001 0014           move.b     [A6 + 0x14], 0x1
0000270E  6004                     bra        +0x6 /* 00002714 */
label00002710:
00002710  422E 0014                clr.b      [A6 + 0x14]
label00002714:
00002714  4CDF 10C0                movem.l    D6,D7,A4, [A7]+
00002718  4E5E                     unlink     A6
0000271A  205F                     movea.l    A0, [A7]+
0000271C  4FEF 000C                lea.l      A7, [A7 + 0xC]
00002720  4ED0                     jmp        [A0]
export_19:
00002722  4E56 0000                link       A6, 0
00002726  48E7 0308                movem.l    -[A7], D6,D7,A4
0000272A  2878 0328                movea.l    A4, [0x00000328 /* GZRootHnd */]
0000272E  200C                     move.l     D0, A4
00002730  670A                     beq        +0xC /* 0000273C */
00002732  204C                     movea.l    A0, A4
00002734  A069                     syscall    HGetState
00002736  1E00                     move.b     D7, D0
00002738  204C                     movea.l    A0, A4
0000273A  A029                     syscall    HLock
label0000273C:
0000273C  7C00                     moveq.l    D6, 0x00
0000273E  4A2D 961E                tst.b      [A5 - 0x69E2]
00002742  664A                     bne        +0x4C /* 0000278E */
00002744  4A2D 965B                tst.b      [A5 - 0x69A5]
00002748  6706                     beq        +0x8 /* 00002750 */
0000274A  4A2D 9659                tst.b      [A5 - 0x69A7]
0000274E  6626                     bne        +0x28 /* 00002776 */
label00002750:
00002750  1B7C 0001 965B           move.b     [A5 - 0x69A5], 0x1
00002756  1B7C 0001 9659           move.b     [A5 - 0x69A7], 0x1
0000275C  4EBA 02E8                jsr        [PC + 0x2E8 /* 00002A46 */]
00002760  4EBA FF20                jsr        [PC - 0xE0 /* 00002682 */]
00002764  A850                     syscall    InitCursor
00002766  4267                     clr.w      -[A7]
00002768  3F3C 03F0                move.w     -[A7], 0x3F0
0000276C  42A7                     clr.l      -[A7]
0000276E  A985                     syscall    Alert
00002770  7C01                     moveq.l    D6, 0x01
00002772  548F                     addq.l     A7, 2
00002774  6018                     bra        +0x1A /* 0000278E */
label00002776:
00002776  1B7C 0001 961E           move.b     [A5 - 0x69E2], 0x1
0000277C  4EBA FF04                jsr        [PC - 0xFC /* 00002682 */]
00002780  A850                     syscall    InitCursor
00002782  4267                     clr.w      -[A7]
00002784  3F3C 03EA                move.w     -[A7], 0x3EA
00002788  42A7                     clr.l      -[A7]
0000278A  A985                     syscall    Alert
0000278C  548F                     addq.l     A7, 2
label0000278E:
0000278E  200C                     move.l     D0, A4
00002790  6706                     beq        +0x8 /* 00002798 */
00002792  1007                     move.b     D0, D7
00002794  204C                     movea.l    A0, A4
00002796  A06A                     syscall    HSetState
label00002798:
00002798  2D46 000C                move.l     [A6 + 0xC], D6
0000279C  4CDF 10C0                movem.l    D6,D7,A4, [A7]+
000027A0  4E5E                     unlink     A6
000027A2  2E9F                     move.l     [A7], [A7]+
000027A4  4E75                     rts
export_20:
fn000027A6:
000027A6  4E56 FFFE                link       A6, -0x0002
000027AA  4A2D 961E                tst.b      [A5 - 0x69E2]
000027AE  6662                     bne        +0x64 /* 00002812 */
000027B0  4A6E 0008                tst.w      [A6 + 0x8]
000027B4  6C1A                     bge        +0x1C /* 000027D0 */
000027B6  0C6E FFFF 0008           cmpi.w     [A6 + 0x8], 0xFFFF
000027BC  660A                     bne        +0xC /* 000027C8 */
000027BE  4267                     clr.w      -[A7]
000027C0  A9AF                     syscall    ResError
000027C2  3B5F A16C                move.w     [A5 - 0x5E94], [A7]+
000027C6  600C                     bra        +0xE /* 000027D4 */
label000027C8:
000027C8  3B6E 0008 A16C           move.w     [A5 - 0x5E94], [A6 + 0x8]
000027CE  6004                     bra        +0x6 /* 000027D4 */
label000027D0:
000027D0  426D A16C                clr.w      [A5 - 0x5E94]
label000027D4:
000027D4  4A6D A16C                tst.w      [A5 - 0x5E94]
000027D8  6738                     beq        +0x3A /* 00002812 */
000027DA  4EBA 0340                jsr        [PC + 0x340 /* 00002B1C */]
000027DE  4EBA FEA2                jsr        [PC - 0x15E /* 00002682 */]
000027E2  A850                     syscall    InitCursor
000027E4  306D A16C                movea.w    A0, [A5 - 0x5E94]
000027E8  2F08                     move.l     -[A7], A0
000027EA  486D A16E                pea.l      [A5 - 0x5E92]
000027EE  4EBA 1C72                jsr        [PC + 0x1C72 /* 00004462 */]
000027F2  486D A16E                pea.l      [A5 - 0x5E92]
000027F6  2F2D A168                move.l     -[A7], [A5 - 0x5E98]
000027FA  42A7                     clr.l      -[A7]
000027FC  42A7                     clr.l      -[A7]
000027FE  A98B                     syscall    ParamText
00002800  4267                     clr.w      -[A7]
00002802  3F3C 03EE                move.w     -[A7], 0x3EE
00002806  42A7                     clr.l      -[A7]
00002808  A985                     syscall    Alert
0000280A  1B7C 0001 961E           move.b     [A5 - 0x69E2], 0x1
00002810  548F                     addq.l     A7, 2
label00002812:
00002812  102D 961E                move.b     D0, [A5 - 0x69E2]
00002816  4E5E                     unlink     A6
00002818  4E75                     rts
export_21:
fn0000281A:
0000281A  4E56 0000                link       A6, 0
0000281E  4A2D 961E                tst.b      [A5 - 0x69E2]
00002822  6630                     bne        +0x32 /* 00002854 */
00002824  4267                     clr.w      -[A7]
00002826  A9AF                     syscall    ResError
00002828  3B5F A16C                move.w     [A5 - 0x5E94], [A7]+
0000282C  4AAE 0008                tst.l      [A6 + 0x8]
00002830  6706                     beq        +0x8 /* 00002838 */
00002832  4A6D A16C                tst.w      [A5 - 0x5E94]
00002836  671C                     beq        +0x1E /* 00002854 */
label00002838:
00002838  4EBA 02E2                jsr        [PC + 0x2E2 /* 00002B1C */]
0000283C  4EBA FE44                jsr        [PC - 0x1BC /* 00002682 */]
00002840  A850                     syscall    InitCursor
00002842  4267                     clr.w      -[A7]
00002844  3F3C 03E9                move.w     -[A7], 0x3E9
00002848  42A7                     clr.l      -[A7]
0000284A  A985                     syscall    Alert
0000284C  1B7C 0001 961E           move.b     [A5 - 0x69E2], 0x1
00002852  548F                     addq.l     A7, 2
label00002854:
00002854  102D 961E                move.b     D0, [A5 - 0x69E2]
00002858  4E5E                     unlink     A6
0000285A  4E75                     rts
export_22:
fn0000285C:
0000285C  4E56 0000                link       A6, 0
00002860  4A2D 961E                tst.b      [A5 - 0x69E2]
00002864  662E                     bne        +0x30 /* 00002894 */
00002866  3B78 0220 A16C           move.w     [A5 - 0x5E94], [0x00000220 /* MemErr */]
0000286C  4AAE 0008                tst.l      [A6 + 0x8]
00002870  6706                     beq        +0x8 /* 00002878 */
00002872  4A6D A16C                tst.w      [A5 - 0x5E94]
00002876  671C                     beq        +0x1E /* 00002894 */
label00002878:
00002878  4EBA 02A2                jsr        [PC + 0x2A2 /* 00002B1C */]
0000287C  4EBA FE04                jsr        [PC - 0x1FC /* 00002682 */]
00002880  A850                     syscall    InitCursor
00002882  4267                     clr.w      -[A7]
00002884  3F3C 03EA                move.w     -[A7], 0x3EA
00002888  42A7                     clr.l      -[A7]
0000288A  A985                     syscall    Alert
0000288C  1B7C 0001 961E           move.b     [A5 - 0x69E2], 0x1
00002892  548F                     addq.l     A7, 2
label00002894:
00002894  102D 961E                move.b     D0, [A5 - 0x69E2]
00002898  4E5E                     unlink     A6
0000289A  4E75                     rts
export_23:
0000289C  4E56 0000                link       A6, 0
000028A0  48E7 1F08                movem.l    -[A7], D3,D4,D5,D6,D7,A4
000028A4  3A2E 0008                move.w     D5, [A6 + 0x8]
000028A8  7E00                     moveq.l    D7, 0x00
000028AA  7C00                     moveq.l    D6, 0x00
000028AC  3F05                     move.w     -[A7], D5
000028AE  4EBA 02E0                jsr        [PC + 0x2E0 /* 00002B90 */]
000028B2  4A00                     tst.b      D0
000028B4  548F                     addq.l     A7, 2
000028B6  6762                     beq        +0x64 /* 0000291A */
000028B8  3805                     move.w     D4, D5
000028BA  0644 03E8                addi.w     D4, 0x3E8
000028BE  3605                     move.w     D3, D5
000028C0  0643 07D0                addi.w     D3, 0x7D0
000028C4  49ED A464                lea.l      A4, [A5 - 0x5B9C]
000028C8  D8C6                     add.w      A4, D6
000028CA  D8C6                     add.w      A4, D6
000028CC  600C                     bra        +0xE /* 000028DA */
label000028CE:
000028CE  B854                     cmp.w      D4, [A4]
000028D0  6604                     bne        +0x6 /* 000028D6 */
000028D2  7E01                     moveq.l    D7, 0x01
000028D4  600A                     bra        +0xC /* 000028E0 */
label000028D6:
000028D6  5246                     addq.w     D6, 1
000028D8  548C                     addq.l     A4, 2
label000028DA:
000028DA  BC6D 9646                cmp.w      D6, [A5 - 0x69BA]
000028DE  6DEE                     blt        -0x10 /* 000028CE */
label000028E0:
000028E0  4A07                     tst.b      D7
000028E2  661A                     bne        +0x1C /* 000028FE */
000028E4  386D 9646                movea.w    A4, [A5 - 0x69BA]
000028E8  D9CC                     add.l      A4, A4
000028EA  41ED A464                lea.l      A0, [A5 - 0x5B9C]
000028EE  D1CC                     add.l      A0, A4
000028F0  3084                     move.w     [A0], D4
000028F2  41ED A4DA                lea.l      A0, [A5 - 0x5B26]
000028F6  D1CC                     add.l      A0, A4
000028F8  3083                     move.w     [A0], D3
000028FA  526D 9646                addq.w     [A5 - 0x69BA], 1
label000028FE:
000028FE  386D 9646                movea.w    A4, [A5 - 0x69BA]
00002902  D9CC                     add.l      A4, A4
00002904  41ED A464                lea.l      A0, [A5 - 0x5B9C]
00002908  D1CC                     add.l      A0, A4
0000290A  30BC FFFF                move.w     [A0], 0xFFFF
0000290E  41ED A4DA                lea.l      A0, [A5 - 0x5B26]
00002912  D1CC                     add.l      A0, A4
00002914  30BC FFFF                move.w     [A0], 0xFFFF
00002918  6048                     bra        +0x4A /* 00002962 */
label0000291A:
0000291A  3805                     move.w     D4, D5
0000291C  0644 1388                addi.w     D4, 0x1388
00002920  49ED A3EE                lea.l      A4, [A5 - 0x5C12]
00002924  D8C6                     add.w      A4, D6
00002926  D8C6                     add.w      A4, D6
00002928  600C                     bra        +0xE /* 00002936 */
label0000292A:
0000292A  B854                     cmp.w      D4, [A4]
0000292C  6604                     bne        +0x6 /* 00002932 */
0000292E  7E01                     moveq.l    D7, 0x01
00002930  600A                     bra        +0xC /* 0000293C */
label00002932:
00002932  5246                     addq.w     D6, 1
00002934  548C                     addq.l     A4, 2
label00002936:
00002936  BC6D 9640                cmp.w      D6, [A5 - 0x69C0]
0000293A  6DEE                     blt        -0x10 /* 0000292A */
label0000293C:
0000293C  4A07                     tst.b      D7
0000293E  6612                     bne        +0x14 /* 00002952 */
00002940  302D 9640                move.w     D0, [A5 - 0x69C0]
00002944  204D                     movea.l    A0, A5
00002946  D0C0                     add.w      A0, D0
00002948  D0C0                     add.w      A0, D0
0000294A  3144 A3EE                move.w     [A0 - 0x5C12], D4
0000294E  526D 9640                addq.w     [A5 - 0x69C0], 1
label00002952:
00002952  302D 9640                move.w     D0, [A5 - 0x69C0]
00002956  204D                     movea.l    A0, A5
00002958  D0C0                     add.w      A0, D0
0000295A  D0C0                     add.w      A0, D0
0000295C  317C FFFF A3EE           move.w     [A0 - 0x5C12], 0xFFFF
label00002962:
00002962  4CDF 10F8                movem.l    D3,D4,D5,D6,D7,A4, [A7]+
00002966  4E5E                     unlink     A6
00002968  4E75                     rts
export_24:
0000296A  4E56 0000                link       A6, 0
0000296E  48E7 1F38                movem.l    -[A7], D3,D4,D5,D6,D7,A2,A3,A4
00002972  3A2E 0008                move.w     D5, [A6 + 0x8]
00002976  7E00                     moveq.l    D7, 0x00
00002978  7C00                     moveq.l    D6, 0x00
0000297A  3F05                     move.w     -[A7], D5
0000297C  4EBA 0212                jsr        [PC + 0x212 /* 00002B90 */]
00002980  4A00                     tst.b      D0
00002982  548F                     addq.l     A7, 2
00002984  6754                     beq        +0x56 /* 000029DA */
00002986  3805                     move.w     D4, D5
00002988  0644 03E8                addi.w     D4, 0x3E8
0000298C  3605                     move.w     D3, D5
0000298E  0643 07D0                addi.w     D3, 0x7D0
00002992  3846                     movea.w    A4, D6
00002994  D9CC                     add.l      A4, A4
00002996  47ED A4DA                lea.l      A3, [A5 - 0x5B26]
0000299A  D7CC                     add.l      A3, A4
0000299C  45ED A464                lea.l      A2, [A5 - 0x5B9C]
000029A0  D5CC                     add.l      A2, A4
000029A2  6026                     bra        +0x28 /* 000029CA */
label000029A4:
000029A4  B852                     cmp.w      D4, [A2]
000029A6  6602                     bne        +0x4 /* 000029AA */
000029A8  7E01                     moveq.l    D7, 0x01
label000029AA:
000029AA  4A07                     tst.b      D7
000029AC  6716                     beq        +0x18 /* 000029C4 */
000029AE  3846                     movea.w    A4, D6
000029B0  49F4 6002                lea.l      A4, [A4 + D6.w + 0x2]
000029B4  41ED A464                lea.l      A0, [A5 - 0x5B9C]
000029B8  D1CC                     add.l      A0, A4
000029BA  3490                     move.w     [A2], [A0]
000029BC  41ED A4DA                lea.l      A0, [A5 - 0x5B26]
000029C0  D1CC                     add.l      A0, A4
000029C2  3690                     move.w     [A3], [A0]
label000029C4:
000029C4  5246                     addq.w     D6, 1
000029C6  548B                     addq.l     A3, 2
000029C8  548A                     addq.l     A2, 2
label000029CA:
000029CA  BC6D 9646                cmp.w      D6, [A5 - 0x69BA]
000029CE  6DD4                     blt        -0x2A /* 000029A4 */
000029D0  4A07                     tst.b      D7
000029D2  673C                     beq        +0x3E /* 00002A10 */
000029D4  536D 9646                subq.w     [A5 - 0x69BA], 1
000029D8  6036                     bra        +0x38 /* 00002A10 */
label000029DA:
000029DA  3805                     move.w     D4, D5
000029DC  0644 1388                addi.w     D4, 0x1388
000029E0  49ED A3EE                lea.l      A4, [A5 - 0x5C12]
000029E4  D8C6                     add.w      A4, D6
000029E6  D8C6                     add.w      A4, D6
000029E8  6018                     bra        +0x1A /* 00002A02 */
label000029EA:
000029EA  B854                     cmp.w      D4, [A4]
000029EC  6602                     bne        +0x4 /* 000029F0 */
000029EE  7E01                     moveq.l    D7, 0x01
label000029F0:
000029F0  4A07                     tst.b      D7
000029F2  670A                     beq        +0xC /* 000029FE */
000029F4  204D                     movea.l    A0, A5
000029F6  D0C6                     add.w      A0, D6
000029F8  D0C6                     add.w      A0, D6
000029FA  38A8 A3F0                move.w     [A4], [A0 - 0x5C10]
label000029FE:
000029FE  5246                     addq.w     D6, 1
00002A00  548C                     addq.l     A4, 2
label00002A02:
00002A02  BC6D 9640                cmp.w      D6, [A5 - 0x69C0]
00002A06  6DE2                     blt        -0x1C /* 000029EA */
00002A08  4A07                     tst.b      D7
00002A0A  6704                     beq        +0x6 /* 00002A10 */
00002A0C  536D 9640                subq.w     [A5 - 0x69C0], 1
label00002A10:
00002A10  4CDF 1CF8                movem.l    D3,D4,D5,D6,D7,A2,A3,A4, [A7]+
00002A14  4E5E                     unlink     A6
00002A16  4E75                     rts
export_25:
fn00002A18:
00002A18  4A2D 963C                tst.b      [A5 - 0x69C4]
00002A1C  6620                     bne        +0x22 /* 00002A3E */
00002A1E  4A2D 965B                tst.b      [A5 - 0x69A5]
00002A22  660A                     bne        +0xC /* 00002A2E */
00002A24  4A2D 965C                tst.b      [A5 - 0x69A4]
00002A28  6704                     beq        +0x6 /* 00002A2E */
00002A2A  4EBA 0368                jsr        [PC + 0x368 /* 00002D94 */]
label00002A2E:
00002A2E  4A2D 9659                tst.b      [A5 - 0x69A7]
00002A32  660A                     bne        +0xC /* 00002A3E */
00002A34  4A2D 965A                tst.b      [A5 - 0x69A6]
00002A38  6704                     beq        +0x6 /* 00002A3E */
00002A3A  4EBA 025E                jsr        [PC + 0x25E /* 00002C9A */]
label00002A3E:
00002A3E  1B7C 0001 963C           move.b     [A5 - 0x69C4], 0x1
00002A44  4E75                     rts
export_26:
fn00002A46:
00002A46  4A2D 963C                tst.b      [A5 - 0x69C4]
00002A4A  6708                     beq        +0xA /* 00002A54 */
00002A4C  4EBA 02AA                jsr        [PC + 0x2AA /* 00002CF8 */]
00002A50  4EBA 0408                jsr        [PC + 0x408 /* 00002E5A */]
label00002A54:
00002A54  422D 963C                clr.b      [A5 - 0x69C4]
00002A58  4E75                     rts
export_27:
00002A5A  4E56 0000                link       A6, 0
00002A5E  2F07                     move.l     -[A7], D7
00002A60  3E2E 0008                move.w     D7, [A6 + 0x8]
00002A64  3F07                     move.w     -[A7], D7
00002A66  4EBA 0128                jsr        [PC + 0x128 /* 00002B90 */]
00002A6A  4A00                     tst.b      D0
00002A6C  548F                     addq.l     A7, 2
00002A6E  6748                     beq        +0x4A /* 00002AB8 */
00002A70  4A2D 965C                tst.b      [A5 - 0x69A4]
00002A74  6700 00A0                beq        +0xA2 /* 00002B16 */
00002A78  4A2D 9642                tst.b      [A5 - 0x69BE]
00002A7C  6700 0098                beq        +0x9A /* 00002B16 */
00002A80  4A2D 963D                tst.b      [A5 - 0x69C3]
00002A84  670A                     beq        +0xC /* 00002A90 */
00002A86  4A2D 963E                tst.b      [A5 - 0x69C2]
00002A8A  6704                     beq        +0x6 /* 00002A90 */
00002A8C  4EBA 02CC                jsr        [PC + 0x2CC /* 00002D5A */]
label00002A90:
00002A90  4A2D 9643                tst.b      [A5 - 0x69BD]
00002A94  6604                     bne        +0x6 /* 00002A9A */
00002A96  4EBA 0484                jsr        [PC + 0x484 /* 00002F1C */]
label00002A9A:
00002A9A  4A2D 9645                tst.b      [A5 - 0x69BB]
00002A9E  6706                     beq        +0x8 /* 00002AA6 */
00002AA0  0647 07D0                addi.w     D7, 0x7D0
00002AA4  6004                     bra        +0x6 /* 00002AAA */
label00002AA6:
00002AA6  0647 03E8                addi.w     D7, 0x3E8
label00002AAA:
00002AAA  3F07                     move.w     -[A7], D7
00002AAC  3F3C 0002                move.w     -[A7], 0x2
00002AB0  4EBA 1BAE                jsr        [PC + 0x1BAE /* 00004660 */]
00002AB4  588F                     addq.l     A7, 4
00002AB6  605E                     bra        +0x60 /* 00002B16 */
label00002AB8:
00002AB8  4A2D 965A                tst.b      [A5 - 0x69A6]
00002ABC  6758                     beq        +0x5A /* 00002B16 */
00002ABE  4A2D 963D                tst.b      [A5 - 0x69C3]
00002AC2  6752                     beq        +0x54 /* 00002B16 */
00002AC4  4A2D 9642                tst.b      [A5 - 0x69BE]
00002AC8  671A                     beq        +0x1C /* 00002AE4 */
00002ACA  4A2D 9643                tst.b      [A5 - 0x69BD]
00002ACE  6714                     beq        +0x16 /* 00002AE4 */
00002AD0  2F3C 0007 0000           move.l     -[A7], 0x70000
00002AD6  4EBA 1B88                jsr        [PC + 0x1B88 /* 00004660 */]
00002ADA  4A80                     tst.l      D0
00002ADC  588F                     addq.l     A7, 4
00002ADE  6736                     beq        +0x38 /* 00002B16 */
00002AE0  4EBA 0418                jsr        [PC + 0x418 /* 00002EFA */]
label00002AE4:
00002AE4  4A2D 963E                tst.b      [A5 - 0x69C2]
00002AE8  6604                     bne        +0x6 /* 00002AEE */
00002AEA  4EBA 028C                jsr        [PC + 0x28C /* 00002D78 */]
label00002AEE:
00002AEE  0647 1388                addi.w     D7, 0x1388
00002AF2  4A6D 9656                tst.w      [A5 - 0x69AA]
00002AF6  6714                     beq        +0x16 /* 00002B0C */
00002AF8  3F2D 9656                move.w     -[A7], [A5 - 0x69AA]
00002AFC  4267                     clr.w      -[A7]
00002AFE  3F07                     move.w     -[A7], D7
00002B00  4EBA 2F76                jsr        [PC + 0x2F76 /* 00005A78 */]
00002B04  426D 9656                clr.w      [A5 - 0x69AA]
00002B08  5C8F                     addq.l     A7, 6
00002B0A  600A                     bra        +0xC /* 00002B16 */
label00002B0C:
00002B0C  4267                     clr.w      -[A7]
00002B0E  3F07                     move.w     -[A7], D7
00002B10  4EBA 2D32                jsr        [PC + 0x2D32 /* 00005844 */]
00002B14  588F                     addq.l     A7, 4
label00002B16:
00002B16  2E1F                     move.l     D7, [A7]+
00002B18  4E5E                     unlink     A6
00002B1A  4E75                     rts
export_28:
fn00002B1C:
00002B1C  4A2D 963D                tst.b      [A5 - 0x69C3]
00002B20  670A                     beq        +0xC /* 00002B2C */
00002B22  4A2D 963E                tst.b      [A5 - 0x69C2]
00002B26  6704                     beq        +0x6 /* 00002B2C */
00002B28  4EBA 30E0                jsr        [PC + 0x30E0 /* 00005C0A */]
label00002B2C:
00002B2C  4A2D 9642                tst.b      [A5 - 0x69BE]
00002B30  6712                     beq        +0x14 /* 00002B44 */
00002B32  4A2D 9643                tst.b      [A5 - 0x69BD]
00002B36  670C                     beq        +0xE /* 00002B44 */
00002B38  2F3C 0004 0000           move.l     -[A7], 0x40000
00002B3E  4EBA 1B20                jsr        [PC + 0x1B20 /* 00004660 */]
00002B42  588F                     addq.l     A7, 4
label00002B44:
00002B44  3B7C FFFF A90E           move.w     [A5 - 0x56F2], 0xFFFF
00002B4A  4E75                     rts
export_29:
fn00002B4C:
00002B4C  4A2D 963D                tst.b      [A5 - 0x69C3]
00002B50  6716                     beq        +0x18 /* 00002B68 */
00002B52  4A2D 963E                tst.b      [A5 - 0x69C2]
00002B56  6710                     beq        +0x12 /* 00002B68 */
00002B58  4EBA 3118                jsr        [PC + 0x3118 /* 00005C72 */]
00002B5C  4A00                     tst.b      D0
00002B5E  6704                     beq        +0x6 /* 00002B64 */
00002B60  7000                     moveq.l    D0, 0x00
00002B62  602A                     bra        +0x2C /* 00002B8E */
label00002B64:
00002B64  7001                     moveq.l    D0, 0x01
00002B66  6026                     bra        +0x28 /* 00002B8E */
label00002B68:
00002B68  4A2D 9642                tst.b      [A5 - 0x69BE]
00002B6C  671E                     beq        +0x20 /* 00002B8C */
00002B6E  4A2D 9643                tst.b      [A5 - 0x69BD]
00002B72  6718                     beq        +0x1A /* 00002B8C */
00002B74  2F3C 0007 0000           move.l     -[A7], 0x70000
00002B7A  4EBA 1AE4                jsr        [PC + 0x1AE4 /* 00004660 */]
00002B7E  4A80                     tst.l      D0
00002B80  588F                     addq.l     A7, 4
00002B82  6704                     beq        +0x6 /* 00002B88 */
00002B84  7000                     moveq.l    D0, 0x00
00002B86  6006                     bra        +0x8 /* 00002B8E */
label00002B88:
00002B88  7001                     moveq.l    D0, 0x01
00002B8A  6002                     bra        +0x4 /* 00002B8E */
label00002B8C:
00002B8C  7000                     moveq.l    D0, 0x00
label00002B8E:
00002B8E  4E75                     rts
fn00002B90:
00002B90  4E56 0000                link       A6, 0
00002B94  2F07                     move.l     -[A7], D7
00002B96  3E2E 0008                move.w     D7, [A6 + 0x8]
00002B9A  0C47 0018                cmpi.w     D7, 0x18
00002B9E  6D0C                     blt        +0xE /* 00002BAC */
00002BA0  0C47 0026                cmpi.w     D7, 0x26 /* '&' */
00002BA4  6706                     beq        +0x8 /* 00002BAC */
00002BA6  0C47 002C                cmpi.w     D7, 0x2C /* ',' */
00002BAA  6D12                     blt        +0x14 /* 00002BBE */
label00002BAC:
00002BAC  0C47 0032                cmpi.w     D7, 0x32 /* '2' */
00002BB0  6D10                     blt        +0x12 /* 00002BC2 */
00002BB2  0C47 0033                cmpi.w     D7, 0x33 /* '3' */
00002BB6  670A                     beq        +0xC /* 00002BC2 */
00002BB8  0C47 003A                cmpi.w     D7, 0x3A /* ':' */
00002BBC  6C04                     bge        +0x6 /* 00002BC2 */
label00002BBE:
00002BBE  7001                     moveq.l    D0, 0x01
00002BC0  6002                     bra        +0x4 /* 00002BC4 */
label00002BC2:
00002BC2  7000                     moveq.l    D0, 0x00
label00002BC4:
00002BC4  2E1F                     move.l     D7, [A7]+
00002BC6  4E5E                     unlink     A6
00002BC8  4E75                     rts
fn00002BCA:
00002BCA  4E56 0000                link       A6, 0
00002BCE  48E7 0300                movem.l    -[A7], D6,D7
00002BD2  2C2E 0008                move.l     D6, [A6 + 0x8]
00002BD6  4A2D 9642                tst.b      [A5 - 0x69BE]
00002BDA  6724                     beq        +0x26 /* 00002C00 */
00002BDC  4A2D 9643                tst.b      [A5 - 0x69BD]
00002BE0  671E                     beq        +0x20 /* 00002C00 */
00002BE2  2F3C 0008 0000           move.l     -[A7], 0x80000
00002BE8  4EBA 1A76                jsr        [PC + 0x1A76 /* 00004660 */]
00002BEC  2E00                     move.l     D7, D0
00002BEE  4A87                     tst.l      D7
00002BF0  588F                     addq.l     A7, 4
00002BF2  6F08                     ble        +0xA /* 00002BFC */
00002BF4  BC87                     cmp.l      D6, D7
00002BF6  6F04                     ble        +0x6 /* 00002BFC */
00002BF8  7000                     moveq.l    D0, 0x00
00002BFA  6006                     bra        +0x8 /* 00002C02 */
label00002BFC:
00002BFC  7001                     moveq.l    D0, 0x01
00002BFE  6002                     bra        +0x4 /* 00002C02 */
label00002C00:
00002C00  7001                     moveq.l    D0, 0x01
label00002C02:
00002C02  4CDF 00C0                movem.l    D6,D7, [A7]+
00002C06  4E5E                     unlink     A6
00002C08  4E75                     rts
export_30:
fn00002C0A:
00002C0A  4A2D 9642                tst.b      [A5 - 0x69BE]
00002C0E  6730                     beq        +0x32 /* 00002C40 */
00002C10  4A2D 9643                tst.b      [A5 - 0x69BD]
00002C14  672A                     beq        +0x2C /* 00002C40 */
00002C16  2F3C 0009 0000           move.l     -[A7], 0x90000 /* '\t\0\0' */
00002C1C  4EBA 1A42                jsr        [PC + 0x1A42 /* 00004660 */]
00002C20  2EBC 0007 0000           move.l     [A7], 0x70000
00002C26  4EBA 1A38                jsr        [PC + 0x1A38 /* 00004660 */]
00002C2A  4A80                     tst.l      D0
00002C2C  588F                     addq.l     A7, 4
00002C2E  670A                     beq        +0xC /* 00002C3A */
00002C30  4EBA 02C8                jsr        [PC + 0x2C8 /* 00002EFA */]
00002C34  4EBA 0142                jsr        [PC + 0x142 /* 00002D78 */]
00002C38  6006                     bra        +0x8 /* 00002C40 */
label00002C3A:
00002C3A  3B7C FFFF A90E           move.w     [A5 - 0x56F2], 0xFFFF
label00002C40:
00002C40  4E75                     rts
fn00002C42:
00002C42  4A2D 963D                tst.b      [A5 - 0x69C3]
00002C46  6710                     beq        +0x12 /* 00002C58 */
00002C48  4A2D 963E                tst.b      [A5 - 0x69C2]
00002C4C  670A                     beq        +0xC /* 00002C58 */
00002C4E  4EBA 010A                jsr        [PC + 0x10A /* 00002D5A */]
00002C52  1B7C 0001 963F           move.b     [A5 - 0x69C1], 0x1
label00002C58:
00002C58  4A2D 9642                tst.b      [A5 - 0x69BE]
00002C5C  6710                     beq        +0x12 /* 00002C6E */
00002C5E  4A2D 9643                tst.b      [A5 - 0x69BD]
00002C62  670A                     beq        +0xC /* 00002C6E */
00002C64  4EBA 0294                jsr        [PC + 0x294 /* 00002EFA */]
00002C68  1B7C 0001 9644           move.b     [A5 - 0x69BC], 0x1
label00002C6E:
00002C6E  4E75                     rts
fn00002C70:
00002C70  4A2D 963D                tst.b      [A5 - 0x69C3]
00002C74  670E                     beq        +0x10 /* 00002C84 */
00002C76  4A2D 963F                tst.b      [A5 - 0x69C1]
00002C7A  6708                     beq        +0xA /* 00002C84 */
00002C7C  4EBA 00FA                jsr        [PC + 0xFA /* 00002D78 */]
00002C80  422D 963F                clr.b      [A5 - 0x69C1]
label00002C84:
00002C84  4A2D 9642                tst.b      [A5 - 0x69BE]
00002C88  670E                     beq        +0x10 /* 00002C98 */
00002C8A  4A2D 9644                tst.b      [A5 - 0x69BC]
00002C8E  6708                     beq        +0xA /* 00002C98 */
00002C90  4EBA 028A                jsr        [PC + 0x28A /* 00002F1C */]
00002C94  422D 9644                clr.b      [A5 - 0x69BC]
label00002C98:
00002C98  4E75                     rts
fn00002C9A:
00002C9A  48E7 0318                movem.l    -[A7], D6,D7,A3,A4
00002C9E  4A2D 963D                tst.b      [A5 - 0x69C3]
00002CA2  664E                     bne        +0x50 /* 00002CF2 */
00002CA4  4EBA 0254                jsr        [PC + 0x254 /* 00002EFA */]
00002CA8  7E00                     moveq.l    D7, 0x00
00002CAA  47ED A3EE                lea.l      A3, [A5 - 0x5C12]
00002CAE  6020                     bra        +0x22 /* 00002CD0 */
label00002CB0:
00002CB0  3C13                     move.w     D6, [A3]
00002CB2  42A7                     clr.l      -[A7]
00002CB4  2F3C 736E 6420           move.l     -[A7], 0x736E6420 /* 'snd ' */
00002CBA  3F06                     move.w     -[A7], D6
00002CBC  A9A0                     syscall    GetResource
00002CBE  285F                     movea.l    A4, [A7]+
00002CC0  200C                     move.l     D0, A4
00002CC2  6708                     beq        +0xA /* 00002CCC */
00002CC4  204C                     movea.l    A0, A4
00002CC6  A064                     syscall    MoveHHi
00002CC8  204C                     movea.l    A0, A4
00002CCA  A029                     syscall    HLock
label00002CCC:
00002CCC  5247                     addq.w     D7, 1
00002CCE  548B                     addq.l     A3, 2
label00002CD0:
00002CD0  BE6D 9640                cmp.w      D7, [A5 - 0x69C0]
00002CD4  6DDA                     blt        -0x24 /* 00002CB0 */
00002CD6  4227                     clr.b      -[A7]
00002CD8  486D A3EE                pea.l      [A5 - 0x5C12]
00002CDC  4EBA 27D2                jsr        [PC + 0x27D2 /* 000054B0 */]
00002CE0  1B7C 0001 963D           move.b     [A5 - 0x69C3], 0x1
00002CE6  1B7C 0001 963E           move.b     [A5 - 0x69C2], 0x1
00002CEC  A01C                     syscall    FreeMem
00002CEE  A04C                     syscall    CompactMem
00002CF0  5C8F                     addq.l     A7, 6
label00002CF2:
00002CF2  4CDF 18C0                movem.l    D6,D7,A3,A4, [A7]+
00002CF6  4E75                     rts
fn00002CF8:
00002CF8  48E7 0318                movem.l    -[A7], D6,D7,A3,A4
00002CFC  4A2D 963D                tst.b      [A5 - 0x69C3]
00002D00  6752                     beq        +0x54 /* 00002D54 */
00002D02  4EBA 01F6                jsr        [PC + 0x1F6 /* 00002EFA */]
00002D06  4EBA 0070                jsr        [PC + 0x70 /* 00002D78 */]
label00002D0A:
00002D0A  4EBA 2F66                jsr        [PC + 0x2F66 /* 00005C72 */]
00002D0E  4A00                     tst.b      D0
00002D10  67F8                     beq        -0x6 /* 00002D0A */
00002D12  4EBA 287C                jsr        [PC + 0x287C /* 00005590 */]
00002D16  422D 963D                clr.b      [A5 - 0x69C3]
00002D1A  422D 963E                clr.b      [A5 - 0x69C2]
00002D1E  7E00                     moveq.l    D7, 0x00
00002D20  47ED A3EE                lea.l      A3, [A5 - 0x5C12]
00002D24  6020                     bra        +0x22 /* 00002D46 */
label00002D26:
00002D26  3C13                     move.w     D6, [A3]
00002D28  42A7                     clr.l      -[A7]
00002D2A  2F3C 736E 6420           move.l     -[A7], 0x736E6420 /* 'snd ' */
00002D30  3F06                     move.w     -[A7], D6
00002D32  A9A0                     syscall    GetResource
00002D34  285F                     movea.l    A4, [A7]+
00002D36  200C                     move.l     D0, A4
00002D38  6708                     beq        +0xA /* 00002D42 */
00002D3A  204C                     movea.l    A0, A4
00002D3C  A02A                     syscall    HUnlock
00002D3E  204C                     movea.l    A0, A4
00002D40  A049                     syscall    HPurge
label00002D42:
00002D42  5247                     addq.w     D7, 1
00002D44  548B                     addq.l     A3, 2
label00002D46:
00002D46  BE6D 9640                cmp.w      D7, [A5 - 0x69C0]
00002D4A  6DDA                     blt        -0x24 /* 00002D26 */
00002D4C  A01C                     syscall    FreeMem
00002D4E  A04C                     syscall    CompactMem
00002D50  4EBA 01CA                jsr        [PC + 0x1CA /* 00002F1C */]
label00002D54:
00002D54  4CDF 18C0                movem.l    D6,D7,A3,A4, [A7]+
00002D58  4E75                     rts
fn00002D5A:
00002D5A  4A2D 963D                tst.b      [A5 - 0x69C3]
00002D5E  6716                     beq        +0x18 /* 00002D76 */
00002D60  4A2D 963E                tst.b      [A5 - 0x69C2]
00002D64  6710                     beq        +0x12 /* 00002D76 */
00002D66  4EBA 2EA2                jsr        [PC + 0x2EA2 /* 00005C0A */]
00002D6A  4EBA 2848                jsr        [PC + 0x2848 /* 000055B4 */]
00002D6E  422D 963E                clr.b      [A5 - 0x69C2]
00002D72  A01C                     syscall    FreeMem
00002D74  A04C                     syscall    CompactMem
label00002D76:
00002D76  4E75                     rts
fn00002D78:
00002D78  4A2D 963D                tst.b      [A5 - 0x69C3]
00002D7C  6714                     beq        +0x16 /* 00002D92 */
00002D7E  4A2D 963E                tst.b      [A5 - 0x69C2]
00002D82  660E                     bne        +0x10 /* 00002D92 */
00002D84  4EBA 2856                jsr        [PC + 0x2856 /* 000055DC */]
00002D88  1B7C 0001 963E           move.b     [A5 - 0x69C2], 0x1
00002D8E  A01C                     syscall    FreeMem
00002D90  A04C                     syscall    CompactMem
label00002D92:
00002D92  4E75                     rts
fn00002D94:
00002D94  48E7 0338                movem.l    -[A7], D6,D7,A2,A3,A4
00002D98  4A2D 9642                tst.b      [A5 - 0x69BE]
00002D9C  6600 00B6                bne        +0xB8 /* 00002E54 */
00002DA0  4EBA FFB8                jsr        [PC - 0x48 /* 00002D5A */]
00002DA4  4A2D 9645                tst.b      [A5 - 0x69BB]
00002DA8  670A                     beq        +0xC /* 00002DB4 */
00002DAA  4A2D 9618                tst.b      [A5 - 0x69E8]
00002DAE  6704                     beq        +0x6 /* 00002DB4 */
00002DB0  7E00                     moveq.l    D7, 0x00
00002DB2  6006                     bra        +0x8 /* 00002DBA */
label00002DB4:
00002DB4  7E01                     moveq.l    D7, 0x01
00002DB6  422D 9645                clr.b      [A5 - 0x69BB]
label00002DBA:
00002DBA  3F07                     move.w     -[A7], D7
00002DBC  4267                     clr.w      -[A7]
00002DBE  4EBA 18A0                jsr        [PC + 0x18A0 /* 00004660 */]
00002DC2  4A80                     tst.l      D0
00002DC4  588F                     addq.l     A7, 4
00002DC6  6600 008C                bne        +0x8E /* 00002E54 */
00002DCA  2F3C 000D 0001           move.l     -[A7], 0xD0001
00002DD0  4EBA 188E                jsr        [PC + 0x188E /* 00004660 */]
00002DD4  2EBC 000C 0001           move.l     [A7], 0xC0001
00002DDA  4EBA 1884                jsr        [PC + 0x1884 /* 00004660 */]
00002DDE  1B7C 0001 9642           move.b     [A5 - 0x69BE], 0x1
00002DE4  1B7C 0001 9643           move.b     [A5 - 0x69BD], 0x1
00002DEA  7E00                     moveq.l    D7, 0x00
00002DEC  45ED A464                lea.l      A2, [A5 - 0x5B9C]
00002DF0  47ED A4DA                lea.l      A3, [A5 - 0x5B26]
00002DF4  588F                     addq.l     A7, 4
00002DF6  604A                     bra        +0x4C /* 00002E42 */
label00002DF8:
00002DF8  4A2D 9645                tst.b      [A5 - 0x69BB]
00002DFC  6704                     beq        +0x6 /* 00002E02 */
00002DFE  3C13                     move.w     D6, [A3]
00002E00  6002                     bra        +0x4 /* 00002E04 */
label00002E02:
00002E02  3C12                     move.w     D6, [A2]
label00002E04:
00002E04  42A7                     clr.l      -[A7]
00002E06  2F3C 534F 4E47           move.l     -[A7], 0x534F4E47 /* 'SONG' */
00002E0C  3F06                     move.w     -[A7], D6
00002E0E  A9A0                     syscall    GetResource
00002E10  285F                     movea.l    A4, [A7]+
00002E12  200C                     move.l     D0, A4
00002E14  6726                     beq        +0x28 /* 00002E3C */
00002E16  204C                     movea.l    A0, A4
00002E18  A064                     syscall    MoveHHi
00002E1A  204C                     movea.l    A0, A4
00002E1C  A029                     syscall    HLock
00002E1E  2054                     movea.l    A0, [A4]
00002E20  3C10                     move.w     D6, [A0]
00002E22  42A7                     clr.l      -[A7]
00002E24  2F3C 4D49 4449           move.l     -[A7], 0x4D494449 /* 'MIDI' */
00002E2A  3F06                     move.w     -[A7], D6
00002E2C  A9A0                     syscall    GetResource
00002E2E  285F                     movea.l    A4, [A7]+
00002E30  200C                     move.l     D0, A4
00002E32  6708                     beq        +0xA /* 00002E3C */
00002E34  204C                     movea.l    A0, A4
00002E36  A064                     syscall    MoveHHi
00002E38  204C                     movea.l    A0, A4
00002E3A  A029                     syscall    HLock
label00002E3C:
00002E3C  5247                     addq.w     D7, 1
00002E3E  548A                     addq.l     A2, 2
00002E40  548B                     addq.l     A3, 2
label00002E42:
00002E42  BE6D 9646                cmp.w      D7, [A5 - 0x69BA]
00002E46  6DB0                     blt        -0x4E /* 00002DF8 */
00002E48  A01C                     syscall    FreeMem
00002E4A  A04C                     syscall    CompactMem
00002E4C  4EBA 00AC                jsr        [PC + 0xAC /* 00002EFA */]
00002E50  4EBA FF26                jsr        [PC - 0xDA /* 00002D78 */]
label00002E54:
00002E54  4CDF 1CC0                movem.l    D6,D7,A2,A3,A4, [A7]+
00002E58  4E75                     rts
fn00002E5A:
00002E5A  48E7 0738                movem.l    -[A7], D5,D6,D7,A2,A3,A4
00002E5E  4A2D 9642                tst.b      [A5 - 0x69BE]
00002E62  6700 0090                beq        +0x92 /* 00002EF4 */
00002E66  4EBA FEF2                jsr        [PC - 0x10E /* 00002D5A */]
00002E6A  4EBA 00B0                jsr        [PC + 0xB0 /* 00002F1C */]
00002E6E  2F3C 0001 0000           move.l     -[A7], 0x10000
00002E74  4EBA 17EA                jsr        [PC + 0x17EA /* 00004660 */]
00002E78  422D 9642                clr.b      [A5 - 0x69BE]
00002E7C  422D 9643                clr.b      [A5 - 0x69BD]
00002E80  4217                     clr.b      [A7]
00002E82  A99B                     syscall    SetResLoad
00002E84  7C00                     moveq.l    D6, 0x00
00002E86  45ED A464                lea.l      A2, [A5 - 0x5B9C]
00002E8A  47ED A4DA                lea.l      A3, [A5 - 0x5B26]
00002E8E  548F                     addq.l     A7, 2
00002E90  604A                     bra        +0x4C /* 00002EDC */
label00002E92:
00002E92  4A2D 9645                tst.b      [A5 - 0x69BB]
00002E96  6704                     beq        +0x6 /* 00002E9C */
00002E98  3A13                     move.w     D5, [A3]
00002E9A  6002                     bra        +0x4 /* 00002E9E */
label00002E9C:
00002E9C  3A12                     move.w     D5, [A2]
label00002E9E:
00002E9E  42A7                     clr.l      -[A7]
00002EA0  2F3C 534F 4E47           move.l     -[A7], 0x534F4E47 /* 'SONG' */
00002EA6  3F05                     move.w     -[A7], D5
00002EA8  A9A0                     syscall    GetResource
00002EAA  285F                     movea.l    A4, [A7]+
00002EAC  200C                     move.l     D0, A4
00002EAE  6726                     beq        +0x28 /* 00002ED6 */
00002EB0  204C                     movea.l    A0, A4
00002EB2  A02A                     syscall    HUnlock
00002EB4  204C                     movea.l    A0, A4
00002EB6  A049                     syscall    HPurge
00002EB8  2054                     movea.l    A0, [A4]
00002EBA  3A10                     move.w     D5, [A0]
00002EBC  42A7                     clr.l      -[A7]
00002EBE  2F3C 4D49 4449           move.l     -[A7], 0x4D494449 /* 'MIDI' */
00002EC4  3F05                     move.w     -[A7], D5
00002EC6  A9A0                     syscall    GetResource
00002EC8  285F                     movea.l    A4, [A7]+
00002ECA  200C                     move.l     D0, A4
00002ECC  6708                     beq        +0xA /* 00002ED6 */
00002ECE  204C                     movea.l    A0, A4
00002ED0  A02A                     syscall    HUnlock
00002ED2  204C                     movea.l    A0, A4
00002ED4  A049                     syscall    HPurge
label00002ED6:
00002ED6  5246                     addq.w     D6, 1
00002ED8  548A                     addq.l     A2, 2
00002EDA  548B                     addq.l     A3, 2
label00002EDC:
00002EDC  BC6D 9646                cmp.w      D6, [A5 - 0x69BA]
00002EE0  6DB0                     blt        -0x4E /* 00002E92 */
00002EE2  1F3C 0001                move.b     -[A7], 0x1
00002EE6  A99B                     syscall    SetResLoad
00002EE8  422D 9645                clr.b      [A5 - 0x69BB]
00002EEC  A01C                     syscall    FreeMem
00002EEE  A04C                     syscall    CompactMem
00002EF0  4EBA FE86                jsr        [PC - 0x17A /* 00002D78 */]
label00002EF4:
00002EF4  4CDF 1CE0                movem.l    D5,D6,D7,A2,A3,A4, [A7]+
00002EF8  4E75                     rts
fn00002EFA:
00002EFA  4A2D 9642                tst.b      [A5 - 0x69BE]
00002EFE  671A                     beq        +0x1C /* 00002F1A */
00002F00  4A2D 9643                tst.b      [A5 - 0x69BD]
00002F04  6714                     beq        +0x16 /* 00002F1A */
00002F06  2F3C 0005 0000           move.l     -[A7], 0x50000
00002F0C  4EBA 1752                jsr        [PC + 0x1752 /* 00004660 */]
00002F10  422D 9643                clr.b      [A5 - 0x69BD]
00002F14  A01C                     syscall    FreeMem
00002F16  A04C                     syscall    CompactMem
00002F18  588F                     addq.l     A7, 4
label00002F1A:
00002F1A  4E75                     rts
fn00002F1C:
00002F1C  4A2D 9642                tst.b      [A5 - 0x69BE]
00002F20  671C                     beq        +0x1E /* 00002F3E */
00002F22  4A2D 9643                tst.b      [A5 - 0x69BD]
00002F26  6616                     bne        +0x18 /* 00002F3E */
00002F28  2F3C 0006 0000           move.l     -[A7], 0x60000
00002F2E  4EBA 1730                jsr        [PC + 0x1730 /* 00004660 */]
00002F32  1B7C 0001 9643           move.b     [A5 - 0x69BD], 0x1
00002F38  A01C                     syscall    FreeMem
00002F3A  A04C                     syscall    CompactMem
00002F3C  588F                     addq.l     A7, 4
label00002F3E:
00002F3E  4E75                     rts
export_31:
00002F40  4E56 0000                link       A6, 0
00002F44  48E7 3F00                movem.l    -[A7], D2,D3,D4,D5,D6,D7
00002F48  302E 000C                move.w     D0, [A6 + 0xC]
00002F4C  322E 000E                move.w     D1, [A6 + 0xE]
00002F50  4A6D BA32                tst.w      [A5 - 0x45CE]
00002F54  6706                     beq        +0x8 /* 00002F5C */
00002F56  4441                     neg.w      D1
00002F58  D26D A5D0                add.w      D1, [A5 - 0x5A30]
label00002F5C:
00002F5C  3801                     move.w     D4, D1
00002F5E  3A00                     move.w     D5, D0
00002F60  3C01                     move.w     D6, D1
00002F62  3E00                     move.w     D7, D0
00002F64  322E 0008                move.w     D1, [A6 + 0x8]
00002F68  E541                     asl        D1.w, 2
00002F6A  41ED A57A                lea.l      A0, [A5 - 0x5A86]
00002F6E  2070 1000                movea.l    A0, [A0 + D1.w]
00002F72  2008                     move.l     D0, A0
00002F74  6750                     beq        +0x52 /* 00002FC6 */
00002F76  2050                     movea.l    A0, [A0]
00002F78  43ED A59A                lea.l      A1, [A5 - 0x5A66]
00002F7C  2271 1000                movea.l    A1, [A1 + D1.w]
00002F80  2009                     move.l     D0, A1
00002F82  6742                     beq        +0x44 /* 00002FC6 */
00002F84  2251                     movea.l    A1, [A1]
00002F86  322E 000A                move.w     D1, [A6 + 0xA]
00002F8A  E541                     asl        D1.w, 2
00002F8C  2030 1000                move.l     D0, [A0 + D1.w]
00002F90  6B34                     bmi        +0x36 /* 00002FC6 */
00002F92  41F1 0800                lea.l      A0, [A1 + D0]
00002F96  3018                     move.w     D0, [A0]+
00002F98  3218                     move.w     D1, [A0]+
00002F9A  3418                     move.w     D2, [A0]+
00002F9C  3618                     move.w     D3, [A0]+
00002F9E  4A6E 0010                tst.w      [A6 + 0x10]
00002FA2  6A08                     bpl        +0xA /* 00002FAC */
00002FA4  DA42                     add.w      D5, D2
00002FA6  DE42                     add.w      D7, D2
00002FA8  9A40                     sub.w      D5, D0
00002FAA  6006                     bra        +0x8 /* 00002FB2 */
label00002FAC:
00002FAC  9A42                     sub.w      D5, D2
00002FAE  9E42                     sub.w      D7, D2
00002FB0  DE40                     add.w      D7, D0
label00002FB2:
00002FB2  4A6D BA32                tst.w      [A5 - 0x45CE]
00002FB6  6708                     beq        +0xA /* 00002FC0 */
00002FB8  D843                     add.w      D4, D3
00002FBA  DC43                     add.w      D6, D3
00002FBC  9841                     sub.w      D4, D1
00002FBE  6006                     bra        +0x8 /* 00002FC6 */
label00002FC0:
00002FC0  9843                     sub.w      D4, D3
00002FC2  9C43                     sub.w      D6, D3
00002FC4  DC41                     add.w      D6, D1
label00002FC6:
00002FC6  3B44 A5F4                move.w     [A5 - 0x5A0C], D4
00002FCA  3B45 A5F6                move.w     [A5 - 0x5A0A], D5
00002FCE  3B46 A5F8                move.w     [A5 - 0x5A08], D6
00002FD2  3B47 A5FA                move.w     [A5 - 0x5A06], D7
00002FD6  4CDF 00FC                movem.l    D2,D3,D4,D5,D6,D7, [A7]+
00002FDA  4E5E                     unlink     A6
00002FDC  4E75                     rts
export_32:
00002FDE  4E56 FFF8                link       A6, -0x0008
00002FE2  48E7 3F38                movem.l    -[A7], D2,D3,D4,D5,D6,D7,A2,A3,A4
00002FE6  322E 0008                move.w     D1, [A6 + 0x8]
00002FEA  E541                     asl        D1.w, 2
00002FEC  41ED A57A                lea.l      A0, [A5 - 0x5A86]
00002FF0  2070 1000                movea.l    A0, [A0 + D1.w]
00002FF4  2008                     move.l     D0, A0
00002FF6  6700 07A2                beq        +0x7A4 /* 0000379A */
00002FFA  2050                     movea.l    A0, [A0]
00002FFC  43ED A59A                lea.l      A1, [A5 - 0x5A66]
00003000  2271 1000                movea.l    A1, [A1 + D1.w]
00003004  2009                     move.l     D0, A1
00003006  6700 0792                beq        +0x794 /* 0000379A */
0000300A  2251                     movea.l    A1, [A1]
0000300C  322E 000A                move.w     D1, [A6 + 0xA]
00003010  E541                     asl        D1.w, 2
00003012  2030 1000                move.l     D0, [A0 + D1.w]
00003016  6B00 0782                bmi        +0x784 /* 0000379A */
0000301A  49F1 0800                lea.l      A4, [A1 + D0]
0000301E  341C                     move.w     D2, [A4]+
00003020  361C                     move.w     D3, [A4]+
00003022  381C                     move.w     D4, [A4]+
00003024  3A1C                     move.w     D5, [A4]+
00003026  3C2E 000C                move.w     D6, [A6 + 0xC]
0000302A  3202                     move.w     D1, D2
0000302C  5341                     subq.w     D1, 1
0000302E  4A6E 0010                tst.w      [A6 + 0x10]
00003032  6A06                     bpl        +0x8 /* 0000303A */
00003034  5344                     subq.w     D4, 1
00003036  4444                     neg.w      D4
00003038  4441                     neg.w      D1
label0000303A:
0000303A  9C44                     sub.w      D6, D4
0000303C  D246                     add.w      D1, D6
0000303E  3E2E 000E                move.w     D7, [A6 + 0xE]
00003042  4A6D BA32                tst.w      [A5 - 0x45CE]
00003046  670C                     beq        +0xE /* 00003054 */
00003048  3E2D A5D0                move.w     D7, [A5 - 0x5A30]
0000304C  5347                     subq.w     D7, 1
0000304E  9E6E 000E                sub.w      D7, [A6 + 0xE]
00003052  4445                     neg.w      D5
label00003054:
00003054  9E45                     sub.w      D7, D5
00003056  266D A2D2                movea.l    A3, [A5 - 0x5D2E]
0000305A  302D A2DA                move.w     D0, [A5 - 0x5D26]
0000305E  C1C7                     muls.w     D0, D7
00003060  D7C0                     add.l      A3, D0
00003062  3006                     move.w     D0, D6
00003064  E840                     asr        D0.w, 4
00003066  D040                     add.w      D0, D0
00003068  D6C0                     add.w      A3, D0
0000306A  302D A2E4                move.w     D0, [A5 - 0x5D1C]
0000306E  3A2D A2E8                move.w     D5, [A5 - 0x5D18]
00003072  9E40                     sub.w      D7, D0
00003074  9A40                     sub.w      D5, D0
00003076  302D A2E6                move.w     D0, [A5 - 0x5D1A]
0000307A  382D A2EA                move.w     D4, [A5 - 0x5D16]
0000307E  BC40                     cmp.w      D6, D0
00003080  6D16                     blt        +0x18 /* 00003098 */
00003082  BC44                     cmp.w      D6, D4
00003084  6C12                     bge        +0x14 /* 00003098 */
00003086  B240                     cmp.w      D1, D0
00003088  6D0E                     blt        +0x10 /* 00003098 */
0000308A  B244                     cmp.w      D1, D4
0000308C  6C0A                     bge        +0xC /* 00003098 */
0000308E  4A6E 0010                tst.w      [A6 + 0x10]
00003092  6A10                     bpl        +0x12 /* 000030A4 */
00003094  6000 012E                bra        +0x130 /* 000031C4 */
label00003098:
00003098  4A6E 0010                tst.w      [A6 + 0x10]
0000309C  6A00 0292                bpl        +0x294 /* 00003330 */
000030A0  6B00 04A2                bmi        +0x4A4 /* 00003544 */
label000030A4:
000030A4  5343                     subq.w     D3, 1
000030A6  5342                     subq.w     D2, 1
000030A8  3802                     move.w     D4, D2
000030AA  E844                     asr        D4.w, 4
000030AC  700F                     moveq.l    D0, 0x0F
000030AE  C046                     and.w      D0, D6
000030B0  D040                     add.w      D0, D0
000030B2  4843                     swap.w     D3
000030B4  4846                     swap.w     D6
000030B6  4847                     swap.w     D7
000030B8  41ED 9F10                lea.l      A0, [A5 - 0x60F0]
000030BC  3630 0000                move.w     D3, [A0 + D0.w]
000030C0  41ED 9F50                lea.l      A0, [A5 - 0x60B0]
000030C4  3C30 0000                move.w     D6, [A0 + D0.w]
000030C8  3E06                     move.w     D7, D6
000030CA  4647                     not.w      D7
000030CC  4847                     swap.w     D7
000030CE  4846                     swap.w     D6
000030D0  4843                     swap.w     D3
000030D2  3C2D A2DA                move.w     D6, [A5 - 0x5D26]
000030D6  0C40 0010                cmpi.w     D0, 0x10
000030DA  6D10                     blt        +0x12 /* 000030EC */
000030DC  6C00 0080                bge        +0x82 /* 0000315E */
label000030E0:
000030E0  3002                     move.w     D0, D2
000030E2  5240                     addq.w     D0, 1
000030E4  D040                     add.w      D0, D0
000030E6  D040                     add.w      D0, D0
000030E8  D8C0                     add.w      A4, D0
000030EA  6048                     bra        +0x4A /* 00003134 */
label000030EC:
000030EC  204B                     movea.l    A0, A3
000030EE  3404                     move.w     D2, D4
000030F0  BE45                     cmp.w      D7, D5
000030F2  64EC                     bcc        -0x12 /* 000030E0 */
000030F4  4843                     swap.w     D3
000030F6  4844                     swap.w     D4
000030F8  4845                     swap.w     D5
000030FA  4846                     swap.w     D6
000030FC  4847                     swap.w     D7
000030FE  4244                     clr.w      D4
00003100  4644                     not.w      D4
00003102  4245                     clr.w      D5
label00003104:
00003104  221C                     move.l     D1, [A4]+
00003106  E6B9                     ror        D1, D3
00003108  3010                     move.w     D0, [A0]
0000310A  8045                     or.w       D0, D5
0000310C  C044                     and.w      D0, D4
0000310E  3801                     move.w     D4, D1
00003110  8846                     or.w       D4, D6
00003112  C246                     and.w      D1, D6
00003114  8041                     or.w       D0, D1
00003116  4841                     swap.w     D1
00003118  3A01                     move.w     D5, D1
0000311A  CA47                     and.w      D5, D7
0000311C  8247                     or.w       D1, D7
0000311E  C041                     and.w      D0, D1
00003120  30C0                     move.w     [A0]+, D0
00003122  51CA FFE0                dbf        D2, -0x22 /* 00003104 */
00003126  8B50                     or.w       [A0], D5
00003128  C950                     and.w      [A0], D4
0000312A  4847                     swap.w     D7
0000312C  4846                     swap.w     D6
0000312E  4845                     swap.w     D5
00003130  4844                     swap.w     D4
00003132  4843                     swap.w     D3
label00003134:
00003134  4A6D BA32                tst.w      [A5 - 0x45CE]
00003138  660C                     bne        +0xE /* 00003146 */
0000313A  5247                     addq.w     D7, 1
0000313C  D6C6                     add.w      A3, D6
0000313E  51CB FFAC                dbf        D3, -0x56 /* 000030EC */
00003142  6000 0656                bra        +0x658 /* 0000379A */
label00003146:
00003146  5347                     subq.w     D7, 1
00003148  96C6                     sub.w      A3, D6
0000314A  51CB FFA0                dbf        D3, -0x62 /* 000030EC */
0000314E  6000 064A                bra        +0x64C /* 0000379A */
label00003152:
00003152  3002                     move.w     D0, D2
00003154  5240                     addq.w     D0, 1
00003156  D040                     add.w      D0, D0
00003158  D040                     add.w      D0, D0
0000315A  D8C0                     add.w      A4, D0
0000315C  6048                     bra        +0x4A /* 000031A6 */
label0000315E:
0000315E  204B                     movea.l    A0, A3
00003160  3404                     move.w     D2, D4
00003162  BE45                     cmp.w      D7, D5
00003164  64EC                     bcc        -0x12 /* 00003152 */
00003166  4843                     swap.w     D3
00003168  4844                     swap.w     D4
0000316A  4845                     swap.w     D5
0000316C  4846                     swap.w     D6
0000316E  4847                     swap.w     D7
00003170  4244                     clr.w      D4
00003172  4644                     not.w      D4
00003174  4245                     clr.w      D5
label00003176:
00003176  221C                     move.l     D1, [A4]+
00003178  E7B9                     rol        D1, D3
0000317A  3010                     move.w     D0, [A0]
0000317C  C044                     and.w      D0, D4
0000317E  8045                     or.w       D0, D5
00003180  3A01                     move.w     D5, D1
00003182  CA47                     and.w      D5, D7
00003184  8247                     or.w       D1, D7
00003186  C041                     and.w      D0, D1
00003188  4841                     swap.w     D1
0000318A  3801                     move.w     D4, D1
0000318C  8846                     or.w       D4, D6
0000318E  C246                     and.w      D1, D6
00003190  8041                     or.w       D0, D1
00003192  30C0                     move.w     [A0]+, D0
00003194  51CA FFE0                dbf        D2, -0x22 /* 00003176 */
00003198  C950                     and.w      [A0], D4
0000319A  8B50                     or.w       [A0], D5
0000319C  4847                     swap.w     D7
0000319E  4846                     swap.w     D6
000031A0  4845                     swap.w     D5
000031A2  4844                     swap.w     D4
000031A4  4843                     swap.w     D3
label000031A6:
000031A6  4A6D BA32                tst.w      [A5 - 0x45CE]
000031AA  660C                     bne        +0xE /* 000031B8 */
000031AC  5247                     addq.w     D7, 1
000031AE  D6C6                     add.w      A3, D6
000031B0  51CB FFAC                dbf        D3, -0x56 /* 0000315E */
000031B4  6000 05E4                bra        +0x5E6 /* 0000379A */
label000031B8:
000031B8  5347                     subq.w     D7, 1
000031BA  96C6                     sub.w      A3, D6
000031BC  51CB FFA0                dbf        D3, -0x62 /* 0000315E */
000031C0  6000 05D8                bra        +0x5DA /* 0000379A */
label000031C4:
000031C4  5343                     subq.w     D3, 1
000031C6  5342                     subq.w     D2, 1
000031C8  3802                     move.w     D4, D2
000031CA  E844                     asr        D4.w, 4
000031CC  700F                     moveq.l    D0, 0x0F
000031CE  C046                     and.w      D0, D6
000031D0  D040                     add.w      D0, D0
000031D2  4843                     swap.w     D3
000031D4  4846                     swap.w     D6
000031D6  4847                     swap.w     D7
000031D8  41ED 9F30                lea.l      A0, [A5 - 0x60D0]
000031DC  3630 0000                move.w     D3, [A0 + D0.w]
000031E0  41ED 9F70                lea.l      A0, [A5 - 0x6090]
000031E4  3C30 0000                move.w     D6, [A0 + D0.w]
000031E8  3E06                     move.w     D7, D6
000031EA  4647                     not.w      D7
000031EC  4847                     swap.w     D7
000031EE  4846                     swap.w     D6
000031F0  4843                     swap.w     D3
000031F2  45ED 9F90                lea.l      A2, [A5 - 0x6070]
000031F6  3C2D A2DA                move.w     D6, [A5 - 0x5D26]
000031FA  0C40 0010                cmpi.w     D0, 0x10
000031FE  6D10                     blt        +0x12 /* 00003210 */
00003200  6C00 00A4                bge        +0xA6 /* 000032A6 */
label00003204:
00003204  3002                     move.w     D0, D2
00003206  5240                     addq.w     D0, 1
00003208  D040                     add.w      D0, D0
0000320A  D040                     add.w      D0, D0
0000320C  D8C0                     add.w      A4, D0
0000320E  606C                     bra        +0x6E /* 0000327C */
label00003210:
00003210  204B                     movea.l    A0, A3
00003212  3404                     move.w     D2, D4
00003214  BE45                     cmp.w      D7, D5
00003216  64EC                     bcc        -0x12 /* 00003204 */
00003218  4843                     swap.w     D3
0000321A  4844                     swap.w     D4
0000321C  4845                     swap.w     D5
0000321E  4846                     swap.w     D6
00003220  4847                     swap.w     D7
00003222  4244                     clr.w      D4
00003224  4644                     not.w      D4
00003226  4245                     clr.w      D5
label00003228:
00003228  7000                     moveq.l    D0, 0x00
0000322A  221C                     move.l     D1, [A4]+
0000322C  1001                     move.b     D0, D1
0000322E  1232 0000                move.b     D1, [A2 + D0.w]
00003232  E159                     rol        D1.w, 8
00003234  1001                     move.b     D0, D1
00003236  1232 0000                move.b     D1, [A2 + D0.w]
0000323A  4841                     swap.w     D1
0000323C  1001                     move.b     D0, D1
0000323E  1232 0000                move.b     D1, [A2 + D0.w]
00003242  E159                     rol        D1.w, 8
00003244  1001                     move.b     D0, D1
00003246  1232 0000                move.b     D1, [A2 + D0.w]
0000324A  4841                     swap.w     D1
0000324C  E6B9                     ror        D1, D3
0000324E  3010                     move.w     D0, [A0]
00003250  C044                     and.w      D0, D4
00003252  8045                     or.w       D0, D5
00003254  3A01                     move.w     D5, D1
00003256  CA47                     and.w      D5, D7
00003258  8247                     or.w       D1, D7
0000325A  C041                     and.w      D0, D1
0000325C  4841                     swap.w     D1
0000325E  3801                     move.w     D4, D1
00003260  8846                     or.w       D4, D6
00003262  C246                     and.w      D1, D6
00003264  8041                     or.w       D0, D1
00003266  3080                     move.w     [A0], D0
00003268  5588                     subq.l     A0, 2
0000326A  51CA FFBC                dbf        D2, -0x46 /* 00003228 */
0000326E  C950                     and.w      [A0], D4
00003270  8B50                     or.w       [A0], D5
00003272  4847                     swap.w     D7
00003274  4846                     swap.w     D6
00003276  4845                     swap.w     D5
00003278  4844                     swap.w     D4
0000327A  4843                     swap.w     D3
label0000327C:
0000327C  4A6D BA32                tst.w      [A5 - 0x45CE]
00003280  660C                     bne        +0xE /* 0000328E */
00003282  5247                     addq.w     D7, 1
00003284  D6C6                     add.w      A3, D6
00003286  51CB FF88                dbf        D3, -0x7A /* 00003210 */
0000328A  6000 050E                bra        +0x510 /* 0000379A */
label0000328E:
0000328E  5347                     subq.w     D7, 1
00003290  96C6                     sub.w      A3, D6
00003292  51CB FF7C                dbf        D3, -0x86 /* 00003210 */
00003296  6000 0502                bra        +0x504 /* 0000379A */
label0000329A:
0000329A  3002                     move.w     D0, D2
0000329C  5240                     addq.w     D0, 1
0000329E  D040                     add.w      D0, D0
000032A0  D040                     add.w      D0, D0
000032A2  D8C0                     add.w      A4, D0
000032A4  606C                     bra        +0x6E /* 00003312 */
label000032A6:
000032A6  204B                     movea.l    A0, A3
000032A8  3404                     move.w     D2, D4
000032AA  BE45                     cmp.w      D7, D5
000032AC  64EC                     bcc        -0x12 /* 0000329A */
000032AE  4843                     swap.w     D3
000032B0  4844                     swap.w     D4
000032B2  4845                     swap.w     D5
000032B4  4846                     swap.w     D6
000032B6  4847                     swap.w     D7
000032B8  4244                     clr.w      D4
000032BA  4644                     not.w      D4
000032BC  4245                     clr.w      D5
label000032BE:
000032BE  7000                     moveq.l    D0, 0x00
000032C0  221C                     move.l     D1, [A4]+
000032C2  1001                     move.b     D0, D1
000032C4  1232 0000                move.b     D1, [A2 + D0.w]
000032C8  E159                     rol        D1.w, 8
000032CA  1001                     move.b     D0, D1
000032CC  1232 0000                move.b     D1, [A2 + D0.w]
000032D0  4841                     swap.w     D1
000032D2  1001                     move.b     D0, D1
000032D4  1232 0000                move.b     D1, [A2 + D0.w]
000032D8  E159                     rol        D1.w, 8
000032DA  1001                     move.b     D0, D1
000032DC  1232 0000                move.b     D1, [A2 + D0.w]
000032E0  4841                     swap.w     D1
000032E2  E7B9                     rol        D1, D3
000032E4  3010                     move.w     D0, [A0]
000032E6  8045                     or.w       D0, D5
000032E8  C044                     and.w      D0, D4
000032EA  3801                     move.w     D4, D1
000032EC  8846                     or.w       D4, D6
000032EE  C246                     and.w      D1, D6
000032F0  8041                     or.w       D0, D1
000032F2  4841                     swap.w     D1
000032F4  3A01                     move.w     D5, D1
000032F6  CA47                     and.w      D5, D7
000032F8  8247                     or.w       D1, D7
000032FA  C041                     and.w      D0, D1
000032FC  3080                     move.w     [A0], D0
000032FE  5588                     subq.l     A0, 2
00003300  51CA FFBC                dbf        D2, -0x46 /* 000032BE */
00003304  8B50                     or.w       [A0], D5
00003306  C950                     and.w      [A0], D4
00003308  4847                     swap.w     D7
0000330A  4846                     swap.w     D6
0000330C  4845                     swap.w     D5
0000330E  4844                     swap.w     D4
00003310  4843                     swap.w     D3
label00003312:
00003312  4A6D BA32                tst.w      [A5 - 0x45CE]
00003316  660C                     bne        +0xE /* 00003324 */
00003318  5247                     addq.w     D7, 1
0000331A  D6C6                     add.w      A3, D6
0000331C  51CB FF88                dbf        D3, -0x7A /* 000032A6 */
00003320  6000 0478                bra        +0x47A /* 0000379A */
label00003324:
00003324  5347                     subq.w     D7, 1
00003326  96C6                     sub.w      A3, D6
00003328  51CB FF7C                dbf        D3, -0x86 /* 000032A6 */
0000332C  6000 046C                bra        +0x46E /* 0000379A */
label00003330:
00003330  5343                     subq.w     D3, 1
00003332  5342                     subq.w     D2, 1
00003334  3802                     move.w     D4, D2
00003336  E844                     asr        D4.w, 4
00003338  3406                     move.w     D2, D6
0000333A  E842                     asr        D2.w, 4
0000333C  D444                     add.w      D2, D4
0000333E  322D A2E6                move.w     D1, [A5 - 0x5D1A]
00003342  700F                     moveq.l    D0, 0x0F
00003344  C041                     and.w      D0, D1
00003346  E841                     asr        D1.w, 4
00003348  3D42 FFFE                move.w     [A6 - 0x2], D2
0000334C  936E FFFE                sub.w      [A6 - 0x2], D1
00003350  D040                     add.w      D0, D0
00003352  41ED 9F50                lea.l      A0, [A5 - 0x60B0]
00003356  3D70 0000 FFFC           move.w     [A6 - 0x4], [A0 + D0.w]
0000335C  322D A2EA                move.w     D1, [A5 - 0x5D16]
00003360  5341                     subq.w     D1, 1
00003362  700F                     moveq.l    D0, 0x0F
00003364  C041                     and.w      D0, D1
00003366  E841                     asr        D1.w, 4
00003368  3D42 FFFA                move.w     [A6 - 0x6], D2
0000336C  936E FFFA                sub.w      [A6 - 0x6], D1
00003370  D040                     add.w      D0, D0
00003372  41ED 9F70                lea.l      A0, [A5 - 0x6090]
00003376  3D70 0000 FFF8           move.w     [A6 - 0x8], [A0 + D0.w]
0000337C  700F                     moveq.l    D0, 0x0F
0000337E  C046                     and.w      D0, D6
00003380  D040                     add.w      D0, D0
00003382  4843                     swap.w     D3
00003384  4846                     swap.w     D6
00003386  4847                     swap.w     D7
00003388  41ED 9F10                lea.l      A0, [A5 - 0x60F0]
0000338C  3630 0000                move.w     D3, [A0 + D0.w]
00003390  41ED 9F50                lea.l      A0, [A5 - 0x60B0]
00003394  3C30 0000                move.w     D6, [A0 + D0.w]
00003398  3E06                     move.w     D7, D6
0000339A  4647                     not.w      D7
0000339C  4847                     swap.w     D7
0000339E  4846                     swap.w     D6
000033A0  4843                     swap.w     D3
000033A2  3C2D A2DA                move.w     D6, [A5 - 0x5D26]
000033A6  0C40 0010                cmpi.w     D0, 0x10
000033AA  6D12                     blt        +0x14 /* 000033BE */
000033AC  6C00 00DA                bge        +0xDC /* 00003488 */
label000033B0:
000033B0  3002                     move.w     D0, D2
000033B2  5240                     addq.w     D0, 1
000033B4  D040                     add.w      D0, D0
000033B6  D040                     add.w      D0, D0
000033B8  D8C0                     add.w      A4, D0
000033BA  6000 00A0                bra        +0xA2 /* 0000345C */
label000033BE:
000033BE  204B                     movea.l    A0, A3
000033C0  3404                     move.w     D2, D4
000033C2  BE45                     cmp.w      D7, D5
000033C4  64EA                     bcc        -0x14 /* 000033B0 */
000033C6  4843                     swap.w     D3
000033C8  4844                     swap.w     D4
000033CA  4845                     swap.w     D5
000033CC  4846                     swap.w     D6
000033CE  4847                     swap.w     D7
000033D0  4244                     clr.w      D4
000033D2  4644                     not.w      D4
000033D4  4245                     clr.w      D5
label000033D6:
000033D6  221C                     move.l     D1, [A4]+
000033D8  E6B9                     ror        D1, D3
000033DA  3010                     move.w     D0, [A0]
000033DC  8045                     or.w       D0, D5
000033DE  C044                     and.w      D0, D4
000033E0  3801                     move.w     D4, D1
000033E2  8846                     or.w       D4, D6
000033E4  C246                     and.w      D1, D6
000033E6  8041                     or.w       D0, D1
000033E8  4841                     swap.w     D1
000033EA  3A01                     move.w     D5, D1
000033EC  CA47                     and.w      D5, D7
000033EE  8247                     or.w       D1, D7
000033F0  C041                     and.w      D0, D1
000033F2  B46E FFFE                cmp.w      D2, [A6 - 0x2]
000033F6  6D0E                     blt        +0x10 /* 00003406 */
000033F8  6E22                     bgt        +0x24 /* 0000341C */
000033FA  322E FFFC                move.w     D1, [A6 - 0x4]
000033FE  C041                     and.w      D0, D1
00003400  4641                     not.w      D1
00003402  C250                     and.w      D1, [A0]
00003404  8041                     or.w       D0, D1
label00003406:
00003406  B46E FFFA                cmp.w      D2, [A6 - 0x6]
0000340A  6E0E                     bgt        +0x10 /* 0000341A */
0000340C  6D0E                     blt        +0x10 /* 0000341C */
0000340E  322E FFF8                move.w     D1, [A6 - 0x8]
00003412  C041                     and.w      D0, D1
00003414  4641                     not.w      D1
00003416  C250                     and.w      D1, [A0]
00003418  8041                     or.w       D0, D1
label0000341A:
0000341A  3080                     move.w     [A0], D0
label0000341C:
0000341C  5488                     addq.l     A0, 2
0000341E  51CA FFB6                dbf        D2, -0x4C /* 000033D6 */
00003422  3010                     move.w     D0, [A0]
00003424  8045                     or.w       D0, D5
00003426  C044                     and.w      D0, D4
00003428  B46E FFFE                cmp.w      D2, [A6 - 0x2]
0000342C  6D0E                     blt        +0x10 /* 0000343C */
0000342E  6E22                     bgt        +0x24 /* 00003452 */
00003430  322E FFFC                move.w     D1, [A6 - 0x4]
00003434  C041                     and.w      D0, D1
00003436  4641                     not.w      D1
00003438  C250                     and.w      D1, [A0]
0000343A  8041                     or.w       D0, D1
label0000343C:
0000343C  B46E FFFA                cmp.w      D2, [A6 - 0x6]
00003440  6E0E                     bgt        +0x10 /* 00003450 */
00003442  6D0E                     blt        +0x10 /* 00003452 */
00003444  322E FFF8                move.w     D1, [A6 - 0x8]
00003448  C041                     and.w      D0, D1
0000344A  4641                     not.w      D1
0000344C  C250                     and.w      D1, [A0]
0000344E  8041                     or.w       D0, D1
label00003450:
00003450  3080                     move.w     [A0], D0
label00003452:
00003452  4847                     swap.w     D7
00003454  4846                     swap.w     D6
00003456  4845                     swap.w     D5
00003458  4844                     swap.w     D4
0000345A  4843                     swap.w     D3
label0000345C:
0000345C  4A6D BA32                tst.w      [A5 - 0x45CE]
00003460  660C                     bne        +0xE /* 0000346E */
00003462  5247                     addq.w     D7, 1
00003464  D6C6                     add.w      A3, D6
00003466  51CB FF56                dbf        D3, -0xAC /* 000033BE */
0000346A  6000 032E                bra        +0x330 /* 0000379A */
label0000346E:
0000346E  5347                     subq.w     D7, 1
00003470  96C6                     sub.w      A3, D6
00003472  51CB FF4A                dbf        D3, -0xB8 /* 000033BE */
00003476  6000 0322                bra        +0x324 /* 0000379A */
label0000347A:
0000347A  3002                     move.w     D0, D2
0000347C  5240                     addq.w     D0, 1
0000347E  D040                     add.w      D0, D0
00003480  D040                     add.w      D0, D0
00003482  D8C0                     add.w      A4, D0
00003484  6000 00A0                bra        +0xA2 /* 00003526 */
label00003488:
00003488  204B                     movea.l    A0, A3
0000348A  3404                     move.w     D2, D4
0000348C  BE45                     cmp.w      D7, D5
0000348E  64EA                     bcc        -0x14 /* 0000347A */
00003490  4843                     swap.w     D3
00003492  4844                     swap.w     D4
00003494  4845                     swap.w     D5
00003496  4846                     swap.w     D6
00003498  4847                     swap.w     D7
0000349A  4244                     clr.w      D4
0000349C  4644                     not.w      D4
0000349E  4245                     clr.w      D5
label000034A0:
000034A0  221C                     move.l     D1, [A4]+
000034A2  E7B9                     rol        D1, D3
000034A4  3010                     move.w     D0, [A0]
000034A6  C044                     and.w      D0, D4
000034A8  8045                     or.w       D0, D5
000034AA  3A01                     move.w     D5, D1
000034AC  CA47                     and.w      D5, D7
000034AE  8247                     or.w       D1, D7
000034B0  C041                     and.w      D0, D1
000034B2  4841                     swap.w     D1
000034B4  3801                     move.w     D4, D1
000034B6  8846                     or.w       D4, D6
000034B8  C246                     and.w      D1, D6
000034BA  8041                     or.w       D0, D1
000034BC  B46E FFFE                cmp.w      D2, [A6 - 0x2]
000034C0  6D0E                     blt        +0x10 /* 000034D0 */
000034C2  6E22                     bgt        +0x24 /* 000034E6 */
000034C4  322E FFFC                move.w     D1, [A6 - 0x4]
000034C8  C041                     and.w      D0, D1
000034CA  4641                     not.w      D1
000034CC  C250                     and.w      D1, [A0]
000034CE  8041                     or.w       D0, D1
label000034D0:
000034D0  B46E FFFA                cmp.w      D2, [A6 - 0x6]
000034D4  6E0E                     bgt        +0x10 /* 000034E4 */
000034D6  6D0E                     blt        +0x10 /* 000034E6 */
000034D8  322E FFF8                move.w     D1, [A6 - 0x8]
000034DC  C041                     and.w      D0, D1
000034DE  4641                     not.w      D1
000034E0  C250                     and.w      D1, [A0]
000034E2  8041                     or.w       D0, D1
label000034E4:
000034E4  3080                     move.w     [A0], D0
label000034E6:
000034E6  5488                     addq.l     A0, 2
000034E8  51CA FFB6                dbf        D2, -0x4C /* 000034A0 */
000034EC  3010                     move.w     D0, [A0]
000034EE  C044                     and.w      D0, D4
000034F0  8045                     or.w       D0, D5
000034F2  B46E FFFE                cmp.w      D2, [A6 - 0x2]
000034F6  6D0E                     blt        +0x10 /* 00003506 */
000034F8  6E22                     bgt        +0x24 /* 0000351C */
000034FA  322E FFFC                move.w     D1, [A6 - 0x4]
000034FE  C041                     and.w      D0, D1
00003500  4641                     not.w      D1
00003502  C250                     and.w      D1, [A0]
00003504  8041                     or.w       D0, D1
label00003506:
00003506  B46E FFFA                cmp.w      D2, [A6 - 0x6]
0000350A  6E0E                     bgt        +0x10 /* 0000351A */
0000350C  6D0E                     blt        +0x10 /* 0000351C */
0000350E  322E FFF8                move.w     D1, [A6 - 0x8]
00003512  C041                     and.w      D0, D1
00003514  4641                     not.w      D1
00003516  C250                     and.w      D1, [A0]
00003518  8041                     or.w       D0, D1
label0000351A:
0000351A  3080                     move.w     [A0], D0
label0000351C:
0000351C  4847                     swap.w     D7
0000351E  4846                     swap.w     D6
00003520  4845                     swap.w     D5
00003522  4844                     swap.w     D4
00003524  4843                     swap.w     D3
label00003526:
00003526  4A6D BA32                tst.w      [A5 - 0x45CE]
0000352A  660C                     bne        +0xE /* 00003538 */
0000352C  5247                     addq.w     D7, 1
0000352E  D6C6                     add.w      A3, D6
00003530  51CB FF56                dbf        D3, -0xAC /* 00003488 */
00003534  6000 0264                bra        +0x266 /* 0000379A */
label00003538:
00003538  5347                     subq.w     D7, 1
0000353A  96C6                     sub.w      A3, D6
0000353C  51CB FF4A                dbf        D3, -0xB8 /* 00003488 */
00003540  6000 0258                bra        +0x25A /* 0000379A */
label00003544:
00003544  5343                     subq.w     D3, 1
00003546  5342                     subq.w     D2, 1
00003548  3802                     move.w     D4, D2
0000354A  E844                     asr        D4.w, 4
0000354C  3406                     move.w     D2, D6
0000354E  E842                     asr        D2.w, 4
00003550  9444                     sub.w      D2, D4
00003552  322D A2E6                move.w     D1, [A5 - 0x5D1A]
00003556  700F                     moveq.l    D0, 0x0F
00003558  C041                     and.w      D0, D1
0000355A  E841                     asr        D1.w, 4
0000355C  3D41 FFFE                move.w     [A6 - 0x2], D1
00003560  956E FFFE                sub.w      [A6 - 0x2], D2
00003564  D040                     add.w      D0, D0
00003566  41ED 9F50                lea.l      A0, [A5 - 0x60B0]
0000356A  3D70 0000 FFFC           move.w     [A6 - 0x4], [A0 + D0.w]
00003570  322D A2EA                move.w     D1, [A5 - 0x5D16]
00003574  5341                     subq.w     D1, 1
00003576  700F                     moveq.l    D0, 0x0F
00003578  C041                     and.w      D0, D1
0000357A  E841                     asr        D1.w, 4
0000357C  3D41 FFFA                move.w     [A6 - 0x6], D1
00003580  956E FFFA                sub.w      [A6 - 0x6], D2
00003584  D040                     add.w      D0, D0
00003586  41ED 9F70                lea.l      A0, [A5 - 0x6090]
0000358A  3D70 0000 FFF8           move.w     [A6 - 0x8], [A0 + D0.w]
00003590  700F                     moveq.l    D0, 0x0F
00003592  C046                     and.w      D0, D6
00003594  D040                     add.w      D0, D0
00003596  4843                     swap.w     D3
00003598  4846                     swap.w     D6
0000359A  4847                     swap.w     D7
0000359C  41ED 9F30                lea.l      A0, [A5 - 0x60D0]
000035A0  3630 0000                move.w     D3, [A0 + D0.w]
000035A4  41ED 9F70                lea.l      A0, [A5 - 0x6090]
000035A8  3C30 0000                move.w     D6, [A0 + D0.w]
000035AC  3E06                     move.w     D7, D6
000035AE  4647                     not.w      D7
000035B0  4847                     swap.w     D7
000035B2  4846                     swap.w     D6
000035B4  4843                     swap.w     D3
000035B6  45ED 9F90                lea.l      A2, [A5 - 0x6070]
000035BA  3C2D A2DA                move.w     D6, [A5 - 0x5D26]
000035BE  0C40 0010                cmpi.w     D0, 0x10
000035C2  6D12                     blt        +0x14 /* 000035D6 */
000035C4  6C00 00FC                bge        +0xFE /* 000036C2 */
label000035C8:
000035C8  3002                     move.w     D0, D2
000035CA  5240                     addq.w     D0, 1
000035CC  D040                     add.w      D0, D0
000035CE  D040                     add.w      D0, D0
000035D0  D8C0                     add.w      A4, D0
000035D2  6000 00C2                bra        +0xC4 /* 00003696 */
label000035D6:
000035D6  204B                     movea.l    A0, A3
000035D8  3404                     move.w     D2, D4
000035DA  BE45                     cmp.w      D7, D5
000035DC  64EA                     bcc        -0x14 /* 000035C8 */
000035DE  4843                     swap.w     D3
000035E0  4844                     swap.w     D4
000035E2  4845                     swap.w     D5
000035E4  4846                     swap.w     D6
000035E6  4847                     swap.w     D7
000035E8  4244                     clr.w      D4
000035EA  4644                     not.w      D4
000035EC  4245                     clr.w      D5
label000035EE:
000035EE  7000                     moveq.l    D0, 0x00
000035F0  221C                     move.l     D1, [A4]+
000035F2  1001                     move.b     D0, D1
000035F4  1232 0000                move.b     D1, [A2 + D0.w]
000035F8  E159                     rol        D1.w, 8
000035FA  1001                     move.b     D0, D1
000035FC  1232 0000                move.b     D1, [A2 + D0.w]
00003600  4841                     swap.w     D1
00003602  1001                     move.b     D0, D1
00003604  1232 0000                move.b     D1, [A2 + D0.w]
00003608  E159                     rol        D1.w, 8
0000360A  1001                     move.b     D0, D1
0000360C  1232 0000                move.b     D1, [A2 + D0.w]
00003610  4841                     swap.w     D1
00003612  E6B9                     ror        D1, D3
00003614  3010                     move.w     D0, [A0]
00003616  C044                     and.w      D0, D4
00003618  8045                     or.w       D0, D5
0000361A  3A01                     move.w     D5, D1
0000361C  CA47                     and.w      D5, D7
0000361E  8247                     or.w       D1, D7
00003620  C041                     and.w      D0, D1
00003622  4841                     swap.w     D1
00003624  3801                     move.w     D4, D1
00003626  8846                     or.w       D4, D6
00003628  C246                     and.w      D1, D6
0000362A  8041                     or.w       D0, D1
0000362C  B46E FFFA                cmp.w      D2, [A6 - 0x6]
00003630  6D0E                     blt        +0x10 /* 00003640 */
00003632  6E22                     bgt        +0x24 /* 00003656 */
00003634  322E FFF8                move.w     D1, [A6 - 0x8]
00003638  C041                     and.w      D0, D1
0000363A  4641                     not.w      D1
0000363C  C250                     and.w      D1, [A0]
0000363E  8041                     or.w       D0, D1
label00003640:
00003640  B46E FFFE                cmp.w      D2, [A6 - 0x2]
00003644  6E0E                     bgt        +0x10 /* 00003654 */
00003646  6D0E                     blt        +0x10 /* 00003656 */
00003648  322E FFFC                move.w     D1, [A6 - 0x4]
0000364C  C041                     and.w      D0, D1
0000364E  4641                     not.w      D1
00003650  C250                     and.w      D1, [A0]
00003652  8041                     or.w       D0, D1
label00003654:
00003654  3080                     move.w     [A0], D0
label00003656:
00003656  5588                     subq.l     A0, 2
00003658  51CA FF94                dbf        D2, -0x6E /* 000035EE */
0000365C  3010                     move.w     D0, [A0]
0000365E  C044                     and.w      D0, D4
00003660  8045                     or.w       D0, D5
00003662  B46E FFFA                cmp.w      D2, [A6 - 0x6]
00003666  6D0E                     blt        +0x10 /* 00003676 */
00003668  6E22                     bgt        +0x24 /* 0000368C */
0000366A  322E FFF8                move.w     D1, [A6 - 0x8]
0000366E  C041                     and.w      D0, D1
00003670  4641                     not.w      D1
00003672  C250                     and.w      D1, [A0]
00003674  8041                     or.w       D0, D1
label00003676:
00003676  B46E FFFE                cmp.w      D2, [A6 - 0x2]
0000367A  6E0E                     bgt        +0x10 /* 0000368A */
0000367C  6D0E                     blt        +0x10 /* 0000368C */
0000367E  322E FFFC                move.w     D1, [A6 - 0x4]
00003682  C041                     and.w      D0, D1
00003684  4641                     not.w      D1
00003686  C250                     and.w      D1, [A0]
00003688  8041                     or.w       D0, D1
label0000368A:
0000368A  3080                     move.w     [A0], D0
label0000368C:
0000368C  4847                     swap.w     D7
0000368E  4846                     swap.w     D6
00003690  4845                     swap.w     D5
00003692  4844                     swap.w     D4
00003694  4843                     swap.w     D3
label00003696:
00003696  4A6D BA32                tst.w      [A5 - 0x45CE]
0000369A  660C                     bne        +0xE /* 000036A8 */
0000369C  5247                     addq.w     D7, 1
0000369E  D6C6                     add.w      A3, D6
000036A0  51CB FF34                dbf        D3, -0xCE /* 000035D6 */
000036A4  6000 00F4                bra        +0xF6 /* 0000379A */
label000036A8:
000036A8  5347                     subq.w     D7, 1
000036AA  96C6                     sub.w      A3, D6
000036AC  51CB FF28                dbf        D3, -0xDA /* 000035D6 */
000036B0  6000 00E8                bra        +0xEA /* 0000379A */
label000036B4:
000036B4  3002                     move.w     D0, D2
000036B6  5240                     addq.w     D0, 1
000036B8  D040                     add.w      D0, D0
000036BA  D040                     add.w      D0, D0
000036BC  D8C0                     add.w      A4, D0
000036BE  6000 00C2                bra        +0xC4 /* 00003782 */
label000036C2:
000036C2  204B                     movea.l    A0, A3
000036C4  3404                     move.w     D2, D4
000036C6  BE45                     cmp.w      D7, D5
000036C8  64EA                     bcc        -0x14 /* 000036B4 */
000036CA  4843                     swap.w     D3
000036CC  4844                     swap.w     D4
000036CE  4845                     swap.w     D5
000036D0  4846                     swap.w     D6
000036D2  4847                     swap.w     D7
000036D4  4244                     clr.w      D4
000036D6  4644                     not.w      D4
000036D8  4245                     clr.w      D5
label000036DA:
000036DA  7000                     moveq.l    D0, 0x00
000036DC  221C                     move.l     D1, [A4]+
000036DE  1001                     move.b     D0, D1
000036E0  1232 0000                move.b     D1, [A2 + D0.w]
000036E4  E159                     rol        D1.w, 8
000036E6  1001                     move.b     D0, D1
000036E8  1232 0000                move.b     D1, [A2 + D0.w]
000036EC  4841                     swap.w     D1
000036EE  1001                     move.b     D0, D1
000036F0  1232 0000                move.b     D1, [A2 + D0.w]
000036F4  E159                     rol        D1.w, 8
000036F6  1001                     move.b     D0, D1
000036F8  1232 0000                move.b     D1, [A2 + D0.w]
000036FC  4841                     swap.w     D1
000036FE  E7B9                     rol        D1, D3
00003700  3010                     move.w     D0, [A0]
00003702  8045                     or.w       D0, D5
00003704  C044                     and.w      D0, D4
00003706  3801                     move.w     D4, D1
00003708  8846                     or.w       D4, D6
0000370A  C246                     and.w      D1, D6
0000370C  8041                     or.w       D0, D1
0000370E  4841                     swap.w     D1
00003710  3A01                     move.w     D5, D1
00003712  CA47                     and.w      D5, D7
00003714  8247                     or.w       D1, D7
00003716  C041                     and.w      D0, D1
00003718  B46E FFFA                cmp.w      D2, [A6 - 0x6]
0000371C  6D0E                     blt        +0x10 /* 0000372C */
0000371E  6E22                     bgt        +0x24 /* 00003742 */
00003720  322E FFF8                move.w     D1, [A6 - 0x8]
00003724  C041                     and.w      D0, D1
00003726  4641                     not.w      D1
00003728  C250                     and.w      D1, [A0]
0000372A  8041                     or.w       D0, D1
label0000372C:
0000372C  B46E FFFE                cmp.w      D2, [A6 - 0x2]
00003730  6E0E                     bgt        +0x10 /* 00003740 */
00003732  6D0E                     blt        +0x10 /* 00003742 */
00003734  322E FFFC                move.w     D1, [A6 - 0x4]
00003738  C041                     and.w      D0, D1
0000373A  4641                     not.w      D1
0000373C  C250                     and.w      D1, [A0]
0000373E  8041                     or.w       D0, D1
label00003740:
00003740  3080                     move.w     [A0], D0
label00003742:
00003742  5588                     subq.l     A0, 2
00003744  51CA FF94                dbf        D2, -0x6E /* 000036DA */
00003748  3010                     move.w     D0, [A0]
0000374A  8045                     or.w       D0, D5
0000374C  C044                     and.w      D0, D4
0000374E  B46E FFFA                cmp.w      D2, [A6 - 0x6]
00003752  6D0E                     blt        +0x10 /* 00003762 */
00003754  6E22                     bgt        +0x24 /* 00003778 */
00003756  322E FFF8                move.w     D1, [A6 - 0x8]
0000375A  C041                     and.w      D0, D1
0000375C  4641                     not.w      D1
0000375E  C250                     and.w      D1, [A0]
00003760  8041                     or.w       D0, D1
label00003762:
00003762  B46E FFFE                cmp.w      D2, [A6 - 0x2]
00003766  6E0E                     bgt        +0x10 /* 00003776 */
00003768  6D0E                     blt        +0x10 /* 00003778 */
0000376A  322E FFFC                move.w     D1, [A6 - 0x4]
0000376E  C041                     and.w      D0, D1
00003770  4641                     not.w      D1
00003772  C250                     and.w      D1, [A0]
00003774  8041                     or.w       D0, D1
label00003776:
00003776  3080                     move.w     [A0], D0
label00003778:
00003778  4847                     swap.w     D7
0000377A  4846                     swap.w     D6
0000377C  4845                     swap.w     D5
0000377E  4844                     swap.w     D4
00003780  4843                     swap.w     D3
label00003782:
00003782  4A6D BA32                tst.w      [A5 - 0x45CE]
00003786  660A                     bne        +0xC /* 00003792 */
00003788  5247                     addq.w     D7, 1
0000378A  D6C6                     add.w      A3, D6
0000378C  51CB FF34                dbf        D3, -0xCE /* 000036C2 */
00003790  6008                     bra        +0xA /* 0000379A */
label00003792:
00003792  5347                     subq.w     D7, 1
00003794  96C6                     sub.w      A3, D6
00003796  51CB FF2A                dbf        D3, -0xD8 /* 000036C2 */
label0000379A:
0000379A  4CDF 1CFC                movem.l    D2,D3,D4,D5,D6,D7,A2,A3,A4, [A7]+
0000379E  4E5E                     unlink     A6
000037A0  4E75                     rts
export_33:
000037A2  4E56 0000                link       A6, 0
000037A6  48E7 3F10                movem.l    -[A7], D2,D3,D4,D5,D6,D7,A3
000037AA  206E 0008                movea.l    A0, [A6 + 0x8]
000037AE  3818                     move.w     D4, [A0]+
000037B0  3A18                     move.w     D5, [A0]+
000037B2  3C18                     move.w     D6, [A0]+
000037B4  3E18                     move.w     D7, [A0]+
000037B6  3406                     move.w     D2, D6
000037B8  9444                     sub.w      D2, D4
000037BA  3004                     move.w     D0, D4
000037BC  7207                     moveq.l    D1, 0x07
000037BE  3805                     move.w     D4, D5
000037C0  E644                     asr        D4.w, 3
000037C2  CA41                     and.w      D5, D1
000037C4  5347                     subq.w     D7, 1
000037C6  3C07                     move.w     D6, D7
000037C8  E646                     asr        D6.w, 3
000037CA  CE41                     and.w      D7, D1
000037CC  9C44                     sub.w      D6, D4
000037CE  5346                     subq.w     D6, 1
000037D0  266D A2D2                movea.l    A3, [A5 - 0x5D2E]
000037D4  362D A2DA                move.w     D3, [A5 - 0x5D26]
000037D8  C1C3                     muls.w     D0, D3
000037DA  D7C0                     add.l      A3, D0
000037DC  D6C4                     add.w      A3, D4
000037DE  7000                     moveq.l    D0, 0x00
000037E0  102E 000C                move.b     D0, [A6 + 0xC]
000037E4  673A                     beq        +0x3C /* 00003820 */
000037E6  1A3B 5028                move.b     D5, [PC + D5.w + 0x28]
000037EA  1E3B 702C                move.b     D7, [PC + D7.w + 0x2C]
000037EE  601A                     bra        +0x1C /* 0000380A */
label000037F0:
000037F0  1205                     move.b     D1, D5
000037F2  204B                     movea.l    A0, A3
000037F4  3006                     move.w     D0, D6
000037F6  6B0C                     bmi        +0xE /* 00003804 */
000037F8  8318                     or.b       [A0]+, D1
000037FA  72FF                     moveq.l    D1, 0xFFFFFFFF
000037FC  6002                     bra        +0x4 /* 00003800 */
label000037FE:
000037FE  10C1                     move.b     [A0]+, D1
label00003800:
00003800  51C8 FFFC                dbf        D0, -0x6 /* 000037FE */
label00003804:
00003804  C207                     and.b      D1, D7
00003806  8318                     or.b       [A0]+, D1
00003808  D6C3                     add.w      A3, D3
label0000380A:
0000380A  51CA FFE4                dbf        D2, -0x1E /* 000037F0 */
0000380E  604A                     bra        +0x4C /* 0000385A */
00003810  FF7F                     .extension 0xF7F <<F/4-5/7>> // unimplemented
00003812  3F1F                     move.w     -[A7], [A7]+
00003814  0F07                     btst       D7, D7
00003816  0301                     btst       D1, D1
00003818  80C0                     divu.w     D0, D0
0000381A  E0F0 F8FC                asr   .w   [A0 + A7 - 0x4]
0000381E  FEFF 1A3B                .extension 0xEFF <<F/2-3/7>> // unimplemented
// begin alternate branch 00003820-00003828
label00003820:
00003820  1A3B 5028                move.b     D5, [PC + D5.w + 0x28]
00003824  1E3B 702C                move.b     D7, [PC + D7.w + 0x2C]
// end alternate branch 00003820-00003828
label00003820: // (misaligned)
00003822  5028 1E3B                addq.b     [A0 + 0x1E3B], 8
00003826  702C                     moveq.l    D0, 0x2C
00003828  601A                     bra        +0x1C /* 00003844 */
label0000382A:
0000382A  1205                     move.b     D1, D5
0000382C  204B                     movea.l    A0, A3
0000382E  3006                     move.w     D0, D6
00003830  6B0C                     bmi        +0xE /* 0000383E */
00003832  C318                     and.b      [A0]+, D1
00003834  7200                     moveq.l    D1, 0x00
00003836  6002                     bra        +0x4 /* 0000383A */
label00003838:
00003838  10C1                     move.b     [A0]+, D1
label0000383A:
0000383A  51C8 FFFC                dbf        D0, -0x6 /* 00003838 */
label0000383E:
0000383E  8207                     or.b       D1, D7
00003840  C318                     and.b      [A0]+, D1
00003842  D6C3                     add.w      A3, D3
label00003844:
00003844  51CA FFE4                dbf        D2, -0x1E /* 0000382A */
00003848  6010                     bra        +0x12 /* 0000385A */
0000384A  0080 C0E0 F0F8           ori.l      D0, 0xC0E0F0F8
00003850  FCFE 7F3F                .extension 0xCFE <<F/2-3/6>> // unimplemented
00003854  1F0F                     move.b     -[A7], A7
00003856  0703                     btst       D3, D3
00003858  0100                     btst       D0, D0
label0000385A:
0000385A  4CDF 08FC                movem.l    D2,D3,D4,D5,D6,D7,A3, [A7]+
0000385E  4E5E                     unlink     A6
00003860  4E75                     rts
export_34:
00003862  4E56 0000                link       A6, 0
00003866  48E7 1F18                movem.l    -[A7], D3,D4,D5,D6,D7,A3,A4
0000386A  99CC                     sub.l      A4, A4
0000386C  206E 0008                movea.l    A0, [A6 + 0x8]
00003870  3818                     move.w     D4, [A0]+
00003872  3A18                     move.w     D5, [A0]+
00003874  3C18                     move.w     D6, [A0]+
00003876  3E18                     move.w     D7, [A0]+
00003878  9C44                     sub.w      D6, D4
0000387A  6300 00C2                bls        +0xC4 /* 0000393E */
0000387E  E845                     asr        D5.w, 4
00003880  0647 000F                addi.w     D7, 0xF
00003884  E847                     asr        D7.w, 4
00003886  9E45                     sub.w      D7, D5
00003888  6300 00B4                bls        +0xB6 /* 0000393E */
0000388C  3006                     move.w     D0, D6
0000388E  C0C7                     mulu.w     D0, D7
00003890  D080                     add.l      D0, D0
00003892  A122                     syscall    NewHandle, flags=1
00003894  4A40                     tst.w      D0
00003896  6600 00A6                bne        +0xA8 /* 0000393E */
0000389A  2848                     movea.l    A4, A0
0000389C  266D A2D2                movea.l    A3, [A5 - 0x5D2E]
000038A0  362D A2DA                move.w     D3, [A5 - 0x5D26]
000038A4  C9C3                     muls.w     D4, D3
000038A6  D7C4                     add.l      A3, D4
000038A8  DA45                     add.w      D5, D5
000038AA  D6C5                     add.w      A3, D5
000038AC  2054                     movea.l    A0, [A4]
000038AE  5346                     subq.w     D6, 1
000038B0  5347                     subq.w     D7, 1
000038B2  7007                     moveq.l    D0, 0x07
000038B4  C047                     and.w      D0, D7
000038B6  D040                     add.w      D0, D0
000038B8  4EFB 0002                jmp        [PC + D0.w + 0x2]
000038BC  600E                     bra        +0x10 /* 000038CC */
000038BE  6016                     bra        +0x18 /* 000038D6 */
000038C0  601E                     bra        +0x20 /* 000038E0 */
000038C2  602A                     bra        +0x2C /* 000038EE */
000038C4  6036                     bra        +0x38 /* 000038FC */
000038C6  6044                     bra        +0x46 /* 0000390C */
000038C8  6052                     bra        +0x54 /* 0000391C */
000038CA  6062                     bra        +0x64 /* 0000392E */
label000038CC:
000038CC  30D3                     move.w     [A0]+, [A3]
000038CE  D6C3                     add.w      A3, D3
000038D0  51CE FFFA                dbf        D6, -0x8 /* 000038CC */
000038D4  6068                     bra        +0x6A /* 0000393E */
label000038D6:
000038D6  20D3                     move.l     [A0]+, [A3]
000038D8  D6C3                     add.w      A3, D3
000038DA  51CE FFFA                dbf        D6, -0x8 /* 000038D6 */
000038DE  605E                     bra        +0x60 /* 0000393E */
label000038E0:
000038E0  224B                     movea.l    A1, A3
000038E2  20D9                     move.l     [A0]+, [A1]+
000038E4  30D9                     move.w     [A0]+, [A1]+
000038E6  D6C3                     add.w      A3, D3
000038E8  51CE FFF6                dbf        D6, -0xC /* 000038E0 */
000038EC  6050                     bra        +0x52 /* 0000393E */
label000038EE:
000038EE  224B                     movea.l    A1, A3
000038F0  20D9                     move.l     [A0]+, [A1]+
000038F2  20D9                     move.l     [A0]+, [A1]+
000038F4  D6C3                     add.w      A3, D3
000038F6  51CE FFF6                dbf        D6, -0xC /* 000038EE */
000038FA  6042                     bra        +0x44 /* 0000393E */
label000038FC:
000038FC  224B                     movea.l    A1, A3
000038FE  20D9                     move.l     [A0]+, [A1]+
00003900  20D9                     move.l     [A0]+, [A1]+
00003902  30D9                     move.w     [A0]+, [A1]+
00003904  D6C3                     add.w      A3, D3
00003906  51CE FFF4                dbf        D6, -0xE /* 000038FC */
0000390A  6032                     bra        +0x34 /* 0000393E */
label0000390C:
0000390C  224B                     movea.l    A1, A3
0000390E  20D9                     move.l     [A0]+, [A1]+
00003910  20D9                     move.l     [A0]+, [A1]+
00003912  20D9                     move.l     [A0]+, [A1]+
00003914  D6C3                     add.w      A3, D3
00003916  51CE FFF4                dbf        D6, -0xE /* 0000390C */
0000391A  6022                     bra        +0x24 /* 0000393E */
label0000391C:
0000391C  224B                     movea.l    A1, A3
0000391E  20D9                     move.l     [A0]+, [A1]+
00003920  20D9                     move.l     [A0]+, [A1]+
00003922  20D9                     move.l     [A0]+, [A1]+
00003924  30D9                     move.w     [A0]+, [A1]+
00003926  D6C3                     add.w      A3, D3
00003928  51CE FFF2                dbf        D6, -0x10 /* 0000391C */
0000392C  6010                     bra        +0x12 /* 0000393E */
label0000392E:
0000392E  224B                     movea.l    A1, A3
00003930  20D9                     move.l     [A0]+, [A1]+
00003932  20D9                     move.l     [A0]+, [A1]+
00003934  20D9                     move.l     [A0]+, [A1]+
00003936  20D9                     move.l     [A0]+, [A1]+
00003938  D6C3                     add.w      A3, D3
0000393A  51CE FFF2                dbf        D6, -0x10 /* 0000392E */
label0000393E:
0000393E  200C                     move.l     D0, A4
00003940  4CDF 18F8                movem.l    D3,D4,D5,D6,D7,A3,A4, [A7]+
00003944  4E5E                     unlink     A6
00003946  4E75                     rts
export_35:
00003948  4E56 0000                link       A6, 0
0000394C  48E7 1F18                movem.l    -[A7], D3,D4,D5,D6,D7,A3,A4
00003950  206E 0008                movea.l    A0, [A6 + 0x8]
00003954  3818                     move.w     D4, [A0]+
00003956  3A18                     move.w     D5, [A0]+
00003958  3C18                     move.w     D6, [A0]+
0000395A  3E18                     move.w     D7, [A0]+
0000395C  9C44                     sub.w      D6, D4
0000395E  6300 00BC                bls        +0xBE /* 00003A1C */
00003962  E845                     asr        D5.w, 4
00003964  0647 000F                addi.w     D7, 0xF
00003968  E847                     asr        D7.w, 4
0000396A  9E45                     sub.w      D7, D5
0000396C  6300 00AE                bls        +0xB0 /* 00003A1C */
00003970  286E 000C                movea.l    A4, [A6 + 0xC]
00003974  200C                     move.l     D0, A4
00003976  6700 00A4                beq        +0xA6 /* 00003A1C */
0000397A  266D A2D2                movea.l    A3, [A5 - 0x5D2E]
0000397E  362D A2DA                move.w     D3, [A5 - 0x5D26]
00003982  C9C3                     muls.w     D4, D3
00003984  D7C4                     add.l      A3, D4
00003986  DA45                     add.w      D5, D5
00003988  D6C5                     add.w      A3, D5
0000398A  2054                     movea.l    A0, [A4]
0000398C  5346                     subq.w     D6, 1
0000398E  5347                     subq.w     D7, 1
00003990  7007                     moveq.l    D0, 0x07
00003992  C047                     and.w      D0, D7
00003994  D040                     add.w      D0, D0
00003996  4EFB 0002                jmp        [PC + D0.w + 0x2]
0000399A  600E                     bra        +0x10 /* 000039AA */
0000399C  6016                     bra        +0x18 /* 000039B4 */
0000399E  601E                     bra        +0x20 /* 000039BE */
000039A0  602A                     bra        +0x2C /* 000039CC */
000039A2  6036                     bra        +0x38 /* 000039DA */
000039A4  6044                     bra        +0x46 /* 000039EA */
000039A6  6052                     bra        +0x54 /* 000039FA */
000039A8  6062                     bra        +0x64 /* 00003A0C */
label000039AA:
000039AA  3698                     move.w     [A3], [A0]+
000039AC  D6C3                     add.w      A3, D3
000039AE  51CE FFFA                dbf        D6, -0x8 /* 000039AA */
000039B2  6068                     bra        +0x6A /* 00003A1C */
label000039B4:
000039B4  2698                     move.l     [A3], [A0]+
000039B6  D6C3                     add.w      A3, D3
000039B8  51CE FFFA                dbf        D6, -0x8 /* 000039B4 */
000039BC  605E                     bra        +0x60 /* 00003A1C */
label000039BE:
000039BE  224B                     movea.l    A1, A3
000039C0  22D8                     move.l     [A1]+, [A0]+
000039C2  32D8                     move.w     [A1]+, [A0]+
000039C4  D6C3                     add.w      A3, D3
000039C6  51CE FFF6                dbf        D6, -0xC /* 000039BE */
000039CA  6050                     bra        +0x52 /* 00003A1C */
label000039CC:
000039CC  224B                     movea.l    A1, A3
000039CE  22D8                     move.l     [A1]+, [A0]+
000039D0  22D8                     move.l     [A1]+, [A0]+
000039D2  D6C3                     add.w      A3, D3
000039D4  51CE FFF6                dbf        D6, -0xC /* 000039CC */
000039D8  6042                     bra        +0x44 /* 00003A1C */
label000039DA:
000039DA  224B                     movea.l    A1, A3
000039DC  22D8                     move.l     [A1]+, [A0]+
000039DE  22D8                     move.l     [A1]+, [A0]+
000039E0  32D8                     move.w     [A1]+, [A0]+
000039E2  D6C3                     add.w      A3, D3
000039E4  51CE FFF4                dbf        D6, -0xE /* 000039DA */
000039E8  6032                     bra        +0x34 /* 00003A1C */
label000039EA:
000039EA  224B                     movea.l    A1, A3
000039EC  22D8                     move.l     [A1]+, [A0]+
000039EE  22D8                     move.l     [A1]+, [A0]+
000039F0  22D8                     move.l     [A1]+, [A0]+
000039F2  D6C3                     add.w      A3, D3
000039F4  51CE FFF4                dbf        D6, -0xE /* 000039EA */
000039F8  6022                     bra        +0x24 /* 00003A1C */
label000039FA:
000039FA  224B                     movea.l    A1, A3
000039FC  22D8                     move.l     [A1]+, [A0]+
000039FE  22D8                     move.l     [A1]+, [A0]+
00003A00  22D8                     move.l     [A1]+, [A0]+
00003A02  32D8                     move.w     [A1]+, [A0]+
00003A04  D6C3                     add.w      A3, D3
00003A06  51CE FFF2                dbf        D6, -0x10 /* 000039FA */
00003A0A  6010                     bra        +0x12 /* 00003A1C */
label00003A0C:
00003A0C  224B                     movea.l    A1, A3
00003A0E  22D8                     move.l     [A1]+, [A0]+
00003A10  22D8                     move.l     [A1]+, [A0]+
00003A12  22D8                     move.l     [A1]+, [A0]+
00003A14  22D8                     move.l     [A1]+, [A0]+
00003A16  D6C3                     add.w      A3, D3
00003A18  51CE FFF2                dbf        D6, -0x10 /* 00003A0C */
label00003A1C:
00003A1C  4CDF 18F8                movem.l    D3,D4,D5,D6,D7,A3,A4, [A7]+
00003A20  4E5E                     unlink     A6
00003A22  4E75                     rts
export_36:
00003A24  4E56 0000                link       A6, 0
00003A28  48E7 3F38                movem.l    -[A7], D2,D3,D4,D5,D6,D7,A2,A3,A4
00003A2C  322E 0008                move.w     D1, [A6 + 0x8]
00003A30  41ED A57A                lea.l      A0, [A5 - 0x5A86]
00003A34  2070 1400                movea.l    A0, [A0 + D1.w * 4]
00003A38  2008                     move.l     D0, A0
00003A3A  6700 0242                beq        +0x244 /* 00003C7E */
00003A3E  2050                     movea.l    A0, [A0]
00003A40  43ED A59A                lea.l      A1, [A5 - 0x5A66]
00003A44  2271 1400                movea.l    A1, [A1 + D1.w * 4]
00003A48  2009                     move.l     D0, A1
00003A4A  6700 0232                beq        +0x234 /* 00003C7E */
00003A4E  2251                     movea.l    A1, [A1]
00003A50  322E 000A                move.w     D1, [A6 + 0xA]
00003A54  2030 1400                move.l     D0, [A0 + D1.w * 4]
00003A58  6B00 0224                bmi        +0x226 /* 00003C7E */
00003A5C  49F1 0800                lea.l      A4, [A1 + D0]
00003A60  301C                     move.w     D0, [A4]+
00003A62  321C                     move.w     D1, [A4]+
00003A64  381C                     move.w     D4, [A4]+
00003A66  3A1C                     move.w     D5, [A4]+
00003A68  3C2E 000C                move.w     D6, [A6 + 0xC]
00003A6C  9C44                     sub.w      D6, D4
00003A6E  4A6E 0010                tst.w      [A6 + 0x10]
00003A72  6A08                     bpl        +0xA /* 00003A7C */
00003A74  3C2E 000C                move.w     D6, [A6 + 0xC]
00003A78  DC44                     add.w      D6, D4
00003A7A  5346                     subq.w     D6, 1
label00003A7C:
00003A7C  3E2E 000E                move.w     D7, [A6 + 0xE]
00003A80  9E45                     sub.w      D7, D5
00003A82  4A6D BA32                tst.w      [A5 - 0x45CE]
00003A86  670C                     beq        +0xE /* 00003A94 */
00003A88  3E2D A5D0                move.w     D7, [A5 - 0x5A30]
00003A8C  9E6E 000E                sub.w      D7, [A6 + 0xE]
00003A90  DE45                     add.w      D7, D5
00003A92  5347                     subq.w     D7, 1
label00003A94:
00003A94  266D A2D2                movea.l    A3, [A5 - 0x5D2E]
00003A98  302D A2DA                move.w     D0, [A5 - 0x5D26]
00003A9C  C1C7                     muls.w     D0, D7
00003A9E  D7C0                     add.l      A3, D0
00003AA0  3006                     move.w     D0, D6
00003AA2  E240                     asr        D0.w, 1
00003AA4  D6C0                     add.w      A3, D0
00003AA6  302D A2E6                move.w     D0, [A5 - 0x5D1A]
00003AAA  0240 FFFE                andi.w     D0, 0xFFFE
00003AAE  9C40                     sub.w      D6, D0
00003AB0  382D A2EA                move.w     D4, [A5 - 0x5D16]
00003AB4  0244 FFFE                andi.w     D4, 0xFFFE
00003AB8  9840                     sub.w      D4, D0
00003ABA  302D A2E4                move.w     D0, [A5 - 0x5D1C]
00003ABE  9E40                     sub.w      D7, D0
00003AC0  3A2D A2E8                move.w     D5, [A5 - 0x5D18]
00003AC4  9A40                     sub.w      D5, D0
00003AC6  45ED A2FA                lea.l      A2, [A5 - 0x5D06]
00003ACA  224F                     movea.l    A1, A7
00003ACC  204B                     movea.l    A0, A3
00003ACE  3606                     move.w     D3, D6
00003AD0  7400                     moveq.l    D2, 0x00
00003AD2  7000                     moveq.l    D0, 0x00
label00003AD4:
00003AD4  101C                     move.b     D0, [A4]+
00003AD6  6A18                     bpl        +0x1A /* 00003AF0 */
00003AD8  4A6D BA32                tst.w      [A5 - 0x45CE]
00003ADC  6708                     beq        +0xA /* 00003AE6 */
00003ADE  5347                     subq.w     D7, 1
00003AE0  96ED A2DA                sub.w      A3, [A5 - 0x5D26]
00003AE4  6006                     bra        +0x8 /* 00003AEC */
label00003AE6:
00003AE6  5247                     addq.w     D7, 1
00003AE8  D6ED A2DA                add.w      A3, [A5 - 0x5D26]
label00003AEC:
00003AEC  204B                     movea.l    A0, A3
00003AEE  3C03                     move.w     D6, D3
label00003AF0:
00003AF0  721F                     moveq.l    D1, 0x1F
00003AF2  C200                     and.b      D1, D0
00003AF4  0C01 001F                cmpi.b     D1, 0x1F
00003AF8  6606                     bne        +0x8 /* 00003B00 */
00003AFA  121C                     move.b     D1, [A4]+
00003AFC  0641 001F                addi.w     D1, 0x1F
label00003B00:
00003B00  5241                     addq.w     D1, 1
00003B02  D000                     add.b      D0, D0
00003B04  D000                     add.b      D0, D0
00003B06  6500 0112                bcs        +0x114 /* 00003C1A */
00003B0A  6B7C                     bmi        +0x7E /* 00003B88 */
00003B0C  5341                     subq.w     D1, 1
00003B0E  6700 016C                beq        +0x16E /* 00003C7C */
00003B12  BE45                     cmp.w      D7, D5
00003B14  646C                     bcc        +0x6E /* 00003B82 */
00003B16  101C                     move.b     D0, [A4]+
00003B18  1032 0800                move.b     D0, [A2 + D0]
00003B1C  1400                     move.b     D2, D0
00003B1E  E908                     lsl        D0.b, 4
00003B20  4A6E 0010                tst.w      [A6 + 0x10]
00003B24  6B2C                     bmi        +0x2E /* 00003B52 */
00003B26  0806 0000                btst.b     D6, 0x0
00003B2A  6612                     bne        +0x14 /* 00003B3E */
label00003B2C:
00003B2C  BC44                     cmp.w      D6, D4
00003B2E  6406                     bcc        +0x8 /* 00003B36 */
00003B30  0210 000F                andi.b     [A0], 0xF
00003B34  8110                     or.b       [A0], D0
label00003B36:
00003B36  5246                     addq.w     D6, 1
00003B38  51C9 0004                dbf        D1, +0x6 /* 00003B3E */
00003B3C  6096                     bra        -0x68 /* 00003AD4 */
label00003B3E:
00003B3E  BC44                     cmp.w      D6, D4
00003B40  6406                     bcc        +0x8 /* 00003B48 */
00003B42  0210 00F0                andi.b     [A0], 0xF0
00003B46  8510                     or.b       [A0], D2
label00003B48:
00003B48  5248                     addq.w     A0, 1
00003B4A  5246                     addq.w     D6, 1
00003B4C  51C9 FFDE                dbf        D1, -0x24 /* 00003B2C */
00003B50  6082                     bra        -0x7C /* 00003AD4 */
label00003B52:
00003B52  0806 0000                btst.b     D6, 0x0
00003B56  6616                     bne        +0x18 /* 00003B6E */
label00003B58:
00003B58  BC44                     cmp.w      D6, D4
00003B5A  6406                     bcc        +0x8 /* 00003B62 */
00003B5C  0210 000F                andi.b     [A0], 0xF
00003B60  8110                     or.b       [A0], D0
label00003B62:
00003B62  5348                     subq.w     A0, 1
00003B64  5346                     subq.w     D6, 1
00003B66  51C9 0006                dbf        D1, +0x8 /* 00003B6E */
00003B6A  6000 FF68                bra        -0x96 /* 00003AD4 */
label00003B6E:
00003B6E  BC44                     cmp.w      D6, D4
00003B70  6406                     bcc        +0x8 /* 00003B78 */
00003B72  0210 00F0                andi.b     [A0], 0xF0
00003B76  8510                     or.b       [A0], D2
label00003B78:
00003B78  5346                     subq.w     D6, 1
00003B7A  51C9 FFDC                dbf        D1, -0x26 /* 00003B58 */
00003B7E  6000 FF54                bra        -0xAA /* 00003AD4 */
label00003B82:
00003B82  528C                     addq.l     A4, 1
00003B84  6000 FF4E                bra        -0xB0 /* 00003AD4 */
label00003B88:
00003B88  5341                     subq.w     D1, 1
00003B8A  BE45                     cmp.w      D7, D5
00003B8C  6400 0084                bcc        +0x86 /* 00003C12 */
00003B90  4A6E 0010                tst.w      [A6 + 0x10]
00003B94  6B3E                     bmi        +0x40 /* 00003BD4 */
00003B96  0806 0000                btst.b     D6, 0x0
00003B9A  661C                     bne        +0x1E /* 00003BB8 */
label00003B9C:
00003B9C  141C                     move.b     D2, [A4]+
00003B9E  1032 2800                move.b     D0, [A2 + D2]
00003BA2  E908                     lsl        D0.b, 4
00003BA4  BC44                     cmp.w      D6, D4
00003BA6  6406                     bcc        +0x8 /* 00003BAE */
00003BA8  0210 000F                andi.b     [A0], 0xF
00003BAC  8110                     or.b       [A0], D0
label00003BAE:
00003BAE  5246                     addq.w     D6, 1
00003BB0  51C9 0006                dbf        D1, +0x8 /* 00003BB8 */
00003BB4  6000 FF1E                bra        -0xE0 /* 00003AD4 */
label00003BB8:
00003BB8  141C                     move.b     D2, [A4]+
00003BBA  1032 2800                move.b     D0, [A2 + D2]
00003BBE  BC44                     cmp.w      D6, D4
00003BC0  6406                     bcc        +0x8 /* 00003BC8 */
00003BC2  0210 00F0                andi.b     [A0], 0xF0
00003BC6  8110                     or.b       [A0], D0
label00003BC8:
00003BC8  5248                     addq.w     A0, 1
00003BCA  5246                     addq.w     D6, 1
00003BCC  51C9 FFCE                dbf        D1, -0x34 /* 00003B9C */
00003BD0  6000 FF02                bra        -0xFC /* 00003AD4 */
label00003BD4:
00003BD4  0806 0000                btst.b     D6, 0x0
00003BD8  661E                     bne        +0x20 /* 00003BF8 */
label00003BDA:
00003BDA  141C                     move.b     D2, [A4]+
00003BDC  1032 2800                move.b     D0, [A2 + D2]
00003BE0  E908                     lsl        D0.b, 4
00003BE2  BC44                     cmp.w      D6, D4
00003BE4  6406                     bcc        +0x8 /* 00003BEC */
00003BE6  0210 000F                andi.b     [A0], 0xF
00003BEA  8110                     or.b       [A0], D0
label00003BEC:
00003BEC  5348                     subq.w     A0, 1
00003BEE  5346                     subq.w     D6, 1
00003BF0  51C9 0006                dbf        D1, +0x8 /* 00003BF8 */
00003BF4  6000 FEDE                bra        -0x120 /* 00003AD4 */
label00003BF8:
00003BF8  141C                     move.b     D2, [A4]+
00003BFA  1032 2800                move.b     D0, [A2 + D2]
00003BFE  BC44                     cmp.w      D6, D4
00003C00  6406                     bcc        +0x8 /* 00003C08 */
00003C02  0210 00F0                andi.b     [A0], 0xF0
00003C06  8110                     or.b       [A0], D0
label00003C08:
00003C08  5346                     subq.w     D6, 1
00003C0A  51C9 FFCE                dbf        D1, -0x34 /* 00003BDA */
00003C0E  6000 FEC4                bra        -0x13A /* 00003AD4 */
label00003C12:
00003C12  5241                     addq.w     D1, 1
00003C14  D8C1                     add.w      A4, D1
00003C16  6000 FEBC                bra        -0x142 /* 00003AD4 */
label00003C1A:
00003C1A  6B3E                     bmi        +0x40 /* 00003C5A */
00003C1C  4A6E 0010                tst.w      [A6 + 0x10]
00003C20  6B1C                     bmi        +0x1E /* 00003C3E */
00003C22  0806 0000                btst.b     D6, 0x0
00003C26  660A                     bne        +0xC /* 00003C32 */
00003C28  DC41                     add.w      D6, D1
00003C2A  E241                     asr        D1.w, 1
00003C2C  D0C1                     add.w      A0, D1
00003C2E  6000 FEA4                bra        -0x15A /* 00003AD4 */
label00003C32:
00003C32  DC41                     add.w      D6, D1
00003C34  5241                     addq.w     D1, 1
00003C36  E241                     asr        D1.w, 1
00003C38  D0C1                     add.w      A0, D1
00003C3A  6000 FE98                bra        -0x166 /* 00003AD4 */
label00003C3E:
00003C3E  0806 0000                btst.b     D6, 0x0
00003C42  660C                     bne        +0xE /* 00003C50 */
00003C44  9C41                     sub.w      D6, D1
00003C46  5241                     addq.w     D1, 1
00003C48  E241                     asr        D1.w, 1
00003C4A  90C1                     sub.w      A0, D1
00003C4C  6000 FE86                bra        -0x178 /* 00003AD4 */
label00003C50:
00003C50  9C41                     sub.w      D6, D1
00003C52  E241                     asr        D1.w, 1
00003C54  90C1                     sub.w      A0, D1
00003C56  6000 FE7C                bra        -0x182 /* 00003AD4 */
label00003C5A:
00003C5A  5341                     subq.w     D1, 1
00003C5C  6616                     bne        +0x18 /* 00003C74 */
00003C5E  BFC9                     cmpa.l     A7, A1
00003C60  641A                     bcc        +0x1C /* 00003C7C */
00003C62  5357                     subq.w     [A7], 1
00003C64  6B08                     bmi        +0xA /* 00003C6E */
00003C66  286F 0002                movea.l    A4, [A7 + 0x2]
00003C6A  6000 FE68                bra        -0x196 /* 00003AD4 */
label00003C6E:
00003C6E  5C8F                     addq.l     A7, 6
00003C70  6000 FE62                bra        -0x19C /* 00003AD4 */
label00003C74:
00003C74  2F0C                     move.l     -[A7], A4
00003C76  3F01                     move.w     -[A7], D1
00003C78  6000 FE5A                bra        -0x1A4 /* 00003AD4 */
label00003C7C:
00003C7C  2E49                     movea.l    A7, A1
label00003C7E:
00003C7E  4CDF 1CFC                movem.l    D2,D3,D4,D5,D6,D7,A2,A3,A4, [A7]+
00003C82  4E5E                     unlink     A6
00003C84  4E75                     rts
export_37:
00003C86  4E56 0000                link       A6, 0
00003C8A  48E7 1F10                movem.l    -[A7], D3,D4,D5,D6,D7,A3
00003C8E  206E 0008                movea.l    A0, [A6 + 0x8]
00003C92  3818                     move.w     D4, [A0]+
00003C94  3A18                     move.w     D5, [A0]+
00003C96  3C18                     move.w     D6, [A0]+
00003C98  3E18                     move.w     D7, [A0]+
00003C9A  9C44                     sub.w      D6, D4
00003C9C  9E45                     sub.w      D7, D5
00003C9E  266D A2D2                movea.l    A3, [A5 - 0x5D2E]
00003CA2  362D A2DA                move.w     D3, [A5 - 0x5D26]
00003CA6  3003                     move.w     D0, D3
00003CA8  C1C4                     muls.w     D0, D4
00003CAA  D7C0                     add.l      A3, D0
00003CAC  3005                     move.w     D0, D5
00003CAE  E240                     asr        D0.w, 1
00003CB0  D6C0                     add.w      A3, D0
00003CB2  7000                     moveq.l    D0, 0x00
00003CB4  102E 000C                move.b     D0, [A6 + 0xC]
00003CB8  41ED A2FA                lea.l      A0, [A5 - 0x5D06]
00003CBC  1830 0800                move.b     D4, [A0 + D0]
00003CC0  E90C                     lsl        D4.b, 4
00003CC2  8830 0800                or.b       D4, [A0 + D0]
00003CC6  7001                     moveq.l    D0, 0x01
00003CC8  CA40                     and.w      D5, D0
00003CCA  6032                     bra        +0x34 /* 00003CFE */
label00003CCC:
00003CCC  204B                     movea.l    A0, A3
00003CCE  3207                     move.w     D1, D7
00003CD0  4A45                     tst.w      D5
00003CD2  670C                     beq        +0xE /* 00003CE0 */
00003CD4  70F0                     moveq.l    D0, 0xFFFFFFF0
00003CD6  C110                     and.b      [A0], D0
00003CD8  4600                     not.b      D0
00003CDA  C004                     and.b      D0, D4
00003CDC  8118                     or.b       [A0]+, D0
00003CDE  5341                     subq.w     D1, 1
label00003CE0:
00003CE0  E241                     asr        D1.w, 1
00003CE2  6002                     bra        +0x4 /* 00003CE6 */
label00003CE4:
00003CE4  10C4                     move.b     [A0]+, D4
label00003CE6:
00003CE6  51C9 FFFC                dbf        D1, -0x6 /* 00003CE4 */
00003CEA  7001                     moveq.l    D0, 0x01
00003CEC  C047                     and.w      D0, D7
00003CEE  BB40                     xor.w      D0, D5
00003CF0  670A                     beq        +0xC /* 00003CFC */
00003CF2  700F                     moveq.l    D0, 0x0F
00003CF4  C110                     and.b      [A0], D0
00003CF6  4600                     not.b      D0
00003CF8  C004                     and.b      D0, D4
00003CFA  8118                     or.b       [A0]+, D0
label00003CFC:
00003CFC  D6C3                     add.w      A3, D3
label00003CFE:
00003CFE  51CE FFCC                dbf        D6, -0x36 /* 00003CCC */
00003D02  4CDF 08F8                movem.l    D3,D4,D5,D6,D7,A3, [A7]+
00003D06  4E5E                     unlink     A6
00003D08  4E75                     rts
export_38:
00003D0A  4E56 0000                link       A6, 0
00003D0E  48E7 1F18                movem.l    -[A7], D3,D4,D5,D6,D7,A3,A4
00003D12  99CC                     sub.l      A4, A4
00003D14  206E 0008                movea.l    A0, [A6 + 0x8]
00003D18  3818                     move.w     D4, [A0]+
00003D1A  3A18                     move.w     D5, [A0]+
00003D1C  3C18                     move.w     D6, [A0]+
00003D1E  3E18                     move.w     D7, [A0]+
00003D20  9C44                     sub.w      D6, D4
00003D22  E445                     asr        D5.w, 2
00003D24  5647                     addq.w     D7, 3
00003D26  E447                     asr        D7.w, 2
00003D28  9E45                     sub.w      D7, D5
00003D2A  3006                     move.w     D0, D6
00003D2C  C0C7                     mulu.w     D0, D7
00003D2E  D080                     add.l      D0, D0
00003D30  A122                     syscall    NewHandle, flags=1
00003D32  4A40                     tst.w      D0
00003D34  662C                     bne        +0x2E /* 00003D62 */
00003D36  2848                     movea.l    A4, A0
00003D38  266D A2D2                movea.l    A3, [A5 - 0x5D2E]
00003D3C  362D A2DA                move.w     D3, [A5 - 0x5D26]
00003D40  3003                     move.w     D0, D3
00003D42  C1C4                     muls.w     D0, D4
00003D44  D7C0                     add.l      A3, D0
00003D46  3005                     move.w     D0, D5
00003D48  D040                     add.w      D0, D0
00003D4A  D6C0                     add.w      A3, D0
00003D4C  2054                     movea.l    A0, [A4]
00003D4E  600E                     bra        +0x10 /* 00003D5E */
label00003D50:
00003D50  224B                     movea.l    A1, A3
00003D52  3207                     move.w     D1, D7
00003D54  6002                     bra        +0x4 /* 00003D58 */
label00003D56:
00003D56  30D9                     move.w     [A0]+, [A1]+
label00003D58:
00003D58  51C9 FFFC                dbf        D1, -0x6 /* 00003D56 */
00003D5C  D6C3                     add.w      A3, D3
label00003D5E:
00003D5E  51CE FFF0                dbf        D6, -0x12 /* 00003D50 */
label00003D62:
00003D62  200C                     move.l     D0, A4
00003D64  4CDF 18F8                movem.l    D3,D4,D5,D6,D7,A3,A4, [A7]+
00003D68  4E5E                     unlink     A6
00003D6A  4E75                     rts
export_39:
00003D6C  4E56 0000                link       A6, 0
00003D70  48E7 1F18                movem.l    -[A7], D3,D4,D5,D6,D7,A3,A4
00003D74  206E 0008                movea.l    A0, [A6 + 0x8]
00003D78  3818                     move.w     D4, [A0]+
00003D7A  3A18                     move.w     D5, [A0]+
00003D7C  3C18                     move.w     D6, [A0]+
00003D7E  3E18                     move.w     D7, [A0]+
00003D80  9C44                     sub.w      D6, D4
00003D82  E445                     asr        D5.w, 2
00003D84  5647                     addq.w     D7, 3
00003D86  E447                     asr        D7.w, 2
00003D88  9E45                     sub.w      D7, D5
00003D8A  286E 000C                movea.l    A4, [A6 + 0xC]
00003D8E  200C                     move.l     D0, A4
00003D90  672A                     beq        +0x2C /* 00003DBC */
00003D92  266D A2D2                movea.l    A3, [A5 - 0x5D2E]
00003D96  362D A2DA                move.w     D3, [A5 - 0x5D26]
00003D9A  3003                     move.w     D0, D3
00003D9C  C1C4                     muls.w     D0, D4
00003D9E  D7C0                     add.l      A3, D0
00003DA0  3005                     move.w     D0, D5
00003DA2  D040                     add.w      D0, D0
00003DA4  D6C0                     add.w      A3, D0
00003DA6  2054                     movea.l    A0, [A4]
00003DA8  600E                     bra        +0x10 /* 00003DB8 */
label00003DAA:
00003DAA  224B                     movea.l    A1, A3
00003DAC  3207                     move.w     D1, D7
00003DAE  6002                     bra        +0x4 /* 00003DB2 */
label00003DB0:
00003DB0  32D8                     move.w     [A1]+, [A0]+
label00003DB2:
00003DB2  51C9 FFFC                dbf        D1, -0x6 /* 00003DB0 */
00003DB6  D6C3                     add.w      A3, D3
label00003DB8:
00003DB8  51CE FFF0                dbf        D6, -0x12 /* 00003DAA */
label00003DBC:
00003DBC  4CDF 18F8                movem.l    D3,D4,D5,D6,D7,A3,A4, [A7]+
00003DC0  4E5E                     unlink     A6
00003DC2  4E75                     rts
export_40:
00003DC4  4E56 0000                link       A6, 0
00003DC8  48E7 3F38                movem.l    -[A7], D2,D3,D4,D5,D6,D7,A2,A3,A4
00003DCC  322E 0008                move.w     D1, [A6 + 0x8]
00003DD0  41ED A57A                lea.l      A0, [A5 - 0x5A86]
00003DD4  2070 1400                movea.l    A0, [A0 + D1.w * 4]
00003DD8  2008                     move.l     D0, A0
00003DDA  6700 0140                beq        +0x142 /* 00003F1C */
00003DDE  2050                     movea.l    A0, [A0]
00003DE0  43ED A59A                lea.l      A1, [A5 - 0x5A66]
00003DE4  2271 1400                movea.l    A1, [A1 + D1.w * 4]
00003DE8  2009                     move.l     D0, A1
00003DEA  6700 0130                beq        +0x132 /* 00003F1C */
00003DEE  2251                     movea.l    A1, [A1]
00003DF0  322E 000A                move.w     D1, [A6 + 0xA]
00003DF4  2030 1400                move.l     D0, [A0 + D1.w * 4]
00003DF8  6B00 0122                bmi        +0x124 /* 00003F1C */
00003DFC  49F1 0800                lea.l      A4, [A1 + D0]
00003E00  301C                     move.w     D0, [A4]+
00003E02  321C                     move.w     D1, [A4]+
00003E04  381C                     move.w     D4, [A4]+
00003E06  3A1C                     move.w     D5, [A4]+
00003E08  3C2E 000C                move.w     D6, [A6 + 0xC]
00003E0C  9C44                     sub.w      D6, D4
00003E0E  4A6E 0010                tst.w      [A6 + 0x10]
00003E12  6A08                     bpl        +0xA /* 00003E1C */
00003E14  3C2E 000C                move.w     D6, [A6 + 0xC]
00003E18  DC44                     add.w      D6, D4
00003E1A  5346                     subq.w     D6, 1
label00003E1C:
00003E1C  3E2E 000E                move.w     D7, [A6 + 0xE]
00003E20  9E45                     sub.w      D7, D5
00003E22  4A6D BA32                tst.w      [A5 - 0x45CE]
00003E26  670C                     beq        +0xE /* 00003E34 */
00003E28  3E2D A5D0                move.w     D7, [A5 - 0x5A30]
00003E2C  9E6E 000E                sub.w      D7, [A6 + 0xE]
00003E30  DE45                     add.w      D7, D5
00003E32  5347                     subq.w     D7, 1
label00003E34:
00003E34  266D A2D2                movea.l    A3, [A5 - 0x5D2E]
00003E38  302D A2DA                move.w     D0, [A5 - 0x5D26]
00003E3C  C1C7                     muls.w     D0, D7
00003E3E  D7C0                     add.l      A3, D0
00003E40  D6C6                     add.w      A3, D6
00003E42  302D A2E6                move.w     D0, [A5 - 0x5D1A]
00003E46  9C40                     sub.w      D6, D0
00003E48  382D A2EA                move.w     D4, [A5 - 0x5D16]
00003E4C  9840                     sub.w      D4, D0
00003E4E  302D A2E4                move.w     D0, [A5 - 0x5D1C]
00003E52  9E40                     sub.w      D7, D0
00003E54  3A2D A2E8                move.w     D5, [A5 - 0x5D18]
00003E58  9A40                     sub.w      D5, D0
00003E5A  45ED A2FA                lea.l      A2, [A5 - 0x5D06]
00003E5E  224F                     movea.l    A1, A7
00003E60  204B                     movea.l    A0, A3
00003E62  3606                     move.w     D3, D6
00003E64  342E 0010                move.w     D2, [A6 + 0x10]
00003E68  7000                     moveq.l    D0, 0x00
label00003E6A:
00003E6A  101C                     move.b     D0, [A4]+
00003E6C  6A18                     bpl        +0x1A /* 00003E86 */
00003E6E  4A6D BA32                tst.w      [A5 - 0x45CE]
00003E72  6708                     beq        +0xA /* 00003E7C */
00003E74  5347                     subq.w     D7, 1
00003E76  96ED A2DA                sub.w      A3, [A5 - 0x5D26]
00003E7A  6006                     bra        +0x8 /* 00003E82 */
label00003E7C:
00003E7C  5247                     addq.w     D7, 1
00003E7E  D6ED A2DA                add.w      A3, [A5 - 0x5D26]
label00003E82:
00003E82  204B                     movea.l    A0, A3
00003E84  3C03                     move.w     D6, D3
label00003E86:
00003E86  721F                     moveq.l    D1, 0x1F
00003E88  C200                     and.b      D1, D0
00003E8A  0C01 001F                cmpi.b     D1, 0x1F
00003E8E  6606                     bne        +0x8 /* 00003E96 */
00003E90  121C                     move.b     D1, [A4]+
00003E92  0641 001F                addi.w     D1, 0x1F
label00003E96:
00003E96  5241                     addq.w     D1, 1
00003E98  D000                     add.b      D0, D0
00003E9A  D000                     add.b      D0, D0
00003E9C  6544                     bcs        +0x46 /* 00003EE2 */
00003E9E  6B22                     bmi        +0x24 /* 00003EC2 */
00003EA0  5341                     subq.w     D1, 1
00003EA2  6776                     beq        +0x78 /* 00003F1A */
00003EA4  BE45                     cmp.w      D7, D5
00003EA6  6416                     bcc        +0x18 /* 00003EBE */
00003EA8  101C                     move.b     D0, [A4]+
00003EAA  1032 0800                move.b     D0, [A2 + D0]
label00003EAE:
00003EAE  BC44                     cmp.w      D6, D4
00003EB0  6402                     bcc        +0x4 /* 00003EB4 */
00003EB2  1080                     move.b     [A0], D0
label00003EB4:
00003EB4  D0C2                     add.w      A0, D2
00003EB6  DC42                     add.w      D6, D2
00003EB8  51C9 FFF4                dbf        D1, -0xE /* 00003EAE */
00003EBC  60AC                     bra        -0x52 /* 00003E6A */
label00003EBE:
00003EBE  524C                     addq.w     A4, 1
00003EC0  60A8                     bra        -0x56 /* 00003E6A */
label00003EC2:
00003EC2  5341                     subq.w     D1, 1
00003EC4  BE45                     cmp.w      D7, D5
00003EC6  6414                     bcc        +0x16 /* 00003EDC */
label00003EC8:
00003EC8  101C                     move.b     D0, [A4]+
00003ECA  BC44                     cmp.w      D6, D4
00003ECC  6404                     bcc        +0x6 /* 00003ED2 */
00003ECE  10B2 0800                move.b     [A0], [A2 + D0]
label00003ED2:
00003ED2  D0C2                     add.w      A0, D2
00003ED4  DC42                     add.w      D6, D2
00003ED6  51C9 FFF0                dbf        D1, -0x12 /* 00003EC8 */
00003EDA  608E                     bra        -0x70 /* 00003E6A */
label00003EDC:
00003EDC  D8C1                     add.w      A4, D1
00003EDE  524C                     addq.w     A4, 1
00003EE0  6088                     bra        -0x76 /* 00003E6A */
label00003EE2:
00003EE2  6B14                     bmi        +0x16 /* 00003EF8 */
00003EE4  4A42                     tst.w      D2
00003EE6  6B08                     bmi        +0xA /* 00003EF0 */
00003EE8  DC41                     add.w      D6, D1
00003EEA  D0C1                     add.w      A0, D1
00003EEC  6000 FF7C                bra        -0x82 /* 00003E6A */
label00003EF0:
00003EF0  9C41                     sub.w      D6, D1
00003EF2  90C1                     sub.w      A0, D1
00003EF4  6000 FF74                bra        -0x8A /* 00003E6A */
label00003EF8:
00003EF8  5341                     subq.w     D1, 1
00003EFA  6616                     bne        +0x18 /* 00003F12 */
00003EFC  BFC9                     cmpa.l     A7, A1
00003EFE  641A                     bcc        +0x1C /* 00003F1A */
00003F00  5357                     subq.w     [A7], 1
00003F02  6B08                     bmi        +0xA /* 00003F0C */
00003F04  286F 0002                movea.l    A4, [A7 + 0x2]
00003F08  6000 FF60                bra        -0x9E /* 00003E6A */
label00003F0C:
00003F0C  5C8F                     addq.l     A7, 6
00003F0E  6000 FF5A                bra        -0xA4 /* 00003E6A */
label00003F12:
00003F12  2F0C                     move.l     -[A7], A4
00003F14  3F01                     move.w     -[A7], D1
00003F16  6000 FF52                bra        -0xAC /* 00003E6A */
label00003F1A:
00003F1A  2E49                     movea.l    A7, A1
label00003F1C:
00003F1C  4CDF 1CFC                movem.l    D2,D3,D4,D5,D6,D7,A2,A3,A4, [A7]+
00003F20  4E5E                     unlink     A6
00003F22  4E75                     rts
export_41:
00003F24  4E56 0000                link       A6, 0
00003F28  48E7 1F10                movem.l    -[A7], D3,D4,D5,D6,D7,A3
00003F2C  206E 0008                movea.l    A0, [A6 + 0x8]
00003F30  3818                     move.w     D4, [A0]+
00003F32  3A18                     move.w     D5, [A0]+
00003F34  3C18                     move.w     D6, [A0]+
00003F36  3E18                     move.w     D7, [A0]+
00003F38  9C44                     sub.w      D6, D4
00003F3A  9E45                     sub.w      D7, D5
00003F3C  266D A2D2                movea.l    A3, [A5 - 0x5D2E]
00003F40  362D A2DA                move.w     D3, [A5 - 0x5D26]
00003F44  3003                     move.w     D0, D3
00003F46  C1C4                     muls.w     D0, D4
00003F48  D7C0                     add.l      A3, D0
00003F4A  D6C5                     add.w      A3, D5
00003F4C  7000                     moveq.l    D0, 0x00
00003F4E  102E 000C                move.b     D0, [A6 + 0xC]
00003F52  41ED A2FA                lea.l      A0, [A5 - 0x5D06]
00003F56  1830 0800                move.b     D4, [A0 + D0]
00003F5A  600E                     bra        +0x10 /* 00003F6A */
label00003F5C:
00003F5C  204B                     movea.l    A0, A3
00003F5E  3007                     move.w     D0, D7
00003F60  6002                     bra        +0x4 /* 00003F64 */
label00003F62:
00003F62  10C4                     move.b     [A0]+, D4
label00003F64:
00003F64  51C8 FFFC                dbf        D0, -0x6 /* 00003F62 */
00003F68  D6C3                     add.w      A3, D3
label00003F6A:
00003F6A  51CE FFF0                dbf        D6, -0x12 /* 00003F5C */
00003F6E  4CDF 08F8                movem.l    D3,D4,D5,D6,D7,A3, [A7]+
00003F72  4E5E                     unlink     A6
00003F74  4E75                     rts
export_42:
00003F76  4E56 0000                link       A6, 0
00003F7A  48E7 1F18                movem.l    -[A7], D3,D4,D5,D6,D7,A3,A4
00003F7E  99CC                     sub.l      A4, A4
00003F80  206E 0008                movea.l    A0, [A6 + 0x8]
00003F84  3818                     move.w     D4, [A0]+
00003F86  3A18                     move.w     D5, [A0]+
00003F88  3C18                     move.w     D6, [A0]+
00003F8A  3E18                     move.w     D7, [A0]+
00003F8C  9C44                     sub.w      D6, D4
00003F8E  E245                     asr        D5.w, 1
00003F90  5247                     addq.w     D7, 1
00003F92  E247                     asr        D7.w, 1
00003F94  9E45                     sub.w      D7, D5
00003F96  3006                     move.w     D0, D6
00003F98  C0C7                     mulu.w     D0, D7
00003F9A  D080                     add.l      D0, D0
00003F9C  A122                     syscall    NewHandle, flags=1
00003F9E  4A40                     tst.w      D0
00003FA0  662C                     bne        +0x2E /* 00003FCE */
00003FA2  2848                     movea.l    A4, A0
00003FA4  266D A2D2                movea.l    A3, [A5 - 0x5D2E]
00003FA8  362D A2DA                move.w     D3, [A5 - 0x5D26]
00003FAC  3003                     move.w     D0, D3
00003FAE  C1C4                     muls.w     D0, D4
00003FB0  D7C0                     add.l      A3, D0
00003FB2  3005                     move.w     D0, D5
00003FB4  D040                     add.w      D0, D0
00003FB6  D6C0                     add.w      A3, D0
00003FB8  2054                     movea.l    A0, [A4]
00003FBA  600E                     bra        +0x10 /* 00003FCA */
label00003FBC:
00003FBC  224B                     movea.l    A1, A3
00003FBE  3207                     move.w     D1, D7
00003FC0  6002                     bra        +0x4 /* 00003FC4 */
label00003FC2:
00003FC2  30D9                     move.w     [A0]+, [A1]+
label00003FC4:
00003FC4  51C9 FFFC                dbf        D1, -0x6 /* 00003FC2 */
00003FC8  D6C3                     add.w      A3, D3
label00003FCA:
00003FCA  51CE FFF0                dbf        D6, -0x12 /* 00003FBC */
label00003FCE:
00003FCE  200C                     move.l     D0, A4
00003FD0  4CDF 18F8                movem.l    D3,D4,D5,D6,D7,A3,A4, [A7]+
00003FD4  4E5E                     unlink     A6
00003FD6  4E75                     rts
export_43:
00003FD8  4E56 0000                link       A6, 0
00003FDC  48E7 1F18                movem.l    -[A7], D3,D4,D5,D6,D7,A3,A4
00003FE0  206E 0008                movea.l    A0, [A6 + 0x8]
00003FE4  3818                     move.w     D4, [A0]+
00003FE6  3A18                     move.w     D5, [A0]+
00003FE8  3C18                     move.w     D6, [A0]+
00003FEA  3E18                     move.w     D7, [A0]+
00003FEC  9C44                     sub.w      D6, D4
00003FEE  E245                     asr        D5.w, 1
00003FF0  5247                     addq.w     D7, 1
00003FF2  E247                     asr        D7.w, 1
00003FF4  9E45                     sub.w      D7, D5
00003FF6  286E 000C                movea.l    A4, [A6 + 0xC]
00003FFA  200C                     move.l     D0, A4
00003FFC  672A                     beq        +0x2C /* 00004028 */
00003FFE  266D A2D2                movea.l    A3, [A5 - 0x5D2E]
00004002  362D A2DA                move.w     D3, [A5 - 0x5D26]
00004006  3003                     move.w     D0, D3
00004008  C1C4                     muls.w     D0, D4
0000400A  D7C0                     add.l      A3, D0
0000400C  3005                     move.w     D0, D5
0000400E  D040                     add.w      D0, D0
00004010  D6C0                     add.w      A3, D0
00004012  2054                     movea.l    A0, [A4]
00004014  600E                     bra        +0x10 /* 00004024 */
label00004016:
00004016  224B                     movea.l    A1, A3
00004018  3207                     move.w     D1, D7
0000401A  6002                     bra        +0x4 /* 0000401E */
label0000401C:
0000401C  32D8                     move.w     [A1]+, [A0]+
label0000401E:
0000401E  51C9 FFFC                dbf        D1, -0x6 /* 0000401C */
00004022  D6C3                     add.w      A3, D3
label00004024:
00004024  51CE FFF0                dbf        D6, -0x12 /* 00004016 */
label00004028:
00004028  4CDF 18F8                movem.l    D3,D4,D5,D6,D7,A3,A4, [A7]+
0000402C  4E5E                     unlink     A6
0000402E  4E75                     rts
fn00004030:
00004030  4A78 028E                tst.w      [0x0000028E /* ROM85 */]
00004034  6B22                     bmi        +0x24 /* 00004058 */
00004036  303C 0090                move.w     D0, 0x90
0000403A  A346                     syscall    GetOSTrapAddress, flags=3
0000403C  2248                     movea.l    A1, A0
0000403E  303C 009F                move.w     D0, 0x9F
00004042  A746                     syscall    GetToolBoxTrapAddress/GetToolTrapAddress, flags=7
00004044  B3C8                     cmpa.l     A1, A0
00004046  6710                     beq        +0x12 /* 00004058 */
00004048  225F                     movea.l    A1, [A7]+
0000404A  205F                     movea.l    A0, [A7]+
0000404C  301F                     move.w     D0, [A7]+
0000404E  2F09                     move.l     -[A7], A1
00004050  A090                     syscall    SysEnvirons
00004052  3F40 0004                move.w     [A7 + 0x4], D0
00004056  4E75                     rts
label00004058:
00004058  206F 0004                movea.l    A0, [A7 + 0x4]
0000405C  303C 0001                move.w     D0, 0x1
00004060  2248                     movea.l    A1, A0
00004062  6006                     bra        +0x8 /* 0000406A */
00004064  0313                     btst       [A3], D1
00004066  0B02                     btst       D2, D5
00004068  0100                     btst       D0, D0
label0000406A:
0000406A  303C 0010                move.w     D0, 0x10
0000406E  E240                     asr        D0.w, 1
00004070  5340                     subq.w     D0, 1
label00004072:
00004072  4258                     clr.w      [A0]+
00004074  51C8 FFFC                dbf        D0, -0x6 /* 00004072 */
00004078  32BC 0001                move.w     [A1], 0x1
0000407C  2078 02AE                movea.l    A0, [0x000002AE /* ROMBase */]
00004080  337C FFFE 0002           move.w     [A1 + 0x2], 0xFFFE
00004086  0C28 00FF 0009           cmpi.b     [A0 + 0x9], 0xFF
0000408C  6742                     beq        +0x44 /* 000040D0 */
0000408E  4A28 0008                tst.b      [A0 + 0x8]
00004092  6E20                     bgt        +0x22 /* 000040B4 */
00004094  337C FFFF 0002           move.w     [A1 + 0x2], 0xFFFF
0000409A  4A78 028E                tst.w      [0x0000028E /* ROM85 */]
0000409E  6B30                     bmi        +0x32 /* 000040D0 */
000040A0  337C 0001 0002           move.w     [A1 + 0x2], 0x1
000040A6  4A78 0B22                tst.w      [0x00000B22 /* HWCfgFlags */]
000040AA  6A24                     bpl        +0x26 /* 000040D0 */
000040AC  337C 0002 0002           move.w     [A1 + 0x2], 0x2
000040B2  601C                     bra        +0x1E /* 000040D0 */
label000040B4:
000040B4  4269 0002                clr.w      [A1 + 0x2]
000040B8  0C28 0002 0008           cmpi.b     [A0 + 0x8], 0x2
000040BE  6E10                     bgt        +0x12 /* 000040D0 */
000040C0  6708                     beq        +0xA /* 000040CA */
000040C2  337C 0004 0002           move.w     [A1 + 0x2], 0x4
000040C8  6006                     bra        +0x8 /* 000040D0 */
label000040CA:
000040CA  337C 0003 0002           move.w     [A1 + 0x2], 0x3
label000040D0:
000040D0  4269 0004                clr.w      [A1 + 0x4]
000040D4  0C38 0002 012F           cmpi.b     [0x0000012F /* CPUFlag */], 0x2
000040DA  6E0A                     bgt        +0xC /* 000040E6 */
000040DC  1038 012F                move.b     D0, [0x0000012F /* CPUFlag */]
000040E0  5240                     addq.w     D0, 1
000040E2  1340 0007                move.b     [A1 + 0x7], D0
label000040E6:
000040E6  4A78 028E                tst.w      [0x0000028E /* ROM85 */]
000040EA  6B0E                     bmi        +0x10 /* 000040FA */
000040EC  0838 0004 0B22           btst.b     [0x00000B22 /* HWCfgFlags */], 0x4
000040F2  6706                     beq        +0x8 /* 000040FA */
000040F4  137C 0001 0008           move.b     [A1 + 0x8], 0x1
label000040FA:
000040FA  0C78 3FFF 028E           cmpi.w     [0x0000028E /* ROM85 */], 0x3FFF
00004100  6206                     bhi        +0x8 /* 00004108 */
00004102  137C 0001 0009           move.b     [A1 + 0x9], 0x1
label00004108:
00004108  1038 021E                move.b     D0, [0x0000021E /* KbdType */]
0000410C  41FA FF5B                lea.l      A0, [PC - 0xA5 /* 00004069, value 0x303C00 '0<\0', cstring "" */]
00004110  323C 0004                move.w     D1, 0x4
label00004114:
00004114  B020                     cmp.b      D0, -[A0]
00004116  57C9 FFFC                dbeq       D1, -0x6 /* 00004114 */
0000411A  5241                     addq.w     D1, 1
0000411C  3341 000A                move.w     [A1 + 0xA], D1
00004120  4A38 0291                tst.b      [0x00000291 /* PortBUse */]
00004124  6B18                     bmi        +0x1A /* 0000413E */
00004126  1238 01FB                move.b     D1, [0x000001FB /* SPConfig */]
0000412A  0201 000F                andi.b     D1, 0xF
0000412E  0C01 0001                cmpi.b     D1, 0x1
00004132  660A                     bne        +0xC /* 0000413E */
00004134  2078 02DC                movea.l    A0, [0x000002DC /* ABusDCE */]
00004138  1368 0007 000D           move.b     [A1 + 0xD], [A0 + 0x7]
label0000413E:
0000413E  3378 0210 000E           move.w     [A1 + 0xE], [0x00000210 /* BootDrive */]
00004144  4A78 03F6                tst.w      [0x000003F6 /* FSFCBLen */]
00004148  6D44                     blt        +0x46 /* 0000418E */
0000414A  4269 000E                clr.w      [A1 + 0xE]
0000414E  323C 003C                move.w     D1, 0x3C /* '<' */
label00004152:
00004152  4267                     clr.w      -[A7]
00004154  51C9 FFFC                dbf        D1, -0x6 /* 00004152 */
00004158  204F                     movea.l    A0, A7
0000415A  3178 0A58 0018           move.w     [A0 + 0x18], [0x00000A58 /* SysMap */]
00004160  7008                     moveq.l    D0, 0x08
00004162  A260                     syscall    FSDispatch/HFSDispatch, flags=2
00004164  6624                     bne        +0x26 /* 0000418A */
00004166  3168 0034 0016           move.w     [A0 + 0x16], [A0 + 0x34]
0000416C  A207                     syscall    GetVolInfo/PBHGetVInfo/HGetVInfo, flags=2
0000416E  661A                     bne        +0x1C /* 0000418A */
00004170  2168 005A 0030           move.l     [A0 + 0x30], [A0 + 0x5A]
00004176  217C 4552 494B 001C      move.l     [A0 + 0x1C], 0x4552494B /* 'ERIK' */
0000417E  7001                     moveq.l    D0, 0x01
00004180  A260                     syscall    FSDispatch/HFSDispatch, flags=2
00004182  6606                     bne        +0x8 /* 0000418A */
00004184  3368 0016 000E           move.w     [A1 + 0xE], [A0 + 0x16]
label0000418A:
0000418A  4FEF 007A                lea.l      A7, [A7 + 0x7A]
label0000418E:
0000418E  2049                     movea.l    A0, A1
00004190  225F                     movea.l    A1, [A7]+
00004192  5C4F                     addq.w     A7, 6
00004194  3EBC EA84                move.w     [A7], 0xEA84
00004198  4ED1                     jmp        [A1]
fn0000419A:
0000419A  225F                     movea.l    A1, [A7]+
0000419C  205F                     movea.l    A0, [A7]+
0000419E  A025                     syscall    GetHandleSize
000041A0  2E80                     move.l     [A7], D0
000041A2  6A02                     bpl        +0x4 /* 000041A6 */
000041A4  4297                     clr.l      [A7]
label000041A6:
000041A6  4ED1                     jmp        [A1]
fn000041A8:
000041A8  225F                     movea.l    A1, [A7]+
000041AA  121F                     move.b     D1, [A7]+
000041AC  301F                     move.w     D0, [A7]+
000041AE  4A01                     tst.b      D1
000041B0  6704                     beq        +0x6 /* 000041B6 */
000041B2  A746                     syscall    GetToolBoxTrapAddress/GetToolTrapAddress, flags=7
000041B4  6002                     bra        +0x4 /* 000041B8 */
label000041B6:
000041B6  A346                     syscall    GetOSTrapAddress, flags=3
label000041B8:
000041B8  2E88                     move.l     [A7], A0
000041BA  4ED1                     jmp        [A1]
export_44:
000041BC  225F                     movea.l    A1, [A7]+
000041BE  121F                     move.b     D1, [A7]+
000041C0  205F                     movea.l    A0, [A7]+
000041C2  7000                     moveq.l    D0, 0x00
000041C4  1018                     move.b     D0, [A0]+
000041C6  2F09                     move.l     -[A7], A1
000041C8  4A01                     tst.b      D1
000041CA  6704                     beq        +0x6 /* 000041D0 */
000041CC  A054                     syscall    UprString/UprText
000041CE  6002                     bra        +0x4 /* 000041D2 */
label000041D0:
000041D0  A254                     syscall    UprString/UprText, flags=2
label000041D2:
000041D2  4E75                     rts
fn000041D4:
000041D4  225F                     movea.l    A1, [A7]+
000041D6  101F                     move.b     D0, [A7]+
000041D8  205F                     movea.l    A0, [A7]+
000041DA  6604                     bne        +0x6 /* 000041E0 */
000041DC  A003                     syscall    Write
000041DE  6002                     bra        +0x4 /* 000041E2 */
label000041E0:
000041E0  A403                     syscall    Write, flags=4
label000041E2:
000041E2  3E80                     move.w     [A7], D0
000041E4  4ED1                     jmp        [A1]
fn000041E6:
000041E6  225F                     movea.l    A1, [A7]+
000041E8  101F                     move.b     D0, [A7]+
000041EA  205F                     movea.l    A0, [A7]+
000041EC  6604                     bne        +0x6 /* 000041F2 */
000041EE  A006                     syscall    KillIO
000041F0  6002                     bra        +0x4 /* 000041F4 */
label000041F2:
000041F2  A406                     syscall    KillIO, flags=4
label000041F4:
000041F4  3E80                     move.w     [A7], D0
000041F6  4ED1                     jmp        [A1]
export_45:
fn000041F8:
000041F8  4E56 FFCE                link       A6, -0x0032
000041FC  204F                     movea.l    A0, A7
000041FE  216E 000E 0012           move.l     [A0 + 0x12], [A6 + 0xE]
00004204  316E 000C 0016           move.w     [A0 + 0x16], [A6 + 0xC]
0000420A  4228 001A                clr.b      [A0 + 0x1A]
0000420E  4228 001B                clr.b      [A0 + 0x1B]
00004212  42A8 001C                clr.l      [A0 + 0x1C]
00004216  701A                     moveq.l    D0, 0x1A
00004218  A060                     syscall    FSDispatch/HFSDispatch
0000421A  0C40 FFCE                cmpi.w     D0, 0xFFCE
0000421E  6602                     bne        +0x4 /* 00004222 */
00004220  A000                     syscall    Open/PBHOpen/HOpen
label00004222:
00004222  226E 0008                movea.l    A1, [A6 + 0x8]
00004226  32A8 0018                move.w     [A1], [A0 + 0x18]
0000422A  3D40 0012                move.w     [A6 + 0x12], D0
0000422E  4E5E                     unlink     A6
00004230  205F                     movea.l    A0, [A7]+
00004232  4FEF 000A                lea.l      A7, [A7 + 0xA]
00004236  4ED0                     jmp        [A0]
export_46:
fn00004238:
00004238  4E56 FFCE                link       A6, -0x0032
0000423C  204F                     movea.l    A0, A7
0000423E  316E 0008 0018           move.w     [A0 + 0x18], [A6 + 0x8]
00004244  A001                     syscall    Close
00004246  3D40 000A                move.w     [A6 + 0xA], D0
0000424A  4E5E                     unlink     A6
0000424C  205F                     movea.l    A0, [A7]+
0000424E  548F                     addq.l     A7, 2
00004250  4ED0                     jmp        [A0]
export_47:
fn00004252:
00004252  51C1                     sf         D1
00004254  6002                     bra        +0x4 /* 00004258 */
fn00004256:
00004256  50C1                     st         D1
label00004258:
00004258  4E56 FFCE                link       A6, -0x0032
0000425C  204F                     movea.l    A0, A7
0000425E  216E 0008 0020           move.l     [A0 + 0x20], [A6 + 0x8]
00004264  316E 0010 0018           move.w     [A0 + 0x18], [A6 + 0x10]
0000426A  226E 000C                movea.l    A1, [A6 + 0xC]
0000426E  2151 0024                move.l     [A0 + 0x24], [A1]
00004272  4268 002C                clr.w      [A0 + 0x2C]
00004276  42A8 002E                clr.l      [A0 + 0x2E]
0000427A  4A01                     tst.b      D1
0000427C  6604                     bne        +0x6 /* 00004282 */
0000427E  A002                     syscall    Read
00004280  6002                     bra        +0x4 /* 00004284 */
label00004282:
00004282  A003                     syscall    Write
label00004284:
00004284  3D40 0012                move.w     [A6 + 0x12], D0
00004288  226E 000C                movea.l    A1, [A6 + 0xC]
0000428C  22A8 0028                move.l     [A1], [A0 + 0x28]
00004290  4E5E                     unlink     A6
00004292  225F                     movea.l    A1, [A7]+
00004294  4FEF 000A                lea.l      A7, [A7 + 0xA]
00004298  4ED1                     jmp        [A1]
fn0000429A:
0000429A  4E56 FFB0                link       A6, -0x0050
0000429E  204F                     movea.l    A0, A7
000042A0  216E 000E 0012           move.l     [A0 + 0x12], [A6 + 0xE]
000042A6  316E 000C 0016           move.w     [A0 + 0x16], [A6 + 0xC]
000042AC  4228 001A                clr.b      [A0 + 0x1A]
000042B0  4268 001C                clr.w      [A0 + 0x1C]
000042B4  A00C                     syscall    GetFileInfo/PBHGetFInfo/HGetFileInfo
000042B6  3D40 0012                move.w     [A6 + 0x12], D0
000042BA  41E8 0020                lea.l      A0, [A0 + 0x20]
000042BE  226E 0008                movea.l    A1, [A6 + 0x8]
000042C2  7010                     moveq.l    D0, 0x10
000042C4  A02E                     syscall    BlockMove/BlockMoveData
000042C6  4E5E                     unlink     A6
000042C8  225F                     movea.l    A1, [A7]+
000042CA  4FEF 000A                lea.l      A7, [A7 + 0xA]
000042CE  4ED1                     jmp        [A1]
fn000042D0:
000042D0  4E56 FFC0                link       A6, -0x0040
000042D4  204F                     movea.l    A0, A7
000042D6  216E 000C 0012           move.l     [A0 + 0x12], [A6 + 0xC]
000042DC  A014                     syscall    GetVol/PBHGetVol/HGetVol
000042DE  3D40 0010                move.w     [A6 + 0x10], D0
000042E2  226E 0008                movea.l    A1, [A6 + 0x8]
000042E6  32A8 0016                move.w     [A1], [A0 + 0x16]
000042EA  4E5E                     unlink     A6
000042EC  225F                     movea.l    A1, [A7]+
000042EE  508F                     addq.l     A7, 8
000042F0  4ED1                     jmp        [A1]
fn000042F2:
000042F2  4E56 FFC0                link       A6, -0x0040
000042F6  204F                     movea.l    A0, A7
000042F8  316E 0008 0016           move.w     [A0 + 0x16], [A6 + 0x8]
000042FE  216E 000A 0012           move.l     [A0 + 0x12], [A6 + 0xA]
00004304  A013                     syscall    FlushVol
00004306  3D40 000E                move.w     [A6 + 0xE], D0
0000430A  4E5E                     unlink     A6
0000430C  225F                     movea.l    A1, [A7]+
0000430E  5C8F                     addq.l     A7, 6
00004310  4ED1                     jmp        [A1]
fn00004312:
00004312  4E56 FFB0                link       A6, -0x0050
00004316  204F                     movea.l    A0, A7
00004318  216E 0012 0012           move.l     [A0 + 0x12], [A6 + 0x12]
0000431E  316E 0010 0016           move.w     [A0 + 0x16], [A6 + 0x10]
00004324  4228 001A                clr.b      [A0 + 0x1A]
00004328  A008                     syscall    Create/PBHCreate/HCreate
0000432A  6616                     bne        +0x18 /* 00004342 */
0000432C  4268 001C                clr.w      [A0 + 0x1C]
00004330  A00C                     syscall    GetFileInfo/PBHGetFInfo/HGetFileInfo
00004332  660E                     bne        +0x10 /* 00004342 */
00004334  43E8 0020                lea.l      A1, [A0 + 0x20]
00004338  22EE 0008                move.l     [A1]+, [A6 + 0x8]
0000433C  22AE 000C                move.l     [A1], [A6 + 0xC]
00004340  A00D                     syscall    SetFileInfo/PBHSetFInfo/HSetFileInfo
label00004342:
00004342  3D40 0016                move.w     [A6 + 0x16], D0
00004346  4E5E                     unlink     A6
00004348  225F                     movea.l    A1, [A7]+
0000434A  4FEF 000E                lea.l      A7, [A7 + 0xE]
0000434E  4ED1                     jmp        [A1]
fn00004350:
00004350  4E56 FFCE                link       A6, -0x0032
00004354  204F                     movea.l    A0, A7
00004356  216E 000A 0012           move.l     [A0 + 0x12], [A6 + 0xA]
0000435C  316E 0008 0016           move.w     [A0 + 0x16], [A6 + 0x8]
00004362  4228 001A                clr.b      [A0 + 0x1A]
00004366  A009                     syscall    Delete/PBHDelete/HDelete
00004368  3D40 000E                move.w     [A6 + 0xE], D0
0000436C  4E5E                     unlink     A6
0000436E  225F                     movea.l    A1, [A7]+
00004370  5C8F                     addq.l     A7, 6
00004372  4ED1                     jmp        [A1]
fn00004374:
00004374  4E56 FFCE                link       A6, -0x0032
00004378  204F                     movea.l    A0, A7
0000437A  226E 0008                movea.l    A1, [A6 + 0x8]
0000437E  2151 0024                move.l     [A0 + 0x24], [A1]
00004382  316E 000C 0018           move.w     [A0 + 0x18], [A6 + 0xC]
00004388  A010                     syscall    Allocate/PBAllocContig/AllocContig
0000438A  3D40 000E                move.w     [A6 + 0xE], D0
0000438E  22A8 0028                move.l     [A1], [A0 + 0x28]
00004392  4E5E                     unlink     A6
00004394  225F                     movea.l    A1, [A7]+
00004396  5C8F                     addq.l     A7, 6
00004398  4ED1                     jmp        [A1]
export_48:
fn0000439A:
0000439A  4E56 FFCE                link       A6, -0x0032
0000439E  204F                     movea.l    A0, A7
000043A0  316E 000E 0018           move.w     [A0 + 0x18], [A6 + 0xE]
000043A6  316E 000C 002C           move.w     [A0 + 0x2C], [A6 + 0xC]
000043AC  216E 0008 002E           move.l     [A0 + 0x2E], [A6 + 0x8]
000043B2  A044                     syscall    SetFPos
000043B4  3D40 0010                move.w     [A6 + 0x10], D0
000043B8  4E5E                     unlink     A6
000043BA  225F                     movea.l    A1, [A7]+
000043BC  508F                     addq.l     A7, 8
000043BE  4ED1                     jmp        [A1]
fn000043C0:
000043C0  226F 0004                movea.l    A1, [A7 + 0x4]
000043C4  4251                     clr.w      [A1]
000043C6  2078 0AEC                movea.l    A0, [0x00000AEC /* AppParmHandle */]
000043CA  A025                     syscall    GetHandleSize
000043CC  4A80                     tst.l      D0
000043CE  6F0E                     ble        +0x10 /* 000043DE */
000043D0  2050                     movea.l    A0, [A0]
000043D2  226F 0008                movea.l    A1, [A7 + 0x8]
000043D6  3298                     move.w     [A1], [A0]+
000043D8  226F 0004                movea.l    A1, [A7 + 0x4]
000043DC  3290                     move.w     [A1], [A0]
label000043DE:
000043DE  205F                     movea.l    A0, [A7]+
000043E0  504F                     addq.w     A7, 8
000043E2  4ED0                     jmp        [A0]
fn000043E4:
000043E4  48E7 0030                movem.l    -[A7], A2,A3
000043E8  226F 000C                movea.l    A1, [A7 + 0xC]
000043EC  42A9 0002                clr.l      [A1 + 0x2]
000043F0  2078 0AEC                movea.l    A0, [0x00000AEC /* AppParmHandle */]
000043F4  A025                     syscall    GetHandleSize
000043F6  4A80                     tst.l      D0
000043F8  6F26                     ble        +0x28 /* 00004420 */
000043FA  2450                     movea.l    A2, [A0]
000043FC  544A                     addq.w     A2, 2
000043FE  322F 0010                move.w     D1, [A7 + 0x10]
00004402  B25A                     cmp.w      D1, [A2]+
00004404  6E1A                     bgt        +0x1C /* 00004420 */
00004406  5341                     subq.w     D1, 1
label00004408:
00004408  6D16                     blt        +0x18 /* 00004420 */
0000440A  204A                     movea.l    A0, A2
0000440C  7002                     moveq.l    D0, 0x02
0000440E  D028 0008                add.b      D0, [A0 + 0x8]
00004412  0240 FFFE                andi.w     D0, 0xFFFE
00004416  5040                     addq.w     D0, 8
00004418  D4C0                     add.w      A2, D0
0000441A  A02E                     syscall    BlockMove/BlockMoveData
0000441C  5341                     subq.w     D1, 1
0000441E  60E8                     bra        -0x16 /* 00004408 */
label00004420:
00004420  4CDF 0C00                movem.l    A2,A3, [A7]+
00004424  205F                     movea.l    A0, [A7]+
00004426  5C4F                     addq.w     A7, 6
00004428  4ED0                     jmp        [A0]
fn0000442A:
0000442A  2078 0AEC                movea.l    A0, [0x00000AEC /* AppParmHandle */]
0000442E  A025                     syscall    GetHandleSize
00004430  4A80                     tst.l      D0
00004432  6F28                     ble        +0x2A /* 0000445C */
00004434  2050                     movea.l    A0, [A0]
00004436  5448                     addq.w     A0, 2
00004438  322F 0004                move.w     D1, [A7 + 0x4]
0000443C  B258                     cmp.w      D1, [A0]+
0000443E  6E1C                     bgt        +0x1E /* 0000445C */
00004440  5341                     subq.w     D1, 1
label00004442:
00004442  6D18                     blt        +0x1A /* 0000445C */
00004444  6712                     beq        +0x14 /* 00004458 */
00004446  7002                     moveq.l    D0, 0x02
00004448  D028 0008                add.b      D0, [A0 + 0x8]
0000444C  0240 FFFE                andi.w     D0, 0xFFFE
00004450  5040                     addq.w     D0, 8
00004452  D0C0                     add.w      A0, D0
00004454  5341                     subq.w     D1, 1
00004456  60EA                     bra        -0x14 /* 00004442 */
label00004458:
00004458  42A8 0002                clr.l      [A0 + 0x2]
label0000445C:
0000445C  205F                     movea.l    A0, [A7]+
0000445E  544F                     addq.w     A7, 2
00004460  4ED0                     jmp        [A0]
fn00004462:
00004462  206F 0004                movea.l    A0, [A7 + 0x4]
00004466  202F 0008                move.l     D0, [A7 + 0x8]
0000446A  4267                     clr.w      -[A7]
0000446C  A9EE                     syscall    Pack7/DecStr68K
0000446E  205F                     movea.l    A0, [A7]+
00004470  504F                     addq.w     A7, 8
00004472  4ED0                     jmp        [A0]
fn00004474:
00004474  225F                     movea.l    A1, [A7]+
00004476  201F                     move.l     D0, [A7]+
00004478  0838 0006 028E           btst.b     [0x0000028E /* ROM85 */], 0x6
0000447E  6606                     bne        +0x8 /* 00004486 */
00004480  A055                     syscall    StripAddress
00004482  2E80                     move.l     [A7], D0
00004484  4ED1                     jmp        [A1]
label00004486:
00004486  C0B8 031A                and.l      D0, [0x0000031A /* MaskBC/MaskHandle/MaskPtr/Lo3Bytes */]
0000448A  2E80                     move.l     [A7], D0
0000448C  4ED1                     jmp        [A1]
fn0000448E:
0000448E  4E56 FFF0                link       A6, -0x0010
00004492  2F07                     move.l     -[A7], D7
00004494  422D A77E                clr.b      [A5 - 0x5882]
00004498  7E01                     moveq.l    D7, 0x01
0000449A  4267                     clr.w      -[A7]
0000449C  3F3C 0001                move.w     -[A7], 0x1
000044A0  486E FFF0                pea.l      [A6 - 0x10]
000044A4  4EBA FB8A                jsr        [PC - 0x476 /* 00004030 */]
000044A8  4A5F                     tst.w      [A7]+
000044AA  6604                     bne        +0x6 /* 000044B0 */
000044AC  3E2E FFF4                move.w     D7, [A6 - 0xC]
label000044B0:
000044B0  0C47 0600                cmpi.w     D7, 0x600
000044B4  653A                     bcs        +0x3C /* 000044F0 */
000044B6  1B7C 0001 A77E           move.b     [A5 - 0x5882], 0x1
000044BC  7E00                     moveq.l    D7, 0x00
000044BE  602A                     bra        +0x2C /* 000044EA */
label000044C0:
000044C0  7000                     moveq.l    D0, 0x00
000044C2  3007                     move.w     D0, D7
000044C4  204D                     movea.l    A0, A5
000044C6  D1C0                     add.l      A0, D0
000044C8  D1C0                     add.l      A0, D0
000044CA  302E FFF2                move.w     D0, [A6 - 0xE]
000044CE  B068 A75C                cmp.w      D0, [A0 - 0x58A4]
000044D2  6614                     bne        +0x16 /* 000044E8 */
000044D4  0C6E 0003 FFF6           cmpi.w     [A6 - 0xA], 0x3
000044DA  6E0C                     bgt        +0xE /* 000044E8 */
000044DC  4A6E FFF6                tst.w      [A6 - 0xA]
000044E0  6706                     beq        +0x8 /* 000044E8 */
000044E2  422D A77E                clr.b      [A5 - 0x5882]
000044E6  6008                     bra        +0xA /* 000044F0 */
label000044E8:
000044E8  5247                     addq.w     D7, 1
label000044EA:
000044EA  0C47 000A                cmpi.w     D7, 0xA /* '\n' */
000044EE  65D0                     bcs        -0x2E /* 000044C0 */
label000044F0:
000044F0  102D A77E                move.b     D0, [A5 - 0x5882]
000044F4  2E1F                     move.l     D7, [A7]+
000044F6  4E5E                     unlink     A6
000044F8  4E75                     rts
fn000044FA:
000044FA  4E56 0000                link       A6, 0
000044FE  48E7 0300                movem.l    -[A7], D6,D7
00004502  1C2E 0008                move.b     D6, [A6 + 0x8]
00004506  302D A77C                move.w     D0, [A5 - 0x5884]
0000450A  E048                     lsr        D0.w, 8
0000450C  BD00                     xor.b      D0, D6
0000450E  1E00                     move.b     D7, D0
00004510  7000                     moveq.l    D0, 0x00
00004512  1006                     move.b     D0, D6
00004514  D06D A77C                add.w      D0, [A5 - 0x5884]
00004518  C0FC CE6D                mulu.w     D0, 0xCE6D
0000451C  0640 58BF                addi.w     D0, 0x58BF
00004520  3B40 A77C                move.w     [A5 - 0x5884], D0
00004524  1007                     move.b     D0, D7
00004526  4CDF 00C0                movem.l    D6,D7, [A7]+
0000452A  4E5E                     unlink     A6
0000452C  4E75                     rts
fn0000452E:
0000452E  4E56 0000                link       A6, 0
00004532  48E7 0138                movem.l    -[A7], D7,A2,A3,A4
00004536  246E 0008                movea.l    A2, [A6 + 0x8]
0000453A  200A                     move.l     D0, A2
0000453C  6730                     beq        +0x32 /* 0000456E */
0000453E  3B7C DCE5 A77C           move.w     [A5 - 0x5884], 0xDCE5
00004544  204A                     movea.l    A0, A2
00004546  A029                     syscall    HLock
00004548  2852                     movea.l    A4, [A2]
0000454A  42A7                     clr.l      -[A7]
0000454C  2F0A                     move.l     -[A7], A2
0000454E  4EBA FC4A                jsr        [PC - 0x3B6 /* 0000419A */]
00004552  264C                     movea.l    A3, A4
00004554  D7DF                     add.l      A3, [A7]+
00004556  5E8C                     addq.l     A4, 7
00004558  600C                     bra        +0xE /* 00004566 */
label0000455A:
0000455A  1F14                     move.b     -[A7], [A4]
0000455C  4EBA FF9C                jsr        [PC - 0x64 /* 000044FA */]
00004560  1880                     move.b     [A4], D0
00004562  528C                     addq.l     A4, 1
00004564  548F                     addq.l     A7, 2
label00004566:
00004566  B7CC                     cmpa.l     A3, A4
00004568  62F0                     bhi        -0xE /* 0000455A */
0000456A  204A                     movea.l    A0, A2
0000456C  A02A                     syscall    HUnlock
label0000456E:
0000456E  4CDF 1C80                movem.l    D7,A2,A3,A4, [A7]+
00004572  4E5E                     unlink     A6
00004574  4E75                     rts
fn00004576:
00004576  4E56 FFFE                link       A6, -0x0002
0000457A  2F0C                     move.l     -[A7], A4
0000457C  42A7                     clr.l      -[A7]
0000457E  2F3C 534F 4E47           move.l     -[A7], 0x534F4E47 /* 'SONG' */
00004584  3F2E 0008                move.w     -[A7], [A6 + 0x8]
00004588  A9A0                     syscall    GetResource
0000458A  285F                     movea.l    A4, [A7]+
0000458C  200C                     move.l     D0, A4
0000458E  675A                     beq        +0x5C /* 000045EA */
00004590  2054                     movea.l    A0, [A4]
00004592  3D50 0008                move.w     [A6 + 0x8], [A0]
00004596  4A2D A77B                tst.b      [A5 - 0x5885]
0000459A  6706                     beq        +0x8 /* 000045A2 */
0000459C  204C                     movea.l    A0, A4
0000459E  A029                     syscall    HLock
000045A0  6004                     bra        +0x6 /* 000045A6 */
label000045A2:
000045A2  204C                     movea.l    A0, A4
000045A4  A02A                     syscall    HUnlock
label000045A6:
000045A6  4A2D A77A                tst.b      [A5 - 0x5886]
000045AA  6706                     beq        +0x8 /* 000045B2 */
000045AC  204C                     movea.l    A0, A4
000045AE  A049                     syscall    HPurge
000045B0  6004                     bra        +0x6 /* 000045B6 */
label000045B2:
000045B2  204C                     movea.l    A0, A4
000045B4  A04A                     syscall    HNoPurge
label000045B6:
000045B6  42A7                     clr.l      -[A7]
000045B8  2F3C 4D49 4449           move.l     -[A7], 0x4D494449 /* 'MIDI' */
000045BE  3F2E 0008                move.w     -[A7], [A6 + 0x8]
000045C2  A9A0                     syscall    GetResource
000045C4  285F                     movea.l    A4, [A7]+
000045C6  200C                     move.l     D0, A4
000045C8  6720                     beq        +0x22 /* 000045EA */
000045CA  4A2D A77B                tst.b      [A5 - 0x5885]
000045CE  6706                     beq        +0x8 /* 000045D6 */
000045D0  204C                     movea.l    A0, A4
000045D2  A029                     syscall    HLock
000045D4  6004                     bra        +0x6 /* 000045DA */
label000045D6:
000045D6  204C                     movea.l    A0, A4
000045D8  A02A                     syscall    HUnlock
label000045DA:
000045DA  4A2D A77A                tst.b      [A5 - 0x5886]
000045DE  6706                     beq        +0x8 /* 000045E6 */
000045E0  204C                     movea.l    A0, A4
000045E2  A049                     syscall    HPurge
000045E4  6004                     bra        +0x6 /* 000045EA */
label000045E6:
000045E6  204C                     movea.l    A0, A4
000045E8  A04A                     syscall    HNoPurge
label000045EA:
000045EA  285F                     movea.l    A4, [A7]+
000045EC  4E5E                     unlink     A6
000045EE  4E75                     rts
fn000045F0:
000045F0  4E56 FFFC                link       A6, -0x0004
000045F4  2F0B                     move.l     -[A7], A3
000045F6  206E 000A                movea.l    A0, [A6 + 0xA]
000045FA  4250                     clr.w      [A0]
000045FC  42A7                     clr.l      -[A7]
000045FE  2F3C 4A6E 7468           move.l     -[A7], 0x4A6E7468 /* 'Jnth' */
00004604  3F2E 0008                move.w     -[A7], [A6 + 0x8]
00004608  A9A0                     syscall    GetResource
0000460A  265F                     movea.l    A3, [A7]+
0000460C  4AAD A766                tst.l      [A5 - 0x589A]
00004610  6708                     beq        +0xA /* 0000461A */
00004612  2F2D A766                move.l     -[A7], [A5 - 0x589A]
00004616  A992                     syscall    DetachResource
00004618  603E                     bra        +0x40 /* 00004658 */
label0000461A:
0000461A  42A7                     clr.l      -[A7]
0000461C  2F3C 4D44 5256           move.l     -[A7], 0x4D445256 /* 'MDRV' */
00004622  3F2E 0008                move.w     -[A7], [A6 + 0x8]
00004626  A9A0                     syscall    GetResource
00004628  265F                     movea.l    A3, [A7]+
0000462A  200B                     move.l     D0, A3
0000462C  6722                     beq        +0x24 /* 00004650 */
0000462E  2F0B                     move.l     -[A7], A3
00004630  A992                     syscall    DetachResource
00004632  2F0B                     move.l     -[A7], A3
00004634  4EBA FEF8                jsr        [PC - 0x108 /* 0000452E */]
00004638  2E8B                     move.l     [A7], A3
0000463A  4EBA 079E                jsr        [PC + 0x79E /* 00004DDA */]
0000463E  2640                     movea.l    A3, D0
00004640  200B                     move.l     D0, A3
00004642  588F                     addq.l     A7, 4
00004644  6612                     bne        +0x14 /* 00004658 */
00004646  206E 000A                movea.l    A0, [A6 + 0xA]
0000464A  30BC FF94                move.w     [A0], 0xFF94
0000464E  6008                     bra        +0xA /* 00004658 */
label00004650:
00004650  206E 000A                movea.l    A0, [A6 + 0xA]
00004654  30BC FF34                move.w     [A0], 0xFF34
label00004658:
00004658  200B                     move.l     D0, A3
0000465A  265F                     movea.l    A3, [A7]+
0000465C  4E5E                     unlink     A6
0000465E  4E75                     rts
fn00004660:
00004660  4E56 FEE4                link       A6, -0x011C
00004664  48E7 0308                movem.l    -[A7], D6,D7,A4
00004668  3E2E 000A                move.w     D7, [A6 + 0xA]
0000466C  7C00                     moveq.l    D6, 0x00
0000466E  302E 0008                move.w     D0, [A6 + 0x8]
00004672  0C40 000E                cmpi.w     D0, 0xE
00004676  6200 03FA                bhi        +0x3FC /* 00004A72 */
0000467A  43FA 0400                lea.l      A1, [PC + 0x400 /* 00004A7C, value 0xFC1AFD38 */]
0000467E  D040                     add.w      D0, D0
00004680  D2F1 0000                add.w      A1, [A1 + D0.w]
00004684  4ED1                     jmp        [A1]
00004686  1B47 A77B                move.b     [A5 - 0x5885], D7
0000468A  6000 03E6                bra        +0x3E8 /* 00004A72 */
0000468E  1B47 A77A                move.b     [A5 - 0x5886], D7
00004692  6000 03DE                bra        +0x3E0 /* 00004A72 */
00004696  4267                     clr.w      -[A7]
00004698  3F3C 0001                move.w     -[A7], 0x1
0000469C  486E FEE4                pea.l      [A6 - 0x11C]
000046A0  4EBA F98E                jsr        [PC - 0x672 /* 00004030 */]
000046A4  3C1F                     move.w     D6, [A7]+
000046A6  48C6                     ext.l      D6
000046A8  4A86                     tst.l      D6
000046AA  670A                     beq        +0xC /* 000046B6 */
000046AC  0C6E 0600 FEE8           cmpi.w     [A6 - 0x118], 0x600
000046B2  6C02                     bge        +0x4 /* 000046B6 */
000046B4  7C66                     moveq.l    D6, 0x66
label000046B6:
000046B6  4A86                     tst.l      D6
000046B8  6600 03B8                bne        +0x3BA /* 00004A72 */
000046BC  4EBA FDD0                jsr        [PC - 0x230 /* 0000448E */]
000046C0  1B40 A77E                move.b     [A5 - 0x5882], D0
000046C4  3207                     move.w     D1, D7
000046C6  6708                     beq        +0xA /* 000046D0 */
000046C8  6B32                     bmi        +0x34 /* 000046FC */
000046CA  5541                     subq.w     D1, 2
000046CC  6A2E                     bpl        +0x30 /* 000046FC */
000046CE  6016                     bra        +0x18 /* 000046E6 */
label000046D0:
000046D0  4A2D A77E                tst.b      [A5 - 0x5882]
000046D4  6708                     beq        +0xA /* 000046DE */
000046D6  3D7C 0016 FFFE           move.w     [A6 - 0x2], 0x16
000046DC  6024                     bra        +0x26 /* 00004702 */
label000046DE:
000046DE  3D7C 000B FFFE           move.w     [A6 - 0x2], 0xB
000046E4  601C                     bra        +0x1E /* 00004702 */
label000046E6:
000046E6  4A2D A77E                tst.b      [A5 - 0x5882]
000046EA  6708                     beq        +0xA /* 000046F4 */
000046EC  3D7C 000B FFFE           move.w     [A6 - 0x2], 0xB
000046F2  600E                     bra        +0x10 /* 00004702 */
label000046F4:
000046F4  3D7C 000C FFFE           move.w     [A6 - 0x2], 0xC
000046FA  6006                     bra        +0x8 /* 00004702 */
label000046FC:
000046FC  3D7C FFFF FFFE           move.w     [A6 - 0x2], 0xFFFF
label00004702:
00004702  0C6E FFFF FFFE           cmpi.w     [A6 - 0x2], 0xFFFF
00004708  6606                     bne        +0x8 /* 00004710 */
0000470A  7CCE                     moveq.l    D6, 0xFFFFFFCE
0000470C  6000 0364                bra        +0x366 /* 00004A72 */
label00004710:
00004710  486E FFFC                pea.l      [A6 - 0x4]
00004714  3F2E FFFE                move.w     -[A7], [A6 - 0x2]
00004718  4EBA FED6                jsr        [PC - 0x12A /* 000045F0 */]
0000471C  2B40 A766                move.l     [A5 - 0x589A], D0
00004720  4A80                     tst.l      D0
00004722  5C8F                     addq.l     A7, 6
00004724  661A                     bne        +0x1C /* 00004740 */
00004726  0C6E 000C FFFE           cmpi.w     [A6 - 0x2], 0xC
0000472C  6612                     bne        +0x14 /* 00004740 */
0000472E  486E FFFC                pea.l      [A6 - 0x4]
00004732  3F3C 000B                move.w     -[A7], 0xB
00004736  4EBA FEB8                jsr        [PC - 0x148 /* 000045F0 */]
0000473A  2B40 A766                move.l     [A5 - 0x589A], D0
0000473E  5C8F                     addq.l     A7, 6
label00004740:
00004740  3C2E FFFC                move.w     D6, [A6 - 0x4]
00004744  48C6                     ext.l      D6
00004746  4AAD A766                tst.l      [A5 - 0x589A]
0000474A  6700 0326                beq        +0x328 /* 00004A72 */
0000474E  206D A766                movea.l    A0, [A5 - 0x589A]
00004752  A064                     syscall    MoveHHi
00004754  206D A766                movea.l    A0, [A5 - 0x589A]
00004758  A04A                     syscall    HNoPurge
0000475A  206D A766                movea.l    A0, [A5 - 0x589A]
0000475E  A029                     syscall    HLock
00004760  206D A766                movea.l    A0, [A5 - 0x589A]
00004764  2B50 A76A                move.l     [A5 - 0x5896], [A0]
00004768  3B7C FFFF A76E           move.w     [A5 - 0x5892], 0xFFFF
0000476E  42AD A772                clr.l      [A5 - 0x588E]
00004772  422D A770                clr.b      [A5 - 0x5890]
00004776  422D A771                clr.b      [A5 - 0x588F]
0000477A  7000                     moveq.l    D0, 0x00
0000477C  102D A77E                move.b     D0, [A5 - 0x5882]
00004780  3F00                     move.w     -[A7], D0
00004782  3F3C 0010                move.w     -[A7], 0x10
00004786  226D A76A                movea.l    A1, [A5 - 0x5896]
0000478A  4E91                     jsr        [A1]
0000478C  4297                     clr.l      [A7]
0000478E  206D A76A                movea.l    A0, [A5 - 0x5896]
00004792  4E90                     jsr        [A0]
00004794  3EBC 0007                move.w     [A7], 0x7
00004798  206D A76A                movea.l    A0, [A5 - 0x5896]
0000479C  4E90                     jsr        [A0]
0000479E  1B7C 0001 A77A           move.b     [A5 - 0x5886], 0x1
000047A4  422D A77B                clr.b      [A5 - 0x5885]
000047A8  4257                     clr.w      [A7]
000047AA  4EBA FDCA                jsr        [PC - 0x236 /* 00004576 */]
000047AE  588F                     addq.l     A7, 4
000047B0  6000 02C0                bra        +0x2C2 /* 00004A72 */
000047B4  422D A770                clr.b      [A5 - 0x5890]
000047B8  2F3C 0004 0000           move.l     -[A7], 0x40000
000047BE  4EBA FEA0                jsr        [PC - 0x160 /* 00004660 */]
000047C2  3EBC 0008                move.w     [A7], 0x8
000047C6  206D A76A                movea.l    A0, [A5 - 0x5896]
000047CA  4E90                     jsr        [A0]
000047CC  206D A766                movea.l    A0, [A5 - 0x589A]
000047D0  A02A                     syscall    HUnlock
000047D2  206D A766                movea.l    A0, [A5 - 0x589A]
000047D6  A023                     syscall    DisposHandle/DisposeHandle
000047D8  42AD A766                clr.l      [A5 - 0x589A]
000047DC  99CC                     sub.l      A4, A4
000047DE  3D7C 0001 FFFC           move.w     [A6 - 0x4], 0x1
000047E4  588F                     addq.l     A7, 4
label000047E6:
000047E6  42A7                     clr.l      -[A7]
000047E8  2F3C 534D 4F44           move.l     -[A7], 0x534D4F44 /* 'SMOD' */
000047EE  3F2E FFFC                move.w     -[A7], [A6 - 0x4]
000047F2  A99D                     syscall    GetIndResource
000047F4  285F                     movea.l    A4, [A7]+
000047F6  200C                     move.l     D0, A4
000047F8  671C                     beq        +0x1E /* 00004816 */
000047FA  2F0C                     move.l     -[A7], A4
000047FC  486E FFFE                pea.l      [A6 - 0x2]
00004800  486E FFF8                pea.l      [A6 - 0x8]
00004804  486E FEF4                pea.l      [A6 - 0x10C]
00004808  A9A8                     syscall    GetResInfo
0000480A  204C                     movea.l    A0, A4
0000480C  A02A                     syscall    HUnlock
0000480E  204C                     movea.l    A0, A4
00004810  A049                     syscall    HPurge
00004812  2F0C                     move.l     -[A7], A4
00004814  A9A3                     syscall    ReleaseResource
label00004816:
00004816  526E FFFC                addq.w     [A6 - 0x4], 1
0000481A  200C                     move.l     D0, A4
0000481C  66C8                     bne        -0x36 /* 000047E6 */
0000481E  203C 0080 0000           move.l     D0, 0x800000
00004824  A04D                     syscall    PurgeMem
00004826  203C 0080 0000           move.l     D0, 0x800000
0000482C  A04C                     syscall    CompactMem
0000482E  6000 0242                bra        +0x244 /* 00004A72 */
00004832  4A2D A770                tst.b      [A5 - 0x5890]
00004836  6600 023A                bne        +0x23C /* 00004A72 */
0000483A  3F3C 000A                move.w     -[A7], 0xA /* '\n' */
0000483E  206D A76A                movea.l    A0, [A5 - 0x5896]
00004842  4E90                     jsr        [A0]
00004844  1B7C 0001 A770           move.b     [A5 - 0x5890], 0x1
0000484A  2B78 016A A776           move.l     [A5 - 0x588A], [0x0000016A /* Ticks */]
00004850  548F                     addq.l     A7, 2
00004852  6000 021E                bra        +0x220 /* 00004A72 */
00004856  4A2D A770                tst.b      [A5 - 0x5890]
0000485A  6700 0216                beq        +0x218 /* 00004A72 */
0000485E  3F3C 000B                move.w     -[A7], 0xB
00004862  206D A76A                movea.l    A0, [A5 - 0x5896]
00004866  4E90                     jsr        [A0]
00004868  422D A770                clr.b      [A5 - 0x5890]
0000486C  2038 016A                move.l     D0, [0x0000016A /* Ticks */]
00004870  90AD A776                sub.l      D0, [A5 - 0x588A]
00004874  D1AD A772                add.l      [A5 - 0x588E], D0
00004878  2F3C 0009 0000           move.l     -[A7], 0x90000 /* '\t\0\0' */
0000487E  4EBA FDE0                jsr        [PC - 0x220 /* 00004660 */]
00004882  5C8F                     addq.l     A7, 6
00004884  6000 01EC                bra        +0x1EE /* 00004A72 */
00004888  4A2D A770                tst.b      [A5 - 0x5890]
0000488C  6600 01E4                bne        +0x1E6 /* 00004A72 */
00004890  0C6D FFFF A76E           cmpi.w     [A5 - 0x5892], 0xFFFF
00004896  670C                     beq        +0xE /* 000048A4 */
00004898  2F3C 0004 0000           move.l     -[A7], 0x40000
0000489E  4EBA FDC0                jsr        [PC - 0x240 /* 00004660 */]
000048A2  588F                     addq.l     A7, 4
label000048A4:
000048A4  2F3C 000D 0001           move.l     -[A7], 0xD0001
000048AA  206D A76A                movea.l    A0, [A5 - 0x5896]
000048AE  4E90                     jsr        [A0]
000048B0  588F                     addq.l     A7, 4
000048B2  602A                     bra        +0x2C /* 000048DE */
000048B4  4A2D A770                tst.b      [A5 - 0x5890]
000048B8  6600 01B8                bne        +0x1BA /* 00004A72 */
000048BC  0C6D FFFF A76E           cmpi.w     [A5 - 0x5892], 0xFFFF
000048C2  670C                     beq        +0xE /* 000048D0 */
000048C4  2F3C 0004 0000           move.l     -[A7], 0x40000
000048CA  4EBA FD94                jsr        [PC - 0x26C /* 00004660 */]
000048CE  588F                     addq.l     A7, 4
label000048D0:
000048D0  2F3C 000D 0000           move.l     -[A7], 0xD0000 /* '\r\0\0' */
000048D6  206D A76A                movea.l    A0, [A5 - 0x5896]
000048DA  4E90                     jsr        [A0]
000048DC  588F                     addq.l     A7, 4
label000048DE:
000048DE  3F07                     move.w     -[A7], D7
000048E0  4267                     clr.w      -[A7]
000048E2  206D A76A                movea.l    A0, [A5 - 0x5896]
000048E6  4E90                     jsr        [A0]
000048E8  3EBC 0001                move.w     [A7], 0x1
000048EC  206D A76A                movea.l    A0, [A5 - 0x5896]
000048F0  4E90                     jsr        [A0]
000048F2  3EBC 0002                move.w     [A7], 0x2
000048F6  206D A76A                movea.l    A0, [A5 - 0x5896]
000048FA  4E90                     jsr        [A0]
000048FC  3B47 A76E                move.w     [A5 - 0x5892], D7
00004900  2B78 016A A772           move.l     [A5 - 0x588E], [0x0000016A /* Ticks */]
00004906  588F                     addq.l     A7, 4
00004908  6000 0168                bra        +0x16A /* 00004A72 */
0000490C  4A2D A770                tst.b      [A5 - 0x5890]
00004910  6600 0160                bne        +0x162 /* 00004A72 */
00004914  0C6D FFFF A76E           cmpi.w     [A5 - 0x5892], 0xFFFF
0000491A  6700 0156                beq        +0x158 /* 00004A72 */
0000491E  3F3C 0005                move.w     -[A7], 0x5
00004922  206D A76A                movea.l    A0, [A5 - 0x5896]
00004926  4E90                     jsr        [A0]
00004928  3EBC 0009                move.w     [A7], 0x9 /* '\t' */
0000492C  206D A76A                movea.l    A0, [A5 - 0x5896]
00004930  4E90                     jsr        [A0]
00004932  3EBC 0006                move.w     [A7], 0x6
00004936  206D A76A                movea.l    A0, [A5 - 0x5896]
0000493A  4E90                     jsr        [A0]
0000493C  3EBC 0007                move.w     [A7], 0x7
00004940  206D A76A                movea.l    A0, [A5 - 0x5896]
00004944  4E90                     jsr        [A0]
00004946  3EAD A76E                move.w     [A7], [A5 - 0x5892]
0000494A  4EBA FC2A                jsr        [PC - 0x3D6 /* 00004576 */]
0000494E  3B7C FFFF A76E           move.w     [A5 - 0x5892], 0xFFFF
00004954  42AD A772                clr.l      [A5 - 0x588E]
00004958  548F                     addq.l     A7, 2
0000495A  6000 0116                bra        +0x118 /* 00004A72 */
0000495E  4A2D A770                tst.b      [A5 - 0x5890]
00004962  6600 010E                bne        +0x110 /* 00004A72 */
00004966  0C6D FFFF A76E           cmpi.w     [A5 - 0x5892], 0xFFFF
0000496C  6700 0104                beq        +0x106 /* 00004A72 */
00004970  4A2D A771                tst.b      [A5 - 0x588F]
00004974  6600 00FC                bne        +0xFE /* 00004A72 */
00004978  1B7C 0001 A771           move.b     [A5 - 0x588F], 0x1
0000497E  3F3C 0003                move.w     -[A7], 0x3
00004982  206D A76A                movea.l    A0, [A5 - 0x5896]
00004986  4E90                     jsr        [A0]
00004988  422D A771                clr.b      [A5 - 0x588F]
0000498C  3EBC 0004                move.w     [A7], 0x4
00004990  206D A76A                movea.l    A0, [A5 - 0x5896]
00004994  4E90                     jsr        [A0]
00004996  4A40                     tst.w      D0
00004998  548F                     addq.l     A7, 2
0000499A  6704                     beq        +0x6 /* 000049A0 */
0000499C  7000                     moveq.l    D0, 0x00
0000499E  6002                     bra        +0x4 /* 000049A2 */
label000049A0:
000049A0  7001                     moveq.l    D0, 0x01
label000049A2:
000049A2  48C0                     ext.l      D0
000049A4  2C00                     move.l     D6, D0
000049A6  4A86                     tst.l      D6
000049A8  6700 00C8                beq        +0xCA /* 00004A72 */
000049AC  2F3C 0004 0000           move.l     -[A7], 0x40000
000049B2  4EBA FCAC                jsr        [PC - 0x354 /* 00004660 */]
000049B6  588F                     addq.l     A7, 4
000049B8  6000 00B8                bra        +0xBA /* 00004A72 */
000049BC  0C6D FFFF A76E           cmpi.w     [A5 - 0x5892], 0xFFFF
000049C2  6704                     beq        +0x6 /* 000049C8 */
000049C4  7000                     moveq.l    D0, 0x00
000049C6  6002                     bra        +0x4 /* 000049CA */
label000049C8:
000049C8  7001                     moveq.l    D0, 0x01
label000049CA:
000049CA  48C0                     ext.l      D0
000049CC  2C00                     move.l     D6, D0
000049CE  4A2D A770                tst.b      [A5 - 0x5890]
000049D2  6600 009E                bne        +0xA0 /* 00004A72 */
000049D6  0C6D FFFF A76E           cmpi.w     [A5 - 0x5892], 0xFFFF
000049DC  6700 0094                beq        +0x96 /* 00004A72 */
000049E0  3F3C 0004                move.w     -[A7], 0x4
000049E4  206D A76A                movea.l    A0, [A5 - 0x5896]
000049E8  4E90                     jsr        [A0]
000049EA  4A40                     tst.w      D0
000049EC  548F                     addq.l     A7, 2
000049EE  6704                     beq        +0x6 /* 000049F4 */
000049F0  7000                     moveq.l    D0, 0x00
000049F2  6002                     bra        +0x4 /* 000049F6 */
label000049F4:
000049F4  7001                     moveq.l    D0, 0x01
label000049F6:
000049F6  48C0                     ext.l      D0
000049F8  2C00                     move.l     D6, D0
000049FA  6076                     bra        +0x78 /* 00004A72 */
000049FC  7C00                     moveq.l    D6, 0x00
000049FE  4267                     clr.w      -[A7]
00004A00  3F3C 0001                move.w     -[A7], 0x1
00004A04  486E FEE4                pea.l      [A6 - 0x11C]
00004A08  4EBA F626                jsr        [PC - 0x9DA /* 00004030 */]
00004A0C  4A5F                     tst.w      [A7]+
00004A0E  6662                     bne        +0x64 /* 00004A72 */
00004A10  302E FEEA                move.w     D0, [A6 - 0x116]
00004A14  6B10                     bmi        +0x12 /* 00004A26 */
00004A16  5940                     subq.w     D0, 4
00004A18  6714                     beq        +0x16 /* 00004A2E */
00004A1A  6A06                     bpl        +0x8 /* 00004A22 */
00004A1C  5240                     addq.w     D0, 1
00004A1E  6A0A                     bpl        +0xC /* 00004A2A */
00004A20  6004                     bra        +0x6 /* 00004A26 */
label00004A22:
00004A22  5540                     subq.w     D0, 2
00004A24  6B0C                     bmi        +0xE /* 00004A32 */
label00004A26:
00004A26  7C3C                     moveq.l    D6, 0x3C
00004A28  6048                     bra        +0x4A /* 00004A72 */
label00004A2A:
00004A2A  7C25                     moveq.l    D6, 0x25
00004A2C  6044                     bra        +0x46 /* 00004A72 */
label00004A2E:
00004A2E  7C11                     moveq.l    D6, 0x11
00004A30  6040                     bra        +0x42 /* 00004A72 */
label00004A32:
00004A32  7C00                     moveq.l    D6, 0x00
00004A34  603C                     bra        +0x3E /* 00004A72 */
00004A36  7C00                     moveq.l    D6, 0x00
00004A38  4A2D A770                tst.b      [A5 - 0x5890]
00004A3C  6634                     bne        +0x36 /* 00004A72 */
00004A3E  0C6D FFFF A76E           cmpi.w     [A5 - 0x5892], 0xFFFF
00004A44  672C                     beq        +0x2E /* 00004A72 */
00004A46  2C38 016A                move.l     D6, [0x0000016A /* Ticks */]
00004A4A  9CAD A772                sub.l      D6, [A5 - 0x588E]
00004A4E  4A86                     tst.l      D6
00004A50  6C20                     bge        +0x22 /* 00004A72 */
00004A52  7C00                     moveq.l    D6, 0x00
00004A54  601C                     bra        +0x1E /* 00004A72 */
00004A56  4A2D A770                tst.b      [A5 - 0x5890]
00004A5A  6616                     bne        +0x18 /* 00004A72 */
00004A5C  0C6D FFFF A76E           cmpi.w     [A5 - 0x5892], 0xFFFF
00004A62  670E                     beq        +0x10 /* 00004A72 */
00004A64  3F07                     move.w     -[A7], D7
00004A66  3F3C 000C                move.w     -[A7], 0xC
00004A6A  206D A76A                movea.l    A0, [A5 - 0x5896]
00004A6E  4E90                     jsr        [A0]
00004A70  588F                     addq.l     A7, 4
label00004A72:
00004A72  2006                     move.l     D0, D6
00004A74  4CDF 10C0                movem.l    D6,D7,A4, [A7]+
00004A78  4E5E                     unlink     A6
00004A7A  4E75                     rts
00004A7C  FC1A FD38                .unknown   0xFC1A 0xFD38 (W = 6)
00004A80  FE38 FE0C                .unknown   0xFE38 0xFE0C (W = 7)
00004A84  FE90 FDB6                .extension 0xE90 <<F/2-3/7>> // unimplemented
00004A88  FDDA                     .invalid   <<F/7/6>>
00004A8A  FF40                     .extension 0xF40 <<F/4-5/7>> // unimplemented
00004A8C  FFBA                     .invalid   <<F/6/7>>
00004A8E  FEE2 FF80                .extension 0xEE2 <<F/2-3/7>> // unimplemented
00004A92  FFDA                     .invalid   <<F/7/7>>
00004A94  FC12 FC0A                .unknown   0xFC12 0xFC0A (W = 6)
00004A98  FFF6                     .invalid   <<F/7/7>>
fn00004A9A:
00004A9A  4E56 0000                link       A6, 0
00004A9E  2F2E 0010                move.l     -[A7], [A6 + 0x10]
00004AA2  2F2E 000C                move.l     -[A7], [A6 + 0xC]
00004AA6  2F2E 0008                move.l     -[A7], [A6 + 0x8]
00004AAA  4EBA 0126                jsr        [PC + 0x126 /* 00004BD2 */]
00004AAE  206E 0014                movea.l    A0, [A6 + 0x14]
00004AB2  2080                     move.l     [A0], D0
00004AB4  4E5E                     unlink     A6
00004AB6  4E75                     rts
fn00004AB8:
00004AB8  4E56 0000                link       A6, 0
00004ABC  206E 0014                movea.l    A0, [A6 + 0x14]
00004AC0  2F10                     move.l     -[A7], [A0]
00004AC2  2F2E 0010                move.l     -[A7], [A6 + 0x10]
00004AC6  2F2E 000C                move.l     -[A7], [A6 + 0xC]
00004ACA  2F2E 0008                move.l     -[A7], [A6 + 0x8]
00004ACE  4EBA 01C4                jsr        [PC + 0x1C4 /* 00004C94 */]
00004AD2  4E5E                     unlink     A6
00004AD4  4E75                     rts
00004AD6  4E56 FFF8                link       A6, -0x0008
00004ADA  2F2E 000C                move.l     -[A7], [A6 + 0xC]
00004ADE  2F2E 0008                move.l     -[A7], [A6 + 0x8]
00004AE2  4EBA 021C                jsr        [PC + 0x21C /* 00004D00 */]
00004AE6  2EAE 0010                move.l     [A7], [A6 + 0x10]
00004AEA  2F2E 000C                move.l     -[A7], [A6 + 0xC]
00004AEE  2F2E 0008                move.l     -[A7], [A6 + 0x8]
00004AF2  4EBA 00DE                jsr        [PC + 0xDE /* 00004BD2 */]
00004AF6  206E 0014                movea.l    A0, [A6 + 0x14]
00004AFA  2080                     move.l     [A0], D0
00004AFC  2EAE 000C                move.l     [A7], [A6 + 0xC]
00004B00  2F2E 0008                move.l     -[A7], [A6 + 0x8]
00004B04  4EBA 0218                jsr        [PC + 0x218 /* 00004D1E */]
00004B08  4E5E                     unlink     A6
00004B0A  4E75                     rts
fn00004B0C:
00004B0C  4E56 0000                link       A6, 0
00004B10  206E 0014                movea.l    A0, [A6 + 0x14]
00004B14  2F10                     move.l     -[A7], [A0]
00004B16  2F2E 0010                move.l     -[A7], [A6 + 0x10]
00004B1A  2F2E 000C                move.l     -[A7], [A6 + 0xC]
00004B1E  2F2E 0008                move.l     -[A7], [A6 + 0x8]
00004B22  4EBA 0170                jsr        [PC + 0x170 /* 00004C94 */]
00004B26  206E 0014                movea.l    A0, [A6 + 0x14]
00004B2A  2E90                     move.l     [A7], [A0]
00004B2C  2F2E 0010                move.l     -[A7], [A6 + 0x10]
00004B30  4EBA 01EC                jsr        [PC + 0x1EC /* 00004D1E */]
00004B34  4E5E                     unlink     A6
00004B36  4E75                     rts
fn00004B38:
00004B38  4E56 0000                link       A6, 0
00004B3C  48E7 3E30                movem.l    -[A7], D2,D3,D4,D5,D6,A2,A3
00004B40  7800                     moveq.l    D4, 0x00
00004B42  203C 0000 1000           move.l     D0, 0x1000
00004B48  222E 0010                move.l     D1, [A6 + 0x10]
00004B4C  B280                     cmp.l      D1, D0
00004B4E  6C04                     bge        +0x6 /* 00004B54 */
00004B50  2401                     move.l     D2, D1
00004B52  6002                     bra        +0x4 /* 00004B56 */
label00004B54:
00004B54  2400                     move.l     D2, D0
label00004B56:
00004B56  7612                     moveq.l    D3, 0x12
00004B58  202E 000C                move.l     D0, [A6 + 0xC]
00004B5C  9081                     sub.l      D0, D1
00004B5E  B082                     cmp.l      D0, D2
00004B60  6D02                     blt        +0x4 /* 00004B64 */
00004B62  2002                     move.l     D0, D2
label00004B64:
00004B64  B083                     cmp.l      D0, D3
00004B66  6C02                     bge        +0x4 /* 00004B6A */
00004B68  2600                     move.l     D3, D0
label00004B6A:
00004B6A  206E 0008                movea.l    A0, [A6 + 0x8]
00004B6E  2648                     movea.l    A3, A0
00004B70  D7C1                     add.l      A3, D1
00004B72  244B                     movea.l    A2, A3
00004B74  95C2                     sub.l      A2, D2
00004B76  7C00                     moveq.l    D6, 0x00
00004B78  1C13                     move.b     D6, [A3]
label00004B7A:
00004B7A  4A42                     tst.w      D2
00004B7C  6F28                     ble        +0x2A /* 00004BA6 */
00004B7E  BC1A                     cmp.b      D6, [A2]+
00004B80  6704                     beq        +0x6 /* 00004B86 */
00004B82  5342                     subq.w     D2, 1
00004B84  60F4                     bra        -0xA /* 00004B7A */
label00004B86:
00004B86  7001                     moveq.l    D0, 0x01
00004B88  43EB 0001                lea.l      A1, [A3 + 0x1]
label00004B8C:
00004B8C  B043                     cmp.w      D0, D3
00004B8E  6C08                     bge        +0xA /* 00004B98 */
00004B90  B30A                     cmpm.b     [A1]+, [A2]+
00004B92  6604                     bne        +0x6 /* 00004B98 */
00004B94  5240                     addq.w     D0, 1
00004B96  60F4                     bra        -0xA /* 00004B8C */
label00004B98:
00004B98  B044                     cmp.w      D0, D4
00004B9A  6F04                     ble        +0x6 /* 00004BA0 */
00004B9C  3A02                     move.w     D5, D2
00004B9E  3800                     move.w     D4, D0
label00004BA0:
00004BA0  534A                     subq.w     A2, 1
00004BA2  9440                     sub.w      D2, D0
00004BA4  60D4                     bra        -0x2A /* 00004B7A */
label00004BA6:
00004BA6  0C44 0003                cmpi.w     D4, 0x3
00004BAA  6D1C                     blt        +0x1E /* 00004BC8 */
00004BAC  203C 0000 1000           move.l     D0, 0x1000
00004BB2  9045                     sub.w      D0, D5
00004BB4  3204                     move.w     D1, D4
00004BB6  5741                     subq.w     D1, 3
00004BB8  E149                     lsl        D1.w, 8
00004BBA  E949                     lsl        D1.w, 4
00004BBC  8041                     or.w       D0, D1
00004BBE  206E 0014                movea.l    A0, [A6 + 0x14]
00004BC2  3080                     move.w     [A0], D0
00004BC4  3004                     move.w     D0, D4
00004BC6  6002                     bra        +0x4 /* 00004BCA */
label00004BC8:
00004BC8  7000                     moveq.l    D0, 0x00
label00004BCA:
00004BCA  4CDF 0C7C                movem.l    D2,D3,D4,D5,D6,A2,A3, [A7]+
00004BCE  4E5E                     unlink     A6
00004BD0  4E75                     rts
fn00004BD2:
00004BD2  4E56 FFE8                link       A6, -0x0018
00004BD6  48E7 1F18                movem.l    -[A7], D3,D4,D5,D6,D7,A3,A4
00004BDA  286E 0008                movea.l    A4, [A6 + 0x8]
00004BDE  7E00                     moveq.l    D7, 0x00
00004BE0  266E 0010                movea.l    A3, [A6 + 0x10]
00004BE4  7C00                     moveq.l    D6, 0x00
00004BE6  6000 0090                bra        +0x92 /* 00004C78 */
label00004BEA:
00004BEA  7A00                     moveq.l    D5, 0x00
00004BEC  7800                     moveq.l    D4, 0x00
00004BEE  7600                     moveq.l    D3, 0x00
00004BF0  605C                     bra        +0x5E /* 00004C4E */
label00004BF2:
00004BF2  486E FFFE                pea.l      [A6 - 0x2]
00004BF6  2F07                     move.l     -[A7], D7
00004BF8  2F2E 000C                move.l     -[A7], [A6 + 0xC]
00004BFC  2F2E 0008                move.l     -[A7], [A6 + 0x8]
00004C00  4EBA FF36                jsr        [PC - 0xCA /* 00004B38 */]
00004C04  3D40 FFE8                move.w     [A6 - 0x18], D0
00004C08  4A40                     tst.w      D0
00004C0A  4FEF 0010                lea.l      A7, [A7 + 0x10]
00004C0E  6724                     beq        +0x26 /* 00004C34 */
00004C10  302E FFFE                move.w     D0, [A6 - 0x2]
00004C14  E040                     asr        D0.w, 8
00004C16  3204                     move.w     D1, D4
00004C18  5244                     addq.w     D4, 1
00004C1A  1D80 10EE                move.b     [A6 + D1.w - 0x12], D0
00004C1E  70FF                     moveq.l    D0, 0xFFFFFFFF
00004C20  C02E FFFF                and.b      D0, [A6 - 0x1]
00004C24  3204                     move.w     D1, D4
00004C26  5244                     addq.w     D4, 1
00004C28  1D80 10EE                move.b     [A6 + D1.w - 0x12], D0
00004C2C  306E FFE8                movea.w    A0, [A6 - 0x18]
00004C30  DE88                     add.l      D7, A0
00004C32  6012                     bra        +0x14 /* 00004C46 */
label00004C34:
00004C34  3004                     move.w     D0, D4
00004C36  5244                     addq.w     D4, 1
00004C38  1DB4 7800 00EE           move.b     [A6 + D0.w - 0x12], [A4 + D7]
00004C3E  7001                     moveq.l    D0, 0x01
00004C40  E728                     lsl        D0.b, D3
00004C42  8A00                     or.b       D5, D0
00004C44  5287                     addq.l     D7, 1
label00004C46:
00004C46  BEAE 000C                cmp.l      D7, [A6 + 0xC]
00004C4A  6C08                     bge        +0xA /* 00004C54 */
00004C4C  5243                     addq.w     D3, 1
label00004C4E:
00004C4E  0C43 0008                cmpi.w     D3, 0x8
00004C52  6D9E                     blt        -0x60 /* 00004BF2 */
label00004C54:
00004C54  BCAE 000C                cmp.l      D6, [A6 + 0xC]
00004C58  6C04                     bge        +0x6 /* 00004C5E */
00004C5A  1785 6800                move.b     [A3 + D6], D5
label00004C5E:
00004C5E  5286                     addq.l     D6, 1
00004C60  7600                     moveq.l    D3, 0x00
00004C62  6010                     bra        +0x12 /* 00004C74 */
label00004C64:
00004C64  BCAE 000C                cmp.l      D6, [A6 + 0xC]
00004C68  6C06                     bge        +0x8 /* 00004C70 */
00004C6A  17B6 30EE 6800           move.b     [A3 + D6], [A6 + D3.w - 0x12]
label00004C70:
00004C70  5286                     addq.l     D6, 1
00004C72  5243                     addq.w     D3, 1
label00004C74:
00004C74  B843                     cmp.w      D4, D3
00004C76  6EEC                     bgt        -0x12 /* 00004C64 */
label00004C78:
00004C78  BEAE 000C                cmp.l      D7, [A6 + 0xC]
00004C7C  6D00 FF6C                blt        -0x92 /* 00004BEA */
00004C80  BCAE 000C                cmp.l      D6, [A6 + 0xC]
00004C84  6D04                     blt        +0x6 /* 00004C8A */
00004C86  70FF                     moveq.l    D0, 0xFFFFFFFF
00004C88  6002                     bra        +0x4 /* 00004C8C */
label00004C8A:
00004C8A  2006                     move.l     D0, D6
label00004C8C:
00004C8C  4CDF 18F8                movem.l    D3,D4,D5,D6,D7,A3,A4, [A7]+
00004C90  4E5E                     unlink     A6
00004C92  4E75                     rts
fn00004C94:
00004C94  4E56 0000                link       A6, 0
00004C98  48E7 3F30                movem.l    -[A7], D2,D3,D4,D5,D6,D7,A2,A3
00004C9C  246E 0008                movea.l    A2, [A6 + 0x8]
00004CA0  2C2E 000C                move.l     D6, [A6 + 0xC]
00004CA4  266E 0010                movea.l    A3, [A6 + 0x10]
00004CA8  2E2E 0014                move.l     D7, [A6 + 0x14]
label00004CAC:
00004CAC  5386                     subq.l     D6, 1
00004CAE  6B48                     bmi        +0x4A /* 00004CF8 */
00004CB0  161A                     move.b     D3, [A2]+
00004CB2  7407                     moveq.l    D2, 0x07
label00004CB4:
00004CB4  E20B                     lsr        D3.b, 1
00004CB6  6410                     bcc        +0x12 /* 00004CC8 */
00004CB8  5386                     subq.l     D6, 1
00004CBA  6B3C                     bmi        +0x3E /* 00004CF8 */
00004CBC  5387                     subq.l     D7, 1
00004CBE  6B38                     bmi        +0x3A /* 00004CF8 */
00004CC0  16DA                     move.b     [A3]+, [A2]+
00004CC2  51CA FFF0                dbf        D2, -0x12 /* 00004CB4 */
00004CC6  60E4                     bra        -0x1A /* 00004CAC */
label00004CC8:
00004CC8  5586                     subq.l     D6, 2
00004CCA  6B2C                     bmi        +0x2E /* 00004CF8 */
00004CCC  101A                     move.b     D0, [A2]+
00004CCE  E148                     lsl        D0.w, 8
00004CD0  101A                     move.b     D0, [A2]+
00004CD2  3A00                     move.w     D5, D0
00004CD4  0245 0FFF                andi.w     D5, 0xFFF
00004CD8  780F                     moveq.l    D4, 0x0F
00004CDA  E958                     rol        D0.w, 4
00004CDC  C840                     and.w      D4, D0
00004CDE  5444                     addq.w     D4, 2
00004CE0  204B                     movea.l    A0, A3
00004CE2  90FC 1000                sub.w      A0, 0x1000
00004CE6  D0C5                     add.w      A0, D5
label00004CE8:
00004CE8  5387                     subq.l     D7, 1
00004CEA  6B0C                     bmi        +0xE /* 00004CF8 */
00004CEC  16D8                     move.b     [A3]+, [A0]+
00004CEE  51CC FFF8                dbf        D4, -0xA /* 00004CE8 */
00004CF2  51CA FFC0                dbf        D2, -0x42 /* 00004CB4 */
00004CF6  60B4                     bra        -0x4A /* 00004CAC */
label00004CF8:
00004CF8  4CDF 0CFC                movem.l    D2,D3,D4,D5,D6,D7,A2,A3, [A7]+
00004CFC  4E5E                     unlink     A6
00004CFE  4E75                     rts
fn00004D00:
00004D00  4E56 0000                link       A6, 0
00004D04  206E 0008                movea.l    A0, [A6 + 0x8]
00004D08  202E 000C                move.l     D0, [A6 + 0xC]
00004D0C  1218                     move.b     D1, [A0]+
00004D0E  6006                     bra        +0x8 /* 00004D16 */
label00004D10:
00004D10  1410                     move.b     D2, [A0]
00004D12  9318                     sub.b      [A0]+, D1
00004D14  1202                     move.b     D1, D2
label00004D16:
00004D16  5380                     subq.l     D0, 1
00004D18  66F6                     bne        -0x8 /* 00004D10 */
00004D1A  4E5E                     unlink     A6
00004D1C  4E75                     rts
fn00004D1E:
00004D1E  4E56 0000                link       A6, 0
00004D22  206E 0008                movea.l    A0, [A6 + 0x8]
00004D26  202E 000C                move.l     D0, [A6 + 0xC]
00004D2A  1218                     move.b     D1, [A0]+
00004D2C  6004                     bra        +0x6 /* 00004D32 */
label00004D2E:
00004D2E  D210                     add.b      D1, [A0]
00004D30  10C1                     move.b     [A0]+, D1
label00004D32:
00004D32  5380                     subq.l     D0, 1
00004D34  66F8                     bne        -0x6 /* 00004D2E */
00004D36  4E5E                     unlink     A6
00004D38  4E75                     rts
00004D3A  4E56 FFF8                link       A6, -0x0008
00004D3E  48E7 0038                movem.l    -[A7], A2,A3,A4
00004D42  286E 0008                movea.l    A4, [A6 + 0x8]
00004D46  200C                     move.l     D0, A4
00004D48  6700 0086                beq        +0x88 /* 00004DD0 */
00004D4C  42A7                     clr.l      -[A7]
00004D4E  2F0C                     move.l     -[A7], A4
00004D50  4EBA F448                jsr        [PC - 0xBB8 /* 0000419A */]
00004D54  2D5F FFFC                move.l     [A6 - 0x4], [A7]+
00004D58  7004                     moveq.l    D0, 0x04
00004D5A  D0AE FFFC                add.l      D0, [A6 - 0x4]
00004D5E  A122                     syscall    NewHandle, flags=1
00004D60  2648                     movea.l    A3, A0
00004D62  200B                     move.l     D0, A3
00004D64  676A                     beq        +0x6C /* 00004DD0 */
00004D66  204B                     movea.l    A0, A3
00004D68  A029                     syscall    HLock
00004D6A  204C                     movea.l    A0, A4
00004D6C  A029                     syscall    HLock
00004D6E  2453                     movea.l    A2, [A3]
00004D70  588A                     addq.l     A2, 4
00004D72  486E FFF8                pea.l      [A6 - 0x8]
00004D76  2F0A                     move.l     -[A7], A2
00004D78  2F2E FFFC                move.l     -[A7], [A6 - 0x4]
00004D7C  2F14                     move.l     -[A7], [A4]
00004D7E  4EBA FD1A                jsr        [PC - 0x2E6 /* 00004A9A */]
00004D82  41EE FFFC                lea.l      A0, [A6 - 0x4]
00004D86  7004                     moveq.l    D0, 0x04
00004D88  2253                     movea.l    A1, [A3]
00004D8A  A02E                     syscall    BlockMove/BlockMoveData
00004D8C  204C                     movea.l    A0, A4
00004D8E  A02A                     syscall    HUnlock
00004D90  204C                     movea.l    A0, A4
00004D92  A023                     syscall    DisposHandle/DisposeHandle
00004D94  99CC                     sub.l      A4, A4
00004D96  7001                     moveq.l    D0, 0x01
00004D98  B0AE FFF8                cmp.l      D0, [A6 - 0x8]
00004D9C  4FEF 0010                lea.l      A7, [A7 + 0x10]
00004DA0  6C2E                     bge        +0x30 /* 00004DD0 */
00004DA2  58AE FFF8                addq.l     [A6 - 0x8], 4
00004DA6  202E FFF8                move.l     D0, [A6 - 0x8]
00004DAA  A122                     syscall    NewHandle, flags=1
00004DAC  2848                     movea.l    A4, A0
00004DAE  200C                     move.l     D0, A4
00004DB0  671A                     beq        +0x1C /* 00004DCC */
00004DB2  204C                     movea.l    A0, A4
00004DB4  A029                     syscall    HLock
00004DB6  204B                     movea.l    A0, A3
00004DB8  A029                     syscall    HLock
00004DBA  202E FFF8                move.l     D0, [A6 - 0x8]
00004DBE  2254                     movea.l    A1, [A4]
00004DC0  2053                     movea.l    A0, [A3]
00004DC2  A02E                     syscall    BlockMove/BlockMoveData
00004DC4  204B                     movea.l    A0, A3
00004DC6  A02A                     syscall    HUnlock
00004DC8  204C                     movea.l    A0, A4
00004DCA  A02A                     syscall    HUnlock
label00004DCC:
00004DCC  204B                     movea.l    A0, A3
00004DCE  A023                     syscall    DisposHandle/DisposeHandle
label00004DD0:
00004DD0  200C                     move.l     D0, A4
00004DD2  4CDF 1C00                movem.l    A2,A3,A4, [A7]+
00004DD6  4E5E                     unlink     A6
00004DD8  4E75                     rts
fn00004DDA:
00004DDA  4E56 FFFC                link       A6, -0x0004
00004DDE  48E7 0018                movem.l    -[A7], A3,A4
00004DE2  286E 0008                movea.l    A4, [A6 + 0x8]
00004DE6  204C                     movea.l    A0, A4
00004DE8  A029                     syscall    HLock
00004DEA  43EE FFFC                lea.l      A1, [A6 - 0x4]
00004DEE  7004                     moveq.l    D0, 0x04
00004DF0  2054                     movea.l    A0, [A4]
00004DF2  A02E                     syscall    BlockMove/BlockMoveData
00004DF4  204C                     movea.l    A0, A4
00004DF6  A02A                     syscall    HUnlock
00004DF8  206E FFFC                movea.l    A0, [A6 - 0x4]
00004DFC  41E8 0100                lea.l      A0, [A0 + 0x100]
00004E00  2008                     move.l     D0, A0
00004E02  A122                     syscall    NewHandle, flags=1
00004E04  2648                     movea.l    A3, A0
00004E06  200B                     move.l     D0, A3
00004E08  6736                     beq        +0x38 /* 00004E40 */
00004E0A  204C                     movea.l    A0, A4
00004E0C  A029                     syscall    HLock
00004E0E  204B                     movea.l    A0, A3
00004E10  A029                     syscall    HLock
00004E12  486E FFFC                pea.l      [A6 - 0x4]
00004E16  2F13                     move.l     -[A7], [A3]
00004E18  42A7                     clr.l      -[A7]
00004E1A  2F0C                     move.l     -[A7], A4
00004E1C  4EBA F37C                jsr        [PC - 0xC84 /* 0000419A */]
00004E20  205F                     movea.l    A0, [A7]+
00004E22  4868 FFFC                pea.l      [A0 - 0x4]
00004E26  2054                     movea.l    A0, [A4]
00004E28  4868 0004                pea.l      [A0 + 0x4]
00004E2C  4EBA FC8A                jsr        [PC - 0x376 /* 00004AB8 */]
00004E30  204B                     movea.l    A0, A3
00004E32  A02A                     syscall    HUnlock
00004E34  204C                     movea.l    A0, A4
00004E36  A02A                     syscall    HUnlock
00004E38  204C                     movea.l    A0, A4
00004E3A  A023                     syscall    DisposHandle/DisposeHandle
00004E3C  4FEF 0010                lea.l      A7, [A7 + 0x10]
label00004E40:
00004E40  200B                     move.l     D0, A3
00004E42  4CDF 1800                movem.l    A3,A4, [A7]+
00004E46  4E5E                     unlink     A6
00004E48  4E75                     rts
00004E4A  536F 756E 6453 7973      dc.b       "SoundSys"
00004E52  2026                     move.l     D0, -[A6]
00004E54  204D                     movea.l    A0, A5
00004E56  7573                     moveq.l    D2, 0x73
00004E58  6963                     bvs        +0x65 /* 00004EBD */
00004E5A  5379 7320 A920           subq.w     [0x7320A920], 1
00004E60  436F 7079                chk.w      D1, [A7 + 0x7079]
00004E64  7269                     moveq.l    D1, 0x69
00004E66  6768                     beq        +0x6A /* 00004ED0 */
00004E68  7420                     moveq.l    D2, 0x20
00004E6A  3139 3839 2D31           move.w     -[A0], [0x38392D31]
00004E70  3939 3220 5374           move.w     -[A4], [0x32205374]
00004E76  6576                     bcs        +0x78 /* 00004EEE */
00004E78  6520                     bcs        +0x22 /* 00004E9A */
00004E7A  4861                     pea.l      -[A1]
00004E7C  6C65                     bge        +0x67 /* 00004EE3 */
00004E7E  7320                     moveq.l    D1, 0x20
00004E80  2620                     move.l     D3, -[A0]
00004E82  4A69 6D20                tst.w      [A1 + 0x6D20]
00004E86  4E69                     move       A1, USP
00004E88  7463                     moveq.l    D2, 0x63
00004E8A  6861                     bvc        +0x63 /* 00004EED */
00004E8C  6C73                     bge        +0x75 /* 00004F01 */
00004E8E  2C20                     move.l     D6, -[A0]
00004E90  416C 6C20                chk.w      D0, [A4 + 0x6C20]
00004E94  5269 6768                addq.w     [A1 + 0x6768], 1
00004E98  7473                     moveq.l    D2, 0x73
label00004E9A:
00004E9A  2052                     movea.l    A0, [A2]
00004E9C  6573                     bcs        +0x75 /* 00004F11 */
00004E9E  6572                     bcs        +0x74 /* 00004F12 */
00004EA0  7665                     moveq.l    D3, 0x65
00004EA2  642E                     bcc        +0x30 /* 00004ED2 */
00004EA4  4C69 6365 6E73           divsl.l    D3:D6, [A1 + 0x6365]
00004EAA  6564                     bcs        +0x66 /* 00004F10 */
00004EAC  2074 6F20 5072           movea.l    A0, [A4 + 0x5072 + D6 * 8]
00004EB2  6573                     bcs        +0x75 /* 00004F27 */
00004EB4  6167                     bsr        +0x69 /* 00004F1D */
00004EB6  6520                     bcs        +0x22 /* 00004ED8 */
00004EB8  536F 6674                subq.w     [A7 + 0x6674], 1
00004EBC  7761                     moveq.l    D3, 0x61
00004EBE  7265                     moveq.l    D1, 0x65
00004EC0  2044                     movea.l    A0, D4
00004EC2  6576                     bcs        +0x78 /* 00004F3A */
00004EC4  656C                     bcs        +0x6E /* 00004F32 */
00004EC6  6F70                     ble        +0x72 /* 00004F38 */
00004EC8  656D                     bcs        +0x6F /* 00004F37 */
00004ECA  656E                     bcs        +0x70 /* 00004F3A */
00004ECC  742C                     moveq.l    D2, 0x2C
00004ECE  2049                     movea.l    A0, A1
label00004ED0:
00004ED0  6E63                     bgt        +0x65 /* 00004F35 */
label00004ED2:
00004ED2  4E75                     rts
fn00004ED4:
00004ED4  4E56 0000                link       A6, 0
label00004ED8:
00004ED8  48E7 0338                movem.l    -[A7], D6,D7,A2,A3,A4
00004EDC  3C2E 0008                move.w     D6, [A6 + 0x8]
00004EE0  99CC                     sub.l      A4, A4
00004EE2  7E00                     moveq.l    D7, 0x00
00004EE4  97CB                     sub.l      A3, A3
00004EE6  6034                     bra        +0x36 /* 00004F1C */
label00004EE8:
00004EE8  244B                     movea.l    A2, A3
00004EEA  D5ED A782                add.l      A2, [A5 - 0x587E]
label00004EEE:
00004EEE  BC6A 001A                cmp.w      D6, [A2 + 0x1A]
00004EF2  6622                     bne        +0x24 /* 00004F16 */
00004EF4  4AAA 0002                tst.l      [A2 + 0x2]
00004EF8  6704                     beq        +0x6 /* 00004EFE */
00004EFA  284A                     movea.l    A4, A2
00004EFC  6024                     bra        +0x26 /* 00004F22 */
label00004EFE:
00004EFE  4227                     clr.b      -[A7]
00004F00  2F0A                     move.l     -[A7], A2
00004F02  3F06                     move.w     -[A7], D6
00004F04  4EBA 029E                jsr        [PC + 0x29E /* 000051A4 */]
00004F08  4A00                     tst.b      D0
00004F0A  508F                     addq.l     A7, 8
00004F0C  6708                     beq        +0xA /* 00004F16 */
00004F0E  284B                     movea.l    A4, A3
label00004F10:
00004F10  D9ED A782                add.l      A4, [A5 - 0x587E]
// begin alternate branch 00004F12-00004F14
label00004F12:
00004F12  A782                     syscall    DTInstall, flags=7
// end alternate branch 00004F12-00004F14
label00004F12: // (misaligned)
00004F14  600C                     bra        +0xE /* 00004F22 */
label00004F16:
00004F16  5247                     addq.w     D7, 1
00004F18  47EB 0022                lea.l      A3, [A3 + 0x22]
label00004F1C:
00004F1C  BE6D A780                cmp.w      D7, [A5 - 0x5880]
00004F20  6DC6                     blt        -0x38 /* 00004EE8 */
label00004F22:
00004F22  200C                     move.l     D0, A4
00004F24  4CDF 1CC0                movem.l    D6,D7,A2,A3,A4, [A7]+
00004F28  4E5E                     unlink     A6
00004F2A  4E75                     rts
fn00004F2C:
00004F2C  4E56 0000                link       A6, 0
00004F30  306E 0008                movea.w    A0, [A6 + 0x8]
// begin alternate branch 00004F32-00004F36
label00004F32:
00004F32  0008 2F08                ori.b      A0, 0x8
// end alternate branch 00004F32-00004F36
label00004F32: // (misaligned)
00004F34  2F08                     move.l     -[A7], A0
00004F36  4878 003C                push.l     0x3C /* '<' */
// begin alternate branch 00004F38-00004F44
label00004F38:
00004F38  003C 2F2E                ori.b      ccr, 46
label00004F3A: // (misaligned)
00004F3C  000A 4EAD                ori.b      A2, 0xAD
00004F40  0042 2F00                ori.w      D2, 0x2F00 /* '/\0' */
// end alternate branch 00004F38-00004F44
label00004F38: // (misaligned)
label00004F3A:
00004F3A  2F2E 000A                move.l     -[A7], [A6 + 0xA]
00004F3E  4EAD 0042                jsr        [A5 + 0x42 /* export_4, CODE:1 @ 000000D6 */]
00004F42  2F00                     move.l     -[A7], D0
00004F44  4EAD 005A                jsr        [A5 + 0x5A /* export_7, CODE:1 @ 0000014E */]
00004F48  4E5E                     unlink     A6
00004F4A  4E75                     rts
export_50:
00004F4C  48E7 1F38                movem.l    -[A7], D3,D4,D5,D6,D7,A2,A3,A4
00004F50  200D                     move.l     D0, A5
00004F52  2A78 0904                movea.l    A5, [0x00000904 /* CurrentA5 */]
00004F56  2600                     move.l     D3, D0
00004F58  3B7C 0001 A7D6           move.w     [A5 - 0x582A], 0x1
00004F5E  4A2D A7DA                tst.b      [A5 - 0x5826]
00004F62  6600 0150                bne        +0x152 /* 000050B4 */
00004F66  1B7C 0001 A7DA           move.b     [A5 - 0x5826], 0x1
00004F6C  4A6D A7DC                tst.w      [A5 - 0x5824]
00004F70  6F04                     ble        +0x6 /* 00004F76 */
00004F72  536D A7DC                subq.w     [A5 - 0x5824], 1
label00004F76:
00004F76  4A6D A788                tst.w      [A5 - 0x5878]
00004F7A  6F04                     ble        +0x6 /* 00004F80 */
00004F7C  536D A788                subq.w     [A5 - 0x5878], 1
label00004F80:
00004F80  4AAD A804                tst.l      [A5 - 0x57FC]
00004F84  6706                     beq        +0x8 /* 00004F8C */
00004F86  206D A804                movea.l    A0, [A5 - 0x57FC]
00004F8A  4E90                     jsr        [A0]
label00004F8C:
00004F8C  4A2D A7E6                tst.b      [A5 - 0x581A]
00004F90  6700 00B2                beq        +0xB4 /* 00005044 */
00004F94  202D A7FE                move.l     D0, [A5 - 0x5802]
00004F98  90AD A7DE                sub.l      D0, [A5 - 0x5822]
00004F9C  B0AD A7EC                cmp.l      D0, [A5 - 0x5814]
00004FA0  6F00 00A2                ble        +0xA4 /* 00005044 */
00004FA4  0C6D FFFF A7F8           cmpi.w     [A5 - 0x5808], 0xFFFF
00004FAA  6728                     beq        +0x2A /* 00004FD4 */
00004FAC  536D A7F8                subq.w     [A5 - 0x5808], 1
00004FB0  4A6D A7F8                tst.w      [A5 - 0x5808]
00004FB4  6C4C                     bge        +0x4E /* 00005002 */
00004FB6  4878 FFFF                push.l     0xFFFF
00004FBA  2F2D A7F4                move.l     -[A7], [A5 - 0x580C]
00004FBE  3F2D A7E4                move.w     -[A7], [A5 - 0x581C]
00004FC2  3F2D A7E2                move.w     -[A7], [A5 - 0x581E]
00004FC6  4EBA 0950                jsr        [PC + 0x950 /* 00005918 */]
00004FCA  422D A7E6                clr.b      [A5 - 0x581A]
00004FCE  4FEF 000C                lea.l      A7, [A7 + 0xC]
00004FD2  6070                     bra        +0x72 /* 00005044 */
label00004FD4:
00004FD4  4AAD A7FA                tst.l      [A5 - 0x5806]
00004FD8  6728                     beq        +0x2A /* 00005002 */
00004FDA  206D A7FA                movea.l    A0, [A5 - 0x5806]
00004FDE  4E90                     jsr        [A0]
00004FE0  4A00                     tst.b      D0
00004FE2  671E                     beq        +0x20 /* 00005002 */
00004FE4  4878 FFFF                push.l     0xFFFF
00004FE8  2F2D A7F4                move.l     -[A7], [A5 - 0x580C]
00004FEC  3F2D A7E4                move.w     -[A7], [A5 - 0x581C]
00004FF0  3F2D A7E2                move.w     -[A7], [A5 - 0x581E]
00004FF4  4EBA 0922                jsr        [PC + 0x922 /* 00005918 */]
00004FF8  422D A7E6                clr.b      [A5 - 0x581A]
00004FFC  4FEF 000C                lea.l      A7, [A7 + 0xC]
00005000  6042                     bra        +0x44 /* 00005044 */
label00005002:
00005002  3E2D A7F8                move.w     D7, [A5 - 0x5808]
00005006  48C7                     ext.l      D7
00005008  246D A7FA                movea.l    A2, [A5 - 0x5806]
0000500C  1C2D A7E6                move.b     D6, [A5 - 0x581A]
00005010  2A2D A7F0                move.l     D5, [A5 - 0x5810]
00005014  282D A7F4                move.l     D4, [A5 - 0x580C]
00005018  2F2D A7F4                move.l     -[A7], [A5 - 0x580C]
0000501C  2F2D A7F0                move.l     -[A7], [A5 - 0x5810]
00005020  3F2D A7E4                move.w     -[A7], [A5 - 0x581C]
00005024  3F2D A7E2                move.w     -[A7], [A5 - 0x581E]
00005028  4EBA 0974                jsr        [PC + 0x974 /* 0000599E */]
0000502C  2B44 A7F4                move.l     [A5 - 0x580C], D4
00005030  2B45 A7F0                move.l     [A5 - 0x5810], D5
00005034  1B46 A7E6                move.b     [A5 - 0x581A], D6
00005038  2B4A A7FA                move.l     [A5 - 0x5806], A2
0000503C  3B47 A7F8                move.w     [A5 - 0x5808], D7
00005040  4FEF 000C                lea.l      A7, [A7 + 0xC]
label00005044:
00005044  4AAD A7C2                tst.l      [A5 - 0x583E]
00005048  6762                     beq        +0x64 /* 000050AC */
0000504A  4A6D A7CA                tst.w      [A5 - 0x5836]
0000504E  6C58                     bge        +0x5A /* 000050A8 */
00005050  302D A7C6                move.w     D0, [A5 - 0x583A]
00005054  B06D A7C8                cmp.w      D0, [A5 - 0x5838]
00005058  6C48                     bge        +0x4A /* 000050A2 */
0000505A  7006                     moveq.l    D0, 0x06
0000505C  C1ED A7C6                muls.w     D0, [A5 - 0x583A]
00005060  D0AD A7C2                add.l      D0, [A5 - 0x583E]
00005064  2840                     movea.l    A4, D0
00005066  266D A7C2                movea.l    A3, [A5 - 0x583E]
0000506A  0C54 FFFF                cmpi.w     [A4], 0xFFFF
0000506E  6606                     bne        +0x8 /* 00005076 */
00005070  4EBA 0B98                jsr        [PC + 0xB98 /* 00005C0A */]
00005074  600C                     bra        +0xE /* 00005082 */
label00005076:
00005076  3F2C 0002                move.w     -[A7], [A4 + 0x2]
0000507A  3F14                     move.w     -[A7], [A4]
0000507C  4EBA 07C6                jsr        [PC + 0x7C6 /* 00005844 */]
00005080  588F                     addq.l     A7, 4
label00005082:
00005082  0C6C FFFE 0004           cmpi.w     [A4 + 0x4], 0xFFFE
00005088  6608                     bne        +0xA /* 00005092 */
0000508A  3B6D A7DC A7CA           move.w     [A5 - 0x5836], [A5 - 0x5824]
00005090  6006                     bra        +0x8 /* 00005098 */
label00005092:
00005092  3B6C 0004 A7CA           move.w     [A5 - 0x5836], [A4 + 0x4]
label00005098:
00005098  526D A7C6                addq.w     [A5 - 0x583A], 1
0000509C  2B4B A7C2                move.l     [A5 - 0x583E], A3
000050A0  600A                     bra        +0xC /* 000050AC */
label000050A2:
000050A2  42AD A7C2                clr.l      [A5 - 0x583E]
000050A6  6004                     bra        +0x6 /* 000050AC */
label000050A8:
000050A8  536D A7CA                subq.w     [A5 - 0x5836], 1
label000050AC:
000050AC  52AD A7FE                addq.l     [A5 - 0x5802], 1
000050B0  422D A7DA                clr.b      [A5 - 0x5826]
label000050B4:
000050B4  2003                     move.l     D0, D3
000050B6  C18D                     exg        D0, A5
000050B8  4CDF 1CF8                movem.l    D3,D4,D5,D6,D7,A2,A3,A4, [A7]+
000050BC  4E75                     rts
000050BE  4E56 0000                link       A6, 0
000050C2  2B6E 0008 A804           move.l     [A5 - 0x57FC], [A6 + 0x8]
000050C8  4E5E                     unlink     A6
000050CA  4E75                     rts
000050CC  4E56 0000                link       A6, 0
000050D0  4E5E                     unlink     A6
000050D2  4E75                     rts
export_51:
000050D4  4E56 0000                link       A6, 0
000050D8  2F07                     move.l     -[A7], D7
000050DA  200D                     move.l     D0, A5
000050DC  2A78 0904                movea.l    A5, [0x00000904 /* CurrentA5 */]
000050E0  2E00                     move.l     D7, D0
000050E2  4AAD A808                tst.l      [A5 - 0x57F8]
000050E6  6706                     beq        +0x8 /* 000050EE */
000050E8  206D A808                movea.l    A0, [A5 - 0x57F8]
000050EC  4E90                     jsr        [A0]
label000050EE:
000050EE  2007                     move.l     D0, D7
000050F0  C18D                     exg        D0, A5
000050F2  426E 000E                clr.w      [A6 + 0xE]
000050F6  2E1F                     move.l     D7, [A7]+
000050F8  4E5E                     unlink     A6
000050FA  205F                     movea.l    A0, [A7]+
000050FC  5C8F                     addq.l     A7, 6
000050FE  4ED0                     jmp        [A0]
export_49:
00005100  4E56 FFFC                link       A6, -0x0004
00005104  2F07                     move.l     -[A7], D7
00005106  A9FF                     syscall    Debugger
00005108  206E 0008                movea.l    A0, [A6 + 0x8]
0000510C  3E28 0002                move.w     D7, [A0 + 0x2]
00005110  0C47 736D                cmpi.w     D7, 0x736D /* 'sm' */
00005114  6624                     bne        +0x26 /* 0000513A */
00005116  206E 0008                movea.l    A0, [A6 + 0x8]
0000511A  2028 0004                move.l     D0, [A0 + 0x4]
0000511E  C18D                     exg        D0, A5
00005120  2E00                     move.l     D7, D0
00005122  4AAD A808                tst.l      [A5 - 0x57F8]
00005126  6706                     beq        +0x8 /* 0000512E */
00005128  206D A808                movea.l    A0, [A5 - 0x57F8]
0000512C  4E90                     jsr        [A0]
label0000512E:
0000512E  206E 0008                movea.l    A0, [A6 + 0x8]
00005132  2028 0004                move.l     D0, [A0 + 0x4]
00005136  C18D                     exg        D0, A5
00005138  2E00                     move.l     D7, D0
label0000513A:
0000513A  2E1F                     move.l     D7, [A7]+
0000513C  4E5E                     unlink     A6
0000513E  205F                     movea.l    A0, [A7]+
00005140  508F                     addq.l     A7, 8
00005142  4ED0                     jmp        [A0]
00005144  4E75                     rts
fn00005146:
00005146  4E56 FFFC                link       A6, -0x0004
0000514A  48E7 0018                movem.l    -[A7], A3,A4
0000514E  286E 0008                movea.l    A4, [A6 + 0x8]
00005152  204C                     movea.l    A0, A4
00005154  A029                     syscall    HLock
00005156  43EE FFFC                lea.l      A1, [A6 - 0x4]
0000515A  7004                     moveq.l    D0, 0x04
0000515C  2054                     movea.l    A0, [A4]
0000515E  A02E                     syscall    BlockMove/BlockMoveData
00005160  202E FFFC                move.l     D0, [A6 - 0x4]
00005164  A122                     syscall    NewHandle, flags=1
00005166  2648                     movea.l    A3, A0
00005168  200B                     move.l     D0, A3
0000516A  672A                     beq        +0x2C /* 00005196 */
0000516C  204B                     movea.l    A0, A3
0000516E  A029                     syscall    HLock
00005170  486E FFFC                pea.l      [A6 - 0x4]
00005174  2F13                     move.l     -[A7], [A3]
00005176  42A7                     clr.l      -[A7]
00005178  2F0C                     move.l     -[A7], A4
0000517A  4EBA F01E                jsr        [PC - 0xFE2 /* 0000419A */]
0000517E  205F                     movea.l    A0, [A7]+
00005180  4868 FFFC                pea.l      [A0 - 0x4]
00005184  2054                     movea.l    A0, [A4]
00005186  4868 0004                pea.l      [A0 + 0x4]
0000518A  4EBA F980                jsr        [PC - 0x680 /* 00004B0C */]
0000518E  204B                     movea.l    A0, A3
00005190  A02A                     syscall    HUnlock
00005192  4FEF 0010                lea.l      A7, [A7 + 0x10]
label00005196:
00005196  204C                     movea.l    A0, A4
00005198  A02A                     syscall    HUnlock
0000519A  200B                     move.l     D0, A3
0000519C  4CDF 1800                movem.l    A3,A4, [A7]+
000051A0  4E5E                     unlink     A6
000051A2  4E75                     rts
fn000051A4:
000051A4  4E56 FFF2                link       A6, -0x000E
000051A8  48E7 1F38                movem.l    -[A7], D3,D4,D5,D6,D7,A2,A3,A4
000051AC  3E2E 0008                move.w     D7, [A6 + 0x8]
000051B0  286E 000A                movea.l    A4, [A6 + 0xA]
000051B4  422E FFF3                clr.b      [A6 - 0xD]
000051B8  4A2E 000E                tst.b      [A6 + 0xE]
000051BC  6600 013E                bne        +0x140 /* 000052FC */
000051C0  0894 0007                bclr.b     [A4], 0x7
000051C4  42A7                     clr.l      -[A7]
000051C6  2F3C 6373 6E64           move.l     -[A7], 0x63736E64 /* 'csnd' */
000051CC  3F07                     move.w     -[A7], D7
000051CE  A9A0                     syscall    GetResource
000051D0  261F                     move.l     D3, [A7]+
000051D2  4A83                     tst.l      D3
000051D4  671C                     beq        +0x1E /* 000051F2 */
000051D6  0894 0006                bclr.b     [A4], 0x6
000051DA  2F03                     move.l     -[A7], D3
000051DC  4EBA FF68                jsr        [PC - 0x98 /* 00005146 */]
000051E0  2D40 FFF4                move.l     [A6 - 0xC], D0
000051E4  2043                     movea.l    A0, D3
000051E6  A049                     syscall    HPurge
000051E8  2E83                     move.l     [A7], D3
000051EA  A9A3                     syscall    ReleaseResource
000051EC  262E FFF4                move.l     D3, [A6 - 0xC]
000051F0  6016                     bra        +0x18 /* 00005208 */
label000051F2:
000051F2  08D4 0005                bset.b     [A4], 0x5
000051F6  08D4 0006                bset.b     [A4], 0x6
000051FA  42A7                     clr.l      -[A7]
000051FC  2F3C 736E 6420           move.l     -[A7], 0x736E6420 /* 'snd ' */
00005202  3F07                     move.w     -[A7], D7
00005204  A9A0                     syscall    GetResource
00005206  261F                     move.l     D3, [A7]+
label00005208:
00005208  4A83                     tst.l      D3
0000520A  6700 00F2                beq        +0xF4 /* 000052FE */
0000520E  2043                     movea.l    A0, D3
00005210  A069                     syscall    HGetState
00005212  1940 0001                move.b     [A4 + 0x1], D0
00005216  4A2C 0001                tst.b      [A4 + 0x1]
0000521A  6706                     beq        +0x8 /* 00005222 */
0000521C  0894 0005                bclr.b     [A4], 0x5
00005220  6004                     bra        +0x6 /* 00005226 */
label00005222:
00005222  2043                     movea.l    A0, D3
00005224  A064                     syscall    MoveHHi
label00005226:
00005226  4A78 0220                tst.w      [0x00000220 /* MemErr */]
0000522A  6600 00BC                bne        +0xBE /* 000052E8 */
0000522E  2043                     movea.l    A0, D3
00005230  A029                     syscall    HLock
00005232  2043                     movea.l    A0, D3
00005234  2450                     movea.l    A2, [A0]
00005236  3D52 FFF8                move.w     [A6 - 0x8], [A2]
0000523A  302E FFF8                move.w     D0, [A6 - 0x8]
0000523E  6722                     beq        +0x24 /* 00005262 */
00005240  6B20                     bmi        +0x22 /* 00005262 */
00005242  5540                     subq.w     D0, 2
00005244  6712                     beq        +0x14 /* 00005258 */
00005246  6A1A                     bpl        +0x1C /* 00005262 */
00005248  382A 0002                move.w     D4, [A2 + 0x2]
0000524C  7006                     moveq.l    D0, 0x06
0000524E  C1C4                     muls.w     D0, D4
00005250  3D72 0004 FFFA           move.w     [A6 - 0x6], [A2 + D0.w + 0x4]
00005256  6010                     bra        +0x12 /* 00005268 */
label00005258:
00005258  7800                     moveq.l    D4, 0x00
0000525A  3D6A 0004 FFFA           move.w     [A6 - 0x6], [A2 + 0x4]
00005260  6006                     bra        +0x8 /* 00005268 */
label00005262:
00005262  3D7C FFFF FFF8           move.w     [A6 - 0x8], 0xFFFF
label00005268:
00005268  0C6E FFFF FFF8           cmpi.w     [A6 - 0x8], 0xFFFF
0000526E  6774                     beq        +0x76 /* 000052E4 */
00005270  7006                     moveq.l    D0, 0x06
00005272  C1C4                     muls.w     D0, D4
00005274  3040                     movea.w    A0, D0
00005276  302E FFFA                move.w     D0, [A6 - 0x6]
0000527A  E748                     lsl        D0.w, 3
0000527C  5C40                     addq.w     D0, 6
0000527E  D0C0                     add.w      A0, D0
00005280  2D48 FFFC                move.l     [A6 - 0x4], A0
00005284  42A7                     clr.l      -[A7]
00005286  2243                     movea.l    A1, D3
00005288  2F11                     move.l     -[A7], [A1]
0000528A  4EBA F1E8                jsr        [PC - 0xE18 /* 00004474 */]
0000528E  266E FFFC                movea.l    A3, [A6 - 0x4]
00005292  D7DF                     add.l      A3, [A7]+
00005294  294B 0006                move.l     [A4 + 0x6], A3
00005298  41EB 0016                lea.l      A0, [A3 + 0x16]
0000529C  2948 000A                move.l     [A4 + 0xA], A0
000052A0  296B 0004 000E           move.l     [A4 + 0xE], [A3 + 0x4]
000052A6  296B 000C 0012           move.l     [A4 + 0x12], [A3 + 0xC]
000052AC  296B 0010 0016           move.l     [A4 + 0x16], [A3 + 0x10]
000052B2  2A2B 0008                move.l     D5, [A3 + 0x8]
000052B6  7010                     moveq.l    D0, 0x10
000052B8  E0A5                     asr        D5, D0
000052BA  3945 001C                move.w     [A4 + 0x1C], D5
000052BE  4A2D A802                tst.b      [A5 - 0x57FE]
000052C2  6618                     bne        +0x1A /* 000052DC */
000052C4  2C2C 000A                move.l     D6, [A4 + 0xA]
000052C8  5D86                     subq.l     D6, 6
000052CA  2946 001E                move.l     [A4 + 0x1E], D6
000052CE  2046                     movea.l    A0, D6
000052D0  4250                     clr.w      [A0]
000052D2  306C 001C                movea.w    A0, [A4 + 0x1C]
000052D6  2246                     movea.l    A1, D6
000052D8  2348 0002                move.l     [A1 + 0x2], A0
label000052DC:
000052DC  1D7C 0001 FFF3           move.b     [A6 - 0xD], 0x1
000052E2  601A                     bra        +0x1C /* 000052FE */
label000052E4:
000052E4  2043                     movea.l    A0, D3
000052E6  A02A                     syscall    HUnlock
label000052E8:
000052E8  0814 0006                btst.b     [A4], 0x6
000052EC  6706                     beq        +0x8 /* 000052F4 */
000052EE  2F03                     move.l     -[A7], D3
000052F0  A9A3                     syscall    ReleaseResource
000052F2  6004                     bra        +0x6 /* 000052F8 */
label000052F4:
000052F4  2043                     movea.l    A0, D3
000052F6  A023                     syscall    DisposHandle/DisposeHandle
label000052F8:
000052F8  7600                     moveq.l    D3, 0x00
000052FA  6002                     bra        +0x4 /* 000052FE */
label000052FC:
000052FC  7600                     moveq.l    D3, 0x00
label000052FE:
000052FE  3947 001A                move.w     [A4 + 0x1A], D7
00005302  2943 0002                move.l     [A4 + 0x2], D3
00005306  102E FFF3                move.b     D0, [A6 - 0xD]
0000530A  4CDF 1CF8                movem.l    D3,D4,D5,D6,D7,A2,A3,A4, [A7]+
0000530E  4E5E                     unlink     A6
00005310  4E75                     rts
fn00005312:
00005312  4E56 0000                link       A6, 0
00005316  48E7 0038                movem.l    -[A7], A2,A3,A4
0000531A  286E 0008                movea.l    A4, [A6 + 0x8]
0000531E  4A6D A7DC                tst.w      [A5 - 0x5824]
00005322  663E                     bne        +0x40 /* 00005362 */
00005324  4AAD A7C2                tst.l      [A5 - 0x583E]
00005328  6638                     bne        +0x3A /* 00005362 */
0000532A  45EC 0002                lea.l      A2, [A4 + 0x2]
0000532E  2652                     movea.l    A3, [A2]
00005330  200B                     move.l     D0, A3
00005332  672E                     beq        +0x30 /* 00005362 */
00005334  0814 0006                btst.b     [A4], 0x6
00005338  671A                     beq        +0x1C /* 00005354 */
0000533A  0814 0005                btst.b     [A4], 0x5
0000533E  670A                     beq        +0xC /* 0000534A */
00005340  204B                     movea.l    A0, A3
00005342  A02A                     syscall    HUnlock
00005344  2F0B                     move.l     -[A7], A3
00005346  A9A3                     syscall    ReleaseResource
00005348  6012                     bra        +0x14 /* 0000535C */
label0000534A:
0000534A  102C 0001                move.b     D0, [A4 + 0x1]
0000534E  204B                     movea.l    A0, A3
00005350  A06A                     syscall    HSetState
00005352  6008                     bra        +0xA /* 0000535C */
label00005354:
00005354  204B                     movea.l    A0, A3
00005356  A02A                     syscall    HUnlock
00005358  204B                     movea.l    A0, A3
0000535A  A023                     syscall    DisposHandle/DisposeHandle
label0000535C:
0000535C  4292                     clr.l      [A2]
0000535E  0894 0007                bclr.b     [A4], 0x7
label00005362:
00005362  4CDF 1C00                movem.l    A2,A3,A4, [A7]+
00005366  4E5E                     unlink     A6
00005368  4E75                     rts
fn0000536A:
0000536A  4E56 0000                link       A6, 0
0000536E  48E7 0738                movem.l    -[A7], D5,D6,D7,A2,A3,A4
00005372  266E 0008                movea.l    A3, [A6 + 0x8]
00005376  7A00                     moveq.l    D5, 0x00
00005378  284B                     movea.l    A4, A3
0000537A  7E00                     moveq.l    D7, 0x00
0000537C  6002                     bra        +0x4 /* 00005380 */
label0000537E:
0000537E  5247                     addq.w     D7, 1
label00005380:
00005380  0C5C FFFF                cmpi.w     [A4]+, 0xFFFF
00005384  66F8                     bne        -0x6 /* 0000537E */
00005386  4A47                     tst.w      D7
00005388  6F56                     ble        +0x58 /* 000053E0 */
0000538A  7022                     moveq.l    D0, 0x22
0000538C  C1C7                     muls.w     D0, D7
0000538E  A11E                     syscall    NewPtr, flags=1
00005390  2B48 A782                move.l     [A5 - 0x587E], A0
00005394  2008                     move.l     D0, A0
00005396  6746                     beq        +0x48 /* 000053DE */
00005398  286D A782                movea.l    A4, [A5 - 0x587E]
0000539C  7C22                     moveq.l    D6, 0x22
0000539E  CCC7                     mulu.w     D6, D7
000053A0  6002                     bra        +0x4 /* 000053A4 */
label000053A2:
000053A2  421C                     clr.b      [A4]+
label000053A4:
000053A4  3006                     move.w     D0, D6
000053A6  5346                     subq.w     D6, 1
000053A8  4A40                     tst.w      D0
000053AA  6EF6                     bgt        -0x8 /* 000053A2 */
000053AC  3B47 A780                move.w     [A5 - 0x5880], D7
000053B0  7C00                     moveq.l    D6, 0x00
000053B2  99CC                     sub.l      A4, A4
000053B4  95CA                     sub.l      A2, A2
000053B6  6020                     bra        +0x22 /* 000053D8 */
label000053B8:
000053B8  1F2E 000C                move.b     -[A7], [A6 + 0xC]
000053BC  204A                     movea.l    A0, A2
000053BE  D1ED A782                add.l      A0, [A5 - 0x587E]
000053C2  2F08                     move.l     -[A7], A0
000053C4  204B                     movea.l    A0, A3
000053C6  D1CC                     add.l      A0, A4
000053C8  3F10                     move.w     -[A7], [A0]
000053CA  4EBA FDD8                jsr        [PC - 0x228 /* 000051A4 */]
000053CE  508F                     addq.l     A7, 8
000053D0  5246                     addq.w     D6, 1
000053D2  548C                     addq.l     A4, 2
000053D4  45EA 0022                lea.l      A2, [A2 + 0x22]
label000053D8:
000053D8  BE46                     cmp.w      D7, D6
000053DA  6EDC                     bgt        -0x22 /* 000053B8 */
000053DC  6002                     bra        +0x4 /* 000053E0 */
label000053DE:
000053DE  7A94                     moveq.l    D5, 0xFFFFFF94
label000053E0:
000053E0  3005                     move.w     D0, D5
000053E2  4CDF 1CE0                movem.l    D5,D6,D7,A2,A3,A4, [A7]+
000053E6  4E5E                     unlink     A6
000053E8  4E75                     rts
fn000053EA:
000053EA  48E7 0118                movem.l    -[A7], D7,A3,A4
000053EE  4AAD A782                tst.l      [A5 - 0x587E]
000053F2  6726                     beq        +0x28 /* 0000541A */
000053F4  7E00                     moveq.l    D7, 0x00
000053F6  97CB                     sub.l      A3, A3
000053F8  6014                     bra        +0x16 /* 0000540E */
label000053FA:
000053FA  204B                     movea.l    A0, A3
000053FC  D1ED A782                add.l      A0, [A5 - 0x587E]
00005400  2F08                     move.l     -[A7], A0
00005402  4EBA FF0E                jsr        [PC - 0xF2 /* 00005312 */]
00005406  588F                     addq.l     A7, 4
00005408  5247                     addq.w     D7, 1
0000540A  47EB 0022                lea.l      A3, [A3 + 0x22]
label0000540E:
0000540E  BE6D A780                cmp.w      D7, [A5 - 0x5880]
00005412  6DE6                     blt        -0x18 /* 000053FA */
00005414  206D A782                movea.l    A0, [A5 - 0x587E]
00005418  A01F                     syscall    DisposPtr/DisposePtr
label0000541A:
0000541A  4CDF 1880                movem.l    D7,A3,A4, [A7]+
0000541E  4E75                     rts
fn00005420:
00005420  4E56 0000                link       A6, 0
00005424  48E7 0318                movem.l    -[A7], D6,D7,A3,A4
00005428  266E 0008                movea.l    A3, [A6 + 0x8]
0000542C  284B                     movea.l    A4, A3
0000542E  D9EE 000C                add.l      A4, [A6 + 0xC]
00005432  600A                     bra        +0xC /* 0000543E */
label00005434:
00005434  1E13                     move.b     D7, [A3]
00005436  1C14                     move.b     D6, [A4]
00005438  1887                     move.b     [A4], D7
0000543A  16C6                     move.b     [A3]+, D6
0000543C  538C                     subq.l     A4, 1
label0000543E:
0000543E  B9CB                     cmpa.l     A4, A3
00005440  62F2                     bhi        -0xC /* 00005434 */
00005442  4CDF 18C0                movem.l    D6,D7,A3,A4, [A7]+
00005446  4E5E                     unlink     A6
00005448  4E75                     rts
fn0000544A:
0000544A  2F07                     move.l     -[A7], D7
0000544C  7E01                     moveq.l    D7, 0x01
0000544E  42AD A80C                clr.l      [A5 - 0x57F4]
00005452  42AD A828                clr.l      [A5 - 0x57D8]
00005456  42AD A824                clr.l      [A5 - 0x57DC]
0000545A  1B7C 003C A82D           move.b     [A5 - 0x57D3], 0x3C /* '<' */
00005460  422D A82C                clr.b      [A5 - 0x57D4]
00005464  4267                     clr.w      -[A7]
00005466  486D A80C                pea.l      [A5 - 0x57F4]
0000546A  3F3C 0005                move.w     -[A7], 0x5
0000546E  4878 008C                push.l     0x8C
00005472  486D 01AA                pea.l      [A5 + 0x1AA /* export_49, CODE:2 @ 00005100 */]
00005476  A807                     syscall    SndNewChannel
00005478  4A5F                     tst.w      [A7]+
0000547A  6708                     beq        +0xA /* 00005484 */
0000547C  7E00                     moveq.l    D7, 0x00
0000547E  42AD A80C                clr.l      [A5 - 0x57F4]
00005482  600C                     bra        +0xE /* 00005490 */
label00005484:
00005484  41ED 01AA                lea.l      A0, [A5 + 0x1AA /* export_49, CODE:2 @ 00005100 */]
00005488  226D A80C                movea.l    A1, [A5 - 0x57F4]
0000548C  2348 0008                move.l     [A1 + 0x8], A0
label00005490:
00005490  1007                     move.b     D0, D7
00005492  2E1F                     move.l     D7, [A7]+
00005494  4E75                     rts
fn00005496:
00005496  4AAD A80C                tst.l      [A5 - 0x57F4]
0000549A  6712                     beq        +0x14 /* 000054AE */
0000549C  4267                     clr.w      -[A7]
0000549E  2F2D A80C                move.l     -[A7], [A5 - 0x57F4]
000054A2  1F3C 0001                move.b     -[A7], 0x1
000054A6  A801                     syscall    SndDisposeChannel
000054A8  42AD A80C                clr.l      [A5 - 0x57F4]
000054AC  548F                     addq.l     A7, 2
label000054AE:
000054AE  4E75                     rts
fn000054B0:
000054B0  4E56 FFF0                link       A6, -0x0010
000054B4  48E7 0318                movem.l    -[A7], D6,D7,A3,A4
000054B8  286E 0008                movea.l    A4, [A6 + 0x8]
000054BC  422D A802                clr.b      [A5 - 0x57FE]
000054C0  7C01                     moveq.l    D6, 0x01
000054C2  4267                     clr.w      -[A7]
000054C4  3F3C 0001                move.w     -[A7], 0x1
000054C8  486E FFF0                pea.l      [A6 - 0x10]
000054CC  4EBA EB62                jsr        [PC - 0x149E /* 00004030 */]
000054D0  4A5F                     tst.w      [A7]+
000054D2  6604                     bne        +0x6 /* 000054D8 */
000054D4  3C2E FFF4                move.w     D6, [A6 - 0xC]
label000054D8:
000054D8  0C46 0600                cmpi.w     D6, 0x600
000054DC  6506                     bcs        +0x8 /* 000054E4 */
000054DE  1B7C 0001 A802           move.b     [A5 - 0x57FE], 0x1
label000054E4:
000054E4  3B7C 0003 A786           move.w     [A5 - 0x587A], 0x3
000054EA  426D A788                clr.w      [A5 - 0x5878]
000054EE  426D A7DC                clr.w      [A5 - 0x5824]
000054F2  42AD A7C2                clr.l      [A5 - 0x583E]
000054F6  422D A78A                clr.b      [A5 - 0x5876]
000054FA  422D A7DB                clr.b      [A5 - 0x5825]
000054FE  1F2E 000C                move.b     -[A7], [A6 + 0xC]
00005502  2F0C                     move.l     -[A7], A4
00005504  4EBA FE64                jsr        [PC - 0x19C /* 0000536A */]
00005508  4A40                     tst.w      D0
0000550A  5C8F                     addq.l     A7, 6
0000550C  667A                     bne        +0x7C /* 00005588 */
0000550E  4A2D A802                tst.b      [A5 - 0x57FE]
00005512  6710                     beq        +0x12 /* 00005524 */
00005514  4EBA FF34                jsr        [PC - 0xCC /* 0000544A */]
00005518  7200                     moveq.l    D1, 0x00
0000551A  1200                     move.b     D1, D0
0000551C  4A41                     tst.w      D1
0000551E  663A                     bne        +0x3C /* 0000555A */
00005520  422D A802                clr.b      [A5 - 0x57FE]
label00005524:
00005524  7007                     moveq.l    D0, 0x07
00005526  A11E                     syscall    NewPtr, flags=1
00005528  2648                     movea.l    A3, A0
0000552A  200B                     move.l     D0, A3
0000552C  672C                     beq        +0x2E /* 0000555A */
0000552E  4253                     clr.w      [A3]
00005530  42AB 0002                clr.l      [A3 + 0x2]
00005534  42AD A79C                clr.l      [A5 - 0x5864]
00005538  3B7C FFFC A7A8           move.w     [A5 - 0x5858], 0xFFFC
0000553E  2B4B A7B0                move.l     [A5 - 0x5850], A3
00005542  42AD A7B4                clr.l      [A5 - 0x584C]
00005546  4267                     clr.w      -[A7]
00005548  486D A790                pea.l      [A5 - 0x5870]
0000554C  1F3C 0001                move.b     -[A7], 0x1
00005550  4EBA EC82                jsr        [PC - 0x137E /* 000041D4 */]
00005554  204B                     movea.l    A0, A3
00005556  A01F                     syscall    DisposPtr/DisposePtr
00005558  548F                     addq.l     A7, 2
label0000555A:
0000555A  42AD A804                clr.l      [A5 - 0x57FC]
0000555E  42AD A808                clr.l      [A5 - 0x57F8]
00005562  41ED 01B2                lea.l      A0, [A5 + 0x1B2 /* export_50, CODE:2 @ 00004F4C */]
00005566  2B48 A7D2                move.l     [A5 - 0x582E], A0
0000556A  3B7C 0001 A7D6           move.w     [A5 - 0x582A], 0x1
00005570  3B7C 0001 A7D0           move.w     [A5 - 0x5830], 0x1
00005576  42AD A7CC                clr.l      [A5 - 0x5834]
0000557A  426D A7D8                clr.w      [A5 - 0x5828]
0000557E  422D A7DA                clr.b      [A5 - 0x5826]
00005582  41ED A7CC                lea.l      A0, [A5 - 0x5834]
00005586  A033                     syscall    VInstall
label00005588:
00005588  4CDF 18C0                movem.l    D6,D7,A3,A4, [A7]+
0000558C  4E5E                     unlink     A6
0000558E  4E75                     rts
fn00005590:
00005590  4A2D A78A                tst.b      [A5 - 0x5876]
00005594  660A                     bne        +0xC /* 000055A0 */
00005596  4EBA 0672                jsr        [PC + 0x672 /* 00005C0A */]
0000559A  41ED A7CC                lea.l      A0, [A5 - 0x5834]
0000559E  A034                     syscall    VRemove
label000055A0:
000055A0  422D A78A                clr.b      [A5 - 0x5876]
000055A4  4A2D A802                tst.b      [A5 - 0x57FE]
000055A8  6704                     beq        +0x6 /* 000055AE */
000055AA  4EBA FEEA                jsr        [PC - 0x116 /* 00005496 */]
label000055AE:
000055AE  4EBA FE3A                jsr        [PC - 0x1C6 /* 000053EA */]
000055B2  4E75                     rts
fn000055B4:
000055B4  4A2D A78A                tst.b      [A5 - 0x5876]
000055B8  6620                     bne        +0x22 /* 000055DA */
000055BA  2B6D A7C2 A78C           move.l     [A5 - 0x5874], [A5 - 0x583E]
000055C0  4EBA 0648                jsr        [PC + 0x648 /* 00005C0A */]
000055C4  41ED A7CC                lea.l      A0, [A5 - 0x5834]
000055C8  A034                     syscall    VRemove
000055CA  1B7C 0001 A78A           move.b     [A5 - 0x5876], 0x1
000055D0  4A2D A802                tst.b      [A5 - 0x57FE]
000055D4  6704                     beq        +0x6 /* 000055DA */
000055D6  4EBA FEBE                jsr        [PC - 0x142 /* 00005496 */]
label000055DA:
000055DA  4E75                     rts
fn000055DC:
000055DC  4A2D A78A                tst.b      [A5 - 0x5876]
000055E0  6722                     beq        +0x24 /* 00005604 */
000055E2  422D A78A                clr.b      [A5 - 0x5876]
000055E6  2B6D A78C A7C2           move.l     [A5 - 0x583E], [A5 - 0x5874]
000055EC  4A2D A802                tst.b      [A5 - 0x57FE]
000055F0  6708                     beq        +0xA /* 000055FA */
000055F2  4EBA FE56                jsr        [PC - 0x1AA /* 0000544A */]
000055F6  1B40 A802                move.b     [A5 - 0x57FE], D0
label000055FA:
000055FA  422D A7DA                clr.b      [A5 - 0x5826]
000055FE  41ED A7CC                lea.l      A0, [A5 - 0x5834]
00005602  A033                     syscall    VInstall
label00005604:
00005604  4E75                     rts
00005606  4E56 FFFC                link       A6, -0x0004
0000560A  48E7 0738                movem.l    -[A7], D5,D6,D7,A2,A3,A4
0000560E  246E 0008                movea.l    A2, [A6 + 0x8]
00005612  284A                     movea.l    A4, A2
00005614  7E00                     moveq.l    D7, 0x00
00005616  6002                     bra        +0x4 /* 0000561A */
label00005618:
00005618  5247                     addq.w     D7, 1
label0000561A:
0000561A  0C5C FFFF                cmpi.w     [A4]+, 0xFFFF
0000561E  66F8                     bne        -0x6 /* 00005618 */
00005620  7A22                     moveq.l    D5, 0x22
00005622  CBC7                     muls.w     D5, D7
00005624  4A47                     tst.w      D7
00005626  6F74                     ble        +0x76 /* 0000569C */
00005628  7C00                     moveq.l    D6, 0x00
0000562A  99CC                     sub.l      A4, A4
0000562C  6064                     bra        +0x66 /* 00005692 */
label0000562E:
0000562E  1F3C 0001                move.b     -[A7], 0x1
00005632  A99B                     syscall    SetResLoad
00005634  42A7                     clr.l      -[A7]
00005636  2F3C 6373 6E64           move.l     -[A7], 0x63736E64 /* 'csnd' */
0000563C  204A                     movea.l    A0, A2
0000563E  D1CC                     add.l      A0, A4
00005640  3F10                     move.w     -[A7], [A0]
00005642  A9A0                     syscall    GetResource
00005644  265F                     movea.l    A3, [A7]+
00005646  200B                     move.l     D0, A3
00005648  6626                     bne        +0x28 /* 00005670 */
0000564A  4227                     clr.b      -[A7]
0000564C  A99B                     syscall    SetResLoad
0000564E  42A7                     clr.l      -[A7]
00005650  2F3C 736E 6420           move.l     -[A7], 0x736E6420 /* 'snd ' */
00005656  204A                     movea.l    A0, A2
00005658  D1CC                     add.l      A0, A4
0000565A  3F10                     move.w     -[A7], [A0]
0000565C  A9A0                     syscall    GetResource
0000565E  265F                     movea.l    A3, [A7]+
00005660  200B                     move.l     D0, A3
00005662  6722                     beq        +0x24 /* 00005686 */
00005664  42A7                     clr.l      -[A7]
00005666  2F0B                     move.l     -[A7], A3
00005668  A9A5                     syscall    GetResourceSizeOnDisk/SizeResource/SizeRsrc
0000566A  2D5F FFFC                move.l     [A6 - 0x4], [A7]+
0000566E  6016                     bra        +0x18 /* 00005686 */
label00005670:
00005670  204B                     movea.l    A0, A3
00005672  A029                     syscall    HLock
00005674  43EE FFFC                lea.l      A1, [A6 - 0x4]
00005678  7004                     moveq.l    D0, 0x04
0000567A  2053                     movea.l    A0, [A3]
0000567C  A02E                     syscall    BlockMove/BlockMoveData
0000567E  204B                     movea.l    A0, A3
00005680  A02A                     syscall    HUnlock
00005682  2F0B                     move.l     -[A7], A3
00005684  A9A3                     syscall    ReleaseResource
label00005686:
00005686  200B                     move.l     D0, A3
00005688  6704                     beq        +0x6 /* 0000568E */
0000568A  DAAE FFFC                add.l      D5, [A6 - 0x4]
label0000568E:
0000568E  5246                     addq.w     D6, 1
00005690  548C                     addq.l     A4, 2
label00005692:
00005692  BE46                     cmp.w      D7, D6
00005694  6E98                     bgt        -0x66 /* 0000562E */
00005696  1F3C 0001                move.b     -[A7], 0x1
0000569A  A99B                     syscall    SetResLoad
label0000569C:
0000569C  2005                     move.l     D0, D5
0000569E  4CDF 1CE0                movem.l    D5,D6,D7,A2,A3,A4, [A7]+
000056A2  4E5E                     unlink     A6
000056A4  4E75                     rts
000056A6  4E56 0000                link       A6, 0
000056AA  48E7 0018                movem.l    -[A7], A3,A4
000056AE  99CC                     sub.l      A4, A4
000056B0  3F2E 0008                move.w     -[A7], [A6 + 0x8]
000056B4  4EBA F81E                jsr        [PC - 0x7E2 /* 00004ED4 */]
000056B8  2640                     movea.l    A3, D0
000056BA  200B                     move.l     D0, A3
000056BC  548F                     addq.l     A7, 2
000056BE  6710                     beq        +0x12 /* 000056D0 */
000056C0  4A2D A802                tst.b      [A5 - 0x57FE]
000056C4  6706                     beq        +0x8 /* 000056CC */
000056C6  286B 000A                movea.l    A4, [A3 + 0xA]
000056CA  6004                     bra        +0x6 /* 000056D0 */
label000056CC:
000056CC  286B 001E                movea.l    A4, [A3 + 0x1E]
label000056D0:
000056D0  200C                     move.l     D0, A4
000056D2  4CDF 1800                movem.l    A3,A4, [A7]+
000056D6  4E5E                     unlink     A6
000056D8  4E75                     rts
fn000056DA:
000056DA  4E56 0000                link       A6, 0
000056DE  48E7 0108                movem.l    -[A7], D7,A4
000056E2  7E00                     moveq.l    D7, 0x00
000056E4  3F2E 0008                move.w     -[A7], [A6 + 0x8]
000056E8  4EBA F7EA                jsr        [PC - 0x816 /* 00004ED4 */]
000056EC  2840                     movea.l    A4, D0
000056EE  200C                     move.l     D0, A4
000056F0  548F                     addq.l     A7, 2
000056F2  6704                     beq        +0x6 /* 000056F8 */
000056F4  2E2C 000E                move.l     D7, [A4 + 0xE]
label000056F8:
000056F8  2007                     move.l     D0, D7
000056FA  4CDF 1080                movem.l    D7,A4, [A7]+
000056FE  4E5E                     unlink     A6
00005700  4E75                     rts
00005702  4E56 0000                link       A6, 0
00005706  3F2E 0008                move.w     -[A7], [A6 + 0x8]
0000570A  4EBA FFCE                jsr        [PC - 0x32 /* 000056DA */]
0000570E  2F00                     move.l     -[A7], D0
00005710  3F2E 000A                move.w     -[A7], [A6 + 0xA]
00005714  4EBA F816                jsr        [PC - 0x7EA /* 00004F2C */]
00005718  4E5E                     unlink     A6
0000571A  4E75                     rts
0000571C  4E56 0000                link       A6, 0
00005720  48E7 0108                movem.l    -[A7], D7,A4
00005724  7E00                     moveq.l    D7, 0x00
00005726  3F2E 0008                move.w     -[A7], [A6 + 0x8]
0000572A  4EBA F7A8                jsr        [PC - 0x858 /* 00004ED4 */]
0000572E  2840                     movea.l    A4, D0
00005730  200C                     move.l     D0, A4
00005732  548F                     addq.l     A7, 2
00005734  6704                     beq        +0x6 /* 0000573A */
00005736  3E2C 001C                move.w     D7, [A4 + 0x1C]
label0000573A:
0000573A  3007                     move.w     D0, D7
0000573C  4CDF 1080                movem.l    D7,A4, [A7]+
00005740  4E5E                     unlink     A6
00005742  4E75                     rts
00005744  4E56 0000                link       A6, 0
00005748  3B6E 0008 A786           move.w     [A5 - 0x587A], [A6 + 0x8]
0000574E  4E5E                     unlink     A6
00005750  4E75                     rts
fn00005752:
00005752  4E56 0000                link       A6, 0
00005756  48E7 0F08                movem.l    -[A7], D4,D5,D6,D7,A4
0000575A  286E 0008                movea.l    A4, [A6 + 0x8]
0000575E  2C2E 000C                move.l     D6, [A6 + 0xC]
00005762  3A2E 0010                move.w     D5, [A6 + 0x10]
00005766  200C                     move.l     D0, A4
00005768  6700 00D2                beq        +0xD4 /* 0000583C */
0000576C  4A2D A78A                tst.b      [A5 - 0x5876]
00005770  6600 00CA                bne        +0xCC /* 0000583C */
00005774  4A6D A788                tst.w      [A5 - 0x5878]
00005778  6F08                     ble        +0xA /* 00005782 */
0000577A  4AAD A7C2                tst.l      [A5 - 0x583E]
0000577E  6700 00BC                beq        +0xBE /* 0000583C */
label00005782:
00005782  3B6D A786 A788           move.w     [A5 - 0x5878], [A5 - 0x587A]
00005788  2F06                     move.l     -[A7], D6
0000578A  3F05                     move.w     -[A7], D5
0000578C  4EBA F79E                jsr        [PC - 0x862 /* 00004F2C */]
00005790  48C0                     ext.l      D0
00005792  2E00                     move.l     D7, D0
00005794  4A2D A7DB                tst.b      [A5 - 0x5825]
00005798  5C8F                     addq.l     A7, 6
0000579A  6612                     bne        +0x14 /* 000057AE */
0000579C  182D A7E6                move.b     D4, [A5 - 0x581A]
000057A0  4EBA 0468                jsr        [PC + 0x468 /* 00005C0A */]
000057A4  1B44 A7E6                move.b     [A5 - 0x581A], D4
000057A8  3B47 A7DC                move.w     [A5 - 0x5824], D7
000057AC  6004                     bra        +0x6 /* 000057B2 */
label000057AE:
000057AE  DF6D A7DC                add.w      [A5 - 0x5824], D7
label000057B2:
000057B2  2B6D A7FE A7DE           move.l     [A5 - 0x5822], [A5 - 0x5802]
000057B8  4A2D A802                tst.b      [A5 - 0x57FE]
000057BC  6744                     beq        +0x46 /* 00005802 */
000057BE  41EC 0006                lea.l      A0, [A4 + 0x6]
000057C2  2B48 A818                move.l     [A5 - 0x57E8], A0
000057C6  2B46 A81C                move.l     [A5 - 0x57E4], D6
000057CA  42AD A824                clr.l      [A5 - 0x57DC]
000057CE  42AD A828                clr.l      [A5 - 0x57D8]
000057D2  2005                     move.l     D0, D5
000057D4  48C0                     ext.l      D0
000057D6  7210                     moveq.l    D1, 0x10
000057D8  E3A8                     lsl        D0, D1
000057DA  2B40 A820                move.l     [A5 - 0x57E0], D0
000057DE  426D A812                clr.w      [A5 - 0x57EE]
000057E2  41ED A818                lea.l      A0, [A5 - 0x57E8]
000057E6  2B48 A814                move.l     [A5 - 0x57EC], A0
000057EA  3B7C 0051 A810           move.w     [A5 - 0x57F0], 0x51 /* 'Q' */
000057F0  4267                     clr.w      -[A7]
000057F2  2F2D A80C                move.l     -[A7], [A5 - 0x57F4]
000057F6  486D A810                pea.l      [A5 - 0x57F0]
000057FA  4227                     clr.b      -[A7]
000057FC  A803                     syscall    SndDoCommand
000057FE  548F                     addq.l     A7, 2
00005800  603A                     bra        +0x3C /* 0000583C */
label00005802:
00005802  4254                     clr.w      [A4]
00005804  42A7                     clr.l      -[A7]
00005806  3045                     movea.w    A0, D5
00005808  2F08                     move.l     -[A7], A0
0000580A  2F3C 0002 F9B8           move.l     -[A7], 0x2F9B8
00005810  A868                     syscall    FixMul
00005812  295F 0002                move.l     [A4 + 0x2], [A7]+
00005816  41ED 01BA                lea.l      A0, [A5 + 0x1BA /* export_51, CODE:2 @ 000050D4 */]
0000581A  2B48 A79C                move.l     [A5 - 0x5864], A0
0000581E  3B7C FFFC A7A8           move.w     [A5 - 0x5858], 0xFFFC
00005824  2B4C A7B0                move.l     [A5 - 0x5850], A4
00005828  2B46 A7B4                move.l     [A5 - 0x584C], D6
0000582C  4267                     clr.w      -[A7]
0000582E  486D A790                pea.l      [A5 - 0x5870]
00005832  1F3C 0001                move.b     -[A7], 0x1
00005836  4EBA E99C                jsr        [PC - 0x1664 /* 000041D4 */]
0000583A  548F                     addq.l     A7, 2
label0000583C:
0000583C  4CDF 10F0                movem.l    D4,D5,D6,D7,A4, [A7]+
00005840  4E5E                     unlink     A6
00005842  4E75                     rts
fn00005844:
00005844  4E56 0000                link       A6, 0
00005848  48E7 0318                movem.l    -[A7], D6,D7,A3,A4
0000584C  3C2E 000A                move.w     D6, [A6 + 0xA]
00005850  4A2D A78A                tst.b      [A5 - 0x5876]
00005854  6650                     bne        +0x52 /* 000058A6 */
00005856  422D A7DB                clr.b      [A5 - 0x5825]
0000585A  3F2E 0008                move.w     -[A7], [A6 + 0x8]
0000585E  4EBA F674                jsr        [PC - 0x98C /* 00004ED4 */]
00005862  2840                     movea.l    A4, D0
00005864  200C                     move.l     D0, A4
00005866  548F                     addq.l     A7, 2
00005868  673C                     beq        +0x3E /* 000058A6 */
0000586A  4A14                     tst.b      [A4]
0000586C  6A12                     bpl        +0x14 /* 00005880 */
0000586E  2F2C 000E                move.l     -[A7], [A4 + 0xE]
00005872  2F2C 000A                move.l     -[A7], [A4 + 0xA]
00005876  4EBA FBA8                jsr        [PC - 0x458 /* 00005420 */]
0000587A  0894 0007                bclr.b     [A4], 0x7
0000587E  508F                     addq.l     A7, 8
label00005880:
00005880  4A46                     tst.w      D6
00005882  6604                     bne        +0x6 /* 00005888 */
00005884  3C2C 001C                move.w     D6, [A4 + 0x1C]
label00005888:
00005888  2E2C 000E                move.l     D7, [A4 + 0xE]
0000588C  70FA                     moveq.l    D0, 0xFFFFFFFA
0000588E  D0AC 000A                add.l      D0, [A4 + 0xA]
00005892  2640                     movea.l    A3, D0
00005894  422D A7E6                clr.b      [A5 - 0x581A]
00005898  3F06                     move.w     -[A7], D6
0000589A  2F07                     move.l     -[A7], D7
0000589C  2F0B                     move.l     -[A7], A3
0000589E  4EBA FEB2                jsr        [PC - 0x14E /* 00005752 */]
000058A2  4FEF 000A                lea.l      A7, [A7 + 0xA]
label000058A6:
000058A6  4CDF 18C0                movem.l    D6,D7,A3,A4, [A7]+
000058AA  4E5E                     unlink     A6
000058AC  4E75                     rts
000058AE  4E56 0000                link       A6, 0
000058B2  48E7 0318                movem.l    -[A7], D6,D7,A3,A4
000058B6  3C2E 000A                move.w     D6, [A6 + 0xA]
000058BA  4A2D A78A                tst.b      [A5 - 0x5876]
000058BE  6650                     bne        +0x52 /* 00005910 */
000058C0  422D A7DB                clr.b      [A5 - 0x5825]
000058C4  3F2E 0008                move.w     -[A7], [A6 + 0x8]
000058C8  4EBA F60A                jsr        [PC - 0x9F6 /* 00004ED4 */]
000058CC  2840                     movea.l    A4, D0
000058CE  200C                     move.l     D0, A4
000058D0  548F                     addq.l     A7, 2
000058D2  673C                     beq        +0x3E /* 00005910 */
000058D4  4A14                     tst.b      [A4]
000058D6  6B12                     bmi        +0x14 /* 000058EA */
000058D8  2F2C 000E                move.l     -[A7], [A4 + 0xE]
000058DC  2F2C 000A                move.l     -[A7], [A4 + 0xA]
000058E0  4EBA FB3E                jsr        [PC - 0x4C2 /* 00005420 */]
000058E4  08D4 0007                bset.b     [A4], 0x7
000058E8  508F                     addq.l     A7, 8
label000058EA:
000058EA  4A46                     tst.w      D6
000058EC  6604                     bne        +0x6 /* 000058F2 */
000058EE  3C2C 001C                move.w     D6, [A4 + 0x1C]
label000058F2:
000058F2  2E2C 000E                move.l     D7, [A4 + 0xE]
000058F6  70FA                     moveq.l    D0, 0xFFFFFFFA
000058F8  D0AC 000A                add.l      D0, [A4 + 0xA]
000058FC  2640                     movea.l    A3, D0
000058FE  422D A7E6                clr.b      [A5 - 0x581A]
00005902  3F06                     move.w     -[A7], D6
00005904  2F07                     move.l     -[A7], D7
00005906  2F0B                     move.l     -[A7], A3
00005908  4EBA FE48                jsr        [PC - 0x1B8 /* 00005752 */]
0000590C  4FEF 000A                lea.l      A7, [A7 + 0xA]
label00005910:
00005910  4CDF 18C0                movem.l    D6,D7,A3,A4, [A7]+
00005914  4E5E                     unlink     A6
00005916  4E75                     rts
fn00005918:
00005918  4E56 0000                link       A6, 0
0000591C  48E7 0718                movem.l    -[A7], D5,D6,D7,A3,A4
00005920  3C2E 000A                move.w     D6, [A6 + 0xA]
00005924  2A2E 0010                move.l     D5, [A6 + 0x10]
00005928  4A2D A78A                tst.b      [A5 - 0x5876]
0000592C  6668                     bne        +0x6A /* 00005996 */
0000592E  1B7C 0001 A7DB           move.b     [A5 - 0x5825], 0x1
00005934  3F2E 0008                move.w     -[A7], [A6 + 0x8]
00005938  4EBA F59A                jsr        [PC - 0xA66 /* 00004ED4 */]
0000593C  2840                     movea.l    A4, D0
0000593E  200C                     move.l     D0, A4
00005940  548F                     addq.l     A7, 2
00005942  6752                     beq        +0x54 /* 00005996 */
00005944  4A14                     tst.b      [A4]
00005946  6A12                     bpl        +0x14 /* 0000595A */
00005948  2F2C 000E                move.l     -[A7], [A4 + 0xE]
0000594C  2F2C 000A                move.l     -[A7], [A4 + 0xA]
00005950  4EBA FACE                jsr        [PC - 0x532 /* 00005420 */]
00005954  0894 0007                bclr.b     [A4], 0x7
00005958  508F                     addq.l     A7, 8
label0000595A:
0000595A  4A46                     tst.w      D6
0000595C  6604                     bne        +0x6 /* 00005962 */
0000595E  3C2C 001C                move.w     D6, [A4 + 0x1C]
label00005962:
00005962  70FF                     moveq.l    D0, 0xFFFFFFFF
00005964  B085                     cmp.l      D0, D5
00005966  6706                     beq        +0x8 /* 0000596E */
00005968  BAAC 000E                cmp.l      D5, [A4 + 0xE]
0000596C  6F04                     ble        +0x6 /* 00005972 */
label0000596E:
0000596E  2A2C 000E                move.l     D5, [A4 + 0xE]
label00005972:
00005972  2E05                     move.l     D7, D5
00005974  9EAE 000C                sub.l      D7, [A6 + 0xC]
00005978  70FA                     moveq.l    D0, 0xFFFFFFFA
0000597A  D0AE 000C                add.l      D0, [A6 + 0xC]
0000597E  D0AC 000A                add.l      D0, [A4 + 0xA]
00005982  2640                     movea.l    A3, D0
00005984  422D A7E6                clr.b      [A5 - 0x581A]
00005988  3F06                     move.w     -[A7], D6
0000598A  2F07                     move.l     -[A7], D7
0000598C  2F0B                     move.l     -[A7], A3
0000598E  4EBA FDC2                jsr        [PC - 0x23E /* 00005752 */]
00005992  4FEF 000A                lea.l      A7, [A7 + 0xA]
label00005996:
00005996  4CDF 18E0                movem.l    D5,D6,D7,A3,A4, [A7]+
0000599A  4E5E                     unlink     A6
0000599C  4E75                     rts
fn0000599E:
0000599E  4E56 0000                link       A6, 0
000059A2  48E7 1F18                movem.l    -[A7], D3,D4,D5,D6,D7,A3,A4
000059A6  3E2E 000A                move.w     D7, [A6 + 0xA]
000059AA  262E 000C                move.l     D3, [A6 + 0xC]
000059AE  282E 0010                move.l     D4, [A6 + 0x10]
000059B2  4A2D A78A                tst.b      [A5 - 0x5876]
000059B6  6600 00B8                bne        +0xBA /* 00005A70 */
000059BA  1B7C 0001 A7DB           move.b     [A5 - 0x5825], 0x1
000059C0  3F2E 0008                move.w     -[A7], [A6 + 0x8]
000059C4  4EBA F50E                jsr        [PC - 0xAF2 /* 00004ED4 */]
000059C8  2840                     movea.l    A4, D0
000059CA  200C                     move.l     D0, A4
000059CC  548F                     addq.l     A7, 2
000059CE  6700 00A0                beq        +0xA2 /* 00005A70 */
000059D2  4A14                     tst.b      [A4]
000059D4  6A12                     bpl        +0x14 /* 000059E8 */
000059D6  2F2C 000E                move.l     -[A7], [A4 + 0xE]
000059DA  2F2C 000A                move.l     -[A7], [A4 + 0xA]
000059DE  4EBA FA40                jsr        [PC - 0x5C0 /* 00005420 */]
000059E2  0894 0007                bclr.b     [A4], 0x7
000059E6  508F                     addq.l     A7, 8
label000059E8:
000059E8  4A47                     tst.w      D7
000059EA  6604                     bne        +0x6 /* 000059F0 */
000059EC  3E2C 001C                move.w     D7, [A4 + 0x1C]
label000059F0:
000059F0  2A2C 000E                move.l     D5, [A4 + 0xE]
000059F4  2C05                     move.l     D6, D5
000059F6  70FA                     moveq.l    D0, 0xFFFFFFFA
000059F8  D0AC 000A                add.l      D0, [A4 + 0xA]
000059FC  2640                     movea.l    A3, D0
000059FE  BA84                     cmp.l      D5, D4
00005A00  6C02                     bge        +0x4 /* 00005A04 */
00005A02  2805                     move.l     D4, D5
label00005A04:
00005A04  1B7C 0001 A7E6           move.b     [A5 - 0x581A], 0x1
00005A0A  2B43 A7F0                move.l     [A5 - 0x5810], D3
00005A0E  2B44 A7F4                move.l     [A5 - 0x580C], D4
00005A12  3B47 A7E4                move.w     [A5 - 0x581C], D7
00005A16  2F03                     move.l     -[A7], D3
00005A18  3F07                     move.w     -[A7], D7
00005A1A  4EBA F510                jsr        [PC - 0xAF0 /* 00004F2C */]
00005A1E  3040                     movea.w    A0, D0
00005A20  2B48 A7E8                move.l     [A5 - 0x5818], A0
00005A24  2E84                     move.l     [A7], D4
00005A26  3F07                     move.w     -[A7], D7
00005A28  4EBA F502                jsr        [PC - 0xAFE /* 00004F2C */]
00005A2C  3040                     movea.w    A0, D0
00005A2E  91ED A7E8                sub.l      A0, [A5 - 0x5818]
00005A32  2B48 A7EC                move.l     [A5 - 0x5814], A0
00005A36  4A2D A802                tst.b      [A5 - 0x57FE]
00005A3A  508F                     addq.l     A7, 8
00005A3C  6708                     beq        +0xA /* 00005A46 */
00005A3E  5BAD A7E8                subq.l     [A5 - 0x5818], 5
00005A42  5BAD A7EC                subq.l     [A5 - 0x5814], 5
label00005A46:
00005A46  3B6E 0008 A7E2           move.w     [A5 - 0x581E], [A6 + 0x8]
00005A4C  3B7C FFFF A7F8           move.w     [A5 - 0x5808], 0xFFFF
00005A52  42AD A7FA                clr.l      [A5 - 0x5806]
00005A56  2C04                     move.l     D6, D4
00005A58  9C83                     sub.l      D6, D3
00005A5A  266C 000A                movea.l    A3, [A4 + 0xA]
00005A5E  47F3 38FA                lea.l      A3, [A3 + D3 - 0x6]
00005A62  3F07                     move.w     -[A7], D7
00005A64  2F06                     move.l     -[A7], D6
00005A66  2F0B                     move.l     -[A7], A3
00005A68  4EBA FCE8                jsr        [PC - 0x318 /* 00005752 */]
00005A6C  4FEF 000A                lea.l      A7, [A7 + 0xA]
label00005A70:
00005A70  4CDF 18F8                movem.l    D3,D4,D5,D6,D7,A3,A4, [A7]+
00005A74  4E5E                     unlink     A6
00005A76  4E75                     rts
fn00005A78:
00005A78  4E56 0000                link       A6, 0
00005A7C  48E7 0718                movem.l    -[A7], D5,D6,D7,A3,A4
00005A80  3E2E 000A                move.w     D7, [A6 + 0xA]
00005A84  4A2D A78A                tst.b      [A5 - 0x5876]
00005A88  6600 00A6                bne        +0xA8 /* 00005B30 */
00005A8C  1B7C 0001 A7DB           move.b     [A5 - 0x5825], 0x1
00005A92  3F2E 0008                move.w     -[A7], [A6 + 0x8]
00005A96  4EBA F43C                jsr        [PC - 0xBC4 /* 00004ED4 */]
00005A9A  2840                     movea.l    A4, D0
00005A9C  200C                     move.l     D0, A4
00005A9E  548F                     addq.l     A7, 2
00005AA0  6700 008E                beq        +0x90 /* 00005B30 */
00005AA4  4A14                     tst.b      [A4]
00005AA6  6A12                     bpl        +0x14 /* 00005ABA */
00005AA8  2F2C 000E                move.l     -[A7], [A4 + 0xE]
00005AAC  2F2C 000A                move.l     -[A7], [A4 + 0xA]
00005AB0  4EBA F96E                jsr        [PC - 0x692 /* 00005420 */]
00005AB4  0894 0007                bclr.b     [A4], 0x7
00005AB8  508F                     addq.l     A7, 8
label00005ABA:
00005ABA  4A47                     tst.w      D7
00005ABC  6604                     bne        +0x6 /* 00005AC2 */
00005ABE  3E2C 001C                move.w     D7, [A4 + 0x1C]
label00005AC2:
00005AC2  422D A7E6                clr.b      [A5 - 0x581A]
00005AC6  2B6C 0012 A7F0           move.l     [A5 - 0x5810], [A4 + 0x12]
00005ACC  2B6C 0016 A7F4           move.l     [A5 - 0x580C], [A4 + 0x16]
00005AD2  3A2D A786                move.w     D5, [A5 - 0x587A]
00005AD6  426D A786                clr.w      [A5 - 0x587A]
00005ADA  426D A788                clr.w      [A5 - 0x5878]
00005ADE  2C2D A7F4                move.l     D6, [A5 - 0x580C]
00005AE2  70FA                     moveq.l    D0, 0xFFFFFFFA
00005AE4  D0AC 000A                add.l      D0, [A4 + 0xA]
00005AE8  2640                     movea.l    A3, D0
00005AEA  3F07                     move.w     -[A7], D7
00005AEC  2F06                     move.l     -[A7], D6
00005AEE  2F0B                     move.l     -[A7], A3
00005AF0  4EBA FC60                jsr        [PC - 0x3A0 /* 00005752 */]
00005AF4  70FA                     moveq.l    D0, 0xFFFFFFFA
00005AF6  D0AD A7F0                add.l      D0, [A5 - 0x5810]
00005AFA  D0AC 000A                add.l      D0, [A4 + 0xA]
00005AFE  2640                     movea.l    A3, D0
00005B00  2C2D A7F4                move.l     D6, [A5 - 0x580C]
00005B04  9CAD A7F0                sub.l      D6, [A5 - 0x5810]
00005B08  4FEF 000A                lea.l      A7, [A7 + 0xA]
00005B0C  600E                     bra        +0x10 /* 00005B1C */
label00005B0E:
00005B0E  3F07                     move.w     -[A7], D7
00005B10  2F06                     move.l     -[A7], D6
00005B12  2F0B                     move.l     -[A7], A3
00005B14  4EBA FC3C                jsr        [PC - 0x3C4 /* 00005752 */]
00005B18  4FEF 000A                lea.l      A7, [A7 + 0xA]
label00005B1C:
00005B1C  302E 000C                move.w     D0, [A6 + 0xC]
00005B20  536E 000C                subq.w     [A6 + 0xC], 1
00005B24  4A40                     tst.w      D0
00005B26  66E6                     bne        -0x18 /* 00005B0E */
00005B28  3B45 A786                move.w     [A5 - 0x587A], D5
00005B2C  422D A7DB                clr.b      [A5 - 0x5825]
label00005B30:
00005B30  4CDF 18E0                movem.l    D5,D6,D7,A3,A4, [A7]+
00005B34  4E5E                     unlink     A6
00005B36  4E75                     rts
00005B38  4E56 0000                link       A6, 0
00005B3C  48E7 0718                movem.l    -[A7], D5,D6,D7,A3,A4
00005B40  3E2E 000A                move.w     D7, [A6 + 0xA]
00005B44  7AFF                     moveq.l    D5, 0xFFFFFFFF
00005B46  2B6E 000C A7FA           move.l     [A5 - 0x5806], [A6 + 0xC]
00005B4C  4A2D A78A                tst.b      [A5 - 0x5876]
00005B50  6600 00B0                bne        +0xB2 /* 00005C02 */
00005B54  1B7C 0001 A7DB           move.b     [A5 - 0x5825], 0x1
00005B5A  3F2E 0008                move.w     -[A7], [A6 + 0x8]
00005B5E  4EBA F374                jsr        [PC - 0xC8C /* 00004ED4 */]
00005B62  2840                     movea.l    A4, D0
00005B64  200C                     move.l     D0, A4
00005B66  548F                     addq.l     A7, 2
00005B68  6700 0098                beq        +0x9A /* 00005C02 */
00005B6C  4A14                     tst.b      [A4]
00005B6E  6A12                     bpl        +0x14 /* 00005B82 */
00005B70  2F2C 000E                move.l     -[A7], [A4 + 0xE]
00005B74  2F2C 000A                move.l     -[A7], [A4 + 0xA]
00005B78  4EBA F8A6                jsr        [PC - 0x75A /* 00005420 */]
00005B7C  0894 0007                bclr.b     [A4], 0x7
00005B80  508F                     addq.l     A7, 8
label00005B82:
00005B82  4A47                     tst.w      D7
00005B84  6604                     bne        +0x6 /* 00005B8A */
00005B86  3E2C 001C                move.w     D7, [A4 + 0x1C]
label00005B8A:
00005B8A  1B7C 0001 A7E6           move.b     [A5 - 0x581A], 0x1
00005B90  2B6C 0012 A7F0           move.l     [A5 - 0x5810], [A4 + 0x12]
00005B96  2B6C 0016 A7F4           move.l     [A5 - 0x580C], [A4 + 0x16]
00005B9C  2C2D A7F4                move.l     D6, [A5 - 0x580C]
00005BA0  70FA                     moveq.l    D0, 0xFFFFFFFA
00005BA2  D0AC 000A                add.l      D0, [A4 + 0xA]
00005BA6  2640                     movea.l    A3, D0
00005BA8  3B47 A7E4                move.w     [A5 - 0x581C], D7
00005BAC  2F2D A7F0                move.l     -[A7], [A5 - 0x5810]
00005BB0  3F07                     move.w     -[A7], D7
00005BB2  4EBA F378                jsr        [PC - 0xC88 /* 00004F2C */]
00005BB6  3040                     movea.w    A0, D0
00005BB8  2B48 A7E8                move.l     [A5 - 0x5818], A0
00005BBC  2EAD A7F4                move.l     [A7], [A5 - 0x580C]
00005BC0  3F07                     move.w     -[A7], D7
00005BC2  4EBA F368                jsr        [PC - 0xC98 /* 00004F2C */]
00005BC6  3040                     movea.w    A0, D0
00005BC8  2B48 A7EC                move.l     [A5 - 0x5814], A0
00005BCC  4A2D A802                tst.b      [A5 - 0x57FE]
00005BD0  508F                     addq.l     A7, 8
00005BD2  6708                     beq        +0xA /* 00005BDC */
00005BD4  5BAD A7E8                subq.l     [A5 - 0x5818], 5
00005BD8  5BAD A7EC                subq.l     [A5 - 0x5814], 5
label00005BDC:
00005BDC  3B6E 0008 A7E2           move.w     [A5 - 0x581E], [A6 + 0x8]
00005BE2  3B45 A7F8                move.w     [A5 - 0x5808], D5
00005BE6  0C45 FFFF                cmpi.w     D5, 0xFFFF
00005BEA  6708                     beq        +0xA /* 00005BF4 */
00005BEC  42AD A7FA                clr.l      [A5 - 0x5806]
00005BF0  536D A7F8                subq.w     [A5 - 0x5808], 1
label00005BF4:
00005BF4  3F07                     move.w     -[A7], D7
00005BF6  2F06                     move.l     -[A7], D6
00005BF8  2F0B                     move.l     -[A7], A3
00005BFA  4EBA FB56                jsr        [PC - 0x4AA /* 00005752 */]
00005BFE  4FEF 000A                lea.l      A7, [A7 + 0xA]
label00005C02:
00005C02  4CDF 18E0                movem.l    D5,D6,D7,A3,A4, [A7]+
00005C06  4E5E                     unlink     A6
00005C08  4E75                     rts
fn00005C0A:
00005C0A  4A2D A78A                tst.b      [A5 - 0x5876]
00005C0E  6660                     bne        +0x62 /* 00005C70 */
00005C10  422D A7DB                clr.b      [A5 - 0x5825]
00005C14  42AD A7C2                clr.l      [A5 - 0x583E]
00005C18  426D A7DC                clr.w      [A5 - 0x5824]
00005C1C  422D A7E6                clr.b      [A5 - 0x581A]
00005C20  4A2D A802                tst.b      [A5 - 0x57FE]
00005C24  6728                     beq        +0x2A /* 00005C4E */
00005C26  3B7C 0004 A810           move.w     [A5 - 0x57F0], 0x4
00005C2C  4267                     clr.w      -[A7]
00005C2E  2F2D A80C                move.l     -[A7], [A5 - 0x57F4]
00005C32  486D A810                pea.l      [A5 - 0x57F0]
00005C36  A804                     syscall    SndDoImmediate
00005C38  3B7C 0003 A810           move.w     [A5 - 0x57F0], 0x3
00005C3E  4257                     clr.w      [A7]
00005C40  2F2D A80C                move.l     -[A7], [A5 - 0x57F4]
00005C44  486D A810                pea.l      [A5 - 0x57F0]
00005C48  A804                     syscall    SndDoImmediate
00005C4A  548F                     addq.l     A7, 2
00005C4C  6022                     bra        +0x24 /* 00005C70 */
label00005C4E:
00005C4E  42AD A79C                clr.l      [A5 - 0x5864]
00005C52  3B7C FFFC A7A8           move.w     [A5 - 0x5858], 0xFFFC
00005C58  42AD A7B0                clr.l      [A5 - 0x5850]
00005C5C  42AD A7B4                clr.l      [A5 - 0x584C]
00005C60  4267                     clr.w      -[A7]
00005C62  486D A790                pea.l      [A5 - 0x5870]
00005C66  1F3C 0001                move.b     -[A7], 0x1
00005C6A  4EBA E57A                jsr        [PC - 0x1A86 /* 000041E6 */]
00005C6E  548F                     addq.l     A7, 2
label00005C70:
00005C70  4E75                     rts
fn00005C72:
00005C72  4A6D A7DC                tst.w      [A5 - 0x5824]
00005C76  6F04                     ble        +0x6 /* 00005C7C */
00005C78  7000                     moveq.l    D0, 0x00
00005C7A  6002                     bra        +0x4 /* 00005C7E */
label00005C7C:
00005C7C  7001                     moveq.l    D0, 0x01
label00005C7E:
00005C7E  4E75                     rts
00005C80  4E56 0000                link       A6, 0
00005C84  48E7 0338                movem.l    -[A7], D6,D7,A2,A3,A4
00005C88  266E 0008                movea.l    A3, [A6 + 0x8]
00005C8C  3C2E 000C                move.w     D6, [A6 + 0xC]
00005C90  4A2D A78A                tst.b      [A5 - 0x5876]
00005C94  6630                     bne        +0x32 /* 00005CC6 */
00005C96  4EBA FF72                jsr        [PC - 0x8E /* 00005C0A */]
00005C9A  7E00                     moveq.l    D7, 0x00
00005C9C  95CA                     sub.l      A2, A2
00005C9E  6012                     bra        +0x14 /* 00005CB2 */
label00005CA0:
00005CA0  204B                     movea.l    A0, A3
00005CA2  D1CA                     add.l      A0, A2
00005CA4  3F10                     move.w     -[A7], [A0]
00005CA6  4EBA F22C                jsr        [PC - 0xDD4 /* 00004ED4 */]
00005CAA  2840                     movea.l    A4, D0
00005CAC  548F                     addq.l     A7, 2
00005CAE  5247                     addq.w     D7, 1
00005CB0  5C8A                     addq.l     A2, 6
label00005CB2:
00005CB2  BC47                     cmp.w      D6, D7
00005CB4  6EEA                     bgt        -0x14 /* 00005CA0 */
00005CB6  426D A7C6                clr.w      [A5 - 0x583A]
00005CBA  426D A7CA                clr.w      [A5 - 0x5836]
00005CBE  3B46 A7C8                move.w     [A5 - 0x5838], D6
00005CC2  2B4B A7C2                move.l     [A5 - 0x583E], A3
label00005CC6:
00005CC6  4CDF 1CC0                movem.l    D6,D7,A2,A3,A4, [A7]+
00005CCA  4E5E                     unlink     A6
00005CCC  4E75                     rts
00005CCE  2F07                     move.l     -[A7], D7
00005CD0  7E00                     moveq.l    D7, 0x00
00005CD2  4A2D A78A                tst.b      [A5 - 0x5876]
00005CD6  6608                     bne        +0xA /* 00005CE0 */
00005CD8  4AAD A7C2                tst.l      [A5 - 0x583E]
00005CDC  6602                     bne        +0x4 /* 00005CE0 */
00005CDE  7E01                     moveq.l    D7, 0x01
label00005CE0:
00005CE0  1007                     move.b     D0, D7
00005CE2  2E1F                     move.l     D7, [A7]+
00005CE4  4E75                     rts
00005CE6  4E56 0000                link       A6, 0
00005CEA  48E7 0108                movem.l    -[A7], D7,A4
00005CEE  7E00                     moveq.l    D7, 0x00
00005CF0  99CC                     sub.l      A4, A4
00005CF2  601C                     bra        +0x1E /* 00005D10 */
label00005CF4:
00005CF4  A01C                     syscall    FreeMem
00005CF6  B0AE 0008                cmp.l      D0, [A6 + 0x8]
00005CFA  640E                     bcc        +0x10 /* 00005D0A */
00005CFC  204C                     movea.l    A0, A4
00005CFE  D1ED A782                add.l      A0, [A5 - 0x587E]
00005D02  2F08                     move.l     -[A7], A0
00005D04  4EBA F60C                jsr        [PC - 0x9F4 /* 00005312 */]
00005D08  588F                     addq.l     A7, 4
label00005D0A:
00005D0A  5247                     addq.w     D7, 1
00005D0C  49EC 0022                lea.l      A4, [A4 + 0x22]
label00005D10:
00005D10  BE6D A780                cmp.w      D7, [A5 - 0x5880]
00005D14  6DDE                     blt        -0x20 /* 00005CF4 */
00005D16  4CDF 1080                movem.l    D7,A4, [A7]+
00005D1A  4E5E                     unlink     A6
00005D1C  4E75                     rts
00005D1E  4E56 0000                link       A6, 0
00005D22  202E 0008                move.l     D0, [A6 + 0x8]
00005D26  4E5E                     unlink     A6
00005D28  4E75                     rts
00005D2A  4E56 0000                link       A6, 0
00005D2E  2F0C                     move.l     -[A7], A4
00005D30  3F2E 0008                move.w     -[A7], [A6 + 0x8]
00005D34  4EBA F19E                jsr        [PC - 0xE62 /* 00004ED4 */]
00005D38  2840                     movea.l    A4, D0
00005D3A  200C                     move.l     D0, A4
00005D3C  548F                     addq.l     A7, 2
00005D3E  6714                     beq        +0x16 /* 00005D54 */
00005D40  4A2E 000A                tst.b      [A6 + 0xA]
00005D44  57C0                     seq        D0
00005D46  4400                     neg.b      D0
00005D48  0214 00DF                andi.b     [A4], 0xDF
00005D4C  EB08                     lsl        D0.b, 5
00005D4E  0200 0020                andi.b     D0, 0x20 /* ' ' */
00005D52  8114                     or.b       [A4], D0
label00005D54:
00005D54  285F                     movea.l    A4, [A7]+
00005D56  4E5E                     unlink     A6
00005D58  4E75                     rts
