# near model CODE resource
# jump table entries: 424-490 (67 of them)
export_114:
00000000  2F07                     move.l     -[A7], D7
00000002  41ED EEBE                lea.l      A0, [A5 - 0x1142]
00000006  2B48 BD8A                move.l     [A5 - 0x4276], A0
0000000A  43ED EFBE                lea.l      A1, [A5 - 0x1042]
0000000E  2B49 BD8E                move.l     [A5 - 0x4272], A1
00000012  3F3C 0001                move.w     -[A7], 0x1
00000016  4EAD 0072                jsr        [A5 + 0x72 /* export_10, CODE:2 @ 0000223A */]
0000001A  4878 02BC                push.l     0x2BC
0000001E  4EBA 0842                jsr        [PC + 0x842 /* 00000862 */]
00000022  2EBC 0001 0096           move.l     [A7], 0x10096
00000028  4EBA 0838                jsr        [PC + 0x838 /* 00000862 */]
0000002C  2EBC 0002 0190           move.l     [A7], 0x20190
00000032  4EBA 082E                jsr        [PC + 0x82E /* 00000862 */]
00000036  7E00                     moveq.l    D7, 0x00
00000038  5C8F                     addq.l     A7, 6
0000003A  600A                     bra        +0xC /* 00000046 */
label0000003C:
0000003C  3F07                     move.w     -[A7], D7
0000003E  4EAD 00DA                jsr        [A5 + 0xDA /* export_23, CODE:2 @ 0000289C */]
00000042  548F                     addq.l     A7, 2
00000044  5247                     addq.w     D7, 1
label00000046:
00000046  0C47 002C                cmpi.w     D7, 0x2C /* ',' */
0000004A  6DF0                     blt        -0xE /* 0000003C */
0000004C  2E1F                     move.l     D7, [A7]+
0000004E  4E75                     rts
export_115:
fn00000050:
00000050  486D A5C4                pea.l      [A5 - 0x5A3C]
00000054  A8A2                     syscall    PaintRect
00000056  4EBA 0EF6                jsr        [PC + 0xEF6 /* 00000F4E */]
0000005A  4E75                     rts
fn0000005C:
0000005C  4EAD 04AA                jsr        [A5 + 0x4AA /* export_145, CODE:4 @ 00002BE8 */]
00000060  4EAD 041A                jsr        [A5 + 0x41A /* export_127, CODE:4 @ 00001ACA */]
00000064  4EBA 3BCE                jsr        [PC + 0x3BCE /* 00003C34 */]
00000068  4EBA 187A                jsr        [PC + 0x187A /* 000018E4 */]
0000006C  4EBA 0376                jsr        [PC + 0x376 /* 000003E4 */]
00000070  4A40                     tst.w      D0
00000072  6600 0094                bne        +0x96 /* 00000108 */
00000076  4EBA 040E                jsr        [PC + 0x40E /* 00000486 */]
0000007A  4EBA 3AC8                jsr        [PC + 0x3AC8 /* 00003B44 */]
0000007E  4EBA 3A78                jsr        [PC + 0x3A78 /* 00003AF8 */]
00000082  4EBA 07C2                jsr        [PC + 0x7C2 /* 00000846 */]
00000086  4EBA 06C2                jsr        [PC + 0x6C2 /* 0000074A */]
0000008A  4EBA 2FF8                jsr        [PC + 0x2FF8 /* 00003084 */]
0000008E  4EBA 0466                jsr        [PC + 0x466 /* 000004F6 */]
00000092  4EBA 2E3C                jsr        [PC + 0x2E3C /* 00002ED0 */]
00000096  302D A90C                move.w     D0, [A5 - 0x56F4]
0000009A  0C40 000E                cmpi.w     D0, 0xE
0000009E  6268                     bhi        +0x6A /* 00000108 */
000000A0  43FA 0086                lea.l      A1, [PC + 0x86 /* 00000128, value 0xFF84FFE0 */]
000000A4  D040                     add.w      D0, D0
000000A6  D2F1 0000                add.w      A1, [A1 + D0.w]
000000AA  4ED1                     jmp        [A1]
000000AC  0C2D 0018 B973           cmpi.b     [A5 - 0x468D], 0x18
000000B2  6654                     bne        +0x56 /* 00000108 */
000000B4  426D BA64                clr.w      [A5 - 0x459C]
000000B8  4EBA FF96                jsr        [PC - 0x6A /* 00000050 */]
000000BC  604A                     bra        +0x4C /* 00000108 */
000000BE  0C6D FFFE BA44           cmpi.w     [A5 - 0x45BC], 0xFFFE
000000C4  6642                     bne        +0x44 /* 00000108 */
000000C6  4EAD 0102                jsr        [A5 + 0x102 /* export_28, CODE:2 @ 00002B1C */]
000000CA  1B7C 00FF B96C           move.b     [A5 - 0x4694], 0xFF
000000D0  7001                     moveq.l    D0, 0x01
000000D2  D06D A90C                add.w      D0, [A5 - 0x56F4]
000000D6  3B40 BA38                move.w     [A5 - 0x45C8], D0
000000DA  602C                     bra        +0x2E /* 00000108 */
000000DC  0C2D 0017 B973           cmpi.b     [A5 - 0x468D], 0x17
000000E2  6624                     bne        +0x26 /* 00000108 */
000000E4  4EAD 0102                jsr        [A5 + 0x102 /* export_28, CODE:2 @ 00002B1C */]
000000E8  7001                     moveq.l    D0, 0x01
000000EA  D06D A90C                add.w      D0, [A5 - 0x56F4]
000000EE  3B40 BA38                move.w     [A5 - 0x45C8], D0
000000F2  3B7C 0001 BA22           move.w     [A5 - 0x45DE], 0x1
000000F8  600E                     bra        +0x10 /* 00000108 */
000000FA  0C2D 0005 B973           cmpi.b     [A5 - 0x468D], 0x5
00000100  6606                     bne        +0x8 /* 00000108 */
00000102  3B7C 0001 9630           move.w     [A5 - 0x69D0], 0x1
label00000108:
00000108  4EAD 0532                jsr        [A5 + 0x532 /* export_162, CODE:4 @ 000059B4 */]
0000010C  4A6D BA8C                tst.w      [A5 - 0x4574]
00000110  6614                     bne        +0x16 /* 00000126 */
00000112  4A6D BA86                tst.w      [A5 - 0x457A]
00000116  660E                     bne        +0x10 /* 00000126 */
00000118  0C6D 000D A90C           cmpi.w     [A5 - 0x56F4], 0xD /* '\r' */
0000011E  6C06                     bge        +0x8 /* 00000126 */
00000120  3B7C 0002 9630           move.w     [A5 - 0x69D0], 0x2
label00000126:
00000126  4E75                     rts
00000128  FF84                     .invalid   <<F/6/7>>
0000012A  FFE0                     .invalid   <<F/7/7>>
0000012C  FFE0                     .invalid   <<F/7/7>>
0000012E  FFE0                     .invalid   <<F/7/7>>
00000130  FFE0                     .invalid   <<F/7/7>>
00000132  FFE0                     .invalid   <<F/7/7>>
00000134  FF96                     .invalid   <<F/6/7>>
00000136  FFE0                     .invalid   <<F/7/7>>
00000138  FFE0                     .invalid   <<F/7/7>>
0000013A  FFE0                     .invalid   <<F/7/7>>
0000013C  FFE0                     .invalid   <<F/7/7>>
0000013E  FFE0                     .invalid   <<F/7/7>>
00000140  FFB4                     .invalid   <<F/6/7>>
00000142  FFE0                     .invalid   <<F/7/7>>
00000144  FFD2                     .invalid   <<F/7/7>>
fn00000146:
00000146  2F07                     move.l     -[A7], D7
00000148  4A6D BA7E                tst.w      [A5 - 0x4582]
0000014C  6606                     bne        +0x8 /* 00000154 */
0000014E  4A6D B940                tst.w      [A5 - 0x46C0]
00000152  671C                     beq        +0x1E /* 00000170 */
label00000154:
00000154  4A6D BA7E                tst.w      [A5 - 0x4582]
00000158  6706                     beq        +0x8 /* 00000160 */
0000015A  3B6D BA7C BA6A           move.w     [A5 - 0x4596], [A5 - 0x4584]
label00000160:
00000160  3F3C 0001                move.w     -[A7], 0x1
00000164  4EBA 124E                jsr        [PC + 0x124E /* 000013B4 */]
00000168  426D B940                clr.w      [A5 - 0x46C0]
0000016C  548F                     addq.l     A7, 2
0000016E  6008                     bra        +0xA /* 00000178 */
label00000170:
00000170  4EAD 04F2                jsr        [A5 + 0x4F2 /* export_154, CODE:4 @ 00004EF6 */]
00000174  4EAD 0502                jsr        [A5 + 0x502 /* export_156, CODE:4 @ 00004FF2 */]
label00000178:
00000178  4EBA 0E20                jsr        [PC + 0xE20 /* 00000F9A */]
0000017C  4EBA 065E                jsr        [PC + 0x65E /* 000007DC */]
00000180  4A6D BA86                tst.w      [A5 - 0x457A]
00000184  6770                     beq        +0x72 /* 000001F6 */
00000186  536D BA86                subq.w     [A5 - 0x457A], 1
0000018A  4A6D BA86                tst.w      [A5 - 0x457A]
0000018E  6746                     beq        +0x48 /* 000001D6 */
00000190  0C6D 01B0 BA90           cmpi.w     [A5 - 0x4570], 0x1B0
00000196  665E                     bne        +0x60 /* 000001F6 */
00000198  0C6D 0078 BA86           cmpi.w     [A5 - 0x457A], 0x78 /* 'x' */
0000019E  6C56                     bge        +0x58 /* 000001F6 */
000001A0  3E2D BA86                move.w     D7, [A5 - 0x457A]
000001A4  48C7                     ext.l      D7
000001A6  8FFC 000C                divs.w     D7, 0xC
000001AA  4847                     swap.w     D7
000001AC  0C47 0003                cmpi.w     D7, 0x3
000001B0  6F0A                     ble        +0xC /* 000001BC */
000001B2  4267                     clr.w      -[A7]
000001B4  4EAD 054A                jsr        [A5 + 0x54A /* export_165, CODE:4 @ 00005C24 */]
000001B8  548F                     addq.l     A7, 2
000001BA  603A                     bra        +0x3C /* 000001F6 */
label000001BC:
000001BC  0C47 0003                cmpi.w     D7, 0x3
000001C0  6634                     bne        +0x36 /* 000001F6 */
000001C2  486D 96A0                pea.l      [A5 - 0x6960]
000001C6  4EAD 0542                jsr        [A5 + 0x542 /* export_164, CODE:4 @ 00005B6E */]
000001CA  3EBC 0026                move.w     [A7], 0x26 /* '&' */
000001CE  4EAD 00FA                jsr        [A5 + 0xFA /* export_27, CODE:2 @ 00002A5A */]
000001D2  588F                     addq.l     A7, 4
000001D4  6020                     bra        +0x22 /* 000001F6 */
label000001D6:
000001D6  0C6D 0024 BA90           cmpi.w     [A5 - 0x4570], 0x24 /* '$' */
000001DC  6708                     beq        +0xA /* 000001E6 */
000001DE  0C6D 01B0 BA90           cmpi.w     [A5 - 0x4570], 0x1B0
000001E4  6606                     bne        +0x8 /* 000001EC */
label000001E6:
000001E6  3B7C 0003 9630           move.w     [A5 - 0x69D0], 0x3
label000001EC:
000001EC  3F3C 0001                move.w     -[A7], 0x1
000001F0  4EAD 054A                jsr        [A5 + 0x54A /* export_165, CODE:4 @ 00005C24 */]
000001F4  548F                     addq.l     A7, 2
label000001F6:
000001F6  2E1F                     move.l     D7, [A7]+
000001F8  4E75                     rts
fn000001FA:
000001FA  2F07                     move.l     -[A7], D7
000001FC  7E00                     moveq.l    D7, 0x00
000001FE  604E                     bra        +0x50 /* 0000024E */
label00000200:
00000200  3F07                     move.w     -[A7], D7
00000202  4EAD 04A2                jsr        [A5 + 0x4A2 /* export_144, CODE:4 @ 00002BC0 */]
00000206  7000                     moveq.l    D0, 0x00
00000208  102D BA94                move.b     D0, [A5 - 0x456C]
0000020C  0440 000A                subi.w     D0, 0xA /* '\n' */
00000210  0C40 0014                cmpi.w     D0, 0x14
00000214  548F                     addq.l     A7, 2
00000216  6234                     bhi        +0x36 /* 0000024C */
00000218  43FA 003E                lea.l      A1, [PC + 0x3E /* 00000258, value 0xFFDAFFF4 */]
0000021C  D040                     add.w      D0, D0
0000021E  D2F1 0000                add.w      A1, [A1 + D0.w]
00000222  4ED1                     jmp        [A1]
00000224  3F07                     move.w     -[A7], D7
00000226  3F2D BA6A                move.w     -[A7], [A5 - 0x4596]
0000022A  4EAD 044A                jsr        [A5 + 0x44A /* export_133, CODE:4 @ 000023C4 */]
0000022E  588F                     addq.l     A7, 4
00000230  601A                     bra        +0x1C /* 0000024C */
00000232  3F07                     move.w     -[A7], D7
00000234  3F2D BA6A                move.w     -[A7], [A5 - 0x4596]
00000238  4EAD 0452                jsr        [A5 + 0x452 /* export_134, CODE:4 @ 000023FA */]
0000023C  588F                     addq.l     A7, 4
0000023E  600C                     bra        +0xE /* 0000024C */
00000240  3F07                     move.w     -[A7], D7
00000242  3F2D BA6A                move.w     -[A7], [A5 - 0x4596]
00000246  4EAD 045A                jsr        [A5 + 0x45A /* export_135, CODE:4 @ 0000242E */]
0000024A  588F                     addq.l     A7, 4
label0000024C:
0000024C  5247                     addq.w     D7, 1
label0000024E:
0000024E  0C47 001E                cmpi.w     D7, 0x1E
00000252  6DAC                     blt        -0x52 /* 00000200 */
00000254  2E1F                     move.l     D7, [A7]+
00000256  4E75                     rts
00000258  FFDA                     .invalid   <<F/7/7>>
0000025A  FFF4                     .invalid   <<F/7/7>>
0000025C  FFF4                     .invalid   <<F/7/7>>
0000025E  FFF4                     .invalid   <<F/7/7>>
00000260  FFF4                     .invalid   <<F/7/7>>
00000262  FFF4                     .invalid   <<F/7/7>>
00000264  FFF4                     .invalid   <<F/7/7>>
00000266  FFF4                     .invalid   <<F/7/7>>
00000268  FFF4                     .invalid   <<F/7/7>>
0000026A  FFCC                     .invalid   <<F/7/7>>
0000026C  FFF4                     .invalid   <<F/7/7>>
0000026E  FFF4                     .invalid   <<F/7/7>>
00000270  FFE8                     .invalid   <<F/7/7>>
00000272  FFF4                     .invalid   <<F/7/7>>
00000274  FFF4                     .invalid   <<F/7/7>>
00000276  FFF4                     .invalid   <<F/7/7>>
00000278  FFF4                     .invalid   <<F/7/7>>
0000027A  FFF4                     .invalid   <<F/7/7>>
0000027C  FFF4                     .invalid   <<F/7/7>>
0000027E  FFF4                     .invalid   <<F/7/7>>
00000280  FFCC                     .invalid   <<F/7/7>>
fn00000282:
00000282  4E56 0000                link       A6, 0
00000286  48E7 0300                movem.l    -[A7], D6,D7
0000028A  3E2E 0008                move.w     D7, [A6 + 0x8]
0000028E  BE6D A90C                cmp.w      D7, [A5 - 0x56F4]
00000292  6700 0100                beq        +0x102 /* 00000394 */
00000296  4EBA 0CF2                jsr        [PC + 0xCF2 /* 00000F8A */]
0000029A  204D                     movea.l    A0, A5
0000029C  D0C7                     add.w      A0, D7
0000029E  1B68 A8CC B944           move.b     [A5 - 0x46BC], [A0 - 0x5734]
000002A4  4A2D B944                tst.b      [A5 - 0x46BC]
000002A8  6606                     bne        +0x8 /* 000002B0 */
000002AA  3C3C 03E8                move.w     D6, 0x3E8
000002AE  6004                     bra        +0x6 /* 000002B4 */
label000002B0:
000002B0  3C3C 07D0                move.w     D6, 0x7D0
label000002B4:
000002B4  3006                     move.w     D0, D6
000002B6  0640 00C8                addi.w     D0, 0xC8
000002BA  3F00                     move.w     -[A7], D0
000002BC  3F3C 0006                move.w     -[A7], 0x6
000002C0  4EBA 05A0                jsr        [PC + 0x5A0 /* 00000862 */]
000002C4  3006                     move.w     D0, D6
000002C6  0640 0168                addi.w     D0, 0x168
000002CA  3E80                     move.w     [A7], D0
000002CC  3F3C 0007                move.w     -[A7], 0x7
000002D0  4EBA 0590                jsr        [PC + 0x590 /* 00000862 */]
000002D4  204D                     movea.l    A0, A5
000002D6  D0C7                     add.w      A0, D7
000002D8  D0C7                     add.w      A0, D7
000002DA  3028 A8DC                move.w     D0, [A0 - 0x5724]
000002DE  5C8F                     addq.l     A7, 6
000002E0  6714                     beq        +0x16 /* 000002F6 */
000002E2  6B30                     bmi        +0x32 /* 00000314 */
000002E4  5740                     subq.w     D0, 3
000002E6  6726                     beq        +0x28 /* 0000030E */
000002E8  6A06                     bpl        +0x8 /* 000002F0 */
000002EA  5240                     addq.w     D0, 1
000002EC  6A0E                     bpl        +0x10 /* 000002FC */
000002EE  6012                     bra        +0x14 /* 00000302 */
label000002F0:
000002F0  5540                     subq.w     D0, 2
000002F2  6A20                     bpl        +0x22 /* 00000314 */
000002F4  6012                     bra        +0x14 /* 00000308 */
label000002F6:
000002F6  3C3C 03E8                move.w     D6, 0x3E8
000002FA  601A                     bra        +0x1C /* 00000316 */
label000002FC:
000002FC  3C3C 07D0                move.w     D6, 0x7D0
00000300  6014                     bra        +0x16 /* 00000316 */
label00000302:
00000302  3C3C 0BB8                move.w     D6, 0xBB8
00000306  600E                     bra        +0x10 /* 00000316 */
label00000308:
00000308  3C3C 0FA0                move.w     D6, 0xFA0
0000030C  6008                     bra        +0xA /* 00000316 */
label0000030E:
0000030E  3C3C 1388                move.w     D6, 0x1388
00000312  6002                     bra        +0x4 /* 00000316 */
label00000314:
00000314  7C00                     moveq.l    D6, 0x00
label00000316:
00000316  4A46                     tst.w      D6
00000318  6712                     beq        +0x14 /* 0000032C */
0000031A  3006                     move.w     D0, D6
0000031C  0640 02EE                addi.w     D0, 0x2EE
00000320  3F00                     move.w     -[A7], D0
00000322  3F3C 0005                move.w     -[A7], 0x5
00000326  4EBA 053A                jsr        [PC + 0x53A /* 00000862 */]
0000032A  588F                     addq.l     A7, 4
label0000032C:
0000032C  426D BAA8                clr.w      [A5 - 0x4558]
00000330  426D BAA6                clr.w      [A5 - 0x455A]
00000334  204D                     movea.l    A0, A5
00000336  D0C7                     add.w      A0, D7
00000338  4A28 A85C                tst.b      [A0 - 0x57A4]
0000033C  670A                     beq        +0xC /* 00000348 */
0000033E  3F3C 002C                move.w     -[A7], 0x2C /* ',' */
00000342  4EAD 00DA                jsr        [A5 + 0xDA /* export_23, CODE:2 @ 0000289C */]
00000346  548F                     addq.l     A7, 2
label00000348:
00000348  204D                     movea.l    A0, A5
0000034A  D0C7                     add.w      A0, D7
0000034C  4A28 A86C                tst.b      [A0 - 0x5794]
00000350  670A                     beq        +0xC /* 0000035C */
00000352  3F3C 002D                move.w     -[A7], 0x2D /* '-' */
00000356  4EAD 00DA                jsr        [A5 + 0xDA /* export_23, CODE:2 @ 0000289C */]
0000035A  548F                     addq.l     A7, 2
label0000035C:
0000035C  204D                     movea.l    A0, A5
0000035E  D0C7                     add.w      A0, D7
00000360  4A28 A89C                tst.b      [A0 - 0x5764]
00000364  6712                     beq        +0x14 /* 00000378 */
00000366  3F3C 002F                move.w     -[A7], 0x2F /* '/' */
0000036A  4EAD 00DA                jsr        [A5 + 0xDA /* export_23, CODE:2 @ 0000289C */]
0000036E  3EBC 002E                move.w     [A7], 0x2E /* '.' */
00000372  4EAD 00DA                jsr        [A5 + 0xDA /* export_23, CODE:2 @ 0000289C */]
00000376  548F                     addq.l     A7, 2
label00000378:
00000378  204D                     movea.l    A0, A5
0000037A  D0C7                     add.w      A0, D7
0000037C  4A28 A8AC                tst.b      [A0 - 0x5754]
00000380  6712                     beq        +0x14 /* 00000394 */
00000382  3F3C 0031                move.w     -[A7], 0x31 /* '1' */
00000386  4EAD 00DA                jsr        [A5 + 0xDA /* export_23, CODE:2 @ 0000289C */]
0000038A  3EBC 0030                move.w     [A7], 0x30 /* '0' */
0000038E  4EAD 00DA                jsr        [A5 + 0xDA /* export_23, CODE:2 @ 0000289C */]
00000392  548F                     addq.l     A7, 2
label00000394:
00000394  3B47 BA38                move.w     [A5 - 0x45C8], D7
00000398  3B47 A90C                move.w     [A5 - 0x56F4], D7
0000039C  4CDF 00C0                movem.l    D6,D7, [A7]+
000003A0  4E5E                     unlink     A6
000003A2  4E75                     rts
fn000003A4:
000003A4  2F0C                     move.l     -[A7], A4
000003A6  42A7                     clr.l      -[A7]
000003A8  2F3C 4C45 564C           move.l     -[A7], 0x4C45564C /* 'LEVL' */
000003AE  3F2D A90C                move.w     -[A7], [A5 - 0x56F4]
000003B2  A9A0                     syscall    GetResource
000003B4  285F                     movea.l    A4, [A7]+
000003B6  2F0C                     move.l     -[A7], A4
000003B8  4EAD 00CA                jsr        [A5 + 0xCA /* export_21, CODE:2 @ 0000281A */]
000003BC  4A00                     tst.b      D0
000003BE  588F                     addq.l     A7, 4
000003C0  661E                     bne        +0x20 /* 000003E0 */
000003C2  204C                     movea.l    A0, A4
000003C4  A029                     syscall    HLock
000003C6  43ED E91E                lea.l      A1, [A5 - 0x16E2]
000003CA  203C 0000 0900           move.l     D0, 0x900 /* '\t\0' */
000003D0  2054                     movea.l    A0, [A4]
000003D2  A02E                     syscall    BlockMove/BlockMoveData
000003D4  204C                     movea.l    A0, A4
000003D6  A02A                     syscall    HUnlock
000003D8  204C                     movea.l    A0, A4
000003DA  A049                     syscall    HPurge
000003DC  4EAD 04EA                jsr        [A5 + 0x4EA /* export_153, CODE:4 @ 00004D16 */]
label000003E0:
000003E0  285F                     movea.l    A4, [A7]+
000003E2  4E75                     rts
fn000003E4:
000003E4  4EBA 40E6                jsr        [PC + 0x40E6 /* 000044CC */]
000003E8  4EBA 3CDE                jsr        [PC + 0x3CDE /* 000040C8 */]
000003EC  4EBA 540E                jsr        [PC + 0x540E /* 000057FC */]
000003F0  4EBA 482C                jsr        [PC + 0x482C /* 00004C1E */]
000003F4  4A6D BA32                tst.w      [A5 - 0x45CE]
000003F8  6710                     beq        +0x12 /* 0000040A */
000003FA  4A2D B953                tst.b      [A5 - 0x46AD]
000003FE  6D0A                     blt        +0xC /* 0000040A */
00000400  426D BA32                clr.w      [A5 - 0x45CE]
00000404  3B7C 0001 B940           move.w     [A5 - 0x46C0], 0x1
label0000040A:
0000040A  0C2D 0006 B977           cmpi.b     [A5 - 0x4689], 0x6
00000410  6F26                     ble        +0x28 /* 00000438 */
00000412  4A2D A5BE                tst.b      [A5 - 0x5A42]
00000416  6720                     beq        +0x22 /* 00000438 */
00000418  0C6D 01A4 BA86           cmpi.w     [A5 - 0x457A], 0x1A4
0000041E  6C18                     bge        +0x1A /* 00000438 */
00000420  3F3C 0001                move.w     -[A7], 0x1
00000424  4EAD 054A                jsr        [A5 + 0x54A /* export_165, CODE:4 @ 00005C24 */]
00000428  4EAD 0102                jsr        [A5 + 0x102 /* export_28, CODE:2 @ 00002B1C */]
0000042C  3B7C 0001 BA66           move.w     [A5 - 0x459A], 0x1
00000432  7001                     moveq.l    D0, 0x01
00000434  548F                     addq.l     A7, 2
00000436  604C                     bra        +0x4E /* 00000484 */
label00000438:
00000438  4A2D B94F                tst.b      [A5 - 0x46B1]
0000043C  6740                     beq        +0x42 /* 0000047E */
0000043E  4EBA 3E06                jsr        [PC + 0x3E06 /* 00004246 */]
00000442  4EBA 4152                jsr        [PC + 0x4152 /* 00004596 */]
00000446  4EBA 4184                jsr        [PC + 0x4184 /* 000045CC */]
0000044A  4EAD 0522                jsr        [A5 + 0x522 /* export_160, CODE:4 @ 0000587A */]
0000044E  4EBA 3C78                jsr        [PC + 0x3C78 /* 000040C8 */]
00000452  4EBA 432A                jsr        [PC + 0x432A /* 0000477E */]
00000456  4EBA 13D6                jsr        [PC + 0x13D6 /* 0000182E */]
0000045A  4EAD 03E2                jsr        [A5 + 0x3E2 /* export_120, CODE:4 @ 00000F50 */]
0000045E  4EAD 03EA                jsr        [A5 + 0x3EA /* export_121, CODE:4 @ 0000120C */]
00000462  4EAD 0402                jsr        [A5 + 0x402 /* export_124, CODE:4 @ 00001804 */]
00000466  4EBA 418C                jsr        [PC + 0x418C /* 000045F4 */]
0000046A  4EBA 4C6E                jsr        [PC + 0x4C6E /* 000050DA */]
0000046E  4EBA 4D1E                jsr        [PC + 0x4D1E /* 0000518E */]
00000472  4EBA 4220                jsr        [PC + 0x4220 /* 00004694 */]
00000476  4EAD 03FA                jsr        [A5 + 0x3FA /* export_123, CODE:4 @ 00001710 */]
0000047A  4EBA 11F0                jsr        [PC + 0x11F0 /* 0000166C */]
label0000047E:
0000047E  4EBA 4010                jsr        [PC + 0x4010 /* 00004490 */]
00000482  7000                     moveq.l    D0, 0x00
label00000484:
00000484  4E75                     rts
fn00000486:
00000486  0C2D 0056 B97F           cmpi.b     [A5 - 0x4681], 0x56 /* 'V' */
0000048C  6766                     beq        +0x68 /* 000004F4 */
0000048E  4EBA 4088                jsr        [PC + 0x4088 /* 00004518 */]
00000492  4EBA 3C34                jsr        [PC + 0x3C34 /* 000040C8 */]
00000496  4EBA 5364                jsr        [PC + 0x5364 /* 000057FC */]
0000049A  4EBA 489A                jsr        [PC + 0x489A /* 00004D36 */]
0000049E  102D B94F                move.b     D0, [A5 - 0x46B1]
000004A2  4880                     ext.w      D0
000004A4  B06D BA6A                cmp.w      D0, [A5 - 0x4596]
000004A8  6646                     bne        +0x48 /* 000004F0 */
000004AA  4A6D BA2C                tst.w      [A5 - 0x45D4]
000004AE  6740                     beq        +0x42 /* 000004F0 */
000004B0  4EBA 3D94                jsr        [PC + 0x3D94 /* 00004246 */]
000004B4  0C2D 002C B947           cmpi.b     [A5 - 0x46B9], 0x2C /* ',' */
000004BA  6534                     bcs        +0x36 /* 000004F0 */
000004BC  0C2D 00D3 B947           cmpi.b     [A5 - 0x46B9], 0xD3
000004C2  642C                     bcc        +0x2E /* 000004F0 */
000004C4  4EBA 40D0                jsr        [PC + 0x40D0 /* 00004596 */]
000004C8  4EBA 4102                jsr        [PC + 0x4102 /* 000045CC */]
000004CC  4EAD 0522                jsr        [A5 + 0x522 /* export_160, CODE:4 @ 0000587A */]
000004D0  4EBA 3BF6                jsr        [PC + 0x3BF6 /* 000040C8 */]
000004D4  4EBA 42A8                jsr        [PC + 0x42A8 /* 0000477E */]
000004D8  4EAD 040A                jsr        [A5 + 0x40A /* export_125, CODE:4 @ 00001894 */]
000004DC  4EBA 4116                jsr        [PC + 0x4116 /* 000045F4 */]
000004E0  4EBA 4BF8                jsr        [PC + 0x4BF8 /* 000050DA */]
000004E4  4EBA 4CA8                jsr        [PC + 0x4CA8 /* 0000518E */]
000004E8  4EBA 41AA                jsr        [PC + 0x41AA /* 00004694 */]
000004EC  4EAD 0412                jsr        [A5 + 0x412 /* export_126, CODE:4 @ 0000195E */]
label000004F0:
000004F0  4EBA 3FC6                jsr        [PC + 0x3FC6 /* 000044B8 */]
label000004F4:
000004F4  4E75                     rts
fn000004F6:
000004F6  4A6D BA7C                tst.w      [A5 - 0x4584]
000004FA  672E                     beq        +0x30 /* 0000052A */
000004FC  302D BA7C                move.w     D0, [A5 - 0x4584]
00000500  B06D BA6A                cmp.w      D0, [A5 - 0x4596]
00000504  6724                     beq        +0x26 /* 0000052A */
00000506  3B6D BA7C BA6A           move.w     [A5 - 0x4596], [A5 - 0x4584]
0000050C  4EAD 04C2                jsr        [A5 + 0x4C2 /* export_148, CODE:4 @ 00003252 */]
00000510  3B7C 0001 BA7E           move.w     [A5 - 0x4582], 0x1
00000516  4EBA 3F64                jsr        [PC + 0x3F64 /* 0000447C */]
0000051A  4EBA FCDE                jsr        [PC - 0x322 /* 000001FA */]
0000051E  4EAD 0492                jsr        [A5 + 0x492 /* export_142, CODE:4 @ 00002A74 */]
00000522  4EBA 0008                jsr        [PC + 0x8 /* 0000052C */]
00000526  4EBA 2736                jsr        [PC + 0x2736 /* 00002C5E */]
label0000052A:
0000052A  4E75                     rts
fn0000052C:
0000052C  0C6D 000D A90C           cmpi.w     [A5 - 0x56F4], 0xD /* '\r' */
00000532  664E                     bne        +0x50 /* 00000582 */
00000534  0C6D 0017 BA6A           cmpi.w     [A5 - 0x4596], 0x17
0000053A  6708                     beq        +0xA /* 00000544 */
0000053C  0C6D 0010 BA6A           cmpi.w     [A5 - 0x4596], 0x10
00000542  663E                     bne        +0x40 /* 00000582 */
label00000544:
00000544  3B6D BA70 BAEA           move.w     [A5 - 0x4516], [A5 - 0x4590]
0000054A  3F2D BAEA                move.w     -[A7], [A5 - 0x4516]
0000054E  4EAD 0512                jsr        [A5 + 0x512 /* export_158, CODE:4 @ 0000519E */]
00000552  1B7C 0016 BAE9           move.b     [A5 - 0x4517], 0x16
00000558  548F                     addq.l     A7, 2
0000055A  601E                     bra        +0x20 /* 0000057A */
label0000055C:
0000055C  3F3C 00FF                move.w     -[A7], 0xFF
00000560  4EAD 0072                jsr        [A5 + 0x72 /* export_10, CODE:2 @ 0000223A */]
00000564  7200                     moveq.l    D1, 0x00
00000566  1200                     move.b     D1, D0
00000568  0201 000F                andi.b     D1, 0xF
0000056C  4401                     neg.b      D1
0000056E  1E81                     move.b     [A7], D1
00000570  4EAD 048A                jsr        [A5 + 0x48A /* export_141, CODE:4 @ 00002A2A */]
00000574  548F                     addq.l     A7, 2
00000576  522D BAE9                addq.b     [A5 - 0x4517], 1
label0000057A:
0000057A  0C2D 001B BAE9           cmpi.b     [A5 - 0x4517], 0x1B
00000580  63DA                     bls        -0x24 /* 0000055C */
label00000582:
00000582  4E75                     rts
fn00000584:
00000584  4E56 FFFE                link       A6, -0x0002
00000588  48E7 1F00                movem.l    -[A7], D3,D4,D5,D6,D7
0000058C  2B6D A5D4 A2E4           move.l     [A5 - 0x5D1C], [A5 - 0x5A2C]
00000592  2B6D A5D8 A2E8           move.l     [A5 - 0x5D18], [A5 - 0x5A28]
00000598  3D6D BA32 FFFE           move.w     [A6 - 0x2], [A5 - 0x45CE]
0000059E  426D BA32                clr.w      [A5 - 0x45CE]
000005A2  1F3C 0001                move.b     -[A7], 0x1
000005A6  486D A5DC                pea.l      [A5 - 0x5A24]
000005AA  206D A3E2                movea.l    A0, [A5 - 0x5C1E]
000005AE  4E90                     jsr        [A0]
000005B0  3E2D 986E                move.w     D7, [A5 - 0x6792]
000005B4  3C2D 9876                move.w     D6, [A5 - 0x678A]
000005B8  3A2D 9DF0                move.w     D5, [A5 - 0x6210]
000005BC  7800                     moveq.l    D4, 0x00
000005BE  5C8F                     addq.l     A7, 6
000005C0  602C                     bra        +0x2E /* 000005EE */
label000005C2:
000005C2  B86E 0008                cmp.w      D4, [A6 + 0x8]
000005C6  6C06                     bge        +0x8 /* 000005CE */
000005C8  363C 00D9                move.w     D3, 0xD9
000005CC  6004                     bra        +0x6 /* 000005D2 */
label000005CE:
000005CE  363C 00DA                move.w     D3, 0xDA
label000005D2:
000005D2  3F3C 0001                move.w     -[A7], 0x1
000005D6  3F05                     move.w     -[A7], D5
000005D8  3F07                     move.w     -[A7], D7
000005DA  3F03                     move.w     -[A7], D3
000005DC  3F3C 0002                move.w     -[A7], 0x2
000005E0  206D A3DE                movea.l    A0, [A5 - 0x5C22]
000005E4  4E90                     jsr        [A0]
000005E6  DE46                     add.w      D7, D6
000005E8  4FEF 000A                lea.l      A7, [A7 + 0xA]
000005EC  5244                     addq.w     D4, 1
label000005EE:
000005EE  B86E 000A                cmp.w      D4, [A6 + 0xA]
000005F2  6DCE                     blt        -0x30 /* 000005C2 */
000005F4  486D A5DC                pea.l      [A5 - 0x5A24]
000005F8  A928                     syscall    InvalRect
000005FA  3B6E FFFE BA32           move.w     [A5 - 0x45CE], [A6 - 0x2]
00000600  2B6D A5CC A2E4           move.l     [A5 - 0x5D1C], [A5 - 0x5A34]
00000606  2B6D A5D0 A2E8           move.l     [A5 - 0x5D18], [A5 - 0x5A30]
0000060C  4CDF 00F8                movem.l    D3,D4,D5,D6,D7, [A7]+
00000610  4E5E                     unlink     A6
00000612  4E75                     rts
fn00000614:
00000614  4E56 0000                link       A6, 0
00000618  48E7 1F00                movem.l    -[A7], D3,D4,D5,D6,D7
0000061C  1E2D B987                move.b     D7, [A5 - 0x4679]
00000620  4887                     ext.w      D7
00000622  0C47 0004                cmpi.w     D7, 0x4
00000626  6700 0082                beq        +0x84 /* 000006AA */
0000062A  0C47 0018                cmpi.w     D7, 0x18
0000062E  677A                     beq        +0x7C /* 000006AA */
00000630  0C47 0001                cmpi.w     D7, 0x1
00000634  6608                     bne        +0xA /* 0000063E */
00000636  0C6D 000C A90C           cmpi.w     [A5 - 0x56F4], 0xC
0000063C  666C                     bne        +0x6E /* 000006AA */
label0000063E:
0000063E  2B6D A5D4 A2E4           move.l     [A5 - 0x5D1C], [A5 - 0x5A2C]
00000644  2B6D A5D8 A2E8           move.l     [A5 - 0x5D18], [A5 - 0x5A28]
0000064A  3E2D BA32                move.w     D7, [A5 - 0x45CE]
0000064E  426D BA32                clr.w      [A5 - 0x45CE]
00000652  7C01                     moveq.l    D6, 0x01
00000654  1F06                     move.b     -[A7], D6
00000656  486D A5EC                pea.l      [A5 - 0x5A14]
0000065A  206D A3E2                movea.l    A0, [A5 - 0x5C1E]
0000065E  4E90                     jsr        [A0]
00000660  3C2D 9ACE                move.w     D6, [A5 - 0x6532]
00000664  3A2D 9876                move.w     D5, [A5 - 0x678A]
00000668  382D 9DF0                move.w     D4, [A5 - 0x6210]
0000066C  7600                     moveq.l    D3, 0x00
0000066E  5C8F                     addq.l     A7, 6
00000670  601C                     bra        +0x1E /* 0000068E */
label00000672:
00000672  3F3C 0001                move.w     -[A7], 0x1
00000676  3F04                     move.w     -[A7], D4
00000678  3F06                     move.w     -[A7], D6
0000067A  2F3C 0005 0001           move.l     -[A7], 0x50001
00000680  206D A3DE                movea.l    A0, [A5 - 0x5C22]
00000684  4E90                     jsr        [A0]
00000686  9C45                     sub.w      D6, D5
00000688  4FEF 000A                lea.l      A7, [A7 + 0xA]
0000068C  5243                     addq.w     D3, 1
label0000068E:
0000068E  B66E 0008                cmp.w      D3, [A6 + 0x8]
00000692  6DDE                     blt        -0x20 /* 00000672 */
00000694  486D A5EC                pea.l      [A5 - 0x5A14]
00000698  A928                     syscall    InvalRect
0000069A  3B47 BA32                move.w     [A5 - 0x45CE], D7
0000069E  2B6D A5CC A2E4           move.l     [A5 - 0x5D1C], [A5 - 0x5A34]
000006A4  2B6D A5D0 A2E8           move.l     [A5 - 0x5D18], [A5 - 0x5A30]
label000006AA:
000006AA  4CDF 00F8                movem.l    D3,D4,D5,D6,D7, [A7]+
000006AE  4E5E                     unlink     A6
000006B0  4E75                     rts
fn000006B2:
000006B2  526D BA48                addq.w     [A5 - 0x45B8], 1
000006B6  0C6D 000A BA48           cmpi.w     [A5 - 0x45B8], 0xA /* '\n' */
000006BC  6F06                     ble        +0x8 /* 000006C4 */
000006BE  3B7C 000A BA48           move.w     [A5 - 0x45B8], 0xA /* '\n' */
label000006C4:
000006C4  4EBA 0004                jsr        [PC + 0x4 /* 000006CA */]
000006C8  4E75                     rts
fn000006CA:
000006CA  302D BA48                move.w     D0, [A5 - 0x45B8]
000006CE  906D BA4A                sub.w      D0, [A5 - 0x45B6]
000006D2  3B40 BA50                move.w     [A5 - 0x45B0], D0
000006D6  4E75                     rts
export_116:
000006D8  4A6D BA50                tst.w      [A5 - 0x45B0]
000006DC  670E                     beq        +0x10 /* 000006EC */
000006DE  3F2D BA48                move.w     -[A7], [A5 - 0x45B8]
000006E2  3F2D BA4A                move.w     -[A7], [A5 - 0x45B6]
000006E6  4EBA FE9C                jsr        [PC - 0x164 /* 00000584 */]
000006EA  588F                     addq.l     A7, 4
label000006EC:
000006EC  0C6D 0001 BA4A           cmpi.w     [A5 - 0x45B6], 0x1
000006F2  6620                     bne        +0x22 /* 00000714 */
000006F4  0C6D 000F A90C           cmpi.w     [A5 - 0x56F4], 0xF
000006FA  6718                     beq        +0x1A /* 00000714 */
000006FC  3F2D BA48                move.w     -[A7], [A5 - 0x45B8]
00000700  302D BA80                move.w     D0, [A5 - 0x4580]
00000704  48C0                     ext.l      D0
00000706  81FC 0002                divs.w     D0, 0x2
0000070A  4840                     swap.w     D0
0000070C  3F00                     move.w     -[A7], D0
0000070E  4EBA FE74                jsr        [PC - 0x18C /* 00000584 */]
00000712  588F                     addq.l     A7, 4
label00000714:
00000714  4A6D BA52                tst.w      [A5 - 0x45AE]
00000718  670E                     beq        +0x10 /* 00000728 */
0000071A  3F2D BA4E                move.w     -[A7], [A5 - 0x45B2]
0000071E  3F2D BA4C                move.w     -[A7], [A5 - 0x45B4]
00000722  4EBA FEF0                jsr        [PC - 0x110 /* 00000614 */]
00000726  588F                     addq.l     A7, 4
label00000728:
00000728  0C6D 0001 BA4C           cmpi.w     [A5 - 0x45B4], 0x1
0000072E  6618                     bne        +0x1A /* 00000748 */
00000730  3F2D BA4E                move.w     -[A7], [A5 - 0x45B2]
00000734  302D BA80                move.w     D0, [A5 - 0x4580]
00000738  48C0                     ext.l      D0
0000073A  81FC 0002                divs.w     D0, 0x2
0000073E  4840                     swap.w     D0
00000740  3F00                     move.w     -[A7], D0
00000742  4EBA FED0                jsr        [PC - 0x130 /* 00000614 */]
00000746  588F                     addq.l     A7, 4
label00000748:
00000748  4E75                     rts
fn0000074A:
0000074A  0C2D 0001 B963           cmpi.b     [A5 - 0x469D], 0x1
00000750  6614                     bne        +0x16 /* 00000766 */
00000752  0C6D 000C A90C           cmpi.w     [A5 - 0x56F4], 0xC
00000758  660C                     bne        +0xE /* 00000766 */
0000075A  4A6D BA52                tst.w      [A5 - 0x45AE]
0000075E  6706                     beq        +0x8 /* 00000766 */
00000760  3B6D BA52 BA50           move.w     [A5 - 0x45B0], [A5 - 0x45AE]
label00000766:
00000766  302D BA50                move.w     D0, [A5 - 0x45B0]
0000076A  D16D BA4A                add.w      [A5 - 0x45B6], D0
0000076E  4A6D BA4A                tst.w      [A5 - 0x45B6]
00000772  6C06                     bge        +0x8 /* 0000077A */
00000774  426D BA4A                clr.w      [A5 - 0x45B6]
00000778  6010                     bra        +0x12 /* 0000078A */
label0000077A:
0000077A  302D BA4A                move.w     D0, [A5 - 0x45B6]
0000077E  B06D BA48                cmp.w      D0, [A5 - 0x45B8]
00000782  6F06                     ble        +0x8 /* 0000078A */
00000784  3B6D BA48 BA4A           move.w     [A5 - 0x45B6], [A5 - 0x45B8]
label0000078A:
0000078A  302D BA52                move.w     D0, [A5 - 0x45AE]
0000078E  D16D BA4C                add.w      [A5 - 0x45B4], D0
00000792  4A6D BA4C                tst.w      [A5 - 0x45B4]
00000796  6C06                     bge        +0x8 /* 0000079E */
00000798  426D BA4C                clr.w      [A5 - 0x45B4]
0000079C  6010                     bra        +0x12 /* 000007AE */
label0000079E:
0000079E  302D BA4C                move.w     D0, [A5 - 0x45B4]
000007A2  B06D BA4E                cmp.w      D0, [A5 - 0x45B2]
000007A6  6F06                     ble        +0x8 /* 000007AE */
000007A8  3B6D BA4E BA4C           move.w     [A5 - 0x45B4], [A5 - 0x45B2]
label000007AE:
000007AE  4E75                     rts
export_117:
fn000007B0:
000007B0  4E56 0000                link       A6, 0
000007B4  4A6D A90E                tst.w      [A5 - 0x56F2]
000007B8  6D18                     blt        +0x1A /* 000007D2 */
000007BA  204D                     movea.l    A0, A5
000007BC  D0EE 0008                add.w      A0, [A6 + 0x8]
000007C0  302D A90E                move.w     D0, [A5 - 0x56F2]
000007C4  224D                     movea.l    A1, A5
000007C6  D2C0                     add.w      A1, D0
000007C8  1228 B8F2                move.b     D1, [A0 - 0x470E]
000007CC  B229 B8F2                cmp.b      D1, [A1 - 0x470E]
000007D0  6206                     bhi        +0x8 /* 000007D8 */
label000007D2:
000007D2  3B6E 0008 A90E           move.w     [A5 - 0x56F2], [A6 + 0x8]
label000007D8:
000007D8  4E5E                     unlink     A6
000007DA  4E75                     rts
fn000007DC:
000007DC  4A6D A90E                tst.w      [A5 - 0x56F2]
000007E0  6D62                     blt        +0x64 /* 00000844 */
000007E2  4EAD 010A                jsr        [A5 + 0x10A /* export_29, CODE:2 @ 00002B4C */]
000007E6  4A00                     tst.b      D0
000007E8  6728                     beq        +0x2A /* 00000812 */
000007EA  302D BA68                move.w     D0, [A5 - 0x4598]
000007EE  204D                     movea.l    A0, A5
000007F0  D0C0                     add.w      A0, D0
000007F2  4A28 B8B8                tst.b      [A0 - 0x4748]
000007F6  674C                     beq        +0x4E /* 00000844 */
000007F8  302D A90E                move.w     D0, [A5 - 0x56F2]
000007FC  204D                     movea.l    A0, A5
000007FE  D0C0                     add.w      A0, D0
00000800  322D BA68                move.w     D1, [A5 - 0x4598]
00000804  224D                     movea.l    A1, A5
00000806  D2C1                     add.w      A1, D1
00000808  1428 B8F2                move.b     D2, [A0 - 0x470E]
0000080C  B429 B8F2                cmp.b      D2, [A1 - 0x470E]
00000810  6232                     bhi        +0x34 /* 00000844 */
label00000812:
00000812  0C6D 000F A90E           cmpi.w     [A5 - 0x56F2], 0xF
00000818  6614                     bne        +0x16 /* 0000082E */
0000081A  302D A90E                move.w     D0, [A5 - 0x56F2]
0000081E  204D                     movea.l    A0, A5
00000820  D0C0                     add.w      A0, D0
00000822  4A28 B8B8                tst.b      [A0 - 0x4748]
00000826  6606                     bne        +0x8 /* 0000082E */
00000828  3B7C 000C 9656           move.w     [A5 - 0x69AA], 0xC
label0000082E:
0000082E  3F2D A90E                move.w     -[A7], [A5 - 0x56F2]
00000832  4EAD 00FA                jsr        [A5 + 0xFA /* export_27, CODE:2 @ 00002A5A */]
00000836  3B6D A90E BA68           move.w     [A5 - 0x4598], [A5 - 0x56F2]
0000083C  3B7C FFFF A90E           move.w     [A5 - 0x56F2], 0xFFFF
00000842  548F                     addq.l     A7, 2
label00000844:
00000844  4E75                     rts
fn00000846:
00000846  0C2D 00A7 B96A           cmpi.b     [A5 - 0x4696], 0xA7
0000084C  6708                     beq        +0xA /* 00000856 */
0000084E  0C2D 00A7 B97C           cmpi.b     [A5 - 0x4684], 0xA7
00000854  660A                     bne        +0xC /* 00000860 */
label00000856:
00000856  3F3C 000A                move.w     -[A7], 0xA /* '\n' */
0000085A  4EBA FF54                jsr        [PC - 0xAC /* 000007B0 */]
0000085E  548F                     addq.l     A7, 2
label00000860:
00000860  4E75                     rts
fn00000862:
00000862  4E56 FFFC                link       A6, -0x0004
00000866  48E7 1F38                movem.l    -[A7], D3,D4,D5,D6,D7,A2,A3,A4
0000086A  41ED A57A                lea.l      A0, [A5 - 0x5A86]
0000086E  3C2E 0008                move.w     D6, [A6 + 0x8]
00000872  48C6                     ext.l      D6
00000874  E58E                     lsl        D6, 2
00000876  DC88                     add.l      D6, A0
00000878  2046                     movea.l    A0, D6
0000087A  2650                     movea.l    A3, [A0]
0000087C  41ED A59A                lea.l      A0, [A5 - 0x5A66]
00000880  3E2E 0008                move.w     D7, [A6 + 0x8]
00000884  48C7                     ext.l      D7
00000886  E58F                     lsl        D7, 2
00000888  DE88                     add.l      D7, A0
0000088A  2047                     movea.l    A0, D7
0000088C  2450                     movea.l    A2, [A0]
0000088E  200B                     move.l     D0, A3
00000890  6706                     beq        +0x8 /* 00000898 */
00000892  200A                     move.l     D0, A2
00000894  6600 011A                bne        +0x11C /* 000009B0 */
label00000898:
00000898  4EAD 00AA                jsr        [A5 + 0xAA /* export_17, CODE:2 @ 00002682 */]
0000089C  206D A1CC                movea.l    A0, [A5 - 0x5E34]
000008A0  2F10                     move.l     -[A7], [A0]
000008A2  A851                     syscall    SetCursor
000008A4  42A7                     clr.l      -[A7]
000008A6  2F3C 5348 5044           move.l     -[A7], 0x53485044 /* 'SHPD' */
000008AC  3F2E 000A                move.w     -[A7], [A6 + 0xA]
000008B0  A9A0                     syscall    GetResource
000008B2  265F                     movea.l    A3, [A7]+
000008B4  2F0B                     move.l     -[A7], A3
000008B6  4EAD 00CA                jsr        [A5 + 0xCA /* export_21, CODE:2 @ 0000281A */]
000008BA  4A00                     tst.b      D0
000008BC  588F                     addq.l     A7, 4
000008BE  6600 00F0                bne        +0xF2 /* 000009B0 */
000008C2  2453                     movea.l    A2, [A3]
000008C4  2A12                     move.l     D5, [A2]
000008C6  2D6A 0004 FFFC           move.l     [A6 - 0x4], [A2 + 0x4]
000008CC  262A 0008                move.l     D3, [A2 + 0x8]
000008D0  2F0B                     move.l     -[A7], A3
000008D2  A9A3                     syscall    ReleaseResource
000008D4  42A7                     clr.l      -[A7]
000008D6  2F3C 5348 5054           move.l     -[A7], 0x53485054 /* 'SHPT' */
000008DC  3F2E 000A                move.w     -[A7], [A6 + 0xA]
000008E0  A9A0                     syscall    GetResource
000008E2  265F                     movea.l    A3, [A7]+
000008E4  2F0B                     move.l     -[A7], A3
000008E6  4EAD 00CA                jsr        [A5 + 0xCA /* export_21, CODE:2 @ 0000281A */]
000008EA  4A00                     tst.b      D0
000008EC  588F                     addq.l     A7, 4
000008EE  6600 00C0                bne        +0xC2 /* 000009B0 */
000008F2  2F0B                     move.l     -[A7], A3
000008F4  A992                     syscall    DetachResource
000008F6  204B                     movea.l    A0, A3
000008F8  A064                     syscall    MoveHHi
000008FA  202E FFFC                move.l     D0, [A6 - 0x4]
000008FE  A122                     syscall    NewHandle, flags=1
00000900  2848                     movea.l    A4, A0
00000902  2F0C                     move.l     -[A7], A4
00000904  4EAD 00D2                jsr        [A5 + 0xD2 /* export_22, CODE:2 @ 0000285C */]
00000908  4A00                     tst.b      D0
0000090A  588F                     addq.l     A7, 4
0000090C  6600 00A2                bne        +0xA4 /* 000009B0 */
00000910  4267                     clr.w      -[A7]
00000912  2F2D A168                move.l     -[A7], [A5 - 0x5E98]
00000916  3F2D A0BE                move.w     -[A7], [A5 - 0x5F42]
0000091A  486D A166                pea.l      [A5 - 0x5E9A]
0000091E  4EAD 018A                jsr        [A5 + 0x18A /* export_45, CODE:2 @ 000041F8 */]
00000922  381F                     move.w     D4, [A7]+
00000924  3F04                     move.w     -[A7], D4
00000926  4EAD 00C2                jsr        [A5 + 0xC2 /* export_20, CODE:2 @ 000027A6 */]
0000092A  4A00                     tst.b      D0
0000092C  548F                     addq.l     A7, 2
0000092E  6600 0080                bne        +0x82 /* 000009B0 */
00000932  4267                     clr.w      -[A7]
00000934  3F2D A166                move.w     -[A7], [A5 - 0x5E9A]
00000938  3F3C 0001                move.w     -[A7], 0x1
0000093C  2F05                     move.l     -[A7], D5
0000093E  4EAD 01A2                jsr        [A5 + 0x1A2 /* export_48, CODE:2 @ 0000439A */]
00000942  381F                     move.w     D4, [A7]+
00000944  3F04                     move.w     -[A7], D4
00000946  4EAD 00C2                jsr        [A5 + 0xC2 /* export_20, CODE:2 @ 000027A6 */]
0000094A  4A00                     tst.b      D0
0000094C  548F                     addq.l     A7, 2
0000094E  6660                     bne        +0x62 /* 000009B0 */
00000950  204C                     movea.l    A0, A4
00000952  A029                     syscall    HLock
00000954  4267                     clr.w      -[A7]
00000956  3F2D A166                move.w     -[A7], [A5 - 0x5E9A]
0000095A  486E FFFC                pea.l      [A6 - 0x4]
0000095E  2F14                     move.l     -[A7], [A4]
00000960  4EAD 019A                jsr        [A5 + 0x19A /* export_47, CODE:2 @ 00004252 */]
00000964  381F                     move.w     D4, [A7]+
00000966  3F04                     move.w     -[A7], D4
00000968  4EAD 00C2                jsr        [A5 + 0xC2 /* export_20, CODE:2 @ 000027A6 */]
0000096C  4A00                     tst.b      D0
0000096E  548F                     addq.l     A7, 2
00000970  663E                     bne        +0x40 /* 000009B0 */
00000972  4267                     clr.w      -[A7]
00000974  3F2D A166                move.w     -[A7], [A5 - 0x5E9A]
00000978  4EAD 0192                jsr        [A5 + 0x192 /* export_46, CODE:2 @ 00004238 */]
0000097C  204C                     movea.l    A0, A4
0000097E  A02A                     syscall    HUnlock
00000980  2003                     move.l     D0, D3
00000982  A122                     syscall    NewHandle, flags=1
00000984  2448                     movea.l    A2, A0
00000986  2F0A                     move.l     -[A7], A2
00000988  4EAD 00D2                jsr        [A5 + 0xD2 /* export_22, CODE:2 @ 0000285C */]
0000098C  4A00                     tst.b      D0
0000098E  5C8F                     addq.l     A7, 6
00000990  661E                     bne        +0x20 /* 000009B0 */
00000992  2F12                     move.l     -[A7], [A2]
00000994  2F2E FFFC                move.l     -[A7], [A6 - 0x4]
00000998  2F14                     move.l     -[A7], [A4]
0000099A  4EAD 00A2                jsr        [A5 + 0xA2 /* export_16, CODE:2 @ 00002536 */]
0000099E  204C                     movea.l    A0, A4
000009A0  A023                     syscall    DisposHandle/DisposeHandle
000009A2  204A                     movea.l    A0, A2
000009A4  A064                     syscall    MoveHHi
000009A6  2046                     movea.l    A0, D6
000009A8  208B                     move.l     [A0], A3
000009AA  2047                     movea.l    A0, D7
000009AC  208A                     move.l     [A0], A2
000009AE  A850                     syscall    InitCursor
label000009B0:
000009B0  4CEE 1CF8 FFDC           movem.l    D3,D4,D5,D6,D7,A2,A3,A4, [A6 - 0x24]
000009B6  4E5E                     unlink     A6
000009B8  4E75                     rts
fn000009BA:
000009BA  4E56 0000                link       A6, 0
000009BE  2F07                     move.l     -[A7], D7
000009C0  4EAD 050A                jsr        [A5 + 0x50A /* export_157, CODE:4 @ 00005090 */]
000009C4  3E2E 0008                move.w     D7, [A6 + 0x8]
000009C8  600A                     bra        +0xC /* 000009D4 */
label000009CA:
000009CA  3F07                     move.w     -[A7], D7
000009CC  4EBA 0012                jsr        [PC + 0x12 /* 000009E0 */]
000009D0  548F                     addq.l     A7, 2
000009D2  5247                     addq.w     D7, 1
label000009D4:
000009D4  0C47 0008                cmpi.w     D7, 0x8
000009D8  6DF0                     blt        -0xE /* 000009CA */
000009DA  2E1F                     move.l     D7, [A7]+
000009DC  4E5E                     unlink     A6
000009DE  4E75                     rts
fn000009E0:
000009E0  4E56 0000                link       A6, 0
000009E4  2F0C                     move.l     -[A7], A4
000009E6  49ED A57A                lea.l      A4, [A5 - 0x5A86]
000009EA  302E 0008                move.w     D0, [A6 + 0x8]
000009EE  48C0                     ext.l      D0
000009F0  E588                     lsl        D0, 2
000009F2  D08C                     add.l      D0, A4
000009F4  2840                     movea.l    A4, D0
000009F6  4A94                     tst.l      [A4]
000009F8  6704                     beq        +0x6 /* 000009FE */
000009FA  2054                     movea.l    A0, [A4]
000009FC  A023                     syscall    DisposHandle/DisposeHandle
label000009FE:
000009FE  4294                     clr.l      [A4]
00000A00  49ED A59A                lea.l      A4, [A5 - 0x5A66]
00000A04  302E 0008                move.w     D0, [A6 + 0x8]
00000A08  48C0                     ext.l      D0
00000A0A  E588                     lsl        D0, 2
00000A0C  D08C                     add.l      D0, A4
00000A0E  2840                     movea.l    A4, D0
00000A10  4A94                     tst.l      [A4]
00000A12  6704                     beq        +0x6 /* 00000A18 */
00000A14  2054                     movea.l    A0, [A4]
00000A16  A023                     syscall    DisposHandle/DisposeHandle
label00000A18:
00000A18  4294                     clr.l      [A4]
00000A1A  285F                     movea.l    A4, [A7]+
00000A1C  4E5E                     unlink     A6
00000A1E  4E75                     rts
fn00000A20:
00000A20  426D BA7C                clr.w      [A5 - 0x4584]
00000A24  4A6D A5BA                tst.w      [A5 - 0x5A46]
00000A28  6706                     beq        +0x8 /* 00000A30 */
00000A2A  4EBA 00F6                jsr        [PC + 0xF6 /* 00000B22 */]
00000A2E  6004                     bra        +0x6 /* 00000A34 */
label00000A30:
00000A30  4EBA 0004                jsr        [PC + 0x4 /* 00000A36 */]
label00000A34:
00000A34  4E75                     rts
fn00000A36:
00000A36  48E7 0F00                movem.l    -[A7], D4,D5,D6,D7
00000A3A  486D A1F8                pea.l      [A5 - 0x5E08]
00000A3E  A976                     syscall    GetKeys
00000A40  2E2D A1F8                move.l     D7, [A5 - 0x5E08]
00000A44  2C2D A1FC                move.l     D6, [A5 - 0x5E04]
00000A48  2A2D A200                move.l     D5, [A5 - 0x5E00]
00000A4C  282D A204                move.l     D4, [A5 - 0x5DFC]
00000A50  422D BABB                clr.b      [A5 - 0x4545]
00000A54  422D BABA                clr.b      [A5 - 0x4546]
00000A58  422D BAB9                clr.b      [A5 - 0x4547]
00000A5C  4A46                     tst.w      D6
00000A5E  6A06                     bpl        +0x8 /* 00000A66 */
00000A60  7000                     moveq.l    D0, 0x00
00000A62  6000 00B8                bra        +0xBA /* 00000B1C */
label00000A66:
00000A66  2007                     move.l     D0, D7
00000A68  0280 0220 0000           andi.l     D0, 0x2200000
00000A6E  661A                     bne        +0x1C /* 00000A8A */
00000A70  2006                     move.l     D0, D6
00000A72  0280 4100 0000           andi.l     D0, 0x41000000 /* 'A\0\0\0' */
00000A78  6610                     bne        +0x12 /* 00000A8A */
00000A7A  2005                     move.l     D0, D5
00000A7C  0280 0000 4802           andi.l     D0, 0x4802
00000A82  6606                     bne        +0x8 /* 00000A8A */
00000A84  0804 0003                btst.b     D4, 0x3
00000A88  6704                     beq        +0x6 /* 00000A8E */
label00000A8A:
00000A8A  532D BAB9                subq.b     [A5 - 0x4547], 1
label00000A8E:
00000A8E  2007                     move.l     D0, D7
00000A90  0280 0880 0080           andi.l     D0, 0x8800080
00000A96  6616                     bne        +0x18 /* 00000AAE */
00000A98  0806 001D                btst.b     D6, 0x1D
00000A9C  6610                     bne        +0x12 /* 00000AAE */
00000A9E  2005                     move.l     D0, D5
00000AA0  0280 0000 2011           andi.l     D0, 0x2011
00000AA6  6606                     bne        +0x8 /* 00000AAE */
00000AA8  0804 0004                btst.b     D4, 0x4
00000AAC  6704                     beq        +0x6 /* 00000AB2 */
label00000AAE:
00000AAE  522D BAB9                addq.b     [A5 - 0x4547], 1
label00000AB2:
00000AB2  2007                     move.l     D0, D7
00000AB4  0280 00E0 0080           andi.l     D0, 0xE00080
00000ABA  6616                     bne        +0x18 /* 00000AD2 */
00000ABC  2006                     move.l     D0, D6
00000ABE  0280 0500 0000           andi.l     D0, 0x5000000
00000AC4  660C                     bne        +0xE /* 00000AD2 */
00000AC6  701A                     moveq.l    D0, 0x1A
00000AC8  C085                     and.l      D0, D5
00000ACA  6606                     bne        +0x8 /* 00000AD2 */
00000ACC  0804 0006                btst.b     D4, 0x6
00000AD0  6704                     beq        +0x6 /* 00000AD6 */
label00000AD2:
00000AD2  532D BABA                subq.b     [A5 - 0x4546], 1
label00000AD6:
00000AD6  0807 001A                btst.b     D7, 0x1A
00000ADA  6616                     bne        +0x18 /* 00000AF2 */
00000ADC  0806 0010                btst.b     D6, 0x10
00000AE0  6610                     bne        +0x12 /* 00000AF2 */
00000AE2  2005                     move.l     D0, D5
00000AE4  0280 0000 9000           andi.l     D0, 0x9000
00000AEA  6606                     bne        +0x8 /* 00000AF2 */
00000AEC  0804 0005                btst.b     D4, 0x5
00000AF0  6704                     beq        +0x6 /* 00000AF6 */
label00000AF2:
00000AF2  522D BABA                addq.b     [A5 - 0x4546], 1
label00000AF6:
00000AF6  700D                     moveq.l    D0, 0x0D
00000AF8  C086                     and.l      D0, D6
00000AFA  6606                     bne        +0x8 /* 00000B02 */
00000AFC  0805 000A                btst.b     D5, 0xA /* '\n' */
00000B00  6704                     beq        +0x6 /* 00000B06 */
label00000B02:
00000B02  532D BABB                subq.b     [A5 - 0x4545], 1
label00000B06:
00000B06  4A87                     tst.l      D7
00000B08  660C                     bne        +0xE /* 00000B16 */
00000B0A  4A86                     tst.l      D6
00000B0C  6608                     bne        +0xA /* 00000B16 */
00000B0E  4A85                     tst.l      D5
00000B10  6604                     bne        +0x6 /* 00000B16 */
00000B12  4A84                     tst.l      D4
00000B14  6704                     beq        +0x6 /* 00000B1A */
label00000B16:
00000B16  7001                     moveq.l    D0, 0x01
00000B18  6002                     bra        +0x4 /* 00000B1C */
label00000B1A:
00000B1A  7000                     moveq.l    D0, 0x00
label00000B1C:
00000B1C  4CDF 00F0                movem.l    D4,D5,D6,D7, [A7]+
00000B20  4E75                     rts
fn00000B22:
00000B22  422D BABB                clr.b      [A5 - 0x4545]
00000B26  422D BABA                clr.b      [A5 - 0x4546]
00000B2A  422D BAB9                clr.b      [A5 - 0x4547]
00000B2E  7000                     moveq.l    D0, 0x00
00000B30  4E75                     rts
fn00000B32:
00000B32  4A6D BA32                tst.w      [A5 - 0x45CE]
00000B36  6706                     beq        +0x8 /* 00000B3E */
00000B38  426D BA32                clr.w      [A5 - 0x45CE]
00000B3C  6006                     bra        +0x8 /* 00000B44 */
label00000B3E:
00000B3E  3B7C 0001 BA32           move.w     [A5 - 0x45CE], 0x1
label00000B44:
00000B44  3B7C 0001 B940           move.w     [A5 - 0x46C0], 0x1
00000B4A  4E75                     rts
fn00000B4C:
00000B4C  3B7C 00C8 BA30           move.w     [A5 - 0x45D0], 0xC8
00000B52  3B7C 000C BA18           move.w     [A5 - 0x45E8], 0xC
00000B58  3B7C 0003 BA1A           move.w     [A5 - 0x45E6], 0x3
00000B5E  4EAD 0102                jsr        [A5 + 0x102 /* export_28, CODE:2 @ 00002B1C */]
00000B62  3F3C 0027                move.w     -[A7], 0x27 /* '\'' */
00000B66  4EBA FC48                jsr        [PC - 0x3B8 /* 000007B0 */]
00000B6A  548F                     addq.l     A7, 2
00000B6C  4E75                     rts
fn00000B6E:
00000B6E  48E7 1F18                movem.l    -[A7], D3,D4,D5,D6,D7,A3,A4
00000B72  2B6D 9622 9626           move.l     [A5 - 0x69DA], [A5 - 0x69DE]
00000B78  306D BA6A                movea.w    A0, [A5 - 0x4596]
00000B7C  2B48 9622                move.l     [A5 - 0x69DE], A0
00000B80  3F3C 0001                move.w     -[A7], 0x1
00000B84  4EAD 0072                jsr        [A5 + 0x72 /* export_10, CODE:2 @ 0000223A */]
00000B88  7E00                     moveq.l    D7, 0x00
00000B8A  49ED B994                lea.l      A4, [A5 - 0x466C]
00000B8E  548F                     addq.l     A7, 2
00000B90  604A                     bra        +0x4C /* 00000BDC */
label00000B92:
00000B92  7C00                     moveq.l    D6, 0x00
00000B94  97CB                     sub.l      A3, A3
00000B96  6038                     bra        +0x3A /* 00000BD0 */
label00000B98:
00000B98  7AFF                     moveq.l    D5, 0xFFFFFFFF
00000B9A  7800                     moveq.l    D4, 0x00
00000B9C  6026                     bra        +0x28 /* 00000BC4 */
label00000B9E:
00000B9E  764C                     moveq.l    D3, 0x4C
00000BA0  0806 0000                btst.b     D6, 0x0
00000BA4  6702                     beq        +0x4 /* 00000BA8 */
00000BA6  5843                     addq.w     D3, 4
label00000BA8:
00000BA8  3F3C 0003                move.w     -[A7], 0x3
00000BAC  4EAD 0072                jsr        [A5 + 0x72 /* export_10, CODE:2 @ 0000223A */]
00000BB0  D640                     add.w      D3, D0
00000BB2  548F                     addq.l     A7, 2
00000BB4  BA43                     cmp.w      D5, D3
00000BB6  67E6                     beq        -0x18 /* 00000B9E */
00000BB8  204C                     movea.l    A0, A4
00000BBA  D1CB                     add.l      A0, A3
00000BBC  1183 4000                move.b     [A0 + D4.w], D3
00000BC0  3A03                     move.w     D5, D3
00000BC2  5244                     addq.w     D4, 1
label00000BC4:
00000BC4  0C44 000A                cmpi.w     D4, 0xA /* '\n' */
00000BC8  6FD4                     ble        -0x2A /* 00000B9E */
00000BCA  5246                     addq.w     D6, 1
00000BCC  47EB 000B                lea.l      A3, [A3 + 0xB]
label00000BD0:
00000BD0  0C46 0004                cmpi.w     D6, 0x4
00000BD4  6DC2                     blt        -0x3C /* 00000B98 */
00000BD6  5247                     addq.w     D7, 1
00000BD8  49EC 002C                lea.l      A4, [A4 + 0x2C]
label00000BDC:
00000BDC  0C47 0003                cmpi.w     D7, 0x3
00000BE0  6DB0                     blt        -0x4E /* 00000B92 */
00000BE2  2B6D 9626 9622           move.l     [A5 - 0x69DE], [A5 - 0x69DA]
00000BE8  4CDF 18F8                movem.l    D3,D4,D5,D6,D7,A3,A4, [A7]+
00000BEC  4E75                     rts
export_118:
00000BEE  302D A566                move.w     D0, [A5 - 0x5A9A]
00000BF2  526D A566                addq.w     [A5 - 0x5A9A], 1
00000BF6  0C40 0012                cmpi.w     D0, 0x12
00000BFA  6200 02A8                bhi        +0x2AA /* 00000EA4 */
00000BFE  43FA 02AA                lea.l      A1, [PC + 0x2AA /* 00000EAA, value 0xFD60FD84 */]
00000C02  D040                     add.w      D0, D0
00000C04  D2F1 0000                add.w      A1, [A1 + D0.w]
00000C08  4ED1                     jmp        [A1]
00000C0A  4EBA 02FC                jsr        [PC + 0x2FC /* 00000F08 */]
00000C0E  3F3C 0036                move.w     -[A7], 0x36 /* '6' */
00000C12  4EAD 00DA                jsr        [A5 + 0xDA /* export_23, CODE:2 @ 0000289C */]
00000C16  3EBC 0037                move.w     [A7], 0x37 /* '7' */
00000C1A  4EAD 00DA                jsr        [A5 + 0xDA /* export_23, CODE:2 @ 0000289C */]
00000C1E  1B7C 0001 9645           move.b     [A5 - 0x69BB], 0x1
00000C24  4EAD 00EA                jsr        [A5 + 0xEA /* export_25, CODE:2 @ 00002A18 */]
00000C28  548F                     addq.l     A7, 2
00000C2A  6000 027C                bra        +0x27E /* 00000EA8 */
00000C2E  3F3C 0002                move.w     -[A7], 0x2
00000C32  4EBA 029E                jsr        [PC + 0x29E /* 00000ED2 */]
00000C36  4878 0001                push.l     0x1
00000C3A  42A7                     clr.l      -[A7]
00000C3C  3F3C 0004                move.w     -[A7], 0x4
00000C40  4EAD 04E2                jsr        [A5 + 0x4E2 /* export_152, CODE:4 @ 00004986 */]
00000C44  3B7C 0003 A55C           move.w     [A5 - 0x5AA4], 0x3
00000C4A  4FEF 000C                lea.l      A7, [A7 + 0xC]
00000C4E  6000 0258                bra        +0x25A /* 00000EA8 */
00000C52  3F3C 0036                move.w     -[A7], 0x36 /* '6' */
00000C56  4EAD 00FA                jsr        [A5 + 0xFA /* export_27, CODE:2 @ 00002A5A */]
00000C5A  3B7C 0005 A568           move.w     [A5 - 0x5A98], 0x5
00000C60  2B7C 0000 00F2 A56C      move.l     [A5 - 0x5A94], 0xF2
00000C68  548F                     addq.l     A7, 2
00000C6A  6000 023C                bra        +0x23E /* 00000EA8 */
00000C6E  2F3C 006A 0001           move.l     -[A7], 0x6A0001
00000C74  2F3C 0001 005C           move.l     -[A7], 0x1005C
00000C7A  3F3C 0004                move.w     -[A7], 0x4
00000C7E  4EAD 04E2                jsr        [A5 + 0x4E2 /* export_152, CODE:4 @ 00004986 */]
00000C82  3B7C 0011 A568           move.w     [A5 - 0x5A98], 0x11
00000C88  4FEF 000A                lea.l      A7, [A7 + 0xA]
00000C8C  6000 021A                bra        +0x21C /* 00000EA8 */
00000C90  4878 0001                push.l     0x1
00000C94  42A7                     clr.l      -[A7]
00000C96  3F3C 0004                move.w     -[A7], 0x4
00000C9A  4EAD 04E2                jsr        [A5 + 0x4E2 /* export_152, CODE:4 @ 00004986 */]
00000C9E  3B7C 0005 A568           move.w     [A5 - 0x5A98], 0x5
00000CA4  2B7C 0000 01F3 A56C      move.l     [A5 - 0x5A94], 0x1F3
00000CAC  4FEF 000A                lea.l      A7, [A7 + 0xA]
00000CB0  6000 01F6                bra        +0x1F8 /* 00000EA8 */
00000CB4  2F3C 007A 0001           move.l     -[A7], 0x7A0001
00000CBA  2F3C 0002 0060           move.l     -[A7], 0x20060
00000CC0  3F3C 0004                move.w     -[A7], 0x4
00000CC4  4EAD 04E2                jsr        [A5 + 0x4E2 /* export_152, CODE:4 @ 00004986 */]
00000CC8  3B7C 0019 A568           move.w     [A5 - 0x5A98], 0x19
00000CCE  4FEF 000A                lea.l      A7, [A7 + 0xA]
00000CD2  6000 01D4                bra        +0x1D6 /* 00000EA8 */
00000CD6  4878 0001                push.l     0x1
00000CDA  42A7                     clr.l      -[A7]
00000CDC  3F3C 0004                move.w     -[A7], 0x4
00000CE0  4EAD 04E2                jsr        [A5 + 0x4E2 /* export_152, CODE:4 @ 00004986 */]
00000CE4  3B7C 000F A568           move.w     [A5 - 0x5A98], 0xF
00000CEA  2B7C 0000 03C8 A56C      move.l     [A5 - 0x5A94], 0x3C8
00000CF2  4FEF 000A                lea.l      A7, [A7 + 0xA]
00000CF6  6000 01B0                bra        +0x1B2 /* 00000EA8 */
00000CFA  2F3C 006B 0001           move.l     -[A7], 0x6B0001
00000D00  2F3C 0003 0017           move.l     -[A7], 0x30017
00000D06  3F3C 0004                move.w     -[A7], 0x4
00000D0A  4EAD 04E2                jsr        [A5 + 0x4E2 /* export_152, CODE:4 @ 00004986 */]
00000D0E  2EBC 00B8 0001           move.l     [A7], 0xB80001
00000D14  2F3C 0004 0028           move.l     -[A7], 0x40028
00000D1A  3F3C 0004                move.w     -[A7], 0x4
00000D1E  4EAD 04E2                jsr        [A5 + 0x4E2 /* export_152, CODE:4 @ 00004986 */]
00000D22  3B7C 0023 A568           move.w     [A5 - 0x5A98], 0x23 /* '#' */
00000D28  1B7C 0001 A56A           move.b     [A5 - 0x5A96], 0x1
00000D2E  4FEF 0010                lea.l      A7, [A7 + 0x10]
00000D32  6000 0174                bra        +0x176 /* 00000EA8 */
00000D36  3F3C 0017                move.w     -[A7], 0x17
00000D3A  4EBA 0196                jsr        [PC + 0x196 /* 00000ED2 */]
00000D3E  2F3C 0019 0001           move.l     -[A7], 0x190001
00000D44  2F3C 0001 0018           move.l     -[A7], 0x10018
00000D4A  3F3C 0003                move.w     -[A7], 0x3
00000D4E  4EAD 04E2                jsr        [A5 + 0x4E2 /* export_152, CODE:4 @ 00004986 */]
00000D52  3B7C 0007 A55C           move.w     [A5 - 0x5AA4], 0x7
00000D58  4FEF 000C                lea.l      A7, [A7 + 0xC]
00000D5C  6000 014A                bra        +0x14C /* 00000EA8 */
00000D60  3F3C 0037                move.w     -[A7], 0x37 /* '7' */
00000D64  4EAD 00FA                jsr        [A5 + 0xFA /* export_27, CODE:2 @ 00002A5A */]
00000D68  3B7C 004B A568           move.w     [A5 - 0x5A98], 0x4B /* 'K' */
00000D6E  1B7C 0001 A56A           move.b     [A5 - 0x5A96], 0x1
00000D74  548F                     addq.l     A7, 2
00000D76  6000 0130                bra        +0x132 /* 00000EA8 */
00000D7A  486D 0242                pea.l      [A5 + 0x242 /* export_68, CODE:3 @ 000022C8 */]
00000D7E  4267                     clr.w      -[A7]
00000D80  4EBA 1A24                jsr        [PC + 0x1A24 /* 000027A6 */]
00000D84  5C8F                     addq.l     A7, 6
00000D86  6000 0120                bra        +0x122 /* 00000EA8 */
00000D8A  4EBA 017C                jsr        [PC + 0x17C /* 00000F08 */]
00000D8E  3F3C 0034                move.w     -[A7], 0x34 /* '4' */
00000D92  4EAD 00DA                jsr        [A5 + 0xDA /* export_23, CODE:2 @ 0000289C */]
00000D96  1B7C 0001 9645           move.b     [A5 - 0x69BB], 0x1
00000D9C  4EAD 00EA                jsr        [A5 + 0xEA /* export_25, CODE:2 @ 00002A18 */]
00000DA0  548F                     addq.l     A7, 2
00000DA2  6000 0104                bra        +0x106 /* 00000EA8 */
00000DA6  3F3C 0017                move.w     -[A7], 0x17
00000DAA  4EBA 0126                jsr        [PC + 0x126 /* 00000ED2 */]
00000DAE  2F3C 0019 0001           move.l     -[A7], 0x190001
00000DB4  2F3C 0002 0018           move.l     -[A7], 0x20018
00000DBA  3F3C 0003                move.w     -[A7], 0x3
00000DBE  4EAD 04E2                jsr        [A5 + 0x4E2 /* export_152, CODE:4 @ 00004986 */]
00000DC2  3B7C 0003 A55C           move.w     [A5 - 0x5AA4], 0x3
00000DC8  4FEF 000C                lea.l      A7, [A7 + 0xC]
00000DCC  6000 00DA                bra        +0xDC /* 00000EA8 */
00000DD0  3F3C 0034                move.w     -[A7], 0x34 /* '4' */
00000DD4  4EAD 00FA                jsr        [A5 + 0xFA /* export_27, CODE:2 @ 00002A5A */]
00000DD8  3B7C 0064 A568           move.w     [A5 - 0x5A98], 0x64 /* 'd' */
00000DDE  1B7C 0001 A56A           move.b     [A5 - 0x5A96], 0x1
00000DE4  548F                     addq.l     A7, 2
00000DE6  6000 00C0                bra        +0xC2 /* 00000EA8 */
00000DEA  4878 0001                push.l     0x1
00000DEE  42A7                     clr.l      -[A7]
00000DF0  3F3C 0004                move.w     -[A7], 0x4
00000DF4  4EAD 04E2                jsr        [A5 + 0x4E2 /* export_152, CODE:4 @ 00004986 */]
00000DF8  2EBC 006B 0001           move.l     [A7], 0x6B0001
00000DFE  2F3C 0003 0017           move.l     -[A7], 0x30017
00000E04  3F3C 0004                move.w     -[A7], 0x4
00000E08  4EAD 04E2                jsr        [A5 + 0x4E2 /* export_152, CODE:4 @ 00004986 */]
00000E0C  2EBC 00B8 0001           move.l     [A7], 0xB80001
00000E12  2F3C 0004 0028           move.l     -[A7], 0x40028
00000E18  3F3C 0004                move.w     -[A7], 0x4
00000E1C  4EAD 04E2                jsr        [A5 + 0x4E2 /* export_152, CODE:4 @ 00004986 */]
00000E20  3B7C 0002 A55C           move.w     [A5 - 0x5AA4], 0x2
00000E26  3B7C 003C A568           move.w     [A5 - 0x5A98], 0x3C /* '<' */
00000E2C  4FEF 0016                lea.l      A7, [A7 + 0x16]
00000E30  6076                     bra        +0x78 /* 00000EA8 */
00000E32  3F3C 001B                move.w     -[A7], 0x1B
00000E36  4EBA 009A                jsr        [PC + 0x9A /* 00000ED2 */]
00000E3A  2F3C 001A 0001           move.l     -[A7], 0x1A0001
00000E40  2F3C 0004 0018           move.l     -[A7], 0x40018
00000E46  3F3C 0003                move.w     -[A7], 0x3
00000E4A  4EAD 04E2                jsr        [A5 + 0x4E2 /* export_152, CODE:4 @ 00004986 */]
00000E4E  3B7C 0009 A55C           move.w     [A5 - 0x5AA4], 0x9 /* '\t' */
00000E54  3B7C 002D A568           move.w     [A5 - 0x5A98], 0x2D /* '-' */
00000E5A  4FEF 000C                lea.l      A7, [A7 + 0xC]
00000E5E  6048                     bra        +0x4A /* 00000EA8 */
00000E60  4A6D A558                tst.w      [A5 - 0x5AA8]
00000E64  6642                     bne        +0x44 /* 00000EA8 */
00000E66  526D A566                addq.w     [A5 - 0x5A9A], 1
00000E6A  603C                     bra        +0x3E /* 00000EA8 */
00000E6C  3F3C 001B                move.w     -[A7], 0x1B
00000E70  4EBA 0060                jsr        [PC + 0x60 /* 00000ED2 */]
00000E74  2F3C 0014 0001           move.l     -[A7], 0x140001
00000E7A  2F3C 0003 0017           move.l     -[A7], 0x30017
00000E80  3F3C 0004                move.w     -[A7], 0x4
00000E84  4EAD 04E2                jsr        [A5 + 0x4E2 /* export_152, CODE:4 @ 00004986 */]
00000E88  4EBA 1C84                jsr        [PC + 0x1C84 /* 00002B0E */]
00000E8C  3B7C 0009 A55C           move.w     [A5 - 0x5AA4], 0x9 /* '\t' */
00000E92  3B7C 0032 A568           move.w     [A5 - 0x5A98], 0x32 /* '2' */
00000E98  4FEF 000C                lea.l      A7, [A7 + 0xC]
00000E9C  600A                     bra        +0xC /* 00000EA8 */
00000E9E  4EBA 0092                jsr        [PC + 0x92 /* 00000F32 */]
00000EA2  6004                     bra        +0x6 /* 00000EA8 */
label00000EA4:
00000EA4  426D A566                clr.w      [A5 - 0x5A9A]
label00000EA8:
00000EA8  4E75                     rts
00000EAA  FD60                     .extension 0xD60 <<F/4-5/6>> // unimplemented
00000EAC  FD84                     .invalid   <<F/6/6>>
00000EAE  FDA8                     .invalid   <<F/6/6>>
00000EB0  FDC4                     .invalid   <<F/7/6>>
00000EB2  FDE6                     .invalid   <<F/7/6>>
00000EB4  FE0A FE2C                .unknown   0xFE0A 0xFE2C (W = 7)
00000EB8  FE50 FE8C                .extension 0xE50 <<F/1/7>>, 0xFE8C // unimplemented
00000EBC  FEB6 FED0                .extension 0xEB6 <<F/2-3/7>> // unimplemented
00000EC0  FEE0 FEFC                .extension 0xEE0 <<F/2-3/7>> // unimplemented
00000EC4  FF26                     .extension 0xF26 <<F/4-5/7>> // unimplemented
00000EC6  FF40                     .extension 0xF40 <<F/4-5/7>> // unimplemented
00000EC8  FF88                     .invalid   <<F/6/7>>
00000ECA  FFB6                     .invalid   <<F/6/7>>
00000ECC  FFC2                     .invalid   <<F/7/7>>
00000ECE  FFF4                     .invalid   <<F/7/7>>
00000ED0  4E75                     rts
fn00000ED2:
00000ED2  4E56 0000                link       A6, 0
00000ED6  4878 0001                push.l     0x1
00000EDA  2F3C 0001 0000           move.l     -[A7], 0x10000
00000EE0  3F3C 0003                move.w     -[A7], 0x3
00000EE4  4EAD 011A                jsr        [A5 + 0x11A /* export_31, CODE:2 @ 00002F40 */]
00000EE8  1EAE 0009                move.b     [A7], [A6 + 0x9]
00000EEC  486D A5F4                pea.l      [A5 - 0x5A0C]
00000EF0  206D A3E2                movea.l    A0, [A5 - 0x5C1E]
00000EF4  4E90                     jsr        [A0]
00000EF6  7001                     moveq.l    D0, 0x01
00000EF8  2E80                     move.l     [A7], D0
00000EFA  42A7                     clr.l      -[A7]
00000EFC  3F3C 0003                move.w     -[A7], 0x3
00000F00  4EAD 04E2                jsr        [A5 + 0x4E2 /* export_152, CODE:4 @ 00004986 */]
00000F04  4E5E                     unlink     A6
00000F06  4E75                     rts
fn00000F08:
00000F08  2F3C 0003 0028           move.l     -[A7], 0x30028
00000F0E  4EBA F952                jsr        [PC - 0x6AE /* 00000862 */]
00000F12  2EBC 0004 0032           move.l     [A7], 0x40032
00000F18  4EBA F948                jsr        [PC - 0x6B8 /* 00000862 */]
00000F1C  3B7C 0001 F228           move.w     [A5 - 0xDD8], 0x1
00000F22  2B6D A5C4 A2E4           move.l     [A5 - 0x5D1C], [A5 - 0x5A3C]
00000F28  2B6D A5C8 A2E8           move.l     [A5 - 0x5D18], [A5 - 0x5A38]
00000F2E  588F                     addq.l     A7, 4
00000F30  4E75                     rts
fn00000F32:
00000F32  4EAD 0102                jsr        [A5 + 0x102 /* export_28, CODE:2 @ 00002B1C */]
00000F36  4EAD 00F2                jsr        [A5 + 0xF2 /* export_26, CODE:2 @ 00002A46 */]
00000F3A  4EBA 0034                jsr        [PC + 0x34 /* 00000F70 */]
00000F3E  3F3C 0003                move.w     -[A7], 0x3
00000F42  4EBA FA76                jsr        [PC - 0x58A /* 000009BA */]
00000F46  426D F228                clr.w      [A5 - 0xDD8]
00000F4A  548F                     addq.l     A7, 2
00000F4C  4E75                     rts
export_119:
fn00000F4E:
00000F4E  4EAD 0102                jsr        [A5 + 0x102 /* export_28, CODE:2 @ 00002B1C */]
00000F52  4EAD 00F2                jsr        [A5 + 0xF2 /* export_26, CODE:2 @ 00002A46 */]
00000F56  4EBA 0018                jsr        [PC + 0x18 /* 00000F70 */]
00000F5A  3F3C 0003                move.w     -[A7], 0x3
00000F5E  4EBA FA5A                jsr        [PC - 0x5A6 /* 000009BA */]
00000F62  3B7C FFFF A90C           move.w     [A5 - 0x56F4], 0xFFFF
00000F68  422D A5BE                clr.b      [A5 - 0x5A42]
00000F6C  548F                     addq.l     A7, 2
00000F6E  4E75                     rts
fn00000F70:
00000F70  2F07                     move.l     -[A7], D7
00000F72  7E2C                     moveq.l    D7, 0x2C
00000F74  600A                     bra        +0xC /* 00000F80 */
label00000F76:
00000F76  3F07                     move.w     -[A7], D7
00000F78  4EAD 00E2                jsr        [A5 + 0xE2 /* export_24, CODE:2 @ 0000296A */]
00000F7C  548F                     addq.l     A7, 2
00000F7E  5247                     addq.w     D7, 1
label00000F80:
00000F80  0C47 003A                cmpi.w     D7, 0x3A /* ':' */
00000F84  6DF0                     blt        -0xE /* 00000F76 */
00000F86  2E1F                     move.l     D7, [A7]+
00000F88  4E75                     rts
fn00000F8A:
00000F8A  4EBA FFE4                jsr        [PC - 0x1C /* 00000F70 */]
00000F8E  3F3C 0003                move.w     -[A7], 0x3
00000F92  4EBA FA26                jsr        [PC - 0x5DA /* 000009BA */]
00000F96  548F                     addq.l     A7, 2
00000F98  4E75                     rts
fn00000F9A:
00000F9A  48E7 0318                movem.l    -[A7], D6,D7,A3,A4
00000F9E  4A2D A20F                tst.b      [A5 - 0x5DF1]
00000FA2  6700 0120                beq        +0x122 /* 000010C4 */
00000FA6  206D A232                movea.l    A0, [A5 - 0x5DCE]
00000FAA  7008                     moveq.l    D0, 0x08
00000FAC  D090                     add.l      D0, [A0]
00000FAE  2840                     movea.l    A4, D0
00000FB0  226D A258                movea.l    A1, [A5 - 0x5DA8]
00000FB4  7008                     moveq.l    D0, 0x08
00000FB6  D091                     add.l      D0, [A1]
00000FB8  2640                     movea.l    A3, D0
00000FBA  7E00                     moveq.l    D7, 0x00
00000FBC  6000 00EA                bra        +0xEC /* 000010A8 */
label00000FC0:
00000FC0  3F3C 0063                move.w     -[A7], 0x63 /* 'c' */
00000FC4  4EAD 0072                jsr        [A5 + 0x72 /* export_10, CODE:2 @ 0000223A */]
00000FC8  3C00                     move.w     D6, D0
00000FCA  0C47 0002                cmpi.w     D7, 0x2
00000FCE  548F                     addq.l     A7, 2
00000FD0  6E00 0092                bgt        +0x94 /* 00001064 */
00000FD4  0C46 005C                cmpi.w     D6, 0x5C /* '\\' */
00000FD8  6C64                     bge        +0x66 /* 0000103E */
00000FDA  3F3C 0063                move.w     -[A7], 0x63 /* 'c' */
00000FDE  4EAD 0072                jsr        [A5 + 0x72 /* export_10, CODE:2 @ 0000223A */]
00000FE2  3C00                     move.w     D6, D0
00000FE4  0C46 000A                cmpi.w     D6, 0xA /* '\n' */
00000FE8  548F                     addq.l     A7, 2
00000FEA  6C1A                     bge        +0x1C /* 00001006 */
00000FEC  204C                     movea.l    A0, A4
00000FEE  2007                     move.l     D0, D7
00000FF0  48C0                     ext.l      D0
00000FF2  E788                     lsl        D0, 3
00000FF4  D1C0                     add.l      A0, D0
00000FF6  216C 002A 0622           move.l     [A0 + 0x622], [A4 + 0x2A]
00000FFC  316C 002E 0626           move.w     [A0 + 0x626], [A4 + 0x2E]
00001002  6000 00A2                bra        +0xA4 /* 000010A6 */
label00001006:
00001006  0C46 0028                cmpi.w     D6, 0x28 /* '(' */
0000100A  6C1A                     bge        +0x1C /* 00001026 */
0000100C  204C                     movea.l    A0, A4
0000100E  2007                     move.l     D0, D7
00001010  48C0                     ext.l      D0
00001012  E788                     lsl        D0, 3
00001014  D1C0                     add.l      A0, D0
00001016  216C 0032 0622           move.l     [A0 + 0x622], [A4 + 0x32]
0000101C  316C 0036 0626           move.w     [A0 + 0x626], [A4 + 0x36]
00001022  6000 0082                bra        +0x84 /* 000010A6 */
label00001026:
00001026  204C                     movea.l    A0, A4
00001028  2007                     move.l     D0, D7
0000102A  48C0                     ext.l      D0
0000102C  E788                     lsl        D0, 3
0000102E  D1C0                     add.l      A0, D0
00001030  216C 003A 0622           move.l     [A0 + 0x622], [A4 + 0x3A]
00001036  316C 003E 0626           move.w     [A0 + 0x626], [A4 + 0x3E]
0000103C  6068                     bra        +0x6A /* 000010A6 */
label0000103E:
0000103E  3F3C 0002                move.w     -[A7], 0x2
00001042  4EAD 0072                jsr        [A5 + 0x72 /* export_10, CODE:2 @ 0000223A */]
00001046  48C0                     ext.l      D0
00001048  E788                     lsl        D0, 3
0000104A  204C                     movea.l    A0, A4
0000104C  2207                     move.l     D1, D7
0000104E  48C1                     ext.l      D1
00001050  E789                     lsl        D1, 3
00001052  D1C1                     add.l      A0, D1
00001054  2173 0802 0622           move.l     [A0 + 0x622], [A3 + D0 + 0x2]
0000105A  3173 0806 0626           move.w     [A0 + 0x626], [A3 + D0 + 0x6]
00001060  548F                     addq.l     A7, 2
00001062  6042                     bra        +0x44 /* 000010A6 */
label00001064:
00001064  0C46 0063                cmpi.w     D6, 0x63 /* 'c' */
00001068  6C18                     bge        +0x1A /* 00001082 */
0000106A  204C                     movea.l    A0, A4
0000106C  2007                     move.l     D0, D7
0000106E  48C0                     ext.l      D0
00001070  E788                     lsl        D0, 3
00001072  D1C0                     add.l      A0, D0
00001074  216C 0012 0622           move.l     [A0 + 0x622], [A4 + 0x12]
0000107A  316C 0016 0626           move.w     [A0 + 0x626], [A4 + 0x16]
00001080  6024                     bra        +0x26 /* 000010A6 */
label00001082:
00001082  3F3C 0001                move.w     -[A7], 0x1
00001086  4EAD 0072                jsr        [A5 + 0x72 /* export_10, CODE:2 @ 0000223A */]
0000108A  48C0                     ext.l      D0
0000108C  E788                     lsl        D0, 3
0000108E  204C                     movea.l    A0, A4
00001090  2207                     move.l     D1, D7
00001092  48C1                     ext.l      D1
00001094  E789                     lsl        D1, 3
00001096  D1C1                     add.l      A0, D1
00001098  2173 081A 0622           move.l     [A0 + 0x622], [A3 + D0 + 0x1A]
0000109E  3173 081E 0626           move.w     [A0 + 0x626], [A3 + D0 + 0x1E]
000010A4  548F                     addq.l     A7, 2
label000010A6:
000010A6  5247                     addq.w     D7, 1
label000010A8:
000010A8  0C47 0005                cmpi.w     D7, 0x5
000010AC  6D00 FF12                blt        -0xEC /* 00000FC0 */
000010B0  2F2D A212                move.l     -[A7], [A5 - 0x5DEE]
000010B4  2F2D A232                move.l     -[A7], [A5 - 0x5DCE]
000010B8  2F3C 00C4 00C4           move.l     -[A7], 0xC400C4
000010BE  3F3C 0005                move.w     -[A7], 0x5
000010C2  AA9A                     syscall    AnimatePalette
label000010C4:
000010C4  4CDF 18C0                movem.l    D6,D7,A3,A4, [A7]+
000010C8  4E75                     rts
export_53:
000010CA  4E56 0000                link       A6, 0
000010CE  426D BA86                clr.w      [A5 - 0x457A]
000010D2  426D BA90                clr.w      [A5 - 0x4570]
000010D6  426D BA42                clr.w      [A5 - 0x45BE]
000010DA  426D BA32                clr.w      [A5 - 0x45CE]
000010DE  4A6D B93E                tst.w      [A5 - 0x46C2]
000010E2  6706                     beq        +0x8 /* 000010EA */
000010E4  426D B93E                clr.w      [A5 - 0x46C2]
000010E8  601A                     bra        +0x1C /* 00001104 */
label000010EA:
000010EA  3B7C 003C BA8C           move.w     [A5 - 0x4574], 0x3C /* '<' */
000010F0  3B7C 02CF BA80           move.w     [A5 - 0x4580], 0x2CF
000010F6  3B7C 0003 BA46           move.w     [A5 - 0x45BA], 0x3
000010FC  426D 9636                clr.w      [A5 - 0x69CA]
00001100  426D 9634                clr.w      [A5 - 0x69CC]
label00001104:
00001104  4A6E 0008                tst.w      [A6 + 0x8]
00001108  6606                     bne        +0x8 /* 00001110 */
0000110A  3B7C 0004 BA46           move.w     [A5 - 0x45BA], 0x4
label00001110:
00001110  42AD 9638                clr.l      [A5 - 0x69C8]
00001114  0C6E 0001 0008           cmpi.w     [A6 + 0x8], 0x1
0000111A  6608                     bne        +0xA /* 00001124 */
0000111C  3B7C 0001 BA98           move.w     [A5 - 0x4568], 0x1
00001122  6004                     bra        +0x6 /* 00001128 */
label00001124:
00001124  426D BA98                clr.w      [A5 - 0x4568]
label00001128:
00001128  4E5E                     unlink     A6
0000112A  4E75                     rts
export_54:
0000112C  4E56 0000                link       A6, 0
00001130  2F07                     move.l     -[A7], D7
00001132  3E2E 0008                move.w     D7, [A6 + 0x8]
00001136  3F07                     move.w     -[A7], D7
00001138  4EBA F148                jsr        [PC - 0xEB8 /* 00000282 */]
0000113C  4EBA F266                jsr        [PC - 0xD9A /* 000003A4 */]
00001140  4EBA 074E                jsr        [PC + 0x74E /* 00001890 */]
00001144  4EAD 03F2                jsr        [A5 + 0x3F2 /* export_122, CODE:4 @ 000015DE */]
00001148  4EBA 3CFE                jsr        [PC + 0x3CFE /* 00004E48 */]
0000114C  426D BA2C                clr.w      [A5 - 0x45D4]
00001150  426D BA4C                clr.w      [A5 - 0x45B4]
00001154  426D BA52                clr.w      [A5 - 0x45AE]
00001158  426D BA50                clr.w      [A5 - 0x45B0]
0000115C  426D BA5C                clr.w      [A5 - 0x45A4]
00001160  426D BA5A                clr.w      [A5 - 0x45A6]
00001164  426D BA26                clr.w      [A5 - 0x45DA]
00001168  426D BA54                clr.w      [A5 - 0x45AC]
0000116C  426D BA24                clr.w      [A5 - 0x45DC]
00001170  426D BA8E                clr.w      [A5 - 0x4572]
00001174  426D BA1A                clr.w      [A5 - 0x45E6]
00001178  426D BA3C                clr.w      [A5 - 0x45C4]
0000117C  426D BA3A                clr.w      [A5 - 0x45C6]
00001180  426D BA82                clr.w      [A5 - 0x457E]
00001184  426D BA6A                clr.w      [A5 - 0x4596]
00001188  426D BCEA                clr.w      [A5 - 0x4316]
0000118C  426D BC6C                clr.w      [A5 - 0x4394]
00001190  3B7C FFFF A90E           move.w     [A5 - 0x56F2], 0xFFFF
00001196  1B7C 0002 B987           move.b     [A5 - 0x4679], 0x2
0000119C  1B7C 0056 B97F           move.b     [A5 - 0x4681], 0x56 /* 'V' */
000011A2  4EBA 0034                jsr        [PC + 0x34 /* 000011D8 */]
000011A6  0C47 0001                cmpi.w     D7, 0x1
000011AA  548F                     addq.l     A7, 2
000011AC  6708                     beq        +0xA /* 000011B6 */
000011AE  3B7C 0001 BA28           move.w     [A5 - 0x45D8], 0x1
000011B4  6004                     bra        +0x6 /* 000011BA */
label000011B6:
000011B6  426D BA28                clr.w      [A5 - 0x45D8]
label000011BA:
000011BA  0C47 0003                cmpi.w     D7, 0x3
000011BE  670A                     beq        +0xC /* 000011CA */
000011C0  0C47 000F                cmpi.w     D7, 0xF
000011C4  6704                     beq        +0x6 /* 000011CA */
000011C6  426D BA40                clr.w      [A5 - 0x45C0]
label000011CA:
000011CA  4EBA 0158                jsr        [PC + 0x158 /* 00001324 */]
000011CE  4EBA 019A                jsr        [PC + 0x19A /* 0000136A */]
000011D2  2E1F                     move.l     D7, [A7]+
000011D4  4E5E                     unlink     A6
000011D6  4E75                     rts
fn000011D8:
000011D8  0C6D 0003 A90C           cmpi.w     [A5 - 0x56F4], 0x3
000011DE  6636                     bne        +0x38 /* 00001216 */
000011E0  4A6D BA40                tst.w      [A5 - 0x45C0]
000011E4  6730                     beq        +0x32 /* 00001216 */
000011E6  1B7C 0002 F15E           move.b     [A5 - 0xEA2], 0x2
000011EC  1B7C 0006 F15F           move.b     [A5 - 0xEA1], 0x6
000011F2  1B7C 00FF F160           move.b     [A5 - 0xEA0], 0xFF
000011F8  2F3C 0004 0000           move.l     -[A7], 0x40000
000011FE  3F3C 0007                move.w     -[A7], 0x7
00001202  4EBA 2D6A                jsr        [PC + 0x2D6A /* 00003F6E */]
00001206  7000                     moveq.l    D0, 0x00
00001208  102D BAE9                move.b     D0, [A5 - 0x4517]
0000120C  D0AD BD82                add.l      D0, [A5 - 0x427E]
00001210  2040                     movea.l    A0, D0
00001212  4210                     clr.b      [A0]
00001214  5C8F                     addq.l     A7, 6
label00001216:
00001216  102D F15E                move.b     D0, [A5 - 0xEA2]
0000121A  1B40 B94F                move.b     [A5 - 0x46B1], D0
0000121E  4880                     ext.w      D0
00001220  3B40 BA7C                move.w     [A5 - 0x4584], D0
00001224  7200                     moveq.l    D1, 0x00
00001226  122D F15F                move.b     D1, [A5 - 0xEA1]
0000122A  83FC 000A                divs.w     D1, 0xA /* '\n' */
0000122E  4841                     swap.w     D1
00001230  1B41 B94A                move.b     [A5 - 0x46B6], D1
00001234  7200                     moveq.l    D1, 0x00
00001236  122D F15F                move.b     D1, [A5 - 0xEA1]
0000123A  83FC 000A                divs.w     D1, 0xA /* '\n' */
0000123E  1B41 B94B                move.b     [A5 - 0x46B5], D1
00001242  122D B94A                move.b     D1, [A5 - 0x46B6]
00001246  4881                     ext.w      D1
00001248  204D                     movea.l    A0, A5
0000124A  D0C1                     add.w      A0, D1
0000124C  7207                     moveq.l    D1, 0x07
0000124E  D228 B87D                add.b      D1, [A0 - 0x4783]
00001252  5E01                     addq.b     D1, 7
00001254  1B41 B947                move.b     [A5 - 0x46B9], D1
00001258  122D F160                move.b     D1, [A5 - 0xEA0]
0000125C  4601                     not.b      D1
0000125E  1B41 B949                move.b     [A5 - 0x46B7], D1
00001262  4A6D BA22                tst.w      [A5 - 0x45DE]
00001266  660C                     bne        +0xE /* 00001274 */
00001268  302D BA46                move.w     D0, [A5 - 0x45BA]
0000126C  3B40 BA4A                move.w     [A5 - 0x45B6], D0
00001270  3B40 BA48                move.w     [A5 - 0x45B8], D0
label00001274:
00001274  0C6D 0001 A90C           cmpi.w     [A5 - 0x56F4], 0x1
0000127A  6620                     bne        +0x22 /* 0000129C */
0000127C  2F3C 0002 0000           move.l     -[A7], 0x20000
00001282  3F3C 0005                move.w     -[A7], 0x5
00001286  4EBA 2CE6                jsr        [PC + 0x2CE6 /* 00003F6E */]
0000128A  4297                     clr.l      [A7]
0000128C  4EAD 0472                jsr        [A5 + 0x472 /* export_138, CODE:4 @ 000027A2 */]
00001290  3EBC 0007                move.w     [A7], 0x7
00001294  4EAD 0552                jsr        [A5 + 0x552 /* export_166, CODE:4 @ 00000000 */]
00001298  5C8F                     addq.l     A7, 6
0000129A  601E                     bra        +0x20 /* 000012BA */
label0000129C:
0000129C  0C6D 000D A90C           cmpi.w     [A5 - 0x56F4], 0xD /* '\r' */
000012A2  660C                     bne        +0xE /* 000012B0 */
000012A4  3F3C 0054                move.w     -[A7], 0x54 /* 'T' */
000012A8  4EAD 0552                jsr        [A5 + 0x552 /* export_166, CODE:4 @ 00000000 */]
000012AC  548F                     addq.l     A7, 2
000012AE  600A                     bra        +0xC /* 000012BA */
label000012B0:
000012B0  3F3C 0005                move.w     -[A7], 0x5
000012B4  4EAD 0552                jsr        [A5 + 0x552 /* export_166, CODE:4 @ 00000000 */]
000012B8  548F                     addq.l     A7, 2
label000012BA:
000012BA  4EBA 0004                jsr        [PC + 0x4 /* 000012C0 */]
000012BE  4E75                     rts
fn000012C0:
000012C0  422D B951                clr.b      [A5 - 0x46AF]
000012C4  102D B94B                move.b     D0, [A5 - 0x46B5]
000012C8  4880                     ext.w      D0
000012CA  204D                     movea.l    A0, A5
000012CC  D0C0                     add.w      A0, D0
000012CE  D0C0                     add.w      A0, D0
000012D0  1B68 B671 B948           move.b     [A5 - 0x46B8], [A0 - 0x498F]
000012D6  1B7C 00FF B953           move.b     [A5 - 0x46AD], 0xFF
000012DC  422D B952                clr.b      [A5 - 0x46AE]
000012E0  422D B94E                clr.b      [A5 - 0x46B2]
000012E4  422D B94D                clr.b      [A5 - 0x46B3]
000012E8  426D BA36                clr.w      [A5 - 0x45CA]
000012EC  426D BA34                clr.w      [A5 - 0x45CC]
000012F0  426D BA58                clr.w      [A5 - 0x45A8]
000012F4  426D BA1C                clr.w      [A5 - 0x45E4]
000012F8  426D BA30                clr.w      [A5 - 0x45D0]
000012FC  426D BA2E                clr.w      [A5 - 0x45D2]
00001300  4EBA 2F44                jsr        [PC + 0x2F44 /* 00004246 */]
00001304  0C6D 0007 A90C           cmpi.w     [A5 - 0x56F4], 0x7
0000130A  6612                     bne        +0x14 /* 0000131E */
0000130C  0C2D 0011 B94F           cmpi.b     [A5 - 0x46B1], 0x11
00001312  660A                     bne        +0xC /* 0000131E */
00001314  3F3C 0003                move.w     -[A7], 0x3
00001318  4EBA 1E54                jsr        [PC + 0x1E54 /* 0000316E */]
0000131C  548F                     addq.l     A7, 2
label0000131E:
0000131E  4EBA 3170                jsr        [PC + 0x3170 /* 00004490 */]
00001322  4E75                     rts
fn00001324:
00001324  2F07                     move.l     -[A7], D7
00001326  102D B973                move.b     D0, [A5 - 0x468D]
0000132A  4880                     ext.w      D0
0000132C  3F00                     move.w     -[A7], D0
0000132E  4EAD 0512                jsr        [A5 + 0x512 /* export_158, CODE:4 @ 0000519E */]
00001332  7E00                     moveq.l    D7, 0x00
00001334  548F                     addq.l     A7, 2
00001336  6028                     bra        +0x2A /* 00001360 */
label00001338:
00001338  206D BD82                movea.l    A0, [A5 - 0x427E]
0000133C  7000                     moveq.l    D0, 0x00
0000133E  1030 7000                move.b     D0, [A0 + D7.w]
00001342  0240 001F                andi.w     D0, 0x1F
00001346  0C40 0010                cmpi.w     D0, 0x10
0000134A  6612                     bne        +0x14 /* 0000135E */
0000134C  3F07                     move.w     -[A7], D7
0000134E  102D B973                move.b     D0, [A5 - 0x468D]
00001352  4880                     ext.w      D0
00001354  3F00                     move.w     -[A7], D0
00001356  4EAD 0482                jsr        [A5 + 0x482 /* export_140, CODE:4 @ 000028E2 */]
0000135A  588F                     addq.l     A7, 4
0000135C  6008                     bra        +0xA /* 00001366 */
label0000135E:
0000135E  5247                     addq.w     D7, 1
label00001360:
00001360  0C47 001E                cmpi.w     D7, 0x1E
00001364  6DD2                     blt        -0x2C /* 00001338 */
label00001366:
00001366  2E1F                     move.l     D7, [A7]+
00001368  4E75                     rts
fn0000136A:
0000136A  426D BA32                clr.w      [A5 - 0x45CE]
0000136E  102D B973                move.b     D0, [A5 - 0x468D]
00001372  4880                     ext.w      D0
00001374  3B40 BA7C                move.w     [A5 - 0x4584], D0
00001378  4EBA F17C                jsr        [PC - 0xE84 /* 000004F6 */]
0000137C  3F3C 0001                move.w     -[A7], 0x1
00001380  4EBA 0032                jsr        [PC + 0x32 /* 000013B4 */]
00001384  1EBC 0001                move.b     [A7], 0x1
00001388  486D A5D4                pea.l      [A5 - 0x5A2C]
0000138C  206D A3E2                movea.l    A0, [A5 - 0x5C1E]
00001390  4E90                     jsr        [A0]
00001392  4EAD 053A                jsr        [A5 + 0x53A /* export_163, CODE:4 @ 00005ADC */]
00001396  3EAD BA48                move.w     [A7], [A5 - 0x45B8]
0000139A  3F2D BA4A                move.w     -[A7], [A5 - 0x45B6]
0000139E  4EBA F1E4                jsr        [PC - 0xE1C /* 00000584 */]
000013A2  3EAD BA4E                move.w     [A7], [A5 - 0x45B2]
000013A6  3F2D BA4C                move.w     -[A7], [A5 - 0x45B4]
000013AA  4EBA F268                jsr        [PC - 0xD98 /* 00000614 */]
000013AE  4FEF 000A                lea.l      A7, [A7 + 0xA]
000013B2  4E75                     rts
fn000013B4:
000013B4  4E56 0000                link       A6, 0
000013B8  2F3C 0001 FF00           move.l     -[A7], 0x1FF00
000013BE  4EAD 0092                jsr        [A5 + 0x92 /* export_14, CODE:2 @ 000023C0 */]
000013C2  3B7C 0001 A55C           move.w     [A5 - 0x5AA4], 0x1
000013C8  4A6E 0008                tst.w      [A6 + 0x8]
000013CC  588F                     addq.l     A7, 4
000013CE  6716                     beq        +0x18 /* 000013E6 */
000013D0  486D A5C4                pea.l      [A5 - 0x5A3C]
000013D4  A8A2                     syscall    PaintRect
000013D6  1F3C 0002                move.b     -[A7], 0x2
000013DA  486D A5CC                pea.l      [A5 - 0x5A34]
000013DE  206D A3E2                movea.l    A0, [A5 - 0x5C1E]
000013E2  4E90                     jsr        [A0]
000013E4  5C8F                     addq.l     A7, 6
label000013E6:
000013E6  426D BA7E                clr.w      [A5 - 0x4582]
000013EA  4A6D BAA8                tst.w      [A5 - 0x4558]
000013EE  6710                     beq        +0x12 /* 00001400 */
000013F0  4267                     clr.w      -[A7]
000013F2  3F2D BAA6                move.w     -[A7], [A5 - 0x455A]
000013F6  4EAD 009A                jsr        [A5 + 0x9A /* export_15, CODE:2 @ 000024C0 */]
000013FA  426D BAA8                clr.w      [A5 - 0x4558]
000013FE  588F                     addq.l     A7, 4
label00001400:
00001400  4A2D B944                tst.b      [A5 - 0x46BC]
00001404  6704                     beq        +0x6 /* 0000140A */
00001406  4EBA F766                jsr        [PC - 0x89A /* 00000B6E */]
label0000140A:
0000140A  2B6D A5CC A2E4           move.l     [A5 - 0x5D1C], [A5 - 0x5A34]
00001410  2B6D A5D0 A2E8           move.l     [A5 - 0x5D18], [A5 - 0x5A30]
00001416  426D F228                clr.w      [A5 - 0xDD8]
0000141A  4EAD 04BA                jsr        [A5 + 0x4BA /* export_147, CODE:4 @ 00003224 */]
0000141E  4EAD 0112                jsr        [A5 + 0x112 /* export_30, CODE:2 @ 00002C0A */]
00001422  3B7C 0001 B93C           move.w     [A5 - 0x46C4], 0x1
00001428  4EAD 0502                jsr        [A5 + 0x502 /* export_156, CODE:4 @ 00004FF2 */]
0000142C  426D B93C                clr.w      [A5 - 0x46C4]
00001430  4EAD 0112                jsr        [A5 + 0x112 /* export_30, CODE:2 @ 00002C0A */]
00001434  4EBA 0782                jsr        [PC + 0x782 /* 00001BB8 */]
00001438  4EAD 04F2                jsr        [A5 + 0x4F2 /* export_154, CODE:4 @ 00004EF6 */]
0000143C  4EAD 0502                jsr        [A5 + 0x502 /* export_156, CODE:4 @ 00004FF2 */]
00001440  3B7C 0001 F228           move.w     [A5 - 0xDD8], 0x1
00001446  486D A2DC                pea.l      [A5 - 0x5D24]
0000144A  A928                     syscall    InvalRect
0000144C  3B7C 0002 BA84           move.w     [A5 - 0x457C], 0x2
00001452  4E5E                     unlink     A6
00001454  4E75                     rts
export_55:
00001456  426D BA52                clr.w      [A5 - 0x45AE]
0000145A  426D BA50                clr.w      [A5 - 0x45B0]
0000145E  4EBA 023A                jsr        [PC + 0x23A /* 0000169A */]
00001462  4EBA EBF8                jsr        [PC - 0x1408 /* 0000005C */]
00001466  4A6D 9630                tst.w      [A5 - 0x69D0]
0000146A  666A                     bne        +0x6C /* 000014D6 */
0000146C  4A6D BA66                tst.w      [A5 - 0x459A]
00001470  670C                     beq        +0xE /* 0000147E */
00001472  426D BA66                clr.w      [A5 - 0x459A]
00001476  42AD 964C                clr.l      [A5 - 0x69B4]
0000147A  7001                     moveq.l    D0, 0x01
0000147C  605E                     bra        +0x60 /* 000014DC */
label0000147E:
0000147E  302D BA38                move.w     D0, [A5 - 0x45C8]
00001482  B06D A90C                cmp.w      D0, [A5 - 0x56F4]
00001486  6708                     beq        +0xA /* 00001490 */
00001488  4EAD 010A                jsr        [A5 + 0x10A /* export_29, CODE:2 @ 00002B4C */]
0000148C  4A00                     tst.b      D0
0000148E  6730                     beq        +0x32 /* 000014C0 */
label00001490:
00001490  4A6D BA50                tst.w      [A5 - 0x45B0]
00001494  6C0C                     bge        +0xE /* 000014A2 */
00001496  3B7C 0001 BA1A           move.w     [A5 - 0x45E6], 0x1
0000149C  3B7C 0009 BA18           move.w     [A5 - 0x45E8], 0x9 /* '\t' */
label000014A2:
000014A2  4EBA ECA2                jsr        [PC - 0x135E /* 00000146 */]
000014A6  0C2D 0002 B976           cmpi.b     [A5 - 0x468A], 0x2
000014AC  6608                     bne        +0xA /* 000014B6 */
000014AE  7006                     moveq.l    D0, 0x06
000014B0  2B40 964C                move.l     [A5 - 0x69B4], D0
000014B4  6006                     bra        +0x8 /* 000014BC */
label000014B6:
000014B6  7005                     moveq.l    D0, 0x05
000014B8  2B40 964C                move.l     [A5 - 0x69B4], D0
label000014BC:
000014BC  7000                     moveq.l    D0, 0x00
000014BE  601C                     bra        +0x1E /* 000014DC */
label000014C0:
000014C0  4EAD 0102                jsr        [A5 + 0x102 /* export_28, CODE:2 @ 00002B1C */]
000014C4  3B6D BA48 BA46           move.w     [A5 - 0x45BA], [A5 - 0x45B8]
000014CA  426D BA32                clr.w      [A5 - 0x45CE]
000014CE  42AD 964C                clr.l      [A5 - 0x69B4]
000014D2  7002                     moveq.l    D0, 0x02
000014D4  6006                     bra        +0x8 /* 000014DC */
label000014D6:
000014D6  42AD 964C                clr.l      [A5 - 0x69B4]
000014DA  7003                     moveq.l    D0, 0x03
label000014DC:
000014DC  4E75                     rts
export_56:
000014DE  48E7 0F00                movem.l    -[A7], D4,D5,D6,D7
000014E2  0C2D 0002 B952           cmpi.b     [A5 - 0x46AE], 0x2
000014E8  6D28                     blt        +0x2A /* 00001512 */
000014EA  4A2D B949                tst.b      [A5 - 0x46B7]
000014EE  6D14                     blt        +0x16 /* 00001504 */
000014F0  526D BAC8                addq.w     [A5 - 0x4538], 1
000014F4  0C6D 000A BAC8           cmpi.w     [A5 - 0x4538], 0xA /* '\n' */
000014FA  6D16                     blt        +0x18 /* 00001512 */
000014FC  3B7C 0009 BAC8           move.w     [A5 - 0x4538], 0x9 /* '\t' */
00001502  600E                     bra        +0x10 /* 00001512 */
label00001504:
00001504  536D BAC6                subq.w     [A5 - 0x453A], 1
00001508  4A6D BAC6                tst.w      [A5 - 0x453A]
0000150C  6C04                     bge        +0x6 /* 00001512 */
0000150E  426D BAC6                clr.w      [A5 - 0x453A]
label00001512:
00001512  3E2D BACA                move.w     D7, [A5 - 0x4536]
00001516  3C2D BAC8                move.w     D6, [A5 - 0x4538]
0000151A  3A2D BAC6                move.w     D5, [A5 - 0x453A]
0000151E  4A2D B951                tst.b      [A5 - 0x46AF]
00001522  664C                     bne        +0x4E /* 00001570 */
00001524  302D BACE                move.w     D0, [A5 - 0x4532]
00001528  B06D BACA                cmp.w      D0, [A5 - 0x4536]
0000152C  6C04                     bge        +0x6 /* 00001532 */
0000152E  3E2D BACE                move.w     D7, [A5 - 0x4532]
label00001532:
00001532  302D BAD0                move.w     D0, [A5 - 0x4530]
00001536  B06D BAC8                cmp.w      D0, [A5 - 0x4538]
0000153A  6F04                     ble        +0x6 /* 00001540 */
0000153C  3C2D BAD0                move.w     D6, [A5 - 0x4530]
label00001540:
00001540  302D BAD2                move.w     D0, [A5 - 0x452E]
00001544  B06D BAC6                cmp.w      D0, [A5 - 0x453A]
00001548  6C04                     bge        +0x6 /* 0000154E */
0000154A  3A2D BAD2                move.w     D5, [A5 - 0x452E]
label0000154E:
0000154E  0C2D 0007 B94C           cmpi.b     [A5 - 0x46B4], 0x7
00001554  6602                     bne        +0x4 /* 00001558 */
00001556  5246                     addq.w     D6, 1
label00001558:
00001558  4EBA 3204                jsr        [PC + 0x3204 /* 0000475E */]
0000155C  0C2D 000F BAE8           cmpi.b     [A5 - 0x4518], 0xF
00001562  6708                     beq        +0xA /* 0000156C */
00001564  0C2D 0006 BAE8           cmpi.b     [A5 - 0x4518], 0x6
0000156A  6604                     bne        +0x6 /* 00001570 */
label0000156C:
0000156C  4EAD 0422                jsr        [A5 + 0x422 /* export_128, CODE:4 @ 00001C5C */]
label00001570:
00001570  3807                     move.w     D4, D7
00001572  601C                     bra        +0x1E /* 00001590 */
label00001574:
00001574  3E05                     move.w     D7, D5
00001576  6012                     bra        +0x14 /* 0000158A */
label00001578:
00001578  3F04                     move.w     -[A7], D4
0000157A  3F07                     move.w     -[A7], D7
0000157C  4EBA 2AC6                jsr        [PC + 0x2AC6 /* 00004044 */]
00001580  3E80                     move.w     [A7], D0
00001582  4EAD 043A                jsr        [A5 + 0x43A /* export_131, CODE:4 @ 000022D4 */]
00001586  588F                     addq.l     A7, 4
00001588  5247                     addq.w     D7, 1
label0000158A:
0000158A  BC47                     cmp.w      D6, D7
0000158C  6CEA                     bge        -0x14 /* 00001578 */
0000158E  5244                     addq.w     D4, 1
label00001590:
00001590  B86D BACC                cmp.w      D4, [A5 - 0x4534]
00001594  6FDE                     ble        -0x20 /* 00001574 */
00001596  4A2D B951                tst.b      [A5 - 0x46AF]
0000159A  6612                     bne        +0x14 /* 000015AE */
0000159C  3B6D BACA BACE           move.w     [A5 - 0x4532], [A5 - 0x4536]
000015A2  3B6D BAC8 BAD0           move.w     [A5 - 0x4530], [A5 - 0x4538]
000015A8  3B6D BAC6 BAD2           move.w     [A5 - 0x452E], [A5 - 0x453A]
label000015AE:
000015AE  4CDF 00F0                movem.l    D4,D5,D6,D7, [A7]+
000015B2  4E75                     rts
export_57:
000015B4  48E7 0308                movem.l    -[A7], D6,D7,A4
000015B8  1E2D B94C                move.b     D7, [A5 - 0x46B4]
000015BC  4887                     ext.w      D7
000015BE  7C00                     moveq.l    D6, 0x00
000015C0  1C2D B946                move.b     D6, [A5 - 0x46BA]
000015C4  0C47 0002                cmpi.w     D7, 0x2
000015C8  6612                     bne        +0x14 /* 000015DC */
000015CA  0C46 004E                cmpi.w     D6, 0x4E /* 'N' */
000015CE  6D0C                     blt        +0xE /* 000015DC */
000015D0  0C46 0050                cmpi.w     D6, 0x50 /* 'P' */
000015D4  6C06                     bge        +0x8 /* 000015DC */
000015D6  49ED 042A                lea.l      A4, [A5 + 0x42A /* export_129, CODE:4 @ 00002232 */]
000015DA  6040                     bra        +0x42 /* 0000161C */
label000015DC:
000015DC  0C46 0089                cmpi.w     D6, 0x89
000015E0  6D0C                     blt        +0xE /* 000015EE */
000015E2  0C46 0091                cmpi.w     D6, 0x91
000015E6  6C06                     bge        +0x8 /* 000015EE */
000015E8  49ED 0432                lea.l      A4, [A5 + 0x432 /* export_130, CODE:4 @ 00002268 */]
000015EC  602E                     bra        +0x30 /* 0000161C */
label000015EE:
000015EE  0C47 0002                cmpi.w     D7, 0x2
000015F2  6724                     beq        +0x26 /* 00001618 */
000015F4  0C47 0003                cmpi.w     D7, 0x3
000015F8  671E                     beq        +0x20 /* 00001618 */
000015FA  0C47 0004                cmpi.w     D7, 0x4
000015FE  6718                     beq        +0x1A /* 00001618 */
00001600  0C47 0006                cmpi.w     D7, 0x6
00001604  6712                     beq        +0x14 /* 00001618 */
00001606  0C47 0005                cmpi.w     D7, 0x5
0000160A  665A                     bne        +0x5C /* 00001666 */
0000160C  0C46 0066                cmpi.w     D6, 0x66 /* 'f' */
00001610  6D54                     blt        +0x56 /* 00001666 */
00001612  0C46 006A                cmpi.w     D6, 0x6A /* 'j' */
00001616  6E4E                     bgt        +0x50 /* 00001666 */
label00001618:
00001618  49ED 042A                lea.l      A4, [A5 + 0x42A /* export_129, CODE:4 @ 00002232 */]
label0000161C:
0000161C  3B6D BAC8 BAEC           move.w     [A5 - 0x4514], [A5 - 0x4538]
00001622  6038                     bra        +0x3A /* 0000165C */
label00001624:
00001624  0C47 0002                cmpi.w     D7, 0x2
00001628  6712                     beq        +0x14 /* 0000163C */
0000162A  3F2D BACC                move.w     -[A7], [A5 - 0x4534]
0000162E  3F2D BAEC                move.w     -[A7], [A5 - 0x4514]
00001632  4EBA 2A10                jsr        [PC + 0x2A10 /* 00004044 */]
00001636  3E80                     move.w     [A7], D0
00001638  4E94                     jsr        [A4]
0000163A  588F                     addq.l     A7, 4
label0000163C:
0000163C  302D BACA                move.w     D0, [A5 - 0x4536]
00001640  B06D BACC                cmp.w      D0, [A5 - 0x4534]
00001644  6712                     beq        +0x14 /* 00001658 */
00001646  3F2D BACA                move.w     -[A7], [A5 - 0x4536]
0000164A  3F2D BAEC                move.w     -[A7], [A5 - 0x4514]
0000164E  4EBA 29F4                jsr        [PC + 0x29F4 /* 00004044 */]
00001652  3E80                     move.w     [A7], D0
00001654  4E94                     jsr        [A4]
00001656  588F                     addq.l     A7, 4
label00001658:
00001658  536D BAEC                subq.w     [A5 - 0x4514], 1
label0000165C:
0000165C  302D BAEC                move.w     D0, [A5 - 0x4514]
00001660  B06D BAC6                cmp.w      D0, [A5 - 0x453A]
00001664  6CBE                     bge        -0x40 /* 00001624 */
label00001666:
00001666  4CDF 10C0                movem.l    D6,D7,A4, [A7]+
0000166A  4E75                     rts
fn0000166C:
0000166C  4A6D BA1C                tst.w      [A5 - 0x45E4]
00001670  6726                     beq        +0x28 /* 00001698 */
00001672  4A6D BA1C                tst.w      [A5 - 0x45E4]
00001676  5EC0                     sgt        D0
00001678  4400                     neg.b      D0
0000167A  4880                     ext.w      D0
0000167C  122D B94B                move.b     D1, [A5 - 0x46B5]
00001680  4881                     ext.w      D1
00001682  9240                     sub.w      D1, D0
00001684  3F01                     move.w     -[A7], D1
00001686  102D B94F                move.b     D0, [A5 - 0x46B1]
0000168A  4880                     ext.w      D0
0000168C  3F00                     move.w     -[A7], D0
0000168E  4EAD 049A                jsr        [A5 + 0x49A /* export_143, CODE:4 @ 00002B5A */]
00001692  426D BA1C                clr.w      [A5 - 0x45E4]
00001696  588F                     addq.l     A7, 4
label00001698:
00001698  4E75                     rts
fn0000169A:
0000169A  4A6D BA8E                tst.w      [A5 - 0x4572]
0000169E  6F20                     ble        +0x22 /* 000016C0 */
000016A0  536D BA8E                subq.w     [A5 - 0x4572], 1
000016A4  0C6D 0005 BA8E           cmpi.w     [A5 - 0x4572], 0x5
000016AA  660A                     bne        +0xC /* 000016B6 */
000016AC  3F3C 0029                move.w     -[A7], 0x29 /* ')' */
000016B0  4EBA F0FE                jsr        [PC - 0xF02 /* 000007B0 */]
000016B4  548F                     addq.l     A7, 2
label000016B6:
000016B6  4A6D BA8E                tst.w      [A5 - 0x4572]
000016BA  6604                     bne        +0x6 /* 000016C0 */
000016BC  536D BA8E                subq.w     [A5 - 0x4572], 1
label000016C0:
000016C0  4A6D BA92                tst.w      [A5 - 0x456E]
000016C4  6F04                     ble        +0x6 /* 000016CA */
000016C6  536D BA92                subq.w     [A5 - 0x456E], 1
label000016CA:
000016CA  4A6D BA30                tst.w      [A5 - 0x45D0]
000016CE  6F16                     ble        +0x18 /* 000016E6 */
000016D0  536D BA30                subq.w     [A5 - 0x45D0], 1
000016D4  4EAD 010A                jsr        [A5 + 0x10A /* export_29, CODE:2 @ 00002B4C */]
000016D8  4A00                     tst.b      D0
000016DA  670A                     beq        +0xC /* 000016E6 */
000016DC  4A6D BA30                tst.w      [A5 - 0x45D0]
000016E0  6604                     bne        +0x6 /* 000016E6 */
000016E2  526D BA30                addq.w     [A5 - 0x45D0], 1
label000016E6:
000016E6  0C6D 0008 A90C           cmpi.w     [A5 - 0x56F4], 0x8
000016EC  661E                     bne        +0x20 /* 0000170C */
000016EE  0C2D 0010 B94F           cmpi.b     [A5 - 0x46B1], 0x10
000016F4  6616                     bne        +0x18 /* 0000170C */
000016F6  4A6D BA3C                tst.w      [A5 - 0x45C4]
000016FA  6710                     beq        +0x12 /* 0000170C */
000016FC  526D BA3C                addq.w     [A5 - 0x45C4], 1
00001700  0C6D 0096 BA3C           cmpi.w     [A5 - 0x45C4], 0x96
00001706  6604                     bne        +0x6 /* 0000170C */
00001708  4EBA 033C                jsr        [PC + 0x33C /* 00001A46 */]
label0000170C:
0000170C  4E75                     rts
export_58:
0000170E  2F07                     move.l     -[A7], D7
00001710  0C6D FFFF BA1E           cmpi.w     [A5 - 0x45E2], 0xFFFF
00001716  660C                     bne        +0xE /* 00001724 */
00001718  4EBA 0076                jsr        [PC + 0x76 /* 00001790 */]
0000171C  3B7C 0001 BA2C           move.w     [A5 - 0x45D4], 0x1
00001722  6068                     bra        +0x6A /* 0000178C */
label00001724:
00001724  4EBA 3038                jsr        [PC + 0x3038 /* 0000475E */]
00001728  7200                     moveq.l    D1, 0x00
0000172A  1200                     move.b     D1, D0
0000172C  0C41 000D                cmpi.w     D1, 0xD /* '\r' */
00001730  665A                     bne        +0x5C /* 0000178C */
00001732  4EBA 2D48                jsr        [PC + 0x2D48 /* 0000447C */]
00001736  4EBA 29AC                jsr        [PC + 0x29AC /* 000040E4 */]
0000173A  4EBA 00A4                jsr        [PC + 0xA4 /* 000017E0 */]
0000173E  4A2D BA9A                tst.b      [A5 - 0x4566]
00001742  6D48                     blt        +0x4A /* 0000178C */
00001744  4EAD 0522                jsr        [A5 + 0x522 /* export_160, CODE:4 @ 0000587A */]
00001748  4EBA 2E1A                jsr        [PC + 0x2E1A /* 00004564 */]
0000174C  102D B94B                move.b     D0, [A5 - 0x46B5]
00001750  4880                     ext.w      D0
00001752  204D                     movea.l    A0, A5
00001754  D0C0                     add.w      A0, D0
00001756  D0C0                     add.w      A0, D0
00001758  3E28 B666                move.w     D7, [A0 - 0x499A]
0000175C  BE6D BAF8                cmp.w      D7, [A5 - 0x4508]
00001760  6C2A                     bge        +0x2C /* 0000178C */
00001762  204D                     movea.l    A0, A5
00001764  D0C7                     add.w      A0, D7
00001766  D0C7                     add.w      A0, D7
00001768  3B68 9C64 BAFE           move.w     [A5 - 0x4502], [A0 - 0x639C]
0000176E  102D B94A                move.b     D0, [A5 - 0x46B6]
00001772  4880                     ext.w      D0
00001774  EB48                     lsl        D0.w, 5
00001776  204D                     movea.l    A0, A5
00001778  D0C0                     add.w      A0, D0
0000177A  D0C0                     add.w      A0, D0
0000177C  3B68 986E BB02           move.w     [A5 - 0x44FE], [A0 - 0x6792]
00001782  1F3C 0004                move.b     -[A7], 0x4
00001786  4EAD 051A                jsr        [A5 + 0x51A /* export_159, CODE:4 @ 000057F4 */]
0000178A  548F                     addq.l     A7, 2
label0000178C:
0000178C  2E1F                     move.l     D7, [A7]+
0000178E  4E75                     rts
fn00001790:
00001790  4EBA 2CEA                jsr        [PC + 0x2CEA /* 0000447C */]
00001794  4EBA 294E                jsr        [PC + 0x294E /* 000040E4 */]
00001798  4EBA 0046                jsr        [PC + 0x46 /* 000017E0 */]
0000179C  426D BA1E                clr.w      [A5 - 0x45E2]
000017A0  1B7C 0001 B951           move.b     [A5 - 0x46AF], 0x1
000017A6  3F3C 002D                move.w     -[A7], 0x2D /* '-' */
000017AA  4EBA F004                jsr        [PC - 0xFFC /* 000007B0 */]
000017AE  4EBA 2D08                jsr        [PC + 0x2D08 /* 000044B8 */]
000017B2  302D BA48                move.w     D0, [A5 - 0x45B8]
000017B6  3B40 BA4C                move.w     [A5 - 0x45B4], D0
000017BA  3B40 BA4E                move.w     [A5 - 0x45B2], D0
000017BE  3B7C 0001 BA4A           move.w     [A5 - 0x45B6], 0x1
000017C4  3EAD BA48                move.w     [A7], [A5 - 0x45B8]
000017C8  3F2D BA4A                move.w     -[A7], [A5 - 0x45B6]
000017CC  4EBA EDB6                jsr        [PC - 0x124A /* 00000584 */]
000017D0  3EAD BA4E                move.w     [A7], [A5 - 0x45B2]
000017D4  3F2D BA4C                move.w     -[A7], [A5 - 0x45B4]
000017D8  4EBA EE3A                jsr        [PC - 0x11C6 /* 00000614 */]
000017DC  5C8F                     addq.l     A7, 6
000017DE  4E75                     rts
fn000017E0:
000017E0  48E7 0300                movem.l    -[A7], D6,D7
000017E4  102D B94A                move.b     D0, [A5 - 0x46B6]
000017E8  4880                     ext.w      D0
000017EA  204D                     movea.l    A0, A5
000017EC  D0C0                     add.w      A0, D0
000017EE  7E00                     moveq.l    D7, 0x00
000017F0  1E28 B87D                move.b     D7, [A0 - 0x4783]
000017F4  0647 0009                addi.w     D7, 0x9 /* '\t' */
000017F8  4EBA 33C0                jsr        [PC + 0x33C0 /* 00004BBA */]
000017FC  3C00                     move.w     D6, D0
000017FE  4A2D B949                tst.b      [A5 - 0x46B7]
00001802  6D06                     blt        +0x8 /* 0000180A */
00001804  700E                     moveq.l    D0, 0x0E
00001806  9046                     sub.w      D0, D6
00001808  3C00                     move.w     D6, D0
label0000180A:
0000180A  70FE                     moveq.l    D0, 0xFFFFFFFE
0000180C  D006                     add.b      D0, D6
0000180E  1B40 BA9A                move.b     [A5 - 0x4566], D0
00001812  1207                     move.b     D1, D7
00001814  D207                     add.b      D1, D7
00001816  922D B947                sub.b      D1, [A5 - 0x46B9]
0000181A  1B41 B947                move.b     [A5 - 0x46B9], D1
0000181E  122D B949                move.b     D1, [A5 - 0x46B7]
00001822  4601                     not.b      D1
00001824  1B41 B949                move.b     [A5 - 0x46B7], D1
00001828  4CDF 00C0                movem.l    D6,D7, [A7]+
0000182C  4E75                     rts
fn0000182E:
0000182E  2F07                     move.l     -[A7], D7
00001830  0C6D 0002 BA24           cmpi.w     [A5 - 0x45DC], 0x2
00001836  6D54                     blt        +0x56 /* 0000188C */
00001838  4A2D B952                tst.b      [A5 - 0x46AE]
0000183C  664E                     bne        +0x50 /* 0000188C */
0000183E  4A2D B964                tst.b      [A5 - 0x469C]
00001842  6748                     beq        +0x4A /* 0000188C */
00001844  0C2D 0002 B95E           cmpi.b     [A5 - 0x46A2], 0x2
0000184A  6C40                     bge        +0x42 /* 0000188C */
0000184C  102D B949                move.b     D0, [A5 - 0x46B7]
00001850  B02D B95B                cmp.b      D0, [A5 - 0x46A5]
00001854  6736                     beq        +0x38 /* 0000188C */
00001856  4EBA 4098                jsr        [PC + 0x4098 /* 000058F0 */]
0000185A  3E00                     move.w     D7, D0
0000185C  0C47 000F                cmpi.w     D7, 0xF
00001860  6E2A                     bgt        +0x2C /* 0000188C */
00001862  0C47 FFF1                cmpi.w     D7, 0xFFF1
00001866  6D24                     blt        +0x26 /* 0000188C */
00001868  102D B94B                move.b     D0, [A5 - 0x46B5]
0000186C  4880                     ext.w      D0
0000186E  204D                     movea.l    A0, A5
00001870  D0C0                     add.w      A0, D0
00001872  D0C0                     add.w      A0, D0
00001874  1B68 B671 B948           move.b     [A5 - 0x46B8], [A0 - 0x498F]
0000187A  422D B94E                clr.b      [A5 - 0x46B2]
0000187E  3F3C 002F                move.w     -[A7], 0x2F /* '/' */
00001882  4EAD 0552                jsr        [A5 + 0x552 /* export_166, CODE:4 @ 00000000 */]
00001886  4EBA 29BE                jsr        [PC + 0x29BE /* 00004246 */]
0000188A  548F                     addq.l     A7, 2
label0000188C:
0000188C  2E1F                     move.l     D7, [A7]+
0000188E  4E75                     rts
fn00001890:
00001890  48E7 0300                movem.l    -[A7], D6,D7
00001894  7E00                     moveq.l    D7, 0x00
00001896  6040                     bra        +0x42 /* 000018D8 */
label00001898:
00001898  204D                     movea.l    A0, A5
0000189A  D0C7                     add.w      A0, D7
0000189C  7C00                     moveq.l    D6, 0x00
0000189E  1C28 F176                move.b     D6, [A0 - 0xE8A]
000018A2  0C46 001E                cmpi.w     D6, 0x1E
000018A6  6C2E                     bge        +0x30 /* 000018D6 */
000018A8  2006                     move.l     D0, D6
000018AA  48C0                     ext.l      D0
000018AC  81FC 000A                divs.w     D0, 0xA /* '\n' */
000018B0  4840                     swap.w     D0
000018B2  204D                     movea.l    A0, A5
000018B4  D0C0                     add.w      A0, D0
000018B6  7007                     moveq.l    D0, 0x07
000018B8  D028 B87D                add.b      D0, [A0 - 0x4783]
000018BC  5E00                     addq.b     D0, 7
000018BE  204D                     movea.l    A0, A5
000018C0  D0C7                     add.w      A0, D7
000018C2  1140 F1A6                move.b     [A0 - 0xE5A], D0
000018C6  204D                     movea.l    A0, A5
000018C8  D0C7                     add.w      A0, D7
000018CA  4228 F1EE                clr.b      [A0 - 0xE12]
000018CE  204D                     movea.l    A0, A5
000018D0  D0C7                     add.w      A0, D7
000018D2  4228 F1BE                clr.b      [A0 - 0xE42]
label000018D6:
000018D6  5247                     addq.w     D7, 1
label000018D8:
000018D8  0C47 0018                cmpi.w     D7, 0x18
000018DC  6DBA                     blt        -0x44 /* 00001898 */
000018DE  4CDF 00C0                movem.l    D6,D7, [A7]+
000018E2  4E75                     rts
fn000018E4:
000018E4  48E7 0700                movem.l    -[A7], D5,D6,D7
000018E8  7E00                     moveq.l    D7, 0x00
000018EA  1E2D B96A                move.b     D7, [A5 - 0x4696]
000018EE  0C2D 0018 B987           cmpi.b     [A5 - 0x4679], 0x18
000018F4  6700 0124                beq        +0x126 /* 00001A1A */
000018F8  0C2D 0001 B987           cmpi.b     [A5 - 0x4679], 0x1
000018FE  6608                     bne        +0xA /* 00001908 */
00001900  0C6D 000C A90C           cmpi.w     [A5 - 0x56F4], 0xC
00001906  6638                     bne        +0x3A /* 00001940 */
label00001908:
00001908  4A47                     tst.w      D7
0000190A  6734                     beq        +0x36 /* 00001940 */
0000190C  0C47 00DB                cmpi.w     D7, 0xDB
00001910  6D06                     blt        +0x8 /* 00001918 */
00001912  0C47 00E5                cmpi.w     D7, 0xE5
00001916  6D28                     blt        +0x2A /* 00001940 */
label00001918:
00001918  0C2D 0056 B97F           cmpi.b     [A5 - 0x4681], 0x56 /* 'V' */
0000191E  6720                     beq        +0x22 /* 00001940 */
00001920  4A2D B977                tst.b      [A5 - 0x4689]
00001924  6C1A                     bge        +0x1C /* 00001940 */
00001926  4A2D B989                tst.b      [A5 - 0x4677]
0000192A  6C14                     bge        +0x16 /* 00001940 */
0000192C  102D B973                move.b     D0, [A5 - 0x468D]
00001930  B02D B985                cmp.b      D0, [A5 - 0x467B]
00001934  660A                     bne        +0xC /* 00001940 */
00001936  102D B96F                move.b     D0, [A5 - 0x4691]
0000193A  B02D B981                cmp.b      D0, [A5 - 0x467F]
0000193E  6708                     beq        +0xA /* 00001948 */
label00001940:
00001940  426D BA24                clr.w      [A5 - 0x45DC]
00001944  6000 00D4                bra        +0xD6 /* 00001A1A */
label00001948:
00001948  3B7C 0002 BA24           move.w     [A5 - 0x45DC], 0x2
0000194E  102D B96E                move.b     D0, [A5 - 0x4692]
00001952  4880                     ext.w      D0
00001954  204D                     movea.l    A0, A5
00001956  D0C0                     add.w      A0, D0
00001958  7E00                     moveq.l    D7, 0x00
0000195A  1E28 B87D                move.b     D7, [A0 - 0x4783]
0000195E  5E47                     addq.w     D7, 7
00001960  102D B980                move.b     D0, [A5 - 0x4680]
00001964  4880                     ext.w      D0
00001966  204D                     movea.l    A0, A5
00001968  D0C0                     add.w      A0, D0
0000196A  7C00                     moveq.l    D6, 0x00
0000196C  1C28 B87D                move.b     D6, [A0 - 0x4783]
00001970  5E46                     addq.w     D6, 7
00001972  BC47                     cmp.w      D6, D7
00001974  6C06                     bge        +0x8 /* 0000197C */
00001976  3A07                     move.w     D5, D7
00001978  3E06                     move.w     D7, D6
0000197A  3C05                     move.w     D6, D5
label0000197C:
0000197C  3F07                     move.w     -[A7], D7
0000197E  4EBA 00A0                jsr        [PC + 0xA0 /* 00001A20 */]
00001982  7200                     moveq.l    D1, 0x00
00001984  1200                     move.b     D1, D0
00001986  0C41 0012                cmpi.w     D1, 0x12
0000198A  548F                     addq.l     A7, 2
0000198C  6604                     bne        +0x6 /* 00001992 */
0000198E  0647 000E                addi.w     D7, 0xE
label00001992:
00001992  3F06                     move.w     -[A7], D6
00001994  4EBA 008A                jsr        [PC + 0x8A /* 00001A20 */]
00001998  7200                     moveq.l    D1, 0x00
0000199A  1200                     move.b     D1, D0
0000199C  5941                     subq.w     D1, 4
0000199E  548F                     addq.l     A7, 2
000019A0  6674                     bne        +0x76 /* 00001A16 */
000019A2  0646 FFF2                addi.w     D6, 0xFFF2
000019A6  606E                     bra        +0x70 /* 00001A16 */
label000019A8:
000019A8  3F07                     move.w     -[A7], D7
000019AA  4EBA 0074                jsr        [PC + 0x74 /* 00001A20 */]
000019AE  7200                     moveq.l    D1, 0x00
000019B0  1200                     move.b     D1, D0
000019B2  0C41 0014                cmpi.w     D1, 0x14
000019B6  548F                     addq.l     A7, 2
000019B8  6710                     beq        +0x12 /* 000019CA */
000019BA  0C2D 0007 BAE8           cmpi.b     [A5 - 0x4518], 0x7
000019C0  6708                     beq        +0xA /* 000019CA */
000019C2  0C2D 000C BAE8           cmpi.b     [A5 - 0x4518], 0xC
000019C8  6606                     bne        +0x8 /* 000019D0 */
label000019CA:
000019CA  426D BA24                clr.w      [A5 - 0x45DC]
000019CE  604A                     bra        +0x4C /* 00001A1A */
label000019D0:
000019D0  0C2D 000B BAE8           cmpi.b     [A5 - 0x4518], 0xB
000019D6  6734                     beq        +0x36 /* 00001A0C */
000019D8  0C2D 0012 BAE8           cmpi.b     [A5 - 0x4518], 0x12
000019DE  672C                     beq        +0x2E /* 00001A0C */
000019E0  0C2D 0004 BAE8           cmpi.b     [A5 - 0x4518], 0x4
000019E6  6612                     bne        +0x14 /* 000019FA */
000019E8  7000                     moveq.l    D0, 0x00
000019EA  102D BAE9                move.b     D0, [A5 - 0x4517]
000019EE  D0AD BD86                add.l      D0, [A5 - 0x427A]
000019F2  2040                     movea.l    A0, D0
000019F4  0C10 0070                cmpi.b     [A0], 0x70 /* 'p' */
000019F8  6512                     bcs        +0x14 /* 00001A0C */
label000019FA:
000019FA  7000                     moveq.l    D0, 0x00
000019FC  102D BAE8                move.b     D0, [A5 - 0x4518]
00001A00  3F00                     move.w     -[A7], D0
00001A02  4EBA 2C4C                jsr        [PC + 0x2C4C /* 00004650 */]
00001A06  4A00                     tst.b      D0
00001A08  548F                     addq.l     A7, 2
00001A0A  6606                     bne        +0x8 /* 00001A12 */
label00001A0C:
00001A0C  3B7C 0001 BA24           move.w     [A5 - 0x45DC], 0x1
label00001A12:
00001A12  0647 000E                addi.w     D7, 0xE
label00001A16:
00001A16  BC47                     cmp.w      D6, D7
00001A18  6C8E                     bge        -0x70 /* 000019A8 */
label00001A1A:
00001A1A  4CDF 00E0                movem.l    D5,D6,D7, [A7]+
00001A1E  4E75                     rts
fn00001A20:
00001A20  4E56 0000                link       A6, 0
00001A24  102D B96F                move.b     D0, [A5 - 0x4691]
00001A28  4880                     ext.w      D0
00001A2A  3F00                     move.w     -[A7], D0
00001A2C  3F2E 0008                move.w     -[A7], [A6 + 0x8]
00001A30  4EBA 29A8                jsr        [PC + 0x29A8 /* 000043DA */]
00001A34  3E80                     move.w     [A7], D0
00001A36  102D B973                move.b     D0, [A5 - 0x468D]
00001A3A  4880                     ext.w      D0
00001A3C  3F00                     move.w     -[A7], D0
00001A3E  4EBA 252E                jsr        [PC + 0x252E /* 00003F6E */]
00001A42  4E5E                     unlink     A6
00001A44  4E75                     rts
fn00001A46:
00001A46  4EBA 2A34                jsr        [PC + 0x2A34 /* 0000447C */]
00001A4A  1B7C 0018 B951           move.b     [A5 - 0x46AF], 0x18
00001A50  1B7C 00C8 B947           move.b     [A5 - 0x46B9], 0xC8
00001A56  422D B94B                clr.b      [A5 - 0x46B5]
00001A5A  102D B94B                move.b     D0, [A5 - 0x46B5]
00001A5E  4880                     ext.w      D0
00001A60  204D                     movea.l    A0, A5
00001A62  D0C0                     add.w      A0, D0
00001A64  D0C0                     add.w      A0, D0
00001A66  1B68 B671 B948           move.b     [A5 - 0x46B8], [A0 - 0x498F]
00001A6C  1B7C 00FF B949           move.b     [A5 - 0x46B7], 0xFF
00001A72  1B7C 00FF B953           move.b     [A5 - 0x46AD], 0xFF
00001A78  3B7C 0001 BA4C           move.w     [A5 - 0x45B4], 0x1
00001A7E  3F3C 0069                move.w     -[A7], 0x69 /* 'i' */
00001A82  4EAD 0552                jsr        [A5 + 0x552 /* export_166, CODE:4 @ 00000000 */]
00001A86  4EBA 27BE                jsr        [PC + 0x27BE /* 00004246 */]
00001A8A  4EBA 2A2C                jsr        [PC + 0x2A2C /* 000044B8 */]
00001A8E  548F                     addq.l     A7, 2
00001A90  4E75                     rts
export_59:
00001A92  48E7 1F00                movem.l    -[A7], D3,D4,D5,D6,D7
00001A96  3F3C 0027                move.w     -[A7], 0x27 /* '\'' */
00001A9A  4EAD 0072                jsr        [A5 + 0x72 /* export_10, CODE:2 @ 0000223A */]
00001A9E  3A00                     move.w     D5, D0
00001AA0  7003                     moveq.l    D0, 0x03
00001AA2  C005                     and.b      D0, D5
00001AA4  0A00 0003                xori.b     D0, 0x3
00001AA8  7807                     moveq.l    D4, 0x07
00001AAA  C805                     and.b      D4, D5
00001AAC  E90C                     lsl        D4.b, 4
00001AAE  D800                     add.b      D4, D0
00001AB0  204D                     movea.l    A0, A5
00001AB2  D0C5                     add.w      A0, D5
00001AB4  1628 9E70                move.b     D3, [A0 - 0x6190]
00001AB8  0A03 0055                xori.b     D3, 0x55 /* 'U' */
00001ABC  9604                     sub.b      D3, D4
00001ABE  1003                     move.b     D0, D3
00001AC0  4880                     ext.w      D0
00001AC2  3E80                     move.w     [A7], D0
00001AC4  4EAD 007A                jsr        [A5 + 0x7A /* export_11, CODE:2 @ 00002268 */]
00001AC8  1B40 974C                move.b     [A5 - 0x68B4], D0
00001ACC  1B40 973B                move.b     [A5 - 0x68C5], D0
00001AD0  1003                     move.b     D0, D3
00001AD2  4880                     ext.w      D0
00001AD4  3E80                     move.w     [A7], D0
00001AD6  4EAD 008A                jsr        [A5 + 0x8A /* export_13, CODE:2 @ 000022B4 */]
00001ADA  1B40 974D                move.b     [A5 - 0x68B3], D0
00001ADE  1B40 973C                move.b     [A5 - 0x68C4], D0
00001AE2  204D                     movea.l    A0, A5
00001AE4  D0C5                     add.w      A0, D5
00001AE6  1628 9E98                move.b     D3, [A0 - 0x6168]
00001AEA  0A03 00A3                xori.b     D3, 0xA3
00001AEE  9604                     sub.b      D3, D4
00001AF0  1003                     move.b     D0, D3
00001AF2  4880                     ext.w      D0
00001AF4  3E80                     move.w     [A7], D0
00001AF6  4EAD 007A                jsr        [A5 + 0x7A /* export_11, CODE:2 @ 00002268 */]
00001AFA  1B40 9755                move.b     [A5 - 0x68AB], D0
00001AFE  1B40 973F                move.b     [A5 - 0x68C1], D0
00001B02  1003                     move.b     D0, D3
00001B04  4880                     ext.w      D0
00001B06  3E80                     move.w     [A7], D0
00001B08  4EAD 008A                jsr        [A5 + 0x8A /* export_13, CODE:2 @ 000022B4 */]
00001B0C  1B40 9756                move.b     [A5 - 0x68AA], D0
00001B10  1B40 9740                move.b     [A5 - 0x68C0], D0
00001B14  204D                     movea.l    A0, A5
00001B16  D0C5                     add.w      A0, D5
00001B18  1628 9EC0                move.b     D3, [A0 - 0x6140]
00001B1C  0A03 007C                xori.b     D3, 0x7C /* '|' */
00001B20  9604                     sub.b      D3, D4
00001B22  1003                     move.b     D0, D3
00001B24  4880                     ext.w      D0
00001B26  3E80                     move.w     [A7], D0
00001B28  4EAD 007A                jsr        [A5 + 0x7A /* export_11, CODE:2 @ 00002268 */]
00001B2C  1B40 975E                move.b     [A5 - 0x68A2], D0
00001B30  1B40 9743                move.b     [A5 - 0x68BD], D0
00001B34  1003                     move.b     D0, D3
00001B36  4880                     ext.w      D0
00001B38  3E80                     move.w     [A7], D0
00001B3A  4EAD 008A                jsr        [A5 + 0x8A /* export_13, CODE:2 @ 000022B4 */]
00001B3E  1B40 975F                move.b     [A5 - 0x68A1], D0
00001B42  1B40 9744                move.b     [A5 - 0x68BC], D0
00001B46  204D                     movea.l    A0, A5
00001B48  D0C5                     add.w      A0, D5
00001B4A  1628 9EE8                move.b     D3, [A0 - 0x6118]
00001B4E  0A03 0069                xori.b     D3, 0x69 /* 'i' */
00001B52  9604                     sub.b      D3, D4
00001B54  7E00                     moveq.l    D7, 0x00
00001B56  548F                     addq.l     A7, 2
00001B58  6052                     bra        +0x54 /* 00001BAC */
label00001B5A:
00001B5A  BE6D B942                cmp.w      D7, [A5 - 0x46BE]
00001B5E  673C                     beq        +0x3E /* 00001B9C */
00001B60  3F3C 0019                move.w     -[A7], 0x19
00001B64  4EAD 0072                jsr        [A5 + 0x72 /* export_10, CODE:2 @ 0000223A */]
00001B68  1800                     move.b     D4, D0
00001B6A  548F                     addq.l     A7, 2
label00001B6C:
00001B6C  5204                     addq.b     D4, 1
00001B6E  0C04 001A                cmpi.b     D4, 0x1A
00001B72  6F02                     ble        +0x4 /* 00001B76 */
00001B74  7801                     moveq.l    D4, 0x01
label00001B76:
00001B76  B604                     cmp.b      D3, D4
00001B78  67F2                     beq        -0xC /* 00001B6C */
00001B7A  7C00                     moveq.l    D6, 0x00
00001B7C  6018                     bra        +0x1A /* 00001B96 */
label00001B7E:
00001B7E  1004                     move.b     D0, D4
00001B80  4880                     ext.w      D0
00001B82  204D                     movea.l    A0, A5
00001B84  D0C6                     add.w      A0, D6
00001B86  1228 9E62                move.b     D1, [A0 - 0x619E]
00001B8A  4881                     ext.w      D1
00001B8C  0641 FFC0                addi.w     D1, 0xFFC0
00001B90  B240                     cmp.w      D1, D0
00001B92  67D8                     beq        -0x26 /* 00001B6C */
00001B94  5246                     addq.w     D6, 1
label00001B96:
00001B96  BE46                     cmp.w      D7, D6
00001B98  6EE4                     bgt        -0x1A /* 00001B7E */
00001B9A  6002                     bra        +0x4 /* 00001B9E */
label00001B9C:
00001B9C  1803                     move.b     D4, D3
label00001B9E:
00001B9E  7040                     moveq.l    D0, 0x40
00001BA0  D004                     add.b      D0, D4
00001BA2  204D                     movea.l    A0, A5
00001BA4  D0C7                     add.w      A0, D7
00001BA6  1140 9E62                move.b     [A0 - 0x619E], D0
00001BAA  5247                     addq.w     D7, 1
label00001BAC:
00001BAC  0C47 000E                cmpi.w     D7, 0xE
00001BB0  6DA8                     blt        -0x56 /* 00001B5A */
00001BB2  4CDF 00F8                movem.l    D3,D4,D5,D6,D7, [A7]+
00001BB6  4E75                     rts
fn00001BB8:
00001BB8  48E7 0F00                movem.l    -[A7], D4,D5,D6,D7
00001BBC  0C6D 000F A90C           cmpi.w     [A5 - 0x56F4], 0xF
00001BC2  6600 009C                bne        +0x9E /* 00001C60 */
00001BC6  486D A0B6                pea.l      [A5 - 0x5F4A]
00001BCA  A874                     syscall    GetPort
00001BCC  486D A25E                pea.l      [A5 - 0x5DA2]
00001BD0  A873                     syscall    SetPort
00001BD2  4A2D A209                tst.b      [A5 - 0x5DF7]
00001BD6  6606                     bne        +0x8 /* 00001BDE */
00001BD8  3F3C 0010                move.w     -[A7], 0x10
00001BDC  A888                     syscall    TextFace
label00001BDE:
00001BDE  7E00                     moveq.l    D7, 0x00
00001BE0  606E                     bra        +0x70 /* 00001C50 */
label00001BE2:
00001BE2  204D                     movea.l    A0, A5
00001BE4  D0C7                     add.w      A0, D7
00001BE6  7000                     moveq.l    D0, 0x00
00001BE8  1028 A830                move.b     D0, [A0 - 0x57D0]
00001BEC  B06D BA6A                cmp.w      D0, [A5 - 0x4596]
00001BF0  665C                     bne        +0x5E /* 00001C4E */
00001BF2  204D                     movea.l    A0, A5
00001BF4  D0C7                     add.w      A0, D7
00001BF6  7800                     moveq.l    D4, 0x00
00001BF8  1828 A83E                move.b     D4, [A0 - 0x57C2]
00001BFC  2C04                     move.l     D6, D4
00001BFE  48C6                     ext.l      D6
00001C00  8DFC 000A                divs.w     D6, 0xA /* '\n' */
00001C04  4846                     swap.w     D6
00001C06  EB4E                     lsl        D6.w, 5
00001C08  2A04                     move.l     D5, D4
00001C0A  48C5                     ext.l      D5
00001C0C  8BFC 000A                divs.w     D5, 0xA /* '\n' */
00001C10  CBFC 003F                muls.w     D5, 0x3F /* '?' */
00001C14  4A2D A20A                tst.b      [A5 - 0x5DF6]
00001C18  670A                     beq        +0xC /* 00001C24 */
00001C1A  0646 001A                addi.w     D6, 0x1A
00001C1E  0645 001C                addi.w     D5, 0x1C
00001C22  6006                     bra        +0x8 /* 00001C2A */
label00001C24:
00001C24  5E46                     addq.w     D6, 7
00001C26  0645 002A                addi.w     D5, 0x2A /* '*' */
label00001C2A:
00001C2A  204D                     movea.l    A0, A5
00001C2C  D0C6                     add.w      A0, D6
00001C2E  D0C6                     add.w      A0, D6
00001C30  3F28 9866                move.w     -[A7], [A0 - 0x679A]
00001C34  204D                     movea.l    A0, A5
00001C36  D0C5                     add.w      A0, D5
00001C38  D0C5                     add.w      A0, D5
00001C3A  3F28 9C64                move.w     -[A7], [A0 - 0x639C]
00001C3E  A893                     syscall    MoveTo
00001C40  204D                     movea.l    A0, A5
00001C42  D0C7                     add.w      A0, D7
00001C44  1028 9E62                move.b     D0, [A0 - 0x619E]
00001C48  4880                     ext.w      D0
00001C4A  3F00                     move.w     -[A7], D0
00001C4C  A883                     syscall    DrawChar
label00001C4E:
00001C4E  5247                     addq.w     D7, 1
label00001C50:
00001C50  0C47 000E                cmpi.w     D7, 0xE
00001C54  6D8C                     blt        -0x72 /* 00001BE2 */
00001C56  4267                     clr.w      -[A7]
00001C58  A888                     syscall    TextFace
00001C5A  2F2D A0B6                move.l     -[A7], [A5 - 0x5F4A]
00001C5E  A873                     syscall    SetPort
label00001C60:
00001C60  4CDF 00F0                movem.l    D4,D5,D6,D7, [A7]+
00001C64  4E75                     rts
export_60:
00001C66  426D BAA2                clr.w      [A5 - 0x455E]
00001C6A  4EBA 0010                jsr        [PC + 0x10 /* 00001C7C */]
00001C6E  4EBA 0016                jsr        [PC + 0x16 /* 00001C86 */]
00001C72  4EBA F326                jsr        [PC - 0xCDA /* 00000F9A */]
00001C76  4EBA EB64                jsr        [PC - 0x149C /* 000007DC */]
00001C7A  4E75                     rts
fn00001C7C:
00001C7C  4EBA 000E                jsr        [PC + 0xE /* 00001C8C */]
00001C80  4EBA 0032                jsr        [PC + 0x32 /* 00001CB4 */]
00001C84  4E75                     rts
fn00001C86:
00001C86  4EBA 004C                jsr        [PC + 0x4C /* 00001CD4 */]
00001C8A  4E75                     rts
fn00001C8C:
00001C8C  4EBA 27EE                jsr        [PC + 0x27EE /* 0000447C */]
00001C90  4A2D B946                tst.b      [A5 - 0x46BA]
00001C94  6714                     beq        +0x16 /* 00001CAA */
00001C96  4EBA 25AE                jsr        [PC + 0x25AE /* 00004246 */]
00001C9A  0C2D 00DE B947           cmpi.b     [A5 - 0x46B9], 0xDE
00001CA0  6504                     bcs        +0x6 /* 00001CA6 */
00001CA2  422D B946                clr.b      [A5 - 0x46BA]
label00001CA6:
00001CA6  4EBA 27E8                jsr        [PC + 0x27E8 /* 00004490 */]
label00001CAA:
00001CAA  4EBA ED74                jsr        [PC - 0x128C /* 00000A20 */]
00001CAE  1B40 A5BE                move.b     [A5 - 0x5A42], D0
00001CB2  4E75                     rts
fn00001CB4:
00001CB4  4EBA 2862                jsr        [PC + 0x2862 /* 00004518 */]
00001CB8  4A2D B946                tst.b      [A5 - 0x46BA]
00001CBC  6714                     beq        +0x16 /* 00001CD2 */
00001CBE  4EBA 2586                jsr        [PC + 0x2586 /* 00004246 */]
00001CC2  0C2D 00DE B947           cmpi.b     [A5 - 0x46B9], 0xDE
00001CC8  6504                     bcs        +0x6 /* 00001CCE */
00001CCA  422D B946                clr.b      [A5 - 0x46BA]
label00001CCE:
00001CCE  4EBA 27E8                jsr        [PC + 0x27E8 /* 000044B8 */]
label00001CD2:
00001CD2  4E75                     rts
fn00001CD4:
00001CD4  426D BDA4                clr.w      [A5 - 0x425C]
00001CD8  426D BDA2                clr.w      [A5 - 0x425E]
00001CDC  426D BDA0                clr.w      [A5 - 0x4260]
00001CE0  426D BD9E                clr.w      [A5 - 0x4262]
00001CE4  426D BD9C                clr.w      [A5 - 0x4264]
00001CE8  41ED 04CA                lea.l      A0, [A5 + 0x4CA /* export_149, CODE:4 @ 00004376 */]
00001CEC  2B48 BD70                move.l     [A5 - 0x4290], A0
00001CF0  4EBA 278A                jsr        [PC + 0x278A /* 0000447C */]
00001CF4  4A2D B946                tst.b      [A5 - 0x46BA]
00001CF8  6712                     beq        +0x14 /* 00001D0C */
00001CFA  4EAD 0522                jsr        [A5 + 0x522 /* export_160, CODE:4 @ 0000587A */]
00001CFE  1B7C 001E BAF0           move.b     [A5 - 0x4510], 0x1E
00001D04  4227                     clr.b      -[A7]
00001D06  4EAD 051A                jsr        [A5 + 0x51A /* export_159, CODE:4 @ 000057F4 */]
00001D0A  548F                     addq.l     A7, 2
label00001D0C:
00001D0C  4EBA 2796                jsr        [PC + 0x2796 /* 000044A4 */]
00001D10  4A2D B946                tst.b      [A5 - 0x46BA]
00001D14  6712                     beq        +0x14 /* 00001D28 */
00001D16  4EAD 0522                jsr        [A5 + 0x522 /* export_160, CODE:4 @ 0000587A */]
00001D1A  1B7C 001E BAF0           move.b     [A5 - 0x4510], 0x1E
00001D20  4227                     clr.b      -[A7]
00001D22  4EAD 051A                jsr        [A5 + 0x51A /* export_159, CODE:4 @ 000057F4 */]
00001D26  548F                     addq.l     A7, 2
label00001D28:
00001D28  4EAD 04FA                jsr        [A5 + 0x4FA /* export_155, CODE:4 @ 00004F20 */]
00001D2C  4878 00A7                push.l     0xA7
00001D30  2F3C 0002 001E           move.l     -[A7], 0x2001E
00001D36  3F3C 0007                move.w     -[A7], 0x7
00001D3A  4EAD 04DA                jsr        [A5 + 0x4DA /* export_151, CODE:4 @ 00004476 */]
00001D3E  4EBA 07CE                jsr        [PC + 0x7CE /* 0000250E */]
00001D42  4EBA 0830                jsr        [PC + 0x830 /* 00002574 */]
00001D46  4EAD 0502                jsr        [A5 + 0x502 /* export_156, CODE:4 @ 00004FF2 */]
00001D4A  4FEF 000A                lea.l      A7, [A7 + 0xA]
00001D4E  4E75                     rts
fn00001D50:
00001D50  4E56 0000                link       A6, 0
00001D54  4EBA 274E                jsr        [PC + 0x274E /* 000044A4 */]
00001D58  3F2E 0008                move.w     -[A7], [A6 + 0x8]
00001D5C  4EAD 0552                jsr        [A5 + 0x552 /* export_166, CODE:4 @ 00000000 */]
00001D60  4EBA 2756                jsr        [PC + 0x2756 /* 000044B8 */]
00001D64  4E5E                     unlink     A6
00001D66  4E75                     rts
fn00001D68:
00001D68  4E56 0000                link       A6, 0
00001D6C  4EBA 270E                jsr        [PC + 0x270E /* 0000447C */]
00001D70  3F2E 0008                move.w     -[A7], [A6 + 0x8]
00001D74  4EAD 0552                jsr        [A5 + 0x552 /* export_166, CODE:4 @ 00000000 */]
00001D78  4EBA 2716                jsr        [PC + 0x2716 /* 00004490 */]
00001D7C  4E5E                     unlink     A6
00001D7E  4E75                     rts
fn00001D80:
00001D80  4EBA 0018                jsr        [PC + 0x18 /* 00001D9A */]
00001D84  1B7C 0090 B947           move.b     [A5 - 0x46B9], 0x90
00001D8A  3F3C 006A                move.w     -[A7], 0x6A /* 'j' */
00001D8E  4EAD 0552                jsr        [A5 + 0x552 /* export_166, CODE:4 @ 00000000 */]
00001D92  4EBA 24B2                jsr        [PC + 0x24B2 /* 00004246 */]
00001D96  548F                     addq.l     A7, 2
00001D98  4E75                     rts
fn00001D9A:
00001D9A  1B7C 0018 B951           move.b     [A5 - 0x46AF], 0x18
00001DA0  1B7C 00D2 B947           move.b     [A5 - 0x46B9], 0xD2
00001DA6  1B7C 00A6 B948           move.b     [A5 - 0x46B8], 0xA6
00001DAC  4A2D A20A                tst.b      [A5 - 0x5DF6]
00001DB0  6604                     bne        +0x6 /* 00001DB6 */
00001DB2  592D B948                subq.b     [A5 - 0x46B8], 4
label00001DB6:
00001DB6  1B7C 00FF B949           move.b     [A5 - 0x46B7], 0xFF
00001DBC  3F3C 0069                move.w     -[A7], 0x69 /* 'i' */
00001DC0  4EAD 0552                jsr        [A5 + 0x552 /* export_166, CODE:4 @ 00000000 */]
00001DC4  4EBA 2480                jsr        [PC + 0x2480 /* 00004246 */]
00001DC8  548F                     addq.l     A7, 2
00001DCA  4E75                     rts
fn00001DCC:
00001DCC  4EBA 00D6                jsr        [PC + 0xD6 /* 00001EA4 */]
00001DD0  1B7C 0083 B947           move.b     [A5 - 0x46B9], 0x83
00001DD6  1B7C 00A9 B948           move.b     [A5 - 0x46B8], 0xA9
00001DDC  4A2D A20A                tst.b      [A5 - 0x5DF6]
00001DE0  6604                     bne        +0x6 /* 00001DE6 */
00001DE2  592D B948                subq.b     [A5 - 0x46B8], 4
label00001DE6:
00001DE6  3F3C 006E                move.w     -[A7], 0x6E /* 'n' */
00001DEA  4EAD 0552                jsr        [A5 + 0x552 /* export_166, CODE:4 @ 00000000 */]
00001DEE  4EBA 2456                jsr        [PC + 0x2456 /* 00004246 */]
00001DF2  548F                     addq.l     A7, 2
00001DF4  4E75                     rts
fn00001DF6:
00001DF6  4EBA 005E                jsr        [PC + 0x5E /* 00001E56 */]
00001DFA  1B7C 0090 B947           move.b     [A5 - 0x46B9], 0x90
00001E00  1B7C 00A9 B948           move.b     [A5 - 0x46B8], 0xA9
00001E06  4A2D A20A                tst.b      [A5 - 0x5DF6]
00001E0A  6604                     bne        +0x6 /* 00001E10 */
00001E0C  592D B948                subq.b     [A5 - 0x46B8], 4
label00001E10:
00001E10  3F3C 005E                move.w     -[A7], 0x5E /* '^' */
00001E14  4EAD 0552                jsr        [A5 + 0x552 /* export_166, CODE:4 @ 00000000 */]
00001E18  4EBA 242C                jsr        [PC + 0x242C /* 00004246 */]
00001E1C  548F                     addq.l     A7, 2
00001E1E  4E75                     rts
fn00001E20:
00001E20  4EBA 0082                jsr        [PC + 0x82 /* 00001EA4 */]
00001E24  1B7C 0092 B947           move.b     [A5 - 0x46B9], 0x92
00001E2A  4E75                     rts
fn00001E2C:
00001E2C  4EBA 0076                jsr        [PC + 0x76 /* 00001EA4 */]
00001E30  1B7C 005D B947           move.b     [A5 - 0x46B9], 0x5D /* ']' */
00001E36  1B7C 00A6 B948           move.b     [A5 - 0x46B8], 0xA6
00001E3C  4A2D A20A                tst.b      [A5 - 0x5DF6]
00001E40  6604                     bne        +0x6 /* 00001E46 */
00001E42  592D B948                subq.b     [A5 - 0x46B8], 4
label00001E46:
00001E46  3F3C 0067                move.w     -[A7], 0x67 /* 'g' */
00001E4A  4EAD 0552                jsr        [A5 + 0x552 /* export_166, CODE:4 @ 00000000 */]
00001E4E  4EBA 23F6                jsr        [PC + 0x23F6 /* 00004246 */]
00001E52  548F                     addq.l     A7, 2
00001E54  4E75                     rts
fn00001E56:
00001E56  4EBA 004C                jsr        [PC + 0x4C /* 00001EA4 */]
00001E5A  422D B949                clr.b      [A5 - 0x46B7]
00001E5E  4E75                     rts
fn00001E60:
00001E60  4EBA 0042                jsr        [PC + 0x42 /* 00001EA4 */]
00001E64  1B7C 0076 B947           move.b     [A5 - 0x46B9], 0x76 /* 'v' */
00001E6A  1B7C 00A4 B948           move.b     [A5 - 0x46B8], 0xA4
00001E70  4A2D A20A                tst.b      [A5 - 0x5DF6]
00001E74  6604                     bne        +0x6 /* 00001E7A */
00001E76  592D B948                subq.b     [A5 - 0x46B8], 4
label00001E7A:
00001E7A  3F3C 006D                move.w     -[A7], 0x6D /* 'm' */
00001E7E  4EAD 0552                jsr        [A5 + 0x552 /* export_166, CODE:4 @ 00000000 */]
00001E82  4EBA 23C2                jsr        [PC + 0x23C2 /* 00004246 */]
00001E86  548F                     addq.l     A7, 2
00001E88  4E75                     rts
fn00001E8A:
00001E8A  4EBA FF0E                jsr        [PC - 0xF2 /* 00001D9A */]
00001E8E  552D B947                subq.b     [A5 - 0x46B9], 2
00001E92  1B7C 00A4 B948           move.b     [A5 - 0x46B8], 0xA4
00001E98  4A2D A20A                tst.b      [A5 - 0x5DF6]
00001E9C  6604                     bne        +0x6 /* 00001EA2 */
00001E9E  592D B948                subq.b     [A5 - 0x46B8], 4
label00001EA2:
00001EA2  4E75                     rts
fn00001EA4:
00001EA4  1B7C 0005 B951           move.b     [A5 - 0x46AF], 0x5
00001EAA  1B7C 0078 B947           move.b     [A5 - 0x46B9], 0x78 /* 'x' */
00001EB0  1B7C 00A6 B948           move.b     [A5 - 0x46B8], 0xA6
00001EB6  4A2D A20A                tst.b      [A5 - 0x5DF6]
00001EBA  6604                     bne        +0x6 /* 00001EC0 */
00001EBC  592D B948                subq.b     [A5 - 0x46B8], 4
label00001EC0:
00001EC0  1B7C 00FF B949           move.b     [A5 - 0x46B7], 0xFF
00001EC6  3F3C 005E                move.w     -[A7], 0x5E /* '^' */
00001ECA  4EAD 0552                jsr        [A5 + 0x552 /* export_166, CODE:4 @ 00000000 */]
00001ECE  4EBA 2376                jsr        [PC + 0x2376 /* 00004246 */]
00001ED2  548F                     addq.l     A7, 2
00001ED4  4E75                     rts
fn00001ED6:
00001ED6  1B7C 0006 B951           move.b     [A5 - 0x46AF], 0x6
00001EDC  1B7C 00C6 B947           move.b     [A5 - 0x46B9], 0xC6
00001EE2  1B7C 00A6 B948           move.b     [A5 - 0x46B8], 0xA6
00001EE8  4A2D A20A                tst.b      [A5 - 0x5DF6]
00001EEC  6604                     bne        +0x6 /* 00001EF2 */
00001EEE  592D B948                subq.b     [A5 - 0x46B8], 4
label00001EF2:
00001EF2  1B7C 00FF B949           move.b     [A5 - 0x46B7], 0xFF
00001EF8  3F3C 005F                move.w     -[A7], 0x5F /* '_' */
00001EFC  4EAD 0552                jsr        [A5 + 0x552 /* export_166, CODE:4 @ 00000000 */]
00001F00  4EBA 2344                jsr        [PC + 0x2344 /* 00004246 */]
00001F04  548F                     addq.l     A7, 2
00001F06  4E75                     rts
fn00001F08:
00001F08  422D B951                clr.b      [A5 - 0x46AF]
00001F0C  1B7C 00C6 B947           move.b     [A5 - 0x46B9], 0xC6
00001F12  1B7C 00A4 B948           move.b     [A5 - 0x46B8], 0xA4
00001F18  4A2D A20A                tst.b      [A5 - 0x5DF6]
00001F1C  6604                     bne        +0x6 /* 00001F22 */
00001F1E  592D B948                subq.b     [A5 - 0x46B8], 4
label00001F22:
00001F22  1B7C 00FF B949           move.b     [A5 - 0x46B7], 0xFF
00001F28  3F3C 0001                move.w     -[A7], 0x1
00001F2C  4EAD 0552                jsr        [A5 + 0x552 /* export_166, CODE:4 @ 00000000 */]
00001F30  4EBA 2314                jsr        [PC + 0x2314 /* 00004246 */]
00001F34  548F                     addq.l     A7, 2
00001F36  4E75                     rts
export_61:
00001F38  302D A570                move.w     D0, [A5 - 0x5A90]
00001F3C  526D A570                addq.w     [A5 - 0x5A90], 1
00001F40  4A40                     tst.w      D0
00001F42  6714                     beq        +0x16 /* 00001F58 */
00001F44  6B7C                     bmi        +0x7E /* 00001FC2 */
00001F46  5740                     subq.w     D0, 3
00001F48  675E                     beq        +0x60 /* 00001FA8 */
00001F4A  6A06                     bpl        +0x8 /* 00001F52 */
00001F4C  5240                     addq.w     D0, 1
00001F4E  6A3E                     bpl        +0x40 /* 00001F8E */
00001F50  6012                     bra        +0x14 /* 00001F64 */
label00001F52:
00001F52  5540                     subq.w     D0, 2
00001F54  6A6C                     bpl        +0x6E /* 00001FC2 */
00001F56  6062                     bra        +0x64 /* 00001FBA */
label00001F58:
00001F58  3F3C 0023                move.w     -[A7], 0x23 /* '#' */
00001F5C  4EAD 00DA                jsr        [A5 + 0xDA /* export_23, CODE:2 @ 0000289C */]
00001F60  548F                     addq.l     A7, 2
00001F62  6068                     bra        +0x6A /* 00001FCC */
label00001F64:
00001F64  4EBA 0580                jsr        [PC + 0x580 /* 000024E6 */]
00001F68  3F00                     move.w     -[A7], D0
00001F6A  4EBA 0568                jsr        [PC + 0x568 /* 000024D4 */]
00001F6E  4EBA FE10                jsr        [PC - 0x1F0 /* 00001D80 */]
00001F72  4EBA 251C                jsr        [PC + 0x251C /* 00004490 */]
00001F76  4EBA FE54                jsr        [PC - 0x1AC /* 00001DCC */]
00001F7A  4EBA 253C                jsr        [PC + 0x253C /* 000044B8 */]
00001F7E  3B7C 0003 A55C           move.w     [A5 - 0x5AA4], 0x3
00001F84  3B7C 0014 A572           move.w     [A5 - 0x5A8E], 0x14
00001F8A  548F                     addq.l     A7, 2
00001F8C  603E                     bra        +0x40 /* 00001FCC */
label00001F8E:
00001F8E  3F3C 0023                move.w     -[A7], 0x23 /* '#' */
00001F92  4EBA E81C                jsr        [PC - 0x17E4 /* 000007B0 */]
00001F96  3EBC 006B                move.w     [A7], 0x6B /* 'k' */
00001F9A  4EBA FDCC                jsr        [PC - 0x234 /* 00001D68 */]
00001F9E  3B7C 0014 A572           move.w     [A5 - 0x5A8E], 0x14
00001FA4  548F                     addq.l     A7, 2
00001FA6  6024                     bra        +0x26 /* 00001FCC */
label00001FA8:
00001FA8  3F3C 006F                move.w     -[A7], 0x6F /* 'o' */
00001FAC  4EBA FDA2                jsr        [PC - 0x25E /* 00001D50 */]
00001FB0  3B7C 001E A572           move.w     [A5 - 0x5A8E], 0x1E
00001FB6  548F                     addq.l     A7, 2
00001FB8  6012                     bra        +0x14 /* 00001FCC */
label00001FBA:
00001FBA  1B7C 0001 A56A           move.b     [A5 - 0x5A96], 0x1
00001FC0  600A                     bra        +0xC /* 00001FCC */
label00001FC2:
00001FC2  3B7C 0005 A55C           move.w     [A5 - 0x5AA4], 0x5
00001FC8  426D A570                clr.w      [A5 - 0x5A90]
label00001FCC:
00001FCC  4E75                     rts
export_62:
00001FCE  302D A570                move.w     D0, [A5 - 0x5A90]
00001FD2  526D A570                addq.w     [A5 - 0x5A90], 1
00001FD6  4A40                     tst.w      D0
00001FD8  6716                     beq        +0x18 /* 00001FF0 */
00001FDA  6B00 0082                bmi        +0x84 /* 0000205E */
00001FDE  5740                     subq.w     D0, 3
00001FE0  6752                     beq        +0x54 /* 00002034 */
00001FE2  6A06                     bpl        +0x8 /* 00001FEA */
00001FE4  5240                     addq.w     D0, 1
00001FE6  6A3C                     bpl        +0x3E /* 00002024 */
00001FE8  6012                     bra        +0x14 /* 00001FFC */
label00001FEA:
00001FEA  5540                     subq.w     D0, 2
00001FEC  6A70                     bpl        +0x72 /* 0000205E */
00001FEE  6056                     bra        +0x58 /* 00002046 */
label00001FF0:
00001FF0  3F3C 0023                move.w     -[A7], 0x23 /* '#' */
00001FF4  4EAD 00DA                jsr        [A5 + 0xDA /* export_23, CODE:2 @ 0000289C */]
00001FF8  548F                     addq.l     A7, 2
00001FFA  606C                     bra        +0x6E /* 00002068 */
label00001FFC:
00001FFC  3F3C 0023                move.w     -[A7], 0x23 /* '#' */
00002000  4EBA E7AE                jsr        [PC - 0x1852 /* 000007B0 */]
00002004  4EBA 04E0                jsr        [PC + 0x4E0 /* 000024E6 */]
00002008  3E80                     move.w     [A7], D0
0000200A  4EBA 04C8                jsr        [PC + 0x4C8 /* 000024D4 */]
0000200E  4EBA FDE6                jsr        [PC - 0x21A /* 00001DF6 */]
00002012  4EBA 24A4                jsr        [PC + 0x24A4 /* 000044B8 */]
00002016  3B7C 0003 A55C           move.w     [A5 - 0x5AA4], 0x3
0000201C  426D A572                clr.w      [A5 - 0x5A8E]
00002020  548F                     addq.l     A7, 2
00002022  6044                     bra        +0x46 /* 00002068 */
label00002024:
00002024  4EBA FD74                jsr        [PC - 0x28C /* 00001D9A */]
00002028  4EBA 2466                jsr        [PC + 0x2466 /* 00004490 */]
0000202C  3B7C 0005 A572           move.w     [A5 - 0x5A8E], 0x5
00002032  6034                     bra        +0x36 /* 00002068 */
label00002034:
00002034  3F3C 0070                move.w     -[A7], 0x70 /* 'p' */
00002038  4EBA FD16                jsr        [PC - 0x2EA /* 00001D50 */]
0000203C  3B7C 0009 A572           move.w     [A5 - 0x5A8E], 0x9 /* '\t' */
00002042  548F                     addq.l     A7, 2
00002044  6022                     bra        +0x24 /* 00002068 */
label00002046:
00002046  3F3C 0072                move.w     -[A7], 0x72 /* 'r' */
0000204A  4EBA FD1C                jsr        [PC - 0x2E4 /* 00001D68 */]
0000204E  3B7C 003A A572           move.w     [A5 - 0x5A8E], 0x3A /* ':' */
00002054  1B7C 0001 A56A           move.b     [A5 - 0x5A96], 0x1
0000205A  548F                     addq.l     A7, 2
0000205C  600A                     bra        +0xC /* 00002068 */
label0000205E:
0000205E  3B7C 0005 A55C           move.w     [A5 - 0x5AA4], 0x5
00002064  426D A570                clr.w      [A5 - 0x5A90]
label00002068:
00002068  4E75                     rts
export_63:
0000206A  302D A570                move.w     D0, [A5 - 0x5A90]
0000206E  526D A570                addq.w     [A5 - 0x5A90], 1
00002072  0C40 0007                cmpi.w     D0, 0x7
00002076  6200 00A4                bhi        +0xA6 /* 0000211C */
0000207A  43FA 00AC                lea.l      A1, [PC + 0xAC /* 00002128, value 0xFF5EFF6C */]
0000207E  D040                     add.w      D0, D0
00002080  D2F1 0000                add.w      A1, [A1 + D0.w]
00002084  4ED1                     jmp        [A1]
00002086  3F3C 001A                move.w     -[A7], 0x1A
0000208A  4EAD 00DA                jsr        [A5 + 0xDA /* export_23, CODE:2 @ 0000289C */]
0000208E  548F                     addq.l     A7, 2
00002090  6000 0094                bra        +0x96 /* 00002126 */
00002094  3B7C 0001 BAA4           move.w     [A5 - 0x455C], 0x1
0000209A  3F3C 001A                move.w     -[A7], 0x1A
0000209E  4EBA E710                jsr        [PC - 0x18F0 /* 000007B0 */]
000020A2  4EBA FDBC                jsr        [PC - 0x244 /* 00001E60 */]
000020A6  4EBA 2410                jsr        [PC + 0x2410 /* 000044B8 */]
000020AA  3B7C 0004 A572           move.w     [A5 - 0x5A8E], 0x4
000020B0  548F                     addq.l     A7, 2
000020B2  6072                     bra        +0x74 /* 00002126 */
000020B4  4EBA FE52                jsr        [PC - 0x1AE /* 00001F08 */]
000020B8  4EBA 23D6                jsr        [PC + 0x23D6 /* 00004490 */]
000020BC  3B7C 000C A572           move.w     [A5 - 0x5A8E], 0xC
000020C2  6062                     bra        +0x64 /* 00002126 */
000020C4  3F3C 006C                move.w     -[A7], 0x6C /* 'l' */
000020C8  4EBA FC86                jsr        [PC - 0x37A /* 00001D50 */]
000020CC  3B7C 0004 A572           move.w     [A5 - 0x5A8E], 0x4
000020D2  548F                     addq.l     A7, 2
000020D4  6050                     bra        +0x52 /* 00002126 */
000020D6  3F3C 000D                move.w     -[A7], 0xD /* '\r' */
000020DA  4EBA FC8C                jsr        [PC - 0x374 /* 00001D68 */]
000020DE  3B7C 0001 A572           move.w     [A5 - 0x5A8E], 0x1
000020E4  548F                     addq.l     A7, 2
000020E6  603E                     bra        +0x40 /* 00002126 */
000020E8  422D B96A                clr.b      [A5 - 0x4696]
000020EC  3B7C 0027 A572           move.w     [A5 - 0x5A8E], 0x27 /* '\'' */
000020F2  1B7C 0001 A56A           move.b     [A5 - 0x5A96], 0x1
000020F8  602C                     bra        +0x2E /* 00002126 */
000020FA  4EBA FD8E                jsr        [PC - 0x272 /* 00001E8A */]
000020FE  4EBA 2390                jsr        [PC + 0x2390 /* 00004490 */]
00002102  3B7C 000E A572           move.w     [A5 - 0x5A8E], 0xE
00002108  601C                     bra        +0x1E /* 00002126 */
0000210A  3F3C 0065                move.w     -[A7], 0x65 /* 'e' */
0000210E  4EBA FC58                jsr        [PC - 0x3A8 /* 00001D68 */]
00002112  3B7C 0029 A572           move.w     [A5 - 0x5A8E], 0x29 /* ')' */
00002118  548F                     addq.l     A7, 2
0000211A  600A                     bra        +0xC /* 00002126 */
label0000211C:
0000211C  3B7C 0005 A55C           move.w     [A5 - 0x5AA4], 0x5
00002122  426D A570                clr.w      [A5 - 0x5A90]
label00002126:
00002126  4E75                     rts
00002128  FF5E                     .extension 0xF5E <<F/4-5/7>> // unimplemented
0000212A  FF6C                     .extension 0xF6C <<F/4-5/7>> // unimplemented
0000212C  FF8C                     .invalid   <<F/6/7>>
0000212E  FF9C                     .invalid   <<F/6/7>>
00002130  FFAE                     .invalid   <<F/6/7>>
00002132  FFC0                     .invalid   <<F/7/7>>
00002134  FFD2                     .invalid   <<F/7/7>>
00002136  FFE2                     .invalid   <<F/7/7>>
export_64:
00002138  302D A570                move.w     D0, [A5 - 0x5A90]
0000213C  526D A570                addq.w     [A5 - 0x5A90], 1
00002140  4A40                     tst.w      D0
00002142  670A                     beq        +0xC /* 0000214E */
00002144  6B4E                     bmi        +0x50 /* 00002194 */
00002146  5540                     subq.w     D0, 2
00002148  673C                     beq        +0x3E /* 00002186 */
0000214A  6A48                     bpl        +0x4A /* 00002194 */
0000214C  600C                     bra        +0xE /* 0000215A */
label0000214E:
0000214E  3F3C 0024                move.w     -[A7], 0x24 /* '$' */
00002152  4EAD 00DA                jsr        [A5 + 0xDA /* export_23, CODE:2 @ 0000289C */]
00002156  548F                     addq.l     A7, 2
00002158  6044                     bra        +0x46 /* 0000219E */
label0000215A:
0000215A  3B7C 0001 BAA4           move.w     [A5 - 0x455C], 0x1
00002160  3F3C 0007                move.w     -[A7], 0x7
00002164  4EBA 036E                jsr        [PC + 0x36E /* 000024D4 */]
00002168  3B7C FFFF BA9C           move.w     [A5 - 0x4564], 0xFFFF
0000216E  3EBC 0024                move.w     [A7], 0x24 /* '$' */
00002172  4EBA E63C                jsr        [PC - 0x19C4 /* 000007B0 */]
00002176  3B7C 0006 A55C           move.w     [A5 - 0x5AA4], 0x6
0000217C  3B7C 0002 A572           move.w     [A5 - 0x5A8E], 0x2
00002182  548F                     addq.l     A7, 2
00002184  6018                     bra        +0x1A /* 0000219E */
label00002186:
00002186  3B7C 0064 A572           move.w     [A5 - 0x5A8E], 0x64 /* 'd' */
0000218C  1B7C 0001 A56A           move.b     [A5 - 0x5A96], 0x1
00002192  600A                     bra        +0xC /* 0000219E */
label00002194:
00002194  3B7C 0005 A55C           move.w     [A5 - 0x5AA4], 0x5
0000219A  426D A570                clr.w      [A5 - 0x5A90]
label0000219E:
0000219E  4E75                     rts
export_65:
000021A0  302D A570                move.w     D0, [A5 - 0x5A90]
000021A4  526D A570                addq.w     [A5 - 0x5A90], 1
000021A8  4A40                     tst.w      D0
000021AA  670A                     beq        +0xC /* 000021B6 */
000021AC  6B56                     bmi        +0x58 /* 00002204 */
000021AE  5540                     subq.w     D0, 2
000021B0  673A                     beq        +0x3C /* 000021EC */
000021B2  6A50                     bpl        +0x52 /* 00002204 */
000021B4  600C                     bra        +0xE /* 000021C2 */
label000021B6:
000021B6  3F3C 0028                move.w     -[A7], 0x28 /* '(' */
000021BA  4EAD 00DA                jsr        [A5 + 0xDA /* export_23, CODE:2 @ 0000289C */]
000021BE  548F                     addq.l     A7, 2
000021C0  604C                     bra        +0x4E /* 0000220E */
label000021C2:
000021C2  3F3C 0028                move.w     -[A7], 0x28 /* '(' */
000021C6  4EBA E5E8                jsr        [PC - 0x1A18 /* 000007B0 */]
000021CA  4EBA 031A                jsr        [PC + 0x31A /* 000024E6 */]
000021CE  3E80                     move.w     [A7], D0
000021D0  4EBA 0302                jsr        [PC + 0x302 /* 000024D4 */]
000021D4  4EBA FC4A                jsr        [PC - 0x3B6 /* 00001E20 */]
000021D8  4EBA 22DE                jsr        [PC + 0x22DE /* 000044B8 */]
000021DC  3B7C 0006 A55C           move.w     [A5 - 0x5AA4], 0x6
000021E2  3B7C 0002 A572           move.w     [A5 - 0x5A8E], 0x2
000021E8  548F                     addq.l     A7, 2
000021EA  6022                     bra        +0x24 /* 0000220E */
label000021EC:
000021EC  3F3C 0062                move.w     -[A7], 0x62 /* 'b' */
000021F0  4EBA FB5E                jsr        [PC - 0x4A2 /* 00001D50 */]
000021F4  3B7C 0018 A572           move.w     [A5 - 0x5A8E], 0x18
000021FA  1B7C 0001 A56A           move.b     [A5 - 0x5A96], 0x1
00002200  548F                     addq.l     A7, 2
00002202  600A                     bra        +0xC /* 0000220E */
label00002204:
00002204  3B7C 0005 A55C           move.w     [A5 - 0x5AA4], 0x5
0000220A  426D A570                clr.w      [A5 - 0x5A90]
label0000220E:
0000220E  4E75                     rts
export_66:
00002210  302D A570                move.w     D0, [A5 - 0x5A90]
00002214  526D A570                addq.w     [A5 - 0x5A90], 1
00002218  4A40                     tst.w      D0
0000221A  6708                     beq        +0xA /* 00002224 */
0000221C  6B42                     bmi        +0x44 /* 00002260 */
0000221E  5540                     subq.w     D0, 2
00002220  6A3E                     bpl        +0x40 /* 00002260 */
00002222  600C                     bra        +0xE /* 00002230 */
label00002224:
00002224  3F3C 001B                move.w     -[A7], 0x1B
00002228  4EAD 00DA                jsr        [A5 + 0xDA /* export_23, CODE:2 @ 0000289C */]
0000222C  548F                     addq.l     A7, 2
0000222E  603A                     bra        +0x3C /* 0000226A */
label00002230:
00002230  3F3C 001B                move.w     -[A7], 0x1B
00002234  4EBA E57A                jsr        [PC - 0x1A86 /* 000007B0 */]
00002238  4EBA 02AC                jsr        [PC + 0x2AC /* 000024E6 */]
0000223C  3E80                     move.w     [A7], D0
0000223E  4EBA 0294                jsr        [PC + 0x294 /* 000024D4 */]
00002242  4EBA FBE8                jsr        [PC - 0x418 /* 00001E2C */]
00002246  4EBA 2270                jsr        [PC + 0x2270 /* 000044B8 */]
0000224A  3B7C 0006 A55C           move.w     [A5 - 0x5AA4], 0x6
00002250  3B7C 004B A572           move.w     [A5 - 0x5A8E], 0x4B /* 'K' */
00002256  1B7C 0001 A56A           move.b     [A5 - 0x5A96], 0x1
0000225C  548F                     addq.l     A7, 2
0000225E  600A                     bra        +0xC /* 0000226A */
label00002260:
00002260  3B7C 0005 A55C           move.w     [A5 - 0x5AA4], 0x5
00002266  426D A570                clr.w      [A5 - 0x5A90]
label0000226A:
0000226A  4E75                     rts
export_67:
0000226C  302D A570                move.w     D0, [A5 - 0x5A90]
00002270  526D A570                addq.w     [A5 - 0x5A90], 1
00002274  4A40                     tst.w      D0
00002276  6708                     beq        +0xA /* 00002280 */
00002278  6B42                     bmi        +0x44 /* 000022BC */
0000227A  5540                     subq.w     D0, 2
0000227C  6A3E                     bpl        +0x40 /* 000022BC */
0000227E  600C                     bra        +0xE /* 0000228C */
label00002280:
00002280  3F3C 001B                move.w     -[A7], 0x1B
00002284  4EAD 00DA                jsr        [A5 + 0xDA /* export_23, CODE:2 @ 0000289C */]
00002288  548F                     addq.l     A7, 2
0000228A  603A                     bra        +0x3C /* 000022C6 */
label0000228C:
0000228C  3F3C 001B                move.w     -[A7], 0x1B
00002290  4EBA E51E                jsr        [PC - 0x1AE2 /* 000007B0 */]
00002294  4EBA 0250                jsr        [PC + 0x250 /* 000024E6 */]
00002298  3E80                     move.w     [A7], D0
0000229A  4EBA 0238                jsr        [PC + 0x238 /* 000024D4 */]
0000229E  4EBA FBB6                jsr        [PC - 0x44A /* 00001E56 */]
000022A2  4EBA 2214                jsr        [PC + 0x2214 /* 000044B8 */]
000022A6  3B7C 0006 A55C           move.w     [A5 - 0x5AA4], 0x6
000022AC  3B7C 004B A572           move.w     [A5 - 0x5A8E], 0x4B /* 'K' */
000022B2  1B7C 0001 A56A           move.b     [A5 - 0x5A96], 0x1
000022B8  548F                     addq.l     A7, 2
000022BA  600A                     bra        +0xC /* 000022C6 */
label000022BC:
000022BC  3B7C 0005 A55C           move.w     [A5 - 0x5AA4], 0x5
000022C2  426D A570                clr.w      [A5 - 0x5A90]
label000022C6:
000022C6  4E75                     rts
export_68:
000022C8  302D A570                move.w     D0, [A5 - 0x5A90]
000022CC  526D A570                addq.w     [A5 - 0x5A90], 1
000022D0  0C40 0013                cmpi.w     D0, 0x13
000022D4  6200 01CA                bhi        +0x1CC /* 000024A0 */
000022D8  43FA 01D2                lea.l      A1, [PC + 0x1D2 /* 000024AC, value 0xFE38FE5E */]
000022DC  D040                     add.w      D0, D0
000022DE  D2F1 0000                add.w      A1, [A1 + D0.w]
000022E2  4ED1                     jmp        [A1]
000022E4  3F3C 0032                move.w     -[A7], 0x32 /* '2' */
000022E8  4EAD 00DA                jsr        [A5 + 0xDA /* export_23, CODE:2 @ 0000289C */]
000022EC  3EBC 0033                move.w     [A7], 0x33 /* '3' */
000022F0  4EAD 00DA                jsr        [A5 + 0xDA /* export_23, CODE:2 @ 0000289C */]
000022F4  3EBC 0035                move.w     [A7], 0x35 /* '5' */
000022F8  4EAD 00DA                jsr        [A5 + 0xDA /* export_23, CODE:2 @ 0000289C */]
000022FC  3EBC 0038                move.w     [A7], 0x38 /* '8' */
00002300  4EAD 00DA                jsr        [A5 + 0xDA /* export_23, CODE:2 @ 0000289C */]
00002304  548F                     addq.l     A7, 2
00002306  6000 01A2                bra        +0x1A4 /* 000024AA */
0000230A  3B7C 0003 A55C           move.w     [A5 - 0x5AA4], 0x3
00002310  4EBA FB92                jsr        [PC - 0x46E /* 00001EA4 */]
00002314  4EBA 21A2                jsr        [PC + 0x21A2 /* 000044B8 */]
00002318  3B7C 0001 A572           move.w     [A5 - 0x5A8E], 0x1
0000231E  6000 018A                bra        +0x18C /* 000024AA */
00002322  3F3C 0032                move.w     -[A7], 0x32 /* '2' */
00002326  4EBA E488                jsr        [PC - 0x1B78 /* 000007B0 */]
0000232A  4EBA FBAA                jsr        [PC - 0x456 /* 00001ED6 */]
0000232E  4EBA 2160                jsr        [PC + 0x2160 /* 00004490 */]
00002332  3B7C 0002 A572           move.w     [A5 - 0x5A8E], 0x2
00002338  548F                     addq.l     A7, 2
0000233A  6000 016E                bra        +0x170 /* 000024AA */
0000233E  3B7C 0005 A572           move.w     [A5 - 0x5A8E], 0x5
00002344  1B7C 0001 A56A           move.b     [A5 - 0x5A96], 0x1
0000234A  6000 015E                bra        +0x160 /* 000024AA */
0000234E  3B7C 0005 A572           move.w     [A5 - 0x5A8E], 0x5
00002354  6000 0154                bra        +0x156 /* 000024AA */
00002358  3F3C 0033                move.w     -[A7], 0x33 /* '3' */
0000235C  4EBA E452                jsr        [PC - 0x1BAE /* 000007B0 */]
00002360  3B7C 0001 A572           move.w     [A5 - 0x5A8E], 0x1
00002366  1B7C 0001 A56A           move.b     [A5 - 0x5A96], 0x1
0000236C  548F                     addq.l     A7, 2
0000236E  6000 013A                bra        +0x13C /* 000024AA */
00002372  3F3C 0035                move.w     -[A7], 0x35 /* '5' */
00002376  4EBA E438                jsr        [PC - 0x1BC8 /* 000007B0 */]
0000237A  3B7C 0003 A572           move.w     [A5 - 0x5A8E], 0x3
00002380  548F                     addq.l     A7, 2
00002382  6000 0126                bra        +0x128 /* 000024AA */
00002386  3F3C 0062                move.w     -[A7], 0x62 /* 'b' */
0000238A  4EBA F9C4                jsr        [PC - 0x63C /* 00001D50 */]
0000238E  3B7C 0005 A572           move.w     [A5 - 0x5A8E], 0x5
00002394  548F                     addq.l     A7, 2
00002396  6000 0112                bra        +0x114 /* 000024AA */
0000239A  3F3C 0060                move.w     -[A7], 0x60 /* '`' */
0000239E  4EBA F9C8                jsr        [PC - 0x638 /* 00001D68 */]
000023A2  3B7C 0006 A572           move.w     [A5 - 0x5A8E], 0x6
000023A8  548F                     addq.l     A7, 2
000023AA  6000 00FE                bra        +0x100 /* 000024AA */
000023AE  3F3C 0061                move.w     -[A7], 0x61 /* 'a' */
000023B2  4EBA F9B4                jsr        [PC - 0x64C /* 00001D68 */]
000023B6  3B7C 0004 A572           move.w     [A5 - 0x5A8E], 0x4
000023BC  548F                     addq.l     A7, 2
000023BE  6000 00EA                bra        +0xEC /* 000024AA */
000023C2  3B7C 0006 A572           move.w     [A5 - 0x5A8E], 0x6
000023C8  6000 00E0                bra        +0xE2 /* 000024AA */
000023CC  3F3C 0060                move.w     -[A7], 0x60 /* '`' */
000023D0  4EBA F996                jsr        [PC - 0x66A /* 00001D68 */]
000023D4  3B7C 001E A572           move.w     [A5 - 0x5A8E], 0x1E
000023DA  548F                     addq.l     A7, 2
000023DC  6000 00CC                bra        +0xCE /* 000024AA */
000023E0  3F3C 0061                move.w     -[A7], 0x61 /* 'a' */
000023E4  4EBA F982                jsr        [PC - 0x67E /* 00001D68 */]
000023E8  3B7C 0010 A572           move.w     [A5 - 0x5A8E], 0x10
000023EE  2B7C 0000 0343 A56C      move.l     [A5 - 0x5A94], 0x343
000023F6  548F                     addq.l     A7, 2
000023F8  6000 00B0                bra        +0xB2 /* 000024AA */
000023FC  3F3C 0066                move.w     -[A7], 0x66 /* 'f' */
00002400  4EBA F966                jsr        [PC - 0x69A /* 00001D68 */]
00002404  3B7C 0001 A572           move.w     [A5 - 0x5A8E], 0x1
0000240A  548F                     addq.l     A7, 2
0000240C  6000 009C                bra        +0x9E /* 000024AA */
00002410  3F3C 0063                move.w     -[A7], 0x63 /* 'c' */
00002414  4EBA F93A                jsr        [PC - 0x6C6 /* 00001D50 */]
00002418  3B7C 0011 A572           move.w     [A5 - 0x5A8E], 0x11
0000241E  2B7C 0000 03B6 A56C      move.l     [A5 - 0x5A94], 0x3B6
00002426  548F                     addq.l     A7, 2
00002428  6000 0080                bra        +0x82 /* 000024AA */
0000242C  3B7C 0001 BA9E           move.w     [A5 - 0x4562], 0x1
00002432  3B7C 0005 BA1A           move.w     [A5 - 0x45E6], 0x5
00002438  3B7C 0007 BA18           move.w     [A5 - 0x45E8], 0x7
0000243E  3B7C 0009 A572           move.w     [A5 - 0x5A8E], 0x9 /* '\t' */
00002444  1B7C 0001 A56A           move.b     [A5 - 0x5A96], 0x1
0000244A  605E                     bra        +0x60 /* 000024AA */
0000244C  3F3C 0064                move.w     -[A7], 0x64 /* 'd' */
00002450  4EBA F916                jsr        [PC - 0x6EA /* 00001D68 */]
00002454  3EBC 0038                move.w     [A7], 0x38 /* '8' */
00002458  4EBA E356                jsr        [PC - 0x1CAA /* 000007B0 */]
0000245C  426D BA9C                clr.w      [A5 - 0x4564]
00002460  3B7C 0006 A572           move.w     [A5 - 0x5A8E], 0x6
00002466  548F                     addq.l     A7, 2
00002468  6040                     bra        +0x42 /* 000024AA */
0000246A  3B7C 0018 A572           move.w     [A5 - 0x5A8E], 0x18
00002470  6038                     bra        +0x3A /* 000024AA */
00002472  3B7C 0002 BA9E           move.w     [A5 - 0x4562], 0x2
00002478  3B7C 0009 A572           move.w     [A5 - 0x5A8E], 0x9 /* '\t' */
0000247E  2B7C 0000 015E A56C      move.l     [A5 - 0x5A94], 0x15E
00002486  6022                     bra        +0x24 /* 000024AA */
00002488  3F3C 0071                move.w     -[A7], 0x71 /* 'q' */
0000248C  4EBA F8C2                jsr        [PC - 0x73E /* 00001D50 */]
00002490  3B7C 001C A572           move.w     [A5 - 0x5A8E], 0x1C
00002496  1B7C 0001 A56A           move.b     [A5 - 0x5A96], 0x1
0000249C  548F                     addq.l     A7, 2
0000249E  600A                     bra        +0xC /* 000024AA */
label000024A0:
000024A0  3B7C 0005 A55C           move.w     [A5 - 0x5AA4], 0x5
000024A6  426D A570                clr.w      [A5 - 0x5A90]
label000024AA:
000024AA  4E75                     rts
000024AC  FE38 FE5E                .unknown   0xFE38 0xFE5E (W = 7)
000024B0  FE76 FE92                .extension 0xE76 <<F/1/7>>, 0xFE92 // unimplemented
000024B4  FEA2 FEAC                .extension 0xEA2 <<F/2-3/7>> // unimplemented
000024B8  FEC6 FEDA                .extension 0xEC6 <<F/2-3/7>> // unimplemented
000024BC  FEEE FF02                .extension 0xEEE <<F/2-3/7>> // unimplemented
000024C0  FF16                     .extension 0xF16 <<F/4-5/7>> // unimplemented
000024C2  FF20                     .extension 0xF20 <<F/4-5/7>> // unimplemented
000024C4  FF34                     .extension 0xF34 <<F/4-5/7>> // unimplemented
000024C6  FF50                     .extension 0xF50 <<F/4-5/7>> // unimplemented
000024C8  FF64                     .extension 0xF64 <<F/4-5/7>> // unimplemented
000024CA  FF80                     .invalid   <<F/6/7>>
000024CC  FFA0                     .invalid   <<F/6/7>>
000024CE  FFBE                     .invalid   <<F/6/7>>
000024D0  FFC6                     .invalid   <<F/7/7>>
000024D2  FFDC                     .invalid   <<F/7/7>>
fn000024D4:
000024D4  4E56 0000                link       A6, 0
000024D8  426D BA9C                clr.w      [A5 - 0x4564]
000024DC  3B6E 0008 BA9E           move.w     [A5 - 0x4562], [A6 + 0x8]
000024E2  4E5E                     unlink     A6
000024E4  4E75                     rts
fn000024E6:
000024E6  48E7 0108                movem.l    -[A7], D7,A4
000024EA  7E00                     moveq.l    D7, 0x00
000024EC  49ED A910                lea.l      A4, [A5 - 0x56F0]
000024F0  600C                     bra        +0xE /* 000024FE */
label000024F2:
000024F2  302D BA8C                move.w     D0, [A5 - 0x4574]
000024F6  B054                     cmp.w      D0, [A4]
000024F8  6D0A                     blt        +0xC /* 00002504 */
000024FA  5247                     addq.w     D7, 1
000024FC  548C                     addq.l     A4, 2
label000024FE:
000024FE  0C47 0004                cmpi.w     D7, 0x4
00002502  6DEE                     blt        -0x10 /* 000024F2 */
label00002504:
00002504  7006                     moveq.l    D0, 0x06
00002506  9047                     sub.w      D0, D7
00002508  4CDF 1080                movem.l    D7,A4, [A7]+
0000250C  4E75                     rts
fn0000250E:
0000250E  2F07                     move.l     -[A7], D7
00002510  7E01                     moveq.l    D7, 0x01
00002512  DE6D A920                add.w      D7, [A5 - 0x56E0]
00002516  0C47 0003                cmpi.w     D7, 0x3
0000251A  6F02                     ble        +0x4 /* 0000251E */
0000251C  7E01                     moveq.l    D7, 0x01
label0000251E:
0000251E  3F3C 0079                move.w     -[A7], 0x79 /* 'y' */
00002522  3F2D A91C                move.w     -[A7], [A5 - 0x56E4]
00002526  3F2D A918                move.w     -[A7], [A5 - 0x56E8]
0000252A  700C                     moveq.l    D0, 0x0C
0000252C  D047                     add.w      D0, D7
0000252E  3F00                     move.w     -[A7], D0
00002530  3F3C 0007                move.w     -[A7], 0x7
00002534  4EAD 04CA                jsr        [A5 + 0x4CA /* export_149, CODE:4 @ 00004376 */]
00002538  3B47 A920                move.w     [A5 - 0x56E0], D7
0000253C  7E01                     moveq.l    D7, 0x01
0000253E  DE6D A922                add.w      D7, [A5 - 0x56DE]
00002542  0C47 0003                cmpi.w     D7, 0x3
00002546  4FEF 000A                lea.l      A7, [A7 + 0xA]
0000254A  6F02                     ble        +0x4 /* 0000254E */
0000254C  7E01                     moveq.l    D7, 0x01
label0000254E:
0000254E  3F3C 0079                move.w     -[A7], 0x79 /* 'y' */
00002552  3F2D A91E                move.w     -[A7], [A5 - 0x56E2]
00002556  3F2D A91A                move.w     -[A7], [A5 - 0x56E6]
0000255A  700C                     moveq.l    D0, 0x0C
0000255C  D047                     add.w      D0, D7
0000255E  3F00                     move.w     -[A7], D0
00002560  3F3C 0007                move.w     -[A7], 0x7
00002564  4EAD 04CA                jsr        [A5 + 0x4CA /* export_149, CODE:4 @ 00004376 */]
00002568  3B47 A922                move.w     [A5 - 0x56DE], D7
0000256C  4FEF 000A                lea.l      A7, [A7 + 0xA]
00002570  2E1F                     move.l     D7, [A7]+
00002572  4E75                     rts
fn00002574:
00002574  2F07                     move.l     -[A7], D7
00002576  4A6D BA9C                tst.w      [A5 - 0x4564]
0000257A  6D42                     blt        +0x44 /* 000025BE */
0000257C  302D BA9C                move.w     D0, [A5 - 0x4564]
00002580  5240                     addq.w     D0, 1
00002582  48C0                     ext.l      D0
00002584  81FC 0003                divs.w     D0, 0x3
00002588  4840                     swap.w     D0
0000258A  3B40 BA9C                move.w     [A5 - 0x4564], D0
0000258E  0C6D 0007 BA9E           cmpi.w     [A5 - 0x4562], 0x7
00002594  6C5A                     bge        +0x5C /* 000025F0 */
00002596  3E3C 00A4                move.w     D7, 0xA4
0000259A  4A2D A20A                tst.b      [A5 - 0x5DF6]
0000259E  6602                     bne        +0x4 /* 000025A2 */
000025A0  5747                     subq.w     D7, 3
label000025A2:
000025A2  3F07                     move.w     -[A7], D7
000025A4  2F3C 0014 0000           move.l     -[A7], 0x140000
000025AA  700A                     moveq.l    D0, 0x0A
000025AC  D06D BA9C                add.w      D0, [A5 - 0x4564]
000025B0  3F00                     move.w     -[A7], D0
000025B2  3F3C 0007                move.w     -[A7], 0x7
000025B6  4EAD 04DA                jsr        [A5 + 0x4DA /* export_151, CODE:4 @ 00004476 */]
000025BA  4FEF 000A                lea.l      A7, [A7 + 0xA]
label000025BE:
000025BE  4A6D BA9E                tst.w      [A5 - 0x4562]
000025C2  672C                     beq        +0x2E /* 000025F0 */
000025C4  3E3C 00A8                move.w     D7, 0xA8
000025C8  4A2D A20A                tst.b      [A5 - 0x5DF6]
000025CC  6602                     bne        +0x4 /* 000025D0 */
000025CE  5747                     subq.w     D7, 3
label000025D0:
000025D0  522D AA35                addq.b     [A5 - 0x55CB], 1
000025D4  3F07                     move.w     -[A7], D7
000025D6  2F3C 0013 0000           move.l     -[A7], 0x130000
000025DC  7002                     moveq.l    D0, 0x02
000025DE  D06D BA9E                add.w      D0, [A5 - 0x4562]
000025E2  3F00                     move.w     -[A7], D0
000025E4  3F3C 0007                move.w     -[A7], 0x7
000025E8  4EAD 04D2                jsr        [A5 + 0x4D2 /* export_150, CODE:4 @ 000043D4 */]
000025EC  4FEF 000A                lea.l      A7, [A7 + 0xA]
label000025F0:
000025F0  2E1F                     move.l     D7, [A7]+
000025F2  4E75                     rts
export_69:
000025F4  302D A566                move.w     D0, [A5 - 0x5A9A]
000025F8  526D A566                addq.w     [A5 - 0x5A9A], 1
000025FC  0C40 0008                cmpi.w     D0, 0x8
00002600  6200 013E                bhi        +0x140 /* 00002740 */
00002604  43FA 0146                lea.l      A1, [PC + 0x146 /* 0000274C, value 0xFEC4FED6 */]
00002608  D040                     add.w      D0, D0
0000260A  D2F1 0000                add.w      A1, [A1 + D0.w]
0000260E  4ED1                     jmp        [A1]
00002610  486D 021A                pea.l      [A5 + 0x21A /* export_63, CODE:3 @ 0000206A */]
00002614  3F3C 0001                move.w     -[A7], 0x1
00002618  4EBA 018C                jsr        [PC + 0x18C /* 000027A6 */]
0000261C  5C8F                     addq.l     A7, 6
0000261E  6000 0124                bra        +0x126 /* 00002744 */
00002622  4EBA E8E4                jsr        [PC - 0x171C /* 00000F08 */]
00002626  3F3C 0039                move.w     -[A7], 0x39 /* '9' */
0000262A  4EAD 00DA                jsr        [A5 + 0xDA /* export_23, CODE:2 @ 0000289C */]
0000262E  1B7C 0001 9645           move.b     [A5 - 0x69BB], 0x1
00002634  4EAD 00EA                jsr        [A5 + 0xEA /* export_25, CODE:2 @ 00002A18 */]
00002638  3EBC 0010                move.w     [A7], 0x10
0000263C  4EBA E894                jsr        [PC - 0x176C /* 00000ED2 */]
00002640  2F3C 0019 0001           move.l     -[A7], 0x190001
00002646  2F3C 0003 0018           move.l     -[A7], 0x30018
0000264C  3F3C 0003                move.w     -[A7], 0x3
00002650  4EAD 04E2                jsr        [A5 + 0x4E2 /* export_152, CODE:4 @ 00004986 */]
00002654  3B7C 0003 A55C           move.w     [A5 - 0x5AA4], 0x3
0000265A  4FEF 000C                lea.l      A7, [A7 + 0xC]
0000265E  6000 00E4                bra        +0xE6 /* 00002744 */
00002662  3F3C 0039                move.w     -[A7], 0x39 /* '9' */
00002666  4EAD 00FA                jsr        [A5 + 0xFA /* export_27, CODE:2 @ 00002A5A */]
0000266A  3B7C 0096 A568           move.w     [A5 - 0x5A98], 0x96
00002670  2B7C 0000 0578 A56C      move.l     [A5 - 0x5A94], 0x578
00002678  548F                     addq.l     A7, 2
0000267A  6000 00C8                bra        +0xCA /* 00002744 */
0000267E  4EBA 021A                jsr        [PC + 0x21A /* 0000289A */]
00002682  4A00                     tst.b      D0
00002684  6600 00BE                bne        +0xC0 /* 00002744 */
00002688  566D A566                addq.w     [A5 - 0x5A9A], 3
0000268C  6000 00B6                bra        +0xB8 /* 00002744 */
00002690  3F3C 0010                move.w     -[A7], 0x10
00002694  4EBA E83C                jsr        [PC - 0x17C4 /* 00000ED2 */]
00002698  2F3C 0014 0001           move.l     -[A7], 0x140001
0000269E  2F3C 0003 0017           move.l     -[A7], 0x30017
000026A4  3F3C 0004                move.w     -[A7], 0x4
000026A8  4EAD 04E2                jsr        [A5 + 0x4E2 /* export_152, CODE:4 @ 00004986 */]
000026AC  4EBA 0460                jsr        [PC + 0x460 /* 00002B0E */]
000026B0  3B7C 0002 A568           move.w     [A5 - 0x5A98], 0x2
000026B6  4FEF 000C                lea.l      A7, [A7 + 0xC]
000026BA  6000 0088                bra        +0x8A /* 00002744 */
000026BE  4EBA 0250                jsr        [PC + 0x250 /* 00002910 */]
000026C2  3B7C 0001 A568           move.w     [A5 - 0x5A98], 0x1
000026C8  607A                     bra        +0x7C /* 00002744 */
000026CA  3F3C 0010                move.w     -[A7], 0x10
000026CE  4EBA E802                jsr        [PC - 0x17FE /* 00000ED2 */]
000026D2  2F3C 0014 0001           move.l     -[A7], 0x140001
000026D8  2F3C 0003 0017           move.l     -[A7], 0x30017
000026DE  3F3C 0004                move.w     -[A7], 0x4
000026E2  4EAD 04E2                jsr        [A5 + 0x4E2 /* export_152, CODE:4 @ 00004986 */]
000026E6  4EBA 0426                jsr        [PC + 0x426 /* 00002B0E */]
000026EA  3B7C 005A A568           move.w     [A5 - 0x5A98], 0x5A /* 'Z' */
000026F0  4FEF 000C                lea.l      A7, [A7 + 0xC]
000026F4  604E                     bra        +0x50 /* 00002744 */
000026F6  3F3C 0002                move.w     -[A7], 0x2
000026FA  4EBA E7D6                jsr        [PC - 0x182A /* 00000ED2 */]
000026FE  4878 0001                push.l     0x1
00002702  42A7                     clr.l      -[A7]
00002704  3F3C 0004                move.w     -[A7], 0x4
00002708  4EAD 04E2                jsr        [A5 + 0x4E2 /* export_152, CODE:4 @ 00004986 */]
0000270C  3B7C 003C A568           move.w     [A5 - 0x5A98], 0x3C /* '<' */
00002712  1B7C 0001 A56A           move.b     [A5 - 0x5A96], 0x1
00002718  4FEF 000C                lea.l      A7, [A7 + 0xC]
0000271C  6026                     bra        +0x28 /* 00002744 */
0000271E  4EBA E812                jsr        [PC - 0x17EE /* 00000F32 */]
00002722  1F3C 0002                move.b     -[A7], 0x2
00002726  486D A5C4                pea.l      [A5 - 0x5A3C]
0000272A  206D A3E2                movea.l    A0, [A5 - 0x5C1E]
0000272E  4E90                     jsr        [A0]
00002730  3B7C 0002 A55C           move.w     [A5 - 0x5AA4], 0x2
00002736  3B7C 0014 A568           move.w     [A5 - 0x5A98], 0x14
0000273C  5C8F                     addq.l     A7, 6
0000273E  6004                     bra        +0x6 /* 00002744 */
label00002740:
00002740  426D A566                clr.w      [A5 - 0x5A9A]
label00002744:
00002744  486D A5C4                pea.l      [A5 - 0x5A3C]
00002748  A928                     syscall    InvalRect
0000274A  4E75                     rts
0000274C  FEC4 FED6                .extension 0xEC4 <<F/2-3/7>> // unimplemented
00002750  FF16                     .extension 0xF16 <<F/4-5/7>> // unimplemented
00002752  FF32                     .extension 0xF32 <<F/4-5/7>> // unimplemented
00002754  FF44                     .extension 0xF44 <<F/4-5/7>> // unimplemented
00002756  FF72                     .extension 0xF72 <<F/4-5/7>> // unimplemented
00002758  FF7E                     .extension 0xF7E <<F/4-5/7>> // unimplemented
0000275A  FFAA                     .invalid   <<F/6/7>>
0000275C  FFD2                     .invalid   <<F/7/7>>
export_70:
0000275E  302D A566                move.w     D0, [A5 - 0x5A9A]
00002762  526D A566                addq.w     [A5 - 0x5A9A], 1
00002766  4A40                     tst.w      D0
00002768  6708                     beq        +0xA /* 00002772 */
0000276A  6B2E                     bmi        +0x30 /* 0000279A */
0000276C  5540                     subq.w     D0, 2
0000276E  6A2A                     bpl        +0x2C /* 0000279A */
00002770  6010                     bra        +0x12 /* 00002782 */
label00002772:
00002772  486D 0222                pea.l      [A5 + 0x222 /* export_64, CODE:3 @ 00002138 */]
00002776  3F3C 0001                move.w     -[A7], 0x1
0000277A  4EBA 002A                jsr        [PC + 0x2A /* 000027A6 */]
0000277E  5C8F                     addq.l     A7, 6
00002780  601C                     bra        +0x1E /* 0000279E */
label00002782:
00002782  1F3C 0002                move.b     -[A7], 0x2
00002786  486D A5C4                pea.l      [A5 - 0x5A3C]
0000278A  206D A3E2                movea.l    A0, [A5 - 0x5C1E]
0000278E  4E90                     jsr        [A0]
00002790  3B7C 001E A568           move.w     [A5 - 0x5A98], 0x1E
00002796  5C8F                     addq.l     A7, 6
00002798  6004                     bra        +0x6 /* 0000279E */
label0000279A:
0000279A  426D A566                clr.w      [A5 - 0x5A9A]
label0000279E:
0000279E  486D A5C4                pea.l      [A5 - 0x5A3C]
000027A2  A928                     syscall    InvalRect
000027A4  4E75                     rts
export_71:
fn000027A6:
000027A6  4E56 0000                link       A6, 0
000027AA  4EBA E7A2                jsr        [PC - 0x185E /* 00000F4E */]
000027AE  2F3C 0006 03B6           move.l     -[A7], 0x603B6
000027B4  4EBA E0AC                jsr        [PC - 0x1F54 /* 00000862 */]
000027B8  3B7C 0001 F228           move.w     [A5 - 0xDD8], 0x1
000027BE  2B6D A5C4 A2E4           move.l     [A5 - 0x5D1C], [A5 - 0x5A3C]
000027C4  2B6D A5C8 A2E8           move.l     [A5 - 0x5D18], [A5 - 0x5A38]
000027CA  1EBC 0002                move.b     [A7], 0x2
000027CE  486D A5C4                pea.l      [A5 - 0x5A3C]
000027D2  206D A3E2                movea.l    A0, [A5 - 0x5C1E]
000027D6  4E90                     jsr        [A0]
000027D8  7001                     moveq.l    D0, 0x01
000027DA  2E80                     move.l     [A7], D0
000027DC  42A7                     clr.l      -[A7]
000027DE  3F3C 0006                move.w     -[A7], 0x6
000027E2  4EAD 04E2                jsr        [A5 + 0x4E2 /* export_152, CODE:4 @ 00004986 */]
000027E6  3EBC 0006                move.w     [A7], 0x6
000027EA  4EBA E1F4                jsr        [PC - 0x1E0C /* 000009E0 */]
000027EE  2EBC 0003 0320           move.l     [A7], 0x30320
000027F4  4EBA E06C                jsr        [PC - 0x1F94 /* 00000862 */]
000027F8  302E 0008                move.w     D0, [A6 + 0x8]
000027FC  4FEF 000E                lea.l      A7, [A7 + 0xE]
00002800  6708                     beq        +0xA /* 0000280A */
00002802  6B20                     bmi        +0x22 /* 00002824 */
00002804  5540                     subq.w     D0, 2
00002806  6A1C                     bpl        +0x1E /* 00002824 */
00002808  600E                     bra        +0x10 /* 00002818 */
label0000280A:
0000280A  2F3C 0004 0352           move.l     -[A7], 0x40352
00002810  4EBA E050                jsr        [PC - 0x1FB0 /* 00000862 */]
00002814  588F                     addq.l     A7, 4
00002816  600C                     bra        +0xE /* 00002824 */
label00002818:
00002818  2F3C 0004 0384           move.l     -[A7], 0x40384
0000281E  4EBA E042                jsr        [PC - 0x1FBE /* 00000862 */]
00002822  588F                     addq.l     A7, 4
label00002824:
00002824  2F3C 0007 03C0           move.l     -[A7], 0x703C0
0000282A  4EBA E036                jsr        [PC - 0x1FCA /* 00000862 */]
0000282E  426D A570                clr.w      [A5 - 0x5A90]
00002832  426D A572                clr.w      [A5 - 0x5A8E]
00002836  422D A56A                clr.b      [A5 - 0x5A96]
0000283A  2B6E 000A A574           move.l     [A5 - 0x5A8C], [A6 + 0xA]
00002840  206D A574                movea.l    A0, [A5 - 0x5A8C]
00002844  4E90                     jsr        [A0]
00002846  1B7C 0001 9645           move.b     [A5 - 0x69BB], 0x1
0000284C  4EAD 00EA                jsr        [A5 + 0xEA /* export_25, CODE:2 @ 00002A18 */]
00002850  422D B97C                clr.b      [A5 - 0x4684]
00002854  422D B96A                clr.b      [A5 - 0x4696]
00002858  7000                     moveq.l    D0, 0x00
0000285A  103C 0000                move.b     D0, 0x0
0000285E  3B40 BAA4                move.w     [A5 - 0x455C], D0
00002862  3B40 BA9E                move.w     [A5 - 0x4562], D0
00002866  3B7C FFFF BA9C           move.w     [A5 - 0x4564], 0xFFFF
0000286C  3B7C FFFF A90E           move.w     [A5 - 0x56F2], 0xFFFF
00002872  4EAD 046A                jsr        [A5 + 0x46A /* export_137, CODE:4 @ 0000269A */]
00002876  206D A574                movea.l    A0, [A5 - 0x5A8C]
0000287A  4E90                     jsr        [A0]
0000287C  4EBA F456                jsr        [PC - 0xBAA /* 00001CD4 */]
00002880  422D A5BE                clr.b      [A5 - 0x5A42]
00002884  3B6D 9648 A578           move.w     [A5 - 0x5A88], [A5 - 0x69B8]
0000288A  3B7C 0003 9648           move.w     [A5 - 0x69B8], 0x3
00002890  486D A5C4                pea.l      [A5 - 0x5A3C]
00002894  A928                     syscall    InvalRect
00002896  4E5E                     unlink     A6
00002898  4E75                     rts
fn0000289A:
0000289A  4E56 FFE0                link       A6, -0x0020
0000289E  48E7 0700                movem.l    -[A7], D5,D6,D7
000028A2  4AAD A554                tst.l      [A5 - 0x5AAC]
000028A6  675E                     beq        +0x60 /* 00002906 */
000028A8  4A6D BA8C                tst.w      [A5 - 0x4574]
000028AC  6F12                     ble        +0x14 /* 000028C0 */
000028AE  7EFF                     moveq.l    D7, 0xFFFFFFFF
000028B0  DE2D BA8D                add.b      D7, [A5 - 0x4573]
000028B4  3C2D BA80                move.w     D6, [A5 - 0x4580]
000028B8  48C6                     ext.l      D6
000028BA  8DFC 000C                divs.w     D6, 0xC
000028BE  6004                     bra        +0x6 /* 000028C4 */
label000028C0:
000028C0  7C00                     moveq.l    D6, 0x00
000028C2  1E06                     move.b     D7, D6
label000028C4:
000028C4  7A00                     moveq.l    D5, 0x00
000028C6  6038                     bra        +0x3A /* 00002900 */
label000028C8:
000028C8  206D A554                movea.l    A0, [A5 - 0x5AAC]
000028CC  2005                     move.l     D0, D5
000028CE  48C0                     ext.l      D0
000028D0  EB88                     lsl        D0, 5
000028D2  D090                     add.l      D0, [A0]
000028D4  2240                     movea.l    A1, D0
000028D6  41EE FFE0                lea.l      A0, [A6 - 0x20]
000028DA  7007                     moveq.l    D0, 0x07
label000028DC:
000028DC  20D9                     move.l     [A0]+, [A1]+
000028DE  51C8 FFFC                dbf        D0, -0x6 /* 000028DC */
000028E2  4A2E FFE0                tst.b      [A6 - 0x20]
000028E6  6712                     beq        +0x14 /* 000028FA */
000028E8  BE2E FFF6                cmp.b      D7, [A6 - 0xA]
000028EC  6E0C                     bgt        +0xE /* 000028FA */
000028EE  BE2E FFF6                cmp.b      D7, [A6 - 0xA]
000028F2  660A                     bne        +0xC /* 000028FE */
000028F4  BC2E FFF7                cmp.b      D6, [A6 - 0x9]
000028F8  6F04                     ble        +0x6 /* 000028FE */
label000028FA:
000028FA  7001                     moveq.l    D0, 0x01
000028FC  600A                     bra        +0xC /* 00002908 */
label000028FE:
000028FE  5245                     addq.w     D5, 1
label00002900:
00002900  0C45 0006                cmpi.w     D5, 0x6
00002904  6DC2                     blt        -0x3C /* 000028C8 */
label00002906:
00002906  7000                     moveq.l    D0, 0x00
label00002908:
00002908  4CDF 00E0                movem.l    D5,D6,D7, [A7]+
0000290C  4E5E                     unlink     A6
0000290E  4E75                     rts
fn00002910:
00002910  4E56 FF70                link       A6, -0x0090
00002914  48E7 0F08                movem.l    -[A7], D4,D5,D6,D7,A4
00002918  4AAD A554                tst.l      [A5 - 0x5AAC]
0000291C  6700 01E8                beq        +0x1EA /* 00002B06 */
00002920  4A6D BA8C                tst.w      [A5 - 0x4574]
00002924  6F12                     ble        +0x14 /* 00002938 */
00002926  7CFF                     moveq.l    D6, 0xFFFFFFFF
00002928  DC2D BA8D                add.b      D6, [A5 - 0x4573]
0000292C  3A2D BA80                move.w     D5, [A5 - 0x4580]
00002930  48C5                     ext.l      D5
00002932  8BFC 000C                divs.w     D5, 0xC
00002936  6004                     bra        +0x6 /* 0000293C */
label00002938:
00002938  7A00                     moveq.l    D5, 0x00
0000293A  1C05                     move.b     D6, D5
label0000293C:
0000293C  78FF                     moveq.l    D4, 0xFFFFFFFF
0000293E  7E00                     moveq.l    D7, 0x00
00002940  6038                     bra        +0x3A /* 0000297A */
label00002942:
00002942  206D A554                movea.l    A0, [A5 - 0x5AAC]
00002946  2007                     move.l     D0, D7
00002948  48C0                     ext.l      D0
0000294A  EB88                     lsl        D0, 5
0000294C  D090                     add.l      D0, [A0]
0000294E  2240                     movea.l    A1, D0
00002950  41EE FFE0                lea.l      A0, [A6 - 0x20]
00002954  7007                     moveq.l    D0, 0x07
label00002956:
00002956  20D9                     move.l     [A0]+, [A1]+
00002958  51C8 FFFC                dbf        D0, -0x6 /* 00002956 */
0000295C  4A2E FFE0                tst.b      [A6 - 0x20]
00002960  6712                     beq        +0x14 /* 00002974 */
00002962  BC2E FFF6                cmp.b      D6, [A6 - 0xA]
00002966  6E0C                     bgt        +0xE /* 00002974 */
00002968  BC2E FFF6                cmp.b      D6, [A6 - 0xA]
0000296C  660A                     bne        +0xC /* 00002978 */
0000296E  BA2E FFF7                cmp.b      D5, [A6 - 0x9]
00002972  6F04                     ble        +0x6 /* 00002978 */
label00002974:
00002974  3807                     move.w     D4, D7
00002976  6008                     bra        +0xA /* 00002980 */
label00002978:
00002978  5247                     addq.w     D7, 1
label0000297A:
0000297A  0C47 0006                cmpi.w     D7, 0x6
0000297E  6DC2                     blt        -0x3C /* 00002942 */
label00002980:
00002980  4A44                     tst.w      D4
00002982  6D00 0182                blt        +0x184 /* 00002B06 */
00002986  42A7                     clr.l      -[A7]
00002988  3F3C 03EA                move.w     -[A7], 0x3EA
0000298C  42A7                     clr.l      -[A7]
0000298E  4878 FFFF                push.l     0xFFFF
00002992  A97C                     syscall    GetNewDialog
00002994  285F                     movea.l    A4, [A7]+
00002996  200C                     move.l     D0, A4
00002998  6700 016C                beq        +0x16E /* 00002B06 */
label0000299C:
0000299C  486D 00B2                pea.l      [A5 + 0xB2 /* export_18, CODE:2 @ 000026A4 */]
000029A0  486E FFBE                pea.l      [A6 - 0x42]
000029A4  A991                     syscall    ModalDialog
000029A6  2F0C                     move.l     -[A7], A4
000029A8  3F3C 0005                move.w     -[A7], 0x5
000029AC  486E FFBC                pea.l      [A6 - 0x44]
000029B0  486E FFB8                pea.l      [A6 - 0x48]
000029B4  486E FFB0                pea.l      [A6 - 0x50]
000029B8  A98D                     syscall    GetDialogItem/GetDItem
000029BA  2F2E FFB8                move.l     -[A7], [A6 - 0x48]
000029BE  486E FF70                pea.l      [A6 - 0x90]
000029C2  A990                     syscall    GetDialogItemText/GetIText
000029C4  0C2E 0014 FF70           cmpi.b     [A6 - 0x90], 0x14
000029CA  6F16                     ble        +0x18 /* 000029E2 */
000029CC  1D7C 0014 FF70           move.b     [A6 - 0x90], 0x14
000029D2  2F2E FFB8                move.l     -[A7], [A6 - 0x48]
000029D6  486E FF70                pea.l      [A6 - 0x90]
000029DA  A98F                     syscall    SetDialogItemText/SetIText
000029DC  3F3C 0001                move.w     -[A7], 0x1
000029E0  A9C8                     syscall    SysBeep
label000029E2:
000029E2  0C6E 0001 FFBE           cmpi.w     [A6 - 0x42], 0x1
000029E8  6708                     beq        +0xA /* 000029F2 */
000029EA  0C6E 0002 FFBE           cmpi.w     [A6 - 0x42], 0x2
000029F0  66AA                     bne        -0x54 /* 0000299C */
label000029F2:
000029F2  2F0C                     move.l     -[A7], A4
000029F4  A983                     syscall    DisposeDialog
000029F6  4A2E FF70                tst.b      [A6 - 0x90]
000029FA  6700 010A                beq        +0x10C /* 00002B06 */
000029FE  0C6E 0002 FFBE           cmpi.w     [A6 - 0x42], 0x2
00002A04  6700 0100                beq        +0x102 /* 00002B06 */
00002A08  7E00                     moveq.l    D7, 0x00
00002A0A  6006                     bra        +0x8 /* 00002A12 */
label00002A0C:
00002A0C  4236 70C0                clr.b      [A6 + D7.w - 0x40]
00002A10  5247                     addq.w     D7, 1
label00002A12:
00002A12  0C47 0020                cmpi.w     D7, 0x20 /* ' ' */
00002A16  65F4                     bcs        -0xA /* 00002A0C */
00002A18  7E00                     moveq.l    D7, 0x00
00002A1A  4A2D 9618                tst.b      [A5 - 0x69E8]
00002A1E  6704                     beq        +0x6 /* 00002A24 */
00002A20  0047 0080                ori.w      D7, 0x80
label00002A24:
00002A24  4A2D 9619                tst.b      [A5 - 0x69E7]
00002A28  6704                     beq        +0x6 /* 00002A2E */
00002A2A  0047 0040                ori.w      D7, 0x40 /* '@' */
label00002A2E:
00002A2E  4A2D 965C                tst.b      [A5 - 0x69A4]
00002A32  6704                     beq        +0x6 /* 00002A38 */
00002A34  0047 0020                ori.w      D7, 0x20 /* ' ' */
label00002A38:
00002A38  4A2D 965A                tst.b      [A5 - 0x69A6]
00002A3C  6704                     beq        +0x6 /* 00002A42 */
00002A3E  0047 0010                ori.w      D7, 0x10
label00002A42:
00002A42  4A2D A208                tst.b      [A5 - 0x5DF8]
00002A46  6704                     beq        +0x6 /* 00002A4C */
00002A48  0047 0008                ori.w      D7, 0x8
label00002A4C:
00002A4C  4A2D A209                tst.b      [A5 - 0x5DF7]
00002A50  6704                     beq        +0x6 /* 00002A56 */
00002A52  0047 0004                ori.w      D7, 0x4
label00002A56:
00002A56  4A2D A20A                tst.b      [A5 - 0x5DF6]
00002A5A  6704                     beq        +0x6 /* 00002A60 */
00002A5C  0047 0002                ori.w      D7, 0x2
label00002A60:
00002A60  41EE FF70                lea.l      A0, [A6 - 0x90]
00002A64  43EE FFC0                lea.l      A1, [A6 - 0x40]
00002A68  102E FF70                move.b     D0, [A6 - 0x90]
00002A6C  4880                     ext.w      D0
00002A6E  5240                     addq.w     D0, 1
00002A70  48C0                     ext.l      D0
00002A72  A02E                     syscall    BlockMove/BlockMoveData
00002A74  1D46 FFD6                move.b     [A6 - 0x2A], D6
00002A78  1D45 FFD7                move.b     [A6 - 0x29], D5
00002A7C  1D47 FFD8                move.b     [A6 - 0x28], D7
00002A80  1D6D BA49 FFD9           move.b     [A6 - 0x27], [A5 - 0x45B7]
00002A86  1D6D 9635 FFDA           move.b     [A6 - 0x26], [A5 - 0x69CB]
00002A8C  1D6D 9637 FFDB           move.b     [A6 - 0x25], [A5 - 0x69C9]
00002A92  2D6D 9638 FFDC           move.l     [A6 - 0x24], [A5 - 0x69C8]
00002A98  3E04                     move.w     D7, D4
00002A9A  6046                     bra        +0x48 /* 00002AE2 */
label00002A9C:
00002A9C  206D A554                movea.l    A0, [A5 - 0x5AAC]
00002AA0  2007                     move.l     D0, D7
00002AA2  48C0                     ext.l      D0
00002AA4  EB88                     lsl        D0, 5
00002AA6  D090                     add.l      D0, [A0]
00002AA8  2240                     movea.l    A1, D0
00002AAA  41EE FFE0                lea.l      A0, [A6 - 0x20]
00002AAE  7007                     moveq.l    D0, 0x07
label00002AB0:
00002AB0  20D9                     move.l     [A0]+, [A1]+
00002AB2  51C8 FFFC                dbf        D0, -0x6 /* 00002AB0 */
00002AB6  206D A554                movea.l    A0, [A5 - 0x5AAC]
00002ABA  2007                     move.l     D0, D7
00002ABC  48C0                     ext.l      D0
00002ABE  EB88                     lsl        D0, 5
00002AC0  D090                     add.l      D0, [A0]
00002AC2  2240                     movea.l    A1, D0
00002AC4  41EE FFC0                lea.l      A0, [A6 - 0x40]
00002AC8  7007                     moveq.l    D0, 0x07
label00002ACA:
00002ACA  22D8                     move.l     [A1]+, [A0]+
00002ACC  51C8 FFFC                dbf        D0, -0x6 /* 00002ACA */
00002AD0  41EE FFC0                lea.l      A0, [A6 - 0x40]
00002AD4  43EE FFE0                lea.l      A1, [A6 - 0x20]
00002AD8  7007                     moveq.l    D0, 0x07
label00002ADA:
00002ADA  20D9                     move.l     [A0]+, [A1]+
00002ADC  51C8 FFFC                dbf        D0, -0x6 /* 00002ADA */
00002AE0  5247                     addq.w     D7, 1
label00002AE2:
00002AE2  0C47 000A                cmpi.w     D7, 0xA /* '\n' */
00002AE6  6DB4                     blt        -0x4A /* 00002A9C */
00002AE8  526D A558                addq.w     [A5 - 0x5AA8], 1
00002AEC  2F2D A554                move.l     -[A7], [A5 - 0x5AAC]
00002AF0  A9AA                     syscall    ChangedResource
00002AF2  4267                     clr.w      -[A7]
00002AF4  A9AF                     syscall    ResError
00002AF6  3B5F A16C                move.w     [A5 - 0x5E94], [A7]+
00002AFA  4A6D A16C                tst.w      [A5 - 0x5E94]
00002AFE  6606                     bne        +0x8 /* 00002B06 */
00002B00  2F2D A554                move.l     -[A7], [A5 - 0x5AAC]
00002B04  A9B0                     syscall    WriteResource
label00002B06:
00002B06  4CDF 10F0                movem.l    D4,D5,D6,D7,A4, [A7]+
00002B0A  4E5E                     unlink     A6
00002B0C  4E75                     rts
fn00002B0E:
00002B0E  4E56 FFDE                link       A6, -0x0022
00002B12  48E7 0700                movem.l    -[A7], D5,D6,D7
00002B16  4AAD A554                tst.l      [A5 - 0x5AAC]
00002B1A  6700 00CA                beq        +0xCC /* 00002BE6 */
00002B1E  486D A0B6                pea.l      [A5 - 0x5F4A]
00002B22  A874                     syscall    GetPort
00002B24  486D A25E                pea.l      [A5 - 0x5DA2]
00002B28  A873                     syscall    SetPort
00002B2A  3C2D A600                move.w     D6, [A5 - 0x5A00]
00002B2E  7E00                     moveq.l    D7, 0x00
00002B30  6000 00A6                bra        +0xA8 /* 00002BD8 */
label00002B34:
00002B34  206D A554                movea.l    A0, [A5 - 0x5AAC]
00002B38  2007                     move.l     D0, D7
00002B3A  48C0                     ext.l      D0
00002B3C  EB88                     lsl        D0, 5
00002B3E  D090                     add.l      D0, [A0]
00002B40  2240                     movea.l    A1, D0
00002B42  41EE FFE0                lea.l      A0, [A6 - 0x20]
00002B46  7007                     moveq.l    D0, 0x07
label00002B48:
00002B48  20D9                     move.l     [A0]+, [A1]+
00002B4A  51C8 FFFC                dbf        D0, -0x6 /* 00002B48 */
00002B4E  4A2E FFE0                tst.b      [A6 - 0x20]
00002B52  6700 008C                beq        +0x8E /* 00002BE0 */
00002B56  486E FFE0                pea.l      [A6 - 0x20]
00002B5A  1F3C 0001                move.b     -[A7], 0x1
00002B5E  4EAD 0182                jsr        [A5 + 0x182 /* export_44, CODE:2 @ 000041BC */]
00002B62  3F2D A5FE                move.w     -[A7], [A5 - 0x5A02]
00002B66  3F06                     move.w     -[A7], D6
00002B68  A893                     syscall    MoveTo
00002B6A  486E FFE0                pea.l      [A6 - 0x20]
00002B6E  A884                     syscall    DrawString
00002B70  102E FFF6                move.b     D0, [A6 - 0xA]
00002B74  4880                     ext.w      D0
00002B76  3F00                     move.w     -[A7], D0
00002B78  4EAD 007A                jsr        [A5 + 0x7A /* export_11, CODE:2 @ 00002268 */]
00002B7C  1B40 9761                move.b     [A5 - 0x689F], D0
00002B80  102E FFF6                move.b     D0, [A6 - 0xA]
00002B84  4880                     ext.w      D0
00002B86  3E80                     move.w     [A7], D0
00002B88  4EAD 008A                jsr        [A5 + 0x8A /* export_13, CODE:2 @ 000022B4 */]
00002B8C  1B40 9762                move.b     [A5 - 0x689E], D0
00002B90  102E FFF7                move.b     D0, [A6 - 0x9]
00002B94  4880                     ext.w      D0
00002B96  3E80                     move.w     [A7], D0
00002B98  4EAD 0082                jsr        [A5 + 0x82 /* export_12, CODE:2 @ 00002292 */]
00002B9C  1B40 9764                move.b     [A5 - 0x689C], D0
00002BA0  102E FFF7                move.b     D0, [A6 - 0x9]
00002BA4  4880                     ext.w      D0
00002BA6  3E80                     move.w     [A7], D0
00002BA8  4EAD 008A                jsr        [A5 + 0x8A /* export_13, CODE:2 @ 000022B4 */]
00002BAC  1B40 9765                move.b     [A5 - 0x689B], D0
00002BB0  4257                     clr.w      [A7]
00002BB2  486D 9760                pea.l      [A5 - 0x68A0]
00002BB6  A88C                     syscall    StringWidth
00002BB8  3A1F                     move.w     D5, [A7]+
00002BBA  302D A602                move.w     D0, [A5 - 0x59FE]
00002BBE  9045                     sub.w      D0, D5
00002BC0  3F00                     move.w     -[A7], D0
00002BC2  3F06                     move.w     -[A7], D6
00002BC4  A893                     syscall    MoveTo
00002BC6  486D 9760                pea.l      [A5 - 0x68A0]
00002BCA  A884                     syscall    DrawString
00002BCC  302D A600                move.w     D0, [A5 - 0x5A00]
00002BD0  906D A5FC                sub.w      D0, [A5 - 0x5A04]
00002BD4  DC40                     add.w      D6, D0
00002BD6  5247                     addq.w     D7, 1
label00002BD8:
00002BD8  0C47 0006                cmpi.w     D7, 0x6
00002BDC  6D00 FF56                blt        -0xA8 /* 00002B34 */
label00002BE0:
00002BE0  2F2D A0B6                move.l     -[A7], [A5 - 0x5F4A]
00002BE4  A873                     syscall    SetPort
label00002BE6:
00002BE6  4CDF 00E0                movem.l    D5,D6,D7, [A7]+
00002BEA  4E5E                     unlink     A6
00002BEC  4E75                     rts
fn00002BEE:
00002BEE  4E56 0000                link       A6, 0
00002BF2  48E7 0108                movem.l    -[A7], D7,A4
00002BF6  286E 0008                movea.l    A4, [A6 + 0x8]
00002BFA  3E2E 000C                move.w     D7, [A6 + 0xC]
00002BFE  1B54 B946                move.b     [A5 - 0x46BA], [A4]
00002C02  1B6C 0001 B947           move.b     [A5 - 0x46B9], [A4 + 0x1]
00002C08  1B6C 0002 B948           move.b     [A5 - 0x46B8], [A4 + 0x2]
00002C0E  1B6C 0003 B949           move.b     [A5 - 0x46B7], [A4 + 0x3]
00002C14  1B6C 0004 B94A           move.b     [A5 - 0x46B6], [A4 + 0x4]
00002C1A  1B6C 0005 B94B           move.b     [A5 - 0x46B5], [A4 + 0x5]
00002C20  1B6C 0006 B94C           move.b     [A5 - 0x46B4], [A4 + 0x6]
00002C26  3F07                     move.w     -[A7], D7
00002C28  4EAD 0552                jsr        [A5 + 0x552 /* export_166, CODE:4 @ 00000000 */]
00002C2C  1B7C 0001 B951           move.b     [A5 - 0x46AF], 0x1
00002C32  426D BA5A                clr.w      [A5 - 0x45A6]
00002C36  3B7C 0003 BA20           move.w     [A5 - 0x45E0], 0x3
00002C3C  7004                     moveq.l    D0, 0x04
00002C3E  3B40 BA4E                move.w     [A5 - 0x45B2], D0
00002C42  3B40 BA4C                move.w     [A5 - 0x45B4], D0
00002C46  3B40 BA52                move.w     [A5 - 0x45AE], D0
00002C4A  4EBA 186C                jsr        [PC + 0x186C /* 000044B8 */]
00002C4E  3B7C 0001 BA2C           move.w     [A5 - 0x45D4], 0x1
00002C54  4CEE 1080 FFF8           movem.l    D7,A4, [A6 - 0x8]
00002C5A  4E5E                     unlink     A6
00002C5C  4E75                     rts
fn00002C5E:
00002C5E  48E7 0700                movem.l    -[A7], D5,D6,D7
00002C62  426D BA36                clr.w      [A5 - 0x45CA]
00002C66  302D A90C                move.w     D0, [A5 - 0x56F4]
00002C6A  6B00 00DA                bmi        +0xDC /* 00002D46 */
00002C6E  5D40                     subq.w     D0, 6
00002C70  6750                     beq        +0x52 /* 00002CC2 */
00002C72  6A08                     bpl        +0xA /* 00002C7C */
00002C74  5240                     addq.w     D0, 1
00002C76  6A0C                     bpl        +0xE /* 00002C84 */
00002C78  6000 00CC                bra        +0xCE /* 00002D46 */
label00002C7C:
00002C7C  5D40                     subq.w     D0, 6
00002C7E  677A                     beq        +0x7C /* 00002CFA */
00002C80  6000 00C4                bra        +0xC6 /* 00002D46 */
label00002C84:
00002C84  1B6D BA6B B94F           move.b     [A5 - 0x46B1], [A5 - 0x4595]
00002C8A  0C6D 0018 BA6A           cmpi.w     [A5 - 0x4596], 0x18
00002C90  6600 00B4                bne        +0xB6 /* 00002D46 */
00002C94  2F3C 0003 0000           move.l     -[A7], 0x30000
00002C9A  3F3C 0018                move.w     -[A7], 0x18
00002C9E  4EBA 12CE                jsr        [PC + 0x12CE /* 00003F6E */]
00002CA2  7200                     moveq.l    D1, 0x00
00002CA4  1200                     move.b     D1, D0
00002CA6  0C41 000A                cmpi.w     D1, 0xA /* '\n' */
00002CAA  5C8F                     addq.l     A7, 6
00002CAC  6600 021C                bne        +0x21E /* 00002ECA */
00002CB0  3F3C 0002                move.w     -[A7], 0x2
00002CB4  486D A990                pea.l      [A5 - 0x5670]
00002CB8  4EBA FF34                jsr        [PC - 0xCC /* 00002BEE */]
00002CBC  5C8F                     addq.l     A7, 6
00002CBE  6000 020A                bra        +0x20C /* 00002ECA */
label00002CC2:
00002CC2  1B6D BA6B B94F           move.b     [A5 - 0x46B1], [A5 - 0x4595]
00002CC8  0C6D 0001 BA6A           cmpi.w     [A5 - 0x4596], 0x1
00002CCE  6676                     bne        +0x78 /* 00002D46 */
00002CD0  0C6D 004D BA3C           cmpi.w     [A5 - 0x45C4], 0x4D /* 'M' */
00002CD6  6710                     beq        +0x12 /* 00002CE8 */
00002CD8  3F3C 0019                move.w     -[A7], 0x19
00002CDC  4EBA DAD2                jsr        [PC - 0x252E /* 000007B0 */]
00002CE0  3B7C 004D BA3C           move.w     [A5 - 0x45C4], 0x4D /* 'M' */
00002CE6  548F                     addq.l     A7, 2
label00002CE8:
00002CE8  3F3C 0002                move.w     -[A7], 0x2
00002CEC  486D A988                pea.l      [A5 - 0x5678]
00002CF0  4EBA FEFC                jsr        [PC - 0x104 /* 00002BEE */]
00002CF4  5C8F                     addq.l     A7, 6
00002CF6  6000 01D2                bra        +0x1D4 /* 00002ECA */
label00002CFA:
00002CFA  4A6D BA8E                tst.w      [A5 - 0x4572]
00002CFE  6646                     bne        +0x48 /* 00002D46 */
00002D00  0C6D 000F BA6A           cmpi.w     [A5 - 0x4596], 0xF
00002D06  663E                     bne        +0x40 /* 00002D46 */
00002D08  4A6D BA2C                tst.w      [A5 - 0x45D4]
00002D0C  6638                     bne        +0x3A /* 00002D46 */
00002D0E  1B6D BA6B B94F           move.b     [A5 - 0x46B1], [A5 - 0x4595]
00002D14  2F3C 0001 0000           move.l     -[A7], 0x10000
00002D1A  3F3C 000F                move.w     -[A7], 0xF
00002D1E  4EBA 124E                jsr        [PC + 0x124E /* 00003F6E */]
00002D22  7200                     moveq.l    D1, 0x00
00002D24  1200                     move.b     D1, D0
00002D26  0C41 0016                cmpi.w     D1, 0x16
00002D2A  5C8F                     addq.l     A7, 6
00002D2C  6700 019C                beq        +0x19E /* 00002ECA */
00002D30  3F3C 0007                move.w     -[A7], 0x7
00002D34  486D A998                pea.l      [A5 - 0x5668]
00002D38  4EBA FEB4                jsr        [PC - 0x14C /* 00002BEE */]
00002D3C  426D BA2C                clr.w      [A5 - 0x45D4]
00002D40  5C8F                     addq.l     A7, 6
00002D42  6000 0186                bra        +0x188 /* 00002ECA */
label00002D46:
00002D46  7CFF                     moveq.l    D6, 0xFFFFFFFF
00002D48  DC6D BA6A                add.w      D6, [A5 - 0x4596]
00002D4C  204D                     movea.l    A0, A5
00002D4E  D0C6                     add.w      A0, D6
00002D50  7A00                     moveq.l    D5, 0x00
00002D52  1A28 F176                move.b     D5, [A0 - 0xE8A]
00002D56  0C45 001E                cmpi.w     D5, 0x1E
00002D5A  6C00 016E                bge        +0x170 /* 00002ECA */
00002D5E  1B6D BA6B B94F           move.b     [A5 - 0x46B1], [A5 - 0x4595]
00002D64  2005                     move.l     D0, D5
00002D66  48C0                     ext.l      D0
00002D68  81FC 000A                divs.w     D0, 0xA /* '\n' */
00002D6C  1B40 B94B                move.b     [A5 - 0x46B5], D0
00002D70  102D B94B                move.b     D0, [A5 - 0x46B5]
00002D74  4880                     ext.w      D0
00002D76  204D                     movea.l    A0, A5
00002D78  D0C0                     add.w      A0, D0
00002D7A  D0C0                     add.w      A0, D0
00002D7C  1B68 B671 B948           move.b     [A5 - 0x46B8], [A0 - 0x498F]
00002D82  204D                     movea.l    A0, A5
00002D84  D0C6                     add.w      A0, D6
00002D86  1B68 F1A6 B947           move.b     [A5 - 0x46B9], [A0 - 0xE5A]
00002D8C  7000                     moveq.l    D0, 0x00
00002D8E  102D B947                move.b     D0, [A5 - 0x46B9]
00002D92  3F00                     move.w     -[A7], D0
00002D94  4EBA 1644                jsr        [PC + 0x1644 /* 000043DA */]
00002D98  1B40 B94A                move.b     [A5 - 0x46B6], D0
00002D9C  204D                     movea.l    A0, A5
00002D9E  D0C6                     add.w      A0, D6
00002DA0  1B68 F18E B949           move.b     [A5 - 0x46B7], [A0 - 0xE72]
00002DA6  302D A90C                move.w     D0, [A5 - 0x56F4]
00002DAA  204D                     movea.l    A0, A5
00002DAC  D0C0                     add.w      A0, D0
00002DAE  D0C0                     add.w      A0, D0
00002DB0  4A68 A8DC                tst.w      [A0 - 0x5724]
00002DB4  548F                     addq.l     A7, 2
00002DB6  6614                     bne        +0x16 /* 00002DCC */
00002DB8  204D                     movea.l    A0, A5
00002DBA  D0C6                     add.w      A0, D6
00002DBC  7000                     moveq.l    D0, 0x00
00002DBE  1028 F206                move.b     D0, [A0 - 0xDFA]
00002DC2  3B40 BAA6                move.w     [A5 - 0x455A], D0
00002DC6  3B7C 0001 BAA8           move.w     [A5 - 0x4558], 0x1
label00002DCC:
00002DCC  0C6D 0003 A90C           cmpi.w     [A5 - 0x56F4], 0x3
00002DD2  6608                     bne        +0xA /* 00002DDC */
00002DD4  1B7C 0004 B951           move.b     [A5 - 0x46AF], 0x4
00002DDA  6006                     bra        +0x8 /* 00002DE2 */
label00002DDC:
00002DDC  1B7C 0002 B951           move.b     [A5 - 0x46AF], 0x2
label00002DE2:
00002DE2  204D                     movea.l    A0, A5
00002DE4  D0C6                     add.w      A0, D6
00002DE6  4A28 F1EE                tst.b      [A0 - 0xE12]
00002DEA  662A                     bne        +0x2C /* 00002E16 */
00002DEC  0C2D 0004 B951           cmpi.b     [A5 - 0x46AF], 0x4
00002DF2  6612                     bne        +0x14 /* 00002E06 */
00002DF4  1B7C 0002 B952           move.b     [A5 - 0x46AE], 0x2
00002DFA  3F3C 003F                move.w     -[A7], 0x3F /* '?' */
00002DFE  4EAD 0552                jsr        [A5 + 0x552 /* export_166, CODE:4 @ 00000000 */]
00002E02  548F                     addq.l     A7, 2
00002E04  6026                     bra        +0x28 /* 00002E2C */
label00002E06:
00002E06  422D B952                clr.b      [A5 - 0x46AE]
00002E0A  3F3C 004D                move.w     -[A7], 0x4D /* 'M' */
00002E0E  4EAD 0552                jsr        [A5 + 0x552 /* export_166, CODE:4 @ 00000000 */]
00002E12  548F                     addq.l     A7, 2
00002E14  6016                     bra        +0x18 /* 00002E2C */
label00002E16:
00002E16  204D                     movea.l    A0, A5
00002E18  D0C6                     add.w      A0, D6
00002E1A  7000                     moveq.l    D0, 0x00
00002E1C  1028 F1BE                move.b     D0, [A0 - 0xE42]
00002E20  204D                     movea.l    A0, A5
00002E22  E588                     lsl        D0, 2
00002E24  D1C0                     add.l      A0, D0
00002E26  2B68 FCE4 B954           move.l     [A5 - 0x46AC], [A0 - 0x31C]
label00002E2C:
00002E2C  4EBA 1418                jsr        [PC + 0x1418 /* 00004246 */]
00002E30  204D                     movea.l    A0, A5
00002E32  D0C6                     add.w      A0, D6
00002E34  7000                     moveq.l    D0, 0x00
00002E36  1028 F1D6                move.b     D0, [A0 - 0xE2A]
00002E3A  3B40 BA20                move.w     [A5 - 0x45E0], D0
00002E3E  0C40 000C                cmpi.w     D0, 0xC
00002E42  6D06                     blt        +0x8 /* 00002E4A */
00002E44  3B7C 0003 BA20           move.w     [A5 - 0x45E0], 0x3
label00002E4A:
00002E4A  302D A90C                move.w     D0, [A5 - 0x56F4]
00002E4E  204D                     movea.l    A0, A5
00002E50  D0C0                     add.w      A0, D0
00002E52  7200                     moveq.l    D1, 0x00
00002E54  1228 A978                move.b     D1, [A0 - 0x5688]
00002E58  342D BA20                move.w     D2, [A5 - 0x45E0]
00002E5C  204D                     movea.l    A0, A5
00002E5E  D0C2                     add.w      A0, D2
00002E60  7000                     moveq.l    D0, 0x00
00002E62  1028 A96C                move.b     D0, [A0 - 0x5694]
00002E66  D240                     add.w      D1, D0
00002E68  3B41 BA4E                move.w     [A5 - 0x45B2], D1
00002E6C  7C00                     moveq.l    D6, 0x00
00002E6E  1C2D B946                move.b     D6, [A5 - 0x46BA]
00002E72  0C46 00B9                cmpi.w     D6, 0xB9
00002E76  670C                     beq        +0xE /* 00002E84 */
00002E78  0C46 00B1                cmpi.w     D6, 0xB1
00002E7C  6706                     beq        +0x8 /* 00002E84 */
00002E7E  0C46 00B2                cmpi.w     D6, 0xB2
00002E82  6610                     bne        +0x12 /* 00002E94 */
label00002E84:
00002E84  1B7C 0001 B953           move.b     [A5 - 0x46AD], 0x1
00002E8A  426D BA4C                clr.w      [A5 - 0x45B4]
00002E8E  426D BA52                clr.w      [A5 - 0x45AE]
00002E92  601E                     bra        +0x20 /* 00002EB2 */
label00002E94:
00002E94  1B7C 00FF B953           move.b     [A5 - 0x46AD], 0xFF
00002E9A  302D BA4E                move.w     D0, [A5 - 0x45B2]
00002E9E  3B40 BA4C                move.w     [A5 - 0x45B4], D0
00002EA2  3B40 BA52                move.w     [A5 - 0x45AE], D0
00002EA6  426D BA2A                clr.w      [A5 - 0x45D6]
00002EAA  426D BA8A                clr.w      [A5 - 0x4576]
00002EAE  426D BA56                clr.w      [A5 - 0x45AA]
label00002EB2:
00002EB2  422D B94E                clr.b      [A5 - 0x46B2]
00002EB6  422D B94D                clr.b      [A5 - 0x46B3]
00002EBA  1B7C 0001 B94C           move.b     [A5 - 0x46B4], 0x1
00002EC0  4EBA 15F6                jsr        [PC + 0x15F6 /* 000044B8 */]
00002EC4  3B7C 0001 BA2C           move.w     [A5 - 0x45D4], 0x1
label00002ECA:
00002ECA  4CDF 00E0                movem.l    D5,D6,D7, [A7]+
00002ECE  4E75                     rts
fn00002ED0:
00002ED0  2F07                     move.l     -[A7], D7
00002ED2  7E00                     moveq.l    D7, 0x00
00002ED4  1E2D B97E                move.b     D7, [A5 - 0x4682]
00002ED8  0C2D 0056 B97F           cmpi.b     [A5 - 0x4681], 0x56 /* 'V' */
00002EDE  6700 0090                beq        +0x92 /* 00002F70 */
00002EE2  0C47 00D3                cmpi.w     D7, 0xD3
00002EE6  6D00 0088                blt        +0x8A /* 00002F70 */
00002EEA  0C2D 0001 B987           cmpi.b     [A5 - 0x4679], 0x1
00002EF0  6616                     bne        +0x18 /* 00002F08 */
00002EF2  0C2D 0004 B982           cmpi.b     [A5 - 0x467E], 0x4
00002EF8  6676                     bne        +0x78 /* 00002F70 */
00002EFA  4EBA 15A8                jsr        [PC + 0x15A8 /* 000044A4 */]
00002EFE  4EBA 27A2                jsr        [PC + 0x27A2 /* 000056A2 */]
00002F02  4EBA 15B4                jsr        [PC + 0x15B4 /* 000044B8 */]
00002F06  6068                     bra        +0x6A /* 00002F70 */
label00002F08:
00002F08  0C2D 0004 B987           cmpi.b     [A5 - 0x4679], 0x4
00002F0E  6638                     bne        +0x3A /* 00002F48 */
00002F10  102D B985                move.b     D0, [A5 - 0x467B]
00002F14  4880                     ext.w      D0
00002F16  204D                     movea.l    A0, A5
00002F18  48C0                     ext.l      D0
00002F1A  E588                     lsl        D0, 2
00002F1C  D1C0                     add.l      A0, D0
00002F1E  1B68 F0BD B985           move.b     [A5 - 0x467B], [A0 - 0xF43]
00002F24  0C2D 0003 B985           cmpi.b     [A5 - 0x467B], 0x3
00002F2A  661C                     bne        +0x1E /* 00002F48 */
00002F2C  1B7C 0085 B97D           move.b     [A5 - 0x4683], 0x85
00002F32  1B7C 0001 B981           move.b     [A5 - 0x467F], 0x1
00002F38  422D B97F                clr.b      [A5 - 0x4681]
00002F3C  1B7C 00FF B989           move.b     [A5 - 0x4677], 0xFF
00002F42  4EBA 0030                jsr        [PC + 0x30 /* 00002F74 */]
00002F46  6028                     bra        +0x2A /* 00002F70 */
label00002F48:
00002F48  4EBA 26FA                jsr        [PC + 0x26FA /* 00005644 */]
00002F4C  302D BA6A                move.w     D0, [A5 - 0x4596]
00002F50  204D                     movea.l    A0, A5
00002F52  D0C0                     add.w      A0, D0
00002F54  117C 001E F175           move.b     [A0 - 0xE8B], 0x1E
00002F5A  1B7C 0056 B97F           move.b     [A5 - 0x4681], 0x56 /* 'V' */
00002F60  3F2D BA4C                move.w     -[A7], [A5 - 0x45B4]
00002F64  4267                     clr.w      -[A7]
00002F66  4EBA D6AC                jsr        [PC - 0x2954 /* 00000614 */]
00002F6A  426D BA4C                clr.w      [A5 - 0x45B4]
00002F6E  588F                     addq.l     A7, 4
label00002F70:
00002F70  2E1F                     move.l     D7, [A7]+
00002F72  4E75                     rts
fn00002F74:
00002F74  48E7 0300                movem.l    -[A7], D6,D7
00002F78  0C2D 0056 B97F           cmpi.b     [A5 - 0x4681], 0x56 /* 'V' */
00002F7E  6700 00CA                beq        +0xCC /* 0000304A */
00002F82  0C2D 0001 B987           cmpi.b     [A5 - 0x4679], 0x1
00002F88  6700 00C0                beq        +0xC2 /* 0000304A */
00002F8C  0C2D 0018 B987           cmpi.b     [A5 - 0x4679], 0x18
00002F92  6700 00B6                beq        +0xB8 /* 0000304A */
00002F96  1E2D B985                move.b     D7, [A5 - 0x467B]
00002F9A  4887                     ext.w      D7
00002F9C  5347                     subq.w     D7, 1
00002F9E  102D B981                move.b     D0, [A5 - 0x467F]
00002FA2  4880                     ext.w      D0
00002FA4  3F00                     move.w     -[A7], D0
00002FA6  4267                     clr.w      -[A7]
00002FA8  4EBA 109A                jsr        [PC + 0x109A /* 00004044 */]
00002FAC  204D                     movea.l    A0, A5
00002FAE  D0C7                     add.w      A0, D7
00002FB0  1140 F176                move.b     [A0 - 0xE8A], D0
00002FB4  204D                     movea.l    A0, A5
00002FB6  D0C7                     add.w      A0, D7
00002FB8  116D BAA7 F206           move.b     [A0 - 0xDFA], [A5 - 0x4559]
00002FBE  204D                     movea.l    A0, A5
00002FC0  D0C7                     add.w      A0, D7
00002FC2  116D B97D F1A6           move.b     [A0 - 0xE5A], [A5 - 0x4683]
00002FC8  204D                     movea.l    A0, A5
00002FCA  D0C7                     add.w      A0, D7
00002FCC  116D B97F F18E           move.b     [A0 - 0xE72], [A5 - 0x4681]
00002FD2  204D                     movea.l    A0, A5
00002FD4  D0C7                     add.w      A0, D7
00002FD6  116D BA21 F1D6           move.b     [A0 - 0xE2A], [A5 - 0x45DF]
00002FDC  7C00                     moveq.l    D6, 0x00
00002FDE  1C2D B97C                move.b     D6, [A5 - 0x4684]
00002FE2  4A2D B989                tst.b      [A5 - 0x4677]
00002FE6  588F                     addq.l     A7, 4
00002FE8  6C12                     bge        +0x14 /* 00002FFC */
00002FEA  204D                     movea.l    A0, A5
00002FEC  D0C7                     add.w      A0, D7
00002FEE  4228 F1EE                clr.b      [A0 - 0xE12]
00002FF2  204D                     movea.l    A0, A5
00002FF4  D0C7                     add.w      A0, D7
00002FF6  4228 F1BE                clr.b      [A0 - 0xE42]
00002FFA  6038                     bra        +0x3A /* 00003034 */
label00002FFC:
00002FFC  204D                     movea.l    A0, A5
00002FFE  D0C7                     add.w      A0, D7
00003000  117C 0001 F1EE           move.b     [A0 - 0xE12], 0x1
00003006  0C46 00B1                cmpi.w     D6, 0xB1
0000300A  660C                     bne        +0xE /* 00003018 */
0000300C  204D                     movea.l    A0, A5
0000300E  D0C7                     add.w      A0, D7
00003010  117C 0084 F1BE           move.b     [A0 - 0xE42], 0x84
00003016  601C                     bra        +0x1E /* 00003034 */
label00003018:
00003018  0C46 00B2                cmpi.w     D6, 0xB2
0000301C  660C                     bne        +0xE /* 0000302A */
0000301E  204D                     movea.l    A0, A5
00003020  D0C7                     add.w      A0, D7
00003022  117C 0086 F1BE           move.b     [A0 - 0xE42], 0x86
00003028  600A                     bra        +0xC /* 00003034 */
label0000302A:
0000302A  204D                     movea.l    A0, A5
0000302C  D0C7                     add.w      A0, D7
0000302E  117C 0082 F1BE           move.b     [A0 - 0xE42], 0x82
label00003034:
00003034  1B7C 0056 B97F           move.b     [A5 - 0x4681], 0x56 /* 'V' */
0000303A  3F2D BA4C                move.w     -[A7], [A5 - 0x45B4]
0000303E  4267                     clr.w      -[A7]
00003040  4EBA D5D2                jsr        [PC - 0x2A2E /* 00000614 */]
00003044  426D BA4C                clr.w      [A5 - 0x45B4]
00003048  588F                     addq.l     A7, 4
label0000304A:
0000304A  4CDF 00C0                movem.l    D6,D7, [A7]+
0000304E  4E75                     rts
fn00003050:
00003050  102D B973                move.b     D0, [A5 - 0x468D]
00003054  4880                     ext.w      D0
00003056  204D                     movea.l    A0, A5
00003058  D0C0                     add.w      A0, D0
0000305A  117C 001E F175           move.b     [A0 - 0xE8B], 0x1E
00003060  102D B985                move.b     D0, [A5 - 0x467B]
00003064  4880                     ext.w      D0
00003066  204D                     movea.l    A0, A5
00003068  D0C0                     add.w      A0, D0
0000306A  117C 001E F175           move.b     [A0 - 0xE8B], 0x1E
00003070  4EBA 1432                jsr        [PC + 0x1432 /* 000044A4 */]
00003074  3F2D BA44                move.w     -[A7], [A5 - 0x45BC]
00003078  4EBA 00F4                jsr        [PC + 0xF4 /* 0000316E */]
0000307C  4EBA 143A                jsr        [PC + 0x143A /* 000044B8 */]
00003080  548F                     addq.l     A7, 2
00003082  4E75                     rts
fn00003084:
00003084  48E7 0300                movem.l    -[A7], D6,D7
00003088  4A6D BA84                tst.w      [A5 - 0x457C]
0000308C  6708                     beq        +0xA /* 00003096 */
0000308E  536D BA84                subq.w     [A5 - 0x457C], 1
00003092  6000 00D4                bra        +0xD6 /* 00003168 */
label00003096:
00003096  4EBA 13E4                jsr        [PC + 0x13E4 /* 0000447C */]
0000309A  4EAD 0522                jsr        [A5 + 0x522 /* export_160, CODE:4 @ 0000587A */]
0000309E  4EBA 16DE                jsr        [PC + 0x16DE /* 0000477E */]
000030A2  4EBA 0164                jsr        [PC + 0x164 /* 00003208 */]
000030A6  3B40 BA44                move.w     [A5 - 0x45BC], D0
000030AA  4A40                     tst.w      D0
000030AC  6D00 00BA                blt        +0xBC /* 00003168 */
000030B0  4EBA 13DE                jsr        [PC + 0x13DE /* 00004490 */]
000030B4  0C6D 0063 BA44           cmpi.w     [A5 - 0x45BC], 0x63 /* 'c' */
000030BA  660A                     bne        +0xC /* 000030C6 */
000030BC  3B7C FFFF BA44           move.w     [A5 - 0x45BC], 0xFFFF
000030C2  6000 00A4                bra        +0xA6 /* 00003168 */
label000030C6:
000030C6  102D B94F                move.b     D0, [A5 - 0x46B1]
000030CA  4880                     ext.w      D0
000030CC  3B40 BA7C                move.w     [A5 - 0x4584], D0
000030D0  0C2D 0056 B97F           cmpi.b     [A5 - 0x4681], 0x56 /* 'V' */
000030D6  6700 0090                beq        +0x92 /* 00003168 */
000030DA  7E00                     moveq.l    D7, 0x00
000030DC  4A2D B989                tst.b      [A5 - 0x4677]
000030E0  6C08                     bge        +0xA /* 000030EA */
000030E2  0C2D 0002 B988           cmpi.b     [A5 - 0x4678], 0x2
000030E8  6704                     beq        +0x6 /* 000030EE */
label000030EA:
000030EA  7E01                     moveq.l    D7, 0x01
000030EC  606C                     bra        +0x6E /* 0000315A */
label000030EE:
000030EE  1C2D B973                move.b     D6, [A5 - 0x468D]
000030F2  4886                     ext.w      D6
000030F4  5346                     subq.w     D6, 1
000030F6  204D                     movea.l    A0, A5
000030F8  D0C6                     add.w      A0, D6
000030FA  0C28 001E F176           cmpi.b     [A0 - 0xE8A], 0x1E
00003100  640E                     bcc        +0x10 /* 00003110 */
00003102  204D                     movea.l    A0, A5
00003104  D0C6                     add.w      A0, D6
00003106  4A28 F1EE                tst.b      [A0 - 0xE12]
0000310A  6604                     bne        +0x6 /* 00003110 */
0000310C  7E01                     moveq.l    D7, 0x01
0000310E  604A                     bra        +0x4C /* 0000315A */
label00003110:
00003110  4A6D BA44                tst.w      [A5 - 0x45BC]
00003114  660C                     bne        +0xE /* 00003122 */
00003116  0C2D 005B B97D           cmpi.b     [A5 - 0x4683], 0x5B /* '[' */
0000311C  653C                     bcs        +0x3E /* 0000315A */
0000311E  7E01                     moveq.l    D7, 0x01
00003120  6038                     bra        +0x3A /* 0000315A */
label00003122:
00003122  0C6D 0001 BA44           cmpi.w     [A5 - 0x45BC], 0x1
00003128  660C                     bne        +0xE /* 00003136 */
0000312A  0C2D 00A5 B97D           cmpi.b     [A5 - 0x4683], 0xA5
00003130  6428                     bcc        +0x2A /* 0000315A */
00003132  7E01                     moveq.l    D7, 0x01
00003134  6024                     bra        +0x26 /* 0000315A */
label00003136:
00003136  0C6D 0002 BA44           cmpi.w     [A5 - 0x45BC], 0x2
0000313C  660A                     bne        +0xC /* 00003148 */
0000313E  4A2D B981                tst.b      [A5 - 0x467F]
00003142  6D16                     blt        +0x18 /* 0000315A */
00003144  7E01                     moveq.l    D7, 0x01
00003146  6012                     bra        +0x14 /* 0000315A */
label00003148:
00003148  0C6D 0003 BA44           cmpi.w     [A5 - 0x45BC], 0x3
0000314E  660A                     bne        +0xC /* 0000315A */
00003150  0C2D 0003 B981           cmpi.b     [A5 - 0x467F], 0x3
00003156  6C02                     bge        +0x4 /* 0000315A */
00003158  7E01                     moveq.l    D7, 0x01
label0000315A:
0000315A  4A47                     tst.w      D7
0000315C  6706                     beq        +0x8 /* 00003164 */
0000315E  4EBA FE14                jsr        [PC - 0x1EC /* 00002F74 */]
00003162  6004                     bra        +0x6 /* 00003168 */
label00003164:
00003164  4EBA FEEA                jsr        [PC - 0x116 /* 00003050 */]
label00003168:
00003168  4CDF 00C0                movem.l    D6,D7, [A7]+
0000316C  4E75                     rts
fn0000316E:
0000316E  4E56 0000                link       A6, 0
00003172  48E7 0300                movem.l    -[A7], D6,D7
00003176  3C2E 0008                move.w     D6, [A6 + 0x8]
0000317A  4A2D B94F                tst.b      [A5 - 0x46B1]
0000317E  6604                     bne        +0x6 /* 00003184 */
00003180  70FF                     moveq.l    D0, 0xFFFFFFFF
00003182  607A                     bra        +0x7C /* 000031FE */
label00003184:
00003184  102D B94F                move.b     D0, [A5 - 0x46B1]
00003188  4880                     ext.w      D0
0000318A  48C0                     ext.l      D0
0000318C  E588                     lsl        D0, 2
0000318E  41ED F0BA                lea.l      A0, [A5 - 0xF46]
00003192  D088                     add.l      D0, A0
00003194  3046                     movea.w    A0, D6
00003196  1B70 0800 B94F           move.b     [A5 - 0x46B1], [A0 + D0]
0000319C  4A2D B94F                tst.b      [A5 - 0x46B1]
000031A0  6604                     bne        +0x6 /* 000031A6 */
000031A2  70FF                     moveq.l    D0, 0xFFFFFFFF
000031A4  6058                     bra        +0x5A /* 000031FE */
label000031A6:
000031A6  4A46                     tst.w      D6
000031A8  660A                     bne        +0xC /* 000031B4 */
000031AA  062D 008C B947           addi.b     [A5 - 0x46B9], 0x8C
000031B0  7C01                     moveq.l    D6, 0x01
000031B2  6028                     bra        +0x2A /* 000031DC */
label000031B4:
000031B4  0C46 0001                cmpi.w     D6, 0x1
000031B8  660A                     bne        +0xC /* 000031C4 */
000031BA  042D 008C B947           subi.b     [A5 - 0x46B9], 0x8C
000031C0  7C00                     moveq.l    D6, 0x00
000031C2  6018                     bra        +0x1A /* 000031DC */
label000031C4:
000031C4  0C46 0002                cmpi.w     D6, 0x2
000031C8  660A                     bne        +0xC /* 000031D4 */
000031CA  062D 00BD B948           addi.b     [A5 - 0x46B8], 0xBD
000031D0  7C03                     moveq.l    D6, 0x03
000031D2  6008                     bra        +0xA /* 000031DC */
label000031D4:
000031D4  042D 00BD B948           subi.b     [A5 - 0x46B8], 0xBD
000031DA  7C02                     moveq.l    D6, 0x02
label000031DC:
000031DC  7000                     moveq.l    D0, 0x00
000031DE  102D B947                move.b     D0, [A5 - 0x46B9]
000031E2  3F00                     move.w     -[A7], D0
000031E4  4EBA 11F4                jsr        [PC + 0x11F4 /* 000043DA */]
000031E8  1B40 B94A                move.b     [A5 - 0x46B6], D0
000031EC  7000                     moveq.l    D0, 0x00
000031EE  102D B948                move.b     D0, [A5 - 0x46B8]
000031F2  3E80                     move.w     [A7], D0
000031F4  4EBA 1268                jsr        [PC + 0x1268 /* 0000445E */]
000031F8  1B40 B94B                move.b     [A5 - 0x46B5], D0
000031FC  3006                     move.w     D0, D6
label000031FE:
000031FE  4CEE 00C0 FFF8           movem.l    D6,D7, [A6 - 0x8]
00003204  4E5E                     unlink     A6
00003206  4E75                     rts
fn00003208:
00003208  48E7 1F00                movem.l    -[A7], D3,D4,D5,D6,D7
0000320C  7C00                     moveq.l    D6, 0x00
0000320E  1C2D B948                move.b     D6, [A5 - 0x46B8]
00003212  3E06                     move.w     D7, D6
00003214  0C47 00C0                cmpi.w     D7, 0xC0
00003218  6D04                     blt        +0x6 /* 0000321E */
0000321A  0647 FF00                addi.w     D7, 0xFF00
label0000321E:
0000321E  1A2D B94C                move.b     D5, [A5 - 0x46B4]
00003222  4885                     ext.w      D5
00003224  7800                     moveq.l    D4, 0x00
00003226  182D B946                move.b     D4, [A5 - 0x46BA]
0000322A  0C45 0005                cmpi.w     D5, 0x5
0000322E  671E                     beq        +0x20 /* 0000324E */
00003230  0C45 0004                cmpi.w     D5, 0x4
00003234  6718                     beq        +0x1A /* 0000324E */
00003236  0C45 0003                cmpi.w     D5, 0x3
0000323A  6712                     beq        +0x14 /* 0000324E */
0000323C  0C47 000A                cmpi.w     D7, 0xA /* '\n' */
00003240  6C0C                     bge        +0xE /* 0000324E */
00003242  0C47 FFF0                cmpi.w     D7, 0xFFF0
00003246  6D06                     blt        +0x8 /* 0000324E */
00003248  7602                     moveq.l    D3, 0x02
0000324A  6000 00B4                bra        +0xB6 /* 00003300 */
label0000324E:
0000324E  0C46 00D3                cmpi.w     D6, 0xD3
00003252  6D06                     blt        +0x8 /* 0000325A */
00003254  7603                     moveq.l    D3, 0x03
00003256  6000 00A8                bra        +0xAA /* 00003300 */
label0000325A:
0000325A  0C44 0087                cmpi.w     D4, 0x87
0000325E  6D06                     blt        +0x8 /* 00003266 */
00003260  0C44 0096                cmpi.w     D4, 0x96
00003264  6D2A                     blt        +0x2C /* 00003290 */
label00003266:
00003266  0C44 006E                cmpi.w     D4, 0x6E /* 'n' */
0000326A  6D06                     blt        +0x8 /* 00003272 */
0000326C  0C44 0078                cmpi.w     D4, 0x78 /* 'x' */
00003270  6D1E                     blt        +0x20 /* 00003290 */
label00003272:
00003272  0C44 0096                cmpi.w     D4, 0x96
00003276  6D06                     blt        +0x8 /* 0000327E */
00003278  0C44 00A3                cmpi.w     D4, 0xA3
0000327C  6D12                     blt        +0x14 /* 00003290 */
label0000327E:
0000327E  0C44 00A6                cmpi.w     D4, 0xA6
00003282  6D06                     blt        +0x8 /* 0000328A */
00003284  0C44 00A9                cmpi.w     D4, 0xA9
00003288  6D06                     blt        +0x8 /* 00003290 */
label0000328A:
0000328A  0C45 0007                cmpi.w     D5, 0x7
0000328E  6606                     bne        +0x8 /* 00003296 */
label00003290:
00003290  70FF                     moveq.l    D0, 0xFFFFFFFF
00003292  6000 00BC                bra        +0xBE /* 00003350 */
label00003296:
00003296  4A2D B949                tst.b      [A5 - 0x46B7]
0000329A  671E                     beq        +0x20 /* 000032BA */
0000329C  0C6D 0036 BADC           cmpi.w     [A5 - 0x4524], 0x36 /* '6' */
000032A2  6E04                     bgt        +0x6 /* 000032A8 */
000032A4  7600                     moveq.l    D3, 0x00
000032A6  6058                     bra        +0x5A /* 00003300 */
label000032A8:
000032A8  0C6D 00C6 BADC           cmpi.w     [A5 - 0x4524], 0xC6
000032AE  6D04                     blt        +0x6 /* 000032B4 */
000032B0  7601                     moveq.l    D3, 0x01
000032B2  604C                     bra        +0x4E /* 00003300 */
label000032B4:
000032B4  70FF                     moveq.l    D0, 0xFFFFFFFF
000032B6  6000 0098                bra        +0x9A /* 00003350 */
label000032BA:
000032BA  102D B94B                move.b     D0, [A5 - 0x46B5]
000032BE  4880                     ext.w      D0
000032C0  3F00                     move.w     -[A7], D0
000032C2  3F3C 0009                move.w     -[A7], 0x9 /* '\t' */
000032C6  102D B94F                move.b     D0, [A5 - 0x46B1]
000032CA  4880                     ext.w      D0
000032CC  3F00                     move.w     -[A7], D0
000032CE  4EBA 0C9E                jsr        [PC + 0xC9E /* 00003F6E */]
000032D2  0C2D 0007 BAE8           cmpi.b     [A5 - 0x4518], 0x7
000032D8  5C8F                     addq.l     A7, 6
000032DA  6714                     beq        +0x16 /* 000032F0 */
000032DC  0C2D 000C BAE8           cmpi.b     [A5 - 0x4518], 0xC
000032E2  670C                     beq        +0xE /* 000032F0 */
000032E4  0C6D 00C9 BADE           cmpi.w     [A5 - 0x4522], 0xC9
000032EA  6D04                     blt        +0x6 /* 000032F0 */
000032EC  7601                     moveq.l    D3, 0x01
000032EE  6010                     bra        +0x12 /* 00003300 */
label000032F0:
000032F0  0C6D 0039 BADE           cmpi.w     [A5 - 0x4522], 0x39 /* '9' */
000032F6  6E04                     bgt        +0x6 /* 000032FC */
000032F8  7600                     moveq.l    D3, 0x00
000032FA  6004                     bra        +0x6 /* 00003300 */
label000032FC:
000032FC  70FF                     moveq.l    D0, 0xFFFFFFFF
000032FE  6050                     bra        +0x52 /* 00003350 */
label00003300:
00003300  3003                     move.w     D0, D3
00003302  670E                     beq        +0x10 /* 00003312 */
00003304  6B38                     bmi        +0x3A /* 0000333E */
00003306  5740                     subq.w     D0, 3
00003308  6720                     beq        +0x22 /* 0000332A */
0000330A  6A32                     bpl        +0x34 /* 0000333E */
0000330C  5240                     addq.w     D0, 1
0000330E  6A2E                     bpl        +0x30 /* 0000333E */
00003310  600E                     bra        +0x10 /* 00003320 */
label00003312:
00003312  4EBA 00D6                jsr        [PC + 0xD6 /* 000033EA */]
00003316  4EBA 005A                jsr        [PC + 0x5A /* 00003372 */]
0000331A  4EBA 003A                jsr        [PC + 0x3A /* 00003356 */]
0000331E  601E                     bra        +0x20 /* 0000333E */
label00003320:
00003320  4EBA 006E                jsr        [PC + 0x6E /* 00003390 */]
00003324  4EBA 009C                jsr        [PC + 0x9C /* 000033C2 */]
00003328  6014                     bra        +0x16 /* 0000333E */
label0000332A:
0000332A  0C6D 0006 A90C           cmpi.w     [A5 - 0x56F4], 0x6
00003330  660C                     bne        +0xE /* 0000333E */
00003332  0C2D 0001 B94F           cmpi.b     [A5 - 0x46B1], 0x1
00003338  6604                     bne        +0x6 /* 0000333E */
0000333A  70FE                     moveq.l    D0, 0xFFFFFFFE
0000333C  6012                     bra        +0x14 /* 00003350 */
label0000333E:
0000333E  3F03                     move.w     -[A7], D3
00003340  4EBA FE2C                jsr        [PC - 0x1D4 /* 0000316E */]
00003344  4A40                     tst.w      D0
00003346  548F                     addq.l     A7, 2
00003348  6C04                     bge        +0x6 /* 0000334E */
0000334A  7063                     moveq.l    D0, 0x63
0000334C  6002                     bra        +0x4 /* 00003350 */
label0000334E:
0000334E  3003                     move.w     D0, D3
label00003350:
00003350  4CDF 00F8                movem.l    D3,D4,D5,D6,D7, [A7]+
00003354  4E75                     rts
fn00003356:
00003356  0C6D 0002 BA3C           cmpi.w     [A5 - 0x45C4], 0x2
0000335C  6612                     bne        +0x14 /* 00003370 */
0000335E  42A7                     clr.l      -[A7]
00003360  3F3C 0018                move.w     -[A7], 0x18
00003364  4EBA 0C08                jsr        [PC + 0xC08 /* 00003F6E */]
00003368  4297                     clr.l      [A7]
0000336A  4EAD 0472                jsr        [A5 + 0x472 /* export_138, CODE:4 @ 000027A2 */]
0000336E  5C8F                     addq.l     A7, 6
label00003370:
00003370  4E75                     rts
fn00003372:
00003372  0C6D 0003 A90C           cmpi.w     [A5 - 0x56F4], 0x3
00003378  6614                     bne        +0x16 /* 0000338E */
0000337A  0C2D 0007 B94F           cmpi.b     [A5 - 0x46B1], 0x7
00003380  660C                     bne        +0xE /* 0000338E */
00003382  3B7C 0001 BA40           move.w     [A5 - 0x45C0], 0x1
00003388  3B6D BA48 BA46           move.w     [A5 - 0x45BA], [A5 - 0x45B8]
label0000338E:
0000338E  4E75                     rts
fn00003390:
00003390  0C6D 000C A90C           cmpi.w     [A5 - 0x56F4], 0xC
00003396  6628                     bne        +0x2A /* 000033C0 */
00003398  0C2D 0012 B94F           cmpi.b     [A5 - 0x46B1], 0x12
0000339E  6620                     bne        +0x22 /* 000033C0 */
000033A0  2F3C 0001 0000           move.l     -[A7], 0x10000
000033A6  3F3C 000F                move.w     -[A7], 0xF
000033AA  4EBA 0BC2                jsr        [PC + 0xBC2 /* 00003F6E */]
000033AE  7000                     moveq.l    D0, 0x00
000033B0  102D BAE9                move.b     D0, [A5 - 0x4517]
000033B4  D0AD BD82                add.l      D0, [A5 - 0x427E]
000033B8  2040                     movea.l    A0, D0
000033BA  10BC 0001                move.b     [A0], 0x1
000033BE  5C8F                     addq.l     A7, 6
label000033C0:
000033C0  4E75                     rts
fn000033C2:
000033C2  0C6D 000D A90C           cmpi.w     [A5 - 0x56F4], 0xD /* '\r' */
000033C8  661E                     bne        +0x20 /* 000033E8 */
000033CA  4A6D BA3C                tst.w      [A5 - 0x45C4]
000033CE  6618                     bne        +0x1A /* 000033E8 */
000033D0  0C2D 0003 B94F           cmpi.b     [A5 - 0x46B1], 0x3
000033D6  6610                     bne        +0x12 /* 000033E8 */
000033D8  3F3C 001D                move.w     -[A7], 0x1D
000033DC  4EBA D3D2                jsr        [PC - 0x2C2E /* 000007B0 */]
000033E0  3B7C 001C BA92           move.w     [A5 - 0x456E], 0x1C
000033E6  548F                     addq.l     A7, 2
label000033E8:
000033E8  4E75                     rts
fn000033EA:
000033EA  4A6D BA3C                tst.w      [A5 - 0x45C4]
000033EE  672E                     beq        +0x30 /* 0000341E */
000033F0  0C6D 004D BA3C           cmpi.w     [A5 - 0x45C4], 0x4D /* 'M' */
000033F6  6726                     beq        +0x28 /* 0000341E */
000033F8  0C6D 0004 A90C           cmpi.w     [A5 - 0x56F4], 0x4
000033FE  661E                     bne        +0x20 /* 0000341E */
00003400  4A2D B94B                tst.b      [A5 - 0x46B5]
00003404  6618                     bne        +0x1A /* 0000341E */
00003406  0C2D 000B B94F           cmpi.b     [A5 - 0x46B1], 0xB
0000340C  6610                     bne        +0x12 /* 0000341E */
0000340E  3F3C 0019                move.w     -[A7], 0x19
00003412  4EBA D39C                jsr        [PC - 0x2C64 /* 000007B0 */]
00003416  3B7C 004D BA3C           move.w     [A5 - 0x45C4], 0x4D /* 'M' */
0000341C  548F                     addq.l     A7, 2
label0000341E:
0000341E  4E75                     rts
fn00003420:
00003420  422D BABB                clr.b      [A5 - 0x4545]
00003424  422D BABA                clr.b      [A5 - 0x4546]
00003428  422D BAB9                clr.b      [A5 - 0x4547]
0000342C  422D BAAE                clr.b      [A5 - 0x4552]
00003430  422D BAAD                clr.b      [A5 - 0x4553]
00003434  422D BAAC                clr.b      [A5 - 0x4554]
00003438  422D BAAB                clr.b      [A5 - 0x4555]
0000343C  422D BAAA                clr.b      [A5 - 0x4556]
00003440  4E75                     rts
fn00003442:
00003442  70FF                     moveq.l    D0, 0xFFFFFFFF
00003444  1B40 BAB9                move.b     [A5 - 0x4547], D0
00003448  1B40 BAAA                move.b     [A5 - 0x4556], D0
0000344C  4E75                     rts
fn0000344E:
0000344E  1B7C 00FF BAAB           move.b     [A5 - 0x4555], 0xFF
00003454  1B7C 0001 BAB9           move.b     [A5 - 0x4547], 0x1
0000345A  4E75                     rts
fn0000345C:
0000345C  70FF                     moveq.l    D0, 0xFFFFFFFF
0000345E  1B40 BABA                move.b     [A5 - 0x4546], D0
00003462  1B40 BAAC                move.b     [A5 - 0x4554], D0
00003466  4E75                     rts
fn00003468:
00003468  1B7C 00FF BAAD           move.b     [A5 - 0x4553], 0xFF
0000346E  1B7C 0001 BABA           move.b     [A5 - 0x4546], 0x1
00003474  4E75                     rts
00003476  70FF                     moveq.l    D0, 0xFFFFFFFF
00003478  1B40 BAAB                move.b     [A5 - 0x4555], D0
0000347C  1B40 BAAC                move.b     [A5 - 0x4554], D0
00003480  1B7C 0001 BAB9           move.b     [A5 - 0x4547], 0x1
00003486  4E75                     rts
00003488  70FF                     moveq.l    D0, 0xFFFFFFFF
0000348A  1B40 BAAB                move.b     [A5 - 0x4555], D0
0000348E  1B40 BAAD                move.b     [A5 - 0x4553], D0
00003492  1B7C 0001 BAB9           move.b     [A5 - 0x4547], 0x1
00003498  4E75                     rts
fn0000349A:
0000349A  70FF                     moveq.l    D0, 0xFFFFFFFF
0000349C  1B40 BAB9                move.b     [A5 - 0x4547], D0
000034A0  1B40 BAAA                move.b     [A5 - 0x4556], D0
000034A4  1B40 BAAD                move.b     [A5 - 0x4553], D0
000034A8  4E75                     rts
fn000034AA:
000034AA  1B7C 00FF BAAD           move.b     [A5 - 0x4553], 0xFF
000034B0  1B7C 0001 BABA           move.b     [A5 - 0x4546], 0x1
000034B6  4E75                     rts
fn000034B8:
000034B8  70FF                     moveq.l    D0, 0xFFFFFFFF
000034BA  1B40 BAAB                move.b     [A5 - 0x4555], D0
000034BE  1B40 BAAD                move.b     [A5 - 0x4553], D0
000034C2  1B7C 0001 BAB9           move.b     [A5 - 0x4547], 0x1
000034C8  4E75                     rts
fn000034CA:
000034CA  1B7C 00FF BAAB           move.b     [A5 - 0x4555], 0xFF
000034D0  1B7C 0001 BAB9           move.b     [A5 - 0x4547], 0x1
000034D6  4E75                     rts
fn000034D8:
000034D8  70FF                     moveq.l    D0, 0xFFFFFFFF
000034DA  1B40 BAB9                move.b     [A5 - 0x4547], D0
000034DE  1B40 BAAA                move.b     [A5 - 0x4556], D0
000034E2  4E75                     rts
fn000034E4:
000034E4  70FF                     moveq.l    D0, 0xFFFFFFFF
000034E6  1B40 BABB                move.b     [A5 - 0x4545], D0
000034EA  1B40 BAAE                move.b     [A5 - 0x4552], D0
000034EE  4E75                     rts
fn000034F0:
000034F0  70FF                     moveq.l    D0, 0xFFFFFFFF
000034F2  1B40 BABA                move.b     [A5 - 0x4546], D0
000034F6  1B40 BAAC                move.b     [A5 - 0x4554], D0
000034FA  4E75                     rts
fn000034FC:
000034FC  70FF                     moveq.l    D0, 0xFFFFFFFF
000034FE  1B40 BABB                move.b     [A5 - 0x4545], D0
00003502  1B40 BAAE                move.b     [A5 - 0x4552], D0
00003506  4E75                     rts
fn00003508:
00003508  422D BABB                clr.b      [A5 - 0x4545]
0000350C  4E75                     rts
fn0000350E:
0000350E  2F07                     move.l     -[A7], D7
00003510  4EBA FF0E                jsr        [PC - 0xF2 /* 00003420 */]
00003514  1E2D B951                move.b     D7, [A5 - 0x46AF]
00003518  4887                     ext.w      D7
0000351A  4A47                     tst.w      D7
0000351C  6606                     bne        +0x8 /* 00003524 */
0000351E  4EBA 00D4                jsr        [PC + 0xD4 /* 000035F4 */]
00003522  6054                     bra        +0x56 /* 00003578 */
label00003524:
00003524  4A6D BA2A                tst.w      [A5 - 0x45D6]
00003528  6704                     beq        +0x6 /* 0000352E */
0000352A  536D BA2A                subq.w     [A5 - 0x45D6], 1
label0000352E:
0000352E  4A6D BA88                tst.w      [A5 - 0x4578]
00003532  6704                     beq        +0x6 /* 00003538 */
00003534  536D BA88                subq.w     [A5 - 0x4578], 1
label00003538:
00003538  4A6D BA8A                tst.w      [A5 - 0x4576]
0000353C  6704                     beq        +0x6 /* 00003542 */
0000353E  536D BA8A                subq.w     [A5 - 0x4576], 1
label00003542:
00003542  0C47 0018                cmpi.w     D7, 0x18
00003546  6606                     bne        +0x8 /* 0000354E */
00003548  4EBA 0032                jsr        [PC + 0x32 /* 0000357C */]
0000354C  602A                     bra        +0x2C /* 00003578 */
label0000354E:
0000354E  0C47 0004                cmpi.w     D7, 0x4
00003552  6606                     bne        +0x8 /* 0000355A */
00003554  4EBA 008C                jsr        [PC + 0x8C /* 000035E2 */]
00003558  601E                     bra        +0x20 /* 00003578 */
label0000355A:
0000355A  0C47 0001                cmpi.w     D7, 0x1
0000355E  6606                     bne        +0x8 /* 00003566 */
00003560  4EBA 004E                jsr        [PC + 0x4E /* 000035B0 */]
00003564  6012                     bra        +0x14 /* 00003578 */
label00003566:
00003566  0C6D 000D A90C           cmpi.w     [A5 - 0x56F4], 0xD /* '\r' */
0000356C  6606                     bne        +0x8 /* 00003574 */
0000356E  4EBA 007E                jsr        [PC + 0x7E /* 000035EE */]
00003572  6004                     bra        +0x6 /* 00003578 */
label00003574:
00003574  4EBA 0084                jsr        [PC + 0x84 /* 000035FA */]
label00003578:
00003578  2E1F                     move.l     D7, [A7]+
0000357A  4E75                     rts
fn0000357C:
0000357C  0C2D 0056 B949           cmpi.b     [A5 - 0x46B7], 0x56 /* 'V' */
00003582  672A                     beq        +0x2C /* 000035AE */
00003584  4A2D B94C                tst.b      [A5 - 0x46B4]
00003588  660E                     bne        +0x10 /* 00003598 */
0000358A  0C2D 00C8 B947           cmpi.b     [A5 - 0x46B9], 0xC8
00003590  651C                     bcs        +0x1E /* 000035AE */
00003592  4EBA 210E                jsr        [PC + 0x210E /* 000056A2 */]
00003596  6016                     bra        +0x18 /* 000035AE */
label00003598:
00003598  0C2D 00A6 B947           cmpi.b     [A5 - 0x46B9], 0xA6
0000359E  640E                     bcc        +0x10 /* 000035AE */
000035A0  3F3C 006B                move.w     -[A7], 0x6B /* 'k' */
000035A4  4EAD 0552                jsr        [A5 + 0x552 /* export_166, CODE:4 @ 00000000 */]
000035A8  4EBA 0C9C                jsr        [PC + 0xC9C /* 00004246 */]
000035AC  548F                     addq.l     A7, 2
label000035AE:
000035AE  4E75                     rts
fn000035B0:
000035B0  302D A90C                move.w     D0, [A5 - 0x56F4]
000035B4  6B2A                     bmi        +0x2C /* 000035E0 */
000035B6  5D40                     subq.w     D0, 6
000035B8  671C                     beq        +0x1E /* 000035D6 */
000035BA  6A08                     bpl        +0xA /* 000035C4 */
000035BC  5440                     addq.w     D0, 2
000035BE  670A                     beq        +0xC /* 000035CA */
000035C0  6A0E                     bpl        +0x10 /* 000035D0 */
000035C2  601C                     bra        +0x1E /* 000035E0 */
label000035C4:
000035C4  5D40                     subq.w     D0, 6
000035C6  6714                     beq        +0x16 /* 000035DC */
000035C8  6016                     bra        +0x18 /* 000035E0 */
label000035CA:
000035CA  4EBA 082E                jsr        [PC + 0x82E /* 00003DFA */]
000035CE  6010                     bra        +0x12 /* 000035E0 */
label000035D0:
000035D0  4EBA 0844                jsr        [PC + 0x844 /* 00003E16 */]
000035D4  600A                     bra        +0xC /* 000035E0 */
label000035D6:
000035D6  4EBA 088A                jsr        [PC + 0x88A /* 00003E62 */]
000035DA  6004                     bra        +0x6 /* 000035E0 */
label000035DC:
000035DC  4EBA 08A6                jsr        [PC + 0x8A6 /* 00003E84 */]
label000035E0:
000035E0  4E75                     rts
fn000035E2:
000035E2  1B7C 0002 B952           move.b     [A5 - 0x46AE], 0x2
000035E8  4EBA 0010                jsr        [PC + 0x10 /* 000035FA */]
000035EC  4E75                     rts
fn000035EE:
000035EE  4EBA 000A                jsr        [PC + 0xA /* 000035FA */]
000035F2  4E75                     rts
fn000035F4:
000035F4  4EBA 0004                jsr        [PC + 0x4 /* 000035FA */]
000035F8  4E75                     rts
fn000035FA:
000035FA  0C2D 0002 B952           cmpi.b     [A5 - 0x46AE], 0x2
00003600  6C06                     bge        +0x8 /* 00003608 */
00003602  4EBA 000A                jsr        [PC + 0xA /* 0000360E */]
00003606  6004                     bra        +0x6 /* 0000360C */
label00003608:
00003608  4EBA 0060                jsr        [PC + 0x60 /* 0000366A */]
label0000360C:
0000360C  4E75                     rts
fn0000360E:
0000360E  2F07                     move.l     -[A7], D7
00003610  4A2D B977                tst.b      [A5 - 0x4689]
00003614  6C50                     bge        +0x52 /* 00003666 */
00003616  4EBA 22D8                jsr        [PC + 0x22D8 /* 000058F0 */]
0000361A  3E00                     move.w     D7, D0
0000361C  102D B95D                move.b     D0, [A5 - 0x46A3]
00003620  B02D B94B                cmp.b      D0, [A5 - 0x46B5]
00003624  660A                     bne        +0xC /* 00003630 */
00003626  0C47 FFF8                cmpi.w     D7, 0xFFF8
0000362A  6D04                     blt        +0x6 /* 00003630 */
0000362C  4A47                     tst.w      D7
0000362E  6D1E                     blt        +0x20 /* 0000364E */
label00003630:
00003630  4A6D BA56                tst.w      [A5 - 0x45AA]
00003634  6714                     beq        +0x16 /* 0000364A */
00003636  426D BA56                clr.w      [A5 - 0x45AA]
0000363A  4A47                     tst.w      D7
0000363C  6C10                     bge        +0x12 /* 0000364E */
0000363E  0C47 FFFC                cmpi.w     D7, 0xFFFC
00003642  6C22                     bge        +0x24 /* 00003666 */
00003644  4EBA FE64                jsr        [PC - 0x19C /* 000034AA */]
00003648  601C                     bra        +0x1E /* 00003666 */
label0000364A:
0000364A  4A47                     tst.w      D7
0000364C  6D18                     blt        +0x1A /* 00003666 */
label0000364E:
0000364E  4A6D BA24                tst.w      [A5 - 0x45DC]
00003652  6712                     beq        +0x14 /* 00003666 */
00003654  0C6D 000D A90C           cmpi.w     [A5 - 0x56F4], 0xD /* '\r' */
0000365A  6606                     bne        +0x8 /* 00003662 */
0000365C  4A6D BA92                tst.w      [A5 - 0x456E]
00003660  6604                     bne        +0x6 /* 00003666 */
label00003662:
00003662  4EBA FE36                jsr        [PC - 0x1CA /* 0000349A */]
label00003666:
00003666  2E1F                     move.l     D7, [A7]+
00003668  4E75                     rts
fn0000366A:
0000366A  48E7 0300                movem.l    -[A7], D6,D7
0000366E  7E00                     moveq.l    D7, 0x00
00003670  1E2D B946                move.b     D7, [A5 - 0x46BA]
00003674  0C47 00A6                cmpi.w     D7, 0xA6
00003678  6700 00E6                beq        +0xE8 /* 00003760 */
0000367C  0C47 0096                cmpi.w     D7, 0x96
00003680  6D00 00DE                blt        +0xE0 /* 00003760 */
00003684  0C6D 0001 BA24           cmpi.w     [A5 - 0x45DC], 0x1
0000368A  6700 00D4                beq        +0xD6 /* 00003760 */
0000368E  4A6D BA24                tst.w      [A5 - 0x45DC]
00003692  6620                     bne        +0x22 /* 000036B4 */
00003694  4A6D BA34                tst.w      [A5 - 0x45CC]
00003698  6708                     beq        +0xA /* 000036A2 */
0000369A  4EBA 00FE                jsr        [PC + 0xFE /* 0000379A */]
0000369E  6000 00C0                bra        +0xC2 /* 00003760 */
label000036A2:
000036A2  0C2D 0004 B951           cmpi.b     [A5 - 0x46AF], 0x4
000036A8  6700 00B6                beq        +0xB8 /* 00003760 */
000036AC  4EBA FE0A                jsr        [PC - 0x1F6 /* 000034B8 */]
000036B0  6000 00AE                bra        +0xB0 /* 00003760 */
label000036B4:
000036B4  7E00                     moveq.l    D7, 0x00
000036B6  1E2D B958                move.b     D7, [A5 - 0x46A8]
000036BA  4EBA 2234                jsr        [PC + 0x2234 /* 000058F0 */]
000036BE  3C00                     move.w     D6, D0
000036C0  0C46 000C                cmpi.w     D6, 0xC
000036C4  6D16                     blt        +0x18 /* 000036DC */
000036C6  0C47 0066                cmpi.w     D7, 0x66 /* 'f' */
000036CA  6D10                     blt        +0x12 /* 000036DC */
000036CC  0C47 0076                cmpi.w     D7, 0x76 /* 'v' */
000036D0  6C0A                     bge        +0xC /* 000036DC */
000036D2  0C2D 0005 B95E           cmpi.b     [A5 - 0x46A2], 0x5
000036D8  6700 0086                beq        +0x88 /* 00003760 */
label000036DC:
000036DC  0C46 0023                cmpi.w     D6, 0x23 /* '#' */
000036E0  6C34                     bge        +0x36 /* 00003716 */
000036E2  0C2D 0002 B952           cmpi.b     [A5 - 0x46AE], 0x2
000036E8  6C06                     bge        +0x8 /* 000036F0 */
000036EA  0C46 0008                cmpi.w     D6, 0x8
000036EE  6D06                     blt        +0x8 /* 000036F6 */
label000036F0:
000036F0  0C46 000C                cmpi.w     D6, 0xC
000036F4  6C16                     bge        +0x18 /* 0000370C */
label000036F6:
000036F6  102D B949                move.b     D0, [A5 - 0x46B7]
000036FA  B02D B95B                cmp.b      D0, [A5 - 0x46A5]
000036FE  6606                     bne        +0x8 /* 00003706 */
00003700  4EBA FDC8                jsr        [PC - 0x238 /* 000034CA */]
00003704  605A                     bra        +0x5C /* 00003760 */
label00003706:
00003706  4EBA FDD0                jsr        [PC - 0x230 /* 000034D8 */]
0000370A  6054                     bra        +0x56 /* 00003760 */
label0000370C:
0000370C  3F06                     move.w     -[A7], D6
0000370E  4EBA 0140                jsr        [PC + 0x140 /* 00003850 */]
00003712  548F                     addq.l     A7, 2
00003714  604A                     bra        +0x4C /* 00003760 */
label00003716:
00003716  4A6D BA8A                tst.w      [A5 - 0x4576]
0000371A  6644                     bne        +0x46 /* 00003760 */
0000371C  102D B949                move.b     D0, [A5 - 0x46B7]
00003720  B02D B95B                cmp.b      D0, [A5 - 0x46A5]
00003724  6606                     bne        +0x8 /* 0000372C */
00003726  4EBA 003E                jsr        [PC + 0x3E /* 00003766 */]
0000372A  6034                     bra        +0x36 /* 00003760 */
label0000372C:
0000372C  0C47 0007                cmpi.w     D7, 0x7
00003730  6D12                     blt        +0x14 /* 00003744 */
00003732  0C47 000F                cmpi.w     D7, 0xF
00003736  6C0C                     bge        +0xE /* 00003744 */
00003738  0C46 0028                cmpi.w     D6, 0x28 /* '(' */
0000373C  6C22                     bge        +0x24 /* 00003760 */
0000373E  4EBA FDA4                jsr        [PC - 0x25C /* 000034E4 */]
00003742  601C                     bra        +0x1E /* 00003760 */
label00003744:
00003744  0C47 0022                cmpi.w     D7, 0x22 /* '\"' */
00003748  6D12                     blt        +0x14 /* 0000375C */
0000374A  0C47 002C                cmpi.w     D7, 0x2C /* ',' */
0000374E  6C0C                     bge        +0xE /* 0000375C */
00003750  0C46 0032                cmpi.w     D6, 0x32 /* '2' */
00003754  6C0A                     bge        +0xC /* 00003760 */
00003756  4EBA FD8C                jsr        [PC - 0x274 /* 000034E4 */]
0000375A  6004                     bra        +0x6 /* 00003760 */
label0000375C:
0000375C  4EBA 0008                jsr        [PC + 0x8 /* 00003766 */]
label00003760:
00003760  4CDF 00C0                movem.l    D6,D7, [A7]+
00003764  4E75                     rts
fn00003766:
00003766  4EBA 13B2                jsr        [PC + 0x13B2 /* 00004B1A */]
0000376A  7200                     moveq.l    D1, 0x00
0000376C  1200                     move.b     D1, D0
0000376E  3F01                     move.w     -[A7], D1
00003770  4EBA 0EDE                jsr        [PC + 0xEDE /* 00004650 */]
00003774  4A00                     tst.b      D0
00003776  548F                     addq.l     A7, 2
00003778  6614                     bne        +0x16 /* 0000378E */
0000377A  4EBA 13D0                jsr        [PC + 0x13D0 /* 00004B4C */]
0000377E  7200                     moveq.l    D1, 0x00
00003780  1200                     move.b     D1, D0
00003782  3F01                     move.w     -[A7], D1
00003784  4EBA 0ECA                jsr        [PC + 0xECA /* 00004650 */]
00003788  4A00                     tst.b      D0
0000378A  548F                     addq.l     A7, 2
0000378C  6706                     beq        +0x8 /* 00003794 */
label0000378E:
0000378E  4EBA FD48                jsr        [PC - 0x2B8 /* 000034D8 */]
00003792  6004                     bra        +0x6 /* 00003798 */
label00003794:
00003794  4EBA FD34                jsr        [PC - 0x2CC /* 000034CA */]
label00003798:
00003798  4E75                     rts
fn0000379A:
0000379A  2F07                     move.l     -[A7], D7
0000379C  1E2D B95E                move.b     D7, [A5 - 0x46A2]
000037A0  4887                     ext.w      D7
000037A2  0C47 0002                cmpi.w     D7, 0x2
000037A6  6700 00A4                beq        +0xA6 /* 0000384C */
000037AA  0C47 0006                cmpi.w     D7, 0x6
000037AE  6700 009C                beq        +0x9E /* 0000384C */
000037B2  4EBA 1366                jsr        [PC + 0x1366 /* 00004B1A */]
000037B6  1F00                     move.b     -[A7], D0
000037B8  4EBA 17D6                jsr        [PC + 0x17D6 /* 00004F90 */]
000037BC  4A40                     tst.w      D0
000037BE  548F                     addq.l     A7, 2
000037C0  670C                     beq        +0xE /* 000037CE */
000037C2  426D BA34                clr.w      [A5 - 0x45CC]
000037C6  4EBA FD02                jsr        [PC - 0x2FE /* 000034CA */]
000037CA  6000 0080                bra        +0x82 /* 0000384C */
label000037CE:
000037CE  7000                     moveq.l    D0, 0x00
000037D0  102D BAE8                move.b     D0, [A5 - 0x4518]
000037D4  3F00                     move.w     -[A7], D0
000037D6  4EBA 0E78                jsr        [PC + 0xE78 /* 00004650 */]
000037DA  4A00                     tst.b      D0
000037DC  548F                     addq.l     A7, 2
000037DE  6706                     beq        +0x8 /* 000037E6 */
000037E0  4EBA FCF6                jsr        [PC - 0x30A /* 000034D8 */]
000037E4  6066                     bra        +0x68 /* 0000384C */
label000037E6:
000037E6  526D BAEE                addq.w     [A5 - 0x4512], 1
000037EA  3F2D BAEE                move.w     -[A7], [A5 - 0x4512]
000037EE  3F2D BAEC                move.w     -[A7], [A5 - 0x4514]
000037F2  3F2D BAEA                move.w     -[A7], [A5 - 0x4516]
000037F6  4EBA 0776                jsr        [PC + 0x776 /* 00003F6E */]
000037FA  0C2D 0002 BAE8           cmpi.b     [A5 - 0x4518], 0x2
00003800  5C8F                     addq.l     A7, 6
00003802  673A                     beq        +0x3C /* 0000383E */
00003804  0C2D 000B BAE8           cmpi.b     [A5 - 0x4518], 0xB
0000380A  6732                     beq        +0x34 /* 0000383E */
0000380C  1F2D BAE8                move.b     -[A7], [A5 - 0x4518]
00003810  4EBA 177E                jsr        [PC + 0x177E /* 00004F90 */]
00003814  4A40                     tst.w      D0
00003816  548F                     addq.l     A7, 2
00003818  6624                     bne        +0x26 /* 0000383E */
0000381A  7000                     moveq.l    D0, 0x00
0000381C  102D BAE8                move.b     D0, [A5 - 0x4518]
00003820  3F00                     move.w     -[A7], D0
00003822  4EBA 0E2C                jsr        [PC + 0xE2C /* 00004650 */]
00003826  4A00                     tst.b      D0
00003828  548F                     addq.l     A7, 2
0000382A  6712                     beq        +0x14 /* 0000383E */
0000382C  102D B94B                move.b     D0, [A5 - 0x46B5]
00003830  4880                     ext.w      D0
00003832  122D B95D                move.b     D1, [A5 - 0x46A3]
00003836  4881                     ext.w      D1
00003838  5240                     addq.w     D0, 1
0000383A  B240                     cmp.w      D1, D0
0000383C  670A                     beq        +0xC /* 00003848 */
label0000383E:
0000383E  426D BA34                clr.w      [A5 - 0x45CC]
00003842  4EBA FC86                jsr        [PC - 0x37A /* 000034CA */]
00003846  6004                     bra        +0x6 /* 0000384C */
label00003848:
00003848  4EBA FC8E                jsr        [PC - 0x372 /* 000034D8 */]
label0000384C:
0000384C  2E1F                     move.l     D7, [A7]+
0000384E  4E75                     rts
fn00003850:
00003850  4E56 0000                link       A6, 0
00003854  0C2D 0002 B964           cmpi.b     [A5 - 0x469C], 0x2
0000385A  660C                     bne        +0xE /* 00003868 */
0000385C  3F2E 0008                move.w     -[A7], [A6 + 0x8]
00003860  4EBA 0022                jsr        [PC + 0x22 /* 00003884 */]
00003864  548F                     addq.l     A7, 2
00003866  6018                     bra        +0x1A /* 00003880 */
label00003868:
00003868  4A6D BA8A                tst.w      [A5 - 0x4576]
0000386C  6612                     bne        +0x14 /* 00003880 */
0000386E  0C6E 001D 0008           cmpi.w     [A6 + 0x8], 0x1D
00003874  6C06                     bge        +0x8 /* 0000387C */
00003876  4EBA FC6C                jsr        [PC - 0x394 /* 000034E4 */]
0000387A  6004                     bra        +0x6 /* 00003880 */
label0000387C:
0000387C  4EBA FC5A                jsr        [PC - 0x3A6 /* 000034D8 */]
label00003880:
00003880  4E5E                     unlink     A6
00003882  4E75                     rts
fn00003884:
00003884  4E56 0000                link       A6, 0
00003888  2F07                     move.l     -[A7], D7
0000388A  3E2E 0008                move.w     D7, [A6 + 0x8]
0000388E  0C47 000A                cmpi.w     D7, 0xA /* '\n' */
00003892  6D06                     blt        +0x8 /* 0000389A */
00003894  0C47 001D                cmpi.w     D7, 0x1D
00003898  6D06                     blt        +0x8 /* 000038A0 */
label0000389A:
0000389A  4EBA 002A                jsr        [PC + 0x2A /* 000038C6 */]
0000389E  6020                     bra        +0x22 /* 000038C0 */
label000038A0:
000038A0  4EBA 0052                jsr        [PC + 0x52 /* 000038F4 */]
000038A4  4A6D BA8A                tst.w      [A5 - 0x4576]
000038A8  6616                     bne        +0x18 /* 000038C0 */
000038AA  0C47 000C                cmpi.w     D7, 0xC
000038AE  6D06                     blt        +0x8 /* 000038B6 */
000038B0  0C47 001D                cmpi.w     D7, 0x1D
000038B4  6D06                     blt        +0x8 /* 000038BC */
label000038B6:
000038B6  4EBA 000E                jsr        [PC + 0xE /* 000038C6 */]
000038BA  6004                     bra        +0x6 /* 000038C0 */
label000038BC:
000038BC  4EBA 009C                jsr        [PC + 0x9C /* 0000395A */]
label000038C0:
000038C0  2E1F                     move.l     D7, [A7]+
000038C2  4E5E                     unlink     A6
000038C4  4E75                     rts
fn000038C6:
000038C6  4A6D BA20                tst.w      [A5 - 0x45E0]
000038CA  6706                     beq        +0x8 /* 000038D2 */
000038CC  4A6D BA88                tst.w      [A5 - 0x4578]
000038D0  6620                     bne        +0x22 /* 000038F2 */
label000038D2:
000038D2  3F3C 00FF                move.w     -[A7], 0xFF
000038D6  4EAD 0072                jsr        [A5 + 0x72 /* export_10, CODE:2 @ 0000223A */]
000038DA  322D BA20                move.w     D1, [A5 - 0x45E0]
000038DE  204D                     movea.l    A0, A5
000038E0  D0C1                     add.w      A0, D1
000038E2  7400                     moveq.l    D2, 0x00
000038E4  1428 A954                move.b     D2, [A0 - 0x56AC]
000038E8  B440                     cmp.w      D2, D0
000038EA  548F                     addq.l     A7, 2
000038EC  6F04                     ble        +0x6 /* 000038F2 */
000038EE  4EBA FBE8                jsr        [PC - 0x418 /* 000034D8 */]
label000038F2:
000038F2  4E75                     rts
fn000038F4:
000038F4  2F07                     move.l     -[A7], D7
000038F6  7E00                     moveq.l    D7, 0x00
000038F8  1E2D B958                move.b     D7, [A5 - 0x46A8]
000038FC  0C47 0098                cmpi.w     D7, 0x98
00003900  670C                     beq        +0xE /* 0000390E */
00003902  0C47 0099                cmpi.w     D7, 0x99
00003906  6706                     beq        +0x8 /* 0000390E */
00003908  0C47 00A2                cmpi.w     D7, 0xA2
0000390C  6648                     bne        +0x4A /* 00003956 */
label0000390E:
0000390E  4A6D BA2A                tst.w      [A5 - 0x45D6]
00003912  6722                     beq        +0x24 /* 00003936 */
00003914  3F3C 00FF                move.w     -[A7], 0xFF
00003918  4EAD 0072                jsr        [A5 + 0x72 /* export_10, CODE:2 @ 0000223A */]
0000391C  322D BA20                move.w     D1, [A5 - 0x45E0]
00003920  204D                     movea.l    A0, A5
00003922  D0C1                     add.w      A0, D1
00003924  7400                     moveq.l    D2, 0x00
00003926  1428 A948                move.b     D2, [A0 - 0x56B8]
0000392A  B440                     cmp.w      D2, D0
0000392C  548F                     addq.l     A7, 2
0000392E  6F26                     ble        +0x28 /* 00003956 */
00003930  4EBA FBBE                jsr        [PC - 0x442 /* 000034F0 */]
00003934  6020                     bra        +0x22 /* 00003956 */
label00003936:
00003936  3F3C 00FF                move.w     -[A7], 0xFF
0000393A  4EAD 0072                jsr        [A5 + 0x72 /* export_10, CODE:2 @ 0000223A */]
0000393E  322D BA20                move.w     D1, [A5 - 0x45E0]
00003942  204D                     movea.l    A0, A5
00003944  D0C1                     add.w      A0, D1
00003946  7400                     moveq.l    D2, 0x00
00003948  1428 A93C                move.b     D2, [A0 - 0x56C4]
0000394C  B440                     cmp.w      D2, D0
0000394E  548F                     addq.l     A7, 2
00003950  6F04                     ble        +0x6 /* 00003956 */
00003952  4EBA FB9C                jsr        [PC - 0x464 /* 000034F0 */]
label00003956:
00003956  2E1F                     move.l     D7, [A7]+
00003958  4E75                     rts
fn0000395A:
0000395A  2F07                     move.l     -[A7], D7
0000395C  7E00                     moveq.l    D7, 0x00
0000395E  1E2D B958                move.b     D7, [A5 - 0x46A8]
00003962  0C47 00A9                cmpi.w     D7, 0xA9
00003966  675A                     beq        +0x5C /* 000039C2 */
00003968  0C47 0097                cmpi.w     D7, 0x97
0000396C  6754                     beq        +0x56 /* 000039C2 */
0000396E  7E00                     moveq.l    D7, 0x00
00003970  1E2D B946                move.b     D7, [A5 - 0x46BA]
00003974  0C47 00A1                cmpi.w     D7, 0xA1
00003978  6706                     beq        +0x8 /* 00003980 */
0000397A  0C47 0096                cmpi.w     D7, 0x96
0000397E  6622                     bne        +0x24 /* 000039A2 */
label00003980:
00003980  3F3C 00FF                move.w     -[A7], 0xFF
00003984  4EAD 0072                jsr        [A5 + 0x72 /* export_10, CODE:2 @ 0000223A */]
00003988  322D BA20                move.w     D1, [A5 - 0x45E0]
0000398C  204D                     movea.l    A0, A5
0000398E  D0C1                     add.w      A0, D1
00003990  7400                     moveq.l    D2, 0x00
00003992  1428 A930                move.b     D2, [A0 - 0x56D0]
00003996  B440                     cmp.w      D2, D0
00003998  548F                     addq.l     A7, 2
0000399A  6F26                     ble        +0x28 /* 000039C2 */
0000399C  4EBA FB46                jsr        [PC - 0x4BA /* 000034E4 */]
000039A0  6020                     bra        +0x22 /* 000039C2 */
label000039A2:
000039A2  3F3C 00FF                move.w     -[A7], 0xFF
000039A6  4EAD 0072                jsr        [A5 + 0x72 /* export_10, CODE:2 @ 0000223A */]
000039AA  322D BA20                move.w     D1, [A5 - 0x45E0]
000039AE  204D                     movea.l    A0, A5
000039B0  D0C1                     add.w      A0, D1
000039B2  7400                     moveq.l    D2, 0x00
000039B4  1428 A924                move.b     D2, [A0 - 0x56DC]
000039B8  B440                     cmp.w      D2, D0
000039BA  548F                     addq.l     A7, 2
000039BC  6F04                     ble        +0x6 /* 000039C2 */
000039BE  4EBA FB24                jsr        [PC - 0x4DC /* 000034E4 */]
label000039C2:
000039C2  2E1F                     move.l     D7, [A7]+
000039C4  4E75                     rts
fn000039C6:
000039C6  48E7 0300                movem.l    -[A7], D6,D7
000039CA  4A2D B953                tst.b      [A5 - 0x46AD]
000039CE  6C00 0122                bge        +0x124 /* 00003AF2 */
000039D2  0C2D 0002 B952           cmpi.b     [A5 - 0x46AE], 0x2
000039D8  6714                     beq        +0x16 /* 000039EE */
000039DA  3F3C 0064                move.w     -[A7], 0x64 /* 'd' */
000039DE  4EBA 0D22                jsr        [PC + 0xD22 /* 00004702 */]
000039E2  3EBC 0055                move.w     [A7], 0x55 /* 'U' */
000039E6  4EAD 0552                jsr        [A5 + 0x552 /* export_166, CODE:4 @ 00000000 */]
000039EA  548F                     addq.l     A7, 2
000039EC  603A                     bra        +0x3C /* 00003A28 */
label000039EE:
000039EE  0C2D 0004 B951           cmpi.b     [A5 - 0x46AF], 0x4
000039F4  670E                     beq        +0x10 /* 00003A04 */
000039F6  3F3C 0001                move.w     -[A7], 0x1
000039FA  4EBA 0D06                jsr        [PC + 0xD06 /* 00004702 */]
000039FE  4A40                     tst.w      D0
00003A00  548F                     addq.l     A7, 2
00003A02  6624                     bne        +0x26 /* 00003A28 */
label00003A04:
00003A04  3F3C 004A                move.w     -[A7], 0x4A /* 'J' */
00003A08  4EAD 0552                jsr        [A5 + 0x552 /* export_166, CODE:4 @ 00000000 */]
00003A0C  102D B94B                move.b     D0, [A5 - 0x46B5]
00003A10  4880                     ext.w      D0
00003A12  204D                     movea.l    A0, A5
00003A14  D0C0                     add.w      A0, D0
00003A16  D0C0                     add.w      A0, D0
00003A18  1B68 B671 B948           move.b     [A5 - 0x46B8], [A0 - 0x498F]
00003A1E  422D B94E                clr.b      [A5 - 0x46B2]
00003A22  548F                     addq.l     A7, 2
00003A24  6000 00AC                bra        +0xAE /* 00003AD2 */
label00003A28:
00003A28  4EBA 1190                jsr        [PC + 0x1190 /* 00004BBA */]
00003A2C  3E00                     move.w     D7, D0
00003A2E  4EBA 1158                jsr        [PC + 0x1158 /* 00004B88 */]
00003A32  7200                     moveq.l    D1, 0x00
00003A34  1200                     move.b     D1, D0
00003A36  4A41                     tst.w      D1
00003A38  6606                     bne        +0x8 /* 00003A40 */
00003A3A  0C47 0004                cmpi.w     D7, 0x4
00003A3E  6C72                     bge        +0x74 /* 00003AB2 */
label00003A40:
00003A40  3F3C 0055                move.w     -[A7], 0x55 /* 'U' */
00003A44  4EAD 0552                jsr        [A5 + 0x552 /* export_166, CODE:4 @ 00000000 */]
00003A48  4A2D B951                tst.b      [A5 - 0x46AF]
00003A4C  548F                     addq.l     A7, 2
00003A4E  674A                     beq        +0x4C /* 00003A9A */
00003A50  4A2D B949                tst.b      [A5 - 0x46B7]
00003A54  6C44                     bge        +0x46 /* 00003A9A */
00003A56  0C2D 0004 BAE8           cmpi.b     [A5 - 0x4518], 0x4
00003A5C  670C                     beq        +0xE /* 00003A6A */
00003A5E  4EBA 0CFE                jsr        [PC + 0xCFE /* 0000475E */]
00003A62  7200                     moveq.l    D1, 0x00
00003A64  1200                     move.b     D1, D0
00003A66  5941                     subq.w     D1, 4
00003A68  6630                     bne        +0x32 /* 00003A9A */
label00003A6A:
00003A6A  0C2D 0004 BAE8           cmpi.b     [A5 - 0x4518], 0x4
00003A70  56C0                     sne        D0
00003A72  4400                     neg.b      D0
00003A74  4880                     ext.w      D0
00003A76  7205                     moveq.l    D1, 0x05
00003A78  D26D BAEC                add.w      D1, [A5 - 0x4514]
00003A7C  9240                     sub.w      D1, D0
00003A7E  204D                     movea.l    A0, A5
00003A80  D0C1                     add.w      A0, D1
00003A82  7007                     moveq.l    D0, 0x07
00003A84  D028 B878                add.b      D0, [A0 - 0x4788]
00003A88  1B40 B947                move.b     [A5 - 0x46B9], D0
00003A8C  3F3C 000A                move.w     -[A7], 0xA /* '\n' */
00003A90  4EBA 076C                jsr        [PC + 0x76C /* 000041FE */]
00003A94  1B40 B947                move.b     [A5 - 0x46B9], D0
00003A98  548F                     addq.l     A7, 2
label00003A9A:
00003A9A  102D B94B                move.b     D0, [A5 - 0x46B5]
00003A9E  4880                     ext.w      D0
00003AA0  204D                     movea.l    A0, A5
00003AA2  D0C0                     add.w      A0, D0
00003AA4  D0C0                     add.w      A0, D0
00003AA6  1B68 B671 B948           move.b     [A5 - 0x46B8], [A0 - 0x498F]
00003AAC  422D B94E                clr.b      [A5 - 0x46B2]
00003AB0  6020                     bra        +0x22 /* 00003AD2 */
label00003AB2:
00003AB2  70EC                     moveq.l    D0, 0xFFFFFFEC
00003AB4  D047                     add.w      D0, D7
00003AB6  3F00                     move.w     -[A7], D0
00003AB8  4EBA 0744                jsr        [PC + 0x744 /* 000041FE */]
00003ABC  1B40 B947                move.b     [A5 - 0x46B9], D0
00003AC0  4EBA 0606                jsr        [PC + 0x606 /* 000040C8 */]
00003AC4  4EBA 1E6A                jsr        [PC + 0x1E6A /* 00005930 */]
00003AC8  3EBC 0051                move.w     [A7], 0x51 /* 'Q' */
00003ACC  4EAD 0552                jsr        [A5 + 0x552 /* export_166, CODE:4 @ 00000000 */]
00003AD0  548F                     addq.l     A7, 2
label00003AD2:
00003AD2  4A2D B951                tst.b      [A5 - 0x46AF]
00003AD6  660C                     bne        +0xE /* 00003AE4 */
00003AD8  3F3C 000D                move.w     -[A7], 0xD /* '\r' */
00003ADC  4EBA CCD2                jsr        [PC - 0x332E /* 000007B0 */]
00003AE0  548F                     addq.l     A7, 2
00003AE2  600A                     bra        +0xC /* 00003AEE */
label00003AE4:
00003AE4  3F3C 000C                move.w     -[A7], 0xC
00003AE8  4EBA CCC6                jsr        [PC - 0x333A /* 000007B0 */]
00003AEC  548F                     addq.l     A7, 2
label00003AEE:
00003AEE  4EBA 0756                jsr        [PC + 0x756 /* 00004246 */]
label00003AF2:
00003AF2  4CDF 00C0                movem.l    D6,D7, [A7]+
00003AF6  4E75                     rts
fn00003AF8:
00003AF8  0C2D 0063 B982           cmpi.b     [A5 - 0x467E], 0x63 /* 'c' */
00003AFE  662E                     bne        +0x30 /* 00003B2E */
00003B00  0C2D 0063 B970           cmpi.b     [A5 - 0x4690], 0x63 /* 'c' */
00003B06  6606                     bne        +0x8 /* 00003B0E */
00003B08  1B7C 0001 B970           move.b     [A5 - 0x4690], 0x1
label00003B0E:
00003B0E  4EBA 0994                jsr        [PC + 0x994 /* 000044A4 */]
00003B12  4EBA FEB2                jsr        [PC - 0x14E /* 000039C6 */]
00003B16  4EBA 09A0                jsr        [PC + 0x9A0 /* 000044B8 */]
00003B1A  302D BA20                move.w     D0, [A5 - 0x45E0]
00003B1E  204D                     movea.l    A0, A5
00003B20  D0C0                     add.w      A0, D0
00003B22  7200                     moveq.l    D1, 0x00
00003B24  1228 A960                move.b     D1, [A0 - 0x56A0]
00003B28  3B41 BA8A                move.w     [A5 - 0x4576], D1
00003B2C  6014                     bra        +0x16 /* 00003B42 */
label00003B2E:
00003B2E  0C2D 0063 B970           cmpi.b     [A5 - 0x4690], 0x63 /* 'c' */
00003B34  660C                     bne        +0xE /* 00003B42 */
00003B36  4EBA 0944                jsr        [PC + 0x944 /* 0000447C */]
00003B3A  4EBA FE8A                jsr        [PC - 0x176 /* 000039C6 */]
00003B3E  4EBA 0950                jsr        [PC + 0x950 /* 00004490 */]
label00003B42:
00003B42  4E75                     rts
fn00003B44:
00003B44  2F07                     move.l     -[A7], D7
00003B46  7E00                     moveq.l    D7, 0x00
00003B48  1E2D B96A                move.b     D7, [A5 - 0x4696]
00003B4C  4A47                     tst.w      D7
00003B4E  6724                     beq        +0x26 /* 00003B74 */
00003B50  0C47 00DB                cmpi.w     D7, 0xDB
00003B54  6D06                     blt        +0x8 /* 00003B5C */
00003B56  0C47 00E5                cmpi.w     D7, 0xE5
00003B5A  6D18                     blt        +0x1A /* 00003B74 */
label00003B5C:
00003B5C  4EBA 09BA                jsr        [PC + 0x9BA /* 00004518 */]
00003B60  4EBA 0016                jsr        [PC + 0x16 /* 00003B78 */]
00003B64  4EBA 09D8                jsr        [PC + 0x9D8 /* 0000453E */]
00003B68  4EBA 0962                jsr        [PC + 0x962 /* 000044CC */]
00003B6C  4EBA 000A                jsr        [PC + 0xA /* 00003B78 */]
00003B70  4EBA 0980                jsr        [PC + 0x980 /* 000044F2 */]
label00003B74:
00003B74  2E1F                     move.l     D7, [A7]+
00003B76  4E75                     rts
fn00003B78:
00003B78  48E7 0F00                movem.l    -[A7], D4,D5,D6,D7
00003B7C  0C2D 0002 B952           cmpi.b     [A5 - 0x46AE], 0x2
00003B82  6600 00AA                bne        +0xAC /* 00003C2E */
00003B86  102D B94B                move.b     D0, [A5 - 0x46B5]
00003B8A  B02D B95D                cmp.b      D0, [A5 - 0x46A3]
00003B8E  6600 009E                bne        +0xA0 /* 00003C2E */
00003B92  7E00                     moveq.l    D7, 0x00
00003B94  1E2D B946                move.b     D7, [A5 - 0x46BA]
00003B98  0C47 0099                cmpi.w     D7, 0x99
00003B9C  6708                     beq        +0xA /* 00003BA6 */
00003B9E  0C47 009A                cmpi.w     D7, 0x9A
00003BA2  6600 008A                bne        +0x8C /* 00003C2E */
label00003BA6:
00003BA6  4EBA 1D48                jsr        [PC + 0x1D48 /* 000058F0 */]
00003BAA  3C00                     move.w     D6, D0
00003BAC  7A00                     moveq.l    D5, 0x00
00003BAE  1A2D B958                move.b     D5, [A5 - 0x46A8]
00003BB2  4A46                     tst.w      D6
00003BB4  6D12                     blt        +0x14 /* 00003BC8 */
00003BB6  0C46 001D                cmpi.w     D6, 0x1D
00003BBA  6C0C                     bge        +0xE /* 00003BC8 */
00003BBC  0C45 00A1                cmpi.w     D5, 0xA1
00003BC0  672C                     beq        +0x2E /* 00003BEE */
00003BC2  0C45 0096                cmpi.w     D5, 0x96
00003BC6  6726                     beq        +0x28 /* 00003BEE */
label00003BC8:
00003BC8  0C47 009A                cmpi.w     D7, 0x9A
00003BCC  6642                     bne        +0x44 /* 00003C10 */
00003BCE  0C2D 0002 B964           cmpi.b     [A5 - 0x469C], 0x2
00003BD4  6C04                     bge        +0x6 /* 00003BDA */
00003BD6  7808                     moveq.l    D4, 0x08
00003BD8  6002                     bra        +0x4 /* 00003BDC */
label00003BDA:
00003BDA  780C                     moveq.l    D4, 0x0C
label00003BDC:
00003BDC  B846                     cmp.w      D4, D6
00003BDE  6E30                     bgt        +0x32 /* 00003C10 */
00003BE0  0C46 001D                cmpi.w     D6, 0x1D
00003BE4  6C2A                     bge        +0x2C /* 00003C10 */
00003BE6  1B7C 0063 B95E           move.b     [A5 - 0x46A2], 0x63 /* 'c' */
00003BEC  6022                     bra        +0x24 /* 00003C10 */
label00003BEE:
00003BEE  3A3C 00A1                move.w     D5, 0xA1
00003BF2  1B45 B958                move.b     [A5 - 0x46A8], D5
00003BF6  4A2D B951                tst.b      [A5 - 0x46AF]
00003BFA  6706                     beq        +0x8 /* 00003C02 */
00003BFC  3B7C 0004 BA2A           move.w     [A5 - 0x45D6], 0x4
label00003C02:
00003C02  3F3C 0045                move.w     -[A7], 0x45 /* 'E' */
00003C06  4EAD 0552                jsr        [A5 + 0x552 /* export_166, CODE:4 @ 00000000 */]
00003C0A  4EBA 063A                jsr        [PC + 0x63A /* 00004246 */]
00003C0E  548F                     addq.l     A7, 2
label00003C10:
00003C10  0C47 009A                cmpi.w     D7, 0x9A
00003C14  6618                     bne        +0x1A /* 00003C2E */
00003C16  0C45 00A1                cmpi.w     D5, 0xA1
00003C1A  6712                     beq        +0x14 /* 00003C2E */
00003C1C  0C2D 0063 B95E           cmpi.b     [A5 - 0x46A2], 0x63 /* 'c' */
00003C22  670A                     beq        +0xC /* 00003C2E */
00003C24  3F3C 000B                move.w     -[A7], 0xB
00003C28  4EBA CB86                jsr        [PC - 0x347A /* 000007B0 */]
00003C2C  548F                     addq.l     A7, 2
label00003C2E:
00003C2E  4CDF 00F0                movem.l    D4,D5,D6,D7, [A7]+
00003C32  4E75                     rts
fn00003C34:
00003C34  0C6D 0003 A90C           cmpi.w     [A5 - 0x56F4], 0x3
00003C3A  6600 010E                bne        +0x110 /* 00003D4A */
00003C3E  0C2D 0056 B97F           cmpi.b     [A5 - 0x4681], 0x56 /* 'V' */
00003C44  6600 0104                bne        +0x106 /* 00003D4A */
00003C48  0C6D 0001 BA6A           cmpi.w     [A5 - 0x4596], 0x1
00003C4E  6600 00FA                bne        +0xFC /* 00003D4A */
00003C52  4A6D BA3C                tst.w      [A5 - 0x45C4]
00003C56  6700 00F2                beq        +0xF4 /* 00003D4A */
00003C5A  0C2D 0002 B96E           cmpi.b     [A5 - 0x4692], 0x2
00003C60  670A                     beq        +0xC /* 00003C6C */
00003C62  0C2D 0003 B96E           cmpi.b     [A5 - 0x4692], 0x3
00003C68  6600 00E0                bne        +0xE2 /* 00003D4A */
label00003C6C:
00003C6C  2F3C 0005 0001           move.l     -[A7], 0x50001
00003C72  3F2D BA6A                move.w     -[A7], [A5 - 0x4596]
00003C76  4EBA 02F6                jsr        [PC + 0x2F6 /* 00003F6E */]
00003C7A  0C2D 0015 BAE8           cmpi.b     [A5 - 0x4518], 0x15
00003C80  5C8F                     addq.l     A7, 6
00003C82  6600 00C6                bne        +0xC8 /* 00003D4A */
00003C86  7000                     moveq.l    D0, 0x00
00003C88  102D BAE9                move.b     D0, [A5 - 0x4517]
00003C8C  D0AD BD82                add.l      D0, [A5 - 0x427E]
00003C90  2040                     movea.l    A0, D0
00003C92  10BC 0001                move.b     [A0], 0x1
00003C96  3B7C 0018 BD6C           move.w     [A5 - 0x4294], 0x18
00003C9C  7000                     moveq.l    D0, 0x00
00003C9E  102D BAE9                move.b     D0, [A5 - 0x4517]
00003CA2  3F00                     move.w     -[A7], D0
00003CA4  4EAD 0442                jsr        [A5 + 0x442 /* export_132, CODE:4 @ 0000233E */]
00003CA8  522D BAE9                addq.b     [A5 - 0x4517], 1
00003CAC  7000                     moveq.l    D0, 0x00
00003CAE  102D BAE9                move.b     D0, [A5 - 0x4517]
00003CB2  3E80                     move.w     [A7], D0
00003CB4  4EAD 0442                jsr        [A5 + 0x442 /* export_132, CODE:4 @ 0000233E */]
00003CB8  1B7C 0004 B951           move.b     [A5 - 0x46AF], 0x4
00003CBE  1B6D BA6B B94F           move.b     [A5 - 0x46B1], [A5 - 0x4595]
00003CC4  1B7C 0005 B94A           move.b     [A5 - 0x46B6], 0x5
00003CCA  102D B94A                move.b     D0, [A5 - 0x46B6]
00003CCE  4880                     ext.w      D0
00003CD0  204D                     movea.l    A0, A5
00003CD2  D0C0                     add.w      A0, D0
00003CD4  7007                     moveq.l    D0, 0x07
00003CD6  D028 B87D                add.b      D0, [A0 - 0x4783]
00003CDA  5E00                     addq.b     D0, 7
00003CDC  1B40 B947                move.b     [A5 - 0x46B9], D0
00003CE0  1B7C 0001 B94B           move.b     [A5 - 0x46B5], 0x1
00003CE6  102D B94B                move.b     D0, [A5 - 0x46B5]
00003CEA  4880                     ext.w      D0
00003CEC  204D                     movea.l    A0, A5
00003CEE  D0C0                     add.w      A0, D0
00003CF0  D0C0                     add.w      A0, D0
00003CF2  1B68 B671 B948           move.b     [A5 - 0x46B8], [A0 - 0x498F]
00003CF8  422D B94E                clr.b      [A5 - 0x46B2]
00003CFC  422D B94D                clr.b      [A5 - 0x46B3]
00003D00  1B7C 00FF B949           move.b     [A5 - 0x46B7], 0xFF
00003D06  1B7C 0002 B952           move.b     [A5 - 0x46AE], 0x2
00003D0C  1B7C 00FF B953           move.b     [A5 - 0x46AD], 0xFF
00003D12  3EBC 0058                move.w     [A7], 0x58 /* 'X' */
00003D16  4EAD 0552                jsr        [A5 + 0x552 /* export_166, CODE:4 @ 00000000 */]
00003D1A  4EBA 052A                jsr        [PC + 0x52A /* 00004246 */]
00003D1E  3EBC 002C                move.w     [A7], 0x2C /* ',' */
00003D22  4EBA CA8C                jsr        [PC - 0x3574 /* 000007B0 */]
00003D26  3B7C 0002 BA20           move.w     [A5 - 0x45E0], 0x2
00003D2C  7003                     moveq.l    D0, 0x03
00003D2E  3B40 BA4C                move.w     [A5 - 0x45B4], D0
00003D32  3B40 BA4E                move.w     [A5 - 0x45B2], D0
00003D36  426D BA8A                clr.w      [A5 - 0x4576]
00003D3A  426D BA56                clr.w      [A5 - 0x45AA]
00003D3E  4EBA 0778                jsr        [PC + 0x778 /* 000044B8 */]
00003D42  3B7C 0001 BA2C           move.w     [A5 - 0x45D4], 0x1
00003D48  548F                     addq.l     A7, 2
label00003D4A:
00003D4A  4E75                     rts
fn00003D4C:
00003D4C  4E56 0000                link       A6, 0
00003D50  48E7 0308                movem.l    -[A7], D6,D7,A4
00003D54  286E 0008                movea.l    A4, [A6 + 0x8]
00003D58  0C6D 00FE BA5A           cmpi.w     [A5 - 0x45A6], 0xFE
00003D5E  6C00 0080                bge        +0x82 /* 00003DE0 */
00003D62  526D BA5A                addq.w     [A5 - 0x45A6], 1
00003D66  3E2D BA5C                move.w     D7, [A5 - 0x45A4]
00003D6A  2007                     move.l     D0, D7
00003D6C  48C0                     ext.l      D0
00003D6E  E588                     lsl        D0, 2
00003D70  3034 0800                move.w     D0, [A4 + D0]
00003D74  B06D BA5A                cmp.w      D0, [A5 - 0x45A6]
00003D78  6E06                     bgt        +0x8 /* 00003D80 */
00003D7A  526D BA5C                addq.w     [A5 - 0x45A4], 1
00003D7E  6002                     bra        +0x4 /* 00003D82 */
label00003D80:
00003D80  5347                     subq.w     D7, 1
label00003D82:
00003D82  2007                     move.l     D0, D7
00003D84  48C0                     ext.l      D0
00003D86  E588                     lsl        D0, 2
00003D88  3C34 0802                move.w     D6, [A4 + D0 + 0x2]
00003D8C  3006                     move.w     D0, D6
00003D8E  5240                     addq.w     D0, 1
00003D90  0C40 0008                cmpi.w     D0, 0x8
00003D94  624A                     bhi        +0x4C /* 00003DE0 */
00003D96  43FA 0050                lea.l      A1, [PC + 0x50 /* 00003DE8, value 0xFFBAFFC6 */]
00003D9A  D040                     add.w      D0, D0
00003D9C  D2F1 0000                add.w      A1, [A1 + D0.w]
00003DA0  4ED1                     jmp        [A1]
00003DA2  4A6D BA5E                tst.w      [A5 - 0x45A2]
00003DA6  6738                     beq        +0x3A /* 00003DE0 */
00003DA8  426D BA5E                clr.w      [A5 - 0x45A2]
00003DAC  6032                     bra        +0x34 /* 00003DE0 */
00003DAE  4EBA F670                jsr        [PC - 0x990 /* 00003420 */]
00003DB2  602C                     bra        +0x2E /* 00003DE0 */
00003DB4  4EBA F68C                jsr        [PC - 0x974 /* 00003442 */]
00003DB8  6026                     bra        +0x28 /* 00003DE0 */
00003DBA  4EBA F692                jsr        [PC - 0x96E /* 0000344E */]
00003DBE  6020                     bra        +0x22 /* 00003DE0 */
00003DC0  4EBA F69A                jsr        [PC - 0x966 /* 0000345C */]
00003DC4  601A                     bra        +0x1C /* 00003DE0 */
00003DC6  4EBA F6A0                jsr        [PC - 0x960 /* 00003468 */]
00003DCA  6014                     bra        +0x16 /* 00003DE0 */
00003DCC  4EBA F68E                jsr        [PC - 0x972 /* 0000345C */]
00003DD0  4EBA F670                jsr        [PC - 0x990 /* 00003442 */]
00003DD4  600A                     bra        +0xC /* 00003DE0 */
00003DD6  4EBA F724                jsr        [PC - 0x8DC /* 000034FC */]
00003DDA  6004                     bra        +0x6 /* 00003DE0 */
00003DDC  4EBA F72A                jsr        [PC - 0x8D6 /* 00003508 */]
label00003DE0:
00003DE0  4CDF 10C0                movem.l    D6,D7,A4, [A7]+
00003DE4  4E5E                     unlink     A6
00003DE6  4E75                     rts
00003DE8  FFBA                     .invalid   <<F/6/7>>
00003DEA  FFC6                     .invalid   <<F/7/7>>
00003DEC  FFCC                     .invalid   <<F/7/7>>
00003DEE  FFD2                     .invalid   <<F/7/7>>
00003DF0  FFD8                     .invalid   <<F/7/7>>
00003DF2  FFDE                     .invalid   <<F/7/7>>
00003DF4  FFE4                     .invalid   <<F/7/7>>
00003DF6  FFEE                     .invalid   <<F/7/7>>
00003DF8  FFF4                     .invalid   <<F/7/7>>
fn00003DFA:
00003DFA  0C2D 0004 B94F           cmpi.b     [A5 - 0x46B1], 0x4
00003E00  6612                     bne        +0x14 /* 00003E14 */
00003E02  0C2D 0050 B947           cmpi.b     [A5 - 0x46B9], 0x50 /* 'P' */
00003E08  6406                     bcc        +0x8 /* 00003E10 */
00003E0A  4EBA 1896                jsr        [PC + 0x1896 /* 000056A2 */]
00003E0E  6004                     bra        +0x6 /* 00003E14 */
label00003E10:
00003E10  4EBA F630                jsr        [PC - 0x9D0 /* 00003442 */]
label00003E14:
00003E14  4E75                     rts
fn00003E16:
00003E16  0C2D 0018 B94F           cmpi.b     [A5 - 0x46B1], 0x18
00003E1C  6642                     bne        +0x44 /* 00003E60 */
00003E1E  4A6D BA5A                tst.w      [A5 - 0x45A6]
00003E22  6626                     bne        +0x28 /* 00003E4A */
00003E24  2F3C 0001 0000           move.l     -[A7], 0x10000
00003E2A  3F3C 0018                move.w     -[A7], 0x18
00003E2E  4EBA 013E                jsr        [PC + 0x13E /* 00003F6E */]
00003E32  7000                     moveq.l    D0, 0x00
00003E34  102D BAE9                move.b     D0, [A5 - 0x4517]
00003E38  D0AD BD86                add.l      D0, [A5 - 0x427A]
00003E3C  2040                     movea.l    A0, D0
00003E3E  0C10 005C                cmpi.b     [A0], 0x5C /* '\\' */
00003E42  5C8F                     addq.l     A7, 6
00003E44  651A                     bcs        +0x1C /* 00003E60 */
00003E46  426D BA5C                clr.w      [A5 - 0x45A4]
label00003E4A:
00003E4A  486D A9A0                pea.l      [A5 - 0x5660]
00003E4E  4EBA FEFC                jsr        [PC - 0x104 /* 00003D4C */]
00003E52  0C2D 000F B947           cmpi.b     [A5 - 0x46B9], 0xF
00003E58  588F                     addq.l     A7, 4
00003E5A  6404                     bcc        +0x6 /* 00003E60 */
00003E5C  4EBA 1844                jsr        [PC + 0x1844 /* 000056A2 */]
label00003E60:
00003E60  4E75                     rts
fn00003E62:
00003E62  0C2D 0001 B94F           cmpi.b     [A5 - 0x46B1], 0x1
00003E68  6618                     bne        +0x1A /* 00003E82 */
00003E6A  0C2D 002B B96A           cmpi.b     [A5 - 0x4696], 0x2B /* '+' */
00003E70  6610                     bne        +0x12 /* 00003E82 */
00003E72  0C2D 0080 B96B           cmpi.b     [A5 - 0x4695], 0x80
00003E78  6408                     bcc        +0xA /* 00003E82 */
00003E7A  4EBA F680                jsr        [PC - 0x980 /* 000034FC */]
00003E7E  4EBA F5C2                jsr        [PC - 0xA3E /* 00003442 */]
label00003E82:
00003E82  4E75                     rts
fn00003E84:
00003E84  48E7 0300                movem.l    -[A7], D6,D7
00003E88  0C2D 000F B973           cmpi.b     [A5 - 0x468D], 0xF
00003E8E  6618                     bne        +0x1A /* 00003EA8 */
00003E90  4A6D BA2C                tst.w      [A5 - 0x45D4]
00003E94  6612                     bne        +0x14 /* 00003EA8 */
00003E96  0C2D 0096 B96B           cmpi.b     [A5 - 0x4695], 0x96
00003E9C  640A                     bcc        +0xC /* 00003EA8 */
00003E9E  3B7C 0001 BA2C           move.w     [A5 - 0x45D4], 0x1
00003EA4  6000 00C2                bra        +0xC4 /* 00003F68 */
label00003EA8:
00003EA8  7E00                     moveq.l    D7, 0x00
00003EAA  1E2D B958                move.b     D7, [A5 - 0x46A8]
00003EAE  4EBA 1A40                jsr        [PC + 0x1A40 /* 000058F0 */]
00003EB2  3C00                     move.w     D6, D0
00003EB4  0C2D 0002 B952           cmpi.b     [A5 - 0x46AE], 0x2
00003EBA  6D1C                     blt        +0x1E /* 00003ED8 */
00003EBC  4A6D BA36                tst.w      [A5 - 0x45CA]
00003EC0  6706                     beq        +0x8 /* 00003EC8 */
00003EC2  4A6D BA8A                tst.w      [A5 - 0x4576]
00003EC6  6608                     bne        +0xA /* 00003ED0 */
label00003EC8:
00003EC8  4EBA F7A0                jsr        [PC - 0x860 /* 0000366A */]
00003ECC  6000 009A                bra        +0x9C /* 00003F68 */
label00003ED0:
00003ED0  4EBA F596                jsr        [PC - 0xA6A /* 00003468 */]
00003ED4  6000 0092                bra        +0x94 /* 00003F68 */
label00003ED8:
00003ED8  0C2D 0002 B964           cmpi.b     [A5 - 0x469C], 0x2
00003EDE  6C06                     bge        +0x8 /* 00003EE6 */
00003EE0  4A6D BA36                tst.w      [A5 - 0x45CA]
00003EE4  6626                     bne        +0x28 /* 00003F0C */
label00003EE6:
00003EE6  0C6D 0002 BA24           cmpi.w     [A5 - 0x45DC], 0x2
00003EEC  6D06                     blt        +0x8 /* 00003EF4 */
00003EEE  0C46 005A                cmpi.w     D6, 0x5A /* 'Z' */
00003EF2  6D0A                     blt        +0xC /* 00003EFE */
label00003EF4:
00003EF4  4A46                     tst.w      D6
00003EF6  6C70                     bge        +0x72 /* 00003F68 */
00003EF8  4EBA F554                jsr        [PC - 0xAAC /* 0000344E */]
00003EFC  606A                     bra        +0x6C /* 00003F68 */
label00003EFE:
00003EFE  0C2D 000F B946           cmpi.b     [A5 - 0x46BA], 0xF
00003F04  6662                     bne        +0x64 /* 00003F68 */
00003F06  4EBA F592                jsr        [PC - 0xA6E /* 0000349A */]
00003F0A  605C                     bra        +0x5E /* 00003F68 */
label00003F0C:
00003F0C  0C46 000A                cmpi.w     D6, 0xA /* '\n' */
00003F10  6C32                     bge        +0x34 /* 00003F44 */
00003F12  3B7C 0007 BA18           move.w     [A5 - 0x45E8], 0x7
00003F18  3B7C 0012 BA1A           move.w     [A5 - 0x45E6], 0x12
00003F1E  4EBA C792                jsr        [PC - 0x386E /* 000006B2 */]
00003F22  4A2D A209                tst.b      [A5 - 0x5DF7]
00003F26  6708                     beq        +0xA /* 00003F30 */
00003F28  3B7C 002A BA8E           move.w     [A5 - 0x4572], 0x2A /* '*' */
00003F2E  6006                     bra        +0x8 /* 00003F36 */
label00003F30:
00003F30  3B6D BA1A BA8E           move.w     [A5 - 0x4572], [A5 - 0x45E6]
label00003F36:
00003F36  422D B951                clr.b      [A5 - 0x46AF]
00003F3A  4EBA 0554                jsr        [PC + 0x554 /* 00004490 */]
00003F3E  4EBA 1762                jsr        [PC + 0x1762 /* 000056A2 */]
00003F42  6024                     bra        +0x26 /* 00003F68 */
label00003F44:
00003F44  0C6D 0002 BA24           cmpi.w     [A5 - 0x45DC], 0x2
00003F4A  661C                     bne        +0x1E /* 00003F68 */
00003F4C  0C47 0003                cmpi.w     D7, 0x3
00003F50  6D06                     blt        +0x8 /* 00003F58 */
00003F52  0C47 000F                cmpi.w     D7, 0xF
00003F56  6D0C                     blt        +0xE /* 00003F64 */
label00003F58:
00003F58  0C47 007F                cmpi.w     D7, 0x7F
00003F5C  6D0A                     blt        +0xC /* 00003F68 */
00003F5E  0C47 0085                cmpi.w     D7, 0x85
00003F62  6C04                     bge        +0x6 /* 00003F68 */
label00003F64:
00003F64  4EBA F4DC                jsr        [PC - 0xB24 /* 00003442 */]
label00003F68:
00003F68  4CDF 00C0                movem.l    D6,D7, [A7]+
00003F6C  4E75                     rts
export_72:
fn00003F6E:
00003F6E  4E56 0000                link       A6, 0
00003F72  48E7 1F00                movem.l    -[A7], D3,D4,D5,D6,D7
00003F76  3C2E 0008                move.w     D6, [A6 + 0x8]
00003F7A  3E2E 000A                move.w     D7, [A6 + 0xA]
00003F7E  3A2E 000C                move.w     D5, [A6 + 0xC]
00003F82  6018                     bra        +0x1A /* 00003F9C */
label00003F84:
00003F84  0647 000A                addi.w     D7, 0xA /* '\n' */
00003F88  4A46                     tst.w      D6
00003F8A  6710                     beq        +0x12 /* 00003F9C */
00003F8C  204D                     movea.l    A0, A5
00003F8E  2006                     move.l     D0, D6
00003F90  48C0                     ext.l      D0
00003F92  E588                     lsl        D0, 2
00003F94  D1C0                     add.l      A0, D0
00003F96  7C00                     moveq.l    D6, 0x00
00003F98  1C28 F0BA                move.b     D6, [A0 - 0xF46]
label00003F9C:
00003F9C  4A47                     tst.w      D7
00003F9E  6DE4                     blt        -0x1A /* 00003F84 */
00003FA0  6018                     bra        +0x1A /* 00003FBA */
label00003FA2:
00003FA2  0647 FFF6                addi.w     D7, 0xFFF6
00003FA6  4A46                     tst.w      D6
00003FA8  6710                     beq        +0x12 /* 00003FBA */
00003FAA  204D                     movea.l    A0, A5
00003FAC  2006                     move.l     D0, D6
00003FAE  48C0                     ext.l      D0
00003FB0  E588                     lsl        D0, 2
00003FB2  D1C0                     add.l      A0, D0
00003FB4  7C00                     moveq.l    D6, 0x00
00003FB6  1C28 F0BB                move.b     D6, [A0 - 0xF45]
label00003FBA:
00003FBA  0C47 000A                cmpi.w     D7, 0xA /* '\n' */
00003FBE  6CE2                     bge        -0x1C /* 00003FA2 */
00003FC0  6016                     bra        +0x18 /* 00003FD8 */
label00003FC2:
00003FC2  5645                     addq.w     D5, 3
00003FC4  4A46                     tst.w      D6
00003FC6  6710                     beq        +0x12 /* 00003FD8 */
00003FC8  204D                     movea.l    A0, A5
00003FCA  2006                     move.l     D0, D6
00003FCC  48C0                     ext.l      D0
00003FCE  E588                     lsl        D0, 2
00003FD0  D1C0                     add.l      A0, D0
00003FD2  7C00                     moveq.l    D6, 0x00
00003FD4  1C28 F0BC                move.b     D6, [A0 - 0xF44]
label00003FD8:
00003FD8  4A45                     tst.w      D5
00003FDA  6DE6                     blt        -0x18 /* 00003FC2 */
00003FDC  6016                     bra        +0x18 /* 00003FF4 */
label00003FDE:
00003FDE  5745                     subq.w     D5, 3
00003FE0  4A46                     tst.w      D6
00003FE2  6710                     beq        +0x12 /* 00003FF4 */
00003FE4  204D                     movea.l    A0, A5
00003FE6  2006                     move.l     D0, D6
00003FE8  48C0                     ext.l      D0
00003FEA  E588                     lsl        D0, 2
00003FEC  D1C0                     add.l      A0, D0
00003FEE  7C00                     moveq.l    D6, 0x00
00003FF0  1C28 F0BD                move.b     D6, [A0 - 0xF43]
label00003FF4:
00003FF4  0C45 0003                cmpi.w     D5, 0x3
00003FF8  6CE4                     bge        -0x1A /* 00003FDE */
00003FFA  4A46                     tst.w      D6
00003FFC  6724                     beq        +0x26 /* 00004022 */
00003FFE  3F06                     move.w     -[A7], D6
00004000  4EAD 0512                jsr        [A5 + 0x512 /* export_158, CODE:4 @ 0000519E */]
00004004  204D                     movea.l    A0, A5
00004006  D0C5                     add.w      A0, D5
00004008  D0C5                     add.w      A0, D5
0000400A  3828 B646                move.w     D4, [A0 - 0x49BA]
0000400E  D847                     add.w      D4, D7
00004010  206D BD82                movea.l    A0, [A5 - 0x427E]
00004014  7600                     moveq.l    D3, 0x00
00004016  1630 4000                move.b     D3, [A0 + D4.w]
0000401A  0243 001F                andi.w     D3, 0x1F
0000401E  548F                     addq.l     A7, 2
00004020  6004                     bra        +0x6 /* 00004026 */
label00004022:
00004022  7800                     moveq.l    D4, 0x00
00004024  7614                     moveq.l    D3, 0x14
label00004026:
00004026  3B46 BAEA                move.w     [A5 - 0x4516], D6
0000402A  3B47 BAEC                move.w     [A5 - 0x4514], D7
0000402E  3B45 BAEE                move.w     [A5 - 0x4512], D5
00004032  1B44 BAE9                move.b     [A5 - 0x4517], D4
00004036  1B43 BAE8                move.b     [A5 - 0x4518], D3
0000403A  1003                     move.b     D0, D3
0000403C  4CDF 00F8                movem.l    D3,D4,D5,D6,D7, [A7]+
00004040  4E5E                     unlink     A6
00004042  4E75                     rts
export_73:
fn00004044:
00004044  4E56 0000                link       A6, 0
00004048  48E7 0300                movem.l    -[A7], D6,D7
0000404C  3E2E 0008                move.w     D7, [A6 + 0x8]
00004050  3C2E 000A                move.w     D6, [A6 + 0xA]
00004054  4A47                     tst.w      D7
00004056  6D26                     blt        +0x28 /* 0000407E */
00004058  0C47 000A                cmpi.w     D7, 0xA /* '\n' */
0000405C  6C20                     bge        +0x22 /* 0000407E */
0000405E  4A46                     tst.w      D6
00004060  6C08                     bge        +0xA /* 0000406A */
00004062  7001                     moveq.l    D0, 0x01
00004064  D047                     add.w      D0, D7
00004066  4440                     neg.w      D0
00004068  6016                     bra        +0x18 /* 00004080 */
label0000406A:
0000406A  0C46 0003                cmpi.w     D6, 0x3
0000406E  6C0E                     bge        +0x10 /* 0000407E */
00004070  204D                     movea.l    A0, A5
00004072  D0C6                     add.w      A0, D6
00004074  D0C6                     add.w      A0, D6
00004076  3028 B646                move.w     D0, [A0 - 0x49BA]
0000407A  D047                     add.w      D0, D7
0000407C  6002                     bra        +0x4 /* 00004080 */
label0000407E:
0000407E  701E                     moveq.l    D0, 0x1E
label00004080:
00004080  4CDF 00C0                movem.l    D6,D7, [A7]+
00004084  4E5E                     unlink     A6
00004086  4E75                     rts
export_74:
fn00004088:
00004088  4E56 0000                link       A6, 0
0000408C  48E7 0300                movem.l    -[A7], D6,D7
00004090  3E2E 0008                move.w     D7, [A6 + 0x8]
00004094  3C2E 000A                move.w     D6, [A6 + 0xA]
00004098  4A47                     tst.w      D7
0000409A  6D22                     blt        +0x24 /* 000040BE */
0000409C  0C47 000A                cmpi.w     D7, 0xA /* '\n' */
000040A0  6C1C                     bge        +0x1E /* 000040BE */
000040A2  4A46                     tst.w      D6
000040A4  6C04                     bge        +0x6 /* 000040AA */
000040A6  701E                     moveq.l    D0, 0x1E
000040A8  6016                     bra        +0x18 /* 000040C0 */
label000040AA:
000040AA  0C46 0003                cmpi.w     D6, 0x3
000040AE  6C0E                     bge        +0x10 /* 000040BE */
000040B0  204D                     movea.l    A0, A5
000040B2  D0C6                     add.w      A0, D6
000040B4  D0C6                     add.w      A0, D6
000040B6  3028 B646                move.w     D0, [A0 - 0x49BA]
000040BA  D047                     add.w      D0, D7
000040BC  6002                     bra        +0x4 /* 000040C0 */
label000040BE:
000040BE  701E                     moveq.l    D0, 0x1E
label000040C0:
000040C0  4CDF 00C0                movem.l    D6,D7, [A7]+
000040C4  4E5E                     unlink     A6
000040C6  4E75                     rts
export_75:
fn000040C8:
000040C8  4EBA 001A                jsr        [PC + 0x1A /* 000040E4 */]
000040CC  4EBA 0004                jsr        [PC + 0x4 /* 000040D2 */]
000040D0  4E75                     rts
export_76:
fn000040D2:
000040D2  4EBA 00F8                jsr        [PC + 0xF8 /* 000041CC */]
000040D6  3F00                     move.w     -[A7], D0
000040D8  4EBA 0300                jsr        [PC + 0x300 /* 000043DA */]
000040DC  1B40 B94A                move.b     [A5 - 0x46B6], D0
000040E0  548F                     addq.l     A7, 2
000040E2  4E75                     rts
export_77:
fn000040E4:
000040E4  2F07                     move.l     -[A7], D7
000040E6  7E00                     moveq.l    D7, 0x00
000040E8  1E2D B946                move.b     D7, [A5 - 0x46BA]
000040EC  102D B951                move.b     D0, [A5 - 0x46AF]
000040F0  672A                     beq        +0x2C /* 0000411C */
000040F2  6B00 00D4                bmi        +0xD6 /* 000041C8 */
000040F6  5900                     subq.b     D0, 4
000040F8  673A                     beq        +0x3C /* 00004134 */
000040FA  6A0A                     bpl        +0xC /* 00004106 */
000040FC  5400                     addq.b     D0, 2
000040FE  6734                     beq        +0x36 /* 00004134 */
00004100  6A00 00C6                bpl        +0xC8 /* 000041C8 */
00004104  6070                     bra        +0x72 /* 00004176 */
label00004106:
00004106  0400 0014                subi.b     D0, 0x14
0000410A  6710                     beq        +0x12 /* 0000411C */
0000410C  6A00 00BA                bpl        +0xBC /* 000041C8 */
00004110  0400 00EF                subi.b     D0, 0xEF
00004114  6A00 00B2                bpl        +0xB4 /* 000041C8 */
00004118  6000 009A                bra        +0x9C /* 000041B4 */
label0000411C:
0000411C  7006                     moveq.l    D0, 0x06
0000411E  C1C7                     muls.w     D0, D7
00004120  204D                     movea.l    A0, A5
00004122  D1C0                     add.l      A0, D0
00004124  2B68 AA94 B98E           move.l     [A5 - 0x4672], [A0 - 0x556C]
0000412A  3B68 AA98 B992           move.w     [A5 - 0x466E], [A0 - 0x5568]
00004130  6000 0096                bra        +0x98 /* 000041C8 */
label00004134:
00004134  0C47 0066                cmpi.w     D7, 0x66 /* 'f' */
00004138  6D20                     blt        +0x22 /* 0000415A */
0000413A  0C47 006B                cmpi.w     D7, 0x6B /* 'k' */
0000413E  6C1A                     bge        +0x1C /* 0000415A */
00004140  70B1                     moveq.l    D0, 0xFFFFFFB1
00004142  D047                     add.w      D0, D7
00004144  C1FC 0006                muls.w     D0, 0x6
00004148  204D                     movea.l    A0, A5
0000414A  D1C0                     add.l      A0, D0
0000414C  2B68 B03A B98E           move.l     [A5 - 0x4672], [A0 - 0x4FC6]
00004152  3B68 B03E B992           move.w     [A5 - 0x466E], [A0 - 0x4FC2]
00004158  606E                     bra        +0x70 /* 000041C8 */
label0000415A:
0000415A  3007                     move.w     D0, D7
0000415C  0640 FF6B                addi.w     D0, 0xFF6B
00004160  C1FC 0006                muls.w     D0, 0x6
00004164  204D                     movea.l    A0, A5
00004166  D1C0                     add.l      A0, D0
00004168  2B68 B03A B98E           move.l     [A5 - 0x4672], [A0 - 0x4FC6]
0000416E  3B68 B03E B992           move.w     [A5 - 0x466E], [A0 - 0x4FC2]
00004174  6052                     bra        +0x54 /* 000041C8 */
label00004176:
00004176  0C47 0096                cmpi.w     D7, 0x96
0000417A  6D22                     blt        +0x24 /* 0000419E */
0000417C  0C47 00BE                cmpi.w     D7, 0xBE
00004180  6C1C                     bge        +0x1E /* 0000419E */
00004182  3007                     move.w     D0, D7
00004184  0640 FF6B                addi.w     D0, 0xFF6B
00004188  C1FC 0006                muls.w     D0, 0x6
0000418C  204D                     movea.l    A0, A5
0000418E  D1C0                     add.l      A0, D0
00004190  2B68 B03A B98E           move.l     [A5 - 0x4672], [A0 - 0x4FC6]
00004196  3B68 B03E B992           move.w     [A5 - 0x466E], [A0 - 0x4FC2]
0000419C  602A                     bra        +0x2C /* 000041C8 */
label0000419E:
0000419E  7006                     moveq.l    D0, 0x06
000041A0  C1C7                     muls.w     D0, D7
000041A2  204D                     movea.l    A0, A5
000041A4  D1C0                     add.l      A0, D0
000041A6  2B68 AA94 B98E           move.l     [A5 - 0x4672], [A0 - 0x556C]
000041AC  3B68 AA98 B992           move.w     [A5 - 0x466E], [A0 - 0x5568]
000041B2  6014                     bra        +0x16 /* 000041C8 */
label000041B4:
000041B4  7006                     moveq.l    D0, 0x06
000041B6  C1C7                     muls.w     D0, D7
000041B8  204D                     movea.l    A0, A5
000041BA  D1C0                     add.l      A0, D0
000041BC  2B68 B130 B98E           move.l     [A5 - 0x4672], [A0 - 0x4ED0]
000041C2  3B68 B134 B992           move.w     [A5 - 0x466E], [A0 - 0x4ECC]
label000041C8:
000041C8  2E1F                     move.l     D7, [A7]+
000041CA  4E75                     rts
export_78:
fn000041CC:
000041CC  2F07                     move.l     -[A7], D7
000041CE  102D B990                move.b     D0, [A5 - 0x4670]
000041D2  4880                     ext.w      D0
000041D4  1E2D B992                move.b     D7, [A5 - 0x466E]
000041D8  4887                     ext.w      D7
000041DA  0247 001F                andi.w     D7, 0x1F
000041DE  4447                     neg.w      D7
000041E0  DE40                     add.w      D7, D0
000041E2  4A2D B949                tst.b      [A5 - 0x46B7]
000041E6  6C0A                     bge        +0xC /* 000041F2 */
000041E8  7000                     moveq.l    D0, 0x00
000041EA  102D B947                move.b     D0, [A5 - 0x46B9]
000041EE  9047                     sub.w      D0, D7
000041F0  6008                     bra        +0xA /* 000041FA */
label000041F2:
000041F2  7000                     moveq.l    D0, 0x00
000041F4  102D B947                move.b     D0, [A5 - 0x46B9]
000041F8  D047                     add.w      D0, D7
label000041FA:
000041FA  2E1F                     move.l     D7, [A7]+
000041FC  4E75                     rts
export_79:
fn000041FE:
000041FE  4E56 0000                link       A6, 0
00004202  4A2D B949                tst.b      [A5 - 0x46B7]
00004206  6C0C                     bge        +0xE /* 00004214 */
00004208  7000                     moveq.l    D0, 0x00
0000420A  102D B947                move.b     D0, [A5 - 0x46B9]
0000420E  906E 0008                sub.w      D0, [A6 + 0x8]
00004212  600A                     bra        +0xC /* 0000421E */
label00004214:
00004214  7000                     moveq.l    D0, 0x00
00004216  102D B947                move.b     D0, [A5 - 0x46B9]
0000421A  D06E 0008                add.w      D0, [A6 + 0x8]
label0000421E:
0000421E  4E5E                     unlink     A6
00004220  4E75                     rts
fn00004222:
00004222  4E56 0000                link       A6, 0
00004226  4A2D BAF1                tst.b      [A5 - 0x450F]
0000422A  6C0A                     bge        +0xC /* 00004236 */
0000422C  302E 0008                move.w     D0, [A6 + 0x8]
00004230  916D BAF6                sub.w      [A5 - 0x450A], D0
00004234  6008                     bra        +0xA /* 0000423E */
label00004236:
00004236  302E 0008                move.w     D0, [A6 + 0x8]
0000423A  D16D BAF6                add.w      [A5 - 0x450A], D0
label0000423E:
0000423E  302D BAF6                move.w     D0, [A5 - 0x450A]
00004242  4E5E                     unlink     A6
00004244  4E75                     rts
export_80:
fn00004246:
00004246  48E7 0108                movem.l    -[A7], D7,A4
0000424A  286D B954                movea.l    A4, [A5 - 0x46AC]
label0000424E:
0000424E  1E1C                     move.b     D7, [A4]+
00004250  1007                     move.b     D0, D7
00004252  4880                     ext.w      D0
00004254  0440 FFF1                subi.w     D0, 0xFFF1
00004258  0C40 000E                cmpi.w     D0, 0xE
0000425C  6200 0150                bhi        +0x152 /* 000043AE */
00004260  43FA 015A                lea.l      A1, [PC + 0x15A /* 000043BC, value 0xFFD2FF46 */]
00004264  D040                     add.w      D0, D0
00004266  D2F1 0000                add.w      A1, [A1 + D0.w]
0000426A  4ED1                     jmp        [A1]
0000426C  1E1C                     move.b     D7, [A4]+
0000426E  1007                     move.b     D0, D7
00004270  4880                     ext.w      D0
00004272  3F00                     move.w     -[A7], D0
00004274  4EBA FF88                jsr        [PC - 0x78 /* 000041FE */]
00004278  1B40 B947                move.b     [A5 - 0x46B9], D0
0000427C  548F                     addq.l     A7, 2
0000427E  60CE                     bra        -0x30 /* 0000424E */
00004280  1E1C                     move.b     D7, [A4]+
00004282  DF2D B948                add.b      [A5 - 0x46B8], D7
00004286  60C6                     bra        -0x38 /* 0000424E */
00004288  102D B949                move.b     D0, [A5 - 0x46B7]
0000428C  4600                     not.b      D0
0000428E  1B40 B949                move.b     [A5 - 0x46B7], D0
00004292  60BA                     bra        -0x44 /* 0000424E */
00004294  1E1C                     move.b     D7, [A4]+
00004296  4A6D BA30                tst.w      [A5 - 0x45D0]
0000429A  67B2                     beq        -0x4C /* 0000424E */
0000429C  7000                     moveq.l    D0, 0x00
0000429E  1007                     move.b     D0, D7
000042A0  204D                     movea.l    A0, A5
000042A2  E588                     lsl        D0, 2
000042A4  D1C0                     add.l      A0, D0
000042A6  2868 FCE4                movea.l    A4, [A0 - 0x31C]
000042AA  60A2                     bra        -0x5C /* 0000424E */
000042AC  1E1C                     move.b     D7, [A4]+
000042AE  7000                     moveq.l    D0, 0x00
000042B0  1007                     move.b     D0, D7
000042B2  204D                     movea.l    A0, A5
000042B4  E588                     lsl        D0, 2
000042B6  D1C0                     add.l      A0, D0
000042B8  2868 FCE4                movea.l    A4, [A0 - 0x31C]
000042BC  6090                     bra        -0x6E /* 0000424E */
000042BE  532D B94B                subq.b     [A5 - 0x46B5], 1
000042C2  4EAD 0492                jsr        [A5 + 0x492 /* export_142, CODE:4 @ 00002A74 */]
000042C6  6086                     bra        -0x78 /* 0000424E */
000042C8  4EBA 1666                jsr        [PC + 0x1666 /* 00005930 */]
000042CC  4EAD 0492                jsr        [A5 + 0x492 /* export_142, CODE:4 @ 00002A74 */]
000042D0  6000 FF7C                bra        -0x82 /* 0000424E */
000042D4  1E1C                     move.b     D7, [A4]+
000042D6  1B47 B94C                move.b     [A5 - 0x46B4], D7
000042DA  6000 FF72                bra        -0x8C /* 0000424E */
000042DE  1E1C                     move.b     D7, [A4]+
000042E0  1B47 B94D                move.b     [A5 - 0x46B3], D7
000042E4  1E1C                     move.b     D7, [A4]+
000042E6  1B47 B94E                move.b     [A5 - 0x46B2], D7
000042EA  6000 FF62                bra        -0x9C /* 0000424E */
000042EE  3B7C 0001 BA1C           move.w     [A5 - 0x45E4], 0x1
000042F4  6000 FF58                bra        -0xA6 /* 0000424E */
000042F8  3B7C FFFF BA1C           move.w     [A5 - 0x45E4], 0xFFFF
000042FE  6000 FF4E                bra        -0xB0 /* 0000424E */
00004302  1E1C                     move.b     D7, [A4]+
00004304  1007                     move.b     D0, D7
00004306  6722                     beq        +0x24 /* 0000432A */
00004308  6B00 FF44                bmi        -0xBA /* 0000424E */
0000430C  5700                     subq.b     D0, 3
0000430E  6738                     beq        +0x3A /* 00004348 */
00004310  6A06                     bpl        +0x8 /* 00004318 */
00004312  5200                     addq.b     D0, 1
00004314  6A1E                     bpl        +0x20 /* 00004334 */
00004316  6008                     bra        +0xA /* 00004320 */
label00004318:
00004318  5500                     subq.b     D0, 2
0000431A  6A00 FF32                bpl        -0xCC /* 0000424E */
0000431E  6036                     bra        +0x38 /* 00004356 */
label00004320:
00004320  3F3C 0017                move.w     -[A7], 0x17
00004324  4EBA C48A                jsr        [PC - 0x3B76 /* 000007B0 */]
00004328  548F                     addq.l     A7, 2
label0000432A:
0000432A  3B7C 0001 BA56           move.w     [A5 - 0x45AA], 0x1
00004330  6000 FF1C                bra        -0xE2 /* 0000424E */
label00004334:
00004334  3F3C 0008                move.w     -[A7], 0x8
00004338  4EBA C476                jsr        [PC - 0x3B8A /* 000007B0 */]
0000433C  3B7C 0001 BA56           move.w     [A5 - 0x45AA], 0x1
00004342  548F                     addq.l     A7, 2
00004344  6000 FF08                bra        -0xF6 /* 0000424E */
label00004348:
00004348  3F3C 0012                move.w     -[A7], 0x12
0000434C  4EBA C462                jsr        [PC - 0x3B9E /* 000007B0 */]
00004350  548F                     addq.l     A7, 2
00004352  6000 FEFA                bra        -0x104 /* 0000424E */
label00004356:
00004356  0C6D 000F A90C           cmpi.w     [A5 - 0x56F4], 0xF
0000435C  6700 FEF0                beq        -0x10E /* 0000424E */
00004360  0C6D 0004 A90C           cmpi.w     [A5 - 0x56F4], 0x4
00004366  660E                     bne        +0x10 /* 00004376 */
00004368  3F3C 0020                move.w     -[A7], 0x20 /* ' ' */
0000436C  4EBA C442                jsr        [PC - 0x3BBE /* 000007B0 */]
00004370  548F                     addq.l     A7, 2
00004372  6000 FEDA                bra        -0x124 /* 0000424E */
label00004376:
00004376  0C6D 000D A90C           cmpi.w     [A5 - 0x56F4], 0xD /* '\r' */
0000437C  6700 FED0                beq        -0x12E /* 0000424E */
00004380  3F3C 0029                move.w     -[A7], 0x29 /* ')' */
00004384  4EBA C42A                jsr        [PC - 0x3BD6 /* 000007B0 */]
00004388  548F                     addq.l     A7, 2
0000438A  6000 FEC2                bra        -0x13C /* 0000424E */
0000438E  7001                     moveq.l    D0, 0x01
00004390  D06D A90C                add.w      D0, [A5 - 0x56F4]
00004394  3B40 BA38                move.w     [A5 - 0x45C8], D0
00004398  6000 FEB4                bra        -0x14A /* 0000424E */
0000439C  1E1C                     move.b     D7, [A4]+
0000439E  0C07 0001                cmpi.b     D7, 0x1
000043A2  6600 FEAA                bne        -0x154 /* 0000424E */
000043A6  4EBA 110A                jsr        [PC + 0x110A /* 000054B2 */]
000043AA  6000 FEA2                bra        -0x15C /* 0000424E */
label000043AE:
000043AE  1B47 B946                move.b     [A5 - 0x46BA], D7
000043B2  2B4C B954                move.l     [A5 - 0x46AC], A4
000043B6  4CDF 1080                movem.l    D7,A4, [A7]+
000043BA  4E75                     rts
000043BC  FFD2                     .invalid   <<F/7/7>>
000043BE  FF46                     .extension 0xF46 <<F/4-5/7>> // unimplemented
000043C0  FFE0                     .invalid   <<F/7/7>>
000043C2  FF3C                     .extension 0xF3C <<F/4-5/7>> // unimplemented
000043C4  FF32                     .extension 0xF32 <<F/4-5/7>> // unimplemented
000043C6  FE92 FED8                .extension 0xE92 <<F/2-3/7>> // unimplemented
000043CA  FF22                     .extension 0xF22 <<F/4-5/7>> // unimplemented
000043CC  FF18                     .extension 0xF18 <<F/4-5/7>> // unimplemented
000043CE  FEC4 FEB0                .extension 0xEC4 <<F/2-3/7>> // unimplemented
000043D2  FF0C                     .extension 0xF0C <<F/4-5/7>> // unimplemented
000043D4  FF02                     .extension 0xF02 <<F/4-5/7>> // unimplemented
000043D6  FECC FEF0                .extension 0xECC <<F/2-3/7>> // unimplemented
export_81:
fn000043DA:
000043DA  4E56 0000                link       A6, 0
000043DE  2F07                     move.l     -[A7], D7
000043E0  3E2E 0008                move.w     D7, [A6 + 0x8]
000043E4  5F47                     subq.w     D7, 7
000043E6  204D                     movea.l    A0, A5
000043E8  D0C7                     add.w      A0, D7
000043EA  1B68 B778 BD7E           move.b     [A5 - 0x4282], [A0 - 0x4888]
000043F0  204D                     movea.l    A0, A5
000043F2  D0C7                     add.w      A0, D7
000043F4  1028 B678                move.b     D0, [A0 - 0x4988]
000043F8  4880                     ext.w      D0
000043FA  2E1F                     move.l     D7, [A7]+
000043FC  4E5E                     unlink     A6
000043FE  4E75                     rts
export_82:
fn00004400:
00004400  4E56 0000                link       A6, 0
00004404  2F07                     move.l     -[A7], D7
00004406  3E2E 0008                move.w     D7, [A6 + 0x8]
0000440A  204D                     movea.l    A0, A5
0000440C  D0C7                     add.w      A0, D7
0000440E  1B68 B778 BD7E           move.b     [A5 - 0x4282], [A0 - 0x4888]
00004414  204D                     movea.l    A0, A5
00004416  D0C7                     add.w      A0, D7
00004418  1028 B678                move.b     D0, [A0 - 0x4988]
0000441C  4880                     ext.w      D0
0000441E  2E1F                     move.l     D7, [A7]+
00004420  4E5E                     unlink     A6
00004422  4E75                     rts
00004424  4E56 0000                link       A6, 0
00004428  2F07                     move.l     -[A7], D7
0000442A  3E2E 0008                move.w     D7, [A6 + 0x8]
0000442E  BE6D B676                cmp.w      D7, [A5 - 0x498A]
00004432  6D04                     blt        +0x6 /* 00004438 */
00004434  7003                     moveq.l    D0, 0x03
00004436  6020                     bra        +0x22 /* 00004458 */
label00004438:
00004438  BE6D B674                cmp.w      D7, [A5 - 0x498C]
0000443C  6D04                     blt        +0x6 /* 00004442 */
0000443E  7002                     moveq.l    D0, 0x02
00004440  6016                     bra        +0x18 /* 00004458 */
label00004442:
00004442  BE6D B672                cmp.w      D7, [A5 - 0x498E]
00004446  6D04                     blt        +0x6 /* 0000444C */
00004448  7001                     moveq.l    D0, 0x01
0000444A  600C                     bra        +0xE /* 00004458 */
label0000444C:
0000444C  BE6D B670                cmp.w      D7, [A5 - 0x4990]
00004450  6D04                     blt        +0x6 /* 00004456 */
00004452  7000                     moveq.l    D0, 0x00
00004454  6002                     bra        +0x4 /* 00004458 */
label00004456:
00004456  70FF                     moveq.l    D0, 0xFFFFFFFF
label00004458:
00004458  2E1F                     move.l     D7, [A7]+
0000445A  4E5E                     unlink     A6
0000445C  4E75                     rts
export_83:
fn0000445E:
0000445E  4E56 0000                link       A6, 0
00004462  703C                     moveq.l    D0, 0x3C
00004464  D06E 0008                add.w      D0, [A6 + 0x8]
00004468  48C0                     ext.l      D0
0000446A  81FC 003F                divs.w     D0, 0x3F /* '?' */
0000446E  48C0                     ext.l      D0
00004470  81FC 0004                divs.w     D0, 0x4
00004474  4840                     swap.w     D0
00004476  5340                     subq.w     D0, 1
00004478  4E5E                     unlink     A6
0000447A  4E75                     rts
export_84:
fn0000447C:
0000447C  41ED B946                lea.l      A0, [A5 - 0x46BA]
00004480  43ED B96A                lea.l      A1, [A5 - 0x4696]
00004484  20D9                     move.l     [A0]+, [A1]+
00004486  20D9                     move.l     [A0]+, [A1]+
00004488  20D9                     move.l     [A0]+, [A1]+
0000448A  20D9                     move.l     [A0]+, [A1]+
0000448C  30D9                     move.w     [A0]+, [A1]+
0000448E  4E75                     rts
export_85:
fn00004490:
00004490  41ED B96A                lea.l      A0, [A5 - 0x4696]
00004494  43ED B946                lea.l      A1, [A5 - 0x46BA]
00004498  20D9                     move.l     [A0]+, [A1]+
0000449A  20D9                     move.l     [A0]+, [A1]+
0000449C  20D9                     move.l     [A0]+, [A1]+
0000449E  20D9                     move.l     [A0]+, [A1]+
000044A0  30D9                     move.w     [A0]+, [A1]+
000044A2  4E75                     rts
export_86:
fn000044A4:
000044A4  41ED B946                lea.l      A0, [A5 - 0x46BA]
000044A8  43ED B97C                lea.l      A1, [A5 - 0x4684]
000044AC  20D9                     move.l     [A0]+, [A1]+
000044AE  20D9                     move.l     [A0]+, [A1]+
000044B0  20D9                     move.l     [A0]+, [A1]+
000044B2  20D9                     move.l     [A0]+, [A1]+
000044B4  30D9                     move.w     [A0]+, [A1]+
000044B6  4E75                     rts
fn000044B8:
000044B8  41ED B97C                lea.l      A0, [A5 - 0x4684]
000044BC  43ED B946                lea.l      A1, [A5 - 0x46BA]
000044C0  20D9                     move.l     [A0]+, [A1]+
000044C2  20D9                     move.l     [A0]+, [A1]+
000044C4  20D9                     move.l     [A0]+, [A1]+
000044C6  20D9                     move.l     [A0]+, [A1]+
000044C8  30D9                     move.w     [A0]+, [A1]+
000044CA  4E75                     rts
fn000044CC:
000044CC  41ED B946                lea.l      A0, [A5 - 0x46BA]
000044D0  43ED B96A                lea.l      A1, [A5 - 0x4696]
000044D4  20D9                     move.l     [A0]+, [A1]+
000044D6  20D9                     move.l     [A0]+, [A1]+
000044D8  20D9                     move.l     [A0]+, [A1]+
000044DA  20D9                     move.l     [A0]+, [A1]+
000044DC  30D9                     move.w     [A0]+, [A1]+
000044DE  41ED B958                lea.l      A0, [A5 - 0x46A8]
000044E2  43ED B97C                lea.l      A1, [A5 - 0x4684]
000044E6  20D9                     move.l     [A0]+, [A1]+
000044E8  20D9                     move.l     [A0]+, [A1]+
000044EA  20D9                     move.l     [A0]+, [A1]+
000044EC  20D9                     move.l     [A0]+, [A1]+
000044EE  30D9                     move.w     [A0]+, [A1]+
000044F0  4E75                     rts
fn000044F2:
000044F2  41ED B96A                lea.l      A0, [A5 - 0x4696]
000044F6  43ED B946                lea.l      A1, [A5 - 0x46BA]
000044FA  20D9                     move.l     [A0]+, [A1]+
000044FC  20D9                     move.l     [A0]+, [A1]+
000044FE  20D9                     move.l     [A0]+, [A1]+
00004500  20D9                     move.l     [A0]+, [A1]+
00004502  30D9                     move.w     [A0]+, [A1]+
00004504  41ED B97C                lea.l      A0, [A5 - 0x4684]
00004508  43ED B958                lea.l      A1, [A5 - 0x46A8]
0000450C  20D9                     move.l     [A0]+, [A1]+
0000450E  20D9                     move.l     [A0]+, [A1]+
00004510  20D9                     move.l     [A0]+, [A1]+
00004512  20D9                     move.l     [A0]+, [A1]+
00004514  30D9                     move.w     [A0]+, [A1]+
00004516  4E75                     rts
fn00004518:
00004518  41ED B946                lea.l      A0, [A5 - 0x46BA]
0000451C  43ED B97C                lea.l      A1, [A5 - 0x4684]
00004520  20D9                     move.l     [A0]+, [A1]+
00004522  20D9                     move.l     [A0]+, [A1]+
00004524  20D9                     move.l     [A0]+, [A1]+
00004526  20D9                     move.l     [A0]+, [A1]+
00004528  30D9                     move.w     [A0]+, [A1]+
0000452A  41ED B958                lea.l      A0, [A5 - 0x46A8]
0000452E  43ED B96A                lea.l      A1, [A5 - 0x4696]
00004532  20D9                     move.l     [A0]+, [A1]+
00004534  20D9                     move.l     [A0]+, [A1]+
00004536  20D9                     move.l     [A0]+, [A1]+
00004538  20D9                     move.l     [A0]+, [A1]+
0000453A  30D9                     move.w     [A0]+, [A1]+
0000453C  4E75                     rts
fn0000453E:
0000453E  41ED B97C                lea.l      A0, [A5 - 0x4684]
00004542  43ED B946                lea.l      A1, [A5 - 0x46BA]
00004546  20D9                     move.l     [A0]+, [A1]+
00004548  20D9                     move.l     [A0]+, [A1]+
0000454A  20D9                     move.l     [A0]+, [A1]+
0000454C  20D9                     move.l     [A0]+, [A1]+
0000454E  30D9                     move.w     [A0]+, [A1]+
00004550  41ED B96A                lea.l      A0, [A5 - 0x4696]
00004554  43ED B958                lea.l      A1, [A5 - 0x46A8]
00004558  20D9                     move.l     [A0]+, [A1]+
0000455A  20D9                     move.l     [A0]+, [A1]+
0000455C  20D9                     move.l     [A0]+, [A1]+
0000455E  20D9                     move.l     [A0]+, [A1]+
00004560  30D9                     move.w     [A0]+, [A1]+
00004562  4E75                     rts
export_87:
fn00004564:
00004564  302D A5CC                move.w     D0, [A5 - 0x5A34]
00004568  3B40 BAFE                move.w     [A5 - 0x4502], D0
0000456C  3B40 BD76                move.w     [A5 - 0x428A], D0
00004570  3B40 BD74                move.w     [A5 - 0x428C], D0
00004574  3B6D A5D0 BB00           move.w     [A5 - 0x4500], [A5 - 0x5A30]
0000457A  3B6D A5CE BB02           move.w     [A5 - 0x44FE], [A5 - 0x5A32]
00004580  322D A5D2                move.w     D1, [A5 - 0x5A2E]
00004584  3B41 BB04                move.w     [A5 - 0x44FC], D1
00004588  3B41 BD78                move.w     [A5 - 0x4288], D1
0000458C  422D AA36                clr.b      [A5 - 0x55CA]
00004590  422D AA35                clr.b      [A5 - 0x55CB]
00004594  4E75                     rts
fn00004596:
00004596  0C2D 0004 B94C           cmpi.b     [A5 - 0x46B4], 0x4
0000459C  662C                     bne        +0x2E /* 000045CA */
0000459E  4A6D BA30                tst.w      [A5 - 0x45D0]
000045A2  6714                     beq        +0x16 /* 000045B8 */
000045A4  522D B94E                addq.b     [A5 - 0x46B2], 1
000045A8  0C2D 0004 B94E           cmpi.b     [A5 - 0x46B2], 0x4
000045AE  6F1A                     ble        +0x1C /* 000045CA */
000045B0  1B7C 0004 B94E           move.b     [A5 - 0x46B2], 0x4
000045B6  6012                     bra        +0x14 /* 000045CA */
label000045B8:
000045B8  562D B94E                addq.b     [A5 - 0x46B2], 3
000045BC  0C2D 0021 B94E           cmpi.b     [A5 - 0x46B2], 0x21 /* '!' */
000045C2  6F06                     ble        +0x8 /* 000045CA */
000045C4  1B7C 0021 B94E           move.b     [A5 - 0x46B2], 0x21 /* '!' */
label000045CA:
000045CA  4E75                     rts
fn000045CC:
000045CC  102D B94E                move.b     D0, [A5 - 0x46B2]
000045D0  D12D B948                add.b      [A5 - 0x46B8], D0
000045D4  0C2D 0004 B94C           cmpi.b     [A5 - 0x46B4], 0x4
000045DA  6616                     bne        +0x18 /* 000045F2 */
000045DC  102D B94D                move.b     D0, [A5 - 0x46B3]
000045E0  4880                     ext.w      D0
000045E2  3F00                     move.w     -[A7], D0
000045E4  4EBA FC18                jsr        [PC - 0x3E8 /* 000041FE */]
000045E8  1B40 B947                move.b     [A5 - 0x46B9], D0
000045EC  4EBA FADA                jsr        [PC - 0x526 /* 000040C8 */]
000045F0  548F                     addq.l     A7, 2
label000045F2:
000045F2  4E75                     rts
fn000045F4:
000045F4  48E7 0300                movem.l    -[A7], D6,D7
000045F8  1E2D B94C                move.b     D7, [A5 - 0x46B4]
000045FC  4887                     ext.w      D7
000045FE  7C00                     moveq.l    D6, 0x00
00004600  1C2D B946                move.b     D6, [A5 - 0x46BA]
00004604  0C47 0006                cmpi.w     D7, 0x6
00004608  6740                     beq        +0x42 /* 0000464A */
0000460A  0C47 0005                cmpi.w     D7, 0x5
0000460E  660C                     bne        +0xE /* 0000461C */
00004610  0C46 006D                cmpi.w     D6, 0x6D /* 'm' */
00004614  6634                     bne        +0x36 /* 0000464A */
00004616  4EBA 0226                jsr        [PC + 0x226 /* 0000483E */]
0000461A  602E                     bra        +0x30 /* 0000464A */
label0000461C:
0000461C  0C47 0004                cmpi.w     D7, 0x4
00004620  6606                     bne        +0x8 /* 00004628 */
00004622  4EAD 055A                jsr        [A5 + 0x55A /* export_167, CODE:4 @ 00000040 */]
00004626  6022                     bra        +0x24 /* 0000464A */
label00004628:
00004628  0C47 0003                cmpi.w     D7, 0x3
0000462C  6612                     bne        +0x14 /* 00004640 */
0000462E  0C46 0066                cmpi.w     D6, 0x66 /* 'f' */
00004632  6D16                     blt        +0x18 /* 0000464A */
00004634  0C46 006A                cmpi.w     D6, 0x6A /* 'j' */
00004638  6C10                     bge        +0x12 /* 0000464A */
0000463A  4EBA 03EA                jsr        [PC + 0x3EA /* 00004A26 */]
0000463E  600A                     bra        +0xC /* 0000464A */
label00004640:
00004640  0C47 0002                cmpi.w     D7, 0x2
00004644  6704                     beq        +0x6 /* 0000464A */
00004646  4EBA 01F6                jsr        [PC + 0x1F6 /* 0000483E */]
label0000464A:
0000464A  4CDF 00C0                movem.l    D6,D7, [A7]+
0000464E  4E75                     rts
export_88:
fn00004650:
00004650  4E56 0000                link       A6, 0
00004654  2F07                     move.l     -[A7], D7
00004656  3E2E 0008                move.w     D7, [A6 + 0x8]
0000465A  4A47                     tst.w      D7
0000465C  672A                     beq        +0x2C /* 00004688 */
0000465E  0C47 0009                cmpi.w     D7, 0x9 /* '\t' */
00004662  6724                     beq        +0x26 /* 00004688 */
00004664  0C47 000C                cmpi.w     D7, 0xC
00004668  671E                     beq        +0x20 /* 00004688 */
0000466A  0C47 0014                cmpi.w     D7, 0x14
0000466E  6718                     beq        +0x1A /* 00004688 */
00004670  0C47 001A                cmpi.w     D7, 0x1A
00004674  6712                     beq        +0x14 /* 00004688 */
00004676  0C47 001B                cmpi.w     D7, 0x1B
0000467A  670C                     beq        +0xE /* 00004688 */
0000467C  0C47 001C                cmpi.w     D7, 0x1C
00004680  6706                     beq        +0x8 /* 00004688 */
00004682  0C47 001D                cmpi.w     D7, 0x1D
00004686  6604                     bne        +0x6 /* 0000468C */
label00004688:
00004688  7000                     moveq.l    D0, 0x00
0000468A  6002                     bra        +0x4 /* 0000468E */
label0000468C:
0000468C  7001                     moveq.l    D0, 0x01
label0000468E:
0000468E  2E1F                     move.l     D7, [A7]+
00004690  4E5E                     unlink     A6
00004692  4E75                     rts
fn00004694:
00004694  48E7 0300                movem.l    -[A7], D6,D7
00004698  7E00                     moveq.l    D7, 0x00
0000469A  1E2D B946                move.b     D7, [A5 - 0x46BA]
0000469E  102D B94B                move.b     D0, [A5 - 0x46B5]
000046A2  4880                     ext.w      D0
000046A4  3F00                     move.w     -[A7], D0
000046A6  102D B94A                move.b     D0, [A5 - 0x46B6]
000046AA  4880                     ext.w      D0
000046AC  3F00                     move.w     -[A7], D0
000046AE  102D B94F                move.b     D0, [A5 - 0x46B1]
000046B2  4880                     ext.w      D0
000046B4  3F00                     move.w     -[A7], D0
000046B6  4EBA F8B6                jsr        [PC - 0x74A /* 00003F6E */]
000046BA  7200                     moveq.l    D1, 0x00
000046BC  1200                     move.b     D1, D0
000046BE  5541                     subq.w     D1, 2
000046C0  5C8F                     addq.l     A7, 6
000046C2  6638                     bne        +0x3A /* 000046FC */
000046C4  4EAD 04B2                jsr        [A5 + 0x4B2 /* export_146, CODE:4 @ 000030AA */]
000046C8  3C00                     move.w     D6, D0
000046CA  0C46 0002                cmpi.w     D6, 0x2
000046CE  6D18                     blt        +0x1A /* 000046E8 */
000046D0  0C47 0007                cmpi.w     D7, 0x7
000046D4  6D06                     blt        +0x8 /* 000046DC */
000046D6  0C47 000F                cmpi.w     D7, 0xF
000046DA  6D1C                     blt        +0x1E /* 000046F8 */
label000046DC:
000046DC  0C47 0022                cmpi.w     D7, 0x22 /* '\"' */
000046E0  6D06                     blt        +0x8 /* 000046E8 */
000046E2  0C47 0028                cmpi.w     D7, 0x28 /* '(' */
000046E6  6D10                     blt        +0x12 /* 000046F8 */
label000046E8:
000046E8  0C47 002B                cmpi.w     D7, 0x2B /* '+' */
000046EC  6706                     beq        +0x8 /* 000046F4 */
000046EE  0C47 001A                cmpi.w     D7, 0x1A
000046F2  6608                     bne        +0xA /* 000046FC */
label000046F4:
000046F4  4A46                     tst.w      D6
000046F6  6704                     beq        +0x6 /* 000046FC */
label000046F8:
000046F8  4EAD 0562                jsr        [A5 + 0x562 /* export_168, CODE:4 @ 000001DA */]
label000046FC:
000046FC  4CDF 00C0                movem.l    D6,D7, [A7]+
00004700  4E75                     rts
export_89:
fn00004702:
00004702  4E56 0000                link       A6, 0
00004706  2F07                     move.l     -[A7], D7
00004708  3E2E 0008                move.w     D7, [A6 + 0x8]
0000470C  4A2D B951                tst.b      [A5 - 0x46AF]
00004710  6624                     bne        +0x26 /* 00004736 */
00004712  BE6D BA4A                cmp.w      D7, [A5 - 0x45B6]
00004716  6D12                     blt        +0x14 /* 0000472A */
00004718  302D BA4A                move.w     D0, [A5 - 0x45B6]
0000471C  4440                     neg.w      D0
0000471E  3B40 BA50                move.w     [A5 - 0x45B0], D0
00004722  526D 9636                addq.w     [A5 - 0x69CA], 1
00004726  7001                     moveq.l    D0, 0x01
00004728  602E                     bra        +0x30 /* 00004758 */
label0000472A:
0000472A  3207                     move.w     D1, D7
0000472C  4441                     neg.w      D1
0000472E  3B41 BA50                move.w     [A5 - 0x45B0], D1
00004732  7000                     moveq.l    D0, 0x00
00004734  6022                     bra        +0x24 /* 00004758 */
label00004736:
00004736  BE6D BA4C                cmp.w      D7, [A5 - 0x45B4]
0000473A  6D12                     blt        +0x14 /* 0000474E */
0000473C  302D BA4C                move.w     D0, [A5 - 0x45B4]
00004740  4440                     neg.w      D0
00004742  3B40 BA52                move.w     [A5 - 0x45AE], D0
00004746  526D 9634                addq.w     [A5 - 0x69CC], 1
0000474A  7001                     moveq.l    D0, 0x01
0000474C  600A                     bra        +0xC /* 00004758 */
label0000474E:
0000474E  3207                     move.w     D1, D7
00004750  4441                     neg.w      D1
00004752  3B41 BA52                move.w     [A5 - 0x45AE], D1
00004756  7000                     moveq.l    D0, 0x00
label00004758:
00004758  2E1F                     move.l     D7, [A7]+
0000475A  4E5E                     unlink     A6
0000475C  4E75                     rts
export_90:
fn0000475E:
0000475E  102D B94B                move.b     D0, [A5 - 0x46B5]
00004762  4880                     ext.w      D0
00004764  3F00                     move.w     -[A7], D0
00004766  102D B94A                move.b     D0, [A5 - 0x46B6]
0000476A  4880                     ext.w      D0
0000476C  3F00                     move.w     -[A7], D0
0000476E  102D B94F                move.b     D0, [A5 - 0x46B1]
00004772  4880                     ext.w      D0
00004774  3F00                     move.w     -[A7], D0
00004776  4EBA F7F6                jsr        [PC - 0x80A /* 00003F6E */]
0000477A  5C8F                     addq.l     A7, 6
0000477C  4E75                     rts
export_91:
fn0000477E:
0000477E  3B6D BAFA BAD6           move.w     [A5 - 0x452A], [A5 - 0x4506]
00004784  3B6D BAFC BAD4           move.w     [A5 - 0x452C], [A5 - 0x4504]
0000478A  302D BAF6                move.w     D0, [A5 - 0x450A]
0000478E  48C0                     ext.l      D0
00004790  81FC 0002                divs.w     D0, 0x2
00004794  0640 003A                addi.w     D0, 0x3A /* ':' */
00004798  3B40 BADC                move.w     [A5 - 0x4524], D0
0000479C  4A2D B949                tst.b      [A5 - 0x46B7]
000047A0  6D08                     blt        +0xA /* 000047AA */
000047A2  302D BAD6                move.w     D0, [A5 - 0x452A]
000047A6  916D BADC                sub.w      [A5 - 0x4524], D0
label000047AA:
000047AA  3B6D BADC BAD8           move.w     [A5 - 0x4528], [A5 - 0x4524]
000047B0  302D BADC                move.w     D0, [A5 - 0x4524]
000047B4  D06D BAD6                add.w      D0, [A5 - 0x452A]
000047B8  3B40 BADE                move.w     [A5 - 0x4522], D0
000047BC  3B40 BADA                move.w     [A5 - 0x4526], D0
000047C0  322D BAF8                move.w     D1, [A5 - 0x4508]
000047C4  926D BAD4                sub.w      D1, [A5 - 0x452C]
000047C8  5241                     addq.w     D1, 1
000047CA  3B41 BAE0                move.w     [A5 - 0x4520], D1
000047CE  0C41 00C0                cmpi.w     D1, 0xC0
000047D2  6D04                     blt        +0x6 /* 000047D8 */
000047D4  426D BAE0                clr.w      [A5 - 0x4520]
label000047D8:
000047D8  3F2D BAE0                move.w     -[A7], [A5 - 0x4520]
000047DC  4EBA FC80                jsr        [PC - 0x380 /* 0000445E */]
000047E0  3B40 BACA                move.w     [A5 - 0x4536], D0
000047E4  3EAD BAF8                move.w     [A7], [A5 - 0x4508]
000047E8  4EBA FC74                jsr        [PC - 0x38C /* 0000445E */]
000047EC  3B40 BACC                move.w     [A5 - 0x4534], D0
000047F0  4A40                     tst.w      D0
000047F2  548F                     addq.l     A7, 2
000047F4  6C06                     bge        +0x8 /* 000047FC */
000047F6  3B7C 0003 BACC           move.w     [A5 - 0x4534], 0x3
label000047FC:
000047FC  3F2D BADC                move.w     -[A7], [A5 - 0x4524]
00004800  4EBA FBFE                jsr        [PC - 0x402 /* 00004400 */]
00004804  3B40 BAC6                move.w     [A5 - 0x453A], D0
00004808  4A40                     tst.w      D0
0000480A  548F                     addq.l     A7, 2
0000480C  6C04                     bge        +0x6 /* 00004812 */
0000480E  426D BAC6                clr.w      [A5 - 0x453A]
label00004812:
00004812  3F2D BADE                move.w     -[A7], [A5 - 0x4522]
00004816  4EBA FBE8                jsr        [PC - 0x418 /* 00004400 */]
0000481A  3B40 BAC8                move.w     [A5 - 0x4538], D0
0000481E  0C40 000A                cmpi.w     D0, 0xA /* '\n' */
00004822  548F                     addq.l     A7, 2
00004824  6D06                     blt        +0x8 /* 0000482C */
00004826  3B7C 0009 BAC8           move.w     [A5 - 0x4538], 0x9 /* '\t' */
label0000482C:
0000482C  082D 0005 B992           btst.b     [A5 - 0x466E], 0x5
00004832  6708                     beq        +0xA /* 0000483C */
00004834  586D BAD8                addq.w     [A5 - 0x4528], 4
00004838  596D BADA                subq.w     [A5 - 0x4526], 4
label0000483C:
0000483C  4E75                     rts
fn0000483E:
0000483E  082D 0006 B992           btst.b     [A5 - 0x466E], 0x6
00004844  6700 0086                beq        +0x88 /* 000048CC */
00004848  4EBA FF14                jsr        [PC - 0xEC /* 0000475E */]
0000484C  7200                     moveq.l    D1, 0x00
0000484E  1200                     move.b     D1, D0
00004850  0C41 0014                cmpi.w     D1, 0x14
00004854  6604                     bne        +0x6 /* 0000485A */
00004856  4EBA 0286                jsr        [PC + 0x286 /* 00004ADE */]
label0000485A:
0000485A  7000                     moveq.l    D0, 0x00
0000485C  102D BAE8                move.b     D0, [A5 - 0x4518]
00004860  3F00                     move.w     -[A7], D0
00004862  4EBA FDEC                jsr        [PC - 0x214 /* 00004650 */]
00004866  4A00                     tst.b      D0
00004868  548F                     addq.l     A7, 2
0000486A  6660                     bne        +0x62 /* 000048CC */
0000486C  0C6D 000C A90C           cmpi.w     [A5 - 0x56F4], 0xC
00004872  6654                     bne        +0x56 /* 000048C8 */
00004874  4A6D BA8E                tst.w      [A5 - 0x4572]
00004878  6C4E                     bge        +0x50 /* 000048C8 */
0000487A  4A2D B94B                tst.b      [A5 - 0x46B5]
0000487E  6648                     bne        +0x4A /* 000048C8 */
00004880  0C2D 0002 B94F           cmpi.b     [A5 - 0x46B1], 0x2
00004886  6710                     beq        +0x12 /* 00004898 */
00004888  0C2D 000D B94F           cmpi.b     [A5 - 0x46B1], 0xD /* '\r' */
0000488E  6638                     bne        +0x3A /* 000048C8 */
00004890  0C6D 0006 BAEC           cmpi.w     [A5 - 0x4514], 0x6
00004896  6D30                     blt        +0x32 /* 000048C8 */
label00004898:
00004898  7000                     moveq.l    D0, 0x00
0000489A  102D BAE9                move.b     D0, [A5 - 0x4517]
0000489E  D0AD BD82                add.l      D0, [A5 - 0x427E]
000048A2  2040                     movea.l    A0, D0
000048A4  10BC 0001                move.b     [A0], 0x1
000048A8  7000                     moveq.l    D0, 0x00
000048AA  102D BAE9                move.b     D0, [A5 - 0x4517]
000048AE  3F00                     move.w     -[A7], D0
000048B0  4EAD 0442                jsr        [A5 + 0x442 /* export_132, CODE:4 @ 0000233E */]
000048B4  522D BAE9                addq.b     [A5 - 0x4517], 1
000048B8  7000                     moveq.l    D0, 0x00
000048BA  102D BAE9                move.b     D0, [A5 - 0x4517]
000048BE  3E80                     move.w     [A7], D0
000048C0  4EAD 0442                jsr        [A5 + 0x442 /* export_132, CODE:4 @ 0000233E */]
000048C4  548F                     addq.l     A7, 2
000048C6  6004                     bra        +0x6 /* 000048CC */
label000048C8:
000048C8  4EBA 0004                jsr        [PC + 0x4 /* 000048CE */]
label000048CC:
000048CC  4E75                     rts
fn000048CE:
000048CE  2F07                     move.l     -[A7], D7
000048D0  7E00                     moveq.l    D7, 0x00
000048D2  1E2D B946                move.b     D7, [A5 - 0x46BA]
000048D6  422D B952                clr.b      [A5 - 0x46AE]
000048DA  4EBA 1054                jsr        [PC + 0x1054 /* 00005930 */]
000048DE  4EAD 0492                jsr        [A5 + 0x492 /* export_142, CODE:4 @ 00002A74 */]
000048E2  1B47 BABC                move.b     [A5 - 0x4544], D7
000048E6  0C2D 0009 BABC           cmpi.b     [A5 - 0x4544], 0x9 /* '\t' */
000048EC  6606                     bne        +0x8 /* 000048F4 */
000048EE  7E07                     moveq.l    D7, 0x07
000048F0  6000 00CC                bra        +0xCE /* 000049BE */
label000048F4:
000048F4  0C47 000D                cmpi.w     D7, 0xD /* '\r' */
000048F8  6606                     bne        +0x8 /* 00004900 */
000048FA  7E13                     moveq.l    D7, 0x13
000048FC  6000 00C0                bra        +0xC2 /* 000049BE */
label00004900:
00004900  0C47 001A                cmpi.w     D7, 0x1A
00004904  6606                     bne        +0x8 /* 0000490C */
00004906  7E12                     moveq.l    D7, 0x12
00004908  6000 00B4                bra        +0xB6 /* 000049BE */
label0000490C:
0000490C  0C47 002C                cmpi.w     D7, 0x2C /* ',' */
00004910  6606                     bne        +0x8 /* 00004918 */
00004912  7E15                     moveq.l    D7, 0x15
00004914  6000 00A8                bra        +0xAA /* 000049BE */
label00004918:
00004918  0C47 0051                cmpi.w     D7, 0x51 /* 'Q' */
0000491C  6D1E                     blt        +0x20 /* 0000493C */
0000491E  0C47 0056                cmpi.w     D7, 0x56 /* 'V' */
00004922  6C18                     bge        +0x1A /* 0000493C */
00004924  7E13                     moveq.l    D7, 0x13
00004926  3F3C 0005                move.w     -[A7], 0x5
0000492A  4EBA F8D2                jsr        [PC - 0x72E /* 000041FE */]
0000492E  1B40 B947                move.b     [A5 - 0x46B9], D0
00004932  4EBA F794                jsr        [PC - 0x86C /* 000040C8 */]
00004936  548F                     addq.l     A7, 2
00004938  6000 0084                bra        +0x86 /* 000049BE */
label0000493C:
0000493C  0C47 0096                cmpi.w     D7, 0x96
00004940  6D7A                     blt        +0x7C /* 000049BC */
00004942  0C47 00B4                cmpi.w     D7, 0xB4
00004946  6C74                     bge        +0x76 /* 000049BC */
00004948  0C2D 0002 B951           cmpi.b     [A5 - 0x46AF], 0x2
0000494E  6646                     bne        +0x48 /* 00004996 */
00004950  0C2D 0003 B94B           cmpi.b     [A5 - 0x46B5], 0x3
00004956  6610                     bne        +0x12 /* 00004968 */
00004958  0C2D 000A B94A           cmpi.b     [A5 - 0x46B6], 0xA /* '\n' */
0000495E  6608                     bne        +0xA /* 00004968 */
00004960  4EBA 0D40                jsr        [PC + 0xD40 /* 000056A2 */]
00004964  6000 00BC                bra        +0xBE /* 00004A22 */
label00004968:
00004968  4A2D B94D                tst.b      [A5 - 0x46B3]
0000496C  6C20                     bge        +0x22 /* 0000498E */
0000496E  7E52                     moveq.l    D7, 0x52
00004970  4A2D B949                tst.b      [A5 - 0x46B7]
00004974  6C48                     bge        +0x4A /* 000049BE */
00004976  4EBA 0242                jsr        [PC + 0x242 /* 00004BBA */]
0000497A  5F40                     subq.w     D0, 7
0000497C  6E40                     bgt        +0x42 /* 000049BE */
0000497E  3F3C FFFB                move.w     -[A7], 0xFFFB
00004982  4EBA F87A                jsr        [PC - 0x786 /* 000041FE */]
00004986  1B40 B947                move.b     [A5 - 0x46B9], D0
0000498A  548F                     addq.l     A7, 2
0000498C  6030                     bra        +0x32 /* 000049BE */
label0000498E:
0000498E  426D BA34                clr.w      [A5 - 0x45CC]
00004992  7E53                     moveq.l    D7, 0x53
00004994  6028                     bra        +0x2A /* 000049BE */
label00004996:
00004996  3B7C 0001 BA34           move.w     [A5 - 0x45CC], 0x1
0000499C  4A2D B949                tst.b      [A5 - 0x46B7]
000049A0  6C16                     bge        +0x18 /* 000049B8 */
000049A2  4EBA 0216                jsr        [PC + 0x216 /* 00004BBA */]
000049A6  5F40                     subq.w     D0, 7
000049A8  6E0E                     bgt        +0x10 /* 000049B8 */
000049AA  3F3C FFFB                move.w     -[A7], 0xFFFB
000049AE  4EBA F84E                jsr        [PC - 0x7B2 /* 000041FE */]
000049B2  1B40 B947                move.b     [A5 - 0x46B9], D0
000049B6  548F                     addq.l     A7, 2
label000049B8:
000049B8  7E51                     moveq.l    D7, 0x51
000049BA  6002                     bra        +0x4 /* 000049BE */
label000049BC:
000049BC  7E07                     moveq.l    D7, 0x07
label000049BE:
000049BE  3F07                     move.w     -[A7], D7
000049C0  4EAD 0552                jsr        [A5 + 0x552 /* export_166, CODE:4 @ 00000000 */]
000049C4  4EBA F880                jsr        [PC - 0x780 /* 00004246 */]
000049C8  4EBA F6FE                jsr        [PC - 0x902 /* 000040C8 */]
000049CC  4EBA FD90                jsr        [PC - 0x270 /* 0000475E */]
000049D0  7200                     moveq.l    D1, 0x00
000049D2  1200                     move.b     D1, D0
000049D4  0C41 0014                cmpi.w     D1, 0x14
000049D8  548F                     addq.l     A7, 2
000049DA  6606                     bne        +0x8 /* 000049E2 */
000049DC  4EBA 0100                jsr        [PC + 0x100 /* 00004ADE */]
000049E0  6040                     bra        +0x42 /* 00004A22 */
label000049E2:
000049E2  4EBA 0136                jsr        [PC + 0x136 /* 00004B1A */]
000049E6  7200                     moveq.l    D1, 0x00
000049E8  1200                     move.b     D1, D0
000049EA  0C41 0014                cmpi.w     D1, 0x14
000049EE  6632                     bne        +0x34 /* 00004A22 */
000049F0  0C2D 002C BABC           cmpi.b     [A5 - 0x4544], 0x2C /* ',' */
000049F6  6608                     bne        +0xA /* 00004A00 */
000049F8  4EBA 01C0                jsr        [PC + 0x1C0 /* 00004BBA */]
000049FC  5D40                     subq.w     D0, 6
000049FE  6D10                     blt        +0x12 /* 00004A10 */
label00004A00:
00004A00  3F3C FFFF                move.w     -[A7], 0xFFFF
00004A04  4EBA F7F8                jsr        [PC - 0x808 /* 000041FE */]
00004A08  1B40 B947                move.b     [A5 - 0x46B9], D0
00004A0C  548F                     addq.l     A7, 2
00004A0E  600E                     bra        +0x10 /* 00004A1E */
label00004A10:
00004A10  3F3C 0068                move.w     -[A7], 0x68 /* 'h' */
00004A14  4EAD 0552                jsr        [A5 + 0x552 /* export_166, CODE:4 @ 00000000 */]
00004A18  4EBA F82C                jsr        [PC - 0x7D4 /* 00004246 */]
00004A1C  548F                     addq.l     A7, 2
label00004A1E:
00004A1E  4EBA F6A8                jsr        [PC - 0x958 /* 000040C8 */]
label00004A22:
00004A22  2E1F                     move.l     D7, [A7]+
00004A24  4E75                     rts
export_92:
fn00004A26:
00004A26  2F07                     move.l     -[A7], D7
00004A28  7E00                     moveq.l    D7, 0x00
00004A2A  1E2D B948                move.b     D7, [A5 - 0x46B8]
00004A2E  4A2D BABB                tst.b      [A5 - 0x4545]
00004A32  6C00 0094                bge        +0x96 /* 00004AC8 */
00004A36  0C2D 0020 B94E           cmpi.b     [A5 - 0x46B2], 0x20 /* ' ' */
00004A3C  6C00 008A                bge        +0x8C /* 00004AC8 */
00004A40  4A2D B953                tst.b      [A5 - 0x46AD]
00004A44  6C00 0082                bge        +0x84 /* 00004AC8 */
00004A48  102D B94B                move.b     D0, [A5 - 0x46B5]
00004A4C  4880                     ext.w      D0
00004A4E  204D                     movea.l    A0, A5
00004A50  D0C0                     add.w      A0, D0
00004A52  D0C0                     add.w      A0, D0
00004A54  7019                     moveq.l    D0, 0x19
00004A56  D047                     add.w      D0, D7
00004A58  B068 B670                cmp.w      D0, [A0 - 0x4990]
00004A5C  6D6A                     blt        +0x6C /* 00004AC8 */
00004A5E  7E00                     moveq.l    D7, 0x00
00004A60  1E2D B947                move.b     D7, [A5 - 0x46B9]
00004A64  3F3C FFF8                move.w     -[A7], 0xFFF8
00004A68  4EBA F794                jsr        [PC - 0x86C /* 000041FE */]
00004A6C  1B40 B947                move.b     [A5 - 0x46B9], D0
00004A70  4EBA F656                jsr        [PC - 0x9AA /* 000040C8 */]
00004A74  4EBA 0056                jsr        [PC + 0x56 /* 00004ACC */]
00004A78  4A40                     tst.w      D0
00004A7A  548F                     addq.l     A7, 2
00004A7C  6606                     bne        +0x8 /* 00004A84 */
00004A7E  1B47 B947                move.b     [A5 - 0x46B9], D7
00004A82  6044                     bra        +0x46 /* 00004AC8 */
label00004A84:
00004A84  4EBA 0134                jsr        [PC + 0x134 /* 00004BBA */]
00004A88  3F00                     move.w     -[A7], D0
00004A8A  4EBA F772                jsr        [PC - 0x88E /* 000041FE */]
00004A8E  1B40 B947                move.b     [A5 - 0x46B9], D0
00004A92  102D B94B                move.b     D0, [A5 - 0x46B5]
00004A96  4880                     ext.w      D0
00004A98  204D                     movea.l    A0, A5
00004A9A  D0C0                     add.w      A0, D0
00004A9C  D0C0                     add.w      A0, D0
00004A9E  1B68 B671 B948           move.b     [A5 - 0x46B8], [A0 - 0x498F]
00004AA4  422D B94E                clr.b      [A5 - 0x46B2]
00004AA8  3EBC 000F                move.w     [A7], 0xF
00004AAC  4EAD 0552                jsr        [A5 + 0x552 /* export_166, CODE:4 @ 00000000 */]
00004AB0  4EBA F794                jsr        [PC - 0x86C /* 00004246 */]
00004AB4  3B7C 000C BA54           move.w     [A5 - 0x45AC], 0xC
00004ABA  3EBC 0009                move.w     [A7], 0x9 /* '\t' */
00004ABE  4EBA BCF0                jsr        [PC - 0x4310 /* 000007B0 */]
00004AC2  426D BA58                clr.w      [A5 - 0x45A8]
00004AC6  548F                     addq.l     A7, 2
label00004AC8:
00004AC8  2E1F                     move.l     D7, [A7]+
00004ACA  4E75                     rts
fn00004ACC:
00004ACC  4EBA 0508                jsr        [PC + 0x508 /* 00004FD6 */]
00004AD0  1B40 BABD                move.b     [A5 - 0x4543], D0
00004AD4  4EBA 055E                jsr        [PC + 0x55E /* 00005034 */]
00004AD8  4EBA 0434                jsr        [PC + 0x434 /* 00004F0E */]
00004ADC  4E75                     rts
export_93:
fn00004ADE:
00004ADE  2F07                     move.l     -[A7], D7
00004AE0  4EBA 00D8                jsr        [PC + 0xD8 /* 00004BBA */]
00004AE4  3E00                     move.w     D7, D0
00004AE6  0C47 0008                cmpi.w     D7, 0x8
00004AEA  6C0E                     bge        +0x10 /* 00004AFA */
00004AEC  4EBA 002C                jsr        [PC + 0x2C /* 00004B1A */]
00004AF0  7200                     moveq.l    D1, 0x00
00004AF2  1200                     move.b     D1, D0
00004AF4  0C41 0014                cmpi.w     D1, 0x14
00004AF8  6606                     bne        +0x8 /* 00004B00 */
label00004AFA:
00004AFA  5D47                     subq.w     D7, 6
00004AFC  4447                     neg.w      D7
00004AFE  6002                     bra        +0x4 /* 00004B02 */
label00004B00:
00004B00  5847                     addq.w     D7, 4
label00004B02:
00004B02  3F07                     move.w     -[A7], D7
00004B04  4EBA F6F8                jsr        [PC - 0x908 /* 000041FE */]
00004B08  1B40 B947                move.b     [A5 - 0x46B9], D0
00004B0C  4EBA F5BA                jsr        [PC - 0xA46 /* 000040C8 */]
00004B10  4EBA FC4C                jsr        [PC - 0x3B4 /* 0000475E */]
00004B14  548F                     addq.l     A7, 2
00004B16  2E1F                     move.l     D7, [A7]+
00004B18  4E75                     rts
export_94:
fn00004B1A:
00004B1A  102D B949                move.b     D0, [A5 - 0x46B7]
00004B1E  4880                     ext.w      D0
00004B20  204D                     movea.l    A0, A5
00004B22  D0C0                     add.w      A0, D0
00004B24  1028 B661                move.b     D0, [A0 - 0x499F]
00004B28  D02D B94A                add.b      D0, [A5 - 0x46B6]
00004B2C  1B40 BAE4                move.b     [A5 - 0x451C], D0
00004B30  122D B94B                move.b     D1, [A5 - 0x46B5]
00004B34  4881                     ext.w      D1
00004B36  3F01                     move.w     -[A7], D1
00004B38  4880                     ext.w      D0
00004B3A  3F00                     move.w     -[A7], D0
00004B3C  102D B94F                move.b     D0, [A5 - 0x46B1]
00004B40  4880                     ext.w      D0
00004B42  3F00                     move.w     -[A7], D0
00004B44  4EBA F428                jsr        [PC - 0xBD8 /* 00003F6E */]
00004B48  5C8F                     addq.l     A7, 6
00004B4A  4E75                     rts
fn00004B4C:
00004B4C  2F07                     move.l     -[A7], D7
00004B4E  102D B949                move.b     D0, [A5 - 0x46B7]
00004B52  4880                     ext.w      D0
00004B54  204D                     movea.l    A0, A5
00004B56  D0C0                     add.w      A0, D0
00004B58  1E28 B661                move.b     D7, [A0 - 0x499F]
00004B5C  4887                     ext.w      D7
00004B5E  102D B94A                move.b     D0, [A5 - 0x46B6]
00004B62  D007                     add.b      D0, D7
00004B64  D007                     add.b      D0, D7
00004B66  1B40 BAE4                move.b     [A5 - 0x451C], D0
00004B6A  122D B94B                move.b     D1, [A5 - 0x46B5]
00004B6E  4881                     ext.w      D1
00004B70  3F01                     move.w     -[A7], D1
00004B72  4880                     ext.w      D0
00004B74  3F00                     move.w     -[A7], D0
00004B76  102D B94F                move.b     D0, [A5 - 0x46B1]
00004B7A  4880                     ext.w      D0
00004B7C  3F00                     move.w     -[A7], D0
00004B7E  4EBA F3EE                jsr        [PC - 0xC12 /* 00003F6E */]
00004B82  5C8F                     addq.l     A7, 6
00004B84  2E1F                     move.l     D7, [A7]+
00004B86  4E75                     rts
export_95:
fn00004B88:
00004B88  102D B949                move.b     D0, [A5 - 0x46B7]
00004B8C  4880                     ext.w      D0
00004B8E  204D                     movea.l    A0, A5
00004B90  D0C0                     add.w      A0, D0
00004B92  1028 B663                move.b     D0, [A0 - 0x499D]
00004B96  D02D B94A                add.b      D0, [A5 - 0x46B6]
00004B9A  1B40 BAE5                move.b     [A5 - 0x451B], D0
00004B9E  122D B94B                move.b     D1, [A5 - 0x46B5]
00004BA2  4881                     ext.w      D1
00004BA4  3F01                     move.w     -[A7], D1
00004BA6  4880                     ext.w      D0
00004BA8  3F00                     move.w     -[A7], D0
00004BAA  102D B94F                move.b     D0, [A5 - 0x46B1]
00004BAE  4880                     ext.w      D0
00004BB0  3F00                     move.w     -[A7], D0
00004BB2  4EBA F3BA                jsr        [PC - 0xC46 /* 00003F6E */]
00004BB6  5C8F                     addq.l     A7, 6
00004BB8  4E75                     rts
export_96:
fn00004BBA:
00004BBA  4EBA F610                jsr        [PC - 0x9F0 /* 000041CC */]
00004BBE  3F00                     move.w     -[A7], D0
00004BC0  4EBA 0006                jsr        [PC + 0x6 /* 00004BC8 */]
00004BC4  548F                     addq.l     A7, 2
00004BC6  4E75                     rts
export_97:
fn00004BC8:
00004BC8  4E56 0000                link       A6, 0
00004BCC  3F2E 0008                move.w     -[A7], [A6 + 0x8]
00004BD0  4EBA F808                jsr        [PC - 0x7F8 /* 000043DA */]
00004BD4  4A2D B949                tst.b      [A5 - 0x46B7]
00004BD8  548F                     addq.l     A7, 2
00004BDA  660E                     bne        +0x10 /* 00004BEA */
00004BDC  7000                     moveq.l    D0, 0x00
00004BDE  102D BD7E                move.b     D0, [A5 - 0x4282]
00004BE2  720D                     moveq.l    D1, 0x0D
00004BE4  9240                     sub.w      D1, D0
00004BE6  3001                     move.w     D0, D1
00004BE8  6006                     bra        +0x8 /* 00004BF0 */
label00004BEA:
00004BEA  7000                     moveq.l    D0, 0x00
00004BEC  102D BD7E                move.b     D0, [A5 - 0x4282]
label00004BF0:
00004BF0  4E5E                     unlink     A6
00004BF2  4E75                     rts
fn00004BF4:
00004BF4  4A2D B953                tst.b      [A5 - 0x46AD]
00004BF8  6C22                     bge        +0x24 /* 00004C1C */
00004BFA  4A2D B94F                tst.b      [A5 - 0x46B1]
00004BFE  661C                     bne        +0x1E /* 00004C1C */
00004C00  3F3C 0064                move.w     -[A7], 0x64 /* 'd' */
00004C04  4EBA FAFC                jsr        [PC - 0x504 /* 00004702 */]
00004C08  422D B953                clr.b      [A5 - 0x46AD]
00004C0C  3EBC 0001                move.w     [A7], 0x1
00004C10  4EAD 054A                jsr        [A5 + 0x54A /* export_165, CODE:4 @ 00005C24 */]
00004C14  1B7C 00B9 B946           move.b     [A5 - 0x46BA], 0xB9
00004C1A  548F                     addq.l     A7, 2
label00004C1C:
00004C1C  4E75                     rts
fn00004C1E:
00004C1E  4EBA FFD4                jsr        [PC - 0x2C /* 00004BF4 */]
00004C22  4EBA 0090                jsr        [PC + 0x90 /* 00004CB4 */]
00004C26  4A2D B953                tst.b      [A5 - 0x46AD]
00004C2A  6D00 0086                blt        +0x88 /* 00004CB2 */
00004C2E  4EBA 09C4                jsr        [PC + 0x9C4 /* 000055F4 */]
00004C32  4A00                     tst.b      D0
00004C34  677C                     beq        +0x7E /* 00004CB2 */
00004C36  426D BA42                clr.w      [A5 - 0x45BE]
00004C3A  4A2D B953                tst.b      [A5 - 0x46AD]
00004C3E  6D0E                     blt        +0x10 /* 00004C4E */
00004C40  0C2D 0006 B953           cmpi.b     [A5 - 0x46AD], 0x6
00004C46  6C06                     bge        +0x8 /* 00004C4E */
00004C48  522D B953                addq.b     [A5 - 0x46AD], 1
00004C4C  6064                     bra        +0x66 /* 00004CB2 */
label00004C4E:
00004C4E  0C2D 0006 B953           cmpi.b     [A5 - 0x46AD], 0x6
00004C54  6618                     bne        +0x1A /* 00004C6E */
00004C56  4A6D A90C                tst.w      [A5 - 0x56F4]
00004C5A  6F0C                     ble        +0xE /* 00004C68 */
00004C5C  0C6D 000F A90C           cmpi.w     [A5 - 0x56F4], 0xF
00004C62  6704                     beq        +0x6 /* 00004C68 */
00004C64  4EBA 09AC                jsr        [PC + 0x9AC /* 00005612 */]
label00004C68:
00004C68  522D B953                addq.b     [A5 - 0x46AD], 1
00004C6C  6044                     bra        +0x46 /* 00004CB2 */
label00004C6E:
00004C6E  0C2D 0007 B953           cmpi.b     [A5 - 0x46AD], 0x7
00004C74  663C                     bne        +0x3E /* 00004CB2 */
00004C76  4EAD 010A                jsr        [A5 + 0x10A /* export_29, CODE:2 @ 00002B4C */]
00004C7A  4A00                     tst.b      D0
00004C7C  6634                     bne        +0x36 /* 00004CB2 */
00004C7E  4A6D A90C                tst.w      [A5 - 0x56F4]
00004C82  6F20                     ble        +0x22 /* 00004CA4 */
00004C84  0C6D 000F A90C           cmpi.w     [A5 - 0x56F4], 0xF
00004C8A  6718                     beq        +0x1A /* 00004CA4 */
00004C8C  303C 01B0                move.w     D0, 0x1B0
00004C90  3B40 BA90                move.w     [A5 - 0x4570], D0
00004C94  3B40 BA86                move.w     [A5 - 0x457A], D0
00004C98  486D 96A0                pea.l      [A5 - 0x6960]
00004C9C  4EAD 0542                jsr        [A5 + 0x542 /* export_164, CODE:4 @ 00005B6E */]
00004CA0  588F                     addq.l     A7, 4
00004CA2  600A                     bra        +0xC /* 00004CAE */
label00004CA4:
00004CA4  7024                     moveq.l    D0, 0x24
00004CA6  3B40 BA90                move.w     [A5 - 0x4570], D0
00004CAA  3B40 BA86                move.w     [A5 - 0x457A], D0
label00004CAE:
00004CAE  522D B953                addq.b     [A5 - 0x46AD], 1
label00004CB2:
00004CB2  4E75                     rts
fn00004CB4:
00004CB4  4A2D B953                tst.b      [A5 - 0x46AD]
00004CB8  6C0A                     bge        +0xC /* 00004CC4 */
00004CBA  4A6D BA4A                tst.w      [A5 - 0x45B6]
00004CBE  6604                     bne        +0x6 /* 00004CC4 */
00004CC0  422D B953                clr.b      [A5 - 0x46AD]
label00004CC4:
00004CC4  4A6D BA54                tst.w      [A5 - 0x45AC]
00004CC8  6704                     beq        +0x6 /* 00004CCE */
00004CCA  536D BA54                subq.w     [A5 - 0x45AC], 1
label00004CCE:
00004CCE  4A6D A90C                tst.w      [A5 - 0x56F4]
00004CD2  660A                     bne        +0xC /* 00004CDE */
00004CD4  4EBA 0022                jsr        [PC + 0x22 /* 00004CF8 */]
00004CD8  4EAD 056A                jsr        [A5 + 0x56A /* export_169, CODE:4 @ 00000240 */]
00004CDC  6018                     bra        +0x1A /* 00004CF6 */
label00004CDE:
00004CDE  4EBA 0108                jsr        [PC + 0x108 /* 00004DE8 */]
00004CE2  4EBA BD3C                jsr        [PC - 0x42C4 /* 00000A20 */]
00004CE6  1B40 A5BE                move.b     [A5 - 0x5A42], D0
00004CEA  4EBA 0186                jsr        [PC + 0x186 /* 00004E72 */]
00004CEE  4EBA 008C                jsr        [PC + 0x8C /* 00004D7C */]
00004CF2  4EBA 00D4                jsr        [PC + 0xD4 /* 00004DC8 */]
label00004CF6:
00004CF6  4E75                     rts
fn00004CF8:
00004CF8  4A6D BA40                tst.w      [A5 - 0x45C0]
00004CFC  6714                     beq        +0x16 /* 00004D12 */
00004CFE  4EBA 00B4                jsr        [PC + 0xB4 /* 00004DB4 */]
00004D02  1B40 BAAE                move.b     [A5 - 0x4552], D0
00004D06  72FF                     moveq.l    D1, 0xFFFFFFFF
00004D08  1B41 BAB9                move.b     [A5 - 0x4547], D1
00004D0C  1B41 BAAA                move.b     [A5 - 0x4556], D1
00004D10  6022                     bra        +0x24 /* 00004D34 */
label00004D12:
00004D12  4A2D B952                tst.b      [A5 - 0x46AE]
00004D16  6712                     beq        +0x14 /* 00004D2A */
00004D18  3B7C 000A BA20           move.w     [A5 - 0x45E0], 0xA /* '\n' */
00004D1E  4EBA E7EE                jsr        [PC - 0x1812 /* 0000350E */]
00004D22  3B7C 000B BA20           move.w     [A5 - 0x45E0], 0xB
00004D28  600A                     bra        +0xC /* 00004D34 */
label00004D2A:
00004D2A  486D A9C0                pea.l      [A5 - 0x5640]
00004D2E  4EBA F01C                jsr        [PC - 0xFE4 /* 00003D4C */]
00004D32  588F                     addq.l     A7, 4
label00004D34:
00004D34  4E75                     rts
fn00004D36:
00004D36  0C2D 0018 B951           cmpi.b     [A5 - 0x46AF], 0x18
00004D3C  6606                     bne        +0x8 /* 00004D44 */
00004D3E  4EBA E7CE                jsr        [PC - 0x1832 /* 0000350E */]
00004D42  6036                     bra        +0x38 /* 00004D7A */
label00004D44:
00004D44  4A2D B953                tst.b      [A5 - 0x46AD]
00004D48  6D0E                     blt        +0x10 /* 00004D58 */
00004D4A  0C2D 0001 B951           cmpi.b     [A5 - 0x46AF], 0x1
00004D50  6620                     bne        +0x22 /* 00004D72 */
00004D52  4EBA 094E                jsr        [PC + 0x94E /* 000056A2 */]
00004D56  601A                     bra        +0x1C /* 00004D72 */
label00004D58:
00004D58  4A6D BA4C                tst.w      [A5 - 0x45B4]
00004D5C  6614                     bne        +0x16 /* 00004D72 */
00004D5E  422D B953                clr.b      [A5 - 0x46AD]
00004D62  4EBA 08E0                jsr        [PC + 0x8E0 /* 00005644 */]
00004D66  0C2D 0001 B951           cmpi.b     [A5 - 0x46AF], 0x1
00004D6C  6604                     bne        +0x6 /* 00004D72 */
00004D6E  4EBA 0932                jsr        [PC + 0x932 /* 000056A2 */]
label00004D72:
00004D72  4EBA E79A                jsr        [PC - 0x1866 /* 0000350E */]
00004D76  4EAD 056A                jsr        [A5 + 0x56A /* export_169, CODE:4 @ 00000240 */]
label00004D7A:
00004D7A  4E75                     rts
fn00004D7C:
00004D7C  4A2D B949                tst.b      [A5 - 0x46B7]
00004D80  6D0E                     blt        +0x10 /* 00004D90 */
00004D82  4EBA 0012                jsr        [PC + 0x12 /* 00004D96 */]
00004D86  4EAD 056A                jsr        [A5 + 0x56A /* export_169, CODE:4 @ 00000240 */]
00004D8A  4EBA 000A                jsr        [PC + 0xA /* 00004D96 */]
00004D8E  6004                     bra        +0x6 /* 00004D94 */
label00004D90:
00004D90  4EAD 056A                jsr        [A5 + 0x56A /* export_169, CODE:4 @ 00000240 */]
label00004D94:
00004D94  4E75                     rts
fn00004D96:
00004D96  2F07                     move.l     -[A7], D7
00004D98  102D BAB9                move.b     D0, [A5 - 0x4547]
00004D9C  4400                     neg.b      D0
00004D9E  1B40 BAB9                move.b     [A5 - 0x4547], D0
00004DA2  1E2D BAAA                move.b     D7, [A5 - 0x4556]
00004DA6  1B6D BAAB BAAA           move.b     [A5 - 0x4556], [A5 - 0x4555]
00004DAC  1B47 BAAB                move.b     [A5 - 0x4555], D7
00004DB0  2E1F                     move.l     D7, [A7]+
00004DB2  4E75                     rts
export_98:
fn00004DB4:
00004DB4  422D BAAD                clr.b      [A5 - 0x4553]
00004DB8  422D BAAC                clr.b      [A5 - 0x4554]
00004DBC  422D BAAA                clr.b      [A5 - 0x4556]
00004DC0  422D BAAB                clr.b      [A5 - 0x4555]
00004DC4  7001                     moveq.l    D0, 0x01
00004DC6  4E75                     rts
fn00004DC8:
00004DC8  1B6D BAAA BAAF           move.b     [A5 - 0x4551], [A5 - 0x4556]
00004DCE  1B6D BAAB BAB0           move.b     [A5 - 0x4550], [A5 - 0x4555]
00004DD4  1B6D BAAC BAB1           move.b     [A5 - 0x454F], [A5 - 0x4554]
00004DDA  1B6D BAAD BAB2           move.b     [A5 - 0x454E], [A5 - 0x4553]
00004DE0  1B6D BAAE BAB3           move.b     [A5 - 0x454D], [A5 - 0x4552]
00004DE6  4E75                     rts
fn00004DE8:
00004DE8  1B6D BAAF BAAA           move.b     [A5 - 0x4556], [A5 - 0x4551]
00004DEE  1B6D BAB0 BAAB           move.b     [A5 - 0x4555], [A5 - 0x4550]
00004DF4  1B6D BAB1 BAAC           move.b     [A5 - 0x4554], [A5 - 0x454F]
00004DFA  1B6D BAB2 BAAD           move.b     [A5 - 0x4553], [A5 - 0x454E]
00004E00  1B6D BAB3 BAAE           move.b     [A5 - 0x4552], [A5 - 0x454D]
00004E06  4E75                     rts
00004E08  1B6D BAAA BAB4           move.b     [A5 - 0x454C], [A5 - 0x4556]
00004E0E  1B6D BAAB BAB5           move.b     [A5 - 0x454B], [A5 - 0x4555]
00004E14  1B6D BAAC BAB6           move.b     [A5 - 0x454A], [A5 - 0x4554]
00004E1A  1B6D BAAD BAB7           move.b     [A5 - 0x4549], [A5 - 0x4553]
00004E20  1B6D BAAE BAB8           move.b     [A5 - 0x4548], [A5 - 0x4552]
00004E26  4E75                     rts
00004E28  1B6D BAB4 BAAA           move.b     [A5 - 0x4556], [A5 - 0x454C]
00004E2E  1B6D BAB5 BAAB           move.b     [A5 - 0x4555], [A5 - 0x454B]
00004E34  1B6D BAB6 BAAC           move.b     [A5 - 0x4554], [A5 - 0x454A]
00004E3A  1B6D BAB7 BAAD           move.b     [A5 - 0x4553], [A5 - 0x4549]
00004E40  1B6D BAB8 BAAE           move.b     [A5 - 0x4552], [A5 - 0x4548]
00004E46  4E75                     rts
fn00004E48:
00004E48  422D BAB3                clr.b      [A5 - 0x454D]
00004E4C  422D BAB2                clr.b      [A5 - 0x454E]
00004E50  422D BAB1                clr.b      [A5 - 0x454F]
00004E54  422D BAB0                clr.b      [A5 - 0x4550]
00004E58  422D BAAF                clr.b      [A5 - 0x4551]
00004E5C  422D BAB8                clr.b      [A5 - 0x4548]
00004E60  422D BAB7                clr.b      [A5 - 0x4549]
00004E64  422D BAB6                clr.b      [A5 - 0x454A]
00004E68  422D BAB5                clr.b      [A5 - 0x454B]
00004E6C  422D BAB4                clr.b      [A5 - 0x454C]
00004E70  4E75                     rts
fn00004E72:
00004E72  4A2D BAAA                tst.b      [A5 - 0x4556]
00004E76  6D18                     blt        +0x1A /* 00004E90 */
00004E78  4A2D BAB9                tst.b      [A5 - 0x4547]
00004E7C  6C0E                     bge        +0x10 /* 00004E8C */
00004E7E  4A2D BAAA                tst.b      [A5 - 0x4556]
00004E82  660C                     bne        +0xE /* 00004E90 */
00004E84  1B7C 00FF BAAA           move.b     [A5 - 0x4556], 0xFF
00004E8A  6004                     bra        +0x6 /* 00004E90 */
label00004E8C:
00004E8C  422D BAAA                clr.b      [A5 - 0x4556]
label00004E90:
00004E90  4A2D BAAB                tst.b      [A5 - 0x4555]
00004E94  6D1A                     blt        +0x1C /* 00004EB0 */
00004E96  0C2D 0001 BAB9           cmpi.b     [A5 - 0x4547], 0x1
00004E9C  660E                     bne        +0x10 /* 00004EAC */
00004E9E  4A2D BAAB                tst.b      [A5 - 0x4555]
00004EA2  660C                     bne        +0xE /* 00004EB0 */
00004EA4  1B7C 00FF BAAB           move.b     [A5 - 0x4555], 0xFF
00004EAA  6004                     bra        +0x6 /* 00004EB0 */
label00004EAC:
00004EAC  422D BAAB                clr.b      [A5 - 0x4555]
label00004EB0:
00004EB0  4A2D BAAC                tst.b      [A5 - 0x4554]
00004EB4  6D18                     blt        +0x1A /* 00004ECE */
00004EB6  4A2D BABA                tst.b      [A5 - 0x4546]
00004EBA  6C0E                     bge        +0x10 /* 00004ECA */
00004EBC  4A2D BAAC                tst.b      [A5 - 0x4554]
00004EC0  660C                     bne        +0xE /* 00004ECE */
00004EC2  1B7C 00FF BAAC           move.b     [A5 - 0x4554], 0xFF
00004EC8  6004                     bra        +0x6 /* 00004ECE */
label00004ECA:
00004ECA  422D BAAC                clr.b      [A5 - 0x4554]
label00004ECE:
00004ECE  4A2D BAAD                tst.b      [A5 - 0x4553]
00004ED2  6D1A                     blt        +0x1C /* 00004EEE */
00004ED4  0C2D 0001 BABA           cmpi.b     [A5 - 0x4546], 0x1
00004EDA  660E                     bne        +0x10 /* 00004EEA */
00004EDC  4A2D BAAD                tst.b      [A5 - 0x4553]
00004EE0  660C                     bne        +0xE /* 00004EEE */
00004EE2  1B7C 00FF BAAD           move.b     [A5 - 0x4553], 0xFF
00004EE8  6004                     bra        +0x6 /* 00004EEE */
label00004EEA:
00004EEA  422D BAAD                clr.b      [A5 - 0x4553]
label00004EEE:
00004EEE  4A2D BAAE                tst.b      [A5 - 0x4552]
00004EF2  6D18                     blt        +0x1A /* 00004F0C */
00004EF4  4A2D BABB                tst.b      [A5 - 0x4545]
00004EF8  6C0E                     bge        +0x10 /* 00004F08 */
00004EFA  4A2D BAAE                tst.b      [A5 - 0x4552]
00004EFE  660C                     bne        +0xE /* 00004F0C */
00004F00  1B7C 00FF BAAE           move.b     [A5 - 0x4552], 0xFF
00004F06  6004                     bra        +0x6 /* 00004F0C */
label00004F08:
00004F08  422D BAAE                clr.b      [A5 - 0x4552]
label00004F0C:
00004F0C  4E75                     rts
export_99:
fn00004F0E:
00004F0E  2F07                     move.l     -[A7], D7
00004F10  7000                     moveq.l    D0, 0x00
00004F12  102D BAE9                move.b     D0, [A5 - 0x4517]
00004F16  D0AD BD86                add.l      D0, [A5 - 0x427A]
00004F1A  2040                     movea.l    A0, D0
00004F1C  1E10                     move.b     D7, [A0]
00004F1E  0C2D 0014 BABD           cmpi.b     [A5 - 0x4543], 0x14
00004F24  6604                     bne        +0x6 /* 00004F2A */
00004F26  7000                     moveq.l    D0, 0x00
00004F28  6062                     bra        +0x64 /* 00004F8C */
label00004F2A:
00004F2A  0C2D 000C BABD           cmpi.b     [A5 - 0x4543], 0xC
00004F30  660A                     bne        +0xC /* 00004F3C */
00004F32  4A2D B949                tst.b      [A5 - 0x46B7]
00004F36  6D04                     blt        +0x6 /* 00004F3C */
00004F38  7000                     moveq.l    D0, 0x00
00004F3A  6050                     bra        +0x52 /* 00004F8C */
label00004F3C:
00004F3C  7000                     moveq.l    D0, 0x00
00004F3E  102D BABD                move.b     D0, [A5 - 0x4543]
00004F42  3F00                     move.w     -[A7], D0
00004F44  4EBA F70A                jsr        [PC - 0x8F6 /* 00004650 */]
00004F48  4A00                     tst.b      D0
00004F4A  548F                     addq.l     A7, 2
00004F4C  6704                     beq        +0x6 /* 00004F52 */
00004F4E  7000                     moveq.l    D0, 0x00
00004F50  603A                     bra        +0x3C /* 00004F8C */
label00004F52:
00004F52  0C2D 000B BAE8           cmpi.b     [A5 - 0x4518], 0xB
00004F58  6608                     bne        +0xA /* 00004F62 */
00004F5A  4A07                     tst.b      D7
00004F5C  6704                     beq        +0x6 /* 00004F62 */
00004F5E  7000                     moveq.l    D0, 0x00
00004F60  602A                     bra        +0x2C /* 00004F8C */
label00004F62:
00004F62  0C2D 0007 BAE8           cmpi.b     [A5 - 0x4518], 0x7
00004F68  660A                     bne        +0xC /* 00004F74 */
00004F6A  4A2D B949                tst.b      [A5 - 0x46B7]
00004F6E  6C04                     bge        +0x6 /* 00004F74 */
00004F70  7000                     moveq.l    D0, 0x00
00004F72  6018                     bra        +0x1A /* 00004F8C */
label00004F74:
00004F74  7000                     moveq.l    D0, 0x00
00004F76  102D BAE8                move.b     D0, [A5 - 0x4518]
00004F7A  3F00                     move.w     -[A7], D0
00004F7C  4EBA F6D2                jsr        [PC - 0x92E /* 00004650 */]
00004F80  4A00                     tst.b      D0
00004F82  548F                     addq.l     A7, 2
00004F84  6604                     bne        +0x6 /* 00004F8A */
00004F86  7000                     moveq.l    D0, 0x00
00004F88  6002                     bra        +0x4 /* 00004F8C */
label00004F8A:
00004F8A  7001                     moveq.l    D0, 0x01
label00004F8C:
00004F8C  2E1F                     move.l     D7, [A7]+
00004F8E  4E75                     rts
export_100:
fn00004F90:
00004F90  4E56 0000                link       A6, 0
00004F94  2F07                     move.l     -[A7], D7
00004F96  1E2E 0008                move.b     D7, [A6 + 0x8]
00004F9A  0C07 0014                cmpi.b     D7, 0x14
00004F9E  6604                     bne        +0x6 /* 00004FA4 */
00004FA0  7004                     moveq.l    D0, 0x04
00004FA2  602C                     bra        +0x2E /* 00004FD0 */
label00004FA4:
00004FA4  0C07 0012                cmpi.b     D7, 0x12
00004FA8  6604                     bne        +0x6 /* 00004FAE */
00004FAA  7003                     moveq.l    D0, 0x03
00004FAC  6022                     bra        +0x24 /* 00004FD0 */
label00004FAE:
00004FAE  0C07 0004                cmpi.b     D7, 0x4
00004FB2  670C                     beq        +0xE /* 00004FC0 */
00004FB4  0C07 0007                cmpi.b     D7, 0x7
00004FB8  6706                     beq        +0x8 /* 00004FC0 */
00004FBA  0C07 000C                cmpi.b     D7, 0xC
00004FBE  6604                     bne        +0x6 /* 00004FC4 */
label00004FC0:
00004FC0  7001                     moveq.l    D0, 0x01
00004FC2  600C                     bra        +0xE /* 00004FD0 */
label00004FC4:
00004FC4  0C07 000D                cmpi.b     D7, 0xD /* '\r' */
00004FC8  6604                     bne        +0x6 /* 00004FCE */
00004FCA  7002                     moveq.l    D0, 0x02
00004FCC  6002                     bra        +0x4 /* 00004FD0 */
label00004FCE:
00004FCE  7000                     moveq.l    D0, 0x00
label00004FD0:
00004FD0  2E1F                     move.l     D7, [A7]+
00004FD2  4E5E                     unlink     A6
00004FD4  4E75                     rts
export_101:
fn00004FD6:
00004FD6  70FF                     moveq.l    D0, 0xFFFFFFFF
00004FD8  D02D B94B                add.b      D0, [A5 - 0x46B5]
00004FDC  1B40 BAE6                move.b     [A5 - 0x451A], D0
00004FE0  4880                     ext.w      D0
00004FE2  3F00                     move.w     -[A7], D0
00004FE4  102D B94A                move.b     D0, [A5 - 0x46B6]
00004FE8  4880                     ext.w      D0
00004FEA  3F00                     move.w     -[A7], D0
00004FEC  102D B94F                move.b     D0, [A5 - 0x46B1]
00004FF0  4880                     ext.w      D0
00004FF2  3F00                     move.w     -[A7], D0
00004FF4  4EBA EF78                jsr        [PC - 0x1088 /* 00003F6E */]
00004FF8  5C8F                     addq.l     A7, 6
00004FFA  4E75                     rts
export_102:
00004FFC  102D B949                move.b     D0, [A5 - 0x46B7]
00005000  4880                     ext.w      D0
00005002  204D                     movea.l    A0, A5
00005004  D0C0                     add.w      A0, D0
00005006  1028 B663                move.b     D0, [A0 - 0x499D]
0000500A  D02D B94A                add.b      D0, [A5 - 0x46B6]
0000500E  1B40 BAE5                move.b     [A5 - 0x451B], D0
00005012  72FF                     moveq.l    D1, 0xFFFFFFFF
00005014  D22D B94B                add.b      D1, [A5 - 0x46B5]
00005018  1B41 BAE6                move.b     [A5 - 0x451A], D1
0000501C  4881                     ext.w      D1
0000501E  3F01                     move.w     -[A7], D1
00005020  4880                     ext.w      D0
00005022  3F00                     move.w     -[A7], D0
00005024  102D B94F                move.b     D0, [A5 - 0x46B1]
00005028  4880                     ext.w      D0
0000502A  3F00                     move.w     -[A7], D0
0000502C  4EBA EF40                jsr        [PC - 0x10C0 /* 00003F6E */]
00005030  5C8F                     addq.l     A7, 6
00005032  4E75                     rts
export_103:
fn00005034:
00005034  102D B949                move.b     D0, [A5 - 0x46B7]
00005038  4880                     ext.w      D0
0000503A  204D                     movea.l    A0, A5
0000503C  D0C0                     add.w      A0, D0
0000503E  1028 B661                move.b     D0, [A0 - 0x499F]
00005042  D02D B94A                add.b      D0, [A5 - 0x46B6]
00005046  1B40 BAE4                move.b     [A5 - 0x451C], D0
0000504A  72FF                     moveq.l    D1, 0xFFFFFFFF
0000504C  D22D B94B                add.b      D1, [A5 - 0x46B5]
00005050  1B41 BAE6                move.b     [A5 - 0x451A], D1
00005054  4881                     ext.w      D1
00005056  3F01                     move.w     -[A7], D1
00005058  4880                     ext.w      D0
0000505A  3F00                     move.w     -[A7], D0
0000505C  102D B94F                move.b     D0, [A5 - 0x46B1]
00005060  4880                     ext.w      D0
00005062  3F00                     move.w     -[A7], D0
00005064  4EBA EF08                jsr        [PC - 0x10F8 /* 00003F6E */]
00005068  5C8F                     addq.l     A7, 6
0000506A  4E75                     rts
export_104:
0000506C  4E56 0000                link       A6, 0
00005070  4A2D B949                tst.b      [A5 - 0x46B7]
00005074  6C06                     bge        +0x8 /* 0000507C */
00005076  302E 0008                move.w     D0, [A6 + 0x8]
0000507A  6006                     bra        +0x8 /* 00005082 */
label0000507C:
0000507C  302E 0008                move.w     D0, [A6 + 0x8]
00005080  4440                     neg.w      D0
label00005082:
00005082  4E5E                     unlink     A6
00005084  4E75                     rts
export_105:
00005086  4E56 0000                link       A6, 0
0000508A  2F07                     move.l     -[A7], D7
0000508C  3B6E 0008 BAC0           move.w     [A5 - 0x4540], [A6 + 0x8]
00005092  3B6D BAEA BAC2           move.w     [A5 - 0x453E], [A5 - 0x4516]
00005098  7000                     moveq.l    D0, 0x00
0000509A  102D BAE9                move.b     D0, [A5 - 0x4517]
0000509E  3B40 BAC4                move.w     [A5 - 0x453C], D0
000050A2  1B7C 0001 BAAE           move.b     [A5 - 0x4552], 0x1
000050A8  7E00                     moveq.l    D7, 0x00
000050AA  1E2D BAE9                move.b     D7, [A5 - 0x4517]
000050AE  206D BD82                movea.l    A0, [A5 - 0x427E]
000050B2  11BC 0001 7800           move.b     [A0 + D7], 0x1
000050B8  206D BD86                movea.l    A0, [A5 - 0x427A]
000050BC  4230 7800                clr.b      [A0 + D7]
000050C0  3B7C 0023 BD6C           move.w     [A5 - 0x4294], 0x23 /* '#' */
000050C6  7000                     moveq.l    D0, 0x00
000050C8  102D BAE9                move.b     D0, [A5 - 0x4517]
000050CC  3F00                     move.w     -[A7], D0
000050CE  4EAD 0442                jsr        [A5 + 0x442 /* export_132, CODE:4 @ 0000233E */]
000050D2  2E2E FFFC                move.l     D7, [A6 - 0x4]
000050D6  4E5E                     unlink     A6
000050D8  4E75                     rts
fn000050DA:
000050DA  48E7 0300                movem.l    -[A7], D6,D7
000050DE  7E00                     moveq.l    D7, 0x00
000050E0  1E2D B946                move.b     D7, [A5 - 0x46BA]
000050E4  1C2D B94C                move.b     D6, [A5 - 0x46B4]
000050E8  4886                     ext.w      D6
000050EA  0C47 0057                cmpi.w     D7, 0x57 /* 'W' */
000050EE  6D06                     blt        +0x8 /* 000050F6 */
000050F0  0C47 0064                cmpi.w     D7, 0x64 /* 'd' */
000050F4  6D0C                     blt        +0xE /* 00005102 */
label000050F6:
000050F6  0C47 0087                cmpi.w     D7, 0x87
000050FA  6D0C                     blt        +0xE /* 00005108 */
000050FC  0C47 008D                cmpi.w     D7, 0x8D
00005100  6C06                     bge        +0x8 /* 00005108 */
label00005102:
00005102  4EBA FED2                jsr        [PC - 0x12E /* 00004FD6 */]
00005106  603E                     bra        +0x40 /* 00005146 */
label00005108:
00005108  0C46 0007                cmpi.w     D6, 0x7
0000510C  670C                     beq        +0xE /* 0000511A */
0000510E  0C46 0005                cmpi.w     D6, 0x5
00005112  6706                     beq        +0x8 /* 0000511A */
00005114  0C46 0002                cmpi.w     D6, 0x2
00005118  6C6E                     bge        +0x70 /* 00005188 */
label0000511A:
0000511A  0C47 004F                cmpi.w     D7, 0x4F /* 'O' */
0000511E  661A                     bne        +0x1C /* 0000513A */
00005120  4EBA FEB4                jsr        [PC - 0x14C /* 00004FD6 */]
00005124  7200                     moveq.l    D1, 0x00
00005126  1200                     move.b     D1, D0
00005128  0C41 000B                cmpi.w     D1, 0xB
0000512C  660C                     bne        +0xE /* 0000513A */
0000512E  1F3C 0001                move.b     -[A7], 0x1
00005132  4EAD 048A                jsr        [A5 + 0x48A /* export_141, CODE:4 @ 00002A2A */]
00005136  548F                     addq.l     A7, 2
00005138  600C                     bra        +0xE /* 00005146 */
label0000513A:
0000513A  082D 0006 B992           btst.b     [A5 - 0x466E], 0x6
00005140  6746                     beq        +0x48 /* 00005188 */
00005142  4EBA F61A                jsr        [PC - 0x9E6 /* 0000475E */]
label00005146:
00005146  0C2D 000F BAE8           cmpi.b     [A5 - 0x4518], 0xF
0000514C  6708                     beq        +0xA /* 00005156 */
0000514E  0C2D 0006 BAE8           cmpi.b     [A5 - 0x4518], 0x6
00005154  661A                     bne        +0x1C /* 00005170 */
label00005156:
00005156  4A2D B953                tst.b      [A5 - 0x46AD]
0000515A  6C0E                     bge        +0x10 /* 0000516A */
0000515C  2F3C 0001 0000           move.l     -[A7], 0x10000
00005162  4EAD 0472                jsr        [A5 + 0x472 /* export_138, CODE:4 @ 000027A2 */]
00005166  588F                     addq.l     A7, 4
00005168  601E                     bra        +0x20 /* 00005188 */
label0000516A:
0000516A  4EAD 047A                jsr        [A5 + 0x47A /* export_139, CODE:4 @ 0000283C */]
0000516E  6018                     bra        +0x1A /* 00005188 */
label00005170:
00005170  0C2D 000B BAE8           cmpi.b     [A5 - 0x4518], 0xB
00005176  6610                     bne        +0x12 /* 00005188 */
00005178  3B7C 0001 BA56           move.w     [A5 - 0x45AA], 0x1
0000517E  1F3C 0001                move.b     -[A7], 0x1
00005182  4EAD 048A                jsr        [A5 + 0x48A /* export_141, CODE:4 @ 00002A2A */]
00005186  548F                     addq.l     A7, 2
label00005188:
00005188  4CDF 00C0                movem.l    D6,D7, [A7]+
0000518C  4E75                     rts
fn0000518E:
0000518E  48E7 1F00                movem.l    -[A7], D3,D4,D5,D6,D7
00005192  3F2D BADE                move.w     -[A7], [A5 - 0x4522]
00005196  4EBA F242                jsr        [PC - 0xDBE /* 000043DA */]
0000519A  3E00                     move.w     D7, D0
0000519C  4A47                     tst.w      D7
0000519E  548F                     addq.l     A7, 2
000051A0  6D76                     blt        +0x78 /* 00005218 */
000051A2  1C2D B94B                move.b     D6, [A5 - 0x46B5]
000051A6  4886                     ext.w      D6
000051A8  1A2D B94F                move.b     D5, [A5 - 0x46B1]
000051AC  4885                     ext.w      D5
000051AE  3F2D BADC                move.w     -[A7], [A5 - 0x4524]
000051B2  4EBA F226                jsr        [PC - 0xDDA /* 000043DA */]
000051B6  3800                     move.w     D4, D0
000051B8  548F                     addq.l     A7, 2
000051BA  6058                     bra        +0x5A /* 00005214 */
label000051BC:
000051BC  1C2D B94B                move.b     D6, [A5 - 0x46B5]
000051C0  4886                     ext.w      D6
label000051C2:
000051C2  7600                     moveq.l    D3, 0x00
000051C4  3F06                     move.w     -[A7], D6
000051C6  3F04                     move.w     -[A7], D4
000051C8  3F05                     move.w     -[A7], D5
000051CA  4EBA EDA2                jsr        [PC - 0x125E /* 00003F6E */]
000051CE  7200                     moveq.l    D1, 0x00
000051D0  1200                     move.b     D1, D0
000051D2  5541                     subq.w     D1, 2
000051D4  5C8F                     addq.l     A7, 6
000051D6  6614                     bne        +0x16 /* 000051EC */
000051D8  7000                     moveq.l    D0, 0x00
000051DA  102D BAE9                move.b     D0, [A5 - 0x4517]
000051DE  3F00                     move.w     -[A7], D0
000051E0  3F2D BAEA                move.w     -[A7], [A5 - 0x4516]
000051E4  4EAD 0462                jsr        [A5 + 0x462 /* export_136, CODE:4 @ 000024A8 */]
000051E8  588F                     addq.l     A7, 4
000051EA  6022                     bra        +0x24 /* 0000520E */
label000051EC:
000051EC  7000                     moveq.l    D0, 0x00
000051EE  102D BAE8                move.b     D0, [A5 - 0x4518]
000051F2  3F00                     move.w     -[A7], D0
000051F4  4EBA F45A                jsr        [PC - 0xBA6 /* 00004650 */]
000051F8  4A00                     tst.b      D0
000051FA  548F                     addq.l     A7, 2
000051FC  6610                     bne        +0x12 /* 0000520E */
000051FE  4A6D BAEA                tst.w      [A5 - 0x4516]
00005202  670A                     beq        +0xC /* 0000520E */
00005204  BA6D BAEA                cmp.w      D5, [A5 - 0x4516]
00005208  6604                     bne        +0x6 /* 0000520E */
0000520A  5246                     addq.w     D6, 1
0000520C  7601                     moveq.l    D3, 0x01
label0000520E:
0000520E  4A43                     tst.w      D3
00005210  66B0                     bne        -0x4E /* 000051C2 */
00005212  5244                     addq.w     D4, 1
label00005214:
00005214  BE44                     cmp.w      D7, D4
00005216  6CA4                     bge        -0x5A /* 000051BC */
label00005218:
00005218  4CDF 00F8                movem.l    D3,D4,D5,D6,D7, [A7]+
0000521C  4E75                     rts
export_106:
0000521E  48E7 1F00                movem.l    -[A7], D3,D4,D5,D6,D7
00005222  7E00                     moveq.l    D7, 0x00
00005224  1E2D B946                move.b     D7, [A5 - 0x46BA]
00005228  1C2D B94C                move.b     D6, [A5 - 0x46B4]
0000522C  4886                     ext.w      D6
0000522E  1A2D B94F                move.b     D5, [A5 - 0x46B1]
00005232  4885                     ext.w      D5
00005234  182D B94B                move.b     D4, [A5 - 0x46B5]
00005238  4884                     ext.w      D4
0000523A  4EBA F328                jsr        [PC - 0xCD8 /* 00004564 */]
0000523E  0C47 00E0                cmpi.w     D7, 0xE0
00005242  6D16                     blt        +0x18 /* 0000525A */
00005244  0C47 00E5                cmpi.w     D7, 0xE5
00005248  6C10                     bge        +0x12 /* 0000525A */
0000524A  3B6D BD98 BAFE           move.w     [A5 - 0x4502], [A5 - 0x4268]
00005250  3B6D BAE2 BB04           move.w     [A5 - 0x44FC], [A5 - 0x451E]
00005256  6000 01CA                bra        +0x1CC /* 00005422 */
label0000525A:
0000525A  3F2D BACA                move.w     -[A7], [A5 - 0x4536]
0000525E  3F2D BAC6                move.w     -[A7], [A5 - 0x453A]
00005262  3F05                     move.w     -[A7], D5
00005264  4EBA ED08                jsr        [PC - 0x12F8 /* 00003F6E */]
00005268  7200                     moveq.l    D1, 0x00
0000526A  1200                     move.b     D1, D0
0000526C  0C41 0014                cmpi.w     D1, 0x14
00005270  5C8F                     addq.l     A7, 6
00005272  6712                     beq        +0x14 /* 00005286 */
00005274  7000                     moveq.l    D0, 0x00
00005276  102D BAE8                move.b     D0, [A5 - 0x4518]
0000527A  3F00                     move.w     -[A7], D0
0000527C  4EBA F3D2                jsr        [PC - 0xC2E /* 00004650 */]
00005280  4A00                     tst.b      D0
00005282  548F                     addq.l     A7, 2
00005284  677C                     beq        +0x7E /* 00005302 */
label00005286:
00005286  4A46                     tst.w      D6
00005288  660C                     bne        +0xE /* 00005296 */
0000528A  0C47 004F                cmpi.w     D7, 0x4F /* 'O' */
0000528E  6732                     beq        +0x34 /* 000052C2 */
00005290  0C47 0051                cmpi.w     D7, 0x51 /* 'Q' */
00005294  672C                     beq        +0x2E /* 000052C2 */
label00005296:
00005296  3F2D BACA                move.w     -[A7], [A5 - 0x4536]
0000529A  3F2D BAC8                move.w     -[A7], [A5 - 0x4538]
0000529E  3F05                     move.w     -[A7], D5
000052A0  4EBA ECCC                jsr        [PC - 0x1334 /* 00003F6E */]
000052A4  7200                     moveq.l    D1, 0x00
000052A6  1200                     move.b     D1, D0
000052A8  0C41 0014                cmpi.w     D1, 0x14
000052AC  5C8F                     addq.l     A7, 6
000052AE  6712                     beq        +0x14 /* 000052C2 */
000052B0  7000                     moveq.l    D0, 0x00
000052B2  102D BAE8                move.b     D0, [A5 - 0x4518]
000052B6  3F00                     move.w     -[A7], D0
000052B8  4EBA F396                jsr        [PC - 0xC6A /* 00004650 */]
000052BC  4A00                     tst.b      D0
000052BE  548F                     addq.l     A7, 2
000052C0  6740                     beq        +0x42 /* 00005302 */
label000052C2:
000052C2  204D                     movea.l    A0, A5
000052C4  D0C4                     add.w      A0, D4
000052C6  D0C4                     add.w      A0, D4
000052C8  3628 B666                move.w     D3, [A0 - 0x499A]
000052CC  4A44                     tst.w      D4
000052CE  6F10                     ble        +0x12 /* 000052E0 */
000052D0  B66D BAF8                cmp.w      D3, [A5 - 0x4508]
000052D4  6C2C                     bge        +0x2E /* 00005302 */
000052D6  70F1                     moveq.l    D0, 0xFFFFFFF1
000052D8  D043                     add.w      D0, D3
000052DA  B06D BAE0                cmp.w      D0, [A5 - 0x4520]
000052DE  6C22                     bge        +0x24 /* 00005302 */
label000052E0:
000052E0  3B43 BAE0                move.w     [A5 - 0x4520], D3
000052E4  4A6D BAE0                tst.w      [A5 - 0x4520]
000052E8  6C08                     bge        +0xA /* 000052F2 */
000052EA  3B6D 9C64 BAFE           move.w     [A5 - 0x4502], [A5 - 0x639C]
000052F0  6010                     bra        +0x12 /* 00005302 */
label000052F2:
000052F2  302D BAE0                move.w     D0, [A5 - 0x4520]
000052F6  204D                     movea.l    A0, A5
000052F8  D0C0                     add.w      A0, D0
000052FA  D0C0                     add.w      A0, D0
000052FC  3B68 9C64 BAFE           move.w     [A5 - 0x4502], [A0 - 0x639C]
label00005302:
00005302  70FC                     moveq.l    D0, 0xFFFFFFFC
00005304  D06D BAD8                add.w      D0, [A5 - 0x4528]
00005308  3F00                     move.w     -[A7], D0
0000530A  4EBA F0F4                jsr        [PC - 0xF0C /* 00004400 */]
0000530E  3600                     move.w     D3, D0
00005310  3E84                     move.w     [A7], D4
00005312  7001                     moveq.l    D0, 0x01
00005314  D043                     add.w      D0, D3
00005316  3F00                     move.w     -[A7], D0
00005318  3F05                     move.w     -[A7], D5
0000531A  4EBA EC52                jsr        [PC - 0x13AE /* 00003F6E */]
0000531E  7200                     moveq.l    D1, 0x00
00005320  1200                     move.b     D1, D0
00005322  5F41                     subq.w     D1, 7
00005324  5C8F                     addq.l     A7, 6
00005326  6708                     beq        +0xA /* 00005330 */
00005328  0C2D 000C BAE8           cmpi.b     [A5 - 0x4518], 0xC
0000532E  6618                     bne        +0x1A /* 00005348 */
label00005330:
00005330  7001                     moveq.l    D0, 0x01
00005332  D06D BAEC                add.w      D0, [A5 - 0x4514]
00005336  EB48                     lsl        D0.w, 5
00005338  204D                     movea.l    A0, A5
0000533A  D0C0                     add.w      A0, D0
0000533C  D0C0                     add.w      A0, D0
0000533E  3B68 9866 BB04           move.w     [A5 - 0x44FC], [A0 - 0x679A]
00005344  6000 00DC                bra        +0xDE /* 00005422 */
label00005348:
00005348  3F04                     move.w     -[A7], D4
0000534A  3F03                     move.w     -[A7], D3
0000534C  3F05                     move.w     -[A7], D5
0000534E  4EBA EC1E                jsr        [PC - 0x13E2 /* 00003F6E */]
00005352  7200                     moveq.l    D1, 0x00
00005354  1200                     move.b     D1, D0
00005356  5F41                     subq.w     D1, 7
00005358  5C8F                     addq.l     A7, 6
0000535A  6708                     beq        +0xA /* 00005364 */
0000535C  0C2D 000C BAE8           cmpi.b     [A5 - 0x4518], 0xC
00005362  6658                     bne        +0x5A /* 000053BC */
label00005364:
00005364  0C46 0003                cmpi.w     D6, 0x3
00005368  6752                     beq        +0x54 /* 000053BC */
0000536A  0C46 0004                cmpi.w     D6, 0x4
0000536E  6606                     bne        +0x8 /* 00005376 */
00005370  0C47 006A                cmpi.w     D7, 0x6A /* 'j' */
00005374  6746                     beq        +0x48 /* 000053BC */
label00005376:
00005376  0C46 0005                cmpi.w     D6, 0x5
0000537A  6606                     bne        +0x8 /* 00005382 */
0000537C  0C47 006B                cmpi.w     D7, 0x6B /* 'k' */
00005380  673A                     beq        +0x3C /* 000053BC */
label00005382:
00005382  4A2D B949                tst.b      [A5 - 0x46B7]
00005386  6C1E                     bge        +0x20 /* 000053A6 */
00005388  0C46 0002                cmpi.w     D6, 0x2
0000538C  672E                     beq        +0x30 /* 000053BC */
0000538E  0C46 0006                cmpi.w     D6, 0x6
00005392  6728                     beq        +0x2A /* 000053BC */
00005394  0C46 0001                cmpi.w     D6, 0x1
00005398  660C                     bne        +0xE /* 000053A6 */
0000539A  0C47 0089                cmpi.w     D7, 0x89
0000539E  6D06                     blt        +0x8 /* 000053A6 */
000053A0  0C47 008C                cmpi.w     D7, 0x8C
000053A4  6F16                     ble        +0x18 /* 000053BC */
label000053A6:
000053A6  7001                     moveq.l    D0, 0x01
000053A8  D06D BAEC                add.w      D0, [A5 - 0x4514]
000053AC  EB48                     lsl        D0.w, 5
000053AE  204D                     movea.l    A0, A5
000053B0  D0C0                     add.w      A0, D0
000053B2  D0C0                     add.w      A0, D0
000053B4  3B68 9866 BB04           move.w     [A5 - 0x44FC], [A0 - 0x679A]
000053BA  6066                     bra        +0x68 /* 00005422 */
label000053BC:
000053BC  3F2D BADA                move.w     -[A7], [A5 - 0x4526]
000053C0  4EBA F03E                jsr        [PC - 0xFC2 /* 00004400 */]
000053C4  3600                     move.w     D3, D0
000053C6  3E84                     move.w     [A7], D4
000053C8  3F03                     move.w     -[A7], D3
000053CA  3F05                     move.w     -[A7], D5
000053CC  4EBA EBA0                jsr        [PC - 0x1460 /* 00003F6E */]
000053D0  7200                     moveq.l    D1, 0x00
000053D2  1200                     move.b     D1, D0
000053D4  0C41 0014                cmpi.w     D1, 0x14
000053D8  5C8F                     addq.l     A7, 6
000053DA  670E                     beq        +0x10 /* 000053EA */
000053DC  0C2D 000D BAE8           cmpi.b     [A5 - 0x4518], 0xD /* '\r' */
000053E2  663E                     bne        +0x40 /* 00005422 */
000053E4  4A2D B949                tst.b      [A5 - 0x46B7]
000053E8  6638                     bne        +0x3A /* 00005422 */
label000053EA:
000053EA  3F2D BACA                move.w     -[A7], [A5 - 0x4536]
000053EE  3F03                     move.w     -[A7], D3
000053F0  3F05                     move.w     -[A7], D5
000053F2  4EBA EB7A                jsr        [PC - 0x1486 /* 00003F6E */]
000053F6  7200                     moveq.l    D1, 0x00
000053F8  1200                     move.b     D1, D0
000053FA  0C41 0014                cmpi.w     D1, 0x14
000053FE  5C8F                     addq.l     A7, 6
00005400  6708                     beq        +0xA /* 0000540A */
00005402  0C2D 000D BAE8           cmpi.b     [A5 - 0x4518], 0xD /* '\r' */
00005408  6618                     bne        +0x1A /* 00005422 */
label0000540A:
0000540A  BA6D BAEA                cmp.w      D5, [A5 - 0x4516]
0000540E  6612                     bne        +0x14 /* 00005422 */
00005410  302D BAEC                move.w     D0, [A5 - 0x4514]
00005414  EB48                     lsl        D0.w, 5
00005416  204D                     movea.l    A0, A5
00005418  D0C0                     add.w      A0, D0
0000541A  D0C0                     add.w      A0, D0
0000541C  3B68 9866 BB04           move.w     [A5 - 0x44FC], [A0 - 0x679A]
label00005422:
00005422  4CDF 00F8                movem.l    D3,D4,D5,D6,D7, [A7]+
00005426  4E75                     rts
export_107:
00005428  4EBA F334                jsr        [PC - 0xCCC /* 0000475E */]
0000542C  7200                     moveq.l    D1, 0x00
0000542E  1200                     move.b     D1, D0
00005430  5B41                     subq.w     D1, 5
00005432  6604                     bne        +0x6 /* 00005438 */
00005434  522D B948                addq.b     [A5 - 0x46B8], 1
label00005438:
00005438  4E75                     rts
export_108:
0000543A  48E7 0300                movem.l    -[A7], D6,D7
0000543E  7E00                     moveq.l    D7, 0x00
00005440  1E2D B946                move.b     D7, [A5 - 0x46BA]
00005444  1C2D B94C                move.b     D6, [A5 - 0x46B4]
00005448  4886                     ext.w      D6
0000544A  0C46 0001                cmpi.w     D6, 0x1
0000544E  660E                     bne        +0x10 /* 0000545E */
00005450  3B6D BACC BAEE           move.w     [A5 - 0x4512], [A5 - 0x4534]
00005456  3B6D BAC6 BAEC           move.w     [A5 - 0x4514], [A5 - 0x453A]
0000545C  6014                     bra        +0x16 /* 00005472 */
label0000545E:
0000545E  102D B94B                move.b     D0, [A5 - 0x46B5]
00005462  4880                     ext.w      D0
00005464  3B40 BAEE                move.w     [A5 - 0x4512], D0
00005468  122D B94A                move.b     D1, [A5 - 0x46B6]
0000546C  4881                     ext.w      D1
0000546E  3B41 BAEC                move.w     [A5 - 0x4514], D1
label00005472:
00005472  0C47 0087                cmpi.w     D7, 0x87
00005476  6D06                     blt        +0x8 /* 0000547E */
00005478  0C47 0095                cmpi.w     D7, 0x95
0000547C  6D18                     blt        +0x1A /* 00005496 */
label0000547E:
0000547E  0C46 0002                cmpi.w     D6, 0x2
00005482  6712                     beq        +0x14 /* 00005496 */
00005484  0C46 0003                cmpi.w     D6, 0x3
00005488  670C                     beq        +0xE /* 00005496 */
0000548A  0C46 0004                cmpi.w     D6, 0x4
0000548E  6706                     beq        +0x8 /* 00005496 */
00005490  0C46 0006                cmpi.w     D6, 0x6
00005494  6604                     bne        +0x6 /* 0000549A */
label00005496:
00005496  536D BAEC                subq.w     [A5 - 0x4514], 1
label0000549A:
0000549A  3F2D BAEE                move.w     -[A7], [A5 - 0x4512]
0000549E  3F2D BAEC                move.w     -[A7], [A5 - 0x4514]
000054A2  4EBA EBE4                jsr        [PC - 0x141C /* 00004088 */]
000054A6  1B40 BAF0                move.b     [A5 - 0x4510], D0
000054AA  588F                     addq.l     A7, 4
000054AC  4CDF 00C0                movem.l    D6,D7, [A7]+
000054B0  4E75                     rts
fn000054B2:
000054B2  4A2D B951                tst.b      [A5 - 0x46AF]
000054B6  6600 00F8                bne        +0xFA /* 000055B0 */
000054BA  4A6D BAC0                tst.w      [A5 - 0x4540]
000054BE  6700 00F0                beq        +0xF2 /* 000055B0 */
000054C2  0C6D FFFF BAC0           cmpi.w     [A5 - 0x4540], 0xFFFF
000054C8  6620                     bne        +0x22 /* 000054EA */
000054CA  3B7C FFFF BA28           move.w     [A5 - 0x45D8], 0xFFFF
000054D0  3F3C 0025                move.w     -[A7], 0x25 /* '%' */
000054D4  4EBA B2DA                jsr        [PC - 0x4D26 /* 000007B0 */]
000054D8  3B7C 000B BA18           move.w     [A5 - 0x45E8], 0xB
000054DE  3B7C 0008 BA1A           move.w     [A5 - 0x45E6], 0x8
000054E4  548F                     addq.l     A7, 2
000054E6  6000 00C8                bra        +0xCA /* 000055B0 */
label000054EA:
000054EA  536D BAC0                subq.w     [A5 - 0x4540], 1
000054EE  302D BAC0                move.w     D0, [A5 - 0x4540]
000054F2  671C                     beq        +0x1E /* 00005510 */
000054F4  6B00 00BA                bmi        +0xBC /* 000055B0 */
000054F8  5940                     subq.w     D0, 4
000054FA  6700 008A                beq        +0x8C /* 00005586 */
000054FE  6A08                     bpl        +0xA /* 00005508 */
00005500  5440                     addq.w     D0, 2
00005502  675A                     beq        +0x5C /* 0000555E */
00005504  6A5E                     bpl        +0x60 /* 00005564 */
00005506  6036                     bra        +0x38 /* 0000553E */
label00005508:
00005508  5540                     subq.w     D0, 2
0000550A  6A00 00A4                bpl        +0xA6 /* 000055B0 */
0000550E  605A                     bra        +0x5C /* 0000556A */
label00005510:
00005510  302D BA4A                move.w     D0, [A5 - 0x45B6]
00005514  B06D BA48                cmp.w      D0, [A5 - 0x45B8]
00005518  6700 0096                beq        +0x98 /* 000055B0 */
0000551C  4EAD 0102                jsr        [A5 + 0x102 /* export_28, CODE:2 @ 00002B1C */]
00005520  3F3C 0021                move.w     -[A7], 0x21 /* '!' */
00005524  4EBA B28A                jsr        [PC - 0x4D76 /* 000007B0 */]
00005528  3B7C 0001 BA50           move.w     [A5 - 0x45B0], 0x1
0000552E  3B7C 0008 BA18           move.w     [A5 - 0x45E8], 0x8
00005534  3B7C 0002 BA1A           move.w     [A5 - 0x45E6], 0x2
0000553A  548F                     addq.l     A7, 2
0000553C  6072                     bra        +0x74 /* 000055B0 */
label0000553E:
0000553E  4EAD 0102                jsr        [A5 + 0x102 /* export_28, CODE:2 @ 00002B1C */]
00005542  3F3C 001E                move.w     -[A7], 0x1E
00005546  4EBA B268                jsr        [PC - 0x4D98 /* 000007B0 */]
0000554A  3B7C 0008 BA18           move.w     [A5 - 0x45E8], 0x8
00005550  3B7C 0004 BA1A           move.w     [A5 - 0x45E6], 0x4
00005556  4EBA B15A                jsr        [PC - 0x4EA6 /* 000006B2 */]
0000555A  548F                     addq.l     A7, 2
0000555C  6052                     bra        +0x54 /* 000055B0 */
label0000555E:
0000555E  4EBA B5EC                jsr        [PC - 0x4A14 /* 00000B4C */]
00005562  604C                     bra        +0x4E /* 000055B0 */
label00005564:
00005564  4EBA B5CC                jsr        [PC - 0x4A34 /* 00000B32 */]
00005568  6046                     bra        +0x48 /* 000055B0 */
label0000556A:
0000556A  3F3C 0001                move.w     -[A7], 0x1
0000556E  4EAD 054A                jsr        [A5 + 0x54A /* export_165, CODE:4 @ 00005C24 */]
00005572  42A7                     clr.l      -[A7]
00005574  3F3C 0008                move.w     -[A7], 0x8
00005578  4EBA E9F4                jsr        [PC - 0x160C /* 00003F6E */]
0000557C  4297                     clr.l      [A7]
0000557E  4EAD 0472                jsr        [A5 + 0x472 /* export_138, CODE:4 @ 000027A2 */]
00005582  508F                     addq.l     A7, 8
00005584  602A                     bra        +0x2C /* 000055B0 */
label00005586:
00005586  4EAD 0102                jsr        [A5 + 0x102 /* export_28, CODE:2 @ 00002B1C */]
0000558A  3F3C 000D                move.w     -[A7], 0xD /* '\r' */
0000558E  4EBA B220                jsr        [PC - 0x4DE0 /* 000007B0 */]
00005592  0C6D 000F A90C           cmpi.w     [A5 - 0x56F4], 0xF
00005598  548F                     addq.l     A7, 2
0000559A  660E                     bne        +0x10 /* 000055AA */
0000559C  302D BA48                move.w     D0, [A5 - 0x45B8]
000055A0  4440                     neg.w      D0
000055A2  5240                     addq.w     D0, 1
000055A4  3B40 BA50                move.w     [A5 - 0x45B0], D0
000055A8  6006                     bra        +0x8 /* 000055B0 */
label000055AA:
000055AA  3B7C FFFF BA50           move.w     [A5 - 0x45B0], 0xFFFF
label000055B0:
000055B0  4E75                     rts
000055B2  4EBA 0040                jsr        [PC + 0x40 /* 000055F4 */]
000055B6  4A00                     tst.b      D0
000055B8  6704                     beq        +0x6 /* 000055BE */
000055BA  7001                     moveq.l    D0, 0x01
000055BC  6034                     bra        +0x36 /* 000055F2 */
label000055BE:
000055BE  102D B946                move.b     D0, [A5 - 0x46BA]
000055C2  6728                     beq        +0x2A /* 000055EC */
000055C4  6A16                     bpl        +0x18 /* 000055DC */
000055C6  0400 00AB                subi.b     D0, 0xAB
000055CA  6720                     beq        +0x22 /* 000055EC */
000055CC  6A06                     bpl        +0x8 /* 000055D4 */
000055CE  5A00                     addq.b     D0, 5
000055D0  671A                     beq        +0x1C /* 000055EC */
000055D2  601C                     bra        +0x1E /* 000055F0 */
label000055D4:
000055D4  0400 003A                subi.b     D0, 0x3A /* ':' */
000055D8  6712                     beq        +0x14 /* 000055EC */
000055DA  6014                     bra        +0x16 /* 000055F0 */
label000055DC:
000055DC  0400 006D                subi.b     D0, 0x6D /* 'm' */
000055E0  670A                     beq        +0xC /* 000055EC */
000055E2  6A0C                     bpl        +0xE /* 000055F0 */
000055E4  0400 00A2                subi.b     D0, 0xA2
000055E8  6702                     beq        +0x4 /* 000055EC */
000055EA  6004                     bra        +0x6 /* 000055F0 */
label000055EC:
000055EC  7001                     moveq.l    D0, 0x01
000055EE  6002                     bra        +0x4 /* 000055F2 */
label000055F0:
000055F0  7000                     moveq.l    D0, 0x00
label000055F2:
000055F2  4E75                     rts
fn000055F4:
000055F4  102D B946                move.b     D0, [A5 - 0x46BA]
000055F8  6A14                     bpl        +0x16 /* 0000560E */
000055FA  0400 00B9                subi.b     D0, 0xB9
000055FE  670A                     beq        +0xC /* 0000560A */
00005600  6A0C                     bpl        +0xE /* 0000560E */
00005602  5C00                     addq.b     D0, 6
00005604  6A08                     bpl        +0xA /* 0000560E */
00005606  5400                     addq.b     D0, 2
00005608  6B04                     bmi        +0x6 /* 0000560E */
label0000560A:
0000560A  7001                     moveq.l    D0, 0x01
0000560C  6002                     bra        +0x4 /* 00005610 */
label0000560E:
0000560E  7000                     moveq.l    D0, 0x00
label00005610:
00005610  4E75                     rts
fn00005612:
00005612  0C2D 0001 B987           cmpi.b     [A5 - 0x4679], 0x1
00005618  660C                     bne        +0xE /* 00005626 */
0000561A  3F3C 0020                move.w     -[A7], 0x20 /* ' ' */
0000561E  4EBA B190                jsr        [PC - 0x4E70 /* 000007B0 */]
00005622  548F                     addq.l     A7, 2
00005624  601C                     bra        +0x1E /* 00005642 */
label00005626:
00005626  4A6D BA26                tst.w      [A5 - 0x45DA]
0000562A  670C                     beq        +0xE /* 00005638 */
0000562C  3F3C 001C                move.w     -[A7], 0x1C
00005630  4EBA B17E                jsr        [PC - 0x4E82 /* 000007B0 */]
00005634  548F                     addq.l     A7, 2
00005636  600A                     bra        +0xC /* 00005642 */
label00005638:
00005638  3F3C 0018                move.w     -[A7], 0x18
0000563C  4EBA B172                jsr        [PC - 0x4E8E /* 000007B0 */]
00005640  548F                     addq.l     A7, 2
label00005642:
00005642  4E75                     rts
fn00005644:
00005644  4A6D A90C                tst.w      [A5 - 0x56F4]
00005648  6610                     bne        +0x12 /* 0000565A */
0000564A  3B7C 0001 BA40           move.w     [A5 - 0x45C0], 0x1
00005650  426D BA5A                clr.w      [A5 - 0x45A6]
00005654  426D BA5C                clr.w      [A5 - 0x45A4]
00005658  6046                     bra        +0x48 /* 000056A0 */
label0000565A:
0000565A  0C6D 000D A90C           cmpi.w     [A5 - 0x56F4], 0xD /* '\r' */
00005660  662C                     bne        +0x2E /* 0000568E */
00005662  3B7C 0007 BA18           move.w     [A5 - 0x45E8], 0x7
00005668  3B7C 0012 BA1A           move.w     [A5 - 0x45E6], 0x12
0000566E  3B7C 0001 BA42           move.w     [A5 - 0x45BE], 0x1
00005674  3B7C 0002 BA3C           move.w     [A5 - 0x45C4], 0x2
0000567A  3F3C 002B                move.w     -[A7], 0x2B /* '+' */
0000567E  4EBA B130                jsr        [PC - 0x4ED0 /* 000007B0 */]
00005682  41ED 9638                lea.l      A0, [A5 - 0x69C8]
00005686  20B8 020C                move.l     [A0], [0x0000020C /* Time */]
0000568A  548F                     addq.l     A7, 2
0000568C  6012                     bra        +0x14 /* 000056A0 */
label0000568E:
0000568E  0C2D 0001 B951           cmpi.b     [A5 - 0x46AF], 0x1
00005694  670A                     beq        +0xC /* 000056A0 */
00005696  3F3C 0025                move.w     -[A7], 0x25 /* '%' */
0000569A  4EBA B114                jsr        [PC - 0x4EEC /* 000007B0 */]
0000569E  548F                     addq.l     A7, 2
label000056A0:
000056A0  4E75                     rts
fn000056A2:
000056A2  1B7C 0056 B949           move.b     [A5 - 0x46B7], 0x56 /* 'V' */
000056A8  422D B94C                clr.b      [A5 - 0x46B4]
000056AC  422D B953                clr.b      [A5 - 0x46AD]
000056B0  3F2D BA4C                move.w     -[A7], [A5 - 0x45B4]
000056B4  4267                     clr.w      -[A7]
000056B6  4EBA AF5C                jsr        [PC - 0x50A4 /* 00000614 */]
000056BA  426D BA4C                clr.w      [A5 - 0x45B4]
000056BE  588F                     addq.l     A7, 4
000056C0  4E75                     rts
fn000056C2:
000056C2  1B6D BAF0 BB06           move.b     [A5 - 0x44FA], [A5 - 0x4510]
000056C8  1B6D BAF1 BB07           move.b     [A5 - 0x44F9], [A5 - 0x450F]
000056CE  3B6D BAF2 BB08           move.w     [A5 - 0x44F8], [A5 - 0x450E]
000056D4  3B6D BAF4 BB0A           move.w     [A5 - 0x44F6], [A5 - 0x450C]
000056DA  3B6D BAF6 BB0C           move.w     [A5 - 0x44F4], [A5 - 0x450A]
000056E0  3B6D BAF8 BB0E           move.w     [A5 - 0x44F2], [A5 - 0x4508]
000056E6  3B6D BAFA BB10           move.w     [A5 - 0x44F0], [A5 - 0x4506]
000056EC  3B6D BAFC BB12           move.w     [A5 - 0x44EE], [A5 - 0x4504]
000056F2  3B6D BAFE BB14           move.w     [A5 - 0x44EC], [A5 - 0x4502]
000056F8  3B6D BB00 BB16           move.w     [A5 - 0x44EA], [A5 - 0x4500]
000056FE  3B6D BB02 BB18           move.w     [A5 - 0x44E8], [A5 - 0x44FE]
00005704  3B6D BB04 BB1A           move.w     [A5 - 0x44E6], [A5 - 0x44FC]
0000570A  4E75                     rts
fn0000570C:
0000570C  1B6D BB06 BAF0           move.b     [A5 - 0x4510], [A5 - 0x44FA]
00005712  1B6D BB07 BAF1           move.b     [A5 - 0x450F], [A5 - 0x44F9]
00005718  3B6D BB08 BAF2           move.w     [A5 - 0x450E], [A5 - 0x44F8]
0000571E  3B6D BB0A BAF4           move.w     [A5 - 0x450C], [A5 - 0x44F6]
00005724  3B6D BB0C BAF6           move.w     [A5 - 0x450A], [A5 - 0x44F4]
0000572A  3B6D BB0E BAF8           move.w     [A5 - 0x4508], [A5 - 0x44F2]
00005730  3B6D BB10 BAFA           move.w     [A5 - 0x4506], [A5 - 0x44F0]
00005736  3B6D BB12 BAFC           move.w     [A5 - 0x4504], [A5 - 0x44EE]
0000573C  3B6D BB14 BAFE           move.w     [A5 - 0x4502], [A5 - 0x44EC]
00005742  3B6D BB16 BB00           move.w     [A5 - 0x4500], [A5 - 0x44EA]
00005748  3B6D BB18 BB02           move.w     [A5 - 0x44FE], [A5 - 0x44E8]
0000574E  3B6D BB1A BB04           move.w     [A5 - 0x44FC], [A5 - 0x44E6]
00005754  4E75                     rts
export_109:
00005756  48E7 0300                movem.l    -[A7], D6,D7
0000575A  7C00                     moveq.l    D6, 0x00
0000575C  1C2D B946                move.b     D6, [A5 - 0x46BA]
00005760  0C46 00B2                cmpi.w     D6, 0xB2
00005764  6700 0090                beq        +0x92 /* 000057F6 */
00005768  4EBA FF58                jsr        [PC - 0xA8 /* 000056C2 */]
0000576C  1B7C 00FF BAF0           move.b     [A5 - 0x4510], 0xFF
00005772  0C46 00B9                cmpi.w     D6, 0xB9
00005776  670C                     beq        +0xE /* 00005784 */
00005778  0C46 006A                cmpi.w     D6, 0x6A /* 'j' */
0000577C  6D16                     blt        +0x18 /* 00005794 */
0000577E  0C46 006F                cmpi.w     D6, 0x6F /* 'o' */
00005782  6C10                     bge        +0x12 /* 00005794 */
label00005784:
00005784  586D BAF8                addq.w     [A5 - 0x4508], 4
00005788  3F3C 0005                move.w     -[A7], 0x5
0000578C  4EBA EA94                jsr        [PC - 0x156C /* 00004222 */]
00005790  548F                     addq.l     A7, 2
00005792  6030                     bra        +0x32 /* 000057C4 */
label00005794:
00005794  0C46 00B1                cmpi.w     D6, 0xB1
00005798  660C                     bne        +0xE /* 000057A6 */
0000579A  3F3C FFFB                move.w     -[A7], 0xFFFB
0000579E  4EBA EA82                jsr        [PC - 0x157E /* 00004222 */]
000057A2  548F                     addq.l     A7, 2
000057A4  601E                     bra        +0x20 /* 000057C4 */
label000057A6:
000057A6  4A2D B951                tst.b      [A5 - 0x46AF]
000057AA  57C0                     seq        D0
000057AC  4400                     neg.b      D0
000057AE  4880                     ext.w      D0
000057B0  E548                     lsl        D0.w, 2
000057B2  0640 000B                addi.w     D0, 0xB
000057B6  916D BAF8                sub.w      [A5 - 0x4508], D0
000057BA  3F3C 0005                move.w     -[A7], 0x5
000057BE  4EBA EA62                jsr        [PC - 0x159E /* 00004222 */]
000057C2  548F                     addq.l     A7, 2
label000057C4:
000057C4  4A2D B951                tst.b      [A5 - 0x46AF]
000057C8  660E                     bne        +0x10 /* 000057D8 */
000057CA  3B7C 0002 BAF2           move.w     [A5 - 0x450E], 0x2
000057D0  3B7C 00DA BAF4           move.w     [A5 - 0x450C], 0xDA
000057D6  600C                     bra        +0xE /* 000057E4 */
label000057D8:
000057D8  3B7C 0005 BAF2           move.w     [A5 - 0x450E], 0x5
000057DE  3B7C 0001 BAF4           move.w     [A5 - 0x450C], 0x1
label000057E4:
000057E4  4EBA ED7E                jsr        [PC - 0x1282 /* 00004564 */]
000057E8  1F3C 0005                move.b     -[A7], 0x5
000057EC  4EAD 051A                jsr        [A5 + 0x51A /* export_159, CODE:4 @ 000057F4 */]
000057F0  4EBA FF1A                jsr        [PC - 0xE6 /* 0000570C */]
000057F4  548F                     addq.l     A7, 2
label000057F6:
000057F6  4CDF 00C0                movem.l    D6,D7, [A7]+
000057FA  4E75                     rts
fn000057FC:
000057FC  0C6D 000C A90C           cmpi.w     [A5 - 0x56F4], 0xC
00005802  6634                     bne        +0x36 /* 00005838 */
00005804  102D B963                move.b     D0, [A5 - 0x469D]
00005808  4880                     ext.w      D0
0000580A  122D B951                move.b     D1, [A5 - 0x46AF]
0000580E  4881                     ext.w      D1
00005810  8041                     or.w       D0, D1
00005812  5340                     subq.w     D0, 1
00005814  6622                     bne        +0x24 /* 00005838 */
00005816  4A2D B953                tst.b      [A5 - 0x46AD]
0000581A  6C1C                     bge        +0x1E /* 00005838 */
0000581C  4A2D B965                tst.b      [A5 - 0x469B]
00005820  6D16                     blt        +0x18 /* 00005838 */
00005822  3B7C 0007 BA18           move.w     [A5 - 0x45E8], 0x7
00005828  3B7C 0005 BA1A           move.w     [A5 - 0x45E6], 0x5
0000582E  3F3C 0064                move.w     -[A7], 0x64 /* 'd' */
00005832  4EBA EECE                jsr        [PC - 0x1132 /* 00004702 */]
00005836  548F                     addq.l     A7, 2
label00005838:
00005838  4E75                     rts
export_110:
0000583A  48E7 0108                movem.l    -[A7], D7,A4
0000583E  7E00                     moveq.l    D7, 0x00
00005840  1E2D B946                move.b     D7, [A5 - 0x46BA]
00005844  0C47 00E5                cmpi.w     D7, 0xE5
00005848  6D06                     blt        +0x8 /* 00005850 */
0000584A  0C47 00EE                cmpi.w     D7, 0xEE
0000584E  6D14                     blt        +0x16 /* 00005864 */
label00005850:
00005850  4A2D B952                tst.b      [A5 - 0x46AE]
00005854  660E                     bne        +0x10 /* 00005864 */
00005856  0C2D 0002 B951           cmpi.b     [A5 - 0x46AF], 0x2
0000585C  6660                     bne        +0x62 /* 000058BE */
0000585E  4A2D B953                tst.b      [A5 - 0x46AD]
00005862  6C5A                     bge        +0x5C /* 000058BE */
label00005864:
00005864  7E00                     moveq.l    D7, 0x00
00005866  1E2D B98F                move.b     D7, [A5 - 0x4671]
0000586A  0247 003F                andi.w     D7, 0x3F /* '?' */
0000586E  4A47                     tst.w      D7
00005870  674C                     beq        +0x4E /* 000058BE */
00005872  2007                     move.l     D0, D7
00005874  48C0                     ext.l      D0
00005876  E588                     lsl        D0, 2
00005878  49ED B334                lea.l      A4, [A5 - 0x4CCC]
0000587C  D08C                     add.l      D0, A4
0000587E  2840                     movea.l    A4, D0
00005880  7000                     moveq.l    D0, 0x00
00005882  1014                     move.b     D0, [A4]
00005884  3B40 BAF4                move.w     [A5 - 0x450C], D0
00005888  0C40 00FF                cmpi.w     D0, 0xFF
0000588C  6730                     beq        +0x32 /* 000058BE */
0000588E  3F2D BAF6                move.w     -[A7], [A5 - 0x450A]
00005892  4EAD 052A                jsr        [A5 + 0x52A /* export_161, CODE:4 @ 000059A0 */]
00005896  3B40 BAF6                move.w     [A5 - 0x450A], D0
0000589A  122C 0001                move.b     D1, [A4 + 0x1]
0000589E  4881                     ext.w      D1
000058A0  3E81                     move.w     [A7], D1
000058A2  4EBA E97E                jsr        [PC - 0x1682 /* 00004222 */]
000058A6  102C 0002                move.b     D0, [A4 + 0x2]
000058AA  4880                     ext.w      D0
000058AC  D16D BAF8                add.w      [A5 - 0x4508], D0
000058B0  426D BAF2                clr.w      [A5 - 0x450E]
000058B4  1EBC 0003                move.b     [A7], 0x3
000058B8  4EAD 051A                jsr        [A5 + 0x51A /* export_159, CODE:4 @ 000057F4 */]
000058BC  548F                     addq.l     A7, 2
label000058BE:
000058BE  4CDF 1080                movem.l    D7,A4, [A7]+
000058C2  4E75                     rts
export_111:
000058C4  0C2D 00A6 B946           cmpi.b     [A5 - 0x46BA], 0xA6
000058CA  6622                     bne        +0x24 /* 000058EE */
000058CC  4A2D BAAD                tst.b      [A5 - 0x4553]
000058D0  6C1C                     bge        +0x1E /* 000058EE */
000058D2  4A2D BAAA                tst.b      [A5 - 0x4556]
000058D6  6C06                     bge        +0x8 /* 000058DE */
000058D8  4EAD 0572                jsr        [A5 + 0x572 /* export_170, CODE:4 @ 00000CD4 */]
000058DC  6010                     bra        +0x12 /* 000058EE */
label000058DE:
000058DE  1B7C 0001 BAAD           move.b     [A5 - 0x4553], 0x1
000058E4  3F3C 0050                move.w     -[A7], 0x50 /* 'P' */
000058E8  4EAD 0552                jsr        [A5 + 0x552 /* export_166, CODE:4 @ 00000000 */]
000058EC  548F                     addq.l     A7, 2
label000058EE:
000058EE  4E75                     rts
export_112:
fn000058F0:
000058F0  2F07                     move.l     -[A7], D7
000058F2  102D B94F                move.b     D0, [A5 - 0x46B1]
000058F6  B02D B961                cmp.b      D0, [A5 - 0x469F]
000058FA  6706                     beq        +0x8 /* 00005902 */
000058FC  303C 03E7                move.w     D0, 0x3E7
00005900  602A                     bra        +0x2C /* 0000592C */
label00005902:
00005902  7000                     moveq.l    D0, 0x00
00005904  102D B947                move.b     D0, [A5 - 0x46B9]
00005908  7E00                     moveq.l    D7, 0x00
0000590A  1E2D B959                move.b     D7, [A5 - 0x46A7]
0000590E  9E40                     sub.w      D7, D0
00005910  4A2D B949                tst.b      [A5 - 0x46B7]
00005914  6C02                     bge        +0x4 /* 00005918 */
00005916  4447                     neg.w      D7
label00005918:
00005918  4A47                     tst.w      D7
0000591A  6D0E                     blt        +0x10 /* 0000592A */
0000591C  102D B949                move.b     D0, [A5 - 0x46B7]
00005920  B02D B95B                cmp.b      D0, [A5 - 0x46A5]
00005924  6704                     beq        +0x6 /* 0000592A */
00005926  0647 000D                addi.w     D7, 0xD /* '\r' */
label0000592A:
0000592A  3007                     move.w     D0, D7
label0000592C:
0000592C  2E1F                     move.l     D7, [A7]+
0000592E  4E75                     rts
export_113:
fn00005930:
00005930  522D B94B                addq.b     [A5 - 0x46B5], 1
00005934  4E75                     rts
