# near model CODE resource
# jump table entries: 488-494 (7 of them)
export_67:
00000000  4E56 0000                link       A6, 0
00000004  41F8 0174                lea.l      A0, [0x00000174 /* KeyMap */]
00000008  4280                     clr.l      D0
0000000A  302D F7B6                move.w     D0, [A5 - 0x84A]
0000000E  3200                     move.w     D1, D0
00000010  E680                     asr        D0, 3
00000012  4641                     not.w      D1
00000014  0330 0800                btst       [A0 + D0], D1
00000018  6724                     beq        +0x26 /* 0000003E */
0000001A  3F2E 0008                move.w     -[A7], [A6 + 0x8]
0000001E  4EAD 00DA                jsr        [A5 + 0xDA /* export_23, CODE:3 @ 0000249C */]
00000022  48E7 E0E0                movem.l    -[A7], D0,D1,D2,A0,A1,A2
00000026  2F2D F8C8                move.l     -[A7], [A5 - 0x738]
0000002A  3F3C 0001                move.w     -[A7], 0x1
0000002E  3F2E 0008                move.w     -[A7], [A6 + 0x8]
00000032  486D 023A                pea.l      [A5 + 0x23A /* export_67, CODE:7 @ 00000000 */]
00000036  4EAD 00E2                jsr        [A5 + 0xE2 /* export_24, CODE:3 @ 00002586 */]
0000003A  4CDF 0707                movem.l    D0,D1,D2,A0,A1,A2, [A7]+
label0000003E:
0000003E  4E5E                     unlink     A6
00000040  205F                     movea.l    A0, [A7]+
00000042  548F                     addq.l     A7, 2
00000044  4ED0                     jmp        [A0]
export_65:
fn00000046:
00000046  48E7 FFFE                movem.l    -[A7], D0,D1,D2,D3,D4,D5,D6,D7,A0,A1,A2,A3,A4,A5,A6
0000004A  4A6D F7C6                tst.w      [A5 - 0x83A]
0000004E  6700 19F0                beq        +0x19F2 /* 00001A40 */
00000052  4A6D F7BA                tst.w      [A5 - 0x846]
00000056  6600 19E8                bne        +0x19EA /* 00001A40 */
0000005A  4A6D F7E2                tst.w      [A5 - 0x81E]
0000005E  671C                     beq        +0x1E /* 0000007C */
00000060  202D F7BE                move.l     D0, [A5 - 0x842]
00000064  2238 016A                move.l     D1, [0x0000016A /* Ticks */]
00000068  9280                     sub.l      D1, D0
0000006A  0C81 0000 0002           cmpi.l     D1, 0x2
00000070  6D0A                     blt        +0xC /* 0000007C */
00000072  2B78 016A F7BE           move.l     [A5 - 0x842], [0x0000016A /* Ticks */]
00000078  4EBA 136C                jsr        [PC + 0x136C /* 000013E6 */]
label0000007C:
0000007C  47ED F234                lea.l      A3, [A5 - 0xDCC]
00000080  2C6D F3D8                movea.l    A6, [A5 - 0xC28]
00000084  207C 0000 0000           movea.l    A0, 0x0
0000008A  306D F3DC                movea.w    A0, [A5 - 0xC24]
0000008E  3E2D F7C6                move.w     D7, [A5 - 0x83A]
00000092  5347                     subq.w     D7, 1
00000094  70FF                     moveq.l    D0, 0xFFFFFFFF
00000096  2200                     move.l     D1, D0
00000098  2400                     move.l     D2, D0
0000009A  2600                     move.l     D3, D0
0000009C  2800                     move.l     D4, D0
0000009E  2A00                     move.l     D5, D0
000000A0  2C00                     move.l     D6, D0
label000000A2:
000000A2  2F07                     move.l     -[A7], D7
000000A4  E547                     asl        D7.w, 2
000000A6  2873 7000                movea.l    A4, [A3 + D7.w]
000000AA  B9FC 0000 0000           cmpa.l     A4, 0x0
000000B0  672C                     beq        +0x2E /* 000000DE */
000000B2  3E2C 0010                move.w     D7, [A4 + 0x10]
000000B6  E847                     asr        D7.w, 4
000000B8  E547                     asl        D7.w, 2
000000BA  2276 7000                movea.l    A1, [A6 + D7.w]
000000BE  3E2C 000E                move.w     D7, [A4 + 0xE]
000000C2  E847                     asr        D7.w, 4
000000C4  D2C7                     add.w      A1, D7
000000C6  2E00                     move.l     D7, D0
000000C8  2448                     movea.l    A2, A0
000000CA  286C 0020                movea.l    A4, [A4 + 0x20]
000000CE  4A6C 0002                tst.w      [A4 + 0x2]
000000D2  6606                     bne        +0x8 /* 000000DA */
000000D4  4EBA 16A8                jsr        [PC + 0x16A8 /* 0000177E */]
000000D8  6004                     bra        +0x6 /* 000000DE */
label000000DA:
000000DA  4EBA 176C                jsr        [PC + 0x176C /* 00001848 */]
label000000DE:
000000DE  2E1F                     move.l     D7, [A7]+
000000E0  51CF FFC0                dbf        D7, -0x42 /* 000000A2 */
000000E4  3C2D F7C6                move.w     D6, [A5 - 0x83A]
000000E8  5346                     subq.w     D6, 1
000000EA  4285                     clr.l      D5
000000EC  3A2D F3DC                move.w     D5, [A5 - 0xC24]
label000000F0:
000000F0  3006                     move.w     D0, D6
000000F2  E540                     asl        D0.w, 2
000000F4  2873 0000                movea.l    A4, [A3 + D0.w]
000000F8  B9FC 0000 0000           cmpa.l     A4, 0x0
000000FE  6700 0098                beq        +0x9A /* 00000198 */
00000102  4EBA 0108                jsr        [PC + 0x108 /* 0000020C */]
00000106  0C54 0001                cmpi.w     [A4], 0x1
0000010A  670C                     beq        +0xE /* 00000118 */
0000010C  4A54                     tst.w      [A4]
0000010E  6700 0088                beq        +0x8A /* 00000198 */
00000112  5254                     addq.w     [A4], 1
00000114  6000 0082                bra        +0x84 /* 00000198 */
label00000118:
00000118  322C 0010                move.w     D1, [A4 + 0x10]
0000011C  E841                     asr        D1.w, 4
0000011E  E541                     asl        D1.w, 2
00000120  2076 1000                movea.l    A0, [A6 + D1.w]
00000124  322C 000E                move.w     D1, [A4 + 0xE]
00000128  E841                     asr        D1.w, 4
0000012A  D0C1                     add.w      A0, D1
0000012C  48E7 0618                movem.l    -[A7], D5,D6,A3,A4
00000130  0C6C FFFF 001C           cmpi.w     [A4 + 0x1C], 0xFFFF
00000136  6726                     beq        +0x28 /* 0000015E */
00000138  302C 001E                move.w     D0, [A4 + 0x1E]
0000013C  5240                     addq.w     D0, 1
0000013E  3940 001E                move.w     [A4 + 0x1E], D0
00000142  B06C 001C                cmp.w      D0, [A4 + 0x1C]
00000146  6D16                     blt        +0x18 /* 0000015E */
00000148  426C 001E                clr.w      [A4 + 0x1E]
0000014C  302C 001A                move.w     D0, [A4 + 0x1A]
00000150  5240                     addq.w     D0, 1
00000152  B06C 0018                cmp.w      D0, [A4 + 0x18]
00000156  6D02                     blt        +0x4 /* 0000015A */
00000158  4240                     clr.w      D0
label0000015A:
0000015A  3940 001A                move.w     [A4 + 0x1A], D0
label0000015E:
0000015E  302C 001A                move.w     D0, [A4 + 0x1A]
00000162  E540                     asl        D0.w, 2
00000164  246C 0020                movea.l    A2, [A4 + 0x20]
00000168  45EA 000C                lea.l      A2, [A2 + 0xC]
0000016C  D4C0                     add.w      A2, D0
0000016E  2452                     movea.l    A2, [A2]
00000170  266C 0020                movea.l    A3, [A4 + 0x20]
00000174  47EB 00FC                lea.l      A3, [A3 + 0xFC]
00000178  D6C0                     add.w      A3, D0
0000017A  2653                     movea.l    A3, [A3]
0000017C  286C 0020                movea.l    A4, [A4 + 0x20]
00000180  4A6C 0002                tst.w      [A4 + 0x2]
00000184  6708                     beq        +0xA /* 0000018E */
00000186  2845                     movea.l    A4, D5
00000188  4EBA 15C6                jsr        [PC + 0x15C6 /* 00001750 */]
0000018C  6006                     bra        +0x8 /* 00000194 */
label0000018E:
0000018E  2845                     movea.l    A4, D5
00000190  4EBA 1564                jsr        [PC + 0x1564 /* 000016F6 */]
label00000194:
00000194  4CDF 1860                movem.l    D5,D6,A3,A4, [A7]+
label00000198:
00000198  51CE FF56                dbf        D6, -0xAC /* 000000F0 */
0000019C  4A6D F7E2                tst.w      [A5 - 0x81E]
000001A0  675E                     beq        +0x60 /* 00000200 */
000001A2  4A6D F832                tst.w      [A5 - 0x7CE]
000001A6  6750                     beq        +0x52 /* 000001F8 */
000001A8  302D F61E                move.w     D0, [A5 - 0x9E2]
000001AC  E540                     asl        D0.w, 2
000001AE  2873 0000                movea.l    A4, [A3 + D0.w]
000001B2  322C 0010                move.w     D1, [A4 + 0x10]
000001B6  E841                     asr        D1.w, 4
000001B8  E541                     asl        D1.w, 2
000001BA  2076 1000                movea.l    A0, [A6 + D1.w]
000001BE  322C 000E                move.w     D1, [A4 + 0xE]
000001C2  E841                     asr        D1.w, 4
000001C4  D0C1                     add.w      A0, D1
000001C6  45FA 0042                lea.l      A2, [PC + 0x42 /* 0000020A, value 0x4A6D 'Jm', cstring "" */]
000001CA  4A52                     tst.w      [A2]
000001CC  6704                     beq        +0x6 /* 000001D2 */
000001CE  4252                     clr.w      [A2]
000001D0  6002                     bra        +0x4 /* 000001D4 */
label000001D2:
000001D2  5252                     addq.w     [A2], 1
label000001D4:
000001D4  303A 0034                move.w     D0, [PC + 0x34 /* 0000020A, value 0x0, cstring "" */]
000001D8  E540                     asl        D0.w, 2
000001DA  246D F8BC                movea.l    A2, [A5 - 0x744]
000001DE  45EA 000C                lea.l      A2, [A2 + 0xC]
000001E2  D4C0                     add.w      A2, D0
000001E4  2452                     movea.l    A2, [A2]
000001E6  266D F8BC                movea.l    A3, [A5 - 0x744]
000001EA  47EB 00FC                lea.l      A3, [A3 + 0xFC]
000001EE  D6C0                     add.w      A3, D0
000001F0  2653                     movea.l    A3, [A3]
000001F2  2845                     movea.l    A4, D5
000001F4  4EBA 1500                jsr        [PC + 0x1500 /* 000016F6 */]
label000001F8:
000001F8  4EBA 0604                jsr        [PC + 0x604 /* 000007FE */]
000001FC  4EBA 046C                jsr        [PC + 0x46C /* 0000066A */]
label00000200:
00000200  3B7C 0001 F7BA           move.w     [A5 - 0x846], 0x1
00000206  6000 1838                bra        +0x183A /* 00001A40 */
0000020A  0000 4A6D                ori.b      D0, 0x6D /* 'm' */
// begin alternate branch 0000020C-00000210
fn0000020C:
0000020C  4A6D F7E2                tst.w      [A5 - 0x81E]
// end alternate branch 0000020C-00000210
fn0000020C: // (misaligned)
0000020E  F7E2                     .invalid   <<F/7/3>>
00000210  6700 0104                beq        +0x106 /* 00000316 */
00000214  4AAD F84E                tst.l      [A5 - 0x7B2]
00000218  6722                     beq        +0x24 /* 0000023C */
0000021A  0CAC 7368 6970 0002      cmpi.l     [A4 + 0x2], 0x73686970 /* 'ship' */
00000222  6718                     beq        +0x1A /* 0000023C */
00000224  0CAC 7468 7275 0002      cmpi.l     [A4 + 0x2], 0x74687275 /* 'thru' */
0000022C  670E                     beq        +0x10 /* 0000023C */
0000022E  0CAC 6578 706C 0002      cmpi.l     [A4 + 0x2], 0x6578706C /* 'expl' */
00000236  6704                     beq        +0x6 /* 0000023C */
00000238  6000 00DC                bra        +0xDE /* 00000316 */
label0000023C:
0000023C  0CAC 6261 6479 0002      cmpi.l     [A4 + 0x2], 0x62616479 /* 'bady' */
00000244  6604                     bne        +0x6 /* 0000024A */
00000246  4EBA 00D0                jsr        [PC + 0xD0 /* 00000318 */]
label0000024A:
0000024A  0CAC 686F 6D65 0002      cmpi.l     [A4 + 0x2], 0x686F6D65 /* 'home' */
00000252  6604                     bne        +0x6 /* 00000258 */
00000254  4EBA 0214                jsr        [PC + 0x214 /* 0000046A */]
label00000258:
00000258  0CAC 6772 6176 0002      cmpi.l     [A4 + 0x2], 0x67726176 /* 'grav' */
00000260  6604                     bne        +0x6 /* 00000266 */
00000262  4EBA 034A                jsr        [PC + 0x34A /* 000005AE */]
label00000266:
00000266  0CAC 7468 7275 0002      cmpi.l     [A4 + 0x2], 0x74687275 /* 'thru' */
0000026E  6604                     bne        +0x6 /* 00000274 */
00000270  4EBA 02A8                jsr        [PC + 0x2A8 /* 0000051A */]
label00000274:
00000274  302C 0010                move.w     D0, [A4 + 0x10]
00000278  3940 0014                move.w     [A4 + 0x14], D0
0000027C  302C 000E                move.w     D0, [A4 + 0xE]
00000280  3940 0012                move.w     [A4 + 0x12], D0
00000284  4A6D F836                tst.w      [A5 - 0x7CA]
00000288  6734                     beq        +0x36 /* 000002BE */
0000028A  4267                     clr.w      -[A7]
0000028C  3F3C 0100                move.w     -[A7], 0x100
00000290  4EAD 02AA                jsr        [A5 + 0x2AA /* export_81, CODE:2 @ 00000154 */]
00000294  301F                     move.w     D0, [A7]+
00000296  4A6C 000A                tst.w      [A4 + 0xA]
0000029A  6D02                     blt        +0x4 /* 0000029E */
0000029C  4440                     neg.w      D0
label0000029E:
0000029E  D16C 000A                add.w      [A4 + 0xA], D0
000002A2  4267                     clr.w      -[A7]
000002A4  3F3C 0100                move.w     -[A7], 0x100
000002A8  4EAD 02AA                jsr        [A5 + 0x2AA /* export_81, CODE:2 @ 00000154 */]
000002AC  301F                     move.w     D0, [A7]+
000002AE  4A6C 000C                tst.w      [A4 + 0xC]
000002B2  6D02                     blt        +0x4 /* 000002B6 */
000002B4  4440                     neg.w      D0
label000002B6:
000002B6  D16C 000C                add.w      [A4 + 0xC], D0
000002BA  4EBA 131C                jsr        [PC + 0x131C /* 000015D8 */]
label000002BE:
000002BE  302C 000E                move.w     D0, [A4 + 0xE]
000002C2  D06C 000A                add.w      D0, [A4 + 0xA]
000002C6  2200                     move.l     D1, D0
000002C8  E840                     asr        D0.w, 4
000002CA  B06D F222                cmp.w      D0, [A5 - 0xDDE]
000002CE  6C08                     bge        +0xA /* 000002D8 */
000002D0  302D F226                move.w     D0, [A5 - 0xDDA]
000002D4  2200                     move.l     D1, D0
000002D6  E941                     asl        D1.w, 4
label000002D8:
000002D8  B06D F226                cmp.w      D0, [A5 - 0xDDA]
000002DC  6F08                     ble        +0xA /* 000002E6 */
000002DE  302D F222                move.w     D0, [A5 - 0xDDE]
000002E2  2200                     move.l     D1, D0
000002E4  E941                     asl        D1.w, 4
label000002E6:
000002E6  3941 000E                move.w     [A4 + 0xE], D1
000002EA  302C 0010                move.w     D0, [A4 + 0x10]
000002EE  D06C 000C                add.w      D0, [A4 + 0xC]
000002F2  2200                     move.l     D1, D0
000002F4  E840                     asr        D0.w, 4
000002F6  B06D F220                cmp.w      D0, [A5 - 0xDE0]
000002FA  6C08                     bge        +0xA /* 00000304 */
000002FC  302D F224                move.w     D0, [A5 - 0xDDC]
00000300  2200                     move.l     D1, D0
00000302  E941                     asl        D1.w, 4
label00000304:
00000304  B06D F224                cmp.w      D0, [A5 - 0xDDC]
00000308  6F08                     ble        +0xA /* 00000312 */
0000030A  302D F220                move.w     D0, [A5 - 0xDE0]
0000030E  2200                     move.l     D1, D0
00000310  E941                     asl        D1.w, 4
label00000312:
00000312  3941 0010                move.w     [A4 + 0x10], D1
label00000316:
00000316  4E75                     rts
fn00000318:
00000318  48E7 F83E                movem.l    -[A7], D0,D1,D2,D3,D4,A2,A3,A4,A5,A6
0000031C  302D F61E                move.w     D0, [A5 - 0x9E2]
00000320  E540                     asl        D0.w, 2
00000322  2473 0000                movea.l    A2, [A3 + D0.w]
00000326  302A 0010                move.w     D0, [A2 + 0x10]
0000032A  322C 0010                move.w     D1, [A4 + 0x10]
0000032E  9041                     sub.w      D0, D1
00000330  3200                     move.w     D1, D0
00000332  302A 000E                move.w     D0, [A2 + 0xE]
00000336  342C 000E                move.w     D2, [A4 + 0xE]
0000033A  9042                     sub.w      D0, D2
0000033C  3400                     move.w     D2, D0
0000033E  3602                     move.w     D3, D2
00000340  3001                     move.w     D0, D1
00000342  4A40                     tst.w      D0
00000344  6C02                     bge        +0x4 /* 00000348 */
00000346  4440                     neg.w      D0
label00000348:
00000348  4A43                     tst.w      D3
0000034A  6C02                     bge        +0x4 /* 0000034E */
0000034C  4443                     neg.w      D3
label0000034E:
0000034E  9640                     sub.w      D3, D0
00000350  4A41                     tst.w      D1
00000352  6C1A                     bge        +0x1C /* 0000036E */
00000354  4A42                     tst.w      D2
00000356  6C0C                     bge        +0xE /* 00000364 */
00000358  303C 0006                move.w     D0, 0x6
0000035C  4A43                     tst.w      D3
0000035E  6C28                     bge        +0x2A /* 00000388 */
00000360  5240                     addq.w     D0, 1
00000362  6024                     bra        +0x26 /* 00000388 */
label00000364:
00000364  4240                     clr.w      D0
00000366  4A43                     tst.w      D3
00000368  6F1E                     ble        +0x20 /* 00000388 */
0000036A  5240                     addq.w     D0, 1
0000036C  601A                     bra        +0x1C /* 00000388 */
label0000036E:
0000036E  4A42                     tst.w      D2
00000370  6C0C                     bge        +0xE /* 0000037E */
00000372  303C 0004                move.w     D0, 0x4
00000376  4A43                     tst.w      D3
00000378  6F0E                     ble        +0x10 /* 00000388 */
0000037A  5240                     addq.w     D0, 1
0000037C  600A                     bra        +0xC /* 00000388 */
label0000037E:
0000037E  303C 0002                move.w     D0, 0x2
00000382  4A43                     tst.w      D3
00000384  6C02                     bge        +0x4 /* 00000388 */
00000386  5240                     addq.w     D0, 1
label00000388:
00000388  C0FC 0006                mulu.w     D0, 0x6
0000038C  3800                     move.w     D4, D0
0000038E  4267                     clr.w      -[A7]
00000390  3F3C 0006                move.w     -[A7], 0x6
00000394  4EAD 02AA                jsr        [A5 + 0x2AA /* export_81, CODE:2 @ 00000154 */]
00000398  301F                     move.w     D0, [A7]+
0000039A  D840                     add.w      D4, D0
0000039C  302D F856                move.w     D0, [A5 - 0x7AA]
000003A0  3B44 F856                move.w     [A5 - 0x7AA], D4
000003A4  D840                     add.w      D4, D0
000003A6  E244                     asr        D4.w, 1
000003A8  397C 001E 000A           move.w     [A4 + 0xA], 0x1E
000003AE  4267                     clr.w      -[A7]
000003B0  3F3C 0064                move.w     -[A7], 0x64 /* 'd' */
000003B4  4EAD 02AA                jsr        [A5 + 0x2AA /* export_81, CODE:2 @ 00000154 */]
000003B8  301F                     move.w     D0, [A7]+
000003BA  4A40                     tst.w      D0
000003BC  670E                     beq        +0x10 /* 000003CC */
000003BE  0C40 0001                cmpi.w     D0, 0x1
000003C2  6710                     beq        +0x12 /* 000003D4 */
000003C4  0C40 0007                cmpi.w     D0, 0x7
000003C8  6D12                     blt        +0x14 /* 000003DC */
000003CA  6014                     bra        +0x16 /* 000003E0 */
label000003CC:
000003CC  397C 001E 000C           move.w     [A4 + 0xC], 0x1E
000003D2  600C                     bra        +0xE /* 000003E0 */
label000003D4:
000003D4  397C FFE2 000C           move.w     [A4 + 0xC], 0xFFE2
000003DA  6004                     bra        +0x6 /* 000003E0 */
label000003DC:
000003DC  426C 000C                clr.w      [A4 + 0xC]
label000003E0:
000003E0  303C 000F                move.w     D0, 0xF
000003E4  0CAC 736D 616C 0006      cmpi.l     [A4 + 0x6], 0x736D616C /* 'smal' */
000003EC  6704                     beq        +0x6 /* 000003F2 */
000003EE  303C 001E                move.w     D0, 0x1E
label000003F2:
000003F2  4267                     clr.w      -[A7]
000003F4  3F00                     move.w     -[A7], D0
000003F6  4EAD 02AA                jsr        [A5 + 0x2AA /* export_81, CODE:2 @ 00000154 */]
000003FA  301F                     move.w     D0, [A7]+
000003FC  4A40                     tst.w      D0
000003FE  6662                     bne        +0x64 /* 00000462 */
00000400  202D F852                move.l     D0, [A5 - 0x7AE]
00000404  222D F784                move.l     D1, [A5 - 0x87C]
00000408  9280                     sub.l      D1, D0
0000040A  0C81 0000 000A           cmpi.l     D1, 0xA /* '\n' */
00000410  6D50                     blt        +0x52 /* 00000462 */
00000412  302D F856                move.w     D0, [A5 - 0x7AA]
00000416  3F2C 001A                move.w     -[A7], [A4 + 0x1A]
0000041A  3F2C 000A                move.w     -[A7], [A4 + 0xA]
0000041E  3F2C 000C                move.w     -[A7], [A4 + 0xC]
00000422  3940 001A                move.w     [A4 + 0x1A], D0
00000426  2B6D F784 F852           move.l     [A5 - 0x7AE], [A5 - 0x87C]
0000042C  4240                     clr.w      D0
0000042E  4DED F620                lea.l      A6, [A5 - 0x9E0]
00000432  4EBA 1206                jsr        [PC + 0x1206 /* 0000163A */]
00000436  301F                     move.w     D0, [A7]+
00000438  3940 000C                move.w     [A4 + 0xC], D0
0000043C  301F                     move.w     D0, [A7]+
0000043E  3940 000A                move.w     [A4 + 0xA], D0
00000442  301F                     move.w     D0, [A7]+
00000444  3940 001A                move.w     [A4 + 0x1A], D0
00000448  4A40                     tst.w      D0
0000044A  6716                     beq        +0x18 /* 00000462 */
0000044C  48E7 E0E0                movem.l    -[A7], D0,D1,D2,A0,A1,A2
00000450  2F2D F950                move.l     -[A7], [A5 - 0x6B0]
00000454  3F3C 0002                move.w     -[A7], 0x2
00000458  42A7                     clr.l      -[A7]
0000045A  4EAD 00BA                jsr        [A5 + 0xBA /* export_19, CODE:3 @ 00001E74 */]
0000045E  4CDF 0707                movem.l    D0,D1,D2,A0,A1,A2, [A7]+
label00000462:
00000462  4CDF 7C1F                movem.l    D0,D1,D2,D3,D4,A2,A3,A4,A5,A6, [A7]+
00000466  4E75                     rts
00000468  0000 302D                ori.b      D0, 0x2D /* '-' */
// begin alternate branch 0000046A-00000470
fn0000046A:
0000046A  302D F61E                move.w     D0, [A5 - 0x9E2]
0000046E  E540                     asl        D0.w, 2
// end alternate branch 0000046A-00000470
fn0000046A: // (misaligned)
0000046C  F61E E540                .move16    0xF61E, 0xE540 // unimplemented
00000470  2073 0000                movea.l    A0, [A3 + D0.w]
00000474  302C 0010                move.w     D0, [A4 + 0x10]
00000478  E840                     asr        D0.w, 4
0000047A  0640 0010                addi.w     D0, 0x10
0000047E  3228 0010                move.w     D1, [A0 + 0x10]
00000482  E841                     asr        D1.w, 4
00000484  0641 0010                addi.w     D1, 0x10
00000488  B240                     cmp.w      D1, D0
0000048A  6E06                     bgt        +0x8 /* 00000492 */
0000048C  5D6C 000C                subq.w     [A4 + 0xC], 6
00000490  6004                     bra        +0x6 /* 00000496 */
label00000492:
00000492  5C6C 000C                addq.w     [A4 + 0xC], 6
label00000496:
00000496  302C 000E                move.w     D0, [A4 + 0xE]
0000049A  E840                     asr        D0.w, 4
0000049C  0640 0010                addi.w     D0, 0x10
000004A0  3228 000E                move.w     D1, [A0 + 0xE]
000004A4  E841                     asr        D1.w, 4
000004A6  0641 0010                addi.w     D1, 0x10
000004AA  B240                     cmp.w      D1, D0
000004AC  6E06                     bgt        +0x8 /* 000004B4 */
000004AE  5D6C 000A                subq.w     [A4 + 0xA], 6
000004B2  6004                     bra        +0x6 /* 000004B8 */
label000004B4:
000004B4  5C6C 000A                addq.w     [A4 + 0xA], 6
label000004B8:
000004B8  302C 000C                move.w     D0, [A4 + 0xC]
000004BC  6D14                     blt        +0x16 /* 000004D2 */
000004BE  E840                     asr        D0.w, 4
000004C0  0C40 0008                cmpi.w     D0, 0x8
000004C4  6D22                     blt        +0x24 /* 000004E8 */
000004C6  303C 0008                move.w     D0, 0x8
000004CA  E940                     asl        D0.w, 4
000004CC  3940 000C                move.w     [A4 + 0xC], D0
000004D0  6016                     bra        +0x18 /* 000004E8 */
label000004D2:
000004D2  4440                     neg.w      D0
000004D4  E840                     asr        D0.w, 4
000004D6  0C40 0008                cmpi.w     D0, 0x8
000004DA  6D0C                     blt        +0xE /* 000004E8 */
000004DC  303C 0008                move.w     D0, 0x8
000004E0  E940                     asl        D0.w, 4
000004E2  4440                     neg.w      D0
000004E4  3940 000C                move.w     [A4 + 0xC], D0
label000004E8:
000004E8  302C 000A                move.w     D0, [A4 + 0xA]
000004EC  6D14                     blt        +0x16 /* 00000502 */
000004EE  E840                     asr        D0.w, 4
000004F0  0C40 0008                cmpi.w     D0, 0x8
000004F4  6D22                     blt        +0x24 /* 00000518 */
000004F6  303C 0008                move.w     D0, 0x8
000004FA  E940                     asl        D0.w, 4
000004FC  3940 000A                move.w     [A4 + 0xA], D0
00000500  6016                     bra        +0x18 /* 00000518 */
label00000502:
00000502  4440                     neg.w      D0
00000504  E840                     asr        D0.w, 4
00000506  0C40 0008                cmpi.w     D0, 0x8
0000050A  6D0C                     blt        +0xE /* 00000518 */
0000050C  303C 0008                move.w     D0, 0x8
00000510  E940                     asl        D0.w, 4
00000512  4440                     neg.w      D0
00000514  3940 000A                move.w     [A4 + 0xA], D0
label00000518:
00000518  4E75                     rts
fn0000051A:
0000051A  4A6D F836                tst.w      [A5 - 0x7CA]
0000051E  6600 0088                bne        +0x8A /* 000005A8 */
00000522  4A6D F3C8                tst.w      [A5 - 0xC38]
00000526  6700 0080                beq        +0x82 /* 000005A8 */
0000052A  302D F61E                move.w     D0, [A5 - 0x9E2]
0000052E  E540                     asl        D0.w, 2
00000530  2073 0000                movea.l    A0, [A3 + D0.w]
00000534  0CA8 6465 6164 0006      cmpi.l     [A0 + 0x6], 0x64656164 /* 'dead' */
0000053C  676A                     beq        +0x6C /* 000005A8 */
0000053E  43ED F49E                lea.l      A1, [A5 - 0xB62]
00000542  3028 001A                move.w     D0, [A0 + 0x1A]
00000546  E540                     asl        D0.w, 2
00000548  D2C0                     add.w      A1, D0
0000054A  3028 000E                move.w     D0, [A0 + 0xE]
0000054E  D069 0002                add.w      D0, [A1 + 0x2]
00000552  3940 000E                move.w     [A4 + 0xE], D0
00000556  3028 0010                move.w     D0, [A0 + 0x10]
0000055A  D051                     add.w      D0, [A1]
0000055C  3940 0010                move.w     [A4 + 0x10], D0
00000560  3028 000A                move.w     D0, [A0 + 0xA]
00000564  3940 000A                move.w     [A4 + 0xA], D0
00000568  3028 000C                move.w     D0, [A0 + 0xC]
0000056C  3940 000C                move.w     [A4 + 0xC], D0
00000570  3028 001A                move.w     D0, [A0 + 0x1A]
00000574  3940 001A                move.w     [A4 + 0x1A], D0
00000578  41FA 0032                lea.l      A0, [PC + 0x32 /* 000005AC, value 0x302D '0-', cstring "" */]
0000057C  3010                     move.w     D0, [A0]
0000057E  5240                     addq.w     D0, 1
00000580  3080                     move.w     [A0], D0
00000582  0C40 0001                cmpi.w     D0, 0x1
00000586  661A                     bne        +0x1C /* 000005A2 */
00000588  4250                     clr.w      [A0]
0000058A  202C 0020                move.l     D0, [A4 + 0x20]
0000058E  B0AD F8C0                cmp.l      D0, [A5 - 0x740]
00000592  6708                     beq        +0xA /* 0000059C */
00000594  296D F8C0 0020           move.l     [A4 + 0x20], [A5 - 0x740]
0000059A  6006                     bra        +0x8 /* 000005A2 */
label0000059C:
0000059C  296D F8C4 0020           move.l     [A4 + 0x20], [A5 - 0x73C]
label000005A2:
000005A2  38BC 0001                move.w     [A4], 0x1
000005A6  4E75                     rts
label000005A8:
000005A8  4254                     clr.w      [A4]
000005AA  4E75                     rts
000005AC  0000 302D                ori.b      D0, 0x2D /* '-' */
// begin alternate branch 000005AE-000005B4
fn000005AE:
000005AE  302D F61E                move.w     D0, [A5 - 0x9E2]
000005B2  E540                     asl        D0.w, 2
// end alternate branch 000005AE-000005B4
fn000005AE: // (misaligned)
000005B0  F61E E540                .move16    0xF61E, 0xE540 // unimplemented
000005B4  2073 0000                movea.l    A0, [A3 + D0.w]
000005B8  0CA8 6465 6164 0006      cmpi.l     [A0 + 0x6], 0x64656164 /* 'dead' */
000005C0  6700 00A6                beq        +0xA8 /* 00000668 */
000005C4  302C 0010                move.w     D0, [A4 + 0x10]
000005C8  E840                     asr        D0.w, 4
000005CA  0640 0010                addi.w     D0, 0x10
000005CE  3228 0010                move.w     D1, [A0 + 0x10]
000005D2  E841                     asr        D1.w, 4
000005D4  0641 0010                addi.w     D1, 0x10
000005D8  B240                     cmp.w      D1, D0
000005DA  6E06                     bgt        +0x8 /* 000005E2 */
000005DC  5668 000C                addq.w     [A0 + 0xC], 3
000005E0  6004                     bra        +0x6 /* 000005E6 */
label000005E2:
000005E2  5768 000C                subq.w     [A0 + 0xC], 3
label000005E6:
000005E6  302C 000E                move.w     D0, [A4 + 0xE]
000005EA  E840                     asr        D0.w, 4
000005EC  0640 0010                addi.w     D0, 0x10
000005F0  3228 000E                move.w     D1, [A0 + 0xE]
000005F4  E841                     asr        D1.w, 4
000005F6  0641 0010                addi.w     D1, 0x10
000005FA  B240                     cmp.w      D1, D0
000005FC  6E06                     bgt        +0x8 /* 00000604 */
000005FE  5668 000A                addq.w     [A0 + 0xA], 3
00000602  6004                     bra        +0x6 /* 00000608 */
label00000604:
00000604  5768 000A                subq.w     [A0 + 0xA], 3
label00000608:
00000608  3028 000C                move.w     D0, [A0 + 0xC]
0000060C  6D14                     blt        +0x16 /* 00000622 */
0000060E  E840                     asr        D0.w, 4
00000610  0C40 0008                cmpi.w     D0, 0x8
00000614  6D22                     blt        +0x24 /* 00000638 */
00000616  303C 0008                move.w     D0, 0x8
0000061A  E940                     asl        D0.w, 4
0000061C  3140 000C                move.w     [A0 + 0xC], D0
00000620  6016                     bra        +0x18 /* 00000638 */
label00000622:
00000622  4440                     neg.w      D0
00000624  E840                     asr        D0.w, 4
00000626  0C40 0008                cmpi.w     D0, 0x8
0000062A  6D0C                     blt        +0xE /* 00000638 */
0000062C  303C 0008                move.w     D0, 0x8
00000630  E940                     asl        D0.w, 4
00000632  4440                     neg.w      D0
00000634  3140 000C                move.w     [A0 + 0xC], D0
label00000638:
00000638  3028 000A                move.w     D0, [A0 + 0xA]
0000063C  6D14                     blt        +0x16 /* 00000652 */
0000063E  E840                     asr        D0.w, 4
00000640  0C40 0008                cmpi.w     D0, 0x8
00000644  6D22                     blt        +0x24 /* 00000668 */
00000646  303C 0008                move.w     D0, 0x8
0000064A  E940                     asl        D0.w, 4
0000064C  3140 000A                move.w     [A0 + 0xA], D0
00000650  6016                     bra        +0x18 /* 00000668 */
label00000652:
00000652  4440                     neg.w      D0
00000654  E840                     asr        D0.w, 4
00000656  0C40 0008                cmpi.w     D0, 0x8
0000065A  6D0C                     blt        +0xE /* 00000668 */
0000065C  303C 0008                move.w     D0, 0x8
00000660  E940                     asl        D0.w, 4
00000662  4440                     neg.w      D0
00000664  3140 000A                move.w     [A0 + 0xA], D0
label00000668:
00000668  4E75                     rts
fn0000066A:
0000066A  4A6D F7E2                tst.w      [A5 - 0x81E]
0000066E  6700 018C                beq        +0x18E /* 000007FC */
00000672  4A6D F848                tst.w      [A5 - 0x7B8]
00000676  6700 0184                beq        +0x186 /* 000007FC */
0000067A  47ED F234                lea.l      A3, [A5 - 0xDCC]
0000067E  45ED F620                lea.l      A2, [A5 - 0x9E0]
00000682  302D F848                move.w     D0, [A5 - 0x7B8]
00000686  E540                     asl        D0.w, 2
00000688  2873 0000                movea.l    A4, [A3 + D0.w]
0000068C  3E2D F7C6                move.w     D7, [A5 - 0x83A]
00000690  5347                     subq.w     D7, 1
00000692  206C 0020                movea.l    A0, [A4 + 0x20]
00000696  41E8 0004                lea.l      A0, [A0 + 0x4]
0000069A  43FA 060C                lea.l      A1, [PC + 0x60C /* 00000CA8, value 0x0, cstring "" */]
0000069E  22D8                     move.l     [A1]+, [A0]+
000006A0  22D8                     move.l     [A1]+, [A0]+
000006A2  41FA 0604                lea.l      A0, [PC + 0x604 /* 00000CA8, value 0x0, cstring "" */]
000006A6  302C 000E                move.w     D0, [A4 + 0xE]
000006AA  E840                     asr        D0.w, 4
000006AC  D168 0002                add.w      [A0 + 0x2], D0
000006B0  D168 0006                add.w      [A0 + 0x6], D0
000006B4  302C 0010                move.w     D0, [A4 + 0x10]
000006B8  E840                     asr        D0.w, 4
000006BA  D150                     add.w      [A0], D0
000006BC  D168 0004                add.w      [A0 + 0x4], D0
label000006C0:
000006C0  3007                     move.w     D0, D7
000006C2  E540                     asl        D0.w, 2
000006C4  2C73 0000                movea.l    A6, [A3 + D0.w]
000006C8  2A0E                     move.l     D5, A6
000006CA  4A85                     tst.l      D5
000006CC  6700 012A                beq        +0x12C /* 000007F8 */
000006D0  206E 0020                movea.l    A0, [A6 + 0x20]
000006D4  41E8 0004                lea.l      A0, [A0 + 0x4]
000006D8  43FA 05D6                lea.l      A1, [PC + 0x5D6 /* 00000CB0, value 0x0, cstring "" */]
000006DC  22D8                     move.l     [A1]+, [A0]+
000006DE  22D8                     move.l     [A1]+, [A0]+
000006E0  41FA 05CE                lea.l      A0, [PC + 0x5CE /* 00000CB0, value 0x0, cstring "" */]
000006E4  302E 000E                move.w     D0, [A6 + 0xE]
000006E8  E840                     asr        D0.w, 4
000006EA  D168 0002                add.w      [A0 + 0x2], D0
000006EE  D168 0006                add.w      [A0 + 0x6], D0
000006F2  302E 0010                move.w     D0, [A6 + 0x10]
000006F6  E840                     asr        D0.w, 4
000006F8  D150                     add.w      [A0], D0
000006FA  D168 0004                add.w      [A0 + 0x4], D0
000006FE  BE6D F848                cmp.w      D7, [A5 - 0x7B8]
00000702  6700 00F4                beq        +0xF6 /* 000007F8 */
00000706  41FA 05A0                lea.l      A0, [PC + 0x5A0 /* 00000CA8, value 0x0, cstring "" */]
0000070A  43FA 05A4                lea.l      A1, [PC + 0x5A4 /* 00000CB0, value 0x0, cstring "" */]
0000070E  4EBA 05A8                jsr        [PC + 0x5A8 /* 00000CB8 */]
00000712  4A40                     tst.w      D0
00000714  6760                     beq        +0x62 /* 00000776 */
00000716  4EBA 0B82                jsr        [PC + 0xB82 /* 0000129A */]
0000071A  4A40                     tst.w      D0
0000071C  6758                     beq        +0x5A /* 00000776 */
0000071E  BE6D F61E                cmp.w      D7, [A5 - 0x9E2]
00000722  6648                     bne        +0x4A /* 0000076C */
00000724  0CAE 6465 6164 0006      cmpi.l     [A6 + 0x6], 0x64656164 /* 'dead' */
0000072C  6748                     beq        +0x4A /* 00000776 */
0000072E  4EBA 054A                jsr        [PC + 0x54A /* 00000C7A */]
00000732  4A40                     tst.w      D0
00000734  6640                     bne        +0x42 /* 00000776 */
00000736  4A6D F832                tst.w      [A5 - 0x7CE]
0000073A  663A                     bne        +0x3C /* 00000776 */
0000073C  2D7C 6465 6164 0006      move.l     [A6 + 0x6], 0x64656164 /* 'dead' */
00000744  3F2D F61E                move.w     -[A7], [A5 - 0x9E2]
00000748  4EBA 4B0E                jsr        [PC + 0x4B0E /* 00005258 */]
0000074C  544F                     addq.w     A7, 2
0000074E  2B6D F784 F7DE           move.l     [A5 - 0x822], [A5 - 0x87C]
00000754  48E7 E0E0                movem.l    -[A7], D0,D1,D2,A0,A1,A2
00000758  2F2D F8D8                move.l     -[A7], [A5 - 0x728]
0000075C  3F3C 0005                move.w     -[A7], 0x5
00000760  42A7                     clr.l      -[A7]
00000762  4EAD 00BA                jsr        [A5 + 0xBA /* export_19, CODE:3 @ 00001E74 */]
00000766  4CDF 0707                movem.l    D0,D1,D2,A0,A1,A2, [A7]+
0000076A  600A                     bra        +0xC /* 00000776 */
label0000076C:
0000076C  2F05                     move.l     -[A7], D5
0000076E  4285                     clr.l      D5
00000770  4EBA 057C                jsr        [PC + 0x57C /* 00000CEE */]
00000774  2A1F                     move.l     D5, [A7]+
label00000776:
00000776  3C3C 0012                move.w     D6, 0x12
0000077A  5346                     subq.w     D6, 1
0000077C  43FA 0532                lea.l      A1, [PC + 0x532 /* 00000CB0, value 0x0, cstring "" */]
label00000780:
00000780  3006                     move.w     D0, D6
00000782  E540                     asl        D0.w, 2
00000784  2C72 0000                movea.l    A6, [A2 + D0.w]
00000788  260E                     move.l     D3, A6
0000078A  0C56 0001                cmpi.w     [A6], 0x1
0000078E  6664                     bne        +0x66 /* 000007F4 */
00000790  41EE 0010                lea.l      A0, [A6 + 0x10]
00000794  4EBA 0522                jsr        [PC + 0x522 /* 00000CB8 */]
00000798  4A40                     tst.w      D0
0000079A  6758                     beq        +0x5A /* 000007F4 */
0000079C  BE6D F61E                cmp.w      D7, [A5 - 0x9E2]
000007A0  664E                     bne        +0x50 /* 000007F0 */
000007A2  3CBC FFFF                move.w     [A6], 0xFFFF
000007A6  2C45                     movea.l    A6, D5
000007A8  0CAE 6465 6164 0006      cmpi.l     [A6 + 0x6], 0x64656164 /* 'dead' */
000007B0  6742                     beq        +0x44 /* 000007F4 */
000007B2  4EBA 04C6                jsr        [PC + 0x4C6 /* 00000C7A */]
000007B6  4A40                     tst.w      D0
000007B8  66BC                     bne        -0x42 /* 00000776 */
000007BA  4A6D F832                tst.w      [A5 - 0x7CE]
000007BE  6634                     bne        +0x36 /* 000007F4 */
000007C0  2D7C 6465 6164 0006      move.l     [A6 + 0x6], 0x64656164 /* 'dead' */
000007C8  3F2D F61E                move.w     -[A7], [A5 - 0x9E2]
000007CC  4EBA 4A8A                jsr        [PC + 0x4A8A /* 00005258 */]
000007D0  544F                     addq.w     A7, 2
000007D2  2B6D F784 F7DE           move.l     [A5 - 0x822], [A5 - 0x87C]
000007D8  48E7 E0E0                movem.l    -[A7], D0,D1,D2,A0,A1,A2
000007DC  2F2D F8D8                move.l     -[A7], [A5 - 0x728]
000007E0  3F3C 0005                move.w     -[A7], 0x5
000007E4  42A7                     clr.l      -[A7]
000007E6  4EAD 00BA                jsr        [A5 + 0xBA /* export_19, CODE:3 @ 00001E74 */]
000007EA  4CDF 0707                movem.l    D0,D1,D2,A0,A1,A2, [A7]+
000007EE  6004                     bra        +0x6 /* 000007F4 */
label000007F0:
000007F0  4EBA 04FC                jsr        [PC + 0x4FC /* 00000CEE */]
label000007F4:
000007F4  51CE FF8A                dbf        D6, -0x78 /* 00000780 */
label000007F8:
000007F8  51CF FEC6                dbf        D7, -0x13C /* 000006C0 */
label000007FC:
000007FC  4E75                     rts
fn000007FE:
000007FE  4A6D F7E2                tst.w      [A5 - 0x81E]
00000802  6700 04A2                beq        +0x4A4 /* 00000CA6 */
00000806  47ED F234                lea.l      A3, [A5 - 0xDCC]
0000080A  45ED F668                lea.l      A2, [A5 - 0x998]
0000080E  302D F61E                move.w     D0, [A5 - 0x9E2]
00000812  E540                     asl        D0.w, 2
00000814  2873 0000                movea.l    A4, [A3 + D0.w]
00000818  3E2D F7C6                move.w     D7, [A5 - 0x83A]
0000081C  5347                     subq.w     D7, 1
0000081E  206C 0020                movea.l    A0, [A4 + 0x20]
00000822  41E8 0004                lea.l      A0, [A0 + 0x4]
00000826  43FA 0480                lea.l      A1, [PC + 0x480 /* 00000CA8, value 0x0, cstring "" */]
0000082A  22D8                     move.l     [A1]+, [A0]+
0000082C  22D8                     move.l     [A1]+, [A0]+
0000082E  41FA 0478                lea.l      A0, [PC + 0x478 /* 00000CA8, value 0x0, cstring "" */]
00000832  302C 000E                move.w     D0, [A4 + 0xE]
00000836  E840                     asr        D0.w, 4
00000838  D168 0002                add.w      [A0 + 0x2], D0
0000083C  D168 0006                add.w      [A0 + 0x6], D0
00000840  302C 0010                move.w     D0, [A4 + 0x10]
00000844  E840                     asr        D0.w, 4
00000846  D150                     add.w      [A0], D0
00000848  D168 0004                add.w      [A0 + 0x4], D0
label0000084C:
0000084C  3007                     move.w     D0, D7
0000084E  E540                     asl        D0.w, 2
00000850  2C73 0000                movea.l    A6, [A3 + D0.w]
00000854  2A0E                     move.l     D5, A6
00000856  4A85                     tst.l      D5
00000858  6700 040A                beq        +0x40C /* 00000C64 */
0000085C  206E 0020                movea.l    A0, [A6 + 0x20]
00000860  41E8 0004                lea.l      A0, [A0 + 0x4]
00000864  43FA 044A                lea.l      A1, [PC + 0x44A /* 00000CB0, value 0x0, cstring "" */]
00000868  22D8                     move.l     [A1]+, [A0]+
0000086A  22D8                     move.l     [A1]+, [A0]+
0000086C  41FA 0442                lea.l      A0, [PC + 0x442 /* 00000CB0, value 0x0, cstring "" */]
00000870  302E 000E                move.w     D0, [A6 + 0xE]
00000874  E840                     asr        D0.w, 4
00000876  D168 0002                add.w      [A0 + 0x2], D0
0000087A  D168 0006                add.w      [A0 + 0x6], D0
0000087E  302E 0010                move.w     D0, [A6 + 0x10]
00000882  E840                     asr        D0.w, 4
00000884  D150                     add.w      [A0], D0
00000886  D168 0004                add.w      [A0 + 0x4], D0
0000088A  4A6D F840                tst.w      [A5 - 0x7C0]
0000088E  670E                     beq        +0x10 /* 0000089E */
00000890  2F05                     move.l     -[A7], D5
00000892  4285                     clr.l      D5
00000894  4EBA 0458                jsr        [PC + 0x458 /* 00000CEE */]
00000898  2A1F                     move.l     D5, [A7]+
0000089A  6000 03C8                bra        +0x3CA /* 00000C64 */
label0000089E:
0000089E  0C56 0007                cmpi.w     [A6], 0x7
000008A2  6608                     bne        +0xA /* 000008AC */
000008A4  3F07                     move.w     -[A7], D7
000008A6  4EBA 3DEE                jsr        [PC + 0x3DEE /* 00004696 */]
000008AA  544F                     addq.w     A7, 2
label000008AC:
000008AC  0CAE 6261 6479 0002      cmpi.l     [A6 + 0x2], 0x62616479 /* 'bady' */
000008B4  6620                     bne        +0x22 /* 000008D6 */
000008B6  302E 000E                move.w     D0, [A6 + 0xE]
000008BA  E840                     asr        D0.w, 4
000008BC  322D F228                move.w     D1, [A5 - 0xDD8]
000008C0  0641 0020                addi.w     D1, 0x20 /* ' ' */
000008C4  B041                     cmp.w      D0, D1
000008C6  6D0E                     blt        +0x10 /* 000008D6 */
000008C8  426D F848                clr.w      [A5 - 0x7B8]
000008CC  0C56 0005                cmpi.w     [A6], 0x5
000008D0  6C04                     bge        +0x6 /* 000008D6 */
000008D2  3CBC 0005                move.w     [A6], 0x5
label000008D6:
000008D6  0CAE 7072 697A 0002      cmpi.l     [A6 + 0x2], 0x7072697A /* 'priz' */
000008DE  6634                     bne        +0x36 /* 00000914 */
000008E0  202D F806                move.l     D0, [A5 - 0x7FA]
000008E4  222D F784                move.l     D1, [A5 - 0x87C]
000008E8  9280                     sub.l      D1, D0
000008EA  0C81 0000 0258           cmpi.l     D1, 0x258
000008F0  6D22                     blt        +0x24 /* 00000914 */
000008F2  48E7 E0E0                movem.l    -[A7], D0,D1,D2,A0,A1,A2
000008F6  2F2D F948                move.l     -[A7], [A5 - 0x6B8]
000008FA  3F3C 0004                move.w     -[A7], 0x4
000008FE  42A7                     clr.l      -[A7]
00000900  4EAD 00BA                jsr        [A5 + 0xBA /* export_19, CODE:3 @ 00001E74 */]
00000904  4CDF 0707                movem.l    D0,D1,D2,A0,A1,A2, [A7]+
00000908  3F07                     move.w     -[A7], D7
0000090A  4EBA 494C                jsr        [PC + 0x494C /* 00005258 */]
0000090E  544F                     addq.w     A7, 2
00000910  6000 0352                bra        +0x354 /* 00000C64 */
label00000914:
00000914  0CAE 7468 7275 0002      cmpi.l     [A6 + 0x2], 0x74687275 /* 'thru' */
0000091C  6700 0346                beq        +0x348 /* 00000C64 */
00000920  0CAE 6D75 6C74 0002      cmpi.l     [A6 + 0x2], 0x6D756C74 /* 'mult' */
00000928  663A                     bne        +0x3C /* 00000964 */
0000092A  202D F7FA                move.l     D0, [A5 - 0x806]
0000092E  222D F784                move.l     D1, [A5 - 0x87C]
00000932  9280                     sub.l      D1, D0
00000934  0C81 0000 0168           cmpi.l     D1, 0x168
0000093A  6D00 02FA                blt        +0x2FC /* 00000C36 */
0000093E  0C56 0005                cmpi.w     [A6], 0x5
00000942  6C00 0320                bge        +0x322 /* 00000C64 */
00000946  48E7 E0E0                movem.l    -[A7], D0,D1,D2,A0,A1,A2
0000094A  2F2D F8F0                move.l     -[A7], [A5 - 0x710]
0000094E  3F3C 0004                move.w     -[A7], 0x4
00000952  42A7                     clr.l      -[A7]
00000954  4EAD 00BA                jsr        [A5 + 0xBA /* export_19, CODE:3 @ 00001E74 */]
00000958  4CDF 0707                movem.l    D0,D1,D2,A0,A1,A2, [A7]+
0000095C  3CBC 0005                move.w     [A6], 0x5
00000960  6000 0302                bra        +0x304 /* 00000C64 */
label00000964:
00000964  0CAE 6473 6870 0002      cmpi.l     [A6 + 0x2], 0x64736870 /* 'dshp' */
0000096C  6634                     bne        +0x36 /* 000009A2 */
0000096E  202D F824                move.l     D0, [A5 - 0x7DC]
00000972  222D F784                move.l     D1, [A5 - 0x87C]
00000976  9280                     sub.l      D1, D0
00000978  0C81 0000 0258           cmpi.l     D1, 0x258
0000097E  6D22                     blt        +0x24 /* 000009A2 */
00000980  48E7 E0E0                movem.l    -[A7], D0,D1,D2,A0,A1,A2
00000984  2F2D F8D8                move.l     -[A7], [A5 - 0x728]
00000988  3F3C 0005                move.w     -[A7], 0x5
0000098C  42A7                     clr.l      -[A7]
0000098E  4EAD 00BA                jsr        [A5 + 0xBA /* export_19, CODE:3 @ 00001E74 */]
00000992  4CDF 0707                movem.l    D0,D1,D2,A0,A1,A2, [A7]+
00000996  3F07                     move.w     -[A7], D7
00000998  4EBA 48BE                jsr        [PC + 0x48BE /* 00005258 */]
0000099C  544F                     addq.w     A7, 2
0000099E  6000 02C4                bra        +0x2C6 /* 00000C64 */
label000009A2:
000009A2  0CAE 626F 6E75 0002      cmpi.l     [A6 + 0x2], 0x626F6E75 /* 'bonu' */
000009AA  6644                     bne        +0x46 /* 000009F0 */
000009AC  202D F810                move.l     D0, [A5 - 0x7F0]
000009B0  222D F784                move.l     D1, [A5 - 0x87C]
000009B4  9280                     sub.l      D1, D0
000009B6  0C81 0000 0258           cmpi.l     D1, 0x258
000009BC  6D00 0278                blt        +0x27A /* 00000C36 */
000009C0  0C56 0005                cmpi.w     [A6], 0x5
000009C4  6C00 029E                bge        +0x2A0 /* 00000C64 */
000009C8  202D F8AC                move.l     D0, [A5 - 0x754]
000009CC  B0AE 0020                cmp.l      D0, [A6 + 0x20]
000009D0  6716                     beq        +0x18 /* 000009E8 */
000009D2  48E7 E0E0                movem.l    -[A7], D0,D1,D2,A0,A1,A2
000009D6  2F2D F8F0                move.l     -[A7], [A5 - 0x710]
000009DA  3F3C 0004                move.w     -[A7], 0x4
000009DE  42A7                     clr.l      -[A7]
000009E0  4EAD 00BA                jsr        [A5 + 0xBA /* export_19, CODE:3 @ 00001E74 */]
000009E4  4CDF 0707                movem.l    D0,D1,D2,A0,A1,A2, [A7]+
label000009E8:
000009E8  3CBC 0005                move.w     [A6], 0x5
000009EC  6000 0276                bra        +0x278 /* 00000C64 */
label000009F0:
000009F0  0CAE 6578 706C 0002      cmpi.l     [A6 + 0x2], 0x6578706C /* 'expl' */
000009F8  662A                     bne        +0x2C /* 00000A24 */
000009FA  302E 001A                move.w     D0, [A6 + 0x1A]
000009FE  322E 0018                move.w     D1, [A6 + 0x18]
00000A02  5341                     subq.w     D1, 1
00000A04  B240                     cmp.w      D1, D0
00000A06  6600 025C                bne        +0x25E /* 00000C64 */
00000A0A  3D7C FFFF 001C           move.w     [A6 + 0x1C], 0xFFFF
00000A10  BE6D F61E                cmp.w      D7, [A5 - 0x9E2]
00000A14  6700 024E                beq        +0x250 /* 00000C64 */
00000A18  3F07                     move.w     -[A7], D7
00000A1A  4EBA 3C7A                jsr        [PC + 0x3C7A /* 00004696 */]
00000A1E  544F                     addq.w     A7, 2
00000A20  6000 0242                bra        +0x244 /* 00000C64 */
label00000A24:
00000A24  0CAE 6E6F 7661 0002      cmpi.l     [A6 + 0x2], 0x6E6F7661 /* 'nova' */
00000A2C  6650                     bne        +0x52 /* 00000A7E */
00000A2E  302E 001A                move.w     D0, [A6 + 0x1A]
00000A32  322E 0018                move.w     D1, [A6 + 0x18]
00000A36  5341                     subq.w     D1, 1
00000A38  B240                     cmp.w      D1, D0
00000A3A  6642                     bne        +0x44 /* 00000A7E */
00000A3C  3D7C FFFF 001C           move.w     [A6 + 0x1C], 0xFFFF
00000A42  BE6D F61E                cmp.w      D7, [A5 - 0x9E2]
00000A46  6700 021C                beq        +0x21E /* 00000C64 */
00000A4A  48E7 E0E0                movem.l    -[A7], D0,D1,D2,A0,A1,A2
00000A4E  2F2D F938                move.l     -[A7], [A5 - 0x6C8]
00000A52  3F3C 0005                move.w     -[A7], 0x5
00000A56  42A7                     clr.l      -[A7]
00000A58  4EAD 00BA                jsr        [A5 + 0xBA /* export_19, CODE:3 @ 00001E74 */]
00000A5C  4CDF 0707                movem.l    D0,D1,D2,A0,A1,A2, [A7]+
00000A60  2B6D F784 F83C           move.l     [A5 - 0x7C4], [A5 - 0x87C]
00000A66  3B7C 0001 F836           move.w     [A5 - 0x7CA], 0x1
00000A6C  3B7C 0001 F842           move.w     [A5 - 0x7BE], 0x1
00000A72  3F07                     move.w     -[A7], D7
00000A74  4EBA 3C20                jsr        [PC + 0x3C20 /* 00004696 */]
00000A78  544F                     addq.w     A7, 2
00000A7A  6000 01E8                bra        +0x1EA /* 00000C64 */
label00000A7E:
00000A7E  BE6D F61E                cmp.w      D7, [A5 - 0x9E2]
00000A82  6700 01E0                beq        +0x1E2 /* 00000C64 */
00000A86  41FA 0220                lea.l      A0, [PC + 0x220 /* 00000CA8, value 0x0, cstring "" */]
00000A8A  43FA 0224                lea.l      A1, [PC + 0x224 /* 00000CB0, value 0x0, cstring "" */]
00000A8E  4EBA 0228                jsr        [PC + 0x228 /* 00000CB8 */]
00000A92  4A40                     tst.w      D0
00000A94  6700 01A0                beq        +0x1A2 /* 00000C36 */
00000A98  0CAC 6465 6164 0006      cmpi.l     [A4 + 0x6], 0x64656164 /* 'dead' */
00000AA0  6700 0194                beq        +0x196 /* 00000C36 */
00000AA4  4EBA 07F4                jsr        [PC + 0x7F4 /* 0000129A */]
00000AA8  4A40                     tst.w      D0
00000AAA  6700 018A                beq        +0x18C /* 00000C36 */
00000AAE  0CAE 7072 697A 0002      cmpi.l     [A6 + 0x2], 0x7072697A /* 'priz' */
00000AB6  6600 00D6                bne        +0xD8 /* 00000B8E */
00000ABA  0C56 0005                cmpi.w     [A6], 0x5
00000ABE  6C00 01A4                bge        +0x1A6 /* 00000C64 */
00000AC2  48E7 E0E0                movem.l    -[A7], D0,D1,D2,A0,A1,A2
00000AC6  2F2D F908                move.l     -[A7], [A5 - 0x6F8]
00000ACA  3F3C 0004                move.w     -[A7], 0x4
00000ACE  42A7                     clr.l      -[A7]
00000AD0  4EAD 00BA                jsr        [A5 + 0xBA /* export_19, CODE:3 @ 00001E74 */]
00000AD4  4CDF 0707                movem.l    D0,D1,D2,A0,A1,A2, [A7]+
00000AD8  3CBC 0005                move.w     [A6], 0x5
00000ADC  4267                     clr.w      -[A7]
00000ADE  3F3C 0008                move.w     -[A7], 0x8
00000AE2  4EAD 02AA                jsr        [A5 + 0x2AA /* export_81, CODE:2 @ 00000154 */]
00000AE6  301F                     move.w     D0, [A7]+
00000AE8  4A40                     tst.w      D0
00000AEA  672E                     beq        +0x30 /* 00000B1A */
00000AEC  0C40 0001                cmpi.w     D0, 0x1
00000AF0  6732                     beq        +0x34 /* 00000B24 */
00000AF2  0C40 0002                cmpi.w     D0, 0x2
00000AF6  6736                     beq        +0x38 /* 00000B2E */
00000AF8  0C40 0003                cmpi.w     D0, 0x3
00000AFC  673A                     beq        +0x3C /* 00000B38 */
00000AFE  0C40 0004                cmpi.w     D0, 0x4
00000B02  673E                     beq        +0x40 /* 00000B42 */
00000B04  0C40 0005                cmpi.w     D0, 0x5
00000B08  6742                     beq        +0x44 /* 00000B4C */
00000B0A  0C40 0006                cmpi.w     D0, 0x6
00000B0E  6754                     beq        +0x56 /* 00000B64 */
00000B10  0C40 0007                cmpi.w     D0, 0x7
00000B14  676E                     beq        +0x70 /* 00000B84 */
00000B16  6000 014C                bra        +0x14E /* 00000C64 */
label00000B1A:
00000B1A  3B7C 0001 F82A           move.w     [A5 - 0x7D6], 0x1
00000B20  6000 0142                bra        +0x144 /* 00000C64 */
label00000B24:
00000B24  3B7C 0001 F828           move.w     [A5 - 0x7D8], 0x1
00000B2A  6000 0138                bra        +0x13A /* 00000C64 */
label00000B2E:
00000B2E  3B7C 0001 F82C           move.w     [A5 - 0x7D4], 0x1
00000B34  6000 012E                bra        +0x130 /* 00000C64 */
label00000B38:
00000B38  3B7C 0001 F830           move.w     [A5 - 0x7D0], 0x1
00000B3E  6000 0124                bra        +0x126 /* 00000C64 */
label00000B42:
00000B42  3B7C 0001 F82E           move.w     [A5 - 0x7D2], 0x1
00000B48  6000 011A                bra        +0x11C /* 00000C64 */
label00000B4C:
00000B4C  4267                     clr.w      -[A7]
00000B4E  3F3C 0096                move.w     -[A7], 0x96
00000B52  4EAD 02AA                jsr        [A5 + 0x2AA /* export_81, CODE:2 @ 00000154 */]
00000B56  301F                     move.w     D0, [A7]+
00000B58  0640 003C                addi.w     D0, 0x3C /* '<' */
00000B5C  D16D F834                add.w      [A5 - 0x7CC], D0
00000B60  6000 0102                bra        +0x104 /* 00000C64 */
label00000B64:
00000B64  48E7 E0E0                movem.l    -[A7], D0,D1,D2,A0,A1,A2
00000B68  2F2D F954                move.l     -[A7], [A5 - 0x6AC]
00000B6C  3F3C 0004                move.w     -[A7], 0x4
00000B70  42A7                     clr.l      -[A7]
00000B72  4EAD 00BA                jsr        [A5 + 0xBA /* export_19, CODE:3 @ 00001E74 */]
00000B76  4CDF 0707                movem.l    D0,D1,D2,A0,A1,A2, [A7]+
00000B7A  2B6D F784 F84E           move.l     [A5 - 0x7B2], [A5 - 0x87C]
00000B80  6000 00E2                bra        +0xE4 /* 00000C64 */
label00000B84:
00000B84  3B7C 0001 F842           move.w     [A5 - 0x7BE], 0x1
00000B8A  6000 00D8                bra        +0xDA /* 00000C64 */
label00000B8E:
00000B8E  0CAE 6473 6870 0002      cmpi.l     [A6 + 0x2], 0x64736870 /* 'dshp' */
00000B96  662A                     bne        +0x2C /* 00000BC2 */
00000B98  0C56 0001                cmpi.w     [A6], 0x1
00000B9C  6600 00C6                bne        +0xC8 /* 00000C64 */
00000BA0  48E7 E0E0                movem.l    -[A7], D0,D1,D2,A0,A1,A2
00000BA4  2F2D F8F4                move.l     -[A7], [A5 - 0x70C]
00000BA8  3F3C 0004                move.w     -[A7], 0x4
00000BAC  42A7                     clr.l      -[A7]
00000BAE  4EAD 00BA                jsr        [A5 + 0xBA /* export_19, CODE:3 @ 00001E74 */]
00000BB2  4CDF 0707                movem.l    D0,D1,D2,A0,A1,A2, [A7]+
00000BB6  3CBC 0005                move.w     [A6], 0x5
00000BBA  526D F7DC                addq.w     [A5 - 0x824], 1
00000BBE  6000 00A4                bra        +0xA6 /* 00000C64 */
label00000BC2:
00000BC2  4EBA 00B6                jsr        [PC + 0xB6 /* 00000C7A */]
00000BC6  4A40                     tst.w      D0
00000BC8  6662                     bne        +0x64 /* 00000C2C */
00000BCA  4A6D F832                tst.w      [A5 - 0x7CE]
00000BCE  665C                     bne        +0x5E /* 00000C2C */
00000BD0  4A6D F82C                tst.w      [A5 - 0x7D4]
00000BD4  6728                     beq        +0x2A /* 00000BFE */
00000BD6  4267                     clr.w      -[A7]
00000BD8  3F3C 0003                move.w     -[A7], 0x3
00000BDC  4EAD 02AA                jsr        [A5 + 0x2AA /* export_81, CODE:2 @ 00000154 */]
00000BE0  301F                     move.w     D0, [A7]+
00000BE2  4A40                     tst.w      D0
00000BE4  6618                     bne        +0x1A /* 00000BFE */
00000BE6  48E7 E0E0                movem.l    -[A7], D0,D1,D2,A0,A1,A2
00000BEA  2F2D F8E0                move.l     -[A7], [A5 - 0x720]
00000BEE  3F3C 0004                move.w     -[A7], 0x4
00000BF2  42A7                     clr.l      -[A7]
00000BF4  4EAD 00BA                jsr        [A5 + 0xBA /* export_19, CODE:3 @ 00001E74 */]
00000BF8  4CDF 0707                movem.l    D0,D1,D2,A0,A1,A2, [A7]+
00000BFC  602E                     bra        +0x30 /* 00000C2C */
label00000BFE:
00000BFE  297C 6465 6164 0006      move.l     [A4 + 0x6], 0x64656164 /* 'dead' */
00000C06  3F2D F61E                move.w     -[A7], [A5 - 0x9E2]
00000C0A  4EBA 464C                jsr        [PC + 0x464C /* 00005258 */]
00000C0E  544F                     addq.w     A7, 2
00000C10  2B6D F784 F7DE           move.l     [A5 - 0x822], [A5 - 0x87C]
00000C16  48E7 E0E0                movem.l    -[A7], D0,D1,D2,A0,A1,A2
00000C1A  2F2D F8D8                move.l     -[A7], [A5 - 0x728]
00000C1E  3F3C 0005                move.w     -[A7], 0x5
00000C22  42A7                     clr.l      -[A7]
00000C24  4EAD 00BA                jsr        [A5 + 0xBA /* export_19, CODE:3 @ 00001E74 */]
00000C28  4CDF 0707                movem.l    D0,D1,D2,A0,A1,A2, [A7]+
label00000C2C:
00000C2C  2F05                     move.l     -[A7], D5
00000C2E  4285                     clr.l      D5
00000C30  4EBA 00BC                jsr        [PC + 0xBC /* 00000CEE */]
00000C34  2A1F                     move.l     D5, [A7]+
label00000C36:
00000C36  3C3C 0012                move.w     D6, 0x12
00000C3A  5346                     subq.w     D6, 1
00000C3C  43FA 0072                lea.l      A1, [PC + 0x72 /* 00000CB0, value 0x0, cstring "" */]
label00000C40:
00000C40  3006                     move.w     D0, D6
00000C42  E540                     asl        D0.w, 2
00000C44  2C72 0000                movea.l    A6, [A2 + D0.w]
00000C48  260E                     move.l     D3, A6
00000C4A  0C56 0001                cmpi.w     [A6], 0x1
00000C4E  6610                     bne        +0x12 /* 00000C60 */
00000C50  41EE 0010                lea.l      A0, [A6 + 0x10]
00000C54  4EBA 0062                jsr        [PC + 0x62 /* 00000CB8 */]
00000C58  4A40                     tst.w      D0
00000C5A  6704                     beq        +0x6 /* 00000C60 */
00000C5C  4EBA 0090                jsr        [PC + 0x90 /* 00000CEE */]
label00000C60:
00000C60  51CE FFDE                dbf        D6, -0x24 /* 00000C40 */
label00000C64:
00000C64  51CF FBE6                dbf        D7, -0x41C /* 0000084C */
00000C68  4A6D F842                tst.w      [A5 - 0x7BE]
00000C6C  6734                     beq        +0x36 /* 00000CA2 */
00000C6E  426D F842                clr.w      [A5 - 0x7BE]
00000C72  3B7C 0001 F840           move.w     [A5 - 0x7C0], 0x1
00000C78  4E75                     rts
fn00000C7A:
00000C7A  48E7 4080                movem.l    -[A7], D1,A0
00000C7E  41F8 0174                lea.l      A0, [0x00000174 /* KeyMap */]
00000C82  4280                     clr.l      D0
00000C84  302D F7B8                move.w     D0, [A5 - 0x848]
00000C88  3200                     move.w     D1, D0
00000C8A  E680                     asr        D0, 3
00000C8C  4641                     not.w      D1
00000C8E  0330 0800                btst       [A0 + D0], D1
00000C92  56C0                     sne        D0
00000C94  4A6D F834                tst.w      [A5 - 0x7CC]
00000C98  6602                     bne        +0x4 /* 00000C9C */
00000C9A  4240                     clr.w      D0
label00000C9C:
00000C9C  4CDF 0102                movem.l    D1,A0, [A7]+
00000CA0  4E75                     rts
label00000CA2:
00000CA2  426D F840                clr.w      [A5 - 0x7C0]
label00000CA6:
00000CA6  4E75                     rts
00000CA8  0000 0000                ori.b      D0, 0x0
00000CAC  0000 0000                ori.b      D0, 0x0
00000CB0  0000 0000                ori.b      D0, 0x0
00000CB4  0000 0000                ori.b      D0, 0x0
fn00000CB8:
00000CB8  3010                     move.w     D0, [A0]
00000CBA  3229 0004                move.w     D1, [A1 + 0x4]
00000CBE  B041                     cmp.w      D0, D1
00000CC0  6E28                     bgt        +0x2A /* 00000CEA */
00000CC2  3028 0004                move.w     D0, [A0 + 0x4]
00000CC6  3211                     move.w     D1, [A1]
00000CC8  B041                     cmp.w      D0, D1
00000CCA  6D1E                     blt        +0x20 /* 00000CEA */
00000CCC  3028 0002                move.w     D0, [A0 + 0x2]
00000CD0  3229 0006                move.w     D1, [A1 + 0x6]
00000CD4  B041                     cmp.w      D0, D1
00000CD6  6E12                     bgt        +0x14 /* 00000CEA */
00000CD8  3028 0006                move.w     D0, [A0 + 0x6]
00000CDC  3229 0002                move.w     D1, [A1 + 0x2]
00000CE0  B041                     cmp.w      D0, D1
00000CE2  6D06                     blt        +0x8 /* 00000CEA */
00000CE4  303C 0001                move.w     D0, 0x1
00000CE8  4E75                     rts
label00000CEA:
00000CEA  4240                     clr.w      D0
00000CEC  4E75                     rts
fn00000CEE:
00000CEE  4A85                     tst.l      D5
00000CF0  6702                     beq        +0x4 /* 00000CF4 */
00000CF2  2C45                     movea.l    A6, D5
label00000CF4:
00000CF4  0CAE 6261 7374 0002      cmpi.l     [A6 + 0x2], 0x62617374 /* 'bast' */
00000CFC  6672                     bne        +0x74 /* 00000D70 */
00000CFE  06AD 0000 0032 F7C8      addi.l     [A5 - 0x838], 0x32 /* '2' */
00000D06  53AD F7D0                subq.l     [A5 - 0x830], 1
00000D0A  536D F7DA                subq.w     [A5 - 0x826], 1
00000D0E  0CAD 0000 0014 F7D0      cmpi.l     [A5 - 0x830], 0x14
00000D16  6E08                     bgt        +0xA /* 00000D20 */
00000D18  2B7C 0000 0014 F7D0      move.l     [A5 - 0x830], 0x14
label00000D20:
00000D20  4267                     clr.w      -[A7]
00000D22  3F3C 0003                move.w     -[A7], 0x3
00000D26  4EAD 02AA                jsr        [A5 + 0x2AA /* export_81, CODE:2 @ 00000154 */]
00000D2A  301F                     move.w     D0, [A7]+
00000D2C  3800                     move.w     D4, D0
label00000D2E:
00000D2E  302E 0010                move.w     D0, [A6 + 0x10]
00000D32  3F00                     move.w     -[A7], D0
00000D34  302E 000E                move.w     D0, [A6 + 0xE]
00000D38  3F00                     move.w     -[A7], D0
00000D3A  4EBA 42C2                jsr        [PC + 0x42C2 /* 00004FFE */]
00000D3E  584F                     addq.w     A7, 4
00000D40  51CC FFEC                dbf        D4, -0x16 /* 00000D2E */
00000D44  48E7 E0E0                movem.l    -[A7], D0,D1,D2,A0,A1,A2
00000D48  2F2D F8DC                move.l     -[A7], [A5 - 0x724]
00000D4C  3F3C 0003                move.w     -[A7], 0x3
00000D50  42A7                     clr.l      -[A7]
00000D52  4EAD 00BA                jsr        [A5 + 0xBA /* export_19, CODE:3 @ 00001E74 */]
00000D56  4CDF 0707                movem.l    D0,D1,D2,A0,A1,A2, [A7]+
00000D5A  3F07                     move.w     -[A7], D7
00000D5C  4EBA 44FA                jsr        [PC + 0x44FA /* 00005258 */]
00000D60  544F                     addq.w     A7, 2
00000D62  4A85                     tst.l      D5
00000D64  6706                     beq        +0x8 /* 00000D6C */
00000D66  2C43                     movea.l    A6, D3
00000D68  3CBC FFFF                move.w     [A6], 0xFFFF
label00000D6C:
00000D6C  6000 052A                bra        +0x52C /* 00001298 */
label00000D70:
00000D70  0CAE 6D61 7374 0002      cmpi.l     [A6 + 0x2], 0x6D617374 /* 'mast' */
00000D78  6672                     bne        +0x74 /* 00000DEC */
00000D7A  06AD 0000 0064 F7C8      addi.l     [A5 - 0x838], 0x64 /* 'd' */
00000D82  53AD F7D0                subq.l     [A5 - 0x830], 1
00000D86  536D F7DA                subq.w     [A5 - 0x826], 1
00000D8A  0CAD 0000 0014 F7D0      cmpi.l     [A5 - 0x830], 0x14
00000D92  6E08                     bgt        +0xA /* 00000D9C */
00000D94  2B7C 0000 0014 F7D0      move.l     [A5 - 0x830], 0x14
label00000D9C:
00000D9C  4267                     clr.w      -[A7]
00000D9E  3F3C 0003                move.w     -[A7], 0x3
00000DA2  4EAD 02AA                jsr        [A5 + 0x2AA /* export_81, CODE:2 @ 00000154 */]
00000DA6  301F                     move.w     D0, [A7]+
00000DA8  3800                     move.w     D4, D0
label00000DAA:
00000DAA  302E 0010                move.w     D0, [A6 + 0x10]
00000DAE  3F00                     move.w     -[A7], D0
00000DB0  302E 000E                move.w     D0, [A6 + 0xE]
00000DB4  3F00                     move.w     -[A7], D0
00000DB6  4EBA 4314                jsr        [PC + 0x4314 /* 000050CC */]
00000DBA  584F                     addq.w     A7, 4
00000DBC  51CC FFEC                dbf        D4, -0x16 /* 00000DAA */
00000DC0  48E7 E0E0                movem.l    -[A7], D0,D1,D2,A0,A1,A2
00000DC4  2F2D F8DC                move.l     -[A7], [A5 - 0x724]
00000DC8  3F3C 0003                move.w     -[A7], 0x3
00000DCC  42A7                     clr.l      -[A7]
00000DCE  4EAD 00BA                jsr        [A5 + 0xBA /* export_19, CODE:3 @ 00001E74 */]
00000DD2  4CDF 0707                movem.l    D0,D1,D2,A0,A1,A2, [A7]+
00000DD6  3F07                     move.w     -[A7], D7
00000DD8  4EBA 447E                jsr        [PC + 0x447E /* 00005258 */]
00000DDC  544F                     addq.w     A7, 2
00000DDE  4A85                     tst.l      D5
00000DE0  6706                     beq        +0x8 /* 00000DE8 */
00000DE2  2C43                     movea.l    A6, D3
00000DE4  3CBC FFFF                move.w     [A6], 0xFFFF
label00000DE8:
00000DE8  6000 04AE                bra        +0x4B0 /* 00001298 */
label00000DEC:
00000DEC  0CAE 7361 7374 0002      cmpi.l     [A6 + 0x2], 0x73617374 /* 'sast' */
00000DF4  664E                     bne        +0x50 /* 00000E44 */
00000DF6  06AD 0000 012C F7C8      addi.l     [A5 - 0x838], 0x12C
00000DFE  53AD F7D0                subq.l     [A5 - 0x830], 1
00000E02  536D F7DA                subq.w     [A5 - 0x826], 1
00000E06  0CAD 0000 0014 F7D0      cmpi.l     [A5 - 0x830], 0x14
00000E0E  6E08                     bgt        +0xA /* 00000E18 */
00000E10  2B7C 0000 0014 F7D0      move.l     [A5 - 0x830], 0x14
label00000E18:
00000E18  48E7 E0E0                movem.l    -[A7], D0,D1,D2,A0,A1,A2
00000E1C  2F2D F8DC                move.l     -[A7], [A5 - 0x724]
00000E20  3F3C 0003                move.w     -[A7], 0x3
00000E24  42A7                     clr.l      -[A7]
00000E26  4EAD 00BA                jsr        [A5 + 0xBA /* export_19, CODE:3 @ 00001E74 */]
00000E2A  4CDF 0707                movem.l    D0,D1,D2,A0,A1,A2, [A7]+
00000E2E  3F07                     move.w     -[A7], D7
00000E30  4EBA 4426                jsr        [PC + 0x4426 /* 00005258 */]
00000E34  544F                     addq.w     A7, 2
00000E36  4A85                     tst.l      D5
00000E38  6706                     beq        +0x8 /* 00000E40 */
00000E3A  2C43                     movea.l    A6, D3
00000E3C  3CBC FFFF                move.w     [A6], 0xFFFF
label00000E40:
00000E40  6000 0456                bra        +0x458 /* 00001298 */
label00000E44:
00000E44  0CAE 6D75 6C74 0002      cmpi.l     [A6 + 0x2], 0x6D756C74 /* 'mult' */
00000E4C  6636                     bne        +0x38 /* 00000E84 */
00000E4E  4A85                     tst.l      D5
00000E50  672E                     beq        +0x30 /* 00000E80 */
00000E52  202E 0006                move.l     D0, [A6 + 0x6]
00000E56  3B40 F802                move.w     [A5 - 0x7FE], D0
00000E5A  0C56 0005                cmpi.w     [A6], 0x5
00000E5E  6C24                     bge        +0x26 /* 00000E84 */
00000E60  48E7 E0E0                movem.l    -[A7], D0,D1,D2,A0,A1,A2
00000E64  2F2D F8F8                move.l     -[A7], [A5 - 0x708]
00000E68  3F3C 0004                move.w     -[A7], 0x4
00000E6C  42A7                     clr.l      -[A7]
00000E6E  4EAD 00BA                jsr        [A5 + 0xBA /* export_19, CODE:3 @ 00001E74 */]
00000E72  4CDF 0707                movem.l    D0,D1,D2,A0,A1,A2, [A7]+
00000E76  3CBC 0005                move.w     [A6], 0x5
00000E7A  2C43                     movea.l    A6, D3
00000E7C  3CBC FFFF                move.w     [A6], 0xFFFF
label00000E80:
00000E80  6000 0416                bra        +0x418 /* 00001298 */
label00000E84:
00000E84  0CAE 7374 6173 0002      cmpi.l     [A6 + 0x2], 0x73746173 /* 'stas' */
00000E8C  6600 012C                bne        +0x12E /* 00000FBA */
00000E90  06AD 0000 0064 F7C8      addi.l     [A5 - 0x838], 0x64 /* 'd' */
00000E98  526E 0016                addq.w     [A6 + 0x16], 1
00000E9C  0C6E 000A 0016           cmpi.w     [A6 + 0x16], 0xA /* '\n' */
00000EA2  6600 00A6                bne        +0xA8 /* 00000F4A */
00000EA6  426E 0016                clr.w      [A6 + 0x16]
00000EAA  4267                     clr.w      -[A7]
00000EAC  3F3C 000A                move.w     -[A7], 0xA /* '\n' */
00000EB0  4EAD 02AA                jsr        [A5 + 0x2AA /* export_81, CODE:2 @ 00000154 */]
00000EB4  301F                     move.w     D0, [A7]+
00000EB6  4A40                     tst.w      D0
00000EB8  6736                     beq        +0x38 /* 00000EF0 */
00000EBA  0C40 0001                cmpi.w     D0, 0x1
00000EBE  675A                     beq        +0x5C /* 00000F1A */
00000EC0  0C40 0002                cmpi.w     D0, 0x2
00000EC4  6704                     beq        +0x6 /* 00000ECA */
00000EC6  6000 0082                bra        +0x84 /* 00000F4A */
label00000ECA:
00000ECA  48E7 E0E0                movem.l    -[A7], D0,D1,D2,A0,A1,A2
00000ECE  2F2D F928                move.l     -[A7], [A5 - 0x6D8]
00000ED2  3F3C 0004                move.w     -[A7], 0x4
00000ED6  42A7                     clr.l      -[A7]
00000ED8  4EAD 00BA                jsr        [A5 + 0xBA /* export_19, CODE:3 @ 00001E74 */]
00000EDC  4CDF 0707                movem.l    D0,D1,D2,A0,A1,A2, [A7]+
00000EE0  2D7C 686F 6D65 0002      move.l     [A6 + 0x2], 0x686F6D65 /* 'home' */
00000EE8  2D6D F8B8 0020           move.l     [A6 + 0x20], [A5 - 0x748]
00000EEE  6070                     bra        +0x72 /* 00000F60 */
label00000EF0:
00000EF0  526D F7DA                addq.w     [A5 - 0x826], 1
00000EF4  48E7 E0E0                movem.l    -[A7], D0,D1,D2,A0,A1,A2
00000EF8  2F2D F940                move.l     -[A7], [A5 - 0x6C0]
00000EFC  3F3C 0004                move.w     -[A7], 0x4
00000F00  42A7                     clr.l      -[A7]
00000F02  4EAD 00BA                jsr        [A5 + 0xBA /* export_19, CODE:3 @ 00001E74 */]
00000F06  4CDF 0707                movem.l    D0,D1,D2,A0,A1,A2, [A7]+
00000F0A  2D7C 6D61 7374 0002      move.l     [A6 + 0x2], 0x6D617374 /* 'mast' */
00000F12  2D6D F85C 0020           move.l     [A6 + 0x20], [A5 - 0x7A4]
00000F18  6046                     bra        +0x48 /* 00000F60 */
label00000F1A:
00000F1A  06AD 0000 1388 F7C8      addi.l     [A5 - 0x838], 0x1388
00000F22  48E7 E0E0                movem.l    -[A7], D0,D1,D2,A0,A1,A2
00000F26  2F2D F8DC                move.l     -[A7], [A5 - 0x724]
00000F2A  3F3C 0003                move.w     -[A7], 0x3
00000F2E  42A7                     clr.l      -[A7]
00000F30  4EAD 00BA                jsr        [A5 + 0xBA /* export_19, CODE:3 @ 00001E74 */]
00000F34  4CDF 0707                movem.l    D0,D1,D2,A0,A1,A2, [A7]+
00000F38  426E 000A                clr.w      [A6 + 0xA]
00000F3C  426E 000C                clr.w      [A6 + 0xC]
00000F40  3F07                     move.w     -[A7], D7
00000F42  4EBA 4314                jsr        [PC + 0x4314 /* 00005258 */]
00000F46  544F                     addq.w     A7, 2
00000F48  6016                     bra        +0x18 /* 00000F60 */
label00000F4A:
00000F4A  48E7 E0E0                movem.l    -[A7], D0,D1,D2,A0,A1,A2
00000F4E  2F2D F8FC                move.l     -[A7], [A5 - 0x704]
00000F52  3F3C 0003                move.w     -[A7], 0x3
00000F56  42A7                     clr.l      -[A7]
00000F58  4EAD 00BA                jsr        [A5 + 0xBA /* export_19, CODE:3 @ 00001E74 */]
00000F5C  4CDF 0707                movem.l    D0,D1,D2,A0,A1,A2, [A7]+
label00000F60:
00000F60  4A85                     tst.l      D5
00000F62  672A                     beq        +0x2C /* 00000F8E */
00000F64  204E                     movea.l    A0, A6
00000F66  2C43                     movea.l    A6, D3
00000F68  3CBC FFFF                move.w     [A6], 0xFFFF
00000F6C  302E 0004                move.w     D0, [A6 + 0x4]
00000F70  E240                     asr        D0.w, 1
00000F72  D168 000A                add.w      [A0 + 0xA], D0
00000F76  302E 0006                move.w     D0, [A6 + 0x6]
00000F7A  E240                     asr        D0.w, 1
00000F7C  D168 000C                add.w      [A0 + 0xC], D0
00000F80  2F0C                     move.l     -[A7], A4
00000F82  2848                     movea.l    A4, A0
00000F84  4EBA 0652                jsr        [PC + 0x652 /* 000015D8 */]
00000F88  285F                     movea.l    A4, [A7]+
00000F8A  6000 030C                bra        +0x30E /* 00001298 */
label00000F8E:
00000F8E  0CAC 6465 6164 0006      cmpi.l     [A4 + 0x6], 0x64656164 /* 'dead' */
00000F96  6700 0300                beq        +0x302 /* 00001298 */
00000F9A  302E 000A                move.w     D0, [A6 + 0xA]
00000F9E  E240                     asr        D0.w, 1
00000FA0  D16C 000A                add.w      [A4 + 0xA], D0
00000FA4  302E 000C                move.w     D0, [A6 + 0xC]
00000FA8  E240                     asr        D0.w, 1
00000FAA  D16C 000C                add.w      [A4 + 0xC], D0
00000FAE  2F0C                     move.l     -[A7], A4
00000FB0  4EBA 0626                jsr        [PC + 0x626 /* 000015D8 */]
00000FB4  285F                     movea.l    A4, [A7]+
00000FB6  6000 02E0                bra        +0x2E2 /* 00001298 */
label00000FBA:
00000FBA  0CAE 7072 697A 0002      cmpi.l     [A6 + 0x2], 0x7072697A /* 'priz' */
00000FC2  6634                     bne        +0x36 /* 00000FF8 */
00000FC4  0C56 0001                cmpi.w     [A6], 0x1
00000FC8  6600 02CE                bne        +0x2D0 /* 00001298 */
00000FCC  48E7 E0E0                movem.l    -[A7], D0,D1,D2,A0,A1,A2
00000FD0  2F2D F948                move.l     -[A7], [A5 - 0x6B8]
00000FD4  3F3C 0004                move.w     -[A7], 0x4
00000FD8  42A7                     clr.l      -[A7]
00000FDA  4EAD 00BA                jsr        [A5 + 0xBA /* export_19, CODE:3 @ 00001E74 */]
00000FDE  4CDF 0707                movem.l    D0,D1,D2,A0,A1,A2, [A7]+
00000FE2  3F07                     move.w     -[A7], D7
00000FE4  4EBA 4272                jsr        [PC + 0x4272 /* 00005258 */]
00000FE8  544F                     addq.w     A7, 2
00000FEA  4A85                     tst.l      D5
00000FEC  6706                     beq        +0x8 /* 00000FF4 */
00000FEE  2C43                     movea.l    A6, D3
00000FF0  3CBC FFFF                move.w     [A6], 0xFFFF
label00000FF4:
00000FF4  6000 02A2                bra        +0x2A4 /* 00001298 */
label00000FF8:
00000FF8  0CAE 626F 6E75 0002      cmpi.l     [A6 + 0x2], 0x626F6E75 /* 'bonu' */
00001000  6666                     bne        +0x68 /* 00001068 */
00001002  4A85                     tst.l      D5
00001004  675E                     beq        +0x60 /* 00001064 */
00001006  202D F8AC                move.l     D0, [A5 - 0x754]
0000100A  B0AE 0020                cmp.l      D0, [A6 + 0x20]
0000100E  6758                     beq        +0x5A /* 00001068 */
00001010  4280                     clr.l      D0
00001012  202E 0006                move.l     D0, [A6 + 0x6]
00001016  D1AD F7E8                add.l      [A5 - 0x818], D0
0000101A  48E7 E0E0                movem.l    -[A7], D0,D1,D2,A0,A1,A2
0000101E  2F2D F91C                move.l     -[A7], [A5 - 0x6E4]
00001022  3F3C 0004                move.w     -[A7], 0x4
00001026  42A7                     clr.l      -[A7]
00001028  4EAD 00BA                jsr        [A5 + 0xBA /* export_19, CODE:3 @ 00001E74 */]
0000102C  4CDF 0707                movem.l    D0,D1,D2,A0,A1,A2, [A7]+
00001030  426E 000A                clr.w      [A6 + 0xA]
00001034  426E 000C                clr.w      [A6 + 0xC]
00001038  3D7C FFFF 001C           move.w     [A6 + 0x1C], 0xFFFF
0000103E  2D6D F8AC 0020           move.l     [A6 + 0x20], [A5 - 0x754]
00001044  202E 0006                move.l     D0, [A6 + 0x6]
00001048  80FC 03E8                divu.w     D0, 0x3E8
0000104C  3D40 001A                move.w     [A6 + 0x1A], D0
00001050  202D F784                move.l     D0, [A5 - 0x87C]
00001054  0480 0000 0078           subi.l     D0, 0x78 /* 'x' */
0000105A  2B40 F810                move.l     [A5 - 0x7F0], D0
0000105E  2C43                     movea.l    A6, D3
00001060  3CBC FFFF                move.w     [A6], 0xFFFF
label00001064:
00001064  6000 0232                bra        +0x234 /* 00001298 */
label00001068:
00001068  0CAE 6772 6176 0002      cmpi.l     [A6 + 0x2], 0x67726176 /* 'grav' */
00001070  6634                     bne        +0x36 /* 000010A6 */
00001072  48E7 E0E0                movem.l    -[A7], D0,D1,D2,A0,A1,A2
00001076  2F2D F8DC                move.l     -[A7], [A5 - 0x724]
0000107A  3F3C 0003                move.w     -[A7], 0x3
0000107E  42A7                     clr.l      -[A7]
00001080  4EAD 00BA                jsr        [A5 + 0xBA /* export_19, CODE:3 @ 00001E74 */]
00001084  4CDF 0707                movem.l    D0,D1,D2,A0,A1,A2, [A7]+
00001088  3F07                     move.w     -[A7], D7
0000108A  4EBA 41CC                jsr        [PC + 0x41CC /* 00005258 */]
0000108E  544F                     addq.w     A7, 2
00001090  06AD 0000 01F4 F7C8      addi.l     [A5 - 0x838], 0x1F4
00001098  4A85                     tst.l      D5
0000109A  6706                     beq        +0x8 /* 000010A2 */
0000109C  2C43                     movea.l    A6, D3
0000109E  3CBC FFFF                move.w     [A6], 0xFFFF
label000010A2:
000010A2  6000 01F4                bra        +0x1F6 /* 00001298 */
label000010A6:
000010A6  0CAE 686F 6D65 0002      cmpi.l     [A6 + 0x2], 0x686F6D65 /* 'home' */
000010AE  6600 00A8                bne        +0xAA /* 00001158 */
000010B2  526E 0016                addq.w     [A6 + 0x16], 1
000010B6  302E 0016                move.w     D0, [A6 + 0x16]
000010BA  0C40 0009                cmpi.w     D0, 0x9 /* '\t' */
000010BE  6D28                     blt        +0x2A /* 000010E8 */
000010C0  48E7 E0E0                movem.l    -[A7], D0,D1,D2,A0,A1,A2
000010C4  2F2D F8DC                move.l     -[A7], [A5 - 0x724]
000010C8  3F3C 0003                move.w     -[A7], 0x3
000010CC  42A7                     clr.l      -[A7]
000010CE  4EAD 00BA                jsr        [A5 + 0xBA /* export_19, CODE:3 @ 00001E74 */]
000010D2  4CDF 0707                movem.l    D0,D1,D2,A0,A1,A2, [A7]+
000010D6  3F07                     move.w     -[A7], D7
000010D8  4EBA 417E                jsr        [PC + 0x417E /* 00005258 */]
000010DC  544F                     addq.w     A7, 2
000010DE  06AD 0000 02BC F7C8      addi.l     [A5 - 0x838], 0x2BC
000010E6  6036                     bra        +0x38 /* 0000111E */
label000010E8:
000010E8  4A85                     tst.l      D5
000010EA  6740                     beq        +0x42 /* 0000112C */
000010EC  48E7 E0E0                movem.l    -[A7], D0,D1,D2,A0,A1,A2
000010F0  2F2D F8FC                move.l     -[A7], [A5 - 0x704]
000010F4  3F3C 0003                move.w     -[A7], 0x3
000010F8  42A7                     clr.l      -[A7]
000010FA  4EAD 00BA                jsr        [A5 + 0xBA /* export_19, CODE:3 @ 00001E74 */]
000010FE  4CDF 0707                movem.l    D0,D1,D2,A0,A1,A2, [A7]+
00001102  204E                     movea.l    A0, A6
00001104  2C43                     movea.l    A6, D3
00001106  3CBC FFFF                move.w     [A6], 0xFFFF
0000110A  302E 0004                move.w     D0, [A6 + 0x4]
0000110E  E240                     asr        D0.w, 1
00001110  D168 000A                add.w      [A0 + 0xA], D0
00001114  302E 0006                move.w     D0, [A6 + 0x6]
00001118  E240                     asr        D0.w, 1
0000111A  D168 000C                add.w      [A0 + 0xC], D0
label0000111E:
0000111E  4A85                     tst.l      D5
00001120  670A                     beq        +0xC /* 0000112C */
00001122  2C43                     movea.l    A6, D3
00001124  3CBC FFFF                move.w     [A6], 0xFFFF
00001128  6000 016E                bra        +0x170 /* 00001298 */
label0000112C:
0000112C  0CAC 6465 6164 0006      cmpi.l     [A4 + 0x6], 0x64656164 /* 'dead' */
00001134  6700 0162                beq        +0x164 /* 00001298 */
00001138  302E 000A                move.w     D0, [A6 + 0xA]
0000113C  E240                     asr        D0.w, 1
0000113E  D16C 000A                add.w      [A4 + 0xA], D0
00001142  302E 000C                move.w     D0, [A6 + 0xC]
00001146  E240                     asr        D0.w, 1
00001148  D16C 000C                add.w      [A4 + 0xC], D0
0000114C  2F0C                     move.l     -[A7], A4
0000114E  4EBA 0488                jsr        [PC + 0x488 /* 000015D8 */]
00001152  285F                     movea.l    A4, [A7]+
00001154  6000 0142                bra        +0x144 /* 00001298 */
label00001158:
00001158  0CAE 6E6F 7661 0002      cmpi.l     [A6 + 0x2], 0x6E6F7661 /* 'nova' */
00001160  6634                     bne        +0x36 /* 00001196 */
00001162  48E7 E0E0                movem.l    -[A7], D0,D1,D2,A0,A1,A2
00001166  2F2D F8DC                move.l     -[A7], [A5 - 0x724]
0000116A  3F3C 0003                move.w     -[A7], 0x3
0000116E  42A7                     clr.l      -[A7]
00001170  4EAD 00BA                jsr        [A5 + 0xBA /* export_19, CODE:3 @ 00001E74 */]
00001174  4CDF 0707                movem.l    D0,D1,D2,A0,A1,A2, [A7]+
00001178  3F07                     move.w     -[A7], D7
0000117A  4EBA 40DC                jsr        [PC + 0x40DC /* 00005258 */]
0000117E  544F                     addq.w     A7, 2
00001180  06AD 0000 03E8 F7C8      addi.l     [A5 - 0x838], 0x3E8
00001188  4A85                     tst.l      D5
0000118A  6706                     beq        +0x8 /* 00001192 */
0000118C  2C43                     movea.l    A6, D3
0000118E  3CBC FFFF                move.w     [A6], 0xFFFF
label00001192:
00001192  6000 0104                bra        +0x106 /* 00001298 */
label00001196:
00001196  0CAE 6473 6870 0002      cmpi.l     [A6 + 0x2], 0x64736870 /* 'dshp' */
0000119E  662C                     bne        +0x2E /* 000011CC */
000011A0  48E7 E0E0                movem.l    -[A7], D0,D1,D2,A0,A1,A2
000011A4  2F2D F8D8                move.l     -[A7], [A5 - 0x728]
000011A8  3F3C 0005                move.w     -[A7], 0x5
000011AC  42A7                     clr.l      -[A7]
000011AE  4EAD 00BA                jsr        [A5 + 0xBA /* export_19, CODE:3 @ 00001E74 */]
000011B2  4CDF 0707                movem.l    D0,D1,D2,A0,A1,A2, [A7]+
000011B6  3F07                     move.w     -[A7], D7
000011B8  4EBA 409E                jsr        [PC + 0x409E /* 00005258 */]
000011BC  544F                     addq.w     A7, 2
000011BE  4A85                     tst.l      D5
000011C0  6706                     beq        +0x8 /* 000011C8 */
000011C2  2C43                     movea.l    A6, D3
000011C4  3CBC FFFF                move.w     [A6], 0xFFFF
label000011C8:
000011C8  6000 00CE                bra        +0xD0 /* 00001298 */
label000011CC:
000011CC  0CAE 6261 6479 0002      cmpi.l     [A6 + 0x2], 0x62616479 /* 'bady' */
000011D4  6600 00C2                bne        +0xC4 /* 00001298 */
000011D8  526E 0016                addq.w     [A6 + 0x16], 1
000011DC  302E 0016                move.w     D0, [A6 + 0x16]
000011E0  0C40 0003                cmpi.w     D0, 0x3
000011E4  6D3E                     blt        +0x40 /* 00001224 */
000011E6  426D F848                clr.w      [A5 - 0x7B8]
000011EA  0CAE 736D 616C 0006      cmpi.l     [A6 + 0x6], 0x736D616C /* 'smal' */
000011F2  6608                     bne        +0xA /* 000011FC */
000011F4  06AD 0000 03E8 F7C8      addi.l     [A5 - 0x838], 0x3E8
label000011FC:
000011FC  06AD 0000 03E8 F7C8      addi.l     [A5 - 0x838], 0x3E8
00001204  48E7 E0E0                movem.l    -[A7], D0,D1,D2,A0,A1,A2
00001208  2F2D F8DC                move.l     -[A7], [A5 - 0x724]
0000120C  3F3C 0003                move.w     -[A7], 0x3
00001210  42A7                     clr.l      -[A7]
00001212  4EAD 00BA                jsr        [A5 + 0xBA /* export_19, CODE:3 @ 00001E74 */]
00001216  4CDF 0707                movem.l    D0,D1,D2,A0,A1,A2, [A7]+
0000121A  3F07                     move.w     -[A7], D7
0000121C  4EBA 403A                jsr        [PC + 0x403A /* 00005258 */]
00001220  544F                     addq.w     A7, 2
00001222  6040                     bra        +0x42 /* 00001264 */
label00001224:
00001224  4A85                     tst.l      D5
00001226  6748                     beq        +0x4A /* 00001270 */
00001228  48E7 E0E0                movem.l    -[A7], D0,D1,D2,A0,A1,A2
0000122C  2F2D F900                move.l     -[A7], [A5 - 0x700]
00001230  3F3C 0003                move.w     -[A7], 0x3
00001234  42A7                     clr.l      -[A7]
00001236  4EAD 00BA                jsr        [A5 + 0xBA /* export_19, CODE:3 @ 00001E74 */]
0000123A  4CDF 0707                movem.l    D0,D1,D2,A0,A1,A2, [A7]+
0000123E  204E                     movea.l    A0, A6
00001240  2C43                     movea.l    A6, D3
00001242  3CBC FFFF                move.w     [A6], 0xFFFF
00001246  302E 0004                move.w     D0, [A6 + 0x4]
0000124A  E240                     asr        D0.w, 1
0000124C  D168 000A                add.w      [A0 + 0xA], D0
00001250  302E 0006                move.w     D0, [A6 + 0x6]
00001254  E240                     asr        D0.w, 1
00001256  D168 000C                add.w      [A0 + 0xC], D0
0000125A  2F0C                     move.l     -[A7], A4
0000125C  2848                     movea.l    A4, A0
0000125E  4EBA 0378                jsr        [PC + 0x378 /* 000015D8 */]
00001262  285F                     movea.l    A4, [A7]+
label00001264:
00001264  4A85                     tst.l      D5
00001266  6708                     beq        +0xA /* 00001270 */
00001268  2C43                     movea.l    A6, D3
0000126A  3CBC FFFF                move.w     [A6], 0xFFFF
0000126E  6028                     bra        +0x2A /* 00001298 */
label00001270:
00001270  0CAC 6465 6164 0006      cmpi.l     [A4 + 0x6], 0x64656164 /* 'dead' */
00001278  671E                     beq        +0x20 /* 00001298 */
0000127A  302E 000A                move.w     D0, [A6 + 0xA]
0000127E  E240                     asr        D0.w, 1
00001280  D16C 000A                add.w      [A4 + 0xA], D0
00001284  302E 000C                move.w     D0, [A6 + 0xC]
00001288  E240                     asr        D0.w, 1
0000128A  D16C 000C                add.w      [A4 + 0xC], D0
0000128E  2F0C                     move.l     -[A7], A4
00001290  4EBA 0346                jsr        [PC + 0x346 /* 000015D8 */]
00001294  285F                     movea.l    A4, [A7]+
00001296  4E71                     nop
label00001298:
00001298  4E75                     rts
fn0000129A:
0000129A  48E7 FFFE                movem.l    -[A7], D0,D1,D2,D3,D4,D5,D6,D7,A0,A1,A2,A3,A4,A5,A6
0000129E  302C 001A                move.w     D0, [A4 + 0x1A]
000012A2  E540                     asl        D0.w, 2
000012A4  246C 0020                movea.l    A2, [A4 + 0x20]
000012A8  4A6A 0002                tst.w      [A2 + 0x2]
000012AC  6708                     beq        +0xA /* 000012B6 */
000012AE  247C 0000 0010           movea.l    A2, 0x10
000012B4  6006                     bra        +0x8 /* 000012BC */
label000012B6:
000012B6  247C 0000 0020           movea.l    A2, 0x20 /* ' ' */
label000012BC:
000012BC  302E 001A                move.w     D0, [A6 + 0x1A]
000012C0  E540                     asl        D0.w, 2
000012C2  266E 0020                movea.l    A3, [A6 + 0x20]
000012C6  4A6B 0002                tst.w      [A3 + 0x2]
000012CA  6708                     beq        +0xA /* 000012D4 */
000012CC  267C 0000 0010           movea.l    A3, 0x10
000012D2  6006                     bra        +0x8 /* 000012DA */
label000012D4:
000012D4  267C 0000 0020           movea.l    A3, 0x20 /* ' ' */
label000012DA:
000012DA  41FA 00FA                lea.l      A0, [PC + 0xFA /* 000013D6, value 0x0, cstring "" */]
000012DE  302C 000E                move.w     D0, [A4 + 0xE]
000012E2  E840                     asr        D0.w, 4
000012E4  3140 0002                move.w     [A0 + 0x2], D0
000012E8  D04A                     add.w      D0, A2
000012EA  3140 0006                move.w     [A0 + 0x6], D0
000012EE  302C 0010                move.w     D0, [A4 + 0x10]
000012F2  E840                     asr        D0.w, 4
000012F4  3080                     move.w     [A0], D0
000012F6  D04A                     add.w      D0, A2
000012F8  3140 0004                move.w     [A0 + 0x4], D0
000012FC  302C 001A                move.w     D0, [A4 + 0x1A]
00001300  E540                     asl        D0.w, 2
00001302  286C 0020                movea.l    A4, [A4 + 0x20]
00001306  49EC 00FC                lea.l      A4, [A4 + 0xFC]
0000130A  D8C0                     add.w      A4, D0
0000130C  2854                     movea.l    A4, [A4]
0000130E  43FA 00CE                lea.l      A1, [PC + 0xCE /* 000013DE, value 0x0, cstring "" */]
00001312  302E 000E                move.w     D0, [A6 + 0xE]
00001316  E840                     asr        D0.w, 4
00001318  3340 0002                move.w     [A1 + 0x2], D0
0000131C  D04B                     add.w      D0, A3
0000131E  3340 0006                move.w     [A1 + 0x6], D0
00001322  302E 0010                move.w     D0, [A6 + 0x10]
00001326  E840                     asr        D0.w, 4
00001328  3280                     move.w     [A1], D0
0000132A  D04B                     add.w      D0, A3
0000132C  3340 0004                move.w     [A1 + 0x4], D0
00001330  302E 001A                move.w     D0, [A6 + 0x1A]
00001334  E540                     asl        D0.w, 2
00001336  2C6E 0020                movea.l    A6, [A6 + 0x20]
0000133A  4DEE 00FC                lea.l      A6, [A6 + 0xFC]
0000133E  DCC0                     add.w      A6, D0
00001340  2C56                     movea.l    A6, [A6]
00001342  3028 0002                move.w     D0, [A0 + 0x2]
00001346  3229 0002                move.w     D1, [A1 + 0x2]
0000134A  B240                     cmp.w      D1, D0
0000134C  6C16                     bge        +0x18 /* 00001364 */
0000134E  3028 0002                move.w     D0, [A0 + 0x2]
00001352  3229 0006                move.w     D1, [A1 + 0x6]
00001356  9240                     sub.w      D1, D0
00001358  3E01                     move.w     D7, D1
0000135A  300B                     move.w     D0, A3
0000135C  5340                     subq.w     D0, 1
0000135E  9041                     sub.w      D0, D1
00001360  DCC0                     add.w      A6, D0
00001362  6014                     bra        +0x16 /* 00001378 */
label00001364:
00001364  3029 0002                move.w     D0, [A1 + 0x2]
00001368  3228 0006                move.w     D1, [A0 + 0x6]
0000136C  9240                     sub.w      D1, D0
0000136E  3E01                     move.w     D7, D1
00001370  300A                     move.w     D0, A2
00001372  5340                     subq.w     D0, 1
00001374  9041                     sub.w      D0, D1
00001376  D8C0                     add.w      A4, D0
label00001378:
00001378  3010                     move.w     D0, [A0]
0000137A  3211                     move.w     D1, [A1]
0000137C  B240                     cmp.w      D1, D0
0000137E  6C16                     bge        +0x18 /* 00001396 */
00001380  3010                     move.w     D0, [A0]
00001382  3229 0004                move.w     D1, [A1 + 0x4]
00001386  9240                     sub.w      D1, D0
00001388  3C01                     move.w     D6, D1
0000138A  300B                     move.w     D0, A3
0000138C  5340                     subq.w     D0, 1
0000138E  9041                     sub.w      D0, D1
00001390  EB40                     asl        D0.w, 5
00001392  DCC0                     add.w      A6, D0
00001394  6014                     bra        +0x16 /* 000013AA */
label00001396:
00001396  3011                     move.w     D0, [A1]
00001398  3228 0004                move.w     D1, [A0 + 0x4]
0000139C  9240                     sub.w      D1, D0
0000139E  3C01                     move.w     D6, D1
000013A0  300A                     move.w     D0, A2
000013A2  5340                     subq.w     D0, 1
000013A4  9041                     sub.w      D0, D1
000013A6  EB40                     asl        D0.w, 5
000013A8  D8C0                     add.w      A4, D0
label000013AA:
000013AA  3A07                     move.w     D5, D7
label000013AC:
000013AC  4A34 5000                tst.b      [A4 + D5.w]
000013B0  6606                     bne        +0x8 /* 000013B8 */
000013B2  4A36 5000                tst.b      [A6 + D5.w]
000013B6  6714                     beq        +0x16 /* 000013CC */
label000013B8:
000013B8  51CD FFF2                dbf        D5, -0x10 /* 000013AC */
000013BC  D8CA                     add.w      A4, A2
000013BE  DCCB                     add.w      A6, A3
000013C0  51CE FFE8                dbf        D6, -0x1A /* 000013AA */
000013C4  4CDF 7FFF                movem.l    D0,D1,D2,D3,D4,D5,D6,D7,A0,A1,A2,A3,A4,A5,A6, [A7]+
000013C8  4240                     clr.w      D0
000013CA  4E75                     rts
label000013CC:
000013CC  4CDF 7FFF                movem.l    D0,D1,D2,D3,D4,D5,D6,D7,A0,A1,A2,A3,A4,A5,A6, [A7]+
000013D0  303C 0001                move.w     D0, 0x1
000013D4  4E75                     rts
000013D6  0000 0000                ori.b      D0, 0x0
000013DA  0000 0000                ori.b      D0, 0x0
000013DE  0000 0000                ori.b      D0, 0x0
000013E2  0000 0000                ori.b      D0, 0x0
fn000013E6:
000013E6  4A6D F7E2                tst.w      [A5 - 0x81E]
000013EA  6700 01E8                beq        +0x1EA /* 000015D4 */
000013EE  47ED F234                lea.l      A3, [A5 - 0xDCC]
000013F2  45F8 0174                lea.l      A2, [0x00000174 /* KeyMap */]
000013F6  302D F61E                move.w     D0, [A5 - 0x9E2]
000013FA  E540                     asl        D0.w, 2
000013FC  2873 0000                movea.l    A4, [A3 + D0.w]
00001400  4EBA 01D6                jsr        [PC + 0x1D6 /* 000015D8 */]
00001404  4280                     clr.l      D0
00001406  303C 0032                move.w     D0, 0x32 /* '2' */
0000140A  3200                     move.w     D1, D0
0000140C  E680                     asr        D0, 3
0000140E  4641                     not.w      D1
00001410  0332 0800                btst       [A2 + D0], D1
00001414  6704                     beq        +0x6 /* 0000141A */
00001416  426D F7E2                clr.w      [A5 - 0x81E]
label0000141A:
0000141A  0CAC 6465 6164 0006      cmpi.l     [A4 + 0x6], 0x64656164 /* 'dead' */
00001422  6700 01B0                beq        +0x1B2 /* 000015D4 */
00001426  4A6D F828                tst.w      [A5 - 0x7D8]
0000142A  6728                     beq        +0x2A /* 00001454 */
0000142C  4A6C 000C                tst.w      [A4 + 0xC]
00001430  6D04                     blt        +0x6 /* 00001436 */
00001432  6E08                     bgt        +0xA /* 0000143C */
00001434  600A                     bra        +0xC /* 00001440 */
label00001436:
00001436  526C 000C                addq.w     [A4 + 0xC], 1
0000143A  6004                     bra        +0x6 /* 00001440 */
label0000143C:
0000143C  536C 000C                subq.w     [A4 + 0xC], 1
label00001440:
00001440  4A6C 000A                tst.w      [A4 + 0xA]
00001444  6D04                     blt        +0x6 /* 0000144A */
00001446  6E08                     bgt        +0xA /* 00001450 */
00001448  600A                     bra        +0xC /* 00001454 */
label0000144A:
0000144A  526C 000A                addq.w     [A4 + 0xA], 1
0000144E  6004                     bra        +0x6 /* 00001454 */
label00001450:
00001450  536C 000A                subq.w     [A4 + 0xA], 1
label00001454:
00001454  4280                     clr.l      D0
00001456  302D F7B6                move.w     D0, [A5 - 0x84A]
0000145A  3200                     move.w     D1, D0
0000145C  E680                     asr        D0, 3
0000145E  4641                     not.w      D1
00001460  0332 0800                btst       [A2 + D0], D1
00001464  674C                     beq        +0x4E /* 000014B2 */
00001466  48E7 E0E0                movem.l    -[A7], D0,D1,D2,A0,A1,A2
0000146A  4227                     clr.b      -[A7]
0000146C  2F2D F8C8                move.l     -[A7], [A5 - 0x738]
00001470  4EAD 00CA                jsr        [A5 + 0xCA /* export_21, CODE:3 @ 00002214 */]
00001474  4A1F                     tst.b      [A7]+
00001476  6610                     bne        +0x12 /* 00001488 */
00001478  2F2D F8C8                move.l     -[A7], [A5 - 0x738]
0000147C  3F3C 0001                move.w     -[A7], 0x1
00001480  486D 023A                pea.l      [A5 + 0x23A /* export_67, CODE:7 @ 00000000 */]
00001484  4EAD 00BA                jsr        [A5 + 0xBA /* export_19, CODE:3 @ 00001E74 */]
label00001488:
00001488  4CDF 0707                movem.l    D0,D1,D2,A0,A1,A2, [A7]+
0000148C  3B7C 0001 F3C8           move.w     [A5 - 0xC38], 0x1
00001492  302C 001A                move.w     D0, [A4 + 0x1A]
00001496  E540                     asl        D0.w, 2
00001498  41ED F55E                lea.l      A0, [A5 - 0xAA2]
0000149C  D0C0                     add.w      A0, D0
0000149E  3010                     move.w     D0, [A0]
000014A0  D16C 000C                add.w      [A4 + 0xC], D0
000014A4  3028 0002                move.w     D0, [A0 + 0x2]
000014A8  D16C 000A                add.w      [A4 + 0xA], D0
000014AC  4EBA 012A                jsr        [PC + 0x12A /* 000015D8 */]
000014B0  6004                     bra        +0x6 /* 000014B6 */
label000014B2:
000014B2  426D F3C8                clr.w      [A5 - 0xC38]
label000014B6:
000014B6  4280                     clr.l      D0
000014B8  302D F7B4                move.w     D0, [A5 - 0x84C]
000014BC  3200                     move.w     D1, D0
000014BE  E680                     asr        D0, 3
000014C0  4641                     not.w      D1
000014C2  0332 0800                btst       [A2 + D0], D1
000014C6  6756                     beq        +0x58 /* 0000151E */
000014C8  4A6D F82A                tst.w      [A5 - 0x7D6]
000014CC  660C                     bne        +0xE /* 000014DA */
000014CE  41FA 0106                lea.l      A0, [PC + 0x106 /* 000015D6, value 0x302C '0,', cstring "" */]
000014D2  4A50                     tst.w      [A0]
000014D4  664E                     bne        +0x50 /* 00001524 */
000014D6  30BC 0001                move.w     [A0], 0x1
label000014DA:
000014DA  4240                     clr.w      D0
000014DC  4DED F668                lea.l      A6, [A5 - 0x998]
000014E0  4EBA 0158                jsr        [PC + 0x158 /* 0000163A */]
000014E4  4A40                     tst.w      D0
000014E6  6716                     beq        +0x18 /* 000014FE */
000014E8  48E7 E0E0                movem.l    -[A7], D0,D1,D2,A0,A1,A2
000014EC  2F2D F8D4                move.l     -[A7], [A5 - 0x72C]
000014F0  3F3C 0002                move.w     -[A7], 0x2
000014F4  42A7                     clr.l      -[A7]
000014F6  4EAD 00BA                jsr        [A5 + 0xBA /* export_19, CODE:3 @ 00001E74 */]
000014FA  4CDF 0707                movem.l    D0,D1,D2,A0,A1,A2, [A7]+
label000014FE:
000014FE  4A6D F830                tst.w      [A5 - 0x7D0]
00001502  6720                     beq        +0x22 /* 00001524 */
00001504  303C 0001                move.w     D0, 0x1
00001508  4DED F668                lea.l      A6, [A5 - 0x998]
0000150C  4EBA 012C                jsr        [PC + 0x12C /* 0000163A */]
00001510  303C FFFF                move.w     D0, 0xFFFF
00001514  4DED F668                lea.l      A6, [A5 - 0x998]
00001518  4EBA 0120                jsr        [PC + 0x120 /* 0000163A */]
0000151C  6006                     bra        +0x8 /* 00001524 */
label0000151E:
0000151E  41FA 00B6                lea.l      A0, [PC + 0xB6 /* 000015D6, value 0x302C '0,', cstring "" */]
00001522  4250                     clr.w      [A0]
label00001524:
00001524  4280                     clr.l      D0
00001526  302D F7B0                move.w     D0, [A5 - 0x850]
0000152A  3200                     move.w     D1, D0
0000152C  E680                     asr        D0, 3
0000152E  4641                     not.w      D1
00001530  0332 0800                btst       [A2 + D0], D1
00001534  6712                     beq        +0x14 /* 00001548 */
00001536  302C 001A                move.w     D0, [A4 + 0x1A]
0000153A  4A40                     tst.w      D0
0000153C  6604                     bne        +0x6 /* 00001542 */
0000153E  302C 0018                move.w     D0, [A4 + 0x18]
label00001542:
00001542  5340                     subq.w     D0, 1
00001544  3940 001A                move.w     [A4 + 0x1A], D0
label00001548:
00001548  4280                     clr.l      D0
0000154A  302D F7B2                move.w     D0, [A5 - 0x84E]
0000154E  3200                     move.w     D1, D0
00001550  E680                     asr        D0, 3
00001552  4641                     not.w      D1
00001554  0332 0800                btst       [A2 + D0], D1
00001558  6712                     beq        +0x14 /* 0000156C */
0000155A  302C 001A                move.w     D0, [A4 + 0x1A]
0000155E  5240                     addq.w     D0, 1
00001560  B06C 0018                cmp.w      D0, [A4 + 0x18]
00001564  6602                     bne        +0x4 /* 00001568 */
00001566  4240                     clr.w      D0
label00001568:
00001568  3940 001A                move.w     [A4 + 0x1A], D0
label0000156C:
0000156C  4280                     clr.l      D0
0000156E  302D F7B8                move.w     D0, [A5 - 0x848]
00001572  3200                     move.w     D1, D0
00001574  E680                     asr        D0, 3
00001576  4641                     not.w      D1
00001578  0332 0800                btst       [A2 + D0], D1
0000157C  674C                     beq        +0x4E /* 000015CA */
0000157E  4A6D F832                tst.w      [A5 - 0x7CE]
00001582  6616                     bne        +0x18 /* 0000159A */
00001584  48E7 E0E0                movem.l    -[A7], D0,D1,D2,A0,A1,A2
00001588  2F2D F92C                move.l     -[A7], [A5 - 0x6D4]
0000158C  3F3C 0001                move.w     -[A7], 0x1
00001590  42A7                     clr.l      -[A7]
00001592  4EAD 00BA                jsr        [A5 + 0xBA /* export_19, CODE:3 @ 00001E74 */]
00001596  4CDF 0707                movem.l    D0,D1,D2,A0,A1,A2, [A7]+
label0000159A:
0000159A  3B7C 0001 F832           move.w     [A5 - 0x7CE], 0x1
000015A0  536D F834                subq.w     [A5 - 0x7CC], 1
000015A4  4A6D F834                tst.w      [A5 - 0x7CC]
000015A8  6E2A                     bgt        +0x2C /* 000015D4 */
000015AA  48E7 E0E0                movem.l    -[A7], D0,D1,D2,A0,A1,A2
000015AE  2F2D F930                move.l     -[A7], [A5 - 0x6D0]
000015B2  3F3C 0002                move.w     -[A7], 0x2
000015B6  42A7                     clr.l      -[A7]
000015B8  4EAD 00BA                jsr        [A5 + 0xBA /* export_19, CODE:3 @ 00001E74 */]
000015BC  4CDF 0707                movem.l    D0,D1,D2,A0,A1,A2, [A7]+
000015C0  426D F832                clr.w      [A5 - 0x7CE]
000015C4  426D F834                clr.w      [A5 - 0x7CC]
000015C8  600A                     bra        +0xC /* 000015D4 */
label000015CA:
000015CA  4AAD F844                tst.l      [A5 - 0x7BC]
000015CE  6604                     bne        +0x6 /* 000015D4 */
000015D0  426D F832                clr.w      [A5 - 0x7CE]
label000015D4:
000015D4  4E75                     rts
000015D6  0000 302C                ori.b      D0, 0x2C /* ',' */
// begin alternate branch 000015D8-000015DE
fn000015D8:
000015D8  302C 000C                move.w     D0, [A4 + 0xC]
000015DC  6D14                     blt        +0x16 /* 000015F2 */
// end alternate branch 000015D8-000015DE
fn000015D8: // (misaligned)
000015DA  000C 6D14                ori.b      A4, 0x14
000015DE  E840                     asr        D0.w, 4
000015E0  0C40 0008                cmpi.w     D0, 0x8
000015E4  6D22                     blt        +0x24 /* 00001608 */
000015E6  303C 0008                move.w     D0, 0x8
000015EA  E940                     asl        D0.w, 4
000015EC  3940 000C                move.w     [A4 + 0xC], D0
000015F0  6016                     bra        +0x18 /* 00001608 */
label000015F2:
000015F2  4440                     neg.w      D0
000015F4  E840                     asr        D0.w, 4
000015F6  0C40 0008                cmpi.w     D0, 0x8
000015FA  6D0C                     blt        +0xE /* 00001608 */
000015FC  303C 0008                move.w     D0, 0x8
00001600  E940                     asl        D0.w, 4
00001602  4440                     neg.w      D0
00001604  3940 000C                move.w     [A4 + 0xC], D0
label00001608:
00001608  302C 000A                move.w     D0, [A4 + 0xA]
0000160C  6D14                     blt        +0x16 /* 00001622 */
0000160E  E840                     asr        D0.w, 4
00001610  0C40 0008                cmpi.w     D0, 0x8
00001614  6D22                     blt        +0x24 /* 00001638 */
00001616  303C 0008                move.w     D0, 0x8
0000161A  E940                     asl        D0.w, 4
0000161C  3940 000A                move.w     [A4 + 0xA], D0
00001620  6016                     bra        +0x18 /* 00001638 */
label00001622:
00001622  4440                     neg.w      D0
00001624  E840                     asr        D0.w, 4
00001626  0C40 0008                cmpi.w     D0, 0x8
0000162A  6D0C                     blt        +0xE /* 00001638 */
0000162C  303C 0008                move.w     D0, 0x8
00001630  E940                     asl        D0.w, 4
00001632  4440                     neg.w      D0
00001634  3940 000A                move.w     [A4 + 0xA], D0
label00001638:
00001638  4E75                     rts
fn0000163A:
0000163A  3E3C 0012                move.w     D7, 0x12
0000163E  5347                     subq.w     D7, 1
00001640  3F00                     move.w     -[A7], D0
label00001642:
00001642  3007                     move.w     D0, D7
00001644  E540                     asl        D0.w, 2
00001646  2076 0000                movea.l    A0, [A6 + D0.w]
0000164A  4A50                     tst.w      [A0]
0000164C  670A                     beq        +0xC /* 00001658 */
0000164E  51CF FFF2                dbf        D7, -0x10 /* 00001642 */
00001652  301F                     move.w     D0, [A7]+
00001654  4240                     clr.w      D0
00001656  4E75                     rts
label00001658:
00001658  302C 001A                move.w     D0, [A4 + 0x1A]
0000165C  321F                     move.w     D1, [A7]+
0000165E  D041                     add.w      D0, D1
00001660  4A40                     tst.w      D0
00001662  6C04                     bge        +0x6 /* 00001668 */
00001664  303C 002F                move.w     D0, 0x2F /* '/' */
label00001668:
00001668  0C40 0030                cmpi.w     D0, 0x30 /* '0' */
0000166C  6602                     bne        +0x4 /* 00001670 */
0000166E  4240                     clr.w      D0
label00001670:
00001670  E540                     asl        D0.w, 2
00001672  43ED F55E                lea.l      A1, [A5 - 0xAA2]
00001676  D2C0                     add.w      A1, D0
00001678  3011                     move.w     D0, [A1]
0000167A  E940                     asl        D0.w, 4
0000167C  3140 0006                move.w     [A0 + 0x6], D0
00001680  3029 0002                move.w     D0, [A1 + 0x2]
00001684  E940                     asl        D0.w, 4
00001686  3140 0004                move.w     [A0 + 0x4], D0
0000168A  302C 000E                move.w     D0, [A4 + 0xE]
0000168E  3140 0008                move.w     [A0 + 0x8], D0
00001692  302C 0010                move.w     D0, [A4 + 0x10]
00001696  3140 000A                move.w     [A0 + 0xA], D0
0000169A  303C 000E                move.w     D0, 0xE
0000169E  E940                     asl        D0.w, 4
000016A0  D168 000A                add.w      [A0 + 0xA], D0
000016A4  D168 0008                add.w      [A0 + 0x8], D0
000016A8  302C 000A                move.w     D0, [A4 + 0xA]
000016AC  D168 0004                add.w      [A0 + 0x4], D0
000016B0  9168 0008                sub.w      [A0 + 0x8], D0
000016B4  302C 000C                move.w     D0, [A4 + 0xC]
000016B8  D168 0006                add.w      [A0 + 0x6], D0
000016BC  9168 000A                sub.w      [A0 + 0xA], D0
000016C0  216D F784 000C           move.l     [A0 + 0xC], [A5 - 0x87C]
000016C6  30BC 0001                move.w     [A0], 0x1
000016CA  317C 0001 0002           move.w     [A0 + 0x2], 0x1
000016D0  3028 000A                move.w     D0, [A0 + 0xA]
000016D4  E840                     asr        D0.w, 4
000016D6  3140 0010                move.w     [A0 + 0x10], D0
000016DA  5840                     addq.w     D0, 4
000016DC  3140 0014                move.w     [A0 + 0x14], D0
000016E0  3028 0008                move.w     D0, [A0 + 0x8]
000016E4  E840                     asr        D0.w, 4
000016E6  3140 0012                move.w     [A0 + 0x12], D0
000016EA  5840                     addq.w     D0, 4
000016EC  3140 0016                move.w     [A0 + 0x16], D0
000016F0  303C 0001                move.w     D0, 0x1
000016F4  4E75                     rts
fn000016F6:
000016F6  701F                     moveq.l    D0, 0x1F
label000016F8:
000016F8  3240                     movea.w    A1, D0
000016FA  4CD8 000F                movem.l    D0,D1,D2,D3, [A0]+
000016FE  4CDB 00F0                movem.l    D4,D5,D6,D7, [A3]+
00001702  C084                     and.l      D0, D4
00001704  C285                     and.l      D1, D5
00001706  C486                     and.l      D2, D6
00001708  C687                     and.l      D3, D7
0000170A  4CDA 00F0                movem.l    D4,D5,D6,D7, [A2]+
0000170E  8084                     or.l       D0, D4
00001710  8285                     or.l       D1, D5
00001712  8486                     or.l       D2, D6
00001714  8687                     or.l       D3, D7
00001716  48E0 F000                movem.l    -[A0], D0,D1,D2,D3
0000171A  D1FC 0000 0010           add.l      A0, 0x10
00001720  4CD8 000F                movem.l    D0,D1,D2,D3, [A0]+
00001724  4CDB 00F0                movem.l    D4,D5,D6,D7, [A3]+
00001728  C084                     and.l      D0, D4
0000172A  C285                     and.l      D1, D5
0000172C  C486                     and.l      D2, D6
0000172E  C687                     and.l      D3, D7
00001730  4CDA 00F0                movem.l    D4,D5,D6,D7, [A2]+
00001734  8084                     or.l       D0, D4
00001736  8285                     or.l       D1, D5
00001738  8486                     or.l       D2, D6
0000173A  8687                     or.l       D3, D7
0000173C  48E0 F000                movem.l    -[A0], D0,D1,D2,D3
00001740  91FC 0000 0010           sub.l      A0, 0x10
00001746  D1CC                     add.l      A0, A4
00001748  3009                     move.w     D0, A1
0000174A  51C8 FFAC                dbf        D0, -0x56 /* 000016F8 */
0000174E  4E75                     rts
fn00001750:
00001750  700F                     moveq.l    D0, 0x0F
label00001752:
00001752  3240                     movea.w    A1, D0
00001754  4CD8 000F                movem.l    D0,D1,D2,D3, [A0]+
00001758  4CDB 00F0                movem.l    D4,D5,D6,D7, [A3]+
0000175C  C084                     and.l      D0, D4
0000175E  C285                     and.l      D1, D5
00001760  C486                     and.l      D2, D6
00001762  C687                     and.l      D3, D7
00001764  4CDA 00F0                movem.l    D4,D5,D6,D7, [A2]+
00001768  8084                     or.l       D0, D4
0000176A  8285                     or.l       D1, D5
0000176C  8486                     or.l       D2, D6
0000176E  8687                     or.l       D3, D7
00001770  48E0 F000                movem.l    -[A0], D0,D1,D2,D3
00001774  D1CC                     add.l      A0, A4
00001776  3009                     move.w     D0, A1
00001778  51C8 FFD8                dbf        D0, -0x2A /* 00001752 */
0000177C  4E75                     rts
fn0000177E:
0000177E  D2FC 0020                add.w      A1, 0x20 /* ' ' */
00001782  D4FC 0020                add.w      A2, 0x20 /* ' ' */
00001786  48E1 FF00                movem.l    -[A1], D0,D1,D2,D3,D4,D5,D6,D7
0000178A  D2CA                     add.w      A1, A2
0000178C  48E1 FF00                movem.l    -[A1], D0,D1,D2,D3,D4,D5,D6,D7
00001790  D2CA                     add.w      A1, A2
00001792  48E1 FF00                movem.l    -[A1], D0,D1,D2,D3,D4,D5,D6,D7
00001796  D2CA                     add.w      A1, A2
00001798  48E1 FF00                movem.l    -[A1], D0,D1,D2,D3,D4,D5,D6,D7
0000179C  D2CA                     add.w      A1, A2
0000179E  48E1 FF00                movem.l    -[A1], D0,D1,D2,D3,D4,D5,D6,D7
000017A2  D2CA                     add.w      A1, A2
000017A4  48E1 FF00                movem.l    -[A1], D0,D1,D2,D3,D4,D5,D6,D7
000017A8  D2CA                     add.w      A1, A2
000017AA  48E1 FF00                movem.l    -[A1], D0,D1,D2,D3,D4,D5,D6,D7
000017AE  D2CA                     add.w      A1, A2
000017B0  48E1 FF00                movem.l    -[A1], D0,D1,D2,D3,D4,D5,D6,D7
000017B4  D2CA                     add.w      A1, A2
000017B6  48E1 FF00                movem.l    -[A1], D0,D1,D2,D3,D4,D5,D6,D7
000017BA  D2CA                     add.w      A1, A2
000017BC  48E1 FF00                movem.l    -[A1], D0,D1,D2,D3,D4,D5,D6,D7
000017C0  D2CA                     add.w      A1, A2
000017C2  48E1 FF00                movem.l    -[A1], D0,D1,D2,D3,D4,D5,D6,D7
000017C6  D2CA                     add.w      A1, A2
000017C8  48E1 FF00                movem.l    -[A1], D0,D1,D2,D3,D4,D5,D6,D7
000017CC  D2CA                     add.w      A1, A2
000017CE  48E1 FF00                movem.l    -[A1], D0,D1,D2,D3,D4,D5,D6,D7
000017D2  D2CA                     add.w      A1, A2
000017D4  48E1 FF00                movem.l    -[A1], D0,D1,D2,D3,D4,D5,D6,D7
000017D8  D2CA                     add.w      A1, A2
000017DA  48E1 FF00                movem.l    -[A1], D0,D1,D2,D3,D4,D5,D6,D7
000017DE  D2CA                     add.w      A1, A2
000017E0  48E1 FF00                movem.l    -[A1], D0,D1,D2,D3,D4,D5,D6,D7
000017E4  D2CA                     add.w      A1, A2
000017E6  48E1 FF00                movem.l    -[A1], D0,D1,D2,D3,D4,D5,D6,D7
000017EA  D2CA                     add.w      A1, A2
000017EC  48E1 FF00                movem.l    -[A1], D0,D1,D2,D3,D4,D5,D6,D7
000017F0  D2CA                     add.w      A1, A2
000017F2  48E1 FF00                movem.l    -[A1], D0,D1,D2,D3,D4,D5,D6,D7
000017F6  D2CA                     add.w      A1, A2
000017F8  48E1 FF00                movem.l    -[A1], D0,D1,D2,D3,D4,D5,D6,D7
000017FC  D2CA                     add.w      A1, A2
000017FE  48E1 FF00                movem.l    -[A1], D0,D1,D2,D3,D4,D5,D6,D7
00001802  D2CA                     add.w      A1, A2
00001804  48E1 FF00                movem.l    -[A1], D0,D1,D2,D3,D4,D5,D6,D7
00001808  D2CA                     add.w      A1, A2
0000180A  48E1 FF00                movem.l    -[A1], D0,D1,D2,D3,D4,D5,D6,D7
0000180E  D2CA                     add.w      A1, A2
00001810  48E1 FF00                movem.l    -[A1], D0,D1,D2,D3,D4,D5,D6,D7
00001814  D2CA                     add.w      A1, A2
00001816  48E1 FF00                movem.l    -[A1], D0,D1,D2,D3,D4,D5,D6,D7
0000181A  D2CA                     add.w      A1, A2
0000181C  48E1 FF00                movem.l    -[A1], D0,D1,D2,D3,D4,D5,D6,D7
00001820  D2CA                     add.w      A1, A2
00001822  48E1 FF00                movem.l    -[A1], D0,D1,D2,D3,D4,D5,D6,D7
00001826  D2CA                     add.w      A1, A2
00001828  48E1 FF00                movem.l    -[A1], D0,D1,D2,D3,D4,D5,D6,D7
0000182C  D2CA                     add.w      A1, A2
0000182E  48E1 FF00                movem.l    -[A1], D0,D1,D2,D3,D4,D5,D6,D7
00001832  D2CA                     add.w      A1, A2
00001834  48E1 FF00                movem.l    -[A1], D0,D1,D2,D3,D4,D5,D6,D7
00001838  D2CA                     add.w      A1, A2
0000183A  48E1 FF00                movem.l    -[A1], D0,D1,D2,D3,D4,D5,D6,D7
0000183E  D2CA                     add.w      A1, A2
00001840  48E1 FF00                movem.l    -[A1], D0,D1,D2,D3,D4,D5,D6,D7
00001844  D2CA                     add.w      A1, A2
00001846  4E75                     rts
fn00001848:
00001848  D2FC 0010                add.w      A1, 0x10
0000184C  D4FC 0010                add.w      A2, 0x10
00001850  48E1 F000                movem.l    -[A1], D0,D1,D2,D3
00001854  D2CA                     add.w      A1, A2
00001856  48E1 F000                movem.l    -[A1], D0,D1,D2,D3
0000185A  D2CA                     add.w      A1, A2
0000185C  48E1 F000                movem.l    -[A1], D0,D1,D2,D3
00001860  D2CA                     add.w      A1, A2
00001862  48E1 F000                movem.l    -[A1], D0,D1,D2,D3
00001866  D2CA                     add.w      A1, A2
00001868  48E1 F000                movem.l    -[A1], D0,D1,D2,D3
0000186C  D2CA                     add.w      A1, A2
0000186E  48E1 F000                movem.l    -[A1], D0,D1,D2,D3
00001872  D2CA                     add.w      A1, A2
00001874  48E1 F000                movem.l    -[A1], D0,D1,D2,D3
00001878  D2CA                     add.w      A1, A2
0000187A  48E1 F000                movem.l    -[A1], D0,D1,D2,D3
0000187E  D2CA                     add.w      A1, A2
00001880  48E1 F000                movem.l    -[A1], D0,D1,D2,D3
00001884  D2CA                     add.w      A1, A2
00001886  48E1 F000                movem.l    -[A1], D0,D1,D2,D3
0000188A  D2CA                     add.w      A1, A2
0000188C  48E1 F000                movem.l    -[A1], D0,D1,D2,D3
00001890  D2CA                     add.w      A1, A2
00001892  48E1 F000                movem.l    -[A1], D0,D1,D2,D3
00001896  D2CA                     add.w      A1, A2
00001898  48E1 F000                movem.l    -[A1], D0,D1,D2,D3
0000189C  D2CA                     add.w      A1, A2
0000189E  48E1 F000                movem.l    -[A1], D0,D1,D2,D3
000018A2  D2CA                     add.w      A1, A2
000018A4  48E1 F000                movem.l    -[A1], D0,D1,D2,D3
000018A8  D2CA                     add.w      A1, A2
000018AA  48E1 F000                movem.l    -[A1], D0,D1,D2,D3
000018AE  D2CA                     add.w      A1, A2
000018B0  4E75                     rts
000018B2  D2FC 0020                add.w      A1, 0x20 /* ' ' */
000018B6  D6FC 0020                add.w      A3, 0x20 /* ' ' */
000018BA  94FC 0020                sub.w      A2, 0x20 /* ' ' */
000018BE  4CD8 00FF                movem.l    D0,D1,D2,D3,D4,D5,D6,D7, [A0]+
000018C2  48E1 FF00                movem.l    -[A1], D0,D1,D2,D3,D4,D5,D6,D7
000018C6  D0CA                     add.w      A0, A2
000018C8  D2CB                     add.w      A1, A3
000018CA  4CD8 00FF                movem.l    D0,D1,D2,D3,D4,D5,D6,D7, [A0]+
000018CE  48E1 FF00                movem.l    -[A1], D0,D1,D2,D3,D4,D5,D6,D7
000018D2  D0CA                     add.w      A0, A2
000018D4  D2CB                     add.w      A1, A3
000018D6  4CD8 00FF                movem.l    D0,D1,D2,D3,D4,D5,D6,D7, [A0]+
000018DA  48E1 FF00                movem.l    -[A1], D0,D1,D2,D3,D4,D5,D6,D7
000018DE  D0CA                     add.w      A0, A2
000018E0  D2CB                     add.w      A1, A3
000018E2  4CD8 00FF                movem.l    D0,D1,D2,D3,D4,D5,D6,D7, [A0]+
000018E6  48E1 FF00                movem.l    -[A1], D0,D1,D2,D3,D4,D5,D6,D7
000018EA  D0CA                     add.w      A0, A2
000018EC  D2CB                     add.w      A1, A3
000018EE  4CD8 00FF                movem.l    D0,D1,D2,D3,D4,D5,D6,D7, [A0]+
000018F2  48E1 FF00                movem.l    -[A1], D0,D1,D2,D3,D4,D5,D6,D7
000018F6  D0CA                     add.w      A0, A2
000018F8  D2CB                     add.w      A1, A3
000018FA  4CD8 00FF                movem.l    D0,D1,D2,D3,D4,D5,D6,D7, [A0]+
000018FE  48E1 FF00                movem.l    -[A1], D0,D1,D2,D3,D4,D5,D6,D7
00001902  D0CA                     add.w      A0, A2
00001904  D2CB                     add.w      A1, A3
00001906  4CD8 00FF                movem.l    D0,D1,D2,D3,D4,D5,D6,D7, [A0]+
0000190A  48E1 FF00                movem.l    -[A1], D0,D1,D2,D3,D4,D5,D6,D7
0000190E  D0CA                     add.w      A0, A2
00001910  D2CB                     add.w      A1, A3
00001912  4CD8 00FF                movem.l    D0,D1,D2,D3,D4,D5,D6,D7, [A0]+
00001916  48E1 FF00                movem.l    -[A1], D0,D1,D2,D3,D4,D5,D6,D7
0000191A  D0CA                     add.w      A0, A2
0000191C  D2CB                     add.w      A1, A3
0000191E  4CD8 00FF                movem.l    D0,D1,D2,D3,D4,D5,D6,D7, [A0]+
00001922  48E1 FF00                movem.l    -[A1], D0,D1,D2,D3,D4,D5,D6,D7
00001926  D0CA                     add.w      A0, A2
00001928  D2CB                     add.w      A1, A3
0000192A  4CD8 00FF                movem.l    D0,D1,D2,D3,D4,D5,D6,D7, [A0]+
0000192E  48E1 FF00                movem.l    -[A1], D0,D1,D2,D3,D4,D5,D6,D7
00001932  D0CA                     add.w      A0, A2
00001934  D2CB                     add.w      A1, A3
00001936  4CD8 00FF                movem.l    D0,D1,D2,D3,D4,D5,D6,D7, [A0]+
0000193A  48E1 FF00                movem.l    -[A1], D0,D1,D2,D3,D4,D5,D6,D7
0000193E  D0CA                     add.w      A0, A2
00001940  D2CB                     add.w      A1, A3
00001942  4CD8 00FF                movem.l    D0,D1,D2,D3,D4,D5,D6,D7, [A0]+
00001946  48E1 FF00                movem.l    -[A1], D0,D1,D2,D3,D4,D5,D6,D7
0000194A  D0CA                     add.w      A0, A2
0000194C  D2CB                     add.w      A1, A3
0000194E  4CD8 00FF                movem.l    D0,D1,D2,D3,D4,D5,D6,D7, [A0]+
00001952  48E1 FF00                movem.l    -[A1], D0,D1,D2,D3,D4,D5,D6,D7
00001956  D0CA                     add.w      A0, A2
00001958  D2CB                     add.w      A1, A3
0000195A  4CD8 00FF                movem.l    D0,D1,D2,D3,D4,D5,D6,D7, [A0]+
0000195E  48E1 FF00                movem.l    -[A1], D0,D1,D2,D3,D4,D5,D6,D7
00001962  D0CA                     add.w      A0, A2
00001964  D2CB                     add.w      A1, A3
00001966  4CD8 00FF                movem.l    D0,D1,D2,D3,D4,D5,D6,D7, [A0]+
0000196A  48E1 FF00                movem.l    -[A1], D0,D1,D2,D3,D4,D5,D6,D7
0000196E  D0CA                     add.w      A0, A2
00001970  D2CB                     add.w      A1, A3
00001972  4CD8 00FF                movem.l    D0,D1,D2,D3,D4,D5,D6,D7, [A0]+
00001976  48E1 FF00                movem.l    -[A1], D0,D1,D2,D3,D4,D5,D6,D7
0000197A  D0CA                     add.w      A0, A2
0000197C  D2CB                     add.w      A1, A3
0000197E  4CD8 00FF                movem.l    D0,D1,D2,D3,D4,D5,D6,D7, [A0]+
00001982  48E1 FF00                movem.l    -[A1], D0,D1,D2,D3,D4,D5,D6,D7
00001986  D0CA                     add.w      A0, A2
00001988  D2CB                     add.w      A1, A3
0000198A  4CD8 00FF                movem.l    D0,D1,D2,D3,D4,D5,D6,D7, [A0]+
0000198E  48E1 FF00                movem.l    -[A1], D0,D1,D2,D3,D4,D5,D6,D7
00001992  D0CA                     add.w      A0, A2
00001994  D2CB                     add.w      A1, A3
00001996  4CD8 00FF                movem.l    D0,D1,D2,D3,D4,D5,D6,D7, [A0]+
0000199A  48E1 FF00                movem.l    -[A1], D0,D1,D2,D3,D4,D5,D6,D7
0000199E  D0CA                     add.w      A0, A2
000019A0  D2CB                     add.w      A1, A3
000019A2  4CD8 00FF                movem.l    D0,D1,D2,D3,D4,D5,D6,D7, [A0]+
000019A6  48E1 FF00                movem.l    -[A1], D0,D1,D2,D3,D4,D5,D6,D7
000019AA  D0CA                     add.w      A0, A2
000019AC  D2CB                     add.w      A1, A3
000019AE  4CD8 00FF                movem.l    D0,D1,D2,D3,D4,D5,D6,D7, [A0]+
000019B2  48E1 FF00                movem.l    -[A1], D0,D1,D2,D3,D4,D5,D6,D7
000019B6  D0CA                     add.w      A0, A2
000019B8  D2CB                     add.w      A1, A3
000019BA  4CD8 00FF                movem.l    D0,D1,D2,D3,D4,D5,D6,D7, [A0]+
000019BE  48E1 FF00                movem.l    -[A1], D0,D1,D2,D3,D4,D5,D6,D7
000019C2  D0CA                     add.w      A0, A2
000019C4  D2CB                     add.w      A1, A3
000019C6  4CD8 00FF                movem.l    D0,D1,D2,D3,D4,D5,D6,D7, [A0]+
000019CA  48E1 FF00                movem.l    -[A1], D0,D1,D2,D3,D4,D5,D6,D7
000019CE  D0CA                     add.w      A0, A2
000019D0  D2CB                     add.w      A1, A3
000019D2  4CD8 00FF                movem.l    D0,D1,D2,D3,D4,D5,D6,D7, [A0]+
000019D6  48E1 FF00                movem.l    -[A1], D0,D1,D2,D3,D4,D5,D6,D7
000019DA  D0CA                     add.w      A0, A2
000019DC  D2CB                     add.w      A1, A3
000019DE  4CD8 00FF                movem.l    D0,D1,D2,D3,D4,D5,D6,D7, [A0]+
000019E2  48E1 FF00                movem.l    -[A1], D0,D1,D2,D3,D4,D5,D6,D7
000019E6  D0CA                     add.w      A0, A2
000019E8  D2CB                     add.w      A1, A3
000019EA  4CD8 00FF                movem.l    D0,D1,D2,D3,D4,D5,D6,D7, [A0]+
000019EE  48E1 FF00                movem.l    -[A1], D0,D1,D2,D3,D4,D5,D6,D7
000019F2  D0CA                     add.w      A0, A2
000019F4  D2CB                     add.w      A1, A3
000019F6  4CD8 00FF                movem.l    D0,D1,D2,D3,D4,D5,D6,D7, [A0]+
000019FA  48E1 FF00                movem.l    -[A1], D0,D1,D2,D3,D4,D5,D6,D7
000019FE  D0CA                     add.w      A0, A2
00001A00  D2CB                     add.w      A1, A3
00001A02  4CD8 00FF                movem.l    D0,D1,D2,D3,D4,D5,D6,D7, [A0]+
00001A06  48E1 FF00                movem.l    -[A1], D0,D1,D2,D3,D4,D5,D6,D7
00001A0A  D0CA                     add.w      A0, A2
00001A0C  D2CB                     add.w      A1, A3
00001A0E  4CD8 00FF                movem.l    D0,D1,D2,D3,D4,D5,D6,D7, [A0]+
00001A12  48E1 FF00                movem.l    -[A1], D0,D1,D2,D3,D4,D5,D6,D7
00001A16  D0CA                     add.w      A0, A2
00001A18  D2CB                     add.w      A1, A3
00001A1A  4CD8 00FF                movem.l    D0,D1,D2,D3,D4,D5,D6,D7, [A0]+
00001A1E  48E1 FF00                movem.l    -[A1], D0,D1,D2,D3,D4,D5,D6,D7
00001A22  D0CA                     add.w      A0, A2
00001A24  D2CB                     add.w      A1, A3
00001A26  4CD8 00FF                movem.l    D0,D1,D2,D3,D4,D5,D6,D7, [A0]+
00001A2A  48E1 FF00                movem.l    -[A1], D0,D1,D2,D3,D4,D5,D6,D7
00001A2E  D0CA                     add.w      A0, A2
00001A30  D2CB                     add.w      A1, A3
00001A32  4CD8 00FF                movem.l    D0,D1,D2,D3,D4,D5,D6,D7, [A0]+
00001A36  48E1 FF00                movem.l    -[A1], D0,D1,D2,D3,D4,D5,D6,D7
00001A3A  D0CA                     add.w      A0, A2
00001A3C  D2CB                     add.w      A1, A3
00001A3E  4E75                     rts
label00001A40:
00001A40  4A6D F7E2                tst.w      [A5 - 0x81E]
00001A44  6750                     beq        +0x52 /* 00001A96 */
00001A46  202D F7D4                move.l     D0, [A5 - 0x82C]
00001A4A  2238 016A                move.l     D1, [0x0000016A /* Ticks */]
00001A4E  9280                     sub.l      D1, D0
00001A50  B2AD F7D0                cmp.l      D1, [A5 - 0x830]
00001A54  6D40                     blt        +0x42 /* 00001A96 */
00001A56  2B78 016A F7D4           move.l     [A5 - 0x82C], [0x0000016A /* Ticks */]
00001A5C  4A6D F7D8                tst.w      [A5 - 0x828]
00001A60  671A                     beq        +0x1C /* 00001A7C */
00001A62  426D F7D8                clr.w      [A5 - 0x828]
00001A66  48E7 E0E0                movem.l    -[A7], D0,D1,D2,A0,A1,A2
00001A6A  2F2D F8E4                move.l     -[A7], [A5 - 0x71C]
00001A6E  4267                     clr.w      -[A7]
00001A70  42A7                     clr.l      -[A7]
00001A72  4EAD 00BA                jsr        [A5 + 0xBA /* export_19, CODE:3 @ 00001E74 */]
00001A76  4CDF 0707                movem.l    D0,D1,D2,A0,A1,A2, [A7]+
00001A7A  601A                     bra        +0x1C /* 00001A96 */
label00001A7C:
00001A7C  3B7C 0001 F7D8           move.w     [A5 - 0x828], 0x1
00001A82  48E7 E0E0                movem.l    -[A7], D0,D1,D2,A0,A1,A2
00001A86  2F2D F8E8                move.l     -[A7], [A5 - 0x718]
00001A8A  4267                     clr.w      -[A7]
00001A8C  42A7                     clr.l      -[A7]
00001A8E  4EAD 00BA                jsr        [A5 + 0xBA /* export_19, CODE:3 @ 00001E74 */]
00001A92  4CDF 0707                movem.l    D0,D1,D2,A0,A1,A2, [A7]+
label00001A96:
00001A96  4CDF 7FFF                movem.l    D0,D1,D2,D3,D4,D5,D6,D7,A0,A1,A2,A3,A4,A5,A6, [A7]+
00001A9A  4E75                     rts
export_66:
fn00001A9C:
00001A9C  4E56 FFFC                link       A6, -0x0004
00001AA0  42A7                     clr.l      -[A7]
00001AA2  AA32                     syscall    GetGDevice
00001AA4  2D5F FFFC                move.l     [A6 - 0x4], [A7]+
00001AA8  2F2D F20C                move.l     -[A7], [A5 - 0xDF4]
00001AAC  AA31                     syscall    SetGDevice
00001AAE  486D F3CC                pea.l      [A5 - 0xC34]
00001AB2  2F2D F7AC                move.l     -[A7], [A5 - 0x854]
00001AB6  A855                     syscall    ShieldCursor
00001AB8  4A6D F7C6                tst.w      [A5 - 0x83A]
00001ABC  6700 02C0                beq        +0x2C2 /* 00001D7E */
00001AC0  4A6D F7BA                tst.w      [A5 - 0x846]
00001AC4  6700 02B8                beq        +0x2BA /* 00001D7E */
00001AC8  4A6D F1FA                tst.w      [A5 - 0xE06]
00001ACC  661A                     bne        +0x1C /* 00001AE8 */
00001ACE  202D F7C2                move.l     D0, [A5 - 0x83E]
00001AD2  2238 016A                move.l     D1, [0x0000016A /* Ticks */]
00001AD6  9280                     sub.l      D1, D0
00001AD8  0C81 0000 0002           cmpi.l     D1, 0x2
00001ADE  6D00 029E                blt        +0x2A0 /* 00001D7E */
00001AE2  2B78 016A F7C2           move.l     [A5 - 0x83E], [0x0000016A /* Ticks */]
label00001AE8:
00001AE8  54AD F784                addq.l     [A5 - 0x87C], 2
00001AEC  48E7 FFFE                movem.l    -[A7], D0,D1,D2,D3,D4,D5,D6,D7,A0,A1,A2,A3,A4,A5,A6
00001AF0  4280                     clr.l      D0
00001AF2  103C 0001                move.b     D0, 0x1
00001AF6  A05D                     syscall    SwapMMUMode
00001AF8  41FA 0846                lea.l      A0, [PC + 0x846 /* 00002340, value 0xA853, cstring "" */]
00001AFC  1080                     move.b     [A0], D0
00001AFE  4A6D F7E2                tst.w      [A5 - 0x81E]
00001B02  6738                     beq        +0x3A /* 00001B3C */
00001B04  4287                     clr.l      D7
00001B06  3E3C 001E                move.w     D7, 0x1E
00001B0A  5347                     subq.w     D7, 1
00001B0C  246D F210                movea.l    A2, [A5 - 0xDF0]
00001B10  47ED F6B0                lea.l      A3, [A5 - 0x950]
label00001B14:
00001B14  3007                     move.w     D0, D7
00001B16  E540                     asl        D0.w, 2
00001B18  2873 0000                movea.l    A4, [A3 + D0.w]
00001B1C  3214                     move.w     D1, [A4]
00001B1E  302C 0002                move.w     D0, [A4 + 0x2]
00001B22  362C 0004                move.w     D3, [A4 + 0x4]
00001B26  D26D F214                add.w      D1, [A5 - 0xDEC]
00001B2A  D06D F216                add.w      D0, [A5 - 0xDEA]
00001B2E  E540                     asl        D0.w, 2
00001B30  2272 0000                movea.l    A1, [A2 + D0.w]
00001B34  D2C1                     add.w      A1, D1
00001B36  1283                     move.b     [A1], D3
00001B38  51CF FFDA                dbf        D7, -0x28 /* 00001B14 */
label00001B3C:
00001B3C  246D F210                movea.l    A2, [A5 - 0xDF0]
00001B40  47ED F234                lea.l      A3, [A5 - 0xDCC]
00001B44  2C6D F3D8                movea.l    A6, [A5 - 0xC28]
00001B48  4285                     clr.l      D5
00001B4A  3A2D F3DC                move.w     D5, [A5 - 0xC24]
00001B4E  4286                     clr.l      D6
00001B50  3C2D F3C6                move.w     D6, [A5 - 0xC3A]
00001B54  3E2D F7C6                move.w     D7, [A5 - 0x83A]
00001B58  5347                     subq.w     D7, 1
label00001B5A:
00001B5A  3007                     move.w     D0, D7
00001B5C  E540                     asl        D0.w, 2
00001B5E  2873 0000                movea.l    A4, [A3 + D0.w]
00001B62  302C 0014                move.w     D0, [A4 + 0x14]
00001B66  B06C 0010                cmp.w      D0, [A4 + 0x10]
00001B6A  6D04                     blt        +0x6 /* 00001B70 */
00001B6C  302C 0010                move.w     D0, [A4 + 0x10]
label00001B70:
00001B70  322C 0012                move.w     D1, [A4 + 0x12]
00001B74  B26C 000E                cmp.w      D1, [A4 + 0xE]
00001B78  6D04                     blt        +0x6 /* 00001B7E */
00001B7A  322C 000E                move.w     D1, [A4 + 0xE]
label00001B7E:
00001B7E  E840                     asr        D0.w, 4
00001B80  E841                     asr        D1.w, 4
00001B82  206C 0020                movea.l    A0, [A4 + 0x20]
00001B86  4A68 0002                tst.w      [A0 + 0x2]
00001B8A  6646                     bne        +0x48 /* 00001BD2 */
00001B8C  342D F228                move.w     D2, [A5 - 0xDD8]
00001B90  9441                     sub.w      D2, D1
00001B92  4A42                     tst.w      D2
00001B94  6C02                     bge        +0x4 /* 00001B98 */
00001B96  D242                     add.w      D1, D2
label00001B98:
00001B98  342D F22A                move.w     D2, [A5 - 0xDD6]
00001B9C  9440                     sub.w      D2, D0
00001B9E  4A42                     tst.w      D2
00001BA0  6C02                     bge        +0x4 /* 00001BA4 */
00001BA2  D042                     add.w      D0, D2
label00001BA4:
00001BA4  3400                     move.w     D2, D0
00001BA6  3601                     move.w     D3, D1
00001BA8  0440 0020                subi.w     D0, 0x20 /* ' ' */
00001BAC  4A40                     tst.w      D0
00001BAE  6C02                     bge        +0x4 /* 00001BB2 */
00001BB0  4240                     clr.w      D0
label00001BB2:
00001BB2  0441 0020                subi.w     D1, 0x20 /* ' ' */
00001BB6  4A41                     tst.w      D1
00001BB8  6C02                     bge        +0x4 /* 00001BBC */
00001BBA  4241                     clr.w      D1
label00001BBC:
00001BBC  0C42 0020                cmpi.w     D2, 0x20 /* ' ' */
00001BC0  6C04                     bge        +0x6 /* 00001BC6 */
00001BC2  343C 0020                move.w     D2, 0x20 /* ' ' */
label00001BC6:
00001BC6  0C43 0020                cmpi.w     D3, 0x20 /* ' ' */
00001BCA  6C04                     bge        +0x6 /* 00001BD0 */
00001BCC  363C 0020                move.w     D3, 0x20 /* ' ' */
label00001BD0:
00001BD0  6044                     bra        +0x46 /* 00001C16 */
label00001BD2:
00001BD2  342D F232                move.w     D2, [A5 - 0xDCE]
00001BD6  9441                     sub.w      D2, D1
00001BD8  4A42                     tst.w      D2
00001BDA  6C02                     bge        +0x4 /* 00001BDE */
00001BDC  D242                     add.w      D1, D2
label00001BDE:
00001BDE  342D F230                move.w     D2, [A5 - 0xDD0]
00001BE2  9440                     sub.w      D2, D0
00001BE4  4A42                     tst.w      D2
00001BE6  6C02                     bge        +0x4 /* 00001BEA */
00001BE8  D042                     add.w      D0, D2
label00001BEA:
00001BEA  3400                     move.w     D2, D0
00001BEC  3601                     move.w     D3, D1
00001BEE  0440 0020                subi.w     D0, 0x20 /* ' ' */
00001BF2  4A40                     tst.w      D0
00001BF4  6C02                     bge        +0x4 /* 00001BF8 */
00001BF6  4240                     clr.w      D0
label00001BF8:
00001BF8  0441 0020                subi.w     D1, 0x20 /* ' ' */
00001BFC  4A41                     tst.w      D1
00001BFE  6C02                     bge        +0x4 /* 00001C02 */
00001C00  4241                     clr.w      D1
label00001C02:
00001C02  0C42 0020                cmpi.w     D2, 0x20 /* ' ' */
00001C06  6C04                     bge        +0x6 /* 00001C0C */
00001C08  343C 0020                move.w     D2, 0x20 /* ' ' */
label00001C0C:
00001C0C  0C43 0020                cmpi.w     D3, 0x20 /* ' ' */
00001C10  6C04                     bge        +0x6 /* 00001C16 */
00001C12  363C 0020                move.w     D3, 0x20 /* ' ' */
label00001C16:
00001C16  D26D F214                add.w      D1, [A5 - 0xDEC]
00001C1A  D06D F216                add.w      D0, [A5 - 0xDEA]
00001C1E  E540                     asl        D0.w, 2
00001C20  E542                     asl        D2.w, 2
00001C22  206C 0020                movea.l    A0, [A4 + 0x20]
00001C26  4A68 0002                tst.w      [A0 + 0x2]
00001C2A  661E                     bne        +0x20 /* 00001C4A */
00001C2C  2076 2000                movea.l    A0, [A6 + D2.w]
00001C30  D0C3                     add.w      A0, D3
00001C32  2272 0000                movea.l    A1, [A2 + D0.w]
00001C36  D2C1                     add.w      A1, D1
00001C38  48E7 0730                movem.l    -[A7], D5,D6,D7,A2,A3
00001C3C  2646                     movea.l    A3, D6
00001C3E  2445                     movea.l    A2, D5
00001C40  4EBA 0334                jsr        [PC + 0x334 /* 00001F76 */]
00001C44  4CDF 0CE0                movem.l    D5,D6,D7,A2,A3, [A7]+
00001C48  601C                     bra        +0x1E /* 00001C66 */
label00001C4A:
00001C4A  2076 2000                movea.l    A0, [A6 + D2.w]
00001C4E  D0C3                     add.w      A0, D3
00001C50  2272 0000                movea.l    A1, [A2 + D0.w]
00001C54  D2C1                     add.w      A1, D1
00001C56  48E7 0730                movem.l    -[A7], D5,D6,D7,A2,A3
00001C5A  2646                     movea.l    A3, D6
00001C5C  2445                     movea.l    A2, D5
00001C5E  4EBA 01E8                jsr        [PC + 0x1E8 /* 00001E48 */]
00001C62  4CDF 0CE0                movem.l    D5,D6,D7,A2,A3, [A7]+
label00001C66:
00001C66  51CF FEF2                dbf        D7, -0x110 /* 00001B5A */
00001C6A  4A6D F7E2                tst.w      [A5 - 0x81E]
00001C6E  6700 00FE                beq        +0x100 /* 00001D6E */
00001C72  4287                     clr.l      D7
00001C74  3E3C 0012                move.w     D7, 0x12
00001C78  5347                     subq.w     D7, 1
00001C7A  246D F210                movea.l    A2, [A5 - 0xDF0]
00001C7E  47ED F668                lea.l      A3, [A5 - 0x998]
00001C82  4DED F620                lea.l      A6, [A5 - 0x9E0]
00001C86  4286                     clr.l      D6
00001C88  3C2D F3C6                move.w     D6, [A5 - 0xC3A]
label00001C8C:
00001C8C  3A3C 0001                move.w     D5, 0x1
label00001C90:
00001C90  3007                     move.w     D0, D7
00001C92  E540                     asl        D0.w, 2
00001C94  2876 0000                movea.l    A4, [A6 + D0.w]
00001C98  4A45                     tst.w      D5
00001C9A  6704                     beq        +0x6 /* 00001CA0 */
00001C9C  2873 0000                movea.l    A4, [A3 + D0.w]
label00001CA0:
00001CA0  4A6C 0002                tst.w      [A4 + 0x2]
00001CA4  6638                     bne        +0x3A /* 00001CDE */
00001CA6  4EBA 00DA                jsr        [PC + 0xDA /* 00001D82 */]
00001CAA  4A42                     tst.w      D2
00001CAC  6736                     beq        +0x38 /* 00001CE4 */
00001CAE  D26D F214                add.w      D1, [A5 - 0xDEC]
00001CB2  D06D F216                add.w      D0, [A5 - 0xDEA]
00001CB6  E540                     asl        D0.w, 2
00001CB8  2272 0000                movea.l    A1, [A2 + D0.w]
00001CBC  D2C1                     add.w      A1, D1
00001CBE  22BC FFFF FFFF           move.l     [A1], 0xFFFFFFFF
00001CC4  D2C6                     add.w      A1, D6
00001CC6  22BC FFFF FFFF           move.l     [A1], 0xFFFFFFFF
00001CCC  D2C6                     add.w      A1, D6
00001CCE  22BC FFFF FFFF           move.l     [A1], 0xFFFFFFFF
00001CD4  D2C6                     add.w      A1, D6
00001CD6  22BC FFFF FFFF           move.l     [A1], 0xFFFFFFFF
00001CDC  6006                     bra        +0x8 /* 00001CE4 */
label00001CDE:
00001CDE  296D F784 000C           move.l     [A4 + 0xC], [A5 - 0x87C]
label00001CE4:
00001CE4  4EBA 00E2                jsr        [PC + 0xE2 /* 00001DC8 */]
00001CE8  4EBA 0098                jsr        [PC + 0x98 /* 00001D82 */]
00001CEC  4A42                     tst.w      D2
00001CEE  6776                     beq        +0x78 /* 00001D66 */
00001CF0  426C 0002                clr.w      [A4 + 0x2]
00001CF4  D26D F214                add.w      D1, [A5 - 0xDEC]
00001CF8  D06D F216                add.w      D0, [A5 - 0xDEA]
00001CFC  E540                     asl        D0.w, 2
00001CFE  2272 0000                movea.l    A1, [A2 + D0.w]
00001D02  D2C1                     add.w      A1, D1
00001D04  4A45                     tst.w      D5
00001D06  6720                     beq        +0x22 /* 00001D28 */
00001D08  22BC F0CC CCF0           move.l     [A1], 0xF0CCCCF0
00001D0E  D2C6                     add.w      A1, D6
00001D10  22BC CC96 C6CC           move.l     [A1], 0xCC96C6CC
00001D16  D2C6                     add.w      A1, D6
00001D18  22BC CCC6 C6CC           move.l     [A1], 0xCCC6C6CC
00001D1E  D2C6                     add.w      A1, D6
00001D20  22BC F0CC CCF0           move.l     [A1], 0xF0CCCCF0
00001D26  601E                     bra        +0x20 /* 00001D46 */
label00001D28:
00001D28  22BC DCDA DADC           move.l     [A1], 0xDCDADADC
00001D2E  D2C6                     add.w      A1, D6
00001D30  22BC DA17 23DA           move.l     [A1], 0xDA1723DA
00001D36  D2C6                     add.w      A1, D6
00001D38  22BC DA23 23DA           move.l     [A1], 0xDA2323DA
00001D3E  D2C6                     add.w      A1, D6
00001D40  22BC DCDA DADC           move.l     [A1], 0xDCDADADC
label00001D46:
00001D46  302C 000A                move.w     D0, [A4 + 0xA]
00001D4A  E840                     asr        D0.w, 4
00001D4C  3940 0010                move.w     [A4 + 0x10], D0
00001D50  5840                     addq.w     D0, 4
00001D52  3940 0014                move.w     [A4 + 0x14], D0
00001D56  302C 0008                move.w     D0, [A4 + 0x8]
00001D5A  E840                     asr        D0.w, 4
00001D5C  3940 0012                move.w     [A4 + 0x12], D0
00001D60  5840                     addq.w     D0, 4
00001D62  3940 0016                move.w     [A4 + 0x16], D0
label00001D66:
00001D66  51CD FF28                dbf        D5, -0xDA /* 00001C90 */
00001D6A  51CF FF20                dbf        D7, -0xE2 /* 00001C8C */
label00001D6E:
00001D6E  4280                     clr.l      D0
00001D70  103A 05CE                move.b     D0, [PC + 0x5CE /* 00002340, value 0x0, cstring "" */]
00001D74  A05D                     syscall    SwapMMUMode
00001D76  4CDF 7FFF                movem.l    D0,D1,D2,D3,D4,D5,D6,D7,A0,A1,A2,A3,A4,A5,A6, [A7]+
00001D7A  426D F7BA                clr.w      [A5 - 0x846]
label00001D7E:
00001D7E  6000 05C2                bra        +0x5C4 /* 00002342 */
fn00001D82:
00001D82  4A54                     tst.w      [A4]
00001D84  673E                     beq        +0x40 /* 00001DC4 */
00001D86  0C54 FFFF                cmpi.w     [A4], 0xFFFF
00001D8A  6602                     bne        +0x4 /* 00001D8E */
00001D8C  4254                     clr.w      [A4]
label00001D8E:
00001D8E  322C 0008                move.w     D1, [A4 + 0x8]
00001D92  302C 000A                move.w     D0, [A4 + 0xA]
00001D96  E840                     asr        D0.w, 4
00001D98  E841                     asr        D1.w, 4
00001D9A  342D F22C                move.w     D2, [A5 - 0xDD4]
00001D9E  9441                     sub.w      D2, D1
00001DA0  4A42                     tst.w      D2
00001DA2  6D20                     blt        +0x22 /* 00001DC4 */
00001DA4  342D F22E                move.w     D2, [A5 - 0xDD2]
00001DA8  9440                     sub.w      D2, D0
00001DAA  4A42                     tst.w      D2
00001DAC  6D16                     blt        +0x18 /* 00001DC4 */
00001DAE  0440 0020                subi.w     D0, 0x20 /* ' ' */
00001DB2  4A40                     tst.w      D0
00001DB4  6D0E                     blt        +0x10 /* 00001DC4 */
00001DB6  0441 0020                subi.w     D1, 0x20 /* ' ' */
00001DBA  4A41                     tst.w      D1
00001DBC  6D06                     blt        +0x8 /* 00001DC4 */
00001DBE  343C 0001                move.w     D2, 0x1
00001DC2  4E75                     rts
label00001DC4:
00001DC4  4242 4E75 4A54 6720      dc.b       "BBNuJTg "
// begin alternate branch 00001DC8-00001DCC
fn00001DC8:
00001DC8  4A54                     tst.w      [A4]
00001DCA  6720                     beq        +0x22 /* 00001DEC */
// end alternate branch 00001DC8-00001DCC
fn00001DC8: // (misaligned)
00001DCC  202C 000C                move.l     D0, [A4 + 0xC]
00001DD0  222D F784                move.l     D1, [A5 - 0x87C]
00001DD4  9280                     sub.l      D1, D0
00001DD6  4A45                     tst.w      D5
00001DD8  6708                     beq        +0xA /* 00001DE2 */
00001DDA  4A6D F82E                tst.w      [A5 - 0x7D2]
00001DDE  6702                     beq        +0x4 /* 00001DE2 */
00001DE0  E241                     asr        D1.w, 1
label00001DE2:
00001DE2  0C81 0000 003C           cmpi.l     D1, 0x3C /* '<' */
00001DE8  6D04                     blt        +0x6 /* 00001DEE */
00001DEA  4254                     clr.w      [A4]
label00001DEC:
00001DEC  4E75                     rts
label00001DEE:
00001DEE  302C 0008                move.w     D0, [A4 + 0x8]
00001DF2  D06C 0004                add.w      D0, [A4 + 0x4]
00001DF6  2200                     move.l     D1, D0
00001DF8  E840                     asr        D0.w, 4
00001DFA  B06D F222                cmp.w      D0, [A5 - 0xDDE]
00001DFE  6C08                     bge        +0xA /* 00001E08 */
00001E00  302D F226                move.w     D0, [A5 - 0xDDA]
00001E04  2200                     move.l     D1, D0
00001E06  E941                     asl        D1.w, 4
label00001E08:
00001E08  B06D F226                cmp.w      D0, [A5 - 0xDDA]
00001E0C  6F08                     ble        +0xA /* 00001E16 */
00001E0E  302D F222                move.w     D0, [A5 - 0xDDE]
00001E12  2200                     move.l     D1, D0
00001E14  E941                     asl        D1.w, 4
label00001E16:
00001E16  3941 0008                move.w     [A4 + 0x8], D1
00001E1A  302C 000A                move.w     D0, [A4 + 0xA]
00001E1E  D06C 0006                add.w      D0, [A4 + 0x6]
00001E22  2200                     move.l     D1, D0
00001E24  E840                     asr        D0.w, 4
00001E26  B06D F220                cmp.w      D0, [A5 - 0xDE0]
00001E2A  6C08                     bge        +0xA /* 00001E34 */
00001E2C  302D F224                move.w     D0, [A5 - 0xDDC]
00001E30  2200                     move.l     D1, D0
00001E32  E941                     asl        D1.w, 4
label00001E34:
00001E34  B06D F224                cmp.w      D0, [A5 - 0xDDC]
00001E38  6F08                     ble        +0xA /* 00001E42 */
00001E3A  302D F220                move.w     D0, [A5 - 0xDE0]
00001E3E  2200                     move.l     D1, D0
00001E40  E941                     asl        D1.w, 4
label00001E42:
00001E42  3941 000A                move.w     [A4 + 0xA], D1
00001E46  4E75                     rts
fn00001E48:
00001E48  D2FC 0018                add.w      A1, 0x18
00001E4C  94FC 0018                sub.w      A2, 0x18
00001E50  D6FC 0018                add.w      A3, 0x18
00001E54  4CD8 003F                movem.l    D0,D1,D2,D3,D4,D5, [A0]+
00001E58  48E1 FC00                movem.l    -[A1], D0,D1,D2,D3,D4,D5
00001E5C  D0CA                     add.w      A0, A2
00001E5E  D2CB                     add.w      A1, A3
00001E60  4CD8 003F                movem.l    D0,D1,D2,D3,D4,D5, [A0]+
00001E64  48E1 FC00                movem.l    -[A1], D0,D1,D2,D3,D4,D5
00001E68  D0CA                     add.w      A0, A2
00001E6A  D2CB                     add.w      A1, A3
00001E6C  4CD8 003F                movem.l    D0,D1,D2,D3,D4,D5, [A0]+
00001E70  48E1 FC00                movem.l    -[A1], D0,D1,D2,D3,D4,D5
00001E74  D0CA                     add.w      A0, A2
00001E76  D2CB                     add.w      A1, A3
00001E78  4CD8 003F                movem.l    D0,D1,D2,D3,D4,D5, [A0]+
00001E7C  48E1 FC00                movem.l    -[A1], D0,D1,D2,D3,D4,D5
00001E80  D0CA                     add.w      A0, A2
00001E82  D2CB                     add.w      A1, A3
00001E84  4CD8 003F                movem.l    D0,D1,D2,D3,D4,D5, [A0]+
00001E88  48E1 FC00                movem.l    -[A1], D0,D1,D2,D3,D4,D5
00001E8C  D0CA                     add.w      A0, A2
00001E8E  D2CB                     add.w      A1, A3
00001E90  4CD8 003F                movem.l    D0,D1,D2,D3,D4,D5, [A0]+
00001E94  48E1 FC00                movem.l    -[A1], D0,D1,D2,D3,D4,D5
00001E98  D0CA                     add.w      A0, A2
00001E9A  D2CB                     add.w      A1, A3
00001E9C  4CD8 003F                movem.l    D0,D1,D2,D3,D4,D5, [A0]+
00001EA0  48E1 FC00                movem.l    -[A1], D0,D1,D2,D3,D4,D5
00001EA4  D0CA                     add.w      A0, A2
00001EA6  D2CB                     add.w      A1, A3
00001EA8  4CD8 003F                movem.l    D0,D1,D2,D3,D4,D5, [A0]+
00001EAC  48E1 FC00                movem.l    -[A1], D0,D1,D2,D3,D4,D5
00001EB0  D0CA                     add.w      A0, A2
00001EB2  D2CB                     add.w      A1, A3
00001EB4  4CD8 003F                movem.l    D0,D1,D2,D3,D4,D5, [A0]+
00001EB8  48E1 FC00                movem.l    -[A1], D0,D1,D2,D3,D4,D5
00001EBC  D0CA                     add.w      A0, A2
00001EBE  D2CB                     add.w      A1, A3
00001EC0  4CD8 003F                movem.l    D0,D1,D2,D3,D4,D5, [A0]+
00001EC4  48E1 FC00                movem.l    -[A1], D0,D1,D2,D3,D4,D5
00001EC8  D0CA                     add.w      A0, A2
00001ECA  D2CB                     add.w      A1, A3
00001ECC  4CD8 003F                movem.l    D0,D1,D2,D3,D4,D5, [A0]+
00001ED0  48E1 FC00                movem.l    -[A1], D0,D1,D2,D3,D4,D5
00001ED4  D0CA                     add.w      A0, A2
00001ED6  D2CB                     add.w      A1, A3
00001ED8  4CD8 003F                movem.l    D0,D1,D2,D3,D4,D5, [A0]+
00001EDC  48E1 FC00                movem.l    -[A1], D0,D1,D2,D3,D4,D5
00001EE0  D0CA                     add.w      A0, A2
00001EE2  D2CB                     add.w      A1, A3
00001EE4  4CD8 003F                movem.l    D0,D1,D2,D3,D4,D5, [A0]+
00001EE8  48E1 FC00                movem.l    -[A1], D0,D1,D2,D3,D4,D5
00001EEC  D0CA                     add.w      A0, A2
00001EEE  D2CB                     add.w      A1, A3
00001EF0  4CD8 003F                movem.l    D0,D1,D2,D3,D4,D5, [A0]+
00001EF4  48E1 FC00                movem.l    -[A1], D0,D1,D2,D3,D4,D5
00001EF8  D0CA                     add.w      A0, A2
00001EFA  D2CB                     add.w      A1, A3
00001EFC  4CD8 003F                movem.l    D0,D1,D2,D3,D4,D5, [A0]+
00001F00  48E1 FC00                movem.l    -[A1], D0,D1,D2,D3,D4,D5
00001F04  D0CA                     add.w      A0, A2
00001F06  D2CB                     add.w      A1, A3
00001F08  4CD8 003F                movem.l    D0,D1,D2,D3,D4,D5, [A0]+
00001F0C  48E1 FC00                movem.l    -[A1], D0,D1,D2,D3,D4,D5
00001F10  D0CA                     add.w      A0, A2
00001F12  D2CB                     add.w      A1, A3
00001F14  4CD8 003F                movem.l    D0,D1,D2,D3,D4,D5, [A0]+
00001F18  48E1 FC00                movem.l    -[A1], D0,D1,D2,D3,D4,D5
00001F1C  D0CA                     add.w      A0, A2
00001F1E  D2CB                     add.w      A1, A3
00001F20  4CD8 003F                movem.l    D0,D1,D2,D3,D4,D5, [A0]+
00001F24  48E1 FC00                movem.l    -[A1], D0,D1,D2,D3,D4,D5
00001F28  D0CA                     add.w      A0, A2
00001F2A  D2CB                     add.w      A1, A3
00001F2C  4CD8 003F                movem.l    D0,D1,D2,D3,D4,D5, [A0]+
00001F30  48E1 FC00                movem.l    -[A1], D0,D1,D2,D3,D4,D5
00001F34  D0CA                     add.w      A0, A2
00001F36  D2CB                     add.w      A1, A3
00001F38  4CD8 003F                movem.l    D0,D1,D2,D3,D4,D5, [A0]+
00001F3C  48E1 FC00                movem.l    -[A1], D0,D1,D2,D3,D4,D5
00001F40  D0CA                     add.w      A0, A2
00001F42  D2CB                     add.w      A1, A3
00001F44  4CD8 003F                movem.l    D0,D1,D2,D3,D4,D5, [A0]+
00001F48  48E1 FC00                movem.l    -[A1], D0,D1,D2,D3,D4,D5
00001F4C  D0CA                     add.w      A0, A2
00001F4E  D2CB                     add.w      A1, A3
00001F50  4CD8 003F                movem.l    D0,D1,D2,D3,D4,D5, [A0]+
00001F54  48E1 FC00                movem.l    -[A1], D0,D1,D2,D3,D4,D5
00001F58  D0CA                     add.w      A0, A2
00001F5A  D2CB                     add.w      A1, A3
00001F5C  4CD8 003F                movem.l    D0,D1,D2,D3,D4,D5, [A0]+
00001F60  48E1 FC00                movem.l    -[A1], D0,D1,D2,D3,D4,D5
00001F64  D0CA                     add.w      A0, A2
00001F66  D2CB                     add.w      A1, A3
00001F68  4CD8 003F                movem.l    D0,D1,D2,D3,D4,D5, [A0]+
00001F6C  48E1 FC00                movem.l    -[A1], D0,D1,D2,D3,D4,D5
00001F70  D0CA                     add.w      A0, A2
00001F72  D2CB                     add.w      A1, A3
00001F74  4E75                     rts
fn00001F76:
00001F76  D2FC 0020                add.w      A1, 0x20 /* ' ' */
00001F7A  94FC 0028                sub.w      A2, 0x28 /* '(' */
00001F7E  4CD8 00FF                movem.l    D0,D1,D2,D3,D4,D5,D6,D7, [A0]+
00001F82  48E1 FF00                movem.l    -[A1], D0,D1,D2,D3,D4,D5,D6,D7
00001F86  D2FC 0028                add.w      A1, 0x28 /* '(' */
00001F8A  4CD8 0003                movem.l    D0,D1, [A0]+
00001F8E  48E1 C000                movem.l    -[A1], D0,D1
00001F92  D0CA                     add.w      A0, A2
00001F94  D2CB                     add.w      A1, A3
00001F96  4CD8 00FF                movem.l    D0,D1,D2,D3,D4,D5,D6,D7, [A0]+
00001F9A  48E1 FF00                movem.l    -[A1], D0,D1,D2,D3,D4,D5,D6,D7
00001F9E  D2FC 0028                add.w      A1, 0x28 /* '(' */
00001FA2  4CD8 0003                movem.l    D0,D1, [A0]+
00001FA6  48E1 C000                movem.l    -[A1], D0,D1
00001FAA  D0CA                     add.w      A0, A2
00001FAC  D2CB                     add.w      A1, A3
00001FAE  4CD8 00FF                movem.l    D0,D1,D2,D3,D4,D5,D6,D7, [A0]+
00001FB2  48E1 FF00                movem.l    -[A1], D0,D1,D2,D3,D4,D5,D6,D7
00001FB6  D2FC 0028                add.w      A1, 0x28 /* '(' */
00001FBA  4CD8 0003                movem.l    D0,D1, [A0]+
00001FBE  48E1 C000                movem.l    -[A1], D0,D1
00001FC2  D0CA                     add.w      A0, A2
00001FC4  D2CB                     add.w      A1, A3
00001FC6  4CD8 00FF                movem.l    D0,D1,D2,D3,D4,D5,D6,D7, [A0]+
00001FCA  48E1 FF00                movem.l    -[A1], D0,D1,D2,D3,D4,D5,D6,D7
00001FCE  D2FC 0028                add.w      A1, 0x28 /* '(' */
00001FD2  4CD8 0003                movem.l    D0,D1, [A0]+
00001FD6  48E1 C000                movem.l    -[A1], D0,D1
00001FDA  D0CA                     add.w      A0, A2
00001FDC  D2CB                     add.w      A1, A3
00001FDE  4CD8 00FF                movem.l    D0,D1,D2,D3,D4,D5,D6,D7, [A0]+
00001FE2  48E1 FF00                movem.l    -[A1], D0,D1,D2,D3,D4,D5,D6,D7
00001FE6  D2FC 0028                add.w      A1, 0x28 /* '(' */
00001FEA  4CD8 0003                movem.l    D0,D1, [A0]+
00001FEE  48E1 C000                movem.l    -[A1], D0,D1
00001FF2  D0CA                     add.w      A0, A2
00001FF4  D2CB                     add.w      A1, A3
00001FF6  4CD8 00FF                movem.l    D0,D1,D2,D3,D4,D5,D6,D7, [A0]+
00001FFA  48E1 FF00                movem.l    -[A1], D0,D1,D2,D3,D4,D5,D6,D7
00001FFE  D2FC 0028                add.w      A1, 0x28 /* '(' */
00002002  4CD8 0003                movem.l    D0,D1, [A0]+
00002006  48E1 C000                movem.l    -[A1], D0,D1
0000200A  D0CA                     add.w      A0, A2
0000200C  D2CB                     add.w      A1, A3
0000200E  4CD8 00FF                movem.l    D0,D1,D2,D3,D4,D5,D6,D7, [A0]+
00002012  48E1 FF00                movem.l    -[A1], D0,D1,D2,D3,D4,D5,D6,D7
00002016  D2FC 0028                add.w      A1, 0x28 /* '(' */
0000201A  4CD8 0003                movem.l    D0,D1, [A0]+
0000201E  48E1 C000                movem.l    -[A1], D0,D1
00002022  D0CA                     add.w      A0, A2
00002024  D2CB                     add.w      A1, A3
00002026  4CD8 00FF                movem.l    D0,D1,D2,D3,D4,D5,D6,D7, [A0]+
0000202A  48E1 FF00                movem.l    -[A1], D0,D1,D2,D3,D4,D5,D6,D7
0000202E  D2FC 0028                add.w      A1, 0x28 /* '(' */
00002032  4CD8 0003                movem.l    D0,D1, [A0]+
00002036  48E1 C000                movem.l    -[A1], D0,D1
0000203A  D0CA                     add.w      A0, A2
0000203C  D2CB                     add.w      A1, A3
0000203E  4CD8 00FF                movem.l    D0,D1,D2,D3,D4,D5,D6,D7, [A0]+
00002042  48E1 FF00                movem.l    -[A1], D0,D1,D2,D3,D4,D5,D6,D7
00002046  D2FC 0028                add.w      A1, 0x28 /* '(' */
0000204A  4CD8 0003                movem.l    D0,D1, [A0]+
0000204E  48E1 C000                movem.l    -[A1], D0,D1
00002052  D0CA                     add.w      A0, A2
00002054  D2CB                     add.w      A1, A3
00002056  4CD8 00FF                movem.l    D0,D1,D2,D3,D4,D5,D6,D7, [A0]+
0000205A  48E1 FF00                movem.l    -[A1], D0,D1,D2,D3,D4,D5,D6,D7
0000205E  D2FC 0028                add.w      A1, 0x28 /* '(' */
00002062  4CD8 0003                movem.l    D0,D1, [A0]+
00002066  48E1 C000                movem.l    -[A1], D0,D1
0000206A  D0CA                     add.w      A0, A2
0000206C  D2CB                     add.w      A1, A3
0000206E  4CD8 00FF                movem.l    D0,D1,D2,D3,D4,D5,D6,D7, [A0]+
00002072  48E1 FF00                movem.l    -[A1], D0,D1,D2,D3,D4,D5,D6,D7
00002076  D2FC 0028                add.w      A1, 0x28 /* '(' */
0000207A  4CD8 0003                movem.l    D0,D1, [A0]+
0000207E  48E1 C000                movem.l    -[A1], D0,D1
00002082  D0CA                     add.w      A0, A2
00002084  D2CB                     add.w      A1, A3
00002086  4CD8 00FF                movem.l    D0,D1,D2,D3,D4,D5,D6,D7, [A0]+
0000208A  48E1 FF00                movem.l    -[A1], D0,D1,D2,D3,D4,D5,D6,D7
0000208E  D2FC 0028                add.w      A1, 0x28 /* '(' */
00002092  4CD8 0003                movem.l    D0,D1, [A0]+
00002096  48E1 C000                movem.l    -[A1], D0,D1
0000209A  D0CA                     add.w      A0, A2
0000209C  D2CB                     add.w      A1, A3
0000209E  4CD8 00FF                movem.l    D0,D1,D2,D3,D4,D5,D6,D7, [A0]+
000020A2  48E1 FF00                movem.l    -[A1], D0,D1,D2,D3,D4,D5,D6,D7
000020A6  D2FC 0028                add.w      A1, 0x28 /* '(' */
000020AA  4CD8 0003                movem.l    D0,D1, [A0]+
000020AE  48E1 C000                movem.l    -[A1], D0,D1
000020B2  D0CA                     add.w      A0, A2
000020B4  D2CB                     add.w      A1, A3
000020B6  4CD8 00FF                movem.l    D0,D1,D2,D3,D4,D5,D6,D7, [A0]+
000020BA  48E1 FF00                movem.l    -[A1], D0,D1,D2,D3,D4,D5,D6,D7
000020BE  D2FC 0028                add.w      A1, 0x28 /* '(' */
000020C2  4CD8 0003                movem.l    D0,D1, [A0]+
000020C6  48E1 C000                movem.l    -[A1], D0,D1
000020CA  D0CA                     add.w      A0, A2
000020CC  D2CB                     add.w      A1, A3
000020CE  4CD8 00FF                movem.l    D0,D1,D2,D3,D4,D5,D6,D7, [A0]+
000020D2  48E1 FF00                movem.l    -[A1], D0,D1,D2,D3,D4,D5,D6,D7
000020D6  D2FC 0028                add.w      A1, 0x28 /* '(' */
000020DA  4CD8 0003                movem.l    D0,D1, [A0]+
000020DE  48E1 C000                movem.l    -[A1], D0,D1
000020E2  D0CA                     add.w      A0, A2
000020E4  D2CB                     add.w      A1, A3
000020E6  4CD8 00FF                movem.l    D0,D1,D2,D3,D4,D5,D6,D7, [A0]+
000020EA  48E1 FF00                movem.l    -[A1], D0,D1,D2,D3,D4,D5,D6,D7
000020EE  D2FC 0028                add.w      A1, 0x28 /* '(' */
000020F2  4CD8 0003                movem.l    D0,D1, [A0]+
000020F6  48E1 C000                movem.l    -[A1], D0,D1
000020FA  D0CA                     add.w      A0, A2
000020FC  D2CB                     add.w      A1, A3
000020FE  4CD8 00FF                movem.l    D0,D1,D2,D3,D4,D5,D6,D7, [A0]+
00002102  48E1 FF00                movem.l    -[A1], D0,D1,D2,D3,D4,D5,D6,D7
00002106  D2FC 0028                add.w      A1, 0x28 /* '(' */
0000210A  4CD8 0003                movem.l    D0,D1, [A0]+
0000210E  48E1 C000                movem.l    -[A1], D0,D1
00002112  D0CA                     add.w      A0, A2
00002114  D2CB                     add.w      A1, A3
00002116  4CD8 00FF                movem.l    D0,D1,D2,D3,D4,D5,D6,D7, [A0]+
0000211A  48E1 FF00                movem.l    -[A1], D0,D1,D2,D3,D4,D5,D6,D7
0000211E  D2FC 0028                add.w      A1, 0x28 /* '(' */
00002122  4CD8 0003                movem.l    D0,D1, [A0]+
00002126  48E1 C000                movem.l    -[A1], D0,D1
0000212A  D0CA                     add.w      A0, A2
0000212C  D2CB                     add.w      A1, A3
0000212E  4CD8 00FF                movem.l    D0,D1,D2,D3,D4,D5,D6,D7, [A0]+
00002132  48E1 FF00                movem.l    -[A1], D0,D1,D2,D3,D4,D5,D6,D7
00002136  D2FC 0028                add.w      A1, 0x28 /* '(' */
0000213A  4CD8 0003                movem.l    D0,D1, [A0]+
0000213E  48E1 C000                movem.l    -[A1], D0,D1
00002142  D0CA                     add.w      A0, A2
00002144  D2CB                     add.w      A1, A3
00002146  4CD8 00FF                movem.l    D0,D1,D2,D3,D4,D5,D6,D7, [A0]+
0000214A  48E1 FF00                movem.l    -[A1], D0,D1,D2,D3,D4,D5,D6,D7
0000214E  D2FC 0028                add.w      A1, 0x28 /* '(' */
00002152  4CD8 0003                movem.l    D0,D1, [A0]+
00002156  48E1 C000                movem.l    -[A1], D0,D1
0000215A  D0CA                     add.w      A0, A2
0000215C  D2CB                     add.w      A1, A3
0000215E  4CD8 00FF                movem.l    D0,D1,D2,D3,D4,D5,D6,D7, [A0]+
00002162  48E1 FF00                movem.l    -[A1], D0,D1,D2,D3,D4,D5,D6,D7
00002166  D2FC 0028                add.w      A1, 0x28 /* '(' */
0000216A  4CD8 0003                movem.l    D0,D1, [A0]+
0000216E  48E1 C000                movem.l    -[A1], D0,D1
00002172  D0CA                     add.w      A0, A2
00002174  D2CB                     add.w      A1, A3
00002176  4CD8 00FF                movem.l    D0,D1,D2,D3,D4,D5,D6,D7, [A0]+
0000217A  48E1 FF00                movem.l    -[A1], D0,D1,D2,D3,D4,D5,D6,D7
0000217E  D2FC 0028                add.w      A1, 0x28 /* '(' */
00002182  4CD8 0003                movem.l    D0,D1, [A0]+
00002186  48E1 C000                movem.l    -[A1], D0,D1
0000218A  D0CA                     add.w      A0, A2
0000218C  D2CB                     add.w      A1, A3
0000218E  4CD8 00FF                movem.l    D0,D1,D2,D3,D4,D5,D6,D7, [A0]+
00002192  48E1 FF00                movem.l    -[A1], D0,D1,D2,D3,D4,D5,D6,D7
00002196  D2FC 0028                add.w      A1, 0x28 /* '(' */
0000219A  4CD8 0003                movem.l    D0,D1, [A0]+
0000219E  48E1 C000                movem.l    -[A1], D0,D1
000021A2  D0CA                     add.w      A0, A2
000021A4  D2CB                     add.w      A1, A3
000021A6  4CD8 00FF                movem.l    D0,D1,D2,D3,D4,D5,D6,D7, [A0]+
000021AA  48E1 FF00                movem.l    -[A1], D0,D1,D2,D3,D4,D5,D6,D7
000021AE  D2FC 0028                add.w      A1, 0x28 /* '(' */
000021B2  4CD8 0003                movem.l    D0,D1, [A0]+
000021B6  48E1 C000                movem.l    -[A1], D0,D1
000021BA  D0CA                     add.w      A0, A2
000021BC  D2CB                     add.w      A1, A3
000021BE  4CD8 00FF                movem.l    D0,D1,D2,D3,D4,D5,D6,D7, [A0]+
000021C2  48E1 FF00                movem.l    -[A1], D0,D1,D2,D3,D4,D5,D6,D7
000021C6  D2FC 0028                add.w      A1, 0x28 /* '(' */
000021CA  4CD8 0003                movem.l    D0,D1, [A0]+
000021CE  48E1 C000                movem.l    -[A1], D0,D1
000021D2  D0CA                     add.w      A0, A2
000021D4  D2CB                     add.w      A1, A3
000021D6  4CD8 00FF                movem.l    D0,D1,D2,D3,D4,D5,D6,D7, [A0]+
000021DA  48E1 FF00                movem.l    -[A1], D0,D1,D2,D3,D4,D5,D6,D7
000021DE  D2FC 0028                add.w      A1, 0x28 /* '(' */
000021E2  4CD8 0003                movem.l    D0,D1, [A0]+
000021E6  48E1 C000                movem.l    -[A1], D0,D1
000021EA  D0CA                     add.w      A0, A2
000021EC  D2CB                     add.w      A1, A3
000021EE  4CD8 00FF                movem.l    D0,D1,D2,D3,D4,D5,D6,D7, [A0]+
000021F2  48E1 FF00                movem.l    -[A1], D0,D1,D2,D3,D4,D5,D6,D7
000021F6  D2FC 0028                add.w      A1, 0x28 /* '(' */
000021FA  4CD8 0003                movem.l    D0,D1, [A0]+
000021FE  48E1 C000                movem.l    -[A1], D0,D1
00002202  D0CA                     add.w      A0, A2
00002204  D2CB                     add.w      A1, A3
00002206  4CD8 00FF                movem.l    D0,D1,D2,D3,D4,D5,D6,D7, [A0]+
0000220A  48E1 FF00                movem.l    -[A1], D0,D1,D2,D3,D4,D5,D6,D7
0000220E  D2FC 0028                add.w      A1, 0x28 /* '(' */
00002212  4CD8 0003                movem.l    D0,D1, [A0]+
00002216  48E1 C000                movem.l    -[A1], D0,D1
0000221A  D0CA                     add.w      A0, A2
0000221C  D2CB                     add.w      A1, A3
0000221E  4CD8 00FF                movem.l    D0,D1,D2,D3,D4,D5,D6,D7, [A0]+
00002222  48E1 FF00                movem.l    -[A1], D0,D1,D2,D3,D4,D5,D6,D7
00002226  D2FC 0028                add.w      A1, 0x28 /* '(' */
0000222A  4CD8 0003                movem.l    D0,D1, [A0]+
0000222E  48E1 C000                movem.l    -[A1], D0,D1
00002232  D0CA                     add.w      A0, A2
00002234  D2CB                     add.w      A1, A3
00002236  4CD8 00FF                movem.l    D0,D1,D2,D3,D4,D5,D6,D7, [A0]+
0000223A  48E1 FF00                movem.l    -[A1], D0,D1,D2,D3,D4,D5,D6,D7
0000223E  D2FC 0028                add.w      A1, 0x28 /* '(' */
00002242  4CD8 0003                movem.l    D0,D1, [A0]+
00002246  48E1 C000                movem.l    -[A1], D0,D1
0000224A  D0CA                     add.w      A0, A2
0000224C  D2CB                     add.w      A1, A3
0000224E  4CD8 00FF                movem.l    D0,D1,D2,D3,D4,D5,D6,D7, [A0]+
00002252  48E1 FF00                movem.l    -[A1], D0,D1,D2,D3,D4,D5,D6,D7
00002256  D2FC 0028                add.w      A1, 0x28 /* '(' */
0000225A  4CD8 0003                movem.l    D0,D1, [A0]+
0000225E  48E1 C000                movem.l    -[A1], D0,D1
00002262  D0CA                     add.w      A0, A2
00002264  D2CB                     add.w      A1, A3
00002266  4CD8 00FF                movem.l    D0,D1,D2,D3,D4,D5,D6,D7, [A0]+
0000226A  48E1 FF00                movem.l    -[A1], D0,D1,D2,D3,D4,D5,D6,D7
0000226E  D2FC 0028                add.w      A1, 0x28 /* '(' */
00002272  4CD8 0003                movem.l    D0,D1, [A0]+
00002276  48E1 C000                movem.l    -[A1], D0,D1
0000227A  D0CA                     add.w      A0, A2
0000227C  D2CB                     add.w      A1, A3
0000227E  4CD8 00FF                movem.l    D0,D1,D2,D3,D4,D5,D6,D7, [A0]+
00002282  48E1 FF00                movem.l    -[A1], D0,D1,D2,D3,D4,D5,D6,D7
00002286  D2FC 0028                add.w      A1, 0x28 /* '(' */
0000228A  4CD8 0003                movem.l    D0,D1, [A0]+
0000228E  48E1 C000                movem.l    -[A1], D0,D1
00002292  D0CA                     add.w      A0, A2
00002294  D2CB                     add.w      A1, A3
00002296  4CD8 00FF                movem.l    D0,D1,D2,D3,D4,D5,D6,D7, [A0]+
0000229A  48E1 FF00                movem.l    -[A1], D0,D1,D2,D3,D4,D5,D6,D7
0000229E  D2FC 0028                add.w      A1, 0x28 /* '(' */
000022A2  4CD8 0003                movem.l    D0,D1, [A0]+
000022A6  48E1 C000                movem.l    -[A1], D0,D1
000022AA  D0CA                     add.w      A0, A2
000022AC  D2CB                     add.w      A1, A3
000022AE  4CD8 00FF                movem.l    D0,D1,D2,D3,D4,D5,D6,D7, [A0]+
000022B2  48E1 FF00                movem.l    -[A1], D0,D1,D2,D3,D4,D5,D6,D7
000022B6  D2FC 0028                add.w      A1, 0x28 /* '(' */
000022BA  4CD8 0003                movem.l    D0,D1, [A0]+
000022BE  48E1 C000                movem.l    -[A1], D0,D1
000022C2  D0CA                     add.w      A0, A2
000022C4  D2CB                     add.w      A1, A3
000022C6  4CD8 00FF                movem.l    D0,D1,D2,D3,D4,D5,D6,D7, [A0]+
000022CA  48E1 FF00                movem.l    -[A1], D0,D1,D2,D3,D4,D5,D6,D7
000022CE  D2FC 0028                add.w      A1, 0x28 /* '(' */
000022D2  4CD8 0003                movem.l    D0,D1, [A0]+
000022D6  48E1 C000                movem.l    -[A1], D0,D1
000022DA  D0CA                     add.w      A0, A2
000022DC  D2CB                     add.w      A1, A3
000022DE  4CD8 00FF                movem.l    D0,D1,D2,D3,D4,D5,D6,D7, [A0]+
000022E2  48E1 FF00                movem.l    -[A1], D0,D1,D2,D3,D4,D5,D6,D7
000022E6  D2FC 0028                add.w      A1, 0x28 /* '(' */
000022EA  4CD8 0003                movem.l    D0,D1, [A0]+
000022EE  48E1 C000                movem.l    -[A1], D0,D1
000022F2  D0CA                     add.w      A0, A2
000022F4  D2CB                     add.w      A1, A3
000022F6  4CD8 00FF                movem.l    D0,D1,D2,D3,D4,D5,D6,D7, [A0]+
000022FA  48E1 FF00                movem.l    -[A1], D0,D1,D2,D3,D4,D5,D6,D7
000022FE  D2FC 0028                add.w      A1, 0x28 /* '(' */
00002302  4CD8 0003                movem.l    D0,D1, [A0]+
00002306  48E1 C000                movem.l    -[A1], D0,D1
0000230A  D0CA                     add.w      A0, A2
0000230C  D2CB                     add.w      A1, A3
0000230E  4CD8 00FF                movem.l    D0,D1,D2,D3,D4,D5,D6,D7, [A0]+
00002312  48E1 FF00                movem.l    -[A1], D0,D1,D2,D3,D4,D5,D6,D7
00002316  D2FC 0028                add.w      A1, 0x28 /* '(' */
0000231A  4CD8 0003                movem.l    D0,D1, [A0]+
0000231E  48E1 C000                movem.l    -[A1], D0,D1
00002322  D0CA                     add.w      A0, A2
00002324  D2CB                     add.w      A1, A3
00002326  4CD8 00FF                movem.l    D0,D1,D2,D3,D4,D5,D6,D7, [A0]+
0000232A  48E1 FF00                movem.l    -[A1], D0,D1,D2,D3,D4,D5,D6,D7
0000232E  D2FC 0028                add.w      A1, 0x28 /* '(' */
00002332  4CD8 0003                movem.l    D0,D1, [A0]+
00002336  48E1 C000                movem.l    -[A1], D0,D1
0000233A  D0CA                     add.w      A0, A2
0000233C  D2CB                     add.w      A1, A3
0000233E  4E75                     rts
00002340  0000 A853                ori.b      D0, 0x53 /* 'S' */
// begin alternate branch 00002342-00002344
label00002342:
00002342  A853                     syscall    ShowCursor
// end alternate branch 00002342-00002344
label00002342: // (misaligned)
00002344  2F2E FFFC                move.l     -[A7], [A6 - 0x4]
00002348  AA31                     syscall    SetGDevice
0000234A  4E5E                     unlink     A6
0000234C  4E75                     rts
fn0000234E:
0000234E  4E56 0000                link       A6, 0
00002352  48E7 FFFE                movem.l    -[A7], D0,D1,D2,D3,D4,D5,D6,D7,A0,A1,A2,A3,A4,A5,A6
00002356  4EBA 01CE                jsr        [PC + 0x1CE /* 00002526 */]
0000235A  302E 000A                move.w     D0, [A6 + 0xA]
0000235E  E540                     asl        D0.w, 2
00002360  206D F210                movea.l    A0, [A5 - 0xDF0]
00002364  2270 0000                movea.l    A1, [A0 + D0.w]
00002368  267C 0000 0000           movea.l    A3, 0x0
0000236E  366D F3C6                movea.w    A3, [A5 - 0xC3A]
00002372  347C 0020                movea.w    A2, 0x20 /* ' ' */
00002376  206E 000C                movea.l    A0, [A6 + 0xC]
0000237A  48E7 FFFE                movem.l    -[A7], D0,D1,D2,D3,D4,D5,D6,D7,A0,A1,A2,A3,A4,A5,A6
0000237E  302E 0008                move.w     D0, [A6 + 0x8]
00002382  D2C0                     add.w      A1, D0
00002384  4EBA 0012                jsr        [PC + 0x12 /* 00002398 */]
00002388  4CDF 7FFF                movem.l    D0,D1,D2,D3,D4,D5,D6,D7,A0,A1,A2,A3,A4,A5,A6, [A7]+
0000238C  4EBA 01A8                jsr        [PC + 0x1A8 /* 00002536 */]
00002390  4CDF 7FFF                movem.l    D0,D1,D2,D3,D4,D5,D6,D7,A0,A1,A2,A3,A4,A5,A6, [A7]+
00002394  6000 01AC                bra        +0x1AE /* 00002542 */
fn00002398:
00002398  D2FC 0020                add.w      A1, 0x20 /* ' ' */
0000239C  D6FC 0020                add.w      A3, 0x20 /* ' ' */
000023A0  94FC 0020                sub.w      A2, 0x20 /* ' ' */
000023A4  4CD8 00FF                movem.l    D0,D1,D2,D3,D4,D5,D6,D7, [A0]+
000023A8  48E1 FF00                movem.l    -[A1], D0,D1,D2,D3,D4,D5,D6,D7
000023AC  D0CA                     add.w      A0, A2
000023AE  D2CB                     add.w      A1, A3
000023B0  4CD8 00FF                movem.l    D0,D1,D2,D3,D4,D5,D6,D7, [A0]+
000023B4  48E1 FF00                movem.l    -[A1], D0,D1,D2,D3,D4,D5,D6,D7
000023B8  D0CA                     add.w      A0, A2
000023BA  D2CB                     add.w      A1, A3
000023BC  4CD8 00FF                movem.l    D0,D1,D2,D3,D4,D5,D6,D7, [A0]+
000023C0  48E1 FF00                movem.l    -[A1], D0,D1,D2,D3,D4,D5,D6,D7
000023C4  D0CA                     add.w      A0, A2
000023C6  D2CB                     add.w      A1, A3
000023C8  4CD8 00FF                movem.l    D0,D1,D2,D3,D4,D5,D6,D7, [A0]+
000023CC  48E1 FF00                movem.l    -[A1], D0,D1,D2,D3,D4,D5,D6,D7
000023D0  D0CA                     add.w      A0, A2
000023D2  D2CB                     add.w      A1, A3
000023D4  4CD8 00FF                movem.l    D0,D1,D2,D3,D4,D5,D6,D7, [A0]+
000023D8  48E1 FF00                movem.l    -[A1], D0,D1,D2,D3,D4,D5,D6,D7
000023DC  D0CA                     add.w      A0, A2
000023DE  D2CB                     add.w      A1, A3
000023E0  4CD8 00FF                movem.l    D0,D1,D2,D3,D4,D5,D6,D7, [A0]+
000023E4  48E1 FF00                movem.l    -[A1], D0,D1,D2,D3,D4,D5,D6,D7
000023E8  D0CA                     add.w      A0, A2
000023EA  D2CB                     add.w      A1, A3
000023EC  4CD8 00FF                movem.l    D0,D1,D2,D3,D4,D5,D6,D7, [A0]+
000023F0  48E1 FF00                movem.l    -[A1], D0,D1,D2,D3,D4,D5,D6,D7
000023F4  D0CA                     add.w      A0, A2
000023F6  D2CB                     add.w      A1, A3
000023F8  4CD8 00FF                movem.l    D0,D1,D2,D3,D4,D5,D6,D7, [A0]+
000023FC  48E1 FF00                movem.l    -[A1], D0,D1,D2,D3,D4,D5,D6,D7
00002400  D0CA                     add.w      A0, A2
00002402  D2CB                     add.w      A1, A3
00002404  4CD8 00FF                movem.l    D0,D1,D2,D3,D4,D5,D6,D7, [A0]+
00002408  48E1 FF00                movem.l    -[A1], D0,D1,D2,D3,D4,D5,D6,D7
0000240C  D0CA                     add.w      A0, A2
0000240E  D2CB                     add.w      A1, A3
00002410  4CD8 00FF                movem.l    D0,D1,D2,D3,D4,D5,D6,D7, [A0]+
00002414  48E1 FF00                movem.l    -[A1], D0,D1,D2,D3,D4,D5,D6,D7
00002418  D0CA                     add.w      A0, A2
0000241A  D2CB                     add.w      A1, A3
0000241C  4CD8 00FF                movem.l    D0,D1,D2,D3,D4,D5,D6,D7, [A0]+
00002420  48E1 FF00                movem.l    -[A1], D0,D1,D2,D3,D4,D5,D6,D7
00002424  D0CA                     add.w      A0, A2
00002426  D2CB                     add.w      A1, A3
00002428  4CD8 00FF                movem.l    D0,D1,D2,D3,D4,D5,D6,D7, [A0]+
0000242C  48E1 FF00                movem.l    -[A1], D0,D1,D2,D3,D4,D5,D6,D7
00002430  D0CA                     add.w      A0, A2
00002432  D2CB                     add.w      A1, A3
00002434  4CD8 00FF                movem.l    D0,D1,D2,D3,D4,D5,D6,D7, [A0]+
00002438  48E1 FF00                movem.l    -[A1], D0,D1,D2,D3,D4,D5,D6,D7
0000243C  D0CA                     add.w      A0, A2
0000243E  D2CB                     add.w      A1, A3
00002440  4CD8 00FF                movem.l    D0,D1,D2,D3,D4,D5,D6,D7, [A0]+
00002444  48E1 FF00                movem.l    -[A1], D0,D1,D2,D3,D4,D5,D6,D7
00002448  D0CA                     add.w      A0, A2
0000244A  D2CB                     add.w      A1, A3
0000244C  4CD8 00FF                movem.l    D0,D1,D2,D3,D4,D5,D6,D7, [A0]+
00002450  48E1 FF00                movem.l    -[A1], D0,D1,D2,D3,D4,D5,D6,D7
00002454  D0CA                     add.w      A0, A2
00002456  D2CB                     add.w      A1, A3
00002458  4CD8 00FF                movem.l    D0,D1,D2,D3,D4,D5,D6,D7, [A0]+
0000245C  48E1 FF00                movem.l    -[A1], D0,D1,D2,D3,D4,D5,D6,D7
00002460  D0CA                     add.w      A0, A2
00002462  D2CB                     add.w      A1, A3
00002464  4CD8 00FF                movem.l    D0,D1,D2,D3,D4,D5,D6,D7, [A0]+
00002468  48E1 FF00                movem.l    -[A1], D0,D1,D2,D3,D4,D5,D6,D7
0000246C  D0CA                     add.w      A0, A2
0000246E  D2CB                     add.w      A1, A3
00002470  4CD8 00FF                movem.l    D0,D1,D2,D3,D4,D5,D6,D7, [A0]+
00002474  48E1 FF00                movem.l    -[A1], D0,D1,D2,D3,D4,D5,D6,D7
00002478  D0CA                     add.w      A0, A2
0000247A  D2CB                     add.w      A1, A3
0000247C  4CD8 00FF                movem.l    D0,D1,D2,D3,D4,D5,D6,D7, [A0]+
00002480  48E1 FF00                movem.l    -[A1], D0,D1,D2,D3,D4,D5,D6,D7
00002484  D0CA                     add.w      A0, A2
00002486  D2CB                     add.w      A1, A3
00002488  4CD8 00FF                movem.l    D0,D1,D2,D3,D4,D5,D6,D7, [A0]+
0000248C  48E1 FF00                movem.l    -[A1], D0,D1,D2,D3,D4,D5,D6,D7
00002490  D0CA                     add.w      A0, A2
00002492  D2CB                     add.w      A1, A3
00002494  4CD8 00FF                movem.l    D0,D1,D2,D3,D4,D5,D6,D7, [A0]+
00002498  48E1 FF00                movem.l    -[A1], D0,D1,D2,D3,D4,D5,D6,D7
0000249C  D0CA                     add.w      A0, A2
0000249E  D2CB                     add.w      A1, A3
000024A0  4CD8 00FF                movem.l    D0,D1,D2,D3,D4,D5,D6,D7, [A0]+
000024A4  48E1 FF00                movem.l    -[A1], D0,D1,D2,D3,D4,D5,D6,D7
000024A8  D0CA                     add.w      A0, A2
000024AA  D2CB                     add.w      A1, A3
000024AC  4CD8 00FF                movem.l    D0,D1,D2,D3,D4,D5,D6,D7, [A0]+
000024B0  48E1 FF00                movem.l    -[A1], D0,D1,D2,D3,D4,D5,D6,D7
000024B4  D0CA                     add.w      A0, A2
000024B6  D2CB                     add.w      A1, A3
000024B8  4CD8 00FF                movem.l    D0,D1,D2,D3,D4,D5,D6,D7, [A0]+
000024BC  48E1 FF00                movem.l    -[A1], D0,D1,D2,D3,D4,D5,D6,D7
000024C0  D0CA                     add.w      A0, A2
000024C2  D2CB                     add.w      A1, A3
000024C4  4CD8 00FF                movem.l    D0,D1,D2,D3,D4,D5,D6,D7, [A0]+
000024C8  48E1 FF00                movem.l    -[A1], D0,D1,D2,D3,D4,D5,D6,D7
000024CC  D0CA                     add.w      A0, A2
000024CE  D2CB                     add.w      A1, A3
000024D0  4CD8 00FF                movem.l    D0,D1,D2,D3,D4,D5,D6,D7, [A0]+
000024D4  48E1 FF00                movem.l    -[A1], D0,D1,D2,D3,D4,D5,D6,D7
000024D8  D0CA                     add.w      A0, A2
000024DA  D2CB                     add.w      A1, A3
000024DC  4CD8 00FF                movem.l    D0,D1,D2,D3,D4,D5,D6,D7, [A0]+
000024E0  48E1 FF00                movem.l    -[A1], D0,D1,D2,D3,D4,D5,D6,D7
000024E4  D0CA                     add.w      A0, A2
000024E6  D2CB                     add.w      A1, A3
000024E8  4CD8 00FF                movem.l    D0,D1,D2,D3,D4,D5,D6,D7, [A0]+
000024EC  48E1 FF00                movem.l    -[A1], D0,D1,D2,D3,D4,D5,D6,D7
000024F0  D0CA                     add.w      A0, A2
000024F2  D2CB                     add.w      A1, A3
000024F4  4CD8 00FF                movem.l    D0,D1,D2,D3,D4,D5,D6,D7, [A0]+
000024F8  48E1 FF00                movem.l    -[A1], D0,D1,D2,D3,D4,D5,D6,D7
000024FC  D0CA                     add.w      A0, A2
000024FE  D2CB                     add.w      A1, A3
00002500  4CD8 00FF                movem.l    D0,D1,D2,D3,D4,D5,D6,D7, [A0]+
00002504  48E1 FF00                movem.l    -[A1], D0,D1,D2,D3,D4,D5,D6,D7
00002508  D0CA                     add.w      A0, A2
0000250A  D2CB                     add.w      A1, A3
0000250C  4CD8 00FF                movem.l    D0,D1,D2,D3,D4,D5,D6,D7, [A0]+
00002510  48E1 FF00                movem.l    -[A1], D0,D1,D2,D3,D4,D5,D6,D7
00002514  D0CA                     add.w      A0, A2
00002516  D2CB                     add.w      A1, A3
00002518  4CD8 00FF                movem.l    D0,D1,D2,D3,D4,D5,D6,D7, [A0]+
0000251C  48E1 FF00                movem.l    -[A1], D0,D1,D2,D3,D4,D5,D6,D7
00002520  D0CA                     add.w      A0, A2
00002522  D2CB                     add.w      A1, A3
00002524  4E75                     rts
fn00002526:
00002526  4280                     clr.l      D0
00002528  103C 0001                move.b     D0, 0x1
0000252C  A05D                     syscall    SwapMMUMode
0000252E  41FA 0010                lea.l      A0, [PC + 0x10 /* 00002540, value 0x4E5E 'N^', cstring "" */]
00002532  1080                     move.b     [A0], D0
00002534  4E75                     rts
fn00002536:
00002536  4280                     clr.l      D0
00002538  103A 0006                move.b     D0, [PC + 0x6 /* 00002540, value 0x0, cstring "" */]
0000253C  A05D                     syscall    SwapMMUMode
0000253E  4E75                     rts
00002540  0000 4E5E                ori.b      D0, 0x5E /* '^' */
// begin alternate branch 00002542-00002544
label00002542:
00002542  4E5E                     unlink     A6
// end alternate branch 00002542-00002544
label00002542: // (misaligned)
00002544  4E75                     rts
fn00002546:
00002546  4E56 FEF8                link       A6, -0x0108
0000254A  2F07                     move.l     -[A7], D7
0000254C  4A2E 0008                tst.b      [A6 + 0x8]
00002550  6700 0130                beq        +0x132 /* 00002682 */
00002554  70C4                     moveq.l    D0, 0xFFFFFFC4
00002556  D0AD F784                add.l      D0, [A5 - 0x87C]
0000255A  2B40 FEEA                move.l     [A5 - 0x116], D0
0000255E  72FF                     moveq.l    D1, 0xFFFFFFFF
00002560  2B41 FEB8                move.l     [A5 - 0x148], D1
00002564  74FF                     moveq.l    D2, 0xFFFFFFFF
00002566  2B42 FEBC                move.l     [A5 - 0x144], D2
0000256A  3B7C FFFF FECE           move.w     [A5 - 0x132], 0xFFFF
00002570  3B7C FFFF FEC0           move.w     [A5 - 0x140], 0xFFFF
00002576  70FF                     moveq.l    D0, 0xFFFFFFFF
00002578  2B40 FEC6                move.l     [A5 - 0x13A], D0
0000257C  3B7C FFFF FECA           move.w     [A5 - 0x136], 0xFFFF
00002582  3B7C FFFF FECC           move.w     [A5 - 0x134], 0xFFFF
00002588  3B7C FFFF FED0           move.w     [A5 - 0x130], 0xFFFF
0000258E  3B7C FFFF FED6           move.w     [A5 - 0x12A], 0xFFFF
00002594  0C6D 0001 F7CE           cmpi.w     [A5 - 0x832], 0x1
0000259A  6604                     bne        +0x6 /* 000025A0 */
0000259C  42AD FEC2                clr.l      [A5 - 0x13E]
label000025A0:
000025A0  3B7C FFFF FED2           move.w     [A5 - 0x12E], 0xFFFF
000025A6  3B7C FFFF FED4           move.w     [A5 - 0x12C], 0xFFFF
000025AC  2F2D F218                move.l     -[A7], [A5 - 0xDE8]
000025B0  A873                     syscall    SetPort
000025B2  3F3C 0003                move.w     -[A7], 0x3
000025B6  A887                     syscall    TextFont
000025B8  3F3C 0009                move.w     -[A7], 0x9 /* '\t' */
000025BC  A88A                     syscall    TextSize
000025BE  3F3C 0001                move.w     -[A7], 0x1
000025C2  A888                     syscall    TextFace
000025C4  4267                     clr.w      -[A7]
000025C6  A889                     syscall    TextMode
000025C8  3B7C 7530 FED8           move.w     [A5 - 0x128], 0x7530 /* 'u0' */
000025CE  3B7C 7530 FEDA           move.w     [A5 - 0x126], 0x7530 /* 'u0' */
000025D4  3B7C FFFF FEDC           move.w     [A5 - 0x124], 0xFFFF
000025DA  3B7C FFFF FEDE           move.w     [A5 - 0x122], 0xFFFF
000025E0  3B7C FFFF FEE0           move.w     [A5 - 0x120], 0xFFFF
000025E6  3B7C FFFF FEE2           move.w     [A5 - 0x11E], 0xFFFF
000025EC  426D FEE4                clr.w      [A5 - 0x11C]
000025F0  426D FEE6                clr.w      [A5 - 0x11A]
000025F4  426D FEE8                clr.w      [A5 - 0x118]
000025F8  486D FEDE                pea.l      [A5 - 0x122]
000025FC  AA14                     syscall    RGBForeColor
000025FE  3F2D F3CE                move.w     -[A7], [A5 - 0xC32]
00002602  3F2D F750                move.w     -[A7], [A5 - 0x8B0]
00002606  A893                     syscall    MoveTo
00002608  70FF                     moveq.l    D0, 0xFFFFFFFF
0000260A  D06D F3D2                add.w      D0, [A5 - 0xC2E]
0000260E  3F00                     move.w     -[A7], D0
00002610  3F2D F750                move.w     -[A7], [A5 - 0x8B0]
00002614  A891                     syscall    LineTo
00002616  486D FED8                pea.l      [A5 - 0x128]
0000261A  AA14                     syscall    RGBForeColor
0000261C  486D FEE4                pea.l      [A5 - 0x11C]
00002620  AA15                     syscall    RGBBackColor
00002622  7003                     moveq.l    D0, 0x03
00002624  D06D F3CE                add.w      D0, [A5 - 0xC32]
00002628  3F00                     move.w     -[A7], D0
0000262A  700B                     moveq.l    D0, 0x0B
0000262C  D06D F750                add.w      D0, [A5 - 0x8B0]
00002630  3F00                     move.w     -[A7], D0
00002632  A893                     syscall    MoveTo
00002634  486D FF00                pea.l      [A5 - 0x100]
00002638  A884                     syscall    DrawString
0000263A  4878 0046                push.l     0x46 /* 'F' */
0000263E  A894                     syscall    Move
00002640  486D FED8                pea.l      [A5 - 0x128]
00002644  AA14                     syscall    RGBForeColor
00002646  486D FF08                pea.l      [A5 - 0xF8]
0000264A  A884                     syscall    DrawString
0000264C  4878 0046                push.l     0x46 /* 'F' */
00002650  A894                     syscall    Move
00002652  486D FED8                pea.l      [A5 - 0x128]
00002656  AA14                     syscall    RGBForeColor
00002658  486D FF10                pea.l      [A5 - 0xF0]
0000265C  A884                     syscall    DrawString
0000265E  4878 001E                push.l     0x1E
00002662  A894                     syscall    Move
00002664  486D FED8                pea.l      [A5 - 0x128]
00002668  AA14                     syscall    RGBForeColor
0000266A  486D FF16                pea.l      [A5 - 0xEA]
0000266E  A884                     syscall    DrawString
00002670  4878 001E                push.l     0x1E
00002674  A894                     syscall    Move
00002676  486D FED8                pea.l      [A5 - 0x128]
0000267A  AA14                     syscall    RGBForeColor
0000267C  486D FF1E                pea.l      [A5 - 0xE2]
00002680  A884                     syscall    DrawString
label00002682:
00002682  202D F784                move.l     D0, [A5 - 0x87C]
00002686  90AD FEEA                sub.l      D0, [A5 - 0x116]
0000268A  723C                     moveq.l    D1, 0x3C
0000268C  B280                     cmp.l      D1, D0
0000268E  6D08                     blt        +0xA /* 00002698 */
00002690  4A6D F7E2                tst.w      [A5 - 0x81E]
00002694  6600 0472                bne        +0x474 /* 00002B08 */
label00002698:
00002698  302D FECE                move.w     D0, [A5 - 0x132]
0000269C  B06D F834                cmp.w      D0, [A5 - 0x7CC]
000026A0  6700 009E                beq        +0xA0 /* 00002740 */
000026A4  0C6D 012C F834           cmpi.w     [A5 - 0x7CC], 0x12C
000026AA  6F06                     ble        +0x8 /* 000026B2 */
000026AC  3B7C 012C F834           move.w     [A5 - 0x7CC], 0x12C
label000026B2:
000026B2  3B6D F834 FECE           move.w     [A5 - 0x132], [A5 - 0x7CC]
000026B8  486D FEDE                pea.l      [A5 - 0x122]
000026BC  AA14                     syscall    RGBForeColor
000026BE  486E FEF8                pea.l      [A6 - 0x108]
000026C2  302D F3CE                move.w     D0, [A5 - 0xC32]
000026C6  0640 0098                addi.w     D0, 0x98
000026CA  3F00                     move.w     -[A7], D0
000026CC  7004                     moveq.l    D0, 0x04
000026CE  D06D F750                add.w      D0, [A5 - 0x8B0]
000026D2  3F00                     move.w     -[A7], D0
000026D4  302D F3CE                move.w     D0, [A5 - 0xC32]
000026D8  0640 00CF                addi.w     D0, 0xCF
000026DC  3F00                     move.w     -[A7], D0
000026DE  700C                     moveq.l    D0, 0x0C
000026E0  D06D F750                add.w      D0, [A5 - 0x8B0]
000026E4  3F00                     move.w     -[A7], D0
000026E6  A8A7                     syscall    SetRect
000026E8  486E FEF8                pea.l      [A6 - 0x108]
000026EC  A8A1                     syscall    FrameRect
000026EE  486D FED8                pea.l      [A5 - 0x128]
000026F2  AA14                     syscall    RGBForeColor
000026F4  486E FEF8                pea.l      [A6 - 0x108]
000026F8  2F3C 0001 0001           move.l     -[A7], 0x10001
000026FE  A8A9                     syscall    InsetRect
00002700  7E35                     moveq.l    D7, 0x35
00002702  CFED F834                muls.w     D7, [A5 - 0x7CC]
00002706  48C7                     ext.l      D7
00002708  8FFC 012C                divs.w     D7, 0x12C
0000270C  302E FEFA                move.w     D0, [A6 - 0x106]
00002710  D047                     add.w      D0, D7
00002712  3D40 FEFE                move.w     [A6 - 0x102], D0
00002716  486E FEF8                pea.l      [A6 - 0x108]
0000271A  A8A2                     syscall    PaintRect
0000271C  486D FEE4                pea.l      [A5 - 0x11C]
00002720  AA14                     syscall    RGBForeColor
00002722  3D6E FEFE FEFA           move.w     [A6 - 0x106], [A6 - 0x102]
00002728  302D F3CE                move.w     D0, [A5 - 0xC32]
0000272C  0640 00CE                addi.w     D0, 0xCE
00002730  3D40 FEFE                move.w     [A6 - 0x102], D0
00002734  486E FEF8                pea.l      [A6 - 0x108]
00002738  A8A2                     syscall    PaintRect
0000273A  486D FEDE                pea.l      [A5 - 0x122]
0000273E  AA14                     syscall    RGBForeColor
label00002740:
00002740  302D FED0                move.w     D0, [A5 - 0x130]
00002744  B06D F802                cmp.w      D0, [A5 - 0x7FE]
00002748  6700 0090                beq        +0x92 /* 000027DA */
0000274C  3B6D F802 FED0           move.w     [A5 - 0x130], [A5 - 0x7FE]
00002752  486E FEF8                pea.l      [A6 - 0x108]
00002756  42A7                     clr.l      -[A7]
00002758  2F3C 0008 0008           move.l     -[A7], 0x80008
0000275E  A8A7                     syscall    SetRect
00002760  486E FEF8                pea.l      [A6 - 0x108]
00002764  302D F3CE                move.w     D0, [A5 - 0xC32]
00002768  0640 01A8                addi.w     D0, 0x1A8
0000276C  3F00                     move.w     -[A7], D0
0000276E  7004                     moveq.l    D0, 0x04
00002770  D06D F750                add.w      D0, [A5 - 0x8B0]
00002774  3F00                     move.w     -[A7], D0
00002776  A8A8                     syscall    OffsetRect
00002778  0C6D 0002 F802           cmpi.w     [A5 - 0x7FE], 0x2
0000277E  660A                     bne        +0xC /* 0000278A */
00002780  486E FEF8                pea.l      [A6 - 0x108]
00002784  2F2D F964                move.l     -[A7], [A5 - 0x69C]
00002788  AA1F                     syscall    PlotCIcon
label0000278A:
0000278A  0C6D 0003 F802           cmpi.w     [A5 - 0x7FE], 0x3
00002790  660A                     bne        +0xC /* 0000279C */
00002792  486E FEF8                pea.l      [A6 - 0x108]
00002796  2F2D F968                move.l     -[A7], [A5 - 0x698]
0000279A  AA1F                     syscall    PlotCIcon
label0000279C:
0000279C  0C6D 0004 F802           cmpi.w     [A5 - 0x7FE], 0x4
000027A2  660A                     bne        +0xC /* 000027AE */
000027A4  486E FEF8                pea.l      [A6 - 0x108]
000027A8  2F2D F96C                move.l     -[A7], [A5 - 0x694]
000027AC  AA1F                     syscall    PlotCIcon
label000027AE:
000027AE  0C6D 0005 F802           cmpi.w     [A5 - 0x7FE], 0x5
000027B4  660A                     bne        +0xC /* 000027C0 */
000027B6  486E FEF8                pea.l      [A6 - 0x108]
000027BA  2F2D F970                move.l     -[A7], [A5 - 0x690]
000027BE  AA1F                     syscall    PlotCIcon
label000027C0:
000027C0  0C6D 0001 F802           cmpi.w     [A5 - 0x7FE], 0x1
000027C6  6612                     bne        +0x14 /* 000027DA */
000027C8  486D FEE4                pea.l      [A5 - 0x11C]
000027CC  AA14                     syscall    RGBForeColor
000027CE  486E FEF8                pea.l      [A6 - 0x108]
000027D2  A8A2                     syscall    PaintRect
000027D4  486D FEDE                pea.l      [A5 - 0x122]
000027D8  AA14                     syscall    RGBForeColor
label000027DA:
000027DA  302D FECA                move.w     D0, [A5 - 0x136]
000027DE  B06D F82A                cmp.w      D0, [A5 - 0x7D6]
000027E2  6752                     beq        +0x54 /* 00002836 */
000027E4  3B6D F82A FECA           move.w     [A5 - 0x136], [A5 - 0x7D6]
000027EA  486E FEF8                pea.l      [A6 - 0x108]
000027EE  42A7                     clr.l      -[A7]
000027F0  2F3C 0008 0008           move.l     -[A7], 0x80008
000027F6  A8A7                     syscall    SetRect
000027F8  486E FEF8                pea.l      [A6 - 0x108]
000027FC  302D F3CE                move.w     D0, [A5 - 0xC32]
00002800  0640 01B6                addi.w     D0, 0x1B6
00002804  3F00                     move.w     -[A7], D0
00002806  7004                     moveq.l    D0, 0x04
00002808  D06D F750                add.w      D0, [A5 - 0x8B0]
0000280C  3F00                     move.w     -[A7], D0
0000280E  A8A8                     syscall    OffsetRect
00002810  0C6D 0001 F82A           cmpi.w     [A5 - 0x7D6], 0x1
00002816  660C                     bne        +0xE /* 00002824 */
00002818  486E FEF8                pea.l      [A6 - 0x108]
0000281C  2F2D F95C                move.l     -[A7], [A5 - 0x6A4]
00002820  AA1F                     syscall    PlotCIcon
00002822  6012                     bra        +0x14 /* 00002836 */
label00002824:
00002824  486D FEE4                pea.l      [A5 - 0x11C]
00002828  AA14                     syscall    RGBForeColor
0000282A  486E FEF8                pea.l      [A6 - 0x108]
0000282E  A8A2                     syscall    PaintRect
00002830  486D FEDE                pea.l      [A5 - 0x122]
00002834  AA14                     syscall    RGBForeColor
label00002836:
00002836  302D FECC                move.w     D0, [A5 - 0x134]
0000283A  B06D F828                cmp.w      D0, [A5 - 0x7D8]
0000283E  6752                     beq        +0x54 /* 00002892 */
00002840  3B6D F828 FECC           move.w     [A5 - 0x134], [A5 - 0x7D8]
00002846  486E FEF8                pea.l      [A6 - 0x108]
0000284A  42A7                     clr.l      -[A7]
0000284C  2F3C 0008 0008           move.l     -[A7], 0x80008
00002852  A8A7                     syscall    SetRect
00002854  486E FEF8                pea.l      [A6 - 0x108]
00002858  302D F3CE                move.w     D0, [A5 - 0xC32]
0000285C  0640 01C6                addi.w     D0, 0x1C6
00002860  3F00                     move.w     -[A7], D0
00002862  7004                     moveq.l    D0, 0x04
00002864  D06D F750                add.w      D0, [A5 - 0x8B0]
00002868  3F00                     move.w     -[A7], D0
0000286A  A8A8                     syscall    OffsetRect
0000286C  0C6D 0001 F828           cmpi.w     [A5 - 0x7D8], 0x1
00002872  660C                     bne        +0xE /* 00002880 */
00002874  486E FEF8                pea.l      [A6 - 0x108]
00002878  2F2D F960                move.l     -[A7], [A5 - 0x6A0]
0000287C  AA1F                     syscall    PlotCIcon
0000287E  6012                     bra        +0x14 /* 00002892 */
label00002880:
00002880  486D FEE4                pea.l      [A5 - 0x11C]
00002884  AA14                     syscall    RGBForeColor
00002886  486E FEF8                pea.l      [A6 - 0x108]
0000288A  A8A2                     syscall    PaintRect
0000288C  486D FEDE                pea.l      [A5 - 0x122]
00002890  AA14                     syscall    RGBForeColor
label00002892:
00002892  302D FED6                move.w     D0, [A5 - 0x12A]
00002896  B06D F82C                cmp.w      D0, [A5 - 0x7D4]
0000289A  6752                     beq        +0x54 /* 000028EE */
0000289C  3B6D F82C FED6           move.w     [A5 - 0x12A], [A5 - 0x7D4]
000028A2  486E FEF8                pea.l      [A6 - 0x108]
000028A6  42A7                     clr.l      -[A7]
000028A8  2F3C 0008 0008           move.l     -[A7], 0x80008
000028AE  A8A7                     syscall    SetRect
000028B0  486E FEF8                pea.l      [A6 - 0x108]
000028B4  302D F3CE                move.w     D0, [A5 - 0xC32]
000028B8  0640 01D6                addi.w     D0, 0x1D6
000028BC  3F00                     move.w     -[A7], D0
000028BE  7004                     moveq.l    D0, 0x04
000028C0  D06D F750                add.w      D0, [A5 - 0x8B0]
000028C4  3F00                     move.w     -[A7], D0
000028C6  A8A8                     syscall    OffsetRect
000028C8  0C6D 0001 F82C           cmpi.w     [A5 - 0x7D4], 0x1
000028CE  660C                     bne        +0xE /* 000028DC */
000028D0  486E FEF8                pea.l      [A6 - 0x108]
000028D4  2F2D F974                move.l     -[A7], [A5 - 0x68C]
000028D8  AA1F                     syscall    PlotCIcon
000028DA  6012                     bra        +0x14 /* 000028EE */
label000028DC:
000028DC  486D FEE4                pea.l      [A5 - 0x11C]
000028E0  AA14                     syscall    RGBForeColor
000028E2  486E FEF8                pea.l      [A6 - 0x108]
000028E6  A8A2                     syscall    PaintRect
000028E8  486D FEDE                pea.l      [A5 - 0x122]
000028EC  AA14                     syscall    RGBForeColor
label000028EE:
000028EE  302D FED4                move.w     D0, [A5 - 0x12C]
000028F2  B06D F830                cmp.w      D0, [A5 - 0x7D0]
000028F6  6752                     beq        +0x54 /* 0000294A */
000028F8  3B6D F830 FED4           move.w     [A5 - 0x12C], [A5 - 0x7D0]
000028FE  486E FEF8                pea.l      [A6 - 0x108]
00002902  42A7                     clr.l      -[A7]
00002904  2F3C 0008 0008           move.l     -[A7], 0x80008
0000290A  A8A7                     syscall    SetRect
0000290C  486E FEF8                pea.l      [A6 - 0x108]
00002910  302D F3CE                move.w     D0, [A5 - 0xC32]
00002914  0640 01E6                addi.w     D0, 0x1E6
00002918  3F00                     move.w     -[A7], D0
0000291A  7004                     moveq.l    D0, 0x04
0000291C  D06D F750                add.w      D0, [A5 - 0x8B0]
00002920  3F00                     move.w     -[A7], D0
00002922  A8A8                     syscall    OffsetRect
00002924  0C6D 0001 F830           cmpi.w     [A5 - 0x7D0], 0x1
0000292A  660C                     bne        +0xE /* 00002938 */
0000292C  486E FEF8                pea.l      [A6 - 0x108]
00002930  2F2D F97C                move.l     -[A7], [A5 - 0x684]
00002934  AA1F                     syscall    PlotCIcon
00002936  6012                     bra        +0x14 /* 0000294A */
label00002938:
00002938  486D FEE4                pea.l      [A5 - 0x11C]
0000293C  AA14                     syscall    RGBForeColor
0000293E  486E FEF8                pea.l      [A6 - 0x108]
00002942  A8A2                     syscall    PaintRect
00002944  486D FEDE                pea.l      [A5 - 0x122]
00002948  AA14                     syscall    RGBForeColor
label0000294A:
0000294A  302D FED2                move.w     D0, [A5 - 0x12E]
0000294E  B06D F82E                cmp.w      D0, [A5 - 0x7D2]
00002952  6752                     beq        +0x54 /* 000029A6 */
00002954  3B6D F82E FED2           move.w     [A5 - 0x12E], [A5 - 0x7D2]
0000295A  486E FEF8                pea.l      [A6 - 0x108]
0000295E  42A7                     clr.l      -[A7]
00002960  2F3C 0008 0008           move.l     -[A7], 0x80008
00002966  A8A7                     syscall    SetRect
00002968  486E FEF8                pea.l      [A6 - 0x108]
0000296C  302D F3CE                move.w     D0, [A5 - 0xC32]
00002970  0640 01F6                addi.w     D0, 0x1F6
00002974  3F00                     move.w     -[A7], D0
00002976  7004                     moveq.l    D0, 0x04
00002978  D06D F750                add.w      D0, [A5 - 0x8B0]
0000297C  3F00                     move.w     -[A7], D0
0000297E  A8A8                     syscall    OffsetRect
00002980  0C6D 0001 F82E           cmpi.w     [A5 - 0x7D2], 0x1
00002986  660C                     bne        +0xE /* 00002994 */
00002988  486E FEF8                pea.l      [A6 - 0x108]
0000298C  2F2D F978                move.l     -[A7], [A5 - 0x688]
00002990  AA1F                     syscall    PlotCIcon
00002992  6012                     bra        +0x14 /* 000029A6 */
label00002994:
00002994  486D FEE4                pea.l      [A5 - 0x11C]
00002998  AA14                     syscall    RGBForeColor
0000299A  486E FEF8                pea.l      [A6 - 0x108]
0000299E  A8A2                     syscall    PaintRect
000029A0  486D FEDE                pea.l      [A5 - 0x122]
000029A4  AA14                     syscall    RGBForeColor
label000029A6:
000029A6  202D FEB8                move.l     D0, [A5 - 0x148]
000029AA  B0AD F7C8                cmp.l      D0, [A5 - 0x838]
000029AE  676E                     beq        +0x70 /* 00002A1E */
000029B0  202D F7C8                move.l     D0, [A5 - 0x838]
000029B4  90AD FEC2                sub.l      D0, [A5 - 0x13E]
000029B8  0C80 0000 C350           cmpi.l     D0, 0xC350
000029BE  6D34                     blt        +0x36 /* 000029F4 */
000029C0  526D F7DC                addq.w     [A5 - 0x824], 1
000029C4  2F3C 0000 C350           move.l     -[A7], 0xC350
000029CA  2F3C 0000 C350           move.l     -[A7], 0xC350
000029D0  2F2D F7C8                move.l     -[A7], [A5 - 0x838]
000029D4  4EAD 005A                jsr        [A5 + 0x5A /* export_7, CODE:1 @ 0000014E */]
000029D8  2F00                     move.l     -[A7], D0
000029DA  4EAD 0042                jsr        [A5 + 0x42 /* export_4, CODE:1 @ 000000D6 */]
000029DE  2B40 FEC2                move.l     [A5 - 0x13E], D0
000029E2  4227                     clr.b      -[A7]
000029E4  2F2D F914                move.l     -[A7], [A5 - 0x6EC]
000029E8  3F3C 0005                move.w     -[A7], 0x5
000029EC  42A7                     clr.l      -[A7]
000029EE  4EAD 00BA                jsr        [A5 + 0xBA /* export_19, CODE:3 @ 00001E74 */]
000029F2  548F                     addq.l     A7, 2
label000029F4:
000029F4  2B6D F7C8 FEB8           move.l     [A5 - 0x148], [A5 - 0x838]
000029FA  2F2D F7C8                move.l     -[A7], [A5 - 0x838]
000029FE  486E FF00                pea.l      [A6 - 0x100]
00002A02  4EAD 019A                jsr        [A5 + 0x19A /* export_47, CODE:3 @ 000005E8 */]
00002A06  702D                     moveq.l    D0, 0x2D
00002A08  D06D F3CE                add.w      D0, [A5 - 0xC32]
00002A0C  3F00                     move.w     -[A7], D0
00002A0E  700B                     moveq.l    D0, 0x0B
00002A10  D06D F750                add.w      D0, [A5 - 0x8B0]
00002A14  3F00                     move.w     -[A7], D0
00002A16  A893                     syscall    MoveTo
00002A18  486E FF00                pea.l      [A6 - 0x100]
00002A1C  A884                     syscall    DrawString
label00002A1E:
00002A1E  306D F7CE                movea.w    A0, [A5 - 0x832]
00002A22  B1ED FEBC                cmpa.l     A0, [A5 - 0x144]
00002A26  6730                     beq        +0x32 /* 00002A58 */
00002A28  306D F7CE                movea.w    A0, [A5 - 0x832]
00002A2C  2B48 FEBC                move.l     [A5 - 0x144], A0
00002A30  326D F7CE                movea.w    A1, [A5 - 0x832]
00002A34  2F09                     move.l     -[A7], A1
00002A36  486E FF00                pea.l      [A6 - 0x100]
00002A3A  4EAD 019A                jsr        [A5 + 0x19A /* export_47, CODE:3 @ 000005E8 */]
00002A3E  302D F3CE                move.w     D0, [A5 - 0xC32]
00002A42  0640 00FF                addi.w     D0, 0xFF
00002A46  3F00                     move.w     -[A7], D0
00002A48  700B                     moveq.l    D0, 0x0B
00002A4A  D06D F750                add.w      D0, [A5 - 0x8B0]
00002A4E  3F00                     move.w     -[A7], D0
00002A50  A893                     syscall    MoveTo
00002A52  486E FF00                pea.l      [A6 - 0x100]
00002A56  A884                     syscall    DrawString
label00002A58:
00002A58  302D FEC0                move.w     D0, [A5 - 0x140]
00002A5C  B06D F7DC                cmp.w      D0, [A5 - 0x824]
00002A60  674C                     beq        +0x4E /* 00002AAE */
00002A62  3B6D F7DC FEC0           move.w     [A5 - 0x140], [A5 - 0x824]
00002A68  306D F7DC                movea.w    A0, [A5 - 0x824]
00002A6C  2F08                     move.l     -[A7], A0
00002A6E  486E FF00                pea.l      [A6 - 0x100]
00002A72  4EAD 019A                jsr        [A5 + 0x19A /* export_47, CODE:3 @ 000005E8 */]
00002A76  302D F3CE                move.w     D0, [A5 - 0xC32]
00002A7A  0640 013F                addi.w     D0, 0x13F
00002A7E  3F00                     move.w     -[A7], D0
00002A80  700B                     moveq.l    D0, 0x0B
00002A82  D06D F750                add.w      D0, [A5 - 0x8B0]
00002A86  3F00                     move.w     -[A7], D0
00002A88  A893                     syscall    MoveTo
00002A8A  6014                     bra        +0x16 /* 00002AA0 */
label00002A8C:
00002A8C  522E FF00                addq.b     [A6 - 0x100], 1
00002A90  7000                     moveq.l    D0, 0x00
00002A92  102E FF00                move.b     D0, [A6 - 0x100]
00002A96  204E                     movea.l    A0, A6
00002A98  D1C0                     add.l      A0, D0
00002A9A  117C 0020 FF00           move.b     [A0 - 0x100], 0x20 /* ' ' */
label00002AA0:
00002AA0  0C2E 0003 FF00           cmpi.b     [A6 - 0x100], 0x3
00002AA6  65E4                     bcs        -0x1A /* 00002A8C */
00002AA8  486E FF00                pea.l      [A6 - 0x100]
00002AAC  A884                     syscall    DrawString
label00002AAE:
00002AAE  202D FEC6                move.l     D0, [A5 - 0x13A]
00002AB2  B0AD F7E8                cmp.l      D0, [A5 - 0x818]
00002AB6  674A                     beq        +0x4C /* 00002B02 */
00002AB8  2B6D F7E8 FEC6           move.l     [A5 - 0x13A], [A5 - 0x818]
00002ABE  2F2D F7E8                move.l     -[A7], [A5 - 0x818]
00002AC2  486E FF00                pea.l      [A6 - 0x100]
00002AC6  4EAD 019A                jsr        [A5 + 0x19A /* export_47, CODE:3 @ 000005E8 */]
00002ACA  6014                     bra        +0x16 /* 00002AE0 */
label00002ACC:
00002ACC  522E FF00                addq.b     [A6 - 0x100], 1
00002AD0  7000                     moveq.l    D0, 0x00
00002AD2  102E FF00                move.b     D0, [A6 - 0x100]
00002AD6  204E                     movea.l    A0, A6
00002AD8  D1C0                     add.l      A0, D0
00002ADA  117C 0020 FF00           move.b     [A0 - 0x100], 0x20 /* ' ' */
label00002AE0:
00002AE0  0C2E 0007 FF00           cmpi.b     [A6 - 0x100], 0x7
00002AE6  65E4                     bcs        -0x1A /* 00002ACC */
00002AE8  302D F3CE                move.w     D0, [A5 - 0xC32]
00002AEC  0640 0180                addi.w     D0, 0x180
00002AF0  3F00                     move.w     -[A7], D0
00002AF2  700B                     moveq.l    D0, 0x0B
00002AF4  D06D F750                add.w      D0, [A5 - 0x8B0]
00002AF8  3F00                     move.w     -[A7], D0
00002AFA  A893                     syscall    MoveTo
00002AFC  486E FF00                pea.l      [A6 - 0x100]
00002B00  A884                     syscall    DrawString
label00002B02:
00002B02  2B6D F784 FEEA           move.l     [A5 - 0x116], [A5 - 0x87C]
label00002B08:
00002B08  2E1F                     move.l     D7, [A7]+
00002B0A  4E5E                     unlink     A6
00002B0C  4E75                     rts
fn00002B0E:
00002B0E  4E56 FFFE                link       A6, -0x0002
00002B12  426E FFFE                clr.w      [A6 - 0x2]
00002B16  41F8 0174                lea.l      A0, [0x00000174 /* KeyMap */]
00002B1A  703E                     moveq.l    D0, 0x3E
00002B1C  3200                     move.w     D1, D0
00002B1E  E680                     asr        D0, 3
00002B20  4641                     not.w      D1
00002B22  0330 0800                btst       [A0 + D0], D1
00002B26  6708                     beq        +0xA /* 00002B30 */
00002B28  3D7C 0001 FFFE           move.w     [A6 - 0x2], 0x1
00002B2E  6004                     bra        +0x6 /* 00002B34 */
label00002B30:
00002B30  426E FFFE                clr.w      [A6 - 0x2]
label00002B34:
00002B34  0C6E 0001 FFFE           cmpi.w     [A6 - 0x2], 0x1
00002B3A  6604                     bne        +0x6 /* 00002B40 */
00002B3C  7001                     moveq.l    D0, 0x01
00002B3E  6002                     bra        +0x4 /* 00002B42 */
label00002B40:
00002B40  7000                     moveq.l    D0, 0x00
label00002B42:
00002B42  4E5E                     unlink     A6
00002B44  4E75                     rts
export_63:
00002B46  4E56 FFFA                link       A6, -0x0006
00002B4A  2D6D FEEE FFFA           move.l     [A6 - 0x6], [A5 - 0x112]
00002B50  3D6D FEF2 FFFE           move.w     [A6 - 0x2], [A5 - 0x10E]
00002B56  3F3C 0014                move.w     -[A7], 0x14
00002B5A  486E FFFA                pea.l      [A6 - 0x6]
00002B5E  4EAD 0272                jsr        [A5 + 0x272 /* export_74, CODE:8 @ 00000320 */]
00002B62  4EAD 02BA                jsr        [A5 + 0x2BA /* export_83, CODE:2 @ 000002C6 */]
00002B66  A850                     syscall    InitCursor
00002B68  A852                     syscall    HideCursor
00002B6A  A11D                     syscall    MaxMem, flags=1
00002B6C  422D F79A                clr.b      [A5 - 0x866]
00002B70  42AD F7C8                clr.l      [A5 - 0x838]
00002B74  70FF                     moveq.l    D0, 0xFFFFFFFF
00002B76  D06D F1FC                add.w      D0, [A5 - 0xE04]
00002B7A  3B40 F7CE                move.w     [A5 - 0x832], D0
00002B7E  72FF                     moveq.l    D1, 0xFFFFFFFF
00002B80  D26D F1FE                add.w      D1, [A5 - 0xE02]
00002B84  3B41 F7DC                move.w     [A5 - 0x824], D1
00002B88  3B7C 0001 F7E2           move.w     [A5 - 0x81E], 0x1
00002B8E  42AD F7E4                clr.l      [A5 - 0x81C]
00002B92  42AD F774                clr.l      [A5 - 0x88C]
00002B96  2B78 016A F784           move.l     [A5 - 0x87C], [0x0000016A /* Ticks */]
00002B9C  2B6D F784 F7EC           move.l     [A5 - 0x814], [A5 - 0x87C]
00002BA2  426D F832                clr.w      [A5 - 0x7CE]
00002BA6  3B7C 00B4 F834           move.w     [A5 - 0x7CC], 0xB4
00002BAC  42AD F844                clr.l      [A5 - 0x7BC]
00002BB0  426D F7BA                clr.w      [A5 - 0x846]
00002BB4  426D F828                clr.w      [A5 - 0x7D8]
00002BB8  426D F82A                clr.w      [A5 - 0x7D6]
00002BBC  426D F82C                clr.w      [A5 - 0x7D4]
00002BC0  426D F82E                clr.w      [A5 - 0x7D2]
00002BC4  426D F830                clr.w      [A5 - 0x7D0]
00002BC8  4EBA 05FE                jsr        [PC + 0x5FE /* 000031C8 */]
00002BCC  600C                     bra        +0xE /* 00002BDA */
label00002BCE:
00002BCE  4EBA D476                jsr        [PC - 0x2B8A /* 00000046 */]
00002BD2  4EBA EEC8                jsr        [PC - 0x1138 /* 00001A9C */]
00002BD6  4EBA 001E                jsr        [PC + 0x1E /* 00002BF6 */]
label00002BDA:
00002BDA  0C6D 0001 F7E2           cmpi.w     [A5 - 0x81E], 0x1
00002BE0  67EC                     beq        -0x12 /* 00002BCE */
00002BE2  426D F7BC                clr.w      [A5 - 0x844]
00002BE6  426D F7BA                clr.w      [A5 - 0x846]
00002BEA  4EBA 0AEC                jsr        [PC + 0xAEC /* 000036D8 */]
00002BEE  4EAD 02C2                jsr        [A5 + 0x2C2 /* export_84, CODE:2 @ 00000358 */]
00002BF2  4E5E                     unlink     A6
00002BF4  4E75                     rts
fn00002BF6:
00002BF6  4E56 FFD8                link       A6, -0x0028
00002BFA  48E7 1F38                movem.l    -[A7], D3,D4,D5,D6,D7,A2,A3,A4
00002BFE  4AAD F844                tst.l      [A5 - 0x7BC]
00002C02  6716                     beq        +0x18 /* 00002C1A */
00002C04  202D F784                move.l     D0, [A5 - 0x87C]
00002C08  90AD F844                sub.l      D0, [A5 - 0x7BC]
00002C0C  7278                     moveq.l    D1, 0x78
00002C0E  B280                     cmp.l      D1, D0
00002C10  6C08                     bge        +0xA /* 00002C1A */
00002C12  42AD F844                clr.l      [A5 - 0x7BC]
00002C16  426D F832                clr.w      [A5 - 0x7CE]
label00002C1A:
00002C1A  4AAD F84E                tst.l      [A5 - 0x7B2]
00002C1E  6714                     beq        +0x16 /* 00002C34 */
00002C20  202D F784                move.l     D0, [A5 - 0x87C]
00002C24  90AD F84E                sub.l      D0, [A5 - 0x7B2]
00002C28  0C80 0000 0258           cmpi.l     D0, 0x258
00002C2E  6F04                     ble        +0x6 /* 00002C34 */
00002C30  42AD F84E                clr.l      [A5 - 0x7B2]
label00002C34:
00002C34  4A6D F7F8                tst.w      [A5 - 0x808]
00002C38  6612                     bne        +0x14 /* 00002C4C */
00002C3A  202D F784                move.l     D0, [A5 - 0x87C]
00002C3E  90AD F7F0                sub.l      D0, [A5 - 0x810]
00002C42  B0AD F7FE                cmp.l      D0, [A5 - 0x802]
00002C46  6F04                     ble        +0x6 /* 00002C4C */
00002C48  4EBA 1CBA                jsr        [PC + 0x1CBA /* 00004904 */]
label00002C4C:
00002C4C  4A6D F804                tst.w      [A5 - 0x7FC]
00002C50  6612                     bne        +0x14 /* 00002C64 */
00002C52  202D F784                move.l     D0, [A5 - 0x87C]
00002C56  90AD F7F0                sub.l      D0, [A5 - 0x810]
00002C5A  B0AD F80A                cmp.l      D0, [A5 - 0x7F6]
00002C5E  6F04                     ble        +0x6 /* 00002C64 */
00002C60  4EBA 1B66                jsr        [PC + 0x1B66 /* 000047C8 */]
label00002C64:
00002C64  4A6D F80E                tst.w      [A5 - 0x7F2]
00002C68  6612                     bne        +0x14 /* 00002C7C */
00002C6A  202D F784                move.l     D0, [A5 - 0x87C]
00002C6E  90AD F7F0                sub.l      D0, [A5 - 0x810]
00002C72  B0AD F814                cmp.l      D0, [A5 - 0x7EC]
00002C76  6F04                     ble        +0x6 /* 00002C7C */
00002C78  4EBA 1ECA                jsr        [PC + 0x1ECA /* 00004B44 */]
label00002C7C:
00002C7C  4AAD F84A                tst.l      [A5 - 0x7B6]
00002C80  6712                     beq        +0x14 /* 00002C94 */
00002C82  202D F784                move.l     D0, [A5 - 0x87C]
00002C86  90AD F7F0                sub.l      D0, [A5 - 0x810]
00002C8A  B0AD F84A                cmp.l      D0, [A5 - 0x7B6]
00002C8E  6F04                     ble        +0x6 /* 00002C94 */
00002C90  4EBA 191E                jsr        [PC + 0x191E /* 000045B0 */]
label00002C94:
00002C94  4AAD F81C                tst.l      [A5 - 0x7E4]
00002C98  6712                     beq        +0x14 /* 00002CAC */
00002C9A  202D F784                move.l     D0, [A5 - 0x87C]
00002C9E  90AD F7F0                sub.l      D0, [A5 - 0x810]
00002CA2  B0AD F81C                cmp.l      D0, [A5 - 0x7E4]
00002CA6  6F04                     ble        +0x6 /* 00002CAC */
00002CA8  4EBA 207A                jsr        [PC + 0x207A /* 00004D24 */]
label00002CAC:
00002CAC  4AAD F820                tst.l      [A5 - 0x7E0]
00002CB0  6712                     beq        +0x14 /* 00002CC4 */
00002CB2  202D F784                move.l     D0, [A5 - 0x87C]
00002CB6  90AD F7F0                sub.l      D0, [A5 - 0x810]
00002CBA  B0AD F820                cmp.l      D0, [A5 - 0x7E0]
00002CBE  6F04                     ble        +0x6 /* 00002CC4 */
00002CC0  4EBA 1FAC                jsr        [PC + 0x1FAC /* 00004C6E */]
label00002CC4:
00002CC4  4AAD F818                tst.l      [A5 - 0x7E8]
00002CC8  6712                     beq        +0x14 /* 00002CDC */
00002CCA  202D F784                move.l     D0, [A5 - 0x87C]
00002CCE  90AD F7F0                sub.l      D0, [A5 - 0x810]
00002CD2  B0AD F818                cmp.l      D0, [A5 - 0x7E8]
00002CD6  6F04                     ble        +0x6 /* 00002CDC */
00002CD8  4EBA 215E                jsr        [PC + 0x215E /* 00004E38 */]
label00002CDC:
00002CDC  4AAD F838                tst.l      [A5 - 0x7C8]
00002CE0  6712                     beq        +0x14 /* 00002CF4 */
00002CE2  202D F784                move.l     D0, [A5 - 0x87C]
00002CE6  90AD F7F0                sub.l      D0, [A5 - 0x810]
00002CEA  B0AD F838                cmp.l      D0, [A5 - 0x7C8]
00002CEE  6F04                     ble        +0x6 /* 00002CF4 */
00002CF0  4EBA 1D7C                jsr        [PC + 0x1D7C /* 00004A6E */]
label00002CF4:
00002CF4  0C6D 0001 F836           cmpi.w     [A5 - 0x7CA], 0x1
00002CFA  6600 00EA                bne        +0xEC /* 00002DE6 */
00002CFE  202D F784                move.l     D0, [A5 - 0x87C]
00002D02  90AD F83C                sub.l      D0, [A5 - 0x7C4]
00002D06  0C80 0000 012C           cmpi.l     D0, 0x12C
00002D0C  6F00 00D8                ble        +0xDA /* 00002DE6 */
00002D10  426D F836                clr.w      [A5 - 0x7CA]
00002D14  7C00                     moveq.l    D6, 0x00
00002D16  49ED F234                lea.l      A4, [A5 - 0xDCC]
00002D1A  6000 00C2                bra        +0xC4 /* 00002DDE */
label00002D1E:
00002D1E  2054                     movea.l    A0, [A4]
00002D20  0CA8 7368 6970 0002      cmpi.l     [A0 + 0x2], 0x73686970 /* 'ship' */
00002D28  660C                     bne        +0xE /* 00002D36 */
00002D2A  2054                     movea.l    A0, [A4]
00002D2C  4268 000A                clr.w      [A0 + 0xA]
00002D30  2054                     movea.l    A0, [A4]
00002D32  4268 000C                clr.w      [A0 + 0xC]
label00002D36:
00002D36  2054                     movea.l    A0, [A4]
00002D38  0CA8 6578 706C 0002      cmpi.l     [A0 + 0x2], 0x6578706C /* 'expl' */
00002D40  660C                     bne        +0xE /* 00002D4E */
00002D42  2054                     movea.l    A0, [A4]
00002D44  4268 000A                clr.w      [A0 + 0xA]
00002D48  2054                     movea.l    A0, [A4]
00002D4A  4268 000C                clr.w      [A0 + 0xC]
label00002D4E:
00002D4E  2054                     movea.l    A0, [A4]
00002D50  0CA8 6D75 6C74 0002      cmpi.l     [A0 + 0x2], 0x6D756C74 /* 'mult' */
00002D58  660C                     bne        +0xE /* 00002D66 */
00002D5A  2054                     movea.l    A0, [A4]
00002D5C  4268 000A                clr.w      [A0 + 0xA]
00002D60  2054                     movea.l    A0, [A4]
00002D62  4268 000C                clr.w      [A0 + 0xC]
label00002D66:
00002D66  2654                     movea.l    A3, [A4]
00002D68  0CAB 626F 6E75 0002      cmpi.l     [A3 + 0x2], 0x626F6E75 /* 'bonu' */
00002D70  6650                     bne        +0x52 /* 00002DC2 */
00002D72  202B 0020                move.l     D0, [A3 + 0x20]
00002D76  B0AD F8AC                cmp.l      D0, [A5 - 0x754]
00002D7A  660E                     bne        +0x10 /* 00002D8A */
00002D7C  2054                     movea.l    A0, [A4]
00002D7E  4268 000A                clr.w      [A0 + 0xA]
00002D82  2054                     movea.l    A0, [A4]
00002D84  4268 000C                clr.w      [A0 + 0xC]
00002D88  6038                     bra        +0x3A /* 00002DC2 */
label00002D8A:
00002D8A  7A00                     moveq.l    D5, 0x00
00002D8C  382D F7CE                move.w     D4, [A5 - 0x832]
00002D90  48C4                     ext.l      D4
00002D92  89FC 0006                divs.w     D4, 0x6
00002D96  5844                     addq.w     D4, 4
00002D98  E94C                     lsl        D4.w, 4
00002D9A  2604                     move.l     D3, D4
00002D9C  48C3                     ext.l      D3
00002D9E  87FC 0002                divs.w     D3, 0x2
00002DA2  600A                     bra        +0xC /* 00002DAE */
label00002DA4:
00002DA4  4267                     clr.w      -[A7]
00002DA6  3F03                     move.w     -[A7], D3
00002DA8  4EAD 02AA                jsr        [A5 + 0x2AA /* export_81, CODE:2 @ 00000154 */]
00002DAC  3A1F                     move.w     D5, [A7]+
label00002DAE:
00002DAE  4A45                     tst.w      D5
00002DB0  67F2                     beq        -0xC /* 00002DA4 */
00002DB2  0645 0030                addi.w     D5, 0x30 /* '0' */
00002DB6  2054                     movea.l    A0, [A4]
00002DB8  3145 000A                move.w     [A0 + 0xA], D5
00002DBC  2054                     movea.l    A0, [A4]
00002DBE  3145 000C                move.w     [A0 + 0xC], D5
label00002DC2:
00002DC2  2054                     movea.l    A0, [A4]
00002DC4  0CA8 6772 6176 0002      cmpi.l     [A0 + 0x2], 0x67726176 /* 'grav' */
00002DCC  660C                     bne        +0xE /* 00002DDA */
00002DCE  2054                     movea.l    A0, [A4]
00002DD0  4268 000A                clr.w      [A0 + 0xA]
00002DD4  2054                     movea.l    A0, [A4]
00002DD6  4268 000C                clr.w      [A0 + 0xC]
label00002DDA:
00002DDA  5246                     addq.w     D6, 1
00002DDC  588C                     addq.l     A4, 4
label00002DDE:
00002DDE  BC6D F7C6                cmp.w      D6, [A5 - 0x83A]
00002DE2  6D00 FF3A                blt        -0xC4 /* 00002D1E */
label00002DE6:
00002DE6  202D F784                move.l     D0, [A5 - 0x87C]
00002DEA  90AD F7EC                sub.l      D0, [A5 - 0x814]
00002DEE  721E                     moveq.l    D1, 0x1E
00002DF0  B280                     cmp.l      D1, D0
00002DF2  6C00 02DE                bge        +0x2E0 /* 000030D2 */
00002DF6  700A                     moveq.l    D0, 0x0A
00002DF8  91AD F7E8                sub.l      [A5 - 0x818], D0
00002DFC  4AAD F7E8                tst.l      [A5 - 0x818]
00002E00  6C04                     bge        +0x6 /* 00002E06 */
00002E02  42AD F7E8                clr.l      [A5 - 0x818]
label00002E06:
00002E06  2B6D F784 F7EC           move.l     [A5 - 0x814], [A5 - 0x87C]
00002E0C  4EBA FD00                jsr        [PC - 0x300 /* 00002B0E */]
00002E10  4A00                     tst.b      D0
00002E12  6700 02BE                beq        +0x2C0 /* 000030D2 */
00002E16  2F2D F218                move.l     -[A7], [A5 - 0xDE8]
00002E1A  A873                     syscall    SetPort
00002E1C  426E FFE0                clr.w      [A6 - 0x20]
00002E20  426E FFE2                clr.w      [A6 - 0x1E]
00002E24  426E FFE4                clr.w      [A6 - 0x1C]
00002E28  3D7C FFFF FFE6           move.w     [A6 - 0x1A], 0xFFFF
00002E2E  3D7C FFFF FFE8           move.w     [A6 - 0x18], 0xFFFF
00002E34  3D7C FFFF FFEA           move.w     [A6 - 0x16], 0xFFFF
00002E3A  2D6D F3CC FFEC           move.l     [A6 - 0x14], [A5 - 0xC34]
00002E40  2D6D F3D0 FFF0           move.l     [A6 - 0x10], [A5 - 0xC30]
00002E46  486E FFEC                pea.l      [A6 - 0x14]
00002E4A  2F3C 0001 0001           move.l     -[A7], 0x10001
00002E50  A8A9                     syscall    InsetRect
00002E52  596E FFF2                subq.w     [A6 - 0xE], 4
00002E56  046E 000E FFF0           subi.w     [A6 - 0x10], 0xE
00002E5C  596E FFF0                subq.w     [A6 - 0x10], 4
00002E60  2D6E FFEC FFF4           move.l     [A6 - 0xC], [A6 - 0x14]
00002E66  2D6E FFF0 FFF8           move.l     [A6 - 0x8], [A6 - 0x10]
00002E6C  486E FFF4                pea.l      [A6 - 0xC]
00002E70  302E FFF6                move.w     D0, [A6 - 0xA]
00002E74  4440                     neg.w      D0
00002E76  3F00                     move.w     -[A7], D0
00002E78  302E FFF4                move.w     D0, [A6 - 0xC]
00002E7C  4440                     neg.w      D0
00002E7E  3F00                     move.w     -[A7], D0
00002E80  A8A8                     syscall    OffsetRect
00002E82  486E FFF4                pea.l      [A6 - 0xC]
00002E86  2F3C 0020 0020           move.l     -[A7], 0x200020 /* ' \0 ' */
00002E8C  A8A8                     syscall    OffsetRect
00002E8E  286D F3D4                movea.l    A4, [A5 - 0xC2C]
00002E92  266D F218                movea.l    A3, [A5 - 0xDE8]
00002E96  A850                     syscall    InitCursor
00002E98  4EAD 02C2                jsr        [A5 + 0x2C2 /* export_84, CODE:2 @ 00000358 */]
00002E9C  4227                     clr.b      -[A7]
00002E9E  2F2D F958                move.l     -[A7], [A5 - 0x6A8]
00002EA2  3F3C 0005                move.w     -[A7], 0x5
00002EA6  42A7                     clr.l      -[A7]
00002EA8  4EAD 00BA                jsr        [A5 + 0xBA /* export_19, CODE:3 @ 00001E74 */]
00002EAC  486E FFEC                pea.l      [A6 - 0x14]
00002EB0  A928                     syscall    InvalRect
00002EB2  548F                     addq.l     A7, 2
00002EB4  6000 016E                bra        +0x170 /* 00003024 */
label00002EB8:
00002EB8  42A7                     clr.l      -[A7]
00002EBA  A924                     syscall    FrontWindow
00002EBC  202D F218                move.l     D0, [A5 - 0xDE8]
00002EC0  B09F                     cmp.l      D0, [A7]+
00002EC2  660E                     bne        +0x10 /* 00002ED2 */
00002EC4  4227                     clr.b      -[A7]
00002EC6  4EAD 0262                jsr        [A5 + 0x262 /* export_72, CODE:8 @ 00000294 */]
00002ECA  4A1F                     tst.b      [A7]+
00002ECC  6704                     beq        +0x6 /* 00002ED2 */
00002ECE  4EAD 009A                jsr        [A5 + 0x9A /* export_15, CODE:3 @ 00000E0C */]
label00002ED2:
00002ED2  2F2D F78C                move.l     -[A7], [A5 - 0x874]
00002ED6  3F3C 0001                move.w     -[A7], 0x1
00002EDA  A93A                     syscall    DisableItem
00002EDC  4A2D F1F4                tst.b      [A5 - 0xE0C]
00002EE0  6716                     beq        +0x18 /* 00002EF8 */
00002EE2  4227                     clr.b      -[A7]
00002EE4  3F3C FFFF                move.w     -[A7], 0xFFFF
00002EE8  486D F752                pea.l      [A5 - 0x8AE]
00002EEC  4878 0001                push.l     0x1
00002EF0  42A7                     clr.l      -[A7]
00002EF2  A860                     syscall    WaitNextEvent
00002EF4  1C1F                     move.b     D6, [A7]+
00002EF6  6010                     bra        +0x12 /* 00002F08 */
label00002EF8:
00002EF8  A9B4                     syscall    SystemTask
00002EFA  4227                     clr.b      -[A7]
00002EFC  3F3C FFFF                move.w     -[A7], 0xFFFF
00002F00  486D F752                pea.l      [A5 - 0x8AE]
00002F04  A970                     syscall    GetNextEvent
00002F06  1C1F                     move.b     D6, [A7]+
label00002F08:
00002F08  4A06                     tst.b      D6
00002F0A  6700 0118                beq        +0x11A /* 00003024 */
00002F0E  0C6D 0001 F752           cmpi.w     [A5 - 0x8AE], 0x1
00002F14  6604                     bne        +0x6 /* 00002F1A */
00002F16  4EAD 0092                jsr        [A5 + 0x92 /* export_14, CODE:3 @ 00000F94 */]
label00002F1A:
00002F1A  0C6D 000F F752           cmpi.w     [A5 - 0x8AE], 0xF
00002F20  661E                     bne        +0x20 /* 00002F40 */
00002F22  082D 0000 F754           btst.b     [A5 - 0x8AC], 0x0
00002F28  6716                     beq        +0x18 /* 00002F40 */
00002F2A  082D 0000 F757           btst.b     [A5 - 0x8A9], 0x0
00002F30  670A                     beq        +0xC /* 00002F3C */
00002F32  4EAD 007A                jsr        [A5 + 0x7A /* export_11, CODE:3 @ 00000D94 */]
00002F36  4EAD 02C2                jsr        [A5 + 0x2C2 /* export_84, CODE:2 @ 00000358 */]
00002F3A  6004                     bra        +0x6 /* 00002F40 */
label00002F3C:
00002F3C  4EAD 0082                jsr        [A5 + 0x82 /* export_12, CODE:3 @ 00000DD6 */]
label00002F40:
00002F40  0C6D 0006 F752           cmpi.w     [A5 - 0x8AE], 0x6
00002F46  6600 00DC                bne        +0xDE /* 00003024 */
00002F4A  202D F754                move.l     D0, [A5 - 0x8AC]
00002F4E  B0AD F21C                cmp.l      D0, [A5 - 0xDE4]
00002F52  6604                     bne        +0x6 /* 00002F58 */
00002F54  4EAD 008A                jsr        [A5 + 0x8A /* export_13, CODE:3 @ 00000D1C */]
label00002F58:
00002F58  202D F754                move.l     D0, [A5 - 0x8AC]
00002F5C  B0AD F218                cmp.l      D0, [A5 - 0xDE8]
00002F60  6600 00C2                bne        +0xC4 /* 00003024 */
00002F64  2F2D F218                move.l     -[A7], [A5 - 0xDE8]
00002F68  A873                     syscall    SetPort
00002F6A  2F2D F218                move.l     -[A7], [A5 - 0xDE8]
00002F6E  A922                     syscall    BeginUpdate
00002F70  42A7                     clr.l      -[A7]
00002F72  AA32                     syscall    GetGDevice
00002F74  2E1F                     move.l     D7, [A7]+
00002F76  2F2D F20C                move.l     -[A7], [A5 - 0xDF4]
00002F7A  AA31                     syscall    SetGDevice
00002F7C  486E FFE6                pea.l      [A6 - 0x1A]
00002F80  AA15                     syscall    RGBBackColor
00002F82  486E FFE0                pea.l      [A6 - 0x20]
00002F86  AA14                     syscall    RGBForeColor
00002F88  206D F218                movea.l    A0, [A5 - 0xDE8]
00002F8C  4868 0010                pea.l      [A0 + 0x10]
00002F90  A8A2                     syscall    PaintRect
00002F92  4EBA 01D6                jsr        [PC + 0x1D6 /* 0000316A */]
00002F96  486E FFE6                pea.l      [A6 - 0x1A]
00002F9A  AA15                     syscall    RGBBackColor
00002F9C  486E FFE0                pea.l      [A6 - 0x20]
00002FA0  AA14                     syscall    RGBForeColor
00002FA2  42A7                     clr.l      -[A7]
00002FA4  3F3C 0C3A                move.w     -[A7], 0xC3A
00002FA8  A9BC                     syscall    GetPicture
00002FAA  245F                     movea.l    A2, [A7]+
00002FAC  200A                     move.l     D0, A2
00002FAE  676A                     beq        +0x6C /* 0000301A */
00002FB0  204A                     movea.l    A0, A2
00002FB2  A04A                     syscall    HNoPurge
00002FB4  2052                     movea.l    A0, [A2]
00002FB6  2D68 0002 FFD8           move.l     [A6 - 0x28], [A0 + 0x2]
00002FBC  2D68 0006 FFDC           move.l     [A6 - 0x24], [A0 + 0x6]
00002FC2  486E FFD8                pea.l      [A6 - 0x28]
00002FC6  302E FFDA                move.w     D0, [A6 - 0x26]
00002FCA  4440                     neg.w      D0
00002FCC  3F00                     move.w     -[A7], D0
00002FCE  302E FFD8                move.w     D0, [A6 - 0x28]
00002FD2  4440                     neg.w      D0
00002FD4  3F00                     move.w     -[A7], D0
00002FD6  A8A8                     syscall    OffsetRect
00002FD8  3C2E FFF2                move.w     D6, [A6 - 0xE]
00002FDC  9C6E FFEE                sub.w      D6, [A6 - 0x12]
00002FE0  9C6E FFDE                sub.w      D6, [A6 - 0x22]
00002FE4  48C6                     ext.l      D6
00002FE6  8DFC 0002                divs.w     D6, 0x2
00002FEA  DC6E FFEE                add.w      D6, [A6 - 0x12]
00002FEE  3A2E FFF0                move.w     D5, [A6 - 0x10]
00002FF2  9A6E FFEC                sub.w      D5, [A6 - 0x14]
00002FF6  9A6E FFDC                sub.w      D5, [A6 - 0x24]
00002FFA  48C5                     ext.l      D5
00002FFC  8BFC 0003                divs.w     D5, 0x3
00003000  DA6E FFEC                add.w      D5, [A6 - 0x14]
00003004  486E FFD8                pea.l      [A6 - 0x28]
00003008  3F06                     move.w     -[A7], D6
0000300A  3F05                     move.w     -[A7], D5
0000300C  A8A8                     syscall    OffsetRect
0000300E  2F0A                     move.l     -[A7], A2
00003010  486E FFD8                pea.l      [A6 - 0x28]
00003014  A8F6                     syscall    DrawPicture
00003016  204A                     movea.l    A0, A2
00003018  A049                     syscall    HPurge
label0000301A:
0000301A  2F07                     move.l     -[A7], D7
0000301C  AA31                     syscall    SetGDevice
0000301E  2F2D F218                move.l     -[A7], [A5 - 0xDE8]
00003022  A923                     syscall    EndUpdate
label00003024:
00003024  4EBA FAE8                jsr        [PC - 0x518 /* 00002B0E */]
00003028  4A00                     tst.b      D0
0000302A  6600 FE8C                bne        -0x172 /* 00002EB8 */
0000302E  42A7                     clr.l      -[A7]
00003030  A924                     syscall    FrontWindow
00003032  201F                     move.l     D0, [A7]+
00003034  B0AD F218                cmp.l      D0, [A5 - 0xDE8]
00003038  6600 FE7E                bne        -0x180 /* 00002EB8 */
0000303C  4227                     clr.b      -[A7]
0000303E  4EAD 0262                jsr        [A5 + 0x262 /* export_72, CODE:8 @ 00000294 */]
00003042  4A1F                     tst.b      [A7]+
00003044  6704                     beq        +0x6 /* 0000304A */
00003046  4EAD 009A                jsr        [A5 + 0x9A /* export_15, CODE:3 @ 00000E0C */]
label0000304A:
0000304A  2F2D F78C                move.l     -[A7], [A5 - 0x874]
0000304E  3F3C 0001                move.w     -[A7], 0x1
00003052  A93A                     syscall    DisableItem
00003054  4EAD 02BA                jsr        [A5 + 0x2BA /* export_83, CODE:2 @ 000002C6 */]
00003058  42A7                     clr.l      -[A7]
0000305A  AA32                     syscall    GetGDevice
0000305C  2E1F                     move.l     D7, [A7]+
0000305E  2F2D F20C                move.l     -[A7], [A5 - 0xDF4]
00003062  AA31                     syscall    SetGDevice
00003064  2F2D F218                move.l     -[A7], [A5 - 0xDE8]
00003068  A873                     syscall    SetPort
0000306A  486E FFE6                pea.l      [A6 - 0x1A]
0000306E  AA15                     syscall    RGBBackColor
00003070  486E FFE0                pea.l      [A6 - 0x20]
00003074  AA14                     syscall    RGBForeColor
00003076  206D F218                movea.l    A0, [A5 - 0xDE8]
0000307A  4868 0010                pea.l      [A0 + 0x10]
0000307E  A8A2                     syscall    PaintRect
00003080  4EBA 00E8                jsr        [PC + 0xE8 /* 0000316A */]
00003084  486E FFE6                pea.l      [A6 - 0x1A]
00003088  AA15                     syscall    RGBBackColor
0000308A  486E FFE0                pea.l      [A6 - 0x20]
0000308E  AA14                     syscall    RGBForeColor
00003090  486C 0002                pea.l      [A4 + 0x2]
00003094  486B 0002                pea.l      [A3 + 0x2]
00003098  486E FFF4                pea.l      [A6 - 0xC]
0000309C  486E FFEC                pea.l      [A6 - 0x14]
000030A0  4267                     clr.w      -[A7]
000030A2  42A7                     clr.l      -[A7]
000030A4  A8EC                     syscall    CopyBits
000030A6  1F3C 0001                move.b     -[A7], 0x1
000030AA  4EBA F49A                jsr        [PC - 0xB66 /* 00002546 */]
000030AE  4217                     clr.b      [A7]
000030B0  4EBA F494                jsr        [PC - 0xB6C /* 00002546 */]
000030B4  2F07                     move.l     -[A7], D7
000030B6  AA31                     syscall    SetGDevice
000030B8  2F2D F78C                move.l     -[A7], [A5 - 0x874]
000030BC  3F3C 0001                move.w     -[A7], 0x1
000030C0  A939                     syscall    EnableItem
000030C2  2F3C 0000 FFFF           move.l     -[A7], 0xFFFF
000030C8  201F                     move.l     D0, [A7]+
000030CA  A032                     syscall    FlushEvents
000030CC  A850                     syscall    InitCursor
000030CE  A852                     syscall    HideCursor
000030D0  548F                     addq.l     A7, 2
label000030D2:
000030D2  202D F784                move.l     D0, [A5 - 0x87C]
000030D6  90AD F7E4                sub.l      D0, [A5 - 0x81C]
000030DA  721E                     moveq.l    D1, 0x1E
000030DC  B280                     cmp.l      D1, D0
000030DE  6C04                     bge        +0x6 /* 000030E4 */
000030E0  4EBA 13DA                jsr        [PC + 0x13DA /* 000044BC */]
label000030E4:
000030E4  302D F61E                move.w     D0, [A5 - 0x9E2]
000030E8  204D                     movea.l    A0, A5
000030EA  48C0                     ext.l      D0
000030EC  E588                     lsl        D0, 2
000030EE  D1C0                     add.l      A0, D0
000030F0  2068 F234                movea.l    A0, [A0 - 0xDCC]
000030F4  0CA8 6465 6164 0006      cmpi.l     [A0 + 0x6], 0x64656164 /* 'dead' */
000030FC  6624                     bne        +0x26 /* 00003122 */
000030FE  426D F3C8                clr.w      [A5 - 0xC38]
00003102  202D F784                move.l     D0, [A5 - 0x87C]
00003106  90AD F7DE                sub.l      D0, [A5 - 0x822]
0000310A  0C80 0000 00B4           cmpi.l     D0, 0xB4
00003110  6F10                     ble        +0x12 /* 00003122 */
00003112  4A6D F7DC                tst.w      [A5 - 0x824]
00003116  6606                     bne        +0x8 /* 0000311E */
00003118  426D F7E2                clr.w      [A5 - 0x81E]
0000311C  6004                     bra        +0x6 /* 00003122 */
label0000311E:
0000311E  4EBA 0448                jsr        [PC + 0x448 /* 00003568 */]
label00003122:
00003122  0C6D FFFF F7DC           cmpi.w     [A5 - 0x824], 0xFFFF
00003128  6738                     beq        +0x3A /* 00003162 */
0000312A  4227                     clr.b      -[A7]
0000312C  4EBA F418                jsr        [PC - 0xBE8 /* 00002546 */]
00003130  4A6D F7DA                tst.w      [A5 - 0x826]
00003134  548F                     addq.l     A7, 2
00003136  6E10                     bgt        +0x12 /* 00003148 */
00003138  4AAD F7F4                tst.l      [A5 - 0x80C]
0000313C  660A                     bne        +0xC /* 00003148 */
0000313E  2B6D F784 F7F4           move.l     [A5 - 0x80C], [A5 - 0x87C]
00003144  426D F3C8                clr.w      [A5 - 0xC38]
label00003148:
00003148  202D F784                move.l     D0, [A5 - 0x87C]
0000314C  90AD F7F4                sub.l      D0, [A5 - 0x80C]
00003150  0C80 0000 00B4           cmpi.l     D0, 0xB4
00003156  6F0A                     ble        +0xC /* 00003162 */
00003158  4AAD F7F4                tst.l      [A5 - 0x80C]
0000315C  6704                     beq        +0x6 /* 00003162 */
0000315E  4EBA 0068                jsr        [PC + 0x68 /* 000031C8 */]
label00003162:
00003162  4CDF 1CF8                movem.l    D3,D4,D5,D6,D7,A2,A3,A4, [A7]+
00003166  4E5E                     unlink     A6
00003168  4E75                     rts
fn0000316A:
0000316A  4E56 FFF2                link       A6, -0x000E
0000316E  2F07                     move.l     -[A7], D7
00003170  3D7C FFFF FFF2           move.w     [A6 - 0xE], 0xFFFF
00003176  3D7C FFFF FFF4           move.w     [A6 - 0xC], 0xFFFF
0000317C  3D7C FFFF FFF6           move.w     [A6 - 0xA], 0xFFFF
00003182  2D6D F3CC FFF8           move.l     [A6 - 0x8], [A5 - 0xC34]
00003188  2D6D F3D0 FFFC           move.l     [A6 - 0x4], [A5 - 0xC30]
0000318E  7E00                     moveq.l    D7, 0x00
00003190  602A                     bra        +0x2C /* 000031BC */
label00003192:
00003192  486E FFF8                pea.l      [A6 - 0x8]
00003196  A8A1                     syscall    FrameRect
00003198  486E FFF2                pea.l      [A6 - 0xE]
0000319C  AA14                     syscall    RGBForeColor
0000319E  046E 2000 FFF2           subi.w     [A6 - 0xE], 0x2000 /* ' \0' */
000031A4  046E 2000 FFF4           subi.w     [A6 - 0xC], 0x2000 /* ' \0' */
000031AA  046E 2000 FFF6           subi.w     [A6 - 0xA], 0x2000 /* ' \0' */
000031B0  486E FFF8                pea.l      [A6 - 0x8]
000031B4  4878 FFFF                push.l     0xFFFF
000031B8  A8A9                     syscall    InsetRect
000031BA  5247                     addq.w     D7, 1
label000031BC:
000031BC  0C47 0008                cmpi.w     D7, 0x8
000031C0  6DD0                     blt        -0x2E /* 00003192 */
000031C2  2E1F                     move.l     D7, [A7]+
000031C4  4E5E                     unlink     A6
000031C6  4E75                     rts
fn000031C8:
000031C8  4E56 FFEE                link       A6, -0x0012
000031CC  48E7 0F08                movem.l    -[A7], D4,D5,D6,D7,A4
000031D0  2F3C 0000 FFFF           move.l     -[A7], 0xFFFF
000031D6  201F                     move.l     D0, [A7]+
000031D8  A032                     syscall    FlushEvents
000031DA  4EAD 02CA                jsr        [A5 + 0x2CA /* export_85, CODE:2 @ 000003D0 */]
000031DE  2F2D F218                move.l     -[A7], [A5 - 0xDE8]
000031E2  A873                     syscall    SetPort
000031E4  206D F218                movea.l    A0, [A5 - 0xDE8]
000031E8  4868 0010                pea.l      [A0 + 0x10]
000031EC  A87B                     syscall    ClipRect
000031EE  426D F848                clr.w      [A5 - 0x7B8]
000031F2  42AD F852                clr.l      [A5 - 0x7AE]
000031F6  426D F7BC                clr.w      [A5 - 0x844]
000031FA  426D F7BA                clr.w      [A5 - 0x846]
000031FE  426D F7DA                clr.w      [A5 - 0x826]
00003202  42AD F7F4                clr.l      [A5 - 0x80C]
00003206  426D F836                clr.w      [A5 - 0x7CA]
0000320A  426D F840                clr.w      [A5 - 0x7C0]
0000320E  426D F842                clr.w      [A5 - 0x7BE]
00003212  42AD F84E                clr.l      [A5 - 0x7B2]
00003216  70FF                     moveq.l    D0, 0xFFFFFFFF
00003218  D06D F1FC                add.w      D0, [A5 - 0xE04]
0000321C  B06D F7CE                cmp.w      D0, [A5 - 0x832]
00003220  6704                     beq        +0x6 /* 00003226 */
00003222  4EBA 0CDE                jsr        [PC + 0xCDE /* 00003F02 */]
label00003226:
00003226  526D F7CE                addq.w     [A5 - 0x832], 1
0000322A  2B7C 0000 07D0 F7E8      move.l     [A5 - 0x818], 0x7D0
00003232  4267                     clr.w      -[A7]
00003234  3F3C 0002                move.w     -[A7], 0x2
00003238  4EAD 02AA                jsr        [A5 + 0x2AA /* export_81, CODE:2 @ 00000154 */]
0000323C  3B5F F7F8                move.w     [A5 - 0x808], [A7]+
00003240  4267                     clr.w      -[A7]
00003242  3F3C 001E                move.w     -[A7], 0x1E
00003246  4EAD 02AA                jsr        [A5 + 0x2AA /* export_81, CODE:2 @ 00000154 */]
0000324A  703C                     moveq.l    D0, 0x3C
0000324C  C1DF                     muls.w     D0, [A7]+
0000324E  2B40 F7FE                move.l     [A5 - 0x802], D0
00003252  4267                     clr.w      -[A7]
00003254  3F3C 0002                move.w     -[A7], 0x2
00003258  4EAD 02AA                jsr        [A5 + 0x2AA /* export_81, CODE:2 @ 00000154 */]
0000325C  3B5F F804                move.w     [A5 - 0x7FC], [A7]+
00003260  4267                     clr.w      -[A7]
00003262  3F3C 001E                move.w     -[A7], 0x1E
00003266  4EAD 02AA                jsr        [A5 + 0x2AA /* export_81, CODE:2 @ 00000154 */]
0000326A  703C                     moveq.l    D0, 0x3C
0000326C  C1DF                     muls.w     D0, [A7]+
0000326E  2B40 F80A                move.l     [A5 - 0x7F6], D0
00003272  4267                     clr.w      -[A7]
00003274  3F3C 0002                move.w     -[A7], 0x2
00003278  4EAD 02AA                jsr        [A5 + 0x2AA /* export_81, CODE:2 @ 00000154 */]
0000327C  3B5F F80E                move.w     [A5 - 0x7F2], [A7]+
00003280  4267                     clr.w      -[A7]
00003282  3F3C 001E                move.w     -[A7], 0x1E
00003286  4EAD 02AA                jsr        [A5 + 0x2AA /* export_81, CODE:2 @ 00000154 */]
0000328A  703C                     moveq.l    D0, 0x3C
0000328C  C1DF                     muls.w     D0, [A7]+
0000328E  2B40 F814                move.l     [A5 - 0x7EC], D0
00003292  4267                     clr.w      -[A7]
00003294  720A                     moveq.l    D1, 0x0A
00003296  D26D F7CE                add.w      D1, [A5 - 0x832]
0000329A  3F01                     move.w     -[A7], D1
0000329C  4EAD 02AA                jsr        [A5 + 0x2AA /* export_81, CODE:2 @ 00000154 */]
000032A0  0C5F 000B                cmpi.w     [A7]+, 0xB
000032A4  6F14                     ble        +0x16 /* 000032BA */
000032A6  4267                     clr.w      -[A7]
000032A8  3F3C 003C                move.w     -[A7], 0x3C /* '<' */
000032AC  4EAD 02AA                jsr        [A5 + 0x2AA /* export_81, CODE:2 @ 00000154 */]
000032B0  703C                     moveq.l    D0, 0x3C
000032B2  C1DF                     muls.w     D0, [A7]+
000032B4  2B40 F81C                move.l     [A5 - 0x7E4], D0
000032B8  6004                     bra        +0x6 /* 000032BE */
label000032BA:
000032BA  42AD F81C                clr.l      [A5 - 0x7E4]
label000032BE:
000032BE  4267                     clr.w      -[A7]
000032C0  700A                     moveq.l    D0, 0x0A
000032C2  D06D F7CE                add.w      D0, [A5 - 0x832]
000032C6  3F00                     move.w     -[A7], D0
000032C8  4EAD 02AA                jsr        [A5 + 0x2AA /* export_81, CODE:2 @ 00000154 */]
000032CC  0C5F 000D                cmpi.w     [A7]+, 0xD /* '\r' */
000032D0  6F14                     ble        +0x16 /* 000032E6 */
000032D2  4267                     clr.w      -[A7]
000032D4  3F3C 003C                move.w     -[A7], 0x3C /* '<' */
000032D8  4EAD 02AA                jsr        [A5 + 0x2AA /* export_81, CODE:2 @ 00000154 */]
000032DC  703C                     moveq.l    D0, 0x3C
000032DE  C1DF                     muls.w     D0, [A7]+
000032E0  2B40 F838                move.l     [A5 - 0x7C8], D0
000032E4  6004                     bra        +0x6 /* 000032EA */
label000032E6:
000032E6  42AD F838                clr.l      [A5 - 0x7C8]
label000032EA:
000032EA  4267                     clr.w      -[A7]
000032EC  3F3C 0003                move.w     -[A7], 0x3
000032F0  4EAD 02AA                jsr        [A5 + 0x2AA /* export_81, CODE:2 @ 00000154 */]
000032F4  4A5F                     tst.w      [A7]+
000032F6  6614                     bne        +0x16 /* 0000330C */
000032F8  4267                     clr.w      -[A7]
000032FA  3F3C 001E                move.w     -[A7], 0x1E
000032FE  4EAD 02AA                jsr        [A5 + 0x2AA /* export_81, CODE:2 @ 00000154 */]
00003302  703C                     moveq.l    D0, 0x3C
00003304  C1DF                     muls.w     D0, [A7]+
00003306  2B40 F84A                move.l     [A5 - 0x7B6], D0
0000330A  6004                     bra        +0x6 /* 00003310 */
label0000330C:
0000330C  42AD F84A                clr.l      [A5 - 0x7B6]
label00003310:
00003310  42AD F83C                clr.l      [A5 - 0x7C4]
00003314  4267                     clr.w      -[A7]
00003316  3F3C 000A                move.w     -[A7], 0xA /* '\n' */
0000331A  4EAD 02AA                jsr        [A5 + 0x2AA /* export_81, CODE:2 @ 00000154 */]
0000331E  4A5F                     tst.w      [A7]+
00003320  6614                     bne        +0x16 /* 00003336 */
00003322  4267                     clr.w      -[A7]
00003324  3F3C 003C                move.w     -[A7], 0x3C /* '<' */
00003328  4EAD 02AA                jsr        [A5 + 0x2AA /* export_81, CODE:2 @ 00000154 */]
0000332C  703C                     moveq.l    D0, 0x3C
0000332E  C1DF                     muls.w     D0, [A7]+
00003330  2B40 F820                move.l     [A5 - 0x7E0], D0
00003334  6004                     bra        +0x6 /* 0000333A */
label00003336:
00003336  42AD F820                clr.l      [A5 - 0x7E0]
label0000333A:
0000333A  4267                     clr.w      -[A7]
0000333C  700A                     moveq.l    D0, 0x0A
0000333E  D06D F7CE                add.w      D0, [A5 - 0x832]
00003342  3F00                     move.w     -[A7], D0
00003344  4EAD 02AA                jsr        [A5 + 0x2AA /* export_81, CODE:2 @ 00000154 */]
00003348  0C5F 000C                cmpi.w     [A7]+, 0xC
0000334C  6F14                     ble        +0x16 /* 00003362 */
0000334E  4267                     clr.w      -[A7]
00003350  3F3C 003C                move.w     -[A7], 0x3C /* '<' */
00003354  4EAD 02AA                jsr        [A5 + 0x2AA /* export_81, CODE:2 @ 00000154 */]
00003358  703C                     moveq.l    D0, 0x3C
0000335A  C1DF                     muls.w     D0, [A7]+
0000335C  2B40 F818                move.l     [A5 - 0x7E8], D0
00003360  6004                     bra        +0x6 /* 00003366 */
label00003362:
00003362  42AD F818                clr.l      [A5 - 0x7E8]
label00003366:
00003366  2B6D F784 F7F0           move.l     [A5 - 0x810], [A5 - 0x87C]
0000336C  42AD F7FA                clr.l      [A5 - 0x806]
00003370  3B7C 0001 F802           move.w     [A5 - 0x7FE], 0x1
00003376  3E2D F7CE                move.w     D7, [A5 - 0x832]
0000337A  48C7                     ext.l      D7
0000337C  8FFC 0004                divs.w     D7, 0x4
00003380  0C47 0001                cmpi.w     D7, 0x1
00003384  6C02                     bge        +0x4 /* 00003388 */
00003386  7E01                     moveq.l    D7, 0x01
label00003388:
00003388  4267                     clr.w      -[A7]
0000338A  3F07                     move.w     -[A7], D7
0000338C  4EAD 02AA                jsr        [A5 + 0x2AA /* export_81, CODE:2 @ 00000154 */]
00003390  302D F7CE                move.w     D0, [A5 - 0x832]
00003394  48C0                     ext.l      D0
00003396  81FC 0005                divs.w     D0, 0x5
0000339A  D05F                     add.w      D0, [A7]+
0000339C  5640                     addq.w     D0, 3
0000339E  3B40 F7CC                move.w     [A5 - 0x834], D0
000033A2  7E00                     moveq.l    D7, 0x00
000033A4  49ED F668                lea.l      A4, [A5 - 0x998]
000033A8  6008                     bra        +0xA /* 000033B2 */
label000033AA:
000033AA  2054                     movea.l    A0, [A4]
000033AC  4250                     clr.w      [A0]
000033AE  5247                     addq.w     D7, 1
000033B0  588C                     addq.l     A4, 4
label000033B2:
000033B2  0C47 0012                cmpi.w     D7, 0x12
000033B6  6DF2                     blt        -0xC /* 000033AA */
000033B8  7E00                     moveq.l    D7, 0x00
000033BA  49ED F620                lea.l      A4, [A5 - 0x9E0]
000033BE  6008                     bra        +0xA /* 000033C8 */
label000033C0:
000033C0  2054                     movea.l    A0, [A4]
000033C2  4250                     clr.w      [A0]
000033C4  5247                     addq.w     D7, 1
000033C6  588C                     addq.l     A4, 4
label000033C8:
000033C8  0C47 0012                cmpi.w     D7, 0x12
000033CC  6DF2                     blt        -0xC /* 000033C0 */
000033CE  2F2D F3D4                move.l     -[A7], [A5 - 0xC2C]
000033D2  A873                     syscall    SetPort
000033D4  206D F3D4                movea.l    A0, [A5 - 0xC2C]
000033D8  2D68 0010 FFF8           move.l     [A6 - 0x8], [A0 + 0x10]
000033DE  2D68 0014 FFFC           move.l     [A6 - 0x4], [A0 + 0x14]
000033E4  486E FFF8                pea.l      [A6 - 0x8]
000033E8  A8A2                     syscall    PaintRect
000033EA  2F2D F218                move.l     -[A7], [A5 - 0xDE8]
000033EE  A873                     syscall    SetPort
000033F0  302D F7CE                move.w     D0, [A5 - 0x832]
000033F4  B06D F1FC                cmp.w      D0, [A5 - 0xE04]
000033F8  6718                     beq        +0x1A /* 00003412 */
000033FA  206D F218                movea.l    A0, [A5 - 0xDE8]
000033FE  2D68 0010 FFF8           move.l     [A6 - 0x8], [A0 + 0x10]
00003404  2D68 0014 FFFC           move.l     [A6 - 0x4], [A0 + 0x14]
0000340A  046E 000E FFFC           subi.w     [A6 - 0x4], 0xE
00003410  6010                     bra        +0x12 /* 00003422 */
label00003412:
00003412  206D F218                movea.l    A0, [A5 - 0xDE8]
00003416  2D68 0010 FFF8           move.l     [A6 - 0x8], [A0 + 0x10]
0000341C  2D68 0014 FFFC           move.l     [A6 - 0x4], [A0 + 0x14]
label00003422:
00003422  426E FFF2                clr.w      [A6 - 0xE]
00003426  426E FFF4                clr.w      [A6 - 0xC]
0000342A  426E FFF6                clr.w      [A6 - 0xA]
0000342E  486E FFF2                pea.l      [A6 - 0xE]
00003432  AA14                     syscall    RGBForeColor
00003434  486E FFF8                pea.l      [A6 - 0x8]
00003438  A8A2                     syscall    PaintRect
0000343A  4EBA FD2E                jsr        [PC - 0x2D2 /* 0000316A */]
0000343E  1F3C 0001                move.b     -[A7], 0x1
00003442  4EBA F102                jsr        [PC - 0xEFE /* 00002546 */]
00003446  548F                     addq.l     A7, 2
00003448  6008                     bra        +0xA /* 00003452 */
label0000344A:
0000344A  4267                     clr.w      -[A7]
0000344C  4EBA 1248                jsr        [PC + 0x1248 /* 00004696 */]
00003450  548F                     addq.l     A7, 2
label00003452:
00003452  4A6D F7C6                tst.w      [A5 - 0x83A]
00003456  66F2                     bne        -0xC /* 0000344A */
00003458  426D F7C6                clr.w      [A5 - 0x83A]
0000345C  42AD F7C2                clr.l      [A5 - 0x83E]
00003460  42AD F7BE                clr.l      [A5 - 0x842]
00003464  703C                     moveq.l    D0, 0x3C
00003466  2B40 F7D0                move.l     [A5 - 0x830], D0
0000346A  42AD F7D4                clr.l      [A5 - 0x82C]
0000346E  426D F7D8                clr.w      [A5 - 0x828]
00003472  426D F3C8                clr.w      [A5 - 0xC38]
00003476  3C2D F226                move.w     D6, [A5 - 0xDDA]
0000347A  48C6                     ext.l      D6
0000347C  8DFC 0002                divs.w     D6, 0x2
00003480  E94E                     lsl        D6.w, 4
00003482  3A2D F224                move.w     D5, [A5 - 0xDDC]
00003486  48C5                     ext.l      D5
00003488  8BFC 0002                divs.w     D5, 0x2
0000348C  E94D                     lsl        D5.w, 4
0000348E  2F3C 7368 6970           move.l     -[A7], 0x73686970 /* 'ship' */
00003494  42A7                     clr.l      -[A7]
00003496  3F05                     move.w     -[A7], D5
00003498  3F06                     move.w     -[A7], D6
0000349A  3F3C FFFF                move.w     -[A7], 0xFFFF
0000349E  2F2D F878                move.l     -[A7], [A5 - 0x788]
000034A2  4EBA 1264                jsr        [PC + 0x1264 /* 00004708 */]
000034A6  3B40 F3CA                move.w     [A5 - 0xC36], D0
000034AA  322D F61E                move.w     D1, [A5 - 0x9E2]
000034AE  204D                     movea.l    A0, A5
000034B0  48C1                     ext.l      D1
000034B2  E589                     lsl        D1, 2
000034B4  D1C1                     add.l      A0, D1
000034B6  2068 F234                movea.l    A0, [A0 - 0xDCC]
000034BA  217C 676F 6F64 0006      move.l     [A0 + 0x6], 0x676F6F64 /* 'good' */
000034C2  2EBC 7468 7275           move.l     [A7], 0x74687275 /* 'thru' */
000034C8  42A7                     clr.l      -[A7]
000034CA  3F05                     move.w     -[A7], D5
000034CC  3F06                     move.w     -[A7], D6
000034CE  3F3C FFFF                move.w     -[A7], 0xFFFF
000034D2  2F2D F8C0                move.l     -[A7], [A5 - 0x740]
000034D6  4EBA 1230                jsr        [PC + 0x1230 /* 00004708 */]
000034DA  3B40 F3CA                move.w     [A5 - 0xC36], D0
000034DE  4A40                     tst.w      D0
000034E0  4FEF 0020                lea.l      A7, [A7 + 0x20]
000034E4  670E                     beq        +0x10 /* 000034F4 */
000034E6  1F3C 0001                move.b     -[A7], 0x1
000034EA  3F2D F3CA                move.w     -[A7], [A5 - 0xC36]
000034EE  4EAD 0072                jsr        [A5 + 0x72 /* export_10, CODE:3 @ 00001120 */]
000034F2  588F                     addq.l     A7, 4
label000034F4:
000034F4  7E00                     moveq.l    D7, 0x00
000034F6  6054                     bra        +0x56 /* 0000354C */
label000034F8:
000034F8  4267                     clr.w      -[A7]
000034FA  3F2D F226                move.w     -[A7], [A5 - 0xDDA]
000034FE  4EAD 02AA                jsr        [A5 + 0x2AA /* export_81, CODE:2 @ 00000154 */]
00003502  3C1F                     move.w     D6, [A7]+
00003504  E94E                     lsl        D6.w, 4
00003506  7A00                     moveq.l    D5, 0x00
00003508  4267                     clr.w      -[A7]
0000350A  3F3C 000A                move.w     -[A7], 0xA /* '\n' */
0000350E  4EAD 02AA                jsr        [A5 + 0x2AA /* export_81, CODE:2 @ 00000154 */]
00003512  381F                     move.w     D4, [A7]+
00003514  4A44                     tst.w      D4
00003516  6610                     bne        +0x12 /* 00003528 */
00003518  3F05                     move.w     -[A7], D5
0000351A  3F06                     move.w     -[A7], D6
0000351C  4EBA 1C7C                jsr        [PC + 0x1C7C /* 0000519A */]
00003520  3B40 F3CA                move.w     [A5 - 0xC36], D0
00003524  588F                     addq.l     A7, 4
00003526  600E                     bra        +0x10 /* 00003536 */
label00003528:
00003528  3F05                     move.w     -[A7], D5
0000352A  3F06                     move.w     -[A7], D6
0000352C  4EBA 1A1A                jsr        [PC + 0x1A1A /* 00004F48 */]
00003530  3B40 F3CA                move.w     [A5 - 0xC36], D0
00003534  588F                     addq.l     A7, 4
label00003536:
00003536  4A6D F3CA                tst.w      [A5 - 0xC36]
0000353A  670E                     beq        +0x10 /* 0000354A */
0000353C  1F3C 0001                move.b     -[A7], 0x1
00003540  3F2D F3CA                move.w     -[A7], [A5 - 0xC36]
00003544  4EAD 0072                jsr        [A5 + 0x72 /* export_10, CODE:3 @ 00001120 */]
00003548  588F                     addq.l     A7, 4
label0000354A:
0000354A  5247                     addq.w     D7, 1
label0000354C:
0000354C  BE6D F7CC                cmp.w      D7, [A5 - 0x834]
00003550  6DA6                     blt        -0x58 /* 000034F8 */
00003552  3F3C 0014                move.w     -[A7], 0x14
00003556  4EAD 027A                jsr        [A5 + 0x27A /* export_75, CODE:8 @ 00000548 */]
0000355A  3B7C 0001 F7BC           move.w     [A5 - 0x844], 0x1
00003560  4CDF 10F0                movem.l    D4,D5,D6,D7,A4, [A7]+
00003564  4E5E                     unlink     A6
00003566  4E75                     rts
fn00003568:
00003568  4E56 FFF2                link       A6, -0x000E
0000356C  48E7 0308                movem.l    -[A7], D6,D7,A4
00003570  7E01                     moveq.l    D7, 0x01
00003572  7C01                     moveq.l    D6, 0x01
00003574  42AD F84E                clr.l      [A5 - 0x7B2]
00003578  426D F3C8                clr.w      [A5 - 0xC38]
0000357C  0C6D 0001 F82C           cmpi.w     [A5 - 0x7D4], 0x1
00003582  6614                     bne        +0x16 /* 00003598 */
00003584  4267                     clr.w      -[A7]
00003586  3F3C 0003                move.w     -[A7], 0x3
0000358A  4EAD 02AA                jsr        [A5 + 0x2AA /* export_81, CODE:2 @ 00000154 */]
0000358E  4A5F                     tst.w      [A7]+
00003590  6606                     bne        +0x8 /* 00003598 */
00003592  7C00                     moveq.l    D6, 0x00
00003594  426D F82C                clr.w      [A5 - 0x7D4]
label00003598:
00003598  4A06                     tst.b      D6
0000359A  6714                     beq        +0x16 /* 000035B0 */
0000359C  426D F828                clr.w      [A5 - 0x7D8]
000035A0  426D F82A                clr.w      [A5 - 0x7D6]
000035A4  426D F82C                clr.w      [A5 - 0x7D4]
000035A8  426D F82E                clr.w      [A5 - 0x7D2]
000035AC  426D F830                clr.w      [A5 - 0x7D0]
label000035B0:
000035B0  302D F61E                move.w     D0, [A5 - 0x9E2]
000035B4  48C0                     ext.l      D0
000035B6  E588                     lsl        D0, 2
000035B8  49ED F234                lea.l      A4, [A5 - 0xDCC]
000035BC  D08C                     add.l      D0, A4
000035BE  2840                     movea.l    A4, D0
000035C0  302D F226                move.w     D0, [A5 - 0xDDA]
000035C4  48C0                     ext.l      D0
000035C6  81FC 0002                divs.w     D0, 0x2
000035CA  E948                     lsl        D0.w, 4
000035CC  2054                     movea.l    A0, [A4]
000035CE  3140 000E                move.w     [A0 + 0xE], D0
000035D2  302D F224                move.w     D0, [A5 - 0xDDC]
000035D6  48C0                     ext.l      D0
000035D8  81FC 0002                divs.w     D0, 0x2
000035DC  E948                     lsl        D0.w, 4
000035DE  2054                     movea.l    A0, [A4]
000035E0  3140 0010                move.w     [A0 + 0x10], D0
000035E4  2054                     movea.l    A0, [A4]
000035E6  4268 000A                clr.w      [A0 + 0xA]
000035EA  2054                     movea.l    A0, [A4]
000035EC  4268 000C                clr.w      [A0 + 0xC]
000035F0  4A07                     tst.b      D7
000035F2  6746                     beq        +0x48 /* 0000363A */
000035F4  536D F7DC                subq.w     [A5 - 0x824], 1
000035F8  3B7C 00B4 F834           move.w     [A5 - 0x7CC], 0xB4
000035FE  3B7C 0001 F832           move.w     [A5 - 0x7CE], 0x1
00003604  2B6D F784 F844           move.l     [A5 - 0x7BC], [A5 - 0x87C]
0000360A  206D F878                movea.l    A0, [A5 - 0x788]
0000360E  2254                     movea.l    A1, [A4]
00003610  3350 0018                move.w     [A1 + 0x18], [A0]
00003614  2054                     movea.l    A0, [A4]
00003616  4268 001A                clr.w      [A0 + 0x1A]
0000361A  2054                     movea.l    A0, [A4]
0000361C  4268 001E                clr.w      [A0 + 0x1E]
00003620  2054                     movea.l    A0, [A4]
00003622  317C FFFF 001C           move.w     [A0 + 0x1C], 0xFFFF
00003628  2054                     movea.l    A0, [A4]
0000362A  216D F878 0020           move.l     [A0 + 0x20], [A5 - 0x788]
00003630  2054                     movea.l    A0, [A4]
00003632  217C 676F 6F64 0006      move.l     [A0 + 0x6], 0x676F6F64 /* 'good' */
label0000363A:
0000363A  4CDF 10C0                movem.l    D6,D7,A4, [A7]+
0000363E  4E5E                     unlink     A6
00003640  4E75                     rts
fn00003642:
00003642  4E56 0000                link       A6, 0
00003646  48E7 FFFE                movem.l    -[A7], D0,D1,D2,D3,D4,D5,D6,D7,A0,A1,A2,A3,A4,A5,A6
0000364A  206E 000C                movea.l    A0, [A6 + 0xC]
0000364E  202E 0008                move.l     D0, [A6 + 0x8]
00003652  4EBA 004E                jsr        [PC + 0x4E /* 000036A2 */]
00003656  10FC 000A                move.b     [A0]+, 0xA /* '\n' */
0000365A  0601 0041                addi.b     D1, 0x41 /* 'A' */
0000365E  10C1                     move.b     [A0]+, D1
00003660  202E 0008                move.l     D0, [A6 + 0x8]
00003664  E598                     rol        D0, 2
00003666  0A80 FDCB A987           xori.l     D0, 0xFDCBA987
0000366C  E958                     rol        D0.w, 4
0000366E  4840                     swap.w     D0
00003670  E958                     rol        D0.w, 4
00003672  E598                     rol        D0, 2
00003674  0A80 3FC1 A982           xori.l     D0, 0x3FC1A982
0000367A  2A00                     move.l     D5, D0
0000367C  363C 0007                move.w     D3, 0x7
label00003680:
00003680  1200                     move.b     D1, D0
00003682  0281 0000 000F           andi.l     D1, 0xF
00003688  0601 0041                addi.b     D1, 0x41 /* 'A' */
0000368C  10C1                     move.b     [A0]+, D1
0000368E  E898                     ror        D0, 4
00003690  51CB FFEE                dbf        D3, -0x14 /* 00003680 */
00003694  2005                     move.l     D0, D5
00003696  4EBA 000A                jsr        [PC + 0xA /* 000036A2 */]
0000369A  0601 0041                addi.b     D1, 0x41 /* 'A' */
0000369E  10C1                     move.b     [A0]+, D1
000036A0  602E                     bra        +0x30 /* 000036D0 */
fn000036A2:
000036A2  4281                     clr.l      D1
000036A4  0A80 FFFF FFFF           xori.l     D0, 0xFFFFFFFF
000036AA  B101                     xor.b      D1, D0
000036AC  E399                     rol        D1, 1
000036AE  E198                     rol        D0, 8
000036B0  B101                     xor.b      D1, D0
000036B2  E319                     rol        D1.b, 1
000036B4  E198                     rol        D0, 8
000036B6  B101                     xor.b      D1, D0
000036B8  E319                     rol        D1.b, 1
000036BA  E198                     rol        D0, 8
000036BC  B101                     xor.b      D1, D0
000036BE  E319                     rol        D1.b, 1
000036C0  E198                     rol        D0, 8
000036C2  B101                     xor.b      D1, D0
000036C4  E319                     rol        D1.b, 1
000036C6  E198                     rol        D0, 8
000036C8  0281 0000 000F           andi.l     D1, 0xF
000036CE  4E75                     rts
label000036D0:
000036D0  4CDF 7FFF                movem.l    D0,D1,D2,D3,D4,D5,D6,D7,A0,A1,A2,A3,A4,A5,A6, [A7]+
000036D4  4E5E                     unlink     A6
000036D6  4E75                     rts
fn000036D8:
000036D8  4E56 FDB2                link       A6, -0x024E
000036DC  3D7C FFFF FEC2           move.w     [A6 - 0x13E], 0xFFFF
000036E2  422E FEC1                clr.b      [A6 - 0x13F]
000036E6  2D6D FEF4 FDB2           move.l     [A6 - 0x24E], [A5 - 0x10C]
000036EC  3D6D FEF8 FDB6           move.w     [A6 - 0x24A], [A5 - 0x108]
000036F2  3F3C 0014                move.w     -[A7], 0x14
000036F6  486E FDB2                pea.l      [A6 - 0x24E]
000036FA  4EAD 0272                jsr        [A5 + 0x272 /* export_74, CODE:8 @ 00000320 */]
000036FE  4EAD 00C2                jsr        [A5 + 0xC2 /* export_20, CODE:3 @ 0000216A */]
00003702  3F2D F782                move.w     -[A7], [A5 - 0x87E]
00003706  A998                     syscall    UseResFile
00003708  426D F3C8                clr.w      [A5 - 0xC38]
0000370C  2F3C 0000 FFFF           move.l     -[A7], 0xFFFF
00003712  201F                     move.l     D0, [A7]+
00003714  A032                     syscall    FlushEvents
00003716  6008                     bra        +0xA /* 00003720 */
label00003718:
00003718  4267                     clr.w      -[A7]
0000371A  4EBA 0F7A                jsr        [PC + 0xF7A /* 00004696 */]
0000371E  548F                     addq.l     A7, 2
label00003720:
00003720  4A6D F7C6                tst.w      [A5 - 0x83A]
00003724  66F2                     bne        -0xC /* 00003718 */
00003726  A11D                     syscall    MaxMem, flags=1
00003728  4EAD 02CA                jsr        [A5 + 0x2CA /* export_85, CODE:2 @ 000003D0 */]
0000372C  2F2D F218                move.l     -[A7], [A5 - 0xDE8]
00003730  A873                     syscall    SetPort
00003732  206D F218                movea.l    A0, [A5 - 0xDE8]
00003736  4868 0010                pea.l      [A0 + 0x10]
0000373A  A87B                     syscall    ClipRect
0000373C  2F2D F218                move.l     -[A7], [A5 - 0xDE8]
00003740  A873                     syscall    SetPort
00003742  206D F218                movea.l    A0, [A5 - 0xDE8]
00003746  2D68 0010 FEE6           move.l     [A6 - 0x11A], [A0 + 0x10]
0000374C  2D68 0014 FEEA           move.l     [A6 - 0x116], [A0 + 0x14]
00003752  426E FED8                clr.w      [A6 - 0x128]
00003756  426E FEDA                clr.w      [A6 - 0x126]
0000375A  426E FEDC                clr.w      [A6 - 0x124]
0000375E  486E FED8                pea.l      [A6 - 0x128]
00003762  AA14                     syscall    RGBForeColor
00003764  486E FEE6                pea.l      [A6 - 0x11A]
00003768  A8A2                     syscall    PaintRect
0000376A  42A7                     clr.l      -[A7]
0000376C  3F3C 0080                move.w     -[A7], 0x80
00003770  A9BC                     syscall    GetPicture
00003772  2D5F FEEE                move.l     [A6 - 0x112], [A7]+
00003776  206E FEEE                movea.l    A0, [A6 - 0x112]
0000377A  2050                     movea.l    A0, [A0]
0000377C  2D68 0002 FEE6           move.l     [A6 - 0x11A], [A0 + 0x2]
00003782  2D68 0006 FEEA           move.l     [A6 - 0x116], [A0 + 0x6]
00003788  486E FEE6                pea.l      [A6 - 0x11A]
0000378C  302E FEE8                move.w     D0, [A6 - 0x118]
00003790  4440                     neg.w      D0
00003792  3F00                     move.w     -[A7], D0
00003794  302E FEE6                move.w     D0, [A6 - 0x11A]
00003798  4440                     neg.w      D0
0000379A  3F00                     move.w     -[A7], D0
0000379C  A8A8                     syscall    OffsetRect
0000379E  302E FEEC                move.w     D0, [A6 - 0x114]
000037A2  906E FEE8                sub.w      D0, [A6 - 0x118]
000037A6  322D F76A                move.w     D1, [A5 - 0x896]
000037AA  926D F766                sub.w      D1, [A5 - 0x89A]
000037AE  9240                     sub.w      D1, D0
000037B0  48C1                     ext.l      D1
000037B2  83FC 0002                divs.w     D1, 0x2
000037B6  3D41 FEE4                move.w     [A6 - 0x11C], D1
000037BA  302E FEEA                move.w     D0, [A6 - 0x116]
000037BE  906E FEE6                sub.w      D0, [A6 - 0x11A]
000037C2  342D F768                move.w     D2, [A5 - 0x898]
000037C6  946D F764                sub.w      D2, [A5 - 0x89C]
000037CA  9440                     sub.w      D2, D0
000037CC  48C2                     ext.l      D2
000037CE  85FC 0002                divs.w     D2, 0x2
000037D2  3D42 FEE2                move.w     [A6 - 0x11E], D2
000037D6  486E FEE6                pea.l      [A6 - 0x11A]
000037DA  3F01                     move.w     -[A7], D1
000037DC  0642 FFB0                addi.w     D2, 0xFFB0
000037E0  3F02                     move.w     -[A7], D2
000037E2  A8A8                     syscall    OffsetRect
000037E4  2F2E FEEE                move.l     -[A7], [A6 - 0x112]
000037E8  486E FEE6                pea.l      [A6 - 0x11A]
000037EC  A8F6                     syscall    DrawPicture
000037EE  2F2E FEEE                move.l     -[A7], [A6 - 0x112]
000037F2  A9A3                     syscall    ReleaseResource
000037F4  4227                     clr.b      -[A7]
000037F6  2F2D F910                move.l     -[A7], [A5 - 0x6F0]
000037FA  3F3C 0005                move.w     -[A7], 0x5
000037FE  42A7                     clr.l      -[A7]
00003800  4EAD 00BA                jsr        [A5 + 0xBA /* export_19, CODE:3 @ 00001E74 */]
00003804  548F                     addq.l     A7, 2
00003806  3F3C 0014                move.w     -[A7], 0x14
0000380A  4EAD 027A                jsr        [A5 + 0x27A /* export_75, CODE:8 @ 00000548 */]
label0000380E:
0000380E  4227                     clr.b      -[A7]
00003810  42A7                     clr.l      -[A7]
00003812  4EAD 00CA                jsr        [A5 + 0xCA /* export_21, CODE:3 @ 00002214 */]
00003816  4A1F                     tst.b      [A7]+
00003818  66F4                     bne        -0xA /* 0000380E */
0000381A  3F2D F772                move.w     -[A7], [A5 - 0x88E]
0000381E  A998                     syscall    UseResFile
00003820  42A7                     clr.l      -[A7]
00003822  2F3C 5343 4F52           move.l     -[A7], 0x53434F52 /* 'SCOR' */
00003828  3F3C 0080                move.w     -[A7], 0x80
0000382C  A9A0                     syscall    GetResource
0000382E  2D5F FECC                move.l     [A6 - 0x134], [A7]+
00003832  206E FECC                movea.l    A0, [A6 - 0x134]
00003836  A029                     syscall    HLock
00003838  426E FEE0                clr.w      [A6 - 0x120]
0000383C  6026                     bra        +0x28 /* 00003864 */
label0000383E:
0000383E  206E FECC                movea.l    A0, [A6 - 0x134]
00003842  701A                     moveq.l    D0, 0x1A
00003844  C1EE FEE0                muls.w     D0, [A6 - 0x120]
00003848  2050                     movea.l    A0, [A0]
0000384A  2030 0816                move.l     D0, [A0 + D0 + 0x16]
0000384E  B0AD F7C8                cmp.l      D0, [A5 - 0x838]
00003852  6C0C                     bge        +0xE /* 00003860 */
00003854  3D6E FEE0 FEC2           move.w     [A6 - 0x13E], [A6 - 0x120]
0000385A  3D7C 000A FEE0           move.w     [A6 - 0x120], 0xA /* '\n' */
label00003860:
00003860  526E FEE0                addq.w     [A6 - 0x120], 1
label00003864:
00003864  0C6E 000A FEE0           cmpi.w     [A6 - 0x120], 0xA /* '\n' */
0000386A  6DD2                     blt        -0x2C /* 0000383E */
0000386C  3F2D F782                move.w     -[A7], [A5 - 0x87E]
00003870  A998                     syscall    UseResFile
00003872  2F3C 0000 FFFF           move.l     -[A7], 0xFFFF
00003878  201F                     move.l     D0, [A7]+
0000387A  A032                     syscall    FlushEvents
0000387C  3B6E FEC2 F770           move.w     [A5 - 0x890], [A6 - 0x13E]
00003882  0C6E FFFF FEC2           cmpi.w     [A6 - 0x13E], 0xFFFF
00003888  6700 0304                beq        +0x306 /* 00003B8E */
0000388C  0C6D 0001 F1FC           cmpi.w     [A5 - 0xE04], 0x1
00003892  6600 02FA                bne        +0x2FC /* 00003B8E */
00003896  0C6D 0003 F1FE           cmpi.w     [A5 - 0xE02], 0x3
0000389C  6600 02F0                bne        +0x2F2 /* 00003B8E */
000038A0  4227                     clr.b      -[A7]
000038A2  2F2D F91C                move.l     -[A7], [A5 - 0x6E4]
000038A6  3F3C 0005                move.w     -[A7], 0x5
000038AA  42A7                     clr.l      -[A7]
000038AC  4EAD 00BA                jsr        [A5 + 0xBA /* export_19, CODE:3 @ 00001E74 */]
000038B0  548F                     addq.l     A7, 2
000038B2  3D7C 0008 FEE0           move.w     [A6 - 0x120], 0x8
000038B8  6070                     bra        +0x72 /* 0000392A */
label000038BA:
000038BA  206E FECC                movea.l    A0, [A6 - 0x134]
000038BE  701A                     moveq.l    D0, 0x1A
000038C0  C1EE FEE0                muls.w     D0, [A6 - 0x120]
000038C4  2050                     movea.l    A0, [A0]
000038C6  226E FECC                movea.l    A1, [A6 - 0x134]
000038CA  7201                     moveq.l    D1, 0x01
000038CC  D26E FEE0                add.w      D1, [A6 - 0x120]
000038D0  C3FC 001A                muls.w     D1, 0x1A
000038D4  2251                     movea.l    A1, [A1]
000038D6  23B0 0816 1816           move.l     [A1 + D1 + 0x16], [A0 + D0 + 0x16]
000038DC  206E FECC                movea.l    A0, [A6 - 0x134]
000038E0  701A                     moveq.l    D0, 0x1A
000038E2  C1EE FEE0                muls.w     D0, [A6 - 0x120]
000038E6  2050                     movea.l    A0, [A0]
000038E8  226E FECC                movea.l    A1, [A6 - 0x134]
000038EC  7201                     moveq.l    D1, 0x01
000038EE  D26E FEE0                add.w      D1, [A6 - 0x120]
000038F2  C3FC 001A                muls.w     D1, 0x1A
000038F6  2251                     movea.l    A1, [A1]
000038F8  33B0 0814 1814           move.w     [A1 + D1 + 0x14], [A0 + D0 + 0x14]
000038FE  206E FECC                movea.l    A0, [A6 - 0x134]
00003902  701A                     moveq.l    D0, 0x1A
00003904  C1EE FEE0                muls.w     D0, [A6 - 0x120]
00003908  D090                     add.l      D0, [A0]
0000390A  2D40 FEC8                move.l     [A6 - 0x138], D0
0000390E  7201                     moveq.l    D1, 0x01
00003910  D26E FEE0                add.w      D1, [A6 - 0x120]
00003914  C3FC 001A                muls.w     D1, 0x1A
00003918  D290                     add.l      D1, [A0]
0000391A  2D41 FEC4                move.l     [A6 - 0x13C], D1
0000391E  2040                     movea.l    A0, D0
00003920  7014                     moveq.l    D0, 0x14
00003922  2241                     movea.l    A1, D1
00003924  A02E                     syscall    BlockMove/BlockMoveData
00003926  536E FEE0                subq.w     [A6 - 0x120], 1
label0000392A:
0000392A  302E FEE0                move.w     D0, [A6 - 0x120]
0000392E  B06E FEC2                cmp.w      D0, [A6 - 0x13E]
00003932  6C86                     bge        -0x78 /* 000038BA */
00003934  3D7C 7530 FED8           move.w     [A6 - 0x128], 0x7530 /* 'u0' */
0000393A  3D7C 7530 FEDA           move.w     [A6 - 0x126], 0x7530 /* 'u0' */
00003940  3D7C FFFF FEDC           move.w     [A6 - 0x124], 0xFFFF
00003946  486E FED8                pea.l      [A6 - 0x128]
0000394A  AA14                     syscall    RGBForeColor
0000394C  3F3C 0012                move.w     -[A7], 0x12
00003950  A88A                     syscall    TextSize
00003952  4267                     clr.w      -[A7]
00003954  A888                     syscall    TextFace
00003956  3F3C 0002                move.w     -[A7], 0x2
0000395A  A887                     syscall    TextFont
0000395C  4267                     clr.w      -[A7]
0000395E  486D FF26                pea.l      [A5 - 0xDA]
00003962  A88C                     syscall    StringWidth
00003964  301F                     move.w     D0, [A7]+
00003966  D040                     add.w      D0, D0
00003968  322D F3D2                move.w     D1, [A5 - 0xC2E]
0000396C  926D F3CE                sub.w      D1, [A5 - 0xC32]
00003970  9240                     sub.w      D1, D0
00003972  48C1                     ext.l      D1
00003974  83FC 0002                divs.w     D1, 0x2
00003978  3D41 FEDE                move.w     [A6 - 0x122], D1
0000397C  D26D F3CE                add.w      D1, [A5 - 0xC32]
00003980  3F01                     move.w     -[A7], D1
00003982  302D F3CC                move.w     D0, [A5 - 0xC34]
00003986  0640 012C                addi.w     D0, 0x12C
0000398A  3F00                     move.w     -[A7], D0
0000398C  A893                     syscall    MoveTo
0000398E  486D FF38                pea.l      [A5 - 0xC8]
00003992  A884                     syscall    DrawString
00003994  206D F1E6                movea.l    A0, [A5 - 0xE1A]
00003998  2D68 0030 FFFC           move.l     [A6 - 0x4], [A0 + 0x30]
0000399E  3D7C FFFF FED8           move.w     [A6 - 0x128], 0xFFFF
000039A4  3D7C FFFF FEDA           move.w     [A6 - 0x126], 0xFFFF
000039AA  3D7C FFFF FEDC           move.w     [A6 - 0x124], 0xFFFF
000039B0  486E FED8                pea.l      [A6 - 0x128]
000039B4  AA14                     syscall    RGBForeColor
000039B6  422E FDC0                clr.b      [A6 - 0x240]
000039BA  2F3C 0000 FFFF           move.l     -[A7], 0xFFFF
000039C0  201F                     move.l     D0, [A7]+
000039C2  A032                     syscall    FlushEvents
000039C4  6000 0166                bra        +0x168 /* 00003B2C */
label000039C8:
000039C8  4EAD 02CA                jsr        [A5 + 0x2CA /* export_85, CODE:2 @ 000003D0 */]
000039CC  4A2D F1F4                tst.b      [A5 - 0xE0C]
000039D0  6718                     beq        +0x1A /* 000039EA */
000039D2  4227                     clr.b      -[A7]
000039D4  3F3C FFFF                move.w     -[A7], 0xFFFF
000039D8  486E FFEA                pea.l      [A6 - 0x16]
000039DC  4878 0001                push.l     0x1
000039E0  42A7                     clr.l      -[A7]
000039E2  A860                     syscall    WaitNextEvent
000039E4  1D5F FFE5                move.b     [A6 - 0x1B], [A7]+
000039E8  6012                     bra        +0x14 /* 000039FC */
label000039EA:
000039EA  A9B4                     syscall    SystemTask
000039EC  4227                     clr.b      -[A7]
000039EE  3F3C FFFF                move.w     -[A7], 0xFFFF
000039F2  486E FFEA                pea.l      [A6 - 0x16]
000039F6  A970                     syscall    GetNextEvent
000039F8  1D5F FFE5                move.b     [A6 - 0x1B], [A7]+
label000039FC:
000039FC  4A2E FFE5                tst.b      [A6 - 0x1B]
00003A00  6700 012A                beq        +0x12C /* 00003B2C */
00003A04  0C6E 0003 FFEA           cmpi.w     [A6 - 0x16], 0x3
00003A0A  6600 0120                bne        +0x122 /* 00003B2C */
00003A0E  42A7                     clr.l      -[A7]
00003A10  2F2E FFEC                move.l     -[A7], [A6 - 0x14]
00003A14  4878 00FF                push.l     0xFF
00003A18  A858                     syscall    BitAnd
00003A1A  201F                     move.l     D0, [A7]+
00003A1C  1D40 FFFB                move.b     [A6 - 0x5], D0
00003A20  0C00 000D                cmpi.b     D0, 0xD /* '\r' */
00003A24  6708                     beq        +0xA /* 00003A2E */
00003A26  0C2E 0003 FFFB           cmpi.b     [A6 - 0x5], 0x3
00003A2C  660A                     bne        +0xC /* 00003A38 */
label00003A2E:
00003A2E  1D7C 0001 FEC1           move.b     [A6 - 0x13F], 0x1
00003A34  6000 00E6                bra        +0xE8 /* 00003B1C */
label00003A38:
00003A38  0C2E 0008 FFFB           cmpi.b     [A6 - 0x5], 0x8
00003A3E  6600 009A                bne        +0x9C /* 00003ADA */
00003A42  4A2E FDC0                tst.b      [A6 - 0x240]
00003A46  6700 00D4                beq        +0xD6 /* 00003B1C */
00003A4A  4227                     clr.b      -[A7]
00003A4C  2F2D F8DC                move.l     -[A7], [A5 - 0x724]
00003A50  3F3C 0005                move.w     -[A7], 0x5
00003A54  42A7                     clr.l      -[A7]
00003A56  4EAD 00BA                jsr        [A5 + 0xBA /* export_19, CODE:3 @ 00001E74 */]
00003A5A  548F                     addq.l     A7, 2
00003A5C  4267                     clr.w      -[A7]
00003A5E  7000                     moveq.l    D0, 0x00
00003A60  102E FDC0                move.b     D0, [A6 - 0x240]
00003A64  204E                     movea.l    A0, A6
00003A66  D1C0                     add.l      A0, D0
00003A68  7000                     moveq.l    D0, 0x00
00003A6A  1028 FDC0                move.b     D0, [A0 - 0x240]
00003A6E  3F00                     move.w     -[A7], D0
00003A70  A88D                     syscall    CharWidth
00003A72  3D5F FFE0                move.w     [A6 - 0x20], [A7]+
00003A76  206D F1E6                movea.l    A0, [A5 - 0xE1A]
00003A7A  3028 0032                move.w     D0, [A0 + 0x32]
00003A7E  906E FFE0                sub.w      D0, [A6 - 0x20]
00003A82  3D40 FFE2                move.w     [A6 - 0x1E], D0
00003A86  486E FEE6                pea.l      [A6 - 0x11A]
00003A8A  3F00                     move.w     -[A7], D0
00003A8C  72EC                     moveq.l    D1, 0xFFFFFFEC
00003A8E  D26E FFFC                add.w      D1, [A6 - 0x4]
00003A92  3F01                     move.w     -[A7], D1
00003A94  D06E FFE0                add.w      D0, [A6 - 0x20]
00003A98  3F00                     move.w     -[A7], D0
00003A9A  7014                     moveq.l    D0, 0x14
00003A9C  D06E FFFC                add.w      D0, [A6 - 0x4]
00003AA0  3F00                     move.w     -[A7], D0
00003AA2  A8A7                     syscall    SetRect
00003AA4  532E FDC0                subq.b     [A6 - 0x240], 1
00003AA8  426E FED8                clr.w      [A6 - 0x128]
00003AAC  426E FEDA                clr.w      [A6 - 0x126]
00003AB0  426E FEDC                clr.w      [A6 - 0x124]
00003AB4  486E FED8                pea.l      [A6 - 0x128]
00003AB8  AA14                     syscall    RGBForeColor
00003ABA  486E FEE6                pea.l      [A6 - 0x11A]
00003ABE  A8A2                     syscall    PaintRect
00003AC0  3D7C FFFF FED8           move.w     [A6 - 0x128], 0xFFFF
00003AC6  3D7C FFFF FEDA           move.w     [A6 - 0x126], 0xFFFF
00003ACC  3D7C FFFF FEDC           move.w     [A6 - 0x124], 0xFFFF
00003AD2  486E FED8                pea.l      [A6 - 0x128]
00003AD6  AA14                     syscall    RGBForeColor
00003AD8  6042                     bra        +0x44 /* 00003B1C */
label00003ADA:
00003ADA  0C2E 000F FDC0           cmpi.b     [A6 - 0x240], 0xF
00003AE0  6428                     bcc        +0x2A /* 00003B0A */
00003AE2  4227                     clr.b      -[A7]
00003AE4  2F2D F8D4                move.l     -[A7], [A5 - 0x72C]
00003AE8  3F3C 0005                move.w     -[A7], 0x5
00003AEC  42A7                     clr.l      -[A7]
00003AEE  4EAD 00BA                jsr        [A5 + 0xBA /* export_19, CODE:3 @ 00001E74 */]
00003AF2  548F                     addq.l     A7, 2
00003AF4  522E FDC0                addq.b     [A6 - 0x240], 1
00003AF8  7000                     moveq.l    D0, 0x00
00003AFA  102E FDC0                move.b     D0, [A6 - 0x240]
00003AFE  204E                     movea.l    A0, A6
00003B00  D1C0                     add.l      A0, D0
00003B02  116E FFFB FDC0           move.b     [A0 - 0x240], [A6 - 0x5]
00003B08  6012                     bra        +0x14 /* 00003B1C */
label00003B0A:
00003B0A  4227                     clr.b      -[A7]
00003B0C  2F2D F900                move.l     -[A7], [A5 - 0x700]
00003B10  3F3C 0005                move.w     -[A7], 0x5
00003B14  42A7                     clr.l      -[A7]
00003B16  4EAD 00BA                jsr        [A5 + 0xBA /* export_19, CODE:3 @ 00001E74 */]
00003B1A  548F                     addq.l     A7, 2
label00003B1C:
00003B1C  3F2E FFFE                move.w     -[A7], [A6 - 0x2]
00003B20  3F2E FFFC                move.w     -[A7], [A6 - 0x4]
00003B24  A893                     syscall    MoveTo
00003B26  486E FDC0                pea.l      [A6 - 0x240]
00003B2A  A884                     syscall    DrawString
label00003B2C:
00003B2C  4A2E FEC1                tst.b      [A6 - 0x13F]
00003B30  6700 FE96                beq        -0x168 /* 000039C8 */
00003B34  206E FECC                movea.l    A0, [A6 - 0x134]
00003B38  701A                     moveq.l    D0, 0x1A
00003B3A  C1EE FEC2                muls.w     D0, [A6 - 0x13E]
00003B3E  2050                     movea.l    A0, [A0]
00003B40  31AD F7CE 0814           move.w     [A0 + D0 + 0x14], [A5 - 0x832]
00003B46  206E FECC                movea.l    A0, [A6 - 0x134]
00003B4A  701A                     moveq.l    D0, 0x1A
00003B4C  C1EE FEC2                muls.w     D0, [A6 - 0x13E]
00003B50  2050                     movea.l    A0, [A0]
00003B52  21AD F7C8 0816           move.l     [A0 + D0 + 0x16], [A5 - 0x838]
00003B58  206E FECC                movea.l    A0, [A6 - 0x134]
00003B5C  701A                     moveq.l    D0, 0x1A
00003B5E  C1EE FEC2                muls.w     D0, [A6 - 0x13E]
00003B62  D090                     add.l      D0, [A0]
00003B64  2D40 FEC4                move.l     [A6 - 0x13C], D0
00003B68  43EE FDC0                lea.l      A1, [A6 - 0x240]
00003B6C  2D49 FEC8                move.l     [A6 - 0x138], A1
00003B70  2049                     movea.l    A0, A1
00003B72  2240                     movea.l    A1, D0
00003B74  7014                     moveq.l    D0, 0x14
00003B76  A02E                     syscall    BlockMove/BlockMoveData
00003B78  4EAD 00C2                jsr        [A5 + 0xC2 /* export_20, CODE:3 @ 0000216A */]
00003B7C  4227                     clr.b      -[A7]
00003B7E  2F2D F908                move.l     -[A7], [A5 - 0x6F8]
00003B82  3F3C 0006                move.w     -[A7], 0x6
00003B86  42A7                     clr.l      -[A7]
00003B88  4EAD 00BA                jsr        [A5 + 0xBA /* export_19, CODE:3 @ 00001E74 */]
00003B8C  548F                     addq.l     A7, 2
label00003B8E:
00003B8E  206E FECC                movea.l    A0, [A6 - 0x134]
00003B92  A02A                     syscall    HUnlock
00003B94  2F2E FECC                move.l     -[A7], [A6 - 0x134]
00003B98  A9AA                     syscall    ChangedResource
00003B9A  4267                     clr.w      -[A7]
00003B9C  A994                     syscall    CurResFile
00003B9E  A999                     syscall    UpdateResFile
00003BA0  4EAD 02CA                jsr        [A5 + 0x2CA /* export_85, CODE:2 @ 000003D0 */]
label00003BA4:
00003BA4  4227                     clr.b      -[A7]
00003BA6  42A7                     clr.l      -[A7]
00003BA8  4EAD 00CA                jsr        [A5 + 0xCA /* export_21, CODE:3 @ 00002214 */]
00003BAC  4A1F                     tst.b      [A7]+
00003BAE  66F4                     bne        -0xA /* 00003BA4 */
00003BB0  4A2D F794                tst.b      [A5 - 0x86C]
00003BB4  6700 02FA                beq        +0x2FC /* 00003EB0 */
00003BB8  0C6D 0001 F1FC           cmpi.w     [A5 - 0xE04], 0x1
00003BBE  6600 02F0                bne        +0x2F2 /* 00003EB0 */
00003BC2  0C6D 0003 F1FE           cmpi.w     [A5 - 0xE02], 0x3
00003BC8  6600 02E6                bne        +0x2E8 /* 00003EB0 */
00003BCC  0C6E FFFF FEC2           cmpi.w     [A6 - 0x13E], 0xFFFF
00003BD2  6700 02DC                beq        +0x2DE /* 00003EB0 */
00003BD6  426E FED8                clr.w      [A6 - 0x128]
00003BDA  426E FEDA                clr.w      [A6 - 0x126]
00003BDE  426E FEDC                clr.w      [A6 - 0x124]
00003BE2  42A7                     clr.l      -[A7]
00003BE4  3F3C 0320                move.w     -[A7], 0x320
00003BE8  AA18                     syscall    GetCTable
00003BEA  2D5F FFFC                move.l     [A6 - 0x4], [A7]+
00003BEE  4AAE FFFC                tst.l      [A6 - 0x4]
00003BF2  6700 02BC                beq        +0x2BE /* 00003EB0 */
00003BF6  3F3C 0014                move.w     -[A7], 0x14
00003BFA  486E FED8                pea.l      [A6 - 0x128]
00003BFE  4EAD 028A                jsr        [A5 + 0x28A /* export_77, CODE:8 @ 000007FC */]
00003C02  2F2E FFFC                move.l     -[A7], [A6 - 0x4]
00003C06  4227                     clr.b      -[A7]
00003C08  4EAD 026A                jsr        [A5 + 0x26A /* export_73, CODE:8 @ 00000732 */]
00003C0C  486E FED8                pea.l      [A6 - 0x128]
00003C10  AA14                     syscall    RGBForeColor
00003C12  486D F3CC                pea.l      [A5 - 0xC34]
00003C16  A8A2                     syscall    PaintRect
00003C18  2D6D F3CC FEE6           move.l     [A6 - 0x11A], [A5 - 0xC34]
00003C1E  2D6D F3D0 FEEA           move.l     [A6 - 0x116], [A5 - 0xC30]
00003C24  486E FEE6                pea.l      [A6 - 0x11A]
00003C28  2F3C 0032 0064           move.l     -[A7], 0x320064 /* '2\0d' */
00003C2E  A8A9                     syscall    InsetRect
00003C30  42A7                     clr.l      -[A7]
00003C32  3F3C 0320                move.w     -[A7], 0x320
00003C36  A9BC                     syscall    GetPicture
00003C38  2D5F FEEE                move.l     [A6 - 0x112], [A7]+
00003C3C  4AAE FEEE                tst.l      [A6 - 0x112]
00003C40  6700 0084                beq        +0x86 /* 00003CC6 */
00003C44  206E FEEE                movea.l    A0, [A6 - 0x112]
00003C48  2050                     movea.l    A0, [A0]
00003C4A  2D68 0002 FEE6           move.l     [A6 - 0x11A], [A0 + 0x2]
00003C50  2D68 0006 FEEA           move.l     [A6 - 0x116], [A0 + 0x6]
00003C56  486E FEE6                pea.l      [A6 - 0x11A]
00003C5A  302E FEE8                move.w     D0, [A6 - 0x118]
00003C5E  4440                     neg.w      D0
00003C60  3F00                     move.w     -[A7], D0
00003C62  302E FEE6                move.w     D0, [A6 - 0x11A]
00003C66  4440                     neg.w      D0
00003C68  3F00                     move.w     -[A7], D0
00003C6A  A8A8                     syscall    OffsetRect
00003C6C  302E FEEC                move.w     D0, [A6 - 0x114]
00003C70  906E FEE8                sub.w      D0, [A6 - 0x118]
00003C74  322D F3D2                move.w     D1, [A5 - 0xC2E]
00003C78  926D F3CE                sub.w      D1, [A5 - 0xC32]
00003C7C  9240                     sub.w      D1, D0
00003C7E  48C1                     ext.l      D1
00003C80  83FC 0002                divs.w     D1, 0x2
00003C84  3D41 FEE4                move.w     [A6 - 0x11C], D1
00003C88  486E FEE6                pea.l      [A6 - 0x11A]
00003C8C  D26D F3CE                add.w      D1, [A5 - 0xC32]
00003C90  3F01                     move.w     -[A7], D1
00003C92  7005                     moveq.l    D0, 0x05
00003C94  D06D F3CC                add.w      D0, [A5 - 0xC34]
00003C98  3F00                     move.w     -[A7], D0
00003C9A  A8A8                     syscall    OffsetRect
00003C9C  302D F3D0                move.w     D0, [A5 - 0xC30]
00003CA0  906D F3CC                sub.w      D0, [A5 - 0xC34]
00003CA4  0C40 0190                cmpi.w     D0, 0x190
00003CA8  6F0C                     ble        +0xE /* 00003CB6 */
00003CAA  486E FEE6                pea.l      [A6 - 0x11A]
00003CAE  2F3C 0028 0000           move.l     -[A7], 0x280000 /* '(\0\0' */
00003CB4  A8A8                     syscall    OffsetRect
label00003CB6:
00003CB6  2F2E FEEE                move.l     -[A7], [A6 - 0x112]
00003CBA  486E FEE6                pea.l      [A6 - 0x11A]
00003CBE  A8F6                     syscall    DrawPicture
00003CC0  2F2E FEEE                move.l     -[A7], [A6 - 0x112]
00003CC4  A9A3                     syscall    ReleaseResource
label00003CC6:
00003CC6  3D7C 7FFF FFF6           move.w     [A6 - 0xA], 0x7FFF
00003CCC  3D7C 7FFF FFF8           move.w     [A6 - 0x8], 0x7FFF
00003CD2  3D7C 7FFF FFFA           move.w     [A6 - 0x6], 0x7FFF
00003CD8  486E FFF6                pea.l      [A6 - 0xA]
00003CDC  AA14                     syscall    RGBForeColor
00003CDE  3F3C 0002                move.w     -[A7], 0x2
00003CE2  A887                     syscall    TextFont
00003CE4  3F3C 0012                move.w     -[A7], 0x12
00003CE8  A88A                     syscall    TextSize
00003CEA  4267                     clr.w      -[A7]
00003CEC  A888                     syscall    TextFace
00003CEE  3F2E FEE8                move.w     -[A7], [A6 - 0x118]
00003CF2  700F                     moveq.l    D0, 0x0F
00003CF4  D06E FEEA                add.w      D0, [A6 - 0x116]
00003CF8  3F00                     move.w     -[A7], D0
00003CFA  A893                     syscall    MoveTo
00003CFC  486D FF4A                pea.l      [A5 - 0xB6]
00003D00  A884                     syscall    DrawString
00003D02  3F3C 0001                move.w     -[A7], 0x1
00003D06  A888                     syscall    TextFace
00003D08  3D7C FFFF FFF6           move.w     [A6 - 0xA], 0xFFFF
00003D0E  3D7C FFFF FFF8           move.w     [A6 - 0x8], 0xFFFF
00003D14  3D7C FFFF FFFA           move.w     [A6 - 0x6], 0xFFFF
00003D1A  486E FFF6                pea.l      [A6 - 0xA]
00003D1E  AA14                     syscall    RGBForeColor
00003D20  486E FEF2                pea.l      [A6 - 0x10E]
00003D24  2F2D F7C8                move.l     -[A7], [A5 - 0x838]
00003D28  4EBA F918                jsr        [PC - 0x6E8 /* 00003642 */]
00003D2C  508F                     addq.l     A7, 8
00003D2E  486E FEF2                pea.l      [A6 - 0x10E]
00003D32  A884                     syscall    DrawString
00003D34  4267                     clr.w      -[A7]
00003D36  A888                     syscall    TextFace
00003D38  7014                     moveq.l    D0, 0x14
00003D3A  D06E FEEA                add.w      D0, [A6 - 0x116]
00003D3E  3D40 FEE6                move.w     [A6 - 0x11A], D0
00003D42  3D6D F3D0 FEEA           move.w     [A6 - 0x116], [A5 - 0xC30]
00003D48  486E FEE6                pea.l      [A6 - 0x11A]
00003D4C  2F3C 0000 FFBA           move.l     -[A7], 0xFFBA
00003D52  A8A9                     syscall    InsetRect
00003D54  426E FFF6                clr.w      [A6 - 0xA]
00003D58  426E FFF8                clr.w      [A6 - 0x8]
00003D5C  426E FFFA                clr.w      [A6 - 0x6]
00003D60  486E FFF6                pea.l      [A6 - 0xA]
00003D64  AA15                     syscall    RGBBackColor
00003D66  3D7C FFFF FFF6           move.w     [A6 - 0xA], 0xFFFF
00003D6C  3D7C AFFF FFF8           move.w     [A6 - 0x8], 0xAFFF
00003D72  3D7C 1FFF FFFA           move.w     [A6 - 0x6], 0x1FFF
00003D78  486E FFF6                pea.l      [A6 - 0xA]
00003D7C  AA14                     syscall    RGBForeColor
00003D7E  42A7                     clr.l      -[A7]
00003D80  2F3C 5445 5854           move.l     -[A7], 0x54455854 /* 'TEXT' */
00003D86  3F3C 0320                move.w     -[A7], 0x320
00003D8A  A9A0                     syscall    GetResource
00003D8C  2D5F FFF2                move.l     [A6 - 0xE], [A7]+
00003D90  4AAE FFF2                tst.l      [A6 - 0xE]
00003D94  6744                     beq        +0x46 /* 00003DDA */
00003D96  206E FFF2                movea.l    A0, [A6 - 0xE]
00003D9A  A04A                     syscall    HNoPurge
00003D9C  206E FFF2                movea.l    A0, [A6 - 0xE]
00003DA0  A064                     syscall    MoveHHi
00003DA2  206E FFF2                movea.l    A0, [A6 - 0xE]
00003DA6  A029                     syscall    HLock
00003DA8  3F3C 0003                move.w     -[A7], 0x3
00003DAC  A887                     syscall    TextFont
00003DAE  3F3C 0009                move.w     -[A7], 0x9 /* '\t' */
00003DB2  A88A                     syscall    TextSize
00003DB4  4267                     clr.w      -[A7]
00003DB6  A888                     syscall    TextFace
00003DB8  206E FFF2                movea.l    A0, [A6 - 0xE]
00003DBC  2F10                     move.l     -[A7], [A0]
00003DBE  42A7                     clr.l      -[A7]
00003DC0  2F08                     move.l     -[A7], A0
00003DC2  4EAD 0132                jsr        [A5 + 0x132 /* export_34, CODE:3 @ 00000392 */]
00003DC6  486E FEE6                pea.l      [A6 - 0x11A]
00003DCA  4267                     clr.w      -[A7]
00003DCC  A9CE                     syscall    TETextBox/TextBox
00003DCE  206E FFF2                movea.l    A0, [A6 - 0xE]
00003DD2  A02A                     syscall    HUnlock
00003DD4  2F2E FFF2                move.l     -[A7], [A6 - 0xE]
00003DD8  A9A3                     syscall    ReleaseResource
label00003DDA:
00003DDA  3D7C FFFF FFF6           move.w     [A6 - 0xA], 0xFFFF
00003DE0  426E FFF8                clr.w      [A6 - 0x8]
00003DE4  426E FFFA                clr.w      [A6 - 0x6]
00003DE8  486E FFF6                pea.l      [A6 - 0xA]
00003DEC  AA14                     syscall    RGBForeColor
00003DEE  3F3C 0001                move.w     -[A7], 0x1
00003DF2  A888                     syscall    TextFace
00003DF4  302E FEE8                move.w     D0, [A6 - 0x118]
00003DF8  0640 00EE                addi.w     D0, 0xEE
00003DFC  3F00                     move.w     -[A7], D0
00003DFE  302E FEE6                move.w     D0, [A6 - 0x11A]
00003E02  0640 00BE                addi.w     D0, 0xBE
00003E06  3F00                     move.w     -[A7], D0
00003E08  A893                     syscall    MoveTo
00003E0A  486D FF58                pea.l      [A5 - 0xA8]
00003E0E  A884                     syscall    DrawString
00003E10  426E FFF6                clr.w      [A6 - 0xA]
00003E14  426E FFF8                clr.w      [A6 - 0x8]
00003E18  426E FFFA                clr.w      [A6 - 0x6]
00003E1C  486E FFF6                pea.l      [A6 - 0xA]
00003E20  AA14                     syscall    RGBForeColor
00003E22  3D7C FFFF FFF6           move.w     [A6 - 0xA], 0xFFFF
00003E28  3D7C FFFF FFF8           move.w     [A6 - 0x8], 0xFFFF
00003E2E  3D7C FFFF FFFA           move.w     [A6 - 0x6], 0xFFFF
00003E34  486E FFF6                pea.l      [A6 - 0xA]
00003E38  AA15                     syscall    RGBBackColor
00003E3A  4227                     clr.b      -[A7]
00003E3C  2F2D F938                move.l     -[A7], [A5 - 0x6C8]
00003E40  3F3C 0005                move.w     -[A7], 0x5
00003E44  42A7                     clr.l      -[A7]
00003E46  4EAD 00BA                jsr        [A5 + 0xBA /* export_19, CODE:3 @ 00001E74 */]
00003E4A  548F                     addq.l     A7, 2
00003E4C  486E FED8                pea.l      [A6 - 0x128]
00003E50  4227                     clr.b      -[A7]
00003E52  4EAD 0292                jsr        [A5 + 0x292 /* export_78, CODE:8 @ 00000BE6 */]
00003E56  3F3C 0014                move.w     -[A7], 0x14
00003E5A  2F2E FFFC                move.l     -[A7], [A6 - 0x4]
00003E5E  4EAD 0282                jsr        [A5 + 0x282 /* export_76, CODE:8 @ 00000990 */]
00003E62  2F2E FFFC                move.l     -[A7], [A6 - 0x4]
00003E66  A9A3                     syscall    ReleaseResource
label00003E68:
00003E68  4227                     clr.b      -[A7]
00003E6A  A974                     syscall    Button
00003E6C  4A1F                     tst.b      [A7]+
00003E6E  67F8                     beq        -0x6 /* 00003E68 */
label00003E70:
00003E70  4227                     clr.b      -[A7]
00003E72  A974                     syscall    Button
00003E74  4A1F                     tst.b      [A7]+
00003E76  66F8                     bne        -0x6 /* 00003E70 */
00003E78  3F3C 0014                move.w     -[A7], 0x14
00003E7C  486E FED8                pea.l      [A6 - 0x128]
00003E80  4EAD 028A                jsr        [A5 + 0x28A /* export_77, CODE:8 @ 000007FC */]
00003E84  2F2D F206                move.l     -[A7], [A5 - 0xDFA]
00003E88  4227                     clr.b      -[A7]
00003E8A  4EAD 026A                jsr        [A5 + 0x26A /* export_73, CODE:8 @ 00000732 */]
00003E8E  486E FED8                pea.l      [A6 - 0x128]
00003E92  AA14                     syscall    RGBForeColor
00003E94  486D F3CC                pea.l      [A5 - 0xC34]
00003E98  A8A2                     syscall    PaintRect
00003E9A  486E FED8                pea.l      [A6 - 0x128]
00003E9E  4227                     clr.b      -[A7]
00003EA0  4EAD 0292                jsr        [A5 + 0x292 /* export_78, CODE:8 @ 00000BE6 */]
00003EA4  3F3C 0002                move.w     -[A7], 0x2
00003EA8  2F2D F206                move.l     -[A7], [A5 - 0xDFA]
00003EAC  4EAD 0282                jsr        [A5 + 0x282 /* export_76, CODE:8 @ 00000990 */]
label00003EB0:
00003EB0  4EAD 02CA                jsr        [A5 + 0x2CA /* export_85, CODE:2 @ 000003D0 */]
00003EB4  3F3C 0014                move.w     -[A7], 0x14
00003EB8  486E FDB2                pea.l      [A6 - 0x24E]
00003EBC  4EAD 0272                jsr        [A5 + 0x272 /* export_74, CODE:8 @ 00000320 */]
label00003EC0:
00003EC0  4227                     clr.b      -[A7]
00003EC2  42A7                     clr.l      -[A7]
00003EC4  4EAD 00CA                jsr        [A5 + 0xCA /* export_21, CODE:3 @ 00002214 */]
00003EC8  4A1F                     tst.b      [A7]+
00003ECA  66F4                     bne        -0xA /* 00003EC0 */
00003ECC  2F3C 0000 FFFF           move.l     -[A7], 0xFFFF
00003ED2  201F                     move.l     D0, [A7]+
00003ED4  A032                     syscall    FlushEvents
00003ED6  3F3C 0014                move.w     -[A7], 0x14
00003EDA  486E FDB2                pea.l      [A6 - 0x24E]
00003EDE  4EAD 0272                jsr        [A5 + 0x272 /* export_74, CODE:8 @ 00000320 */]
00003EE2  1B7C 0001 F204           move.b     [A5 - 0xDFC], 0x1
00003EE8  2F2D F218                move.l     -[A7], [A5 - 0xDE8]
00003EEC  A873                     syscall    SetPort
00003EEE  206D F218                movea.l    A0, [A5 - 0xDE8]
00003EF2  4868 0010                pea.l      [A0 + 0x10]
00003EF6  A928                     syscall    InvalRect
00003EF8  1B7C 0001 F79B           move.b     [A5 - 0x865], 0x1
00003EFE  4E5E                     unlink     A6
00003F00  4E75                     rts
fn00003F02:
00003F02  4E56 FEC6                link       A6, -0x013A
00003F06  48E7 0F08                movem.l    -[A7], D4,D5,D6,D7,A4
00003F0A  2D6D FEFA FECA           move.l     [A6 - 0x136], [A5 - 0x106]
00003F10  3D6D FEFE FECE           move.w     [A6 - 0x132], [A5 - 0x102]
00003F16  426D F7E2                clr.w      [A5 - 0x81E]
00003F1A  4227                     clr.b      -[A7]
00003F1C  4EBA E628                jsr        [PC - 0x19D8 /* 00002546 */]
00003F20  2F3C 0000 C350           move.l     -[A7], 0xC350
00003F26  2F3C 0000 C350           move.l     -[A7], 0xC350
00003F2C  2F2D F7C8                move.l     -[A7], [A5 - 0x838]
00003F30  4EAD 005A                jsr        [A5 + 0x5A /* export_7, CODE:1 @ 0000014E */]
00003F34  2F00                     move.l     -[A7], D0
00003F36  4EAD 0042                jsr        [A5 + 0x42 /* export_4, CODE:1 @ 000000D6 */]
00003F3A  2E00                     move.l     D7, D0
00003F3C  4EAD 00C2                jsr        [A5 + 0xC2 /* export_20, CODE:3 @ 0000216A */]
00003F40  4217                     clr.b      [A7]
00003F42  2F2D F904                move.l     -[A7], [A5 - 0x6FC]
00003F46  3F3C 0006                move.w     -[A7], 0x6
00003F4A  42A7                     clr.l      -[A7]
00003F4C  4EAD 00BA                jsr        [A5 + 0xBA /* export_19, CODE:3 @ 00001E74 */]
00003F50  3EBC 0014                move.w     [A7], 0x14
00003F54  486E FECA                pea.l      [A6 - 0x136]
00003F58  4EAD 0272                jsr        [A5 + 0x272 /* export_74, CODE:8 @ 00000320 */]
00003F5C  2F2D F218                move.l     -[A7], [A5 - 0xDE8]
00003F60  A873                     syscall    SetPort
00003F62  206D F218                movea.l    A0, [A5 - 0xDE8]
00003F66  4868 0010                pea.l      [A0 + 0x10]
00003F6A  A87B                     syscall    ClipRect
00003F6C  2D6D F3CC FFF0           move.l     [A6 - 0x10], [A5 - 0xC34]
00003F72  2D6D F3D0 FFF4           move.l     [A6 - 0xC], [A5 - 0xC30]
00003F78  486E FFF0                pea.l      [A6 - 0x10]
00003F7C  2F3C 0001 0001           move.l     -[A7], 0x10001
00003F82  A8A9                     syscall    InsetRect
00003F84  046E 000E FFF4           subi.w     [A6 - 0xC], 0xE
00003F8A  426E FFEA                clr.w      [A6 - 0x16]
00003F8E  426E FFEC                clr.w      [A6 - 0x14]
00003F92  426E FFEE                clr.w      [A6 - 0x12]
00003F96  486E FFEA                pea.l      [A6 - 0x16]
00003F9A  AA14                     syscall    RGBForeColor
00003F9C  486E FFF0                pea.l      [A6 - 0x10]
00003FA0  A8A2                     syscall    PaintRect
00003FA2  3D7C 7530 FFDE           move.w     [A6 - 0x22], 0x7530 /* 'u0' */
00003FA8  3D7C 7530 FFE0           move.w     [A6 - 0x20], 0x7530 /* 'u0' */
00003FAE  3D7C FFFF FFE2           move.w     [A6 - 0x1E], 0xFFFF
00003FB4  3D7C FFFF FFE4           move.w     [A6 - 0x1C], 0xFFFF
00003FBA  3D7C FFFF FFE6           move.w     [A6 - 0x1A], 0xFFFF
00003FC0  3D7C FFFF FFE8           move.w     [A6 - 0x18], 0xFFFF
00003FC6  3D7C FFFF FFEA           move.w     [A6 - 0x16], 0xFFFF
00003FCC  3D7C FFFF FFEC           move.w     [A6 - 0x14], 0xFFFF
00003FD2  426E FFEE                clr.w      [A6 - 0x12]
00003FD6  486E FFEA                pea.l      [A6 - 0x16]
00003FDA  AA14                     syscall    RGBForeColor
00003FDC  306D F7CE                movea.w    A0, [A5 - 0x832]
00003FE0  2F08                     move.l     -[A7], A0
00003FE2  486E FEDA                pea.l      [A6 - 0x126]
00003FE6  4EAD 019A                jsr        [A5 + 0x19A /* export_47, CODE:3 @ 000005E8 */]
00003FEA  4267                     clr.w      -[A7]
00003FEC  486D FF68                pea.l      [A5 - 0x98]
00003FF0  A88C                     syscall    StringWidth
00003FF2  3D5F FEC8                move.w     [A6 - 0x138], [A7]+
00003FF6  4267                     clr.w      -[A7]
00003FF8  486E FEDA                pea.l      [A6 - 0x126]
00003FFC  A88C                     syscall    StringWidth
00003FFE  3D5F FEC6                move.w     [A6 - 0x13A], [A7]+
00004002  4267                     clr.w      -[A7]
00004004  486D FF6E                pea.l      [A5 - 0x92]
00004008  A88C                     syscall    StringWidth
0000400A  3C2E FEC6                move.w     D6, [A6 - 0x13A]
0000400E  DC6E FEC8                add.w      D6, [A6 - 0x138]
00004012  DC5F                     add.w      D6, [A7]+
00004014  3A2D F3D2                move.w     D5, [A5 - 0xC2E]
00004018  9A6D F3CE                sub.w      D5, [A5 - 0xC32]
0000401C  9A46                     sub.w      D5, D6
0000401E  48C5                     ext.l      D5
00004020  8BFC 0002                divs.w     D5, 0x2
00004024  302D F3CE                move.w     D0, [A5 - 0xC32]
00004028  D045                     add.w      D0, D5
0000402A  3F00                     move.w     -[A7], D0
0000402C  302D F3CC                move.w     D0, [A5 - 0xC34]
00004030  0640 0096                addi.w     D0, 0x96
00004034  3F00                     move.w     -[A7], D0
00004036  A893                     syscall    MoveTo
00004038  486D FF7A                pea.l      [A5 - 0x86]
0000403C  A884                     syscall    DrawString
0000403E  486E FEDA                pea.l      [A6 - 0x126]
00004042  A884                     syscall    DrawString
00004044  486D FF80                pea.l      [A5 - 0x80]
00004048  A884                     syscall    DrawString
0000404A  486E FFDE                pea.l      [A6 - 0x22]
0000404E  AA14                     syscall    RGBForeColor
00004050  4267                     clr.w      -[A7]
00004052  486D FF8C                pea.l      [A5 - 0x74]
00004056  A88C                     syscall    StringWidth
00004058  3C1F                     move.w     D6, [A7]+
0000405A  3A2D F3D2                move.w     D5, [A5 - 0xC2E]
0000405E  9A6D F3CE                sub.w      D5, [A5 - 0xC32]
00004062  9A46                     sub.w      D5, D6
00004064  48C5                     ext.l      D5
00004066  8BFC 0002                divs.w     D5, 0x2
0000406A  0645 FFEC                addi.w     D5, 0xFFEC
0000406E  302D F3CE                move.w     D0, [A5 - 0xC32]
00004072  D045                     add.w      D0, D5
00004074  3F00                     move.w     -[A7], D0
00004076  302D F3CC                move.w     D0, [A5 - 0xC34]
0000407A  0640 00C8                addi.w     D0, 0xC8
0000407E  3F00                     move.w     -[A7], D0
00004080  A893                     syscall    MoveTo
00004082  486D FF9E                pea.l      [A5 - 0x62]
00004086  A884                     syscall    DrawString
00004088  206D F1E6                movea.l    A0, [A5 - 0xE1A]
0000408C  3828 0032                move.w     D4, [A0 + 0x32]
00004090  486E FFDE                pea.l      [A6 - 0x22]
00004094  AA14                     syscall    RGBForeColor
00004096  4267                     clr.w      -[A7]
00004098  486D FFB0                pea.l      [A5 - 0x50]
0000409C  A88C                     syscall    StringWidth
0000409E  3C1F                     move.w     D6, [A7]+
000040A0  3A2D F3D2                move.w     D5, [A5 - 0xC2E]
000040A4  9A6D F3CE                sub.w      D5, [A5 - 0xC32]
000040A8  9A46                     sub.w      D5, D6
000040AA  48C5                     ext.l      D5
000040AC  8BFC 0002                divs.w     D5, 0x2
000040B0  5745                     subq.w     D5, 3
000040B2  302D F3CE                move.w     D0, [A5 - 0xC32]
000040B6  D045                     add.w      D0, D5
000040B8  3F00                     move.w     -[A7], D0
000040BA  302D F3CC                move.w     D0, [A5 - 0xC34]
000040BE  0640 00DC                addi.w     D0, 0xDC
000040C2  3F00                     move.w     -[A7], D0
000040C4  A893                     syscall    MoveTo
000040C6  486D FFBC                pea.l      [A5 - 0x44]
000040CA  A884                     syscall    DrawString
000040CC  206D F1E6                movea.l    A0, [A5 - 0xE1A]
000040D0  3C28 0032                move.w     D6, [A0 + 0x32]
000040D4  486E FFE4                pea.l      [A6 - 0x1C]
000040D8  AA14                     syscall    RGBForeColor
000040DA  3F3C 0014                move.w     -[A7], 0x14
000040DE  4EAD 027A                jsr        [A5 + 0x27A /* export_75, CODE:8 @ 00000548 */]
label000040E2:
000040E2  4227                     clr.b      -[A7]
000040E4  42A7                     clr.l      -[A7]
000040E6  4EAD 00CA                jsr        [A5 + 0xCA /* export_21, CODE:3 @ 00002214 */]
000040EA  4A1F                     tst.b      [A7]+
000040EC  66F4                     bne        -0xA /* 000040E2 */
000040EE  3A06                     move.w     D5, D6
000040F0  0C6D 0001 F802           cmpi.w     [A5 - 0x7FE], 0x1
000040F6  6700 00C0                beq        +0xC2 /* 000041B8 */
000040FA  3F05                     move.w     -[A7], D5
000040FC  302D F3CC                move.w     D0, [A5 - 0xC34]
00004100  0640 00C8                addi.w     D0, 0xC8
00004104  3F00                     move.w     -[A7], D0
00004106  A893                     syscall    MoveTo
00004108  2F2D F7E8                move.l     -[A7], [A5 - 0x818]
0000410C  486E FEDA                pea.l      [A6 - 0x126]
00004110  4EAD 019A                jsr        [A5 + 0x19A /* export_47, CODE:3 @ 000005E8 */]
00004114  486E FEDA                pea.l      [A6 - 0x126]
00004118  A884                     syscall    DrawString
0000411A  0645 004B                addi.w     D5, 0x4B /* 'K' */
0000411E  2F2D F7E8                move.l     -[A7], [A5 - 0x818]
00004122  306D F802                movea.w    A0, [A5 - 0x7FE]
00004126  2F08                     move.l     -[A7], A0
00004128  4EAD 0042                jsr        [A5 + 0x42 /* export_4, CODE:1 @ 000000D6 */]
0000412C  2B40 F7E8                move.l     [A5 - 0x818], D0
00004130  43EE FFDA                lea.l      A1, [A6 - 0x26]
00004134  307C 0006                movea.w    A0, 0x6
00004138  A03B                     syscall    Delay
0000413A  2280                     move.l     [A1], D0
0000413C  4227                     clr.b      -[A7]
0000413E  2F2D F8EC                move.l     -[A7], [A5 - 0x714]
00004142  3F3C 0005                move.w     -[A7], 0x5
00004146  42A7                     clr.l      -[A7]
00004148  4EAD 00BA                jsr        [A5 + 0xBA /* export_19, CODE:3 @ 00001E74 */]
0000414C  302D F802                move.w     D0, [A5 - 0x7FE]
00004150  548F                     addq.l     A7, 2
00004152  6B3A                     bmi        +0x3C /* 0000418E */
00004154  5940                     subq.w     D0, 4
00004156  6724                     beq        +0x26 /* 0000417C */
00004158  6A08                     bpl        +0xA /* 00004162 */
0000415A  5440                     addq.w     D0, 2
0000415C  670A                     beq        +0xC /* 00004168 */
0000415E  6A12                     bpl        +0x14 /* 00004172 */
00004160  602C                     bra        +0x2E /* 0000418E */
label00004162:
00004162  5540                     subq.w     D0, 2
00004164  6A28                     bpl        +0x2A /* 0000418E */
00004166  601E                     bra        +0x20 /* 00004186 */
label00004168:
00004168  206D F88C                movea.l    A0, [A5 - 0x774]
0000416C  2868 000C                movea.l    A4, [A0 + 0xC]
00004170  601C                     bra        +0x1E /* 0000418E */
label00004172:
00004172  206D F890                movea.l    A0, [A5 - 0x770]
00004176  2868 000C                movea.l    A4, [A0 + 0xC]
0000417A  6012                     bra        +0x14 /* 0000418E */
label0000417C:
0000417C  206D F894                movea.l    A0, [A5 - 0x76C]
00004180  2868 000C                movea.l    A4, [A0 + 0xC]
00004184  6008                     bra        +0xA /* 0000418E */
label00004186:
00004186  206D F898                movea.l    A0, [A5 - 0x768]
0000418A  2868 000C                movea.l    A4, [A0 + 0xC]
label0000418E:
0000418E  2F0C                     move.l     -[A7], A4
00004190  302D F3CC                move.w     D0, [A5 - 0xC34]
00004194  0640 00B4                addi.w     D0, 0xB4
00004198  3F00                     move.w     -[A7], D0
0000419A  7022                     moveq.l    D0, 0x22
0000419C  D046                     add.w      D0, D6
0000419E  3F00                     move.w     -[A7], D0
000041A0  4EBA E1AC                jsr        [PC - 0x1E54 /* 0000234E */]
000041A4  43EE FFDA                lea.l      A1, [A6 - 0x26]
000041A8  307C 003C                movea.w    A0, 0x3C /* '<' */
000041AC  A03B                     syscall    Delay
000041AE  2280                     move.l     [A1], D0
000041B0  3B7C 0001 F802           move.w     [A5 - 0x7FE], 0x1
000041B6  508F                     addq.l     A7, 8
label000041B8:
000041B8  43EE FFDA                lea.l      A1, [A6 - 0x26]
000041BC  307C 0006                movea.w    A0, 0x6
000041C0  A03B                     syscall    Delay
000041C2  2280                     move.l     [A1], D0
000041C4  4227                     clr.b      -[A7]
000041C6  2F2D F940                move.l     -[A7], [A5 - 0x6C0]
000041CA  3F3C 0005                move.w     -[A7], 0x5
000041CE  42A7                     clr.l      -[A7]
000041D0  4EAD 00BA                jsr        [A5 + 0xBA /* export_19, CODE:3 @ 00001E74 */]
000041D4  3E85                     move.w     [A7], D5
000041D6  302D F3CC                move.w     D0, [A5 - 0xC34]
000041DA  0640 00C8                addi.w     D0, 0xC8
000041DE  3F00                     move.w     -[A7], D0
000041E0  A893                     syscall    MoveTo
000041E2  2F2D F7E8                move.l     -[A7], [A5 - 0x818]
000041E6  486E FEDA                pea.l      [A6 - 0x126]
000041EA  4EAD 019A                jsr        [A5 + 0x19A /* export_47, CODE:3 @ 000005E8 */]
000041EE  486E FEDA                pea.l      [A6 - 0x126]
000041F2  A884                     syscall    DrawString
000041F4  3F04                     move.w     -[A7], D4
000041F6  302D F3CC                move.w     D0, [A5 - 0xC34]
000041FA  0640 00DC                addi.w     D0, 0xDC
000041FE  3F00                     move.w     -[A7], D0
00004200  A893                     syscall    MoveTo
00004202  2F2D F7C8                move.l     -[A7], [A5 - 0x838]
00004206  486E FEDA                pea.l      [A6 - 0x126]
0000420A  4EAD 019A                jsr        [A5 + 0x19A /* export_47, CODE:3 @ 000005E8 */]
0000420E  486E FEDA                pea.l      [A6 - 0x126]
00004212  A884                     syscall    DrawString
00004214  43EE FFDA                lea.l      A1, [A6 - 0x26]
00004218  307C 003C                movea.w    A0, 0x3C /* '<' */
0000421C  A03B                     syscall    Delay
0000421E  2280                     move.l     [A1], D0
00004220  4AAD F7E8                tst.l      [A5 - 0x818]
00004224  662A                     bne        +0x2C /* 00004250 */
00004226  43EE FFDA                lea.l      A1, [A6 - 0x26]
0000422A  307C 0006                movea.w    A0, 0x6
0000422E  A03B                     syscall    Delay
00004230  2280                     move.l     [A1], D0
00004232  4227                     clr.b      -[A7]
00004234  2F2D F920                move.l     -[A7], [A5 - 0x6E0]
00004238  3F3C 0005                move.w     -[A7], 0x5
0000423C  42A7                     clr.l      -[A7]
0000423E  4EAD 00BA                jsr        [A5 + 0xBA /* export_19, CODE:3 @ 00001E74 */]
00004242  548F                     addq.l     A7, 2
label00004244:
00004244  4227                     clr.b      -[A7]
00004246  42A7                     clr.l      -[A7]
00004248  4EAD 00CA                jsr        [A5 + 0xCA /* export_21, CODE:3 @ 00002214 */]
0000424C  4A1F                     tst.b      [A7]+
0000424E  66F4                     bne        -0xA /* 00004244 */
label00004250:
00004250  0CAD 0000 2710 F7E8      cmpi.l     [A5 - 0x818], 0x2710
00004258  6F00 0122                ble        +0x124 /* 0000437C */
0000425C  43EE FFDA                lea.l      A1, [A6 - 0x26]
00004260  307C 0006                movea.w    A0, 0x6
00004264  A03B                     syscall    Delay
00004266  2280                     move.l     [A1], D0
00004268  4227                     clr.b      -[A7]
0000426A  2F2D F94C                move.l     -[A7], [A5 - 0x6B4]
0000426E  3F3C 0005                move.w     -[A7], 0x5
00004272  42A7                     clr.l      -[A7]
00004274  4EAD 00BA                jsr        [A5 + 0xBA /* export_19, CODE:3 @ 00001E74 */]
00004278  548F                     addq.l     A7, 2
label0000427A:
0000427A  4227                     clr.b      -[A7]
0000427C  42A7                     clr.l      -[A7]
0000427E  4EAD 00CA                jsr        [A5 + 0xCA /* export_21, CODE:3 @ 00002214 */]
00004282  4A1F                     tst.b      [A7]+
00004284  66F4                     bne        -0xA /* 0000427A */
00004286  6000 00F4                bra        +0xF6 /* 0000437C */
label0000428A:
0000428A  7C00                     moveq.l    D6, 0x00
0000428C  6036                     bra        +0x38 /* 000042C4 */
label0000428E:
0000428E  486E FFFE                pea.l      [A6 - 0x2]
00004292  486E FFFC                pea.l      [A6 - 0x4]
00004296  486E FFFA                pea.l      [A6 - 0x6]
0000429A  486E FFF8                pea.l      [A6 - 0x8]
0000429E  4EAD 00D2                jsr        [A5 + 0xD2 /* export_22, CODE:3 @ 0000229C */]
000042A2  0C6E FFFF FFFE           cmpi.w     [A6 - 0x2], 0xFFFF
000042A8  661A                     bne        +0x1C /* 000042C4 */
000042AA  0C6E FFFF FFFC           cmpi.w     [A6 - 0x4], 0xFFFF
000042B0  6612                     bne        +0x14 /* 000042C4 */
000042B2  0C6E FFFF FFFA           cmpi.w     [A6 - 0x6], 0xFFFF
000042B8  660A                     bne        +0xC /* 000042C4 */
000042BA  0C6E FFFF FFF8           cmpi.w     [A6 - 0x8], 0xFFFF
000042C0  6602                     bne        +0x4 /* 000042C4 */
000042C2  7C01                     moveq.l    D6, 0x01
label000042C4:
000042C4  4A06                     tst.b      D6
000042C6  67C6                     beq        -0x38 /* 0000428E */
000042C8  4EAD 00C2                jsr        [A5 + 0xC2 /* export_20, CODE:3 @ 0000216A */]
000042CC  4227                     clr.b      -[A7]
000042CE  2F2D F900                move.l     -[A7], [A5 - 0x700]
000042D2  3F3C 0005                move.w     -[A7], 0x5
000042D6  42A7                     clr.l      -[A7]
000042D8  4EAD 00BA                jsr        [A5 + 0xBA /* export_19, CODE:3 @ 00001E74 */]
000042DC  06AD 0000 01F4 F7C8      addi.l     [A5 - 0x838], 0x1F4
000042E4  04AD 0000 01F4 F7E8      subi.l     [A5 - 0x818], 0x1F4
000042EC  3E85                     move.w     [A7], D5
000042EE  302D F3CC                move.w     D0, [A5 - 0xC34]
000042F2  0640 00C8                addi.w     D0, 0xC8
000042F6  3F00                     move.w     -[A7], D0
000042F8  A893                     syscall    MoveTo
000042FA  2F2D F7E8                move.l     -[A7], [A5 - 0x818]
000042FE  486E FEDA                pea.l      [A6 - 0x126]
00004302  4EAD 019A                jsr        [A5 + 0x19A /* export_47, CODE:3 @ 000005E8 */]
00004306  6014                     bra        +0x16 /* 0000431C */
label00004308:
00004308  522E FEDA                addq.b     [A6 - 0x126], 1
0000430C  7000                     moveq.l    D0, 0x00
0000430E  102E FEDA                move.b     D0, [A6 - 0x126]
00004312  204E                     movea.l    A0, A6
00004314  D1C0                     add.l      A0, D0
00004316  117C 0020 FEDA           move.b     [A0 - 0x126], 0x20 /* ' ' */
label0000431C:
0000431C  0C2E 000A FEDA           cmpi.b     [A6 - 0x126], 0xA /* '\n' */
00004322  65E4                     bcs        -0x1A /* 00004308 */
00004324  486E FEDA                pea.l      [A6 - 0x126]
00004328  A884                     syscall    DrawString
0000432A  3F04                     move.w     -[A7], D4
0000432C  302D F3CC                move.w     D0, [A5 - 0xC34]
00004330  0640 00DC                addi.w     D0, 0xDC
00004334  3F00                     move.w     -[A7], D0
00004336  A893                     syscall    MoveTo
00004338  2F2D F7C8                move.l     -[A7], [A5 - 0x838]
0000433C  486E FEDA                pea.l      [A6 - 0x126]
00004340  4EAD 019A                jsr        [A5 + 0x19A /* export_47, CODE:3 @ 000005E8 */]
00004344  486E FEDA                pea.l      [A6 - 0x126]
00004348  A884                     syscall    DrawString
0000434A  4227                     clr.b      -[A7]
0000434C  4EBA E1F8                jsr        [PC - 0x1E08 /* 00002546 */]
00004350  202D F7C8                move.l     D0, [A5 - 0x838]
00004354  9087                     sub.l      D0, D7
00004356  0C80 0000 C350           cmpi.l     D0, 0xC350
0000435C  548F                     addq.l     A7, 2
0000435E  6D1C                     blt        +0x1E /* 0000437C */
00004360  2F3C 0000 C350           move.l     -[A7], 0xC350
00004366  2F3C 0000 C350           move.l     -[A7], 0xC350
0000436C  2F2D F7C8                move.l     -[A7], [A5 - 0x838]
00004370  4EAD 005A                jsr        [A5 + 0x5A /* export_7, CODE:1 @ 0000014E */]
00004374  2F00                     move.l     -[A7], D0
00004376  4EAD 0042                jsr        [A5 + 0x42 /* export_4, CODE:1 @ 000000D6 */]
0000437A  2E00                     move.l     D7, D0
label0000437C:
0000437C  0CAD 0000 01F4 F7E8      cmpi.l     [A5 - 0x818], 0x1F4
00004384  6E00 FF04                bgt        -0xFA /* 0000428A */
label00004388:
00004388  4227                     clr.b      -[A7]
0000438A  42A7                     clr.l      -[A7]
0000438C  4EAD 00CA                jsr        [A5 + 0xCA /* export_21, CODE:3 @ 00002214 */]
00004390  4A1F                     tst.b      [A7]+
00004392  66F4                     bne        -0xA /* 00004388 */
00004394  4227                     clr.b      -[A7]
00004396  2F2D F900                move.l     -[A7], [A5 - 0x700]
0000439A  3F3C 0005                move.w     -[A7], 0x5
0000439E  42A7                     clr.l      -[A7]
000043A0  4EAD 00BA                jsr        [A5 + 0xBA /* export_19, CODE:3 @ 00001E74 */]
000043A4  202D F7E8                move.l     D0, [A5 - 0x818]
000043A8  D1AD F7C8                add.l      [A5 - 0x838], D0
000043AC  42AD F7E8                clr.l      [A5 - 0x818]
000043B0  3E85                     move.w     [A7], D5
000043B2  302D F3CC                move.w     D0, [A5 - 0xC34]
000043B6  0640 00C8                addi.w     D0, 0xC8
000043BA  3F00                     move.w     -[A7], D0
000043BC  A893                     syscall    MoveTo
000043BE  2F2D F7E8                move.l     -[A7], [A5 - 0x818]
000043C2  486E FEDA                pea.l      [A6 - 0x126]
000043C6  4EAD 019A                jsr        [A5 + 0x19A /* export_47, CODE:3 @ 000005E8 */]
000043CA  6014                     bra        +0x16 /* 000043E0 */
label000043CC:
000043CC  522E FEDA                addq.b     [A6 - 0x126], 1
000043D0  7000                     moveq.l    D0, 0x00
000043D2  102E FEDA                move.b     D0, [A6 - 0x126]
000043D6  204E                     movea.l    A0, A6
000043D8  D1C0                     add.l      A0, D0
000043DA  117C 0020 FEDA           move.b     [A0 - 0x126], 0x20 /* ' ' */
label000043E0:
000043E0  0C2E 0005 FEDA           cmpi.b     [A6 - 0x126], 0x5
000043E6  65E4                     bcs        -0x1A /* 000043CC */
000043E8  486E FEDA                pea.l      [A6 - 0x126]
000043EC  A884                     syscall    DrawString
000043EE  3F04                     move.w     -[A7], D4
000043F0  302D F3CC                move.w     D0, [A5 - 0xC34]
000043F4  0640 00DC                addi.w     D0, 0xDC
000043F8  3F00                     move.w     -[A7], D0
000043FA  A893                     syscall    MoveTo
000043FC  2F2D F7C8                move.l     -[A7], [A5 - 0x838]
00004400  486E FEDA                pea.l      [A6 - 0x126]
00004404  4EAD 019A                jsr        [A5 + 0x19A /* export_47, CODE:3 @ 000005E8 */]
00004408  486E FEDA                pea.l      [A6 - 0x126]
0000440C  A884                     syscall    DrawString
0000440E  4227                     clr.b      -[A7]
00004410  4EBA E134                jsr        [PC - 0x1ECC /* 00002546 */]
00004414  43EE FFDA                lea.l      A1, [A6 - 0x26]
00004418  307C 000A                movea.w    A0, 0xA /* '\n' */
0000441C  A03B                     syscall    Delay
0000441E  2280                     move.l     [A1], D0
00004420  486E FFEA                pea.l      [A6 - 0x16]
00004424  AA14                     syscall    RGBForeColor
00004426  306D F7CE                movea.w    A0, [A5 - 0x832]
0000442A  4868 0001                pea.l      [A0 + 0x1]
0000442E  486E FEDA                pea.l      [A6 - 0x126]
00004432  4EAD 019A                jsr        [A5 + 0x19A /* export_47, CODE:3 @ 000005E8 */]
00004436  4257                     clr.w      [A7]
00004438  486D FFC8                pea.l      [A5 - 0x38]
0000443C  A88C                     syscall    StringWidth
0000443E  3D5F FEC8                move.w     [A6 - 0x138], [A7]+
00004442  4267                     clr.w      -[A7]
00004444  486E FEDA                pea.l      [A6 - 0x126]
00004448  A88C                     syscall    StringWidth
0000444A  3D5F FEC6                move.w     [A6 - 0x13A], [A7]+
0000444E  4267                     clr.w      -[A7]
00004450  486D FFDA                pea.l      [A5 - 0x26]
00004454  A88C                     syscall    StringWidth
00004456  3C2E FEC6                move.w     D6, [A6 - 0x13A]
0000445A  DC6E FEC8                add.w      D6, [A6 - 0x138]
0000445E  DC5F                     add.w      D6, [A7]+
00004460  3A2D F3D2                move.w     D5, [A5 - 0xC2E]
00004464  9A6D F3CE                sub.w      D5, [A5 - 0xC32]
00004468  9A46                     sub.w      D5, D6
0000446A  48C5                     ext.l      D5
0000446C  8BFC 0002                divs.w     D5, 0x2
00004470  302D F3CE                move.w     D0, [A5 - 0xC32]
00004474  D045                     add.w      D0, D5
00004476  3F00                     move.w     -[A7], D0
00004478  302D F3CC                move.w     D0, [A5 - 0xC34]
0000447C  0640 0103                addi.w     D0, 0x103
00004480  3F00                     move.w     -[A7], D0
00004482  A893                     syscall    MoveTo
00004484  486D FFDE                pea.l      [A5 - 0x22]
00004488  A884                     syscall    DrawString
0000448A  486E FEDA                pea.l      [A6 - 0x126]
0000448E  A884                     syscall    DrawString
00004490  486D FFF0                pea.l      [A5 - 0x10]
00004494  A884                     syscall    DrawString
00004496  43EE FFDA                lea.l      A1, [A6 - 0x26]
0000449A  307C 0064                movea.w    A0, 0x64 /* 'd' */
0000449E  A03B                     syscall    Delay
000044A0  2280                     move.l     [A1], D0
000044A2  3B7C 0001 F7E2           move.w     [A5 - 0x81E], 0x1
000044A8  3F3C 0014                move.w     -[A7], 0x14
000044AC  486E FECA                pea.l      [A6 - 0x136]
000044B0  4EAD 0272                jsr        [A5 + 0x272 /* export_74, CODE:8 @ 00000320 */]
000044B4  4CDF 10F0                movem.l    D4,D5,D6,D7,A4, [A7]+
000044B8  4E5E                     unlink     A6
000044BA  4E75                     rts
fn000044BC:
000044BC  4E56 FFFE                link       A6, -0x0002
000044C0  2B6D F784 F7E4           move.l     [A5 - 0x81C], [A5 - 0x87C]
000044C6  4267                     clr.w      -[A7]
000044C8  3F3C 001E                move.w     -[A7], 0x1E
000044CC  4EAD 02AA                jsr        [A5 + 0x2AA /* export_81, CODE:2 @ 00000154 */]
000044D0  3D5F FFFE                move.w     [A6 - 0x2], [A7]+
000044D4  48E7 0138                movem.l    -[A7], D7,A2,A3,A4
000044D8  4280                     clr.l      D0
000044DA  103C 0001                move.b     D0, 0x1
000044DE  A05D                     syscall    SwapMMUMode
000044E0  41FA 0040                lea.l      A0, [PC + 0x40 /* 00004522, value 0x3F2E '?.', cstring "" */]
000044E4  1080                     move.b     [A0], D0
000044E6  3E2E FFFE                move.w     D7, [A6 - 0x2]
000044EA  246D F210                movea.l    A2, [A5 - 0xDF0]
000044EE  47ED F6B0                lea.l      A3, [A5 - 0x950]
000044F2  3007                     move.w     D0, D7
000044F4  E540                     asl        D0.w, 2
000044F6  2873 0000                movea.l    A4, [A3 + D0.w]
000044FA  3214                     move.w     D1, [A4]
000044FC  302C 0002                move.w     D0, [A4 + 0x2]
00004500  D26D F214                add.w      D1, [A5 - 0xDEC]
00004504  D06D F216                add.w      D0, [A5 - 0xDEA]
00004508  E540                     asl        D0.w, 2
0000450A  2272 0000                movea.l    A1, [A2 + D0.w]
0000450E  D2C1                     add.w      A1, D1
00004510  12BC 00FF                move.b     [A1], 0xFF
00004514  4280                     clr.l      D0
00004516  103A 000A                move.b     D0, [PC + 0xA /* 00004522, value 0x0, cstring "" */]
0000451A  A05D                     syscall    SwapMMUMode
0000451C  4CDF 1C80                movem.l    D7,A2,A3,A4, [A7]+
00004520  6002                     bra        +0x4 /* 00004524 */
00004522  0000 3F2E                ori.b      D0, 0x2E /* '.' */
// begin alternate branch 00004524-00004528
label00004524:
00004524  3F2E FFFE                move.w     -[A7], [A6 - 0x2]
// end alternate branch 00004524-00004528
label00004524: // (misaligned)
00004526  FFFE                     .invalid   <<F/7/7>>
00004528  4EBA 0008                jsr        [PC + 0x8 /* 00004532 */]
0000452C  548F                     addq.l     A7, 2
0000452E  4E5E                     unlink     A6
00004530  4E75                     rts
export_64:
fn00004532:
00004532  4E56 FFF8                link       A6, -0x0008
00004536  2F0C                     move.l     -[A7], A4
00004538  2D6D F3CC FFF8           move.l     [A6 - 0x8], [A5 - 0xC34]
0000453E  2D6D F3D0 FFFC           move.l     [A6 - 0x4], [A5 - 0xC30]
00004544  486E FFF8                pea.l      [A6 - 0x8]
00004548  2F3C 0001 0001           move.l     -[A7], 0x10001
0000454E  A8A9                     syscall    InsetRect
00004550  046E 000E FFFC           subi.w     [A6 - 0x4], 0xE
00004556  49ED F6B0                lea.l      A4, [A5 - 0x950]
0000455A  302E 0008                move.w     D0, [A6 + 0x8]
0000455E  48C0                     ext.l      D0
00004560  E588                     lsl        D0, 2
00004562  D08C                     add.l      D0, A4
00004564  2840                     movea.l    A4, D0
00004566  4267                     clr.w      -[A7]
00004568  302E FFFE                move.w     D0, [A6 - 0x2]
0000456C  906E FFFA                sub.w      D0, [A6 - 0x6]
00004570  3F00                     move.w     -[A7], D0
00004572  4EAD 02AA                jsr        [A5 + 0x2AA /* export_81, CODE:2 @ 00000154 */]
00004576  2054                     movea.l    A0, [A4]
00004578  309F                     move.w     [A0], [A7]+
0000457A  4267                     clr.w      -[A7]
0000457C  302E FFFC                move.w     D0, [A6 - 0x4]
00004580  906E FFF8                sub.w      D0, [A6 - 0x8]
00004584  3F00                     move.w     -[A7], D0
00004586  4EAD 02AA                jsr        [A5 + 0x2AA /* export_81, CODE:2 @ 00000154 */]
0000458A  2054                     movea.l    A0, [A4]
0000458C  315F 0002                move.w     [A0 + 0x2], [A7]+
00004590  4267                     clr.w      -[A7]
00004592  3F3C 0014                move.w     -[A7], 0x14
00004596  4EAD 02AA                jsr        [A5 + 0x2AA /* export_81, CODE:2 @ 00000154 */]
0000459A  204D                     movea.l    A0, A5
0000459C  301F                     move.w     D0, [A7]+
0000459E  D0C0                     add.w      A0, D0
000045A0  D0C0                     add.w      A0, D0
000045A2  2254                     movea.l    A1, [A4]
000045A4  3368 F728 0004           move.w     [A1 + 0x4], [A0 - 0x8D8]
000045AA  285F                     movea.l    A4, [A7]+
000045AC  4E5E                     unlink     A6
000045AE  4E75                     rts
fn000045B0:
000045B0  4E56 FFFE                link       A6, -0x0002
000045B4  48E7 0308                movem.l    -[A7], D6,D7,A4
000045B8  4267                     clr.w      -[A7]
000045BA  302D F3D0                move.w     D0, [A5 - 0xC30]
000045BE  906D F3CC                sub.w      D0, [A5 - 0xC34]
000045C2  0640 FFE0                addi.w     D0, 0xFFE0
000045C6  3F00                     move.w     -[A7], D0
000045C8  4EAD 02AA                jsr        [A5 + 0x2AA /* export_81, CODE:2 @ 00000154 */]
000045CC  7E20                     moveq.l    D7, 0x20
000045CE  DE5F                     add.w      D7, [A7]+
000045D0  E94F                     lsl        D7.w, 4
000045D2  7C00                     moveq.l    D6, 0x00
000045D4  4267                     clr.w      -[A7]
000045D6  7005                     moveq.l    D0, 0x05
000045D8  D06D F7CE                add.w      D0, [A5 - 0x832]
000045DC  3F00                     move.w     -[A7], D0
000045DE  4EAD 02AA                jsr        [A5 + 0x2AA /* export_81, CODE:2 @ 00000154 */]
000045E2  0C5F 000A                cmpi.w     [A7]+, 0xA /* '\n' */
000045E6  6F42                     ble        +0x44 /* 0000462A */
000045E8  2F3C 6261 6479           move.l     -[A7], 0x62616479 /* 'bady' */
000045EE  42A7                     clr.l      -[A7]
000045F0  3F07                     move.w     -[A7], D7
000045F2  3F06                     move.w     -[A7], D6
000045F4  3F3C 0001                move.w     -[A7], 0x1
000045F8  2F2D F888                move.l     -[A7], [A5 - 0x778]
000045FC  4EBA 010A                jsr        [PC + 0x10A /* 00004708 */]
00004600  3B40 F3CA                move.w     [A5 - 0xC36], D0
00004604  322D F7C6                move.w     D1, [A5 - 0x83A]
00004608  48C1                     ext.l      D1
0000460A  E589                     lsl        D1, 2
0000460C  49ED F230                lea.l      A4, [A5 - 0xDD0]
00004610  D28C                     add.l      D1, A4
00004612  2841                     movea.l    A4, D1
00004614  7EFF                     moveq.l    D7, 0xFFFFFFFF
00004616  DE6D F7C6                add.w      D7, [A5 - 0x83A]
0000461A  2054                     movea.l    A0, [A4]
0000461C  217C 736D 616C 0006      move.l     [A0 + 0x6], 0x736D616C /* 'smal' */
00004624  4FEF 0012                lea.l      A7, [A7 + 0x12]
00004628  6040                     bra        +0x42 /* 0000466A */
label0000462A:
0000462A  2F3C 6261 6479           move.l     -[A7], 0x62616479 /* 'bady' */
00004630  42A7                     clr.l      -[A7]
00004632  3F07                     move.w     -[A7], D7
00004634  3F06                     move.w     -[A7], D6
00004636  3F3C 0001                move.w     -[A7], 0x1
0000463A  2F2D F884                move.l     -[A7], [A5 - 0x77C]
0000463E  4EBA 00C8                jsr        [PC + 0xC8 /* 00004708 */]
00004642  3B40 F3CA                move.w     [A5 - 0xC36], D0
00004646  322D F7C6                move.w     D1, [A5 - 0x83A]
0000464A  48C1                     ext.l      D1
0000464C  E589                     lsl        D1, 2
0000464E  49ED F230                lea.l      A4, [A5 - 0xDD0]
00004652  D28C                     add.l      D1, A4
00004654  2841                     movea.l    A4, D1
00004656  7EFF                     moveq.l    D7, 0xFFFFFFFF
00004658  DE6D F7C6                add.w      D7, [A5 - 0x83A]
0000465C  2054                     movea.l    A0, [A4]
0000465E  217C 6269 6779 0006      move.l     [A0 + 0x6], 0x62696779 /* 'bigy' */
00004666  4FEF 0012                lea.l      A7, [A7 + 0x12]
label0000466A:
0000466A  2054                     movea.l    A0, [A4]
0000466C  4268 001A                clr.w      [A0 + 0x1A]
00004670  3B47 F848                move.w     [A5 - 0x7B8], D7
00004674  42AD F84A                clr.l      [A5 - 0x7B6]
00004678  4227                     clr.b      -[A7]
0000467A  2F2D F944                move.l     -[A7], [A5 - 0x6BC]
0000467E  3F3C 0004                move.w     -[A7], 0x4
00004682  42A7                     clr.l      -[A7]
00004684  4EAD 00BA                jsr        [A5 + 0xBA /* export_19, CODE:3 @ 00001E74 */]
00004688  302D F3CA                move.w     D0, [A5 - 0xC36]
0000468C  4CEE 10C0 FFF2           movem.l    D6,D7,A4, [A6 - 0xE]
00004692  4E5E                     unlink     A6
00004694  4E75                     rts
export_62:
fn00004696:
00004696  4E56 0000                link       A6, 0
0000469A  48E7 0318                movem.l    -[A7], D6,D7,A3,A4
0000469E  3E2E 0008                move.w     D7, [A6 + 0x8]
000046A2  4A6D F848                tst.w      [A5 - 0x7B8]
000046A6  670A                     beq        +0xC /* 000046B2 */
000046A8  BE6D F848                cmp.w      D7, [A5 - 0x7B8]
000046AC  6C04                     bge        +0x6 /* 000046B2 */
000046AE  536D F848                subq.w     [A5 - 0x7B8], 1
label000046B2:
000046B2  204D                     movea.l    A0, A5
000046B4  2007                     move.l     D0, D7
000046B6  48C0                     ext.l      D0
000046B8  E588                     lsl        D0, 2
000046BA  D1C0                     add.l      A0, D0
000046BC  2868 F234                movea.l    A4, [A0 - 0xDCC]
000046C0  7C01                     moveq.l    D6, 0x01
000046C2  DC47                     add.w      D6, D7
000046C4  2006                     move.l     D0, D6
000046C6  48C0                     ext.l      D0
000046C8  E588                     lsl        D0, 2
000046CA  47ED F234                lea.l      A3, [A5 - 0xDCC]
000046CE  D08B                     add.l      D0, A3
000046D0  2640                     movea.l    A3, D0
000046D2  6012                     bra        +0x14 /* 000046E6 */
label000046D4:
000046D4  204D                     movea.l    A0, A5
000046D6  2006                     move.l     D0, D6
000046D8  48C0                     ext.l      D0
000046DA  E588                     lsl        D0, 2
000046DC  D1C0                     add.l      A0, D0
000046DE  2153 F230                move.l     [A0 - 0xDD0], [A3]
000046E2  5246                     addq.w     D6, 1
000046E4  588B                     addq.l     A3, 4
label000046E6:
000046E6  BC6D F7C6                cmp.w      D6, [A5 - 0x83A]
000046EA  6DE8                     blt        -0x16 /* 000046D4 */
000046EC  536D F7C6                subq.w     [A5 - 0x83A], 1
000046F0  302D F7C6                move.w     D0, [A5 - 0x83A]
000046F4  204D                     movea.l    A0, A5
000046F6  48C0                     ext.l      D0
000046F8  E588                     lsl        D0, 2
000046FA  D1C0                     add.l      A0, D0
000046FC  214C F234                move.l     [A0 - 0xDCC], A4
00004700  4CDF 18C0                movem.l    D6,D7,A3,A4, [A7]+
00004704  4E5E                     unlink     A6
00004706  4E75                     rts
export_61:
fn00004708:
00004708  4E56 FFFC                link       A6, -0x0004
0000470C  2F0C                     move.l     -[A7], A4
0000470E  302D F7C6                move.w     D0, [A5 - 0x83A]
00004712  48C0                     ext.l      D0
00004714  E588                     lsl        D0, 2
00004716  49ED F234                lea.l      A4, [A5 - 0xDCC]
0000471A  D08C                     add.l      D0, A4
0000471C  2840                     movea.l    A4, D0
0000471E  2054                     movea.l    A0, [A4]
00004720  216E 0016 0002           move.l     [A0 + 0x2], [A6 + 0x16]
00004726  2054                     movea.l    A0, [A4]
00004728  316E 000E 000E           move.w     [A0 + 0xE], [A6 + 0xE]
0000472E  2054                     movea.l    A0, [A4]
00004730  316E 0010 0010           move.w     [A0 + 0x10], [A6 + 0x10]
00004736  2054                     movea.l    A0, [A4]
00004738  316E 000E 0012           move.w     [A0 + 0x12], [A6 + 0xE]
0000473E  2054                     movea.l    A0, [A4]
00004740  316E 0010 0014           move.w     [A0 + 0x14], [A6 + 0x10]
00004746  2054                     movea.l    A0, [A4]
00004748  30BC 0001                move.w     [A0], 0x1
0000474C  2054                     movea.l    A0, [A4]
0000474E  4268 0016                clr.w      [A0 + 0x16]
00004752  2054                     movea.l    A0, [A4]
00004754  316E 0012 000A           move.w     [A0 + 0xA], [A6 + 0x12]
0000475A  2054                     movea.l    A0, [A4]
0000475C  316E 0014 000C           move.w     [A0 + 0xC], [A6 + 0x14]
00004762  206E 0008                movea.l    A0, [A6 + 0x8]
00004766  2254                     movea.l    A1, [A4]
00004768  3350 0018                move.w     [A1 + 0x18], [A0]
0000476C  4267                     clr.w      -[A7]
0000476E  3F10                     move.w     -[A7], [A0]
00004770  4EAD 02AA                jsr        [A5 + 0x2AA /* export_81, CODE:2 @ 00000154 */]
00004774  302D F7C6                move.w     D0, [A5 - 0x83A]
00004778  204D                     movea.l    A0, A5
0000477A  48C0                     ext.l      D0
0000477C  E588                     lsl        D0, 2
0000477E  D1C0                     add.l      A0, D0
00004780  2068 F234                movea.l    A0, [A0 - 0xDCC]
00004784  315F 001A                move.w     [A0 + 0x1A], [A7]+
00004788  302D F7C6                move.w     D0, [A5 - 0x83A]
0000478C  48C0                     ext.l      D0
0000478E  E588                     lsl        D0, 2
00004790  49ED F234                lea.l      A4, [A5 - 0xDCC]
00004794  D08C                     add.l      D0, A4
00004796  2840                     movea.l    A4, D0
00004798  2054                     movea.l    A0, [A4]
0000479A  316E 000C 001C           move.w     [A0 + 0x1C], [A6 + 0xC]
000047A0  2054                     movea.l    A0, [A4]
000047A2  4268 001E                clr.w      [A0 + 0x1E]
000047A6  2054                     movea.l    A0, [A4]
000047A8  216E 0008 0020           move.l     [A0 + 0x20], [A6 + 0x8]
000047AE  0C6E FFFF 000C           cmpi.w     [A6 + 0xC], 0xFFFF
000047B4  6606                     bne        +0x8 /* 000047BC */
000047B6  2054                     movea.l    A0, [A4]
000047B8  4268 001A                clr.w      [A0 + 0x1A]
label000047BC:
000047BC  526D F7C6                addq.w     [A5 - 0x83A], 1
000047C0  7000                     moveq.l    D0, 0x00
000047C2  285F                     movea.l    A4, [A7]+
000047C4  4E5E                     unlink     A6
000047C6  4E75                     rts
fn000047C8:
000047C8  4E56 FFF6                link       A6, -0x000A
000047CC  48E7 1F00                movem.l    -[A7], D3,D4,D5,D6,D7
000047D0  4267                     clr.w      -[A7]
000047D2  3F3C 0032                move.w     -[A7], 0x32 /* '2' */
000047D6  4EAD 02AA                jsr        [A5 + 0x2AA /* export_81, CODE:2 @ 00000154 */]
000047DA  4A5F                     tst.w      [A7]+
000047DC  6612                     bne        +0x14 /* 000047F0 */
000047DE  4267                     clr.w      -[A7]
000047E0  3F3C 0004                move.w     -[A7], 0x4
000047E4  4EAD 02AA                jsr        [A5 + 0x2AA /* export_81, CODE:2 @ 00000154 */]
000047E8  3E1F                     move.w     D7, [A7]+
000047EA  DE47                     add.w      D7, D7
000047EC  5847                     addq.w     D7, 4
000047EE  6002                     bra        +0x4 /* 000047F2 */
label000047F0:
000047F0  7E01                     moveq.l    D7, 0x01
label000047F2:
000047F2  7C00                     moveq.l    D6, 0x00
000047F4  6000 00EA                bra        +0xEC /* 000048E0 */
label000047F8:
000047F8  4267                     clr.w      -[A7]
000047FA  302D F3D2                move.w     D0, [A5 - 0xC2E]
000047FE  906D F3CE                sub.w      D0, [A5 - 0xC32]
00004802  0640 FFE0                addi.w     D0, 0xFFE0
00004806  3F00                     move.w     -[A7], D0
00004808  4EAD 02AA                jsr        [A5 + 0x2AA /* export_81, CODE:2 @ 00000154 */]
0000480C  7020                     moveq.l    D0, 0x20
0000480E  D05F                     add.w      D0, [A7]+
00004810  3D40 FFF8                move.w     [A6 - 0x8], D0
00004814  426E FFFA                clr.w      [A6 - 0x6]
00004818  E948                     lsl        D0.w, 4
0000481A  3D40 FFF8                move.w     [A6 - 0x8], D0
0000481E  322E FFFA                move.w     D1, [A6 - 0x6]
00004822  E949                     lsl        D1.w, 4
00004824  3D41 FFFA                move.w     [A6 - 0x6], D1
00004828  3A2D F7CE                move.w     D5, [A5 - 0x832]
0000482C  48C5                     ext.l      D5
0000482E  8BFC 0006                divs.w     D5, 0x6
00004832  5845                     addq.w     D5, 4
00004834  E94D                     lsl        D5.w, 4
00004836  7800                     moveq.l    D4, 0x00
00004838  3604                     move.w     D3, D4
0000483A  2405                     move.l     D2, D5
0000483C  48C2                     ext.l      D2
0000483E  85FC 0002                divs.w     D2, 0x2
00004842  3D42 FFF6                move.w     [A6 - 0xA], D2
00004846  600E                     bra        +0x10 /* 00004856 */
label00004848:
00004848  4267                     clr.w      -[A7]
0000484A  3F05                     move.w     -[A7], D5
0000484C  4EAD 02AA                jsr        [A5 + 0x2AA /* export_81, CODE:2 @ 00000154 */]
00004850  361F                     move.w     D3, [A7]+
00004852  966E FFF6                sub.w      D3, [A6 - 0xA]
label00004856:
00004856  4A43                     tst.w      D3
00004858  67EE                     beq        -0x10 /* 00004848 */
0000485A  4A43                     tst.w      D3
0000485C  6F06                     ble        +0x8 /* 00004864 */
0000485E  0643 0010                addi.w     D3, 0x10
00004862  6014                     bra        +0x16 /* 00004878 */
label00004864:
00004864  0643 FFF0                addi.w     D3, 0xFFF0
00004868  600E                     bra        +0x10 /* 00004878 */
label0000486A:
0000486A  4267                     clr.w      -[A7]
0000486C  3F05                     move.w     -[A7], D5
0000486E  4EAD 02AA                jsr        [A5 + 0x2AA /* export_81, CODE:2 @ 00000154 */]
00004872  381F                     move.w     D4, [A7]+
00004874  986E FFF6                sub.w      D4, [A6 - 0xA]
label00004878:
00004878  4A44                     tst.w      D4
0000487A  67EE                     beq        -0x10 /* 0000486A */
0000487C  4A44                     tst.w      D4
0000487E  6F06                     ble        +0x8 /* 00004886 */
00004880  0644 0010                addi.w     D4, 0x10
00004884  6004                     bra        +0x6 /* 0000488A */
label00004886:
00004886  0644 FFF0                addi.w     D4, 0xFFF0
label0000488A:
0000488A  4267                     clr.w      -[A7]
0000488C  3F3C 0003                move.w     -[A7], 0x3
00004890  4EAD 02AA                jsr        [A5 + 0x2AA /* export_81, CODE:2 @ 00000154 */]
00004894  3A1F                     move.w     D5, [A7]+
00004896  2F3C 7072 697A           move.l     -[A7], 0x7072697A /* 'priz' */
0000489C  3F04                     move.w     -[A7], D4
0000489E  3F03                     move.w     -[A7], D3
000048A0  3F2E FFFA                move.w     -[A7], [A6 - 0x6]
000048A4  3F2E FFF8                move.w     -[A7], [A6 - 0x8]
000048A8  3F3C 0002                move.w     -[A7], 0x2
000048AC  2F2D F8A4                move.l     -[A7], [A5 - 0x75C]
000048B0  4EBA FE56                jsr        [PC - 0x1AA /* 00004708 */]
000048B4  3B40 F3CA                move.w     [A5 - 0xC36], D0
000048B8  322D F7C6                move.w     D1, [A5 - 0x83A]
000048BC  204D                     movea.l    A0, A5
000048BE  48C1                     ext.l      D1
000048C0  E589                     lsl        D1, 2
000048C2  D1C1                     add.l      A0, D1
000048C4  3245                     movea.w    A1, D5
000048C6  2068 F230                movea.l    A0, [A0 - 0xDD0]
000048CA  2149 0006                move.l     [A0 + 0x6], A1
000048CE  2B6D F784 F806           move.l     [A5 - 0x7FA], [A5 - 0x87C]
000048D4  3B7C 0001 F804           move.w     [A5 - 0x7FC], 0x1
000048DA  4FEF 0012                lea.l      A7, [A7 + 0x12]
000048DE  5246                     addq.w     D6, 1
label000048E0:
000048E0  BE46                     cmp.w      D7, D6
000048E2  6E00 FF14                bgt        -0xEA /* 000047F8 */
000048E6  4227                     clr.b      -[A7]
000048E8  2F2D F90C                move.l     -[A7], [A5 - 0x6F4]
000048EC  3F3C 0004                move.w     -[A7], 0x4
000048F0  42A7                     clr.l      -[A7]
000048F2  4EAD 00BA                jsr        [A5 + 0xBA /* export_19, CODE:3 @ 00001E74 */]
000048F6  302D F3CA                move.w     D0, [A5 - 0xC36]
000048FA  4CEE 00F8 FFE2           movem.l    D3,D4,D5,D6,D7, [A6 - 0x1E]
00004900  4E5E                     unlink     A6
00004902  4E75                     rts
fn00004904:
00004904  4E56 FFFC                link       A6, -0x0004
00004908  48E7 0700                movem.l    -[A7], D5,D6,D7
0000490C  4267                     clr.w      -[A7]
0000490E  302D F3D2                move.w     D0, [A5 - 0xC2E]
00004912  906D F3CE                sub.w      D0, [A5 - 0xC32]
00004916  0640 FFE0                addi.w     D0, 0xFFE0
0000491A  3F00                     move.w     -[A7], D0
0000491C  4EAD 02AA                jsr        [A5 + 0x2AA /* export_81, CODE:2 @ 00000154 */]
00004920  7E20                     moveq.l    D7, 0x20
00004922  DE5F                     add.w      D7, [A7]+
00004924  4267                     clr.w      -[A7]
00004926  302D F3D0                move.w     D0, [A5 - 0xC30]
0000492A  906D F3CC                sub.w      D0, [A5 - 0xC34]
0000492E  0640 FFD2                addi.w     D0, 0xFFD2
00004932  3F00                     move.w     -[A7], D0
00004934  4EAD 02AA                jsr        [A5 + 0x2AA /* export_81, CODE:2 @ 00000154 */]
00004938  7C20                     moveq.l    D6, 0x20
0000493A  DC5F                     add.w      D6, [A7]+
0000493C  E94F                     lsl        D7.w, 4
0000493E  E94E                     lsl        D6.w, 4
00004940  4267                     clr.w      -[A7]
00004942  3F3C 0004                move.w     -[A7], 0x4
00004946  4EAD 02AA                jsr        [A5 + 0x2AA /* export_81, CODE:2 @ 00000154 */]
0000494A  3A1F                     move.w     D5, [A7]+
0000494C  3005                     move.w     D0, D5
0000494E  6714                     beq        +0x16 /* 00004964 */
00004950  6B00 00F2                bmi        +0xF4 /* 00004A44 */
00004954  5740                     subq.w     D0, 3
00004956  6700 00B6                beq        +0xB8 /* 00004A0E */
0000495A  6A00 00E8                bpl        +0xEA /* 00004A44 */
0000495E  5240                     addq.w     D0, 1
00004960  6A74                     bpl        +0x76 /* 000049D6 */
00004962  603A                     bra        +0x3C /* 0000499E */
label00004964:
00004964  2F3C 6D75 6C74           move.l     -[A7], 0x6D756C74 /* 'mult' */
0000496A  42A7                     clr.l      -[A7]
0000496C  3F06                     move.w     -[A7], D6
0000496E  3F07                     move.w     -[A7], D7
00004970  3F3C FFFF                move.w     -[A7], 0xFFFF
00004974  2F2D F88C                move.l     -[A7], [A5 - 0x774]
00004978  4EBA FD8E                jsr        [PC - 0x272 /* 00004708 */]
0000497C  3B40 F3CA                move.w     [A5 - 0xC36], D0
00004980  322D F7C6                move.w     D1, [A5 - 0x83A]
00004984  204D                     movea.l    A0, A5
00004986  48C1                     ext.l      D1
00004988  E589                     lsl        D1, 2
0000498A  D1C1                     add.l      A0, D1
0000498C  2068 F230                movea.l    A0, [A0 - 0xDD0]
00004990  7002                     moveq.l    D0, 0x02
00004992  2140 0006                move.l     [A0 + 0x6], D0
00004996  4FEF 0012                lea.l      A7, [A7 + 0x12]
0000499A  6000 00A8                bra        +0xAA /* 00004A44 */
label0000499E:
0000499E  2F3C 6D75 6C74           move.l     -[A7], 0x6D756C74 /* 'mult' */
000049A4  42A7                     clr.l      -[A7]
000049A6  3F06                     move.w     -[A7], D6
000049A8  3F07                     move.w     -[A7], D7
000049AA  3F3C FFFF                move.w     -[A7], 0xFFFF
000049AE  2F2D F890                move.l     -[A7], [A5 - 0x770]
000049B2  4EBA FD54                jsr        [PC - 0x2AC /* 00004708 */]
000049B6  3B40 F3CA                move.w     [A5 - 0xC36], D0
000049BA  322D F7C6                move.w     D1, [A5 - 0x83A]
000049BE  204D                     movea.l    A0, A5
000049C0  48C1                     ext.l      D1
000049C2  E589                     lsl        D1, 2
000049C4  D1C1                     add.l      A0, D1
000049C6  2068 F230                movea.l    A0, [A0 - 0xDD0]
000049CA  7003                     moveq.l    D0, 0x03
000049CC  2140 0006                move.l     [A0 + 0x6], D0
000049D0  4FEF 0012                lea.l      A7, [A7 + 0x12]
000049D4  606E                     bra        +0x70 /* 00004A44 */
label000049D6:
000049D6  2F3C 6D75 6C74           move.l     -[A7], 0x6D756C74 /* 'mult' */
000049DC  42A7                     clr.l      -[A7]
000049DE  3F06                     move.w     -[A7], D6
000049E0  3F07                     move.w     -[A7], D7
000049E2  3F3C FFFF                move.w     -[A7], 0xFFFF
000049E6  2F2D F894                move.l     -[A7], [A5 - 0x76C]
000049EA  4EBA FD1C                jsr        [PC - 0x2E4 /* 00004708 */]
000049EE  3B40 F3CA                move.w     [A5 - 0xC36], D0
000049F2  322D F7C6                move.w     D1, [A5 - 0x83A]
000049F6  204D                     movea.l    A0, A5
000049F8  48C1                     ext.l      D1
000049FA  E589                     lsl        D1, 2
000049FC  D1C1                     add.l      A0, D1
000049FE  2068 F230                movea.l    A0, [A0 - 0xDD0]
00004A02  7004                     moveq.l    D0, 0x04
00004A04  2140 0006                move.l     [A0 + 0x6], D0
00004A08  4FEF 0012                lea.l      A7, [A7 + 0x12]
00004A0C  6036                     bra        +0x38 /* 00004A44 */
label00004A0E:
00004A0E  2F3C 6D75 6C74           move.l     -[A7], 0x6D756C74 /* 'mult' */
00004A14  42A7                     clr.l      -[A7]
00004A16  3F06                     move.w     -[A7], D6
00004A18  3F07                     move.w     -[A7], D7
00004A1A  3F3C FFFF                move.w     -[A7], 0xFFFF
00004A1E  2F2D F898                move.l     -[A7], [A5 - 0x768]
00004A22  4EBA FCE4                jsr        [PC - 0x31C /* 00004708 */]
00004A26  3B40 F3CA                move.w     [A5 - 0xC36], D0
00004A2A  322D F7C6                move.w     D1, [A5 - 0x83A]
00004A2E  204D                     movea.l    A0, A5
00004A30  48C1                     ext.l      D1
00004A32  E589                     lsl        D1, 2
00004A34  D1C1                     add.l      A0, D1
00004A36  2068 F230                movea.l    A0, [A0 - 0xDD0]
00004A3A  7005                     moveq.l    D0, 0x05
00004A3C  2140 0006                move.l     [A0 + 0x6], D0
00004A40  4FEF 0012                lea.l      A7, [A7 + 0x12]
label00004A44:
00004A44  2B6D F784 F7FA           move.l     [A5 - 0x806], [A5 - 0x87C]
00004A4A  3B7C 0001 F7F8           move.w     [A5 - 0x808], 0x1
00004A50  4227                     clr.b      -[A7]
00004A52  2F2D F8EC                move.l     -[A7], [A5 - 0x714]
00004A56  3F3C 0004                move.w     -[A7], 0x4
00004A5A  42A7                     clr.l      -[A7]
00004A5C  4EAD 00BA                jsr        [A5 + 0xBA /* export_19, CODE:3 @ 00001E74 */]
00004A60  302D F3CA                move.w     D0, [A5 - 0xC36]
00004A64  4CEE 00E0 FFF0           movem.l    D5,D6,D7, [A6 - 0x10]
00004A6A  4E5E                     unlink     A6
00004A6C  4E75                     rts
fn00004A6E:
00004A6E  4E56 FFFA                link       A6, -0x0006
00004A72  48E7 0300                movem.l    -[A7], D6,D7
label00004A76:
00004A76  4267                     clr.w      -[A7]
00004A78  302D F3D2                move.w     D0, [A5 - 0xC2E]
00004A7C  906D F3CE                sub.w      D0, [A5 - 0xC32]
00004A80  0640 FFE0                addi.w     D0, 0xFFE0
00004A84  3F00                     move.w     -[A7], D0
00004A86  4EAD 02AA                jsr        [A5 + 0x2AA /* export_81, CODE:2 @ 00000154 */]
00004A8A  7E20                     moveq.l    D7, 0x20
00004A8C  DE5F                     add.w      D7, [A7]+
00004A8E  4267                     clr.w      -[A7]
00004A90  302D F3D0                move.w     D0, [A5 - 0xC30]
00004A94  906D F3CC                sub.w      D0, [A5 - 0xC34]
00004A98  0640 FFD2                addi.w     D0, 0xFFD2
00004A9C  3F00                     move.w     -[A7], D0
00004A9E  4EAD 02AA                jsr        [A5 + 0x2AA /* export_81, CODE:2 @ 00000154 */]
00004AA2  7C20                     moveq.l    D6, 0x20
00004AA4  DC5F                     add.w      D6, [A7]+
00004AA6  E94F                     lsl        D7.w, 4
00004AA8  E94E                     lsl        D6.w, 4
00004AAA  206D F234                movea.l    A0, [A5 - 0xDCC]
00004AAE  3028 000E                move.w     D0, [A0 + 0xE]
00004AB2  9047                     sub.w      D0, D7
00004AB4  3D40 FFFE                move.w     [A6 - 0x2], D0
00004AB8  4A40                     tst.w      D0
00004ABA  6C0A                     bge        +0xC /* 00004AC6 */
00004ABC  70FF                     moveq.l    D0, 0xFFFFFFFF
00004ABE  C1EE FFFE                muls.w     D0, [A6 - 0x2]
00004AC2  3D40 FFFE                move.w     [A6 - 0x2], D0
label00004AC6:
00004AC6  206D F234                movea.l    A0, [A5 - 0xDCC]
00004ACA  3028 0010                move.w     D0, [A0 + 0x10]
00004ACE  9046                     sub.w      D0, D6
00004AD0  3D40 FFFC                move.w     [A6 - 0x4], D0
00004AD4  4A40                     tst.w      D0
00004AD6  6C0A                     bge        +0xC /* 00004AE2 */
00004AD8  70FF                     moveq.l    D0, 0xFFFFFFFF
00004ADA  C1EE FFFC                muls.w     D0, [A6 - 0x4]
00004ADE  3D40 FFFC                move.w     [A6 - 0x4], D0
label00004AE2:
00004AE2  0C6E 0400 FFFE           cmpi.w     [A6 - 0x2], 0x400
00004AE8  6D8C                     blt        -0x72 /* 00004A76 */
00004AEA  0C6E 0400 FFFC           cmpi.w     [A6 - 0x4], 0x400
00004AF0  6D84                     blt        -0x7A /* 00004A76 */
00004AF2  2F3C 6E6F 7661           move.l     -[A7], 0x6E6F7661 /* 'nova' */
00004AF8  42A7                     clr.l      -[A7]
00004AFA  3F06                     move.w     -[A7], D6
00004AFC  3F07                     move.w     -[A7], D7
00004AFE  3F3C 0004                move.w     -[A7], 0x4
00004B02  2F2D F880                move.l     -[A7], [A5 - 0x780]
00004B06  4EBA FC00                jsr        [PC - 0x400 /* 00004708 */]
00004B0A  3B40 F3CA                move.w     [A5 - 0xC36], D0
00004B0E  322D F7C6                move.w     D1, [A5 - 0x83A]
00004B12  204D                     movea.l    A0, A5
00004B14  48C1                     ext.l      D1
00004B16  E589                     lsl        D1, 2
00004B18  D1C1                     add.l      A0, D1
00004B1A  2068 F230                movea.l    A0, [A0 - 0xDD0]
00004B1E  4268 001A                clr.w      [A0 + 0x1A]
00004B22  42AD F838                clr.l      [A5 - 0x7C8]
00004B26  4217                     clr.b      [A7]
00004B28  2F2D F934                move.l     -[A7], [A5 - 0x6CC]
00004B2C  3F3C 0004                move.w     -[A7], 0x4
00004B30  42A7                     clr.l      -[A7]
00004B32  4EAD 00BA                jsr        [A5 + 0xBA /* export_19, CODE:3 @ 00001E74 */]
00004B36  302D F3CA                move.w     D0, [A5 - 0xC36]
00004B3A  4CEE 00C0 FFF2           movem.l    D6,D7, [A6 - 0xE]
00004B40  4E5E                     unlink     A6
00004B42  4E75                     rts
fn00004B44:
00004B44  4E56 FFF4                link       A6, -0x000C
00004B48  48E7 1F08                movem.l    -[A7], D3,D4,D5,D6,D7,A4
00004B4C  4267                     clr.w      -[A7]
00004B4E  3F3C 0032                move.w     -[A7], 0x32 /* '2' */
00004B52  4EAD 02AA                jsr        [A5 + 0x2AA /* export_81, CODE:2 @ 00000154 */]
00004B56  4A5F                     tst.w      [A7]+
00004B58  6612                     bne        +0x14 /* 00004B6C */
00004B5A  4267                     clr.w      -[A7]
00004B5C  3F3C 0004                move.w     -[A7], 0x4
00004B60  4EAD 02AA                jsr        [A5 + 0x2AA /* export_81, CODE:2 @ 00000154 */]
00004B64  3E1F                     move.w     D7, [A7]+
00004B66  DE47                     add.w      D7, D7
00004B68  5847                     addq.w     D7, 4
00004B6A  6002                     bra        +0x4 /* 00004B6E */
label00004B6C:
00004B6C  7E01                     moveq.l    D7, 0x01
label00004B6E:
00004B6E  7C00                     moveq.l    D6, 0x00
00004B70  6000 00D8                bra        +0xDA /* 00004C4A */
label00004B74:
00004B74  4267                     clr.w      -[A7]
00004B76  302D F3D2                move.w     D0, [A5 - 0xC2E]
00004B7A  906D F3CE                sub.w      D0, [A5 - 0xC32]
00004B7E  0640 FFE0                addi.w     D0, 0xFFE0
00004B82  3F00                     move.w     -[A7], D0
00004B84  4EAD 02AA                jsr        [A5 + 0x2AA /* export_81, CODE:2 @ 00000154 */]
00004B88  7020                     moveq.l    D0, 0x20
00004B8A  D05F                     add.w      D0, [A7]+
00004B8C  3D40 FFF4                move.w     [A6 - 0xC], D0
00004B90  426E FFF6                clr.w      [A6 - 0xA]
00004B94  E948                     lsl        D0.w, 4
00004B96  3D40 FFF4                move.w     [A6 - 0xC], D0
00004B9A  322E FFF6                move.w     D1, [A6 - 0xA]
00004B9E  E949                     lsl        D1.w, 4
00004BA0  3D41 FFF6                move.w     [A6 - 0xA], D1
00004BA4  4267                     clr.w      -[A7]
00004BA6  3F3C 0006                move.w     -[A7], 0x6
00004BAA  4EAD 02AA                jsr        [A5 + 0x2AA /* export_81, CODE:2 @ 00000154 */]
00004BAE  381F                     move.w     D4, [A7]+
00004BB0  4A44                     tst.w      D4
00004BB2  660A                     bne        +0xC /* 00004BBE */
00004BB4  2D7C 0000 01F4 FFF8      move.l     [A6 - 0x8], 0x1F4
00004BBC  600A                     bra        +0xC /* 00004BC8 */
label00004BBE:
00004BBE  303C 03E8                move.w     D0, 0x3E8
00004BC2  C1C4                     muls.w     D0, D4
00004BC4  2D40 FFF8                move.l     [A6 - 0x8], D0
label00004BC8:
00004BC8  382D F7CE                move.w     D4, [A5 - 0x832]
00004BCC  48C4                     ext.l      D4
00004BCE  89FC 0006                divs.w     D4, 0x6
00004BD2  5844                     addq.w     D4, 4
00004BD4  E94C                     lsl        D4.w, 4
00004BD6  7A00                     moveq.l    D5, 0x00
00004BD8  3605                     move.w     D3, D5
00004BDA  2A04                     move.l     D5, D4
00004BDC  48C5                     ext.l      D5
00004BDE  8BFC 0002                divs.w     D5, 0x2
00004BE2  600A                     bra        +0xC /* 00004BEE */
label00004BE4:
00004BE4  4267                     clr.w      -[A7]
00004BE6  3F05                     move.w     -[A7], D5
00004BE8  4EAD 02AA                jsr        [A5 + 0x2AA /* export_81, CODE:2 @ 00000154 */]
00004BEC  361F                     move.w     D3, [A7]+
label00004BEE:
00004BEE  4A43                     tst.w      D3
00004BF0  67F2                     beq        -0xC /* 00004BE4 */
00004BF2  0643 0030                addi.w     D3, 0x30 /* '0' */
00004BF6  3A03                     move.w     D5, D3
00004BF8  2F3C 626F 6E75           move.l     -[A7], 0x626F6E75 /* 'bonu' */
00004BFE  3F05                     move.w     -[A7], D5
00004C00  3F03                     move.w     -[A7], D3
00004C02  3F2E FFF6                move.w     -[A7], [A6 - 0xA]
00004C06  3F2E FFF4                move.w     -[A7], [A6 - 0xC]
00004C0A  3F3C 0002                move.w     -[A7], 0x2
00004C0E  2F2D F8A8                move.l     -[A7], [A5 - 0x758]
00004C12  4EBA FAF4                jsr        [PC - 0x50C /* 00004708 */]
00004C16  3B40 F3CA                move.w     [A5 - 0xC36], D0
00004C1A  322D F7C6                move.w     D1, [A5 - 0x83A]
00004C1E  48C1                     ext.l      D1
00004C20  E589                     lsl        D1, 2
00004C22  49ED F230                lea.l      A4, [A5 - 0xDD0]
00004C26  D28C                     add.l      D1, A4
00004C28  2841                     movea.l    A4, D1
00004C2A  2054                     movea.l    A0, [A4]
00004C2C  42A8 0006                clr.l      [A0 + 0x6]
00004C30  2054                     movea.l    A0, [A4]
00004C32  216E FFF8 0006           move.l     [A0 + 0x6], [A6 - 0x8]
00004C38  2B6D F784 F810           move.l     [A5 - 0x7F0], [A5 - 0x87C]
00004C3E  3B7C 0001 F80E           move.w     [A5 - 0x7F2], 0x1
00004C44  4FEF 0012                lea.l      A7, [A7 + 0x12]
00004C48  5246                     addq.w     D6, 1
label00004C4A:
00004C4A  BE46                     cmp.w      D7, D6
00004C4C  6E00 FF26                bgt        -0xD8 /* 00004B74 */
00004C50  4227                     clr.b      -[A7]
00004C52  2F2D F918                move.l     -[A7], [A5 - 0x6E8]
00004C56  3F3C 0004                move.w     -[A7], 0x4
00004C5A  42A7                     clr.l      -[A7]
00004C5C  4EAD 00BA                jsr        [A5 + 0xBA /* export_19, CODE:3 @ 00001E74 */]
00004C60  302D F3CA                move.w     D0, [A5 - 0xC36]
00004C64  4CEE 10F8 FFDC           movem.l    D3,D4,D5,D6,D7,A4, [A6 - 0x24]
00004C6A  4E5E                     unlink     A6
00004C6C  4E75                     rts
fn00004C6E:
00004C6E  4E56 FFF8                link       A6, -0x0008
00004C72  48E7 1F00                movem.l    -[A7], D3,D4,D5,D6,D7
00004C76  4267                     clr.w      -[A7]
00004C78  302D F3D2                move.w     D0, [A5 - 0xC2E]
00004C7C  906D F3CE                sub.w      D0, [A5 - 0xC32]
00004C80  0640 FFE0                addi.w     D0, 0xFFE0
00004C84  3F00                     move.w     -[A7], D0
00004C86  4EAD 02AA                jsr        [A5 + 0x2AA /* export_81, CODE:2 @ 00000154 */]
00004C8A  7E20                     moveq.l    D7, 0x20
00004C8C  DE5F                     add.w      D7, [A7]+
00004C8E  7C00                     moveq.l    D6, 0x00
00004C90  E94F                     lsl        D7.w, 4
00004C92  E94E                     lsl        D6.w, 4
00004C94  7A40                     moveq.l    D5, 0x40
00004C96  7600                     moveq.l    D3, 0x00
00004C98  3803                     move.w     D4, D3
00004C9A  2005                     move.l     D0, D5
00004C9C  48C0                     ext.l      D0
00004C9E  81FC 0002                divs.w     D0, 0x2
00004CA2  3D40 FFF8                move.w     [A6 - 0x8], D0
00004CA6  600E                     bra        +0x10 /* 00004CB6 */
label00004CA8:
00004CA8  4267                     clr.w      -[A7]
00004CAA  3F05                     move.w     -[A7], D5
00004CAC  4EAD 02AA                jsr        [A5 + 0x2AA /* export_81, CODE:2 @ 00000154 */]
00004CB0  381F                     move.w     D4, [A7]+
00004CB2  986E FFF8                sub.w      D4, [A6 - 0x8]
label00004CB6:
00004CB6  4A44                     tst.w      D4
00004CB8  67EE                     beq        -0x10 /* 00004CA8 */
00004CBA  4A44                     tst.w      D4
00004CBC  600E                     bra        +0x10 /* 00004CCC */
label00004CBE:
00004CBE  4267                     clr.w      -[A7]
00004CC0  3F05                     move.w     -[A7], D5
00004CC2  4EAD 02AA                jsr        [A5 + 0x2AA /* export_81, CODE:2 @ 00000154 */]
00004CC6  361F                     move.w     D3, [A7]+
00004CC8  966E FFF8                sub.w      D3, [A6 - 0x8]
label00004CCC:
00004CCC  4A43                     tst.w      D3
00004CCE  67EE                     beq        -0x10 /* 00004CBE */
00004CD0  4A43                     tst.w      D3
00004CD2  6F06                     ble        +0x8 /* 00004CDA */
00004CD4  0643 0010                addi.w     D3, 0x10
00004CD8  6004                     bra        +0x6 /* 00004CDE */
label00004CDA:
00004CDA  0643 FFF0                addi.w     D3, 0xFFF0
label00004CDE:
00004CDE  2F3C 6473 6870           move.l     -[A7], 0x64736870 /* 'dshp' */
00004CE4  3F03                     move.w     -[A7], D3
00004CE6  3F04                     move.w     -[A7], D4
00004CE8  3F06                     move.w     -[A7], D6
00004CEA  3F07                     move.w     -[A7], D7
00004CEC  3F3C 0001                move.w     -[A7], 0x1
00004CF0  2F2D F864                move.l     -[A7], [A5 - 0x79C]
00004CF4  4EBA FA12                jsr        [PC - 0x5EE /* 00004708 */]
00004CF8  3B40 F3CA                move.w     [A5 - 0xC36], D0
00004CFC  42AD F820                clr.l      [A5 - 0x7E0]
00004D00  2B6D F784 F824           move.l     [A5 - 0x7DC], [A5 - 0x87C]
00004D06  4217                     clr.b      [A7]
00004D08  2F2D F93C                move.l     -[A7], [A5 - 0x6C4]
00004D0C  3F3C 0004                move.w     -[A7], 0x4
00004D10  42A7                     clr.l      -[A7]
00004D12  4EAD 00BA                jsr        [A5 + 0xBA /* export_19, CODE:3 @ 00001E74 */]
00004D16  302D F3CA                move.w     D0, [A5 - 0xC36]
00004D1A  4CEE 00F8 FFE4           movem.l    D3,D4,D5,D6,D7, [A6 - 0x1C]
00004D20  4E5E                     unlink     A6
00004D22  4E75                     rts
fn00004D24:
00004D24  4E56 FFF6                link       A6, -0x000A
00004D28  48E7 1F00                movem.l    -[A7], D3,D4,D5,D6,D7
00004D2C  4267                     clr.w      -[A7]
00004D2E  3F3C 0032                move.w     -[A7], 0x32 /* '2' */
00004D32  4EAD 02AA                jsr        [A5 + 0x2AA /* export_81, CODE:2 @ 00000154 */]
00004D36  4A5F                     tst.w      [A7]+
00004D38  6612                     bne        +0x14 /* 00004D4C */
00004D3A  4267                     clr.w      -[A7]
00004D3C  3F3C 0004                move.w     -[A7], 0x4
00004D40  4EAD 02AA                jsr        [A5 + 0x2AA /* export_81, CODE:2 @ 00000154 */]
00004D44  3C1F                     move.w     D6, [A7]+
00004D46  DC46                     add.w      D6, D6
00004D48  5846                     addq.w     D6, 4
00004D4A  6002                     bra        +0x4 /* 00004D4E */
label00004D4C:
00004D4C  7C01                     moveq.l    D6, 0x01
label00004D4E:
00004D4E  7A00                     moveq.l    D5, 0x00
00004D50  6000 00C2                bra        +0xC4 /* 00004E14 */
label00004D54:
00004D54  302D F7CE                move.w     D0, [A5 - 0x832]
00004D58  48C0                     ext.l      D0
00004D5A  81FC 0006                divs.w     D0, 0x6
00004D5E  5840                     addq.w     D0, 4
00004D60  E948                     lsl        D0.w, 4
00004D62  3D40 FFF8                move.w     [A6 - 0x8], D0
label00004D66:
00004D66  426E FFF6                clr.w      [A6 - 0xA]
00004D6A  7E00                     moveq.l    D7, 0x00
00004D6C  4267                     clr.w      -[A7]
00004D6E  302D F3D2                move.w     D0, [A5 - 0xC2E]
00004D72  906D F3CE                sub.w      D0, [A5 - 0xC32]
00004D76  0640 FFE0                addi.w     D0, 0xFFE0
00004D7A  3F00                     move.w     -[A7], D0
00004D7C  4EAD 02AA                jsr        [A5 + 0x2AA /* export_81, CODE:2 @ 00000154 */]
00004D80  7820                     moveq.l    D4, 0x20
00004D82  D85F                     add.w      D4, [A7]+
00004D84  4267                     clr.w      -[A7]
00004D86  302D F3D0                move.w     D0, [A5 - 0xC30]
00004D8A  906D F3CC                sub.w      D0, [A5 - 0xC34]
00004D8E  0640 FFD2                addi.w     D0, 0xFFD2
00004D92  3F00                     move.w     -[A7], D0
00004D94  4EAD 02AA                jsr        [A5 + 0x2AA /* export_81, CODE:2 @ 00000154 */]
00004D98  7620                     moveq.l    D3, 0x20
00004D9A  D65F                     add.w      D3, [A7]+
00004D9C  E94C                     lsl        D4.w, 4
00004D9E  E94B                     lsl        D3.w, 4
00004DA0  206D F234                movea.l    A0, [A5 - 0xDCC]
00004DA4  3028 000E                move.w     D0, [A0 + 0xE]
00004DA8  9044                     sub.w      D0, D4
00004DAA  3D40 FFFE                move.w     [A6 - 0x2], D0
00004DAE  4A40                     tst.w      D0
00004DB0  6C0A                     bge        +0xC /* 00004DBC */
00004DB2  70FF                     moveq.l    D0, 0xFFFFFFFF
00004DB4  C1EE FFFE                muls.w     D0, [A6 - 0x2]
00004DB8  3D40 FFFE                move.w     [A6 - 0x2], D0
label00004DBC:
00004DBC  206D F234                movea.l    A0, [A5 - 0xDCC]
00004DC0  3028 0010                move.w     D0, [A0 + 0x10]
00004DC4  9043                     sub.w      D0, D3
00004DC6  3D40 FFFC                move.w     [A6 - 0x4], D0
00004DCA  4A40                     tst.w      D0
00004DCC  6C0A                     bge        +0xC /* 00004DD8 */
00004DCE  70FF                     moveq.l    D0, 0xFFFFFFFF
00004DD0  C1EE FFFC                muls.w     D0, [A6 - 0x4]
00004DD4  3D40 FFFC                move.w     [A6 - 0x4], D0
label00004DD8:
00004DD8  0C6E 0400 FFFE           cmpi.w     [A6 - 0x2], 0x400
00004DDE  6D86                     blt        -0x78 /* 00004D66 */
00004DE0  0C6E 0400 FFFC           cmpi.w     [A6 - 0x4], 0x400
00004DE6  6D00 FF7E                blt        -0x80 /* 00004D66 */
00004DEA  2F3C 6772 6176           move.l     -[A7], 0x67726176 /* 'grav' */
00004DF0  3F2E FFF6                move.w     -[A7], [A6 - 0xA]
00004DF4  3F07                     move.w     -[A7], D7
00004DF6  3F03                     move.w     -[A7], D3
00004DF8  3F04                     move.w     -[A7], D4
00004DFA  3F3C 0002                move.w     -[A7], 0x2
00004DFE  2F2D F8B0                move.l     -[A7], [A5 - 0x750]
00004E02  4EBA F904                jsr        [PC - 0x6FC /* 00004708 */]
00004E06  3B40 F3CA                move.w     [A5 - 0xC36], D0
00004E0A  42AD F81C                clr.l      [A5 - 0x7E4]
00004E0E  4FEF 0012                lea.l      A7, [A7 + 0x12]
00004E12  5245                     addq.w     D5, 1
label00004E14:
00004E14  BC45                     cmp.w      D6, D5
00004E16  6E00 FF3C                bgt        -0xC2 /* 00004D54 */
00004E1A  4227                     clr.b      -[A7]
00004E1C  2F2D F924                move.l     -[A7], [A5 - 0x6DC]
00004E20  3F3C 0004                move.w     -[A7], 0x4
00004E24  42A7                     clr.l      -[A7]
00004E26  4EAD 00BA                jsr        [A5 + 0xBA /* export_19, CODE:3 @ 00001E74 */]
00004E2A  302D F3CA                move.w     D0, [A5 - 0xC36]
00004E2E  4CEE 00F8 FFE2           movem.l    D3,D4,D5,D6,D7, [A6 - 0x1E]
00004E34  4E5E                     unlink     A6
00004E36  4E75                     rts
fn00004E38:
00004E38  4E56 FFFC                link       A6, -0x0004
00004E3C  48E7 1F00                movem.l    -[A7], D3,D4,D5,D6,D7
00004E40  4267                     clr.w      -[A7]
00004E42  3F3C 0032                move.w     -[A7], 0x32 /* '2' */
00004E46  4EAD 02AA                jsr        [A5 + 0x2AA /* export_81, CODE:2 @ 00000154 */]
00004E4A  4A5F                     tst.w      [A7]+
00004E4C  6612                     bne        +0x14 /* 00004E60 */
00004E4E  4267                     clr.w      -[A7]
00004E50  3F3C 0004                move.w     -[A7], 0x4
00004E54  4EAD 02AA                jsr        [A5 + 0x2AA /* export_81, CODE:2 @ 00000154 */]
00004E58  3E1F                     move.w     D7, [A7]+
00004E5A  DE47                     add.w      D7, D7
00004E5C  5847                     addq.w     D7, 4
00004E5E  6002                     bra        +0x4 /* 00004E62 */
label00004E60:
00004E60  7E01                     moveq.l    D7, 0x01
label00004E62:
00004E62  426E FFFE                clr.w      [A6 - 0x2]
00004E66  6000 00BA                bra        +0xBC /* 00004F22 */
label00004E6A:
00004E6A  3A2D F7CE                move.w     D5, [A5 - 0x832]
00004E6E  48C5                     ext.l      D5
00004E70  8BFC 0006                divs.w     D5, 0x6
00004E74  5845                     addq.w     D5, 4
00004E76  E94D                     lsl        D5.w, 4
00004E78  7600                     moveq.l    D3, 0x00
00004E7A  3803                     move.w     D4, D3
00004E7C  2C05                     move.l     D6, D5
00004E7E  48C6                     ext.l      D6
00004E80  8DFC 0002                divs.w     D6, 0x2
00004E84  600C                     bra        +0xE /* 00004E92 */
label00004E86:
00004E86  4267                     clr.w      -[A7]
00004E88  3F05                     move.w     -[A7], D5
00004E8A  4EAD 02AA                jsr        [A5 + 0x2AA /* export_81, CODE:2 @ 00000154 */]
00004E8E  381F                     move.w     D4, [A7]+
00004E90  9846                     sub.w      D4, D6
label00004E92:
00004E92  4A44                     tst.w      D4
00004E94  67F0                     beq        -0xE /* 00004E86 */
00004E96  4A44                     tst.w      D4
00004E98  600C                     bra        +0xE /* 00004EA6 */
label00004E9A:
00004E9A  4267                     clr.w      -[A7]
00004E9C  3F05                     move.w     -[A7], D5
00004E9E  4EAD 02AA                jsr        [A5 + 0x2AA /* export_81, CODE:2 @ 00000154 */]
00004EA2  361F                     move.w     D3, [A7]+
00004EA4  9646                     sub.w      D3, D6
label00004EA6:
00004EA6  4A43                     tst.w      D3
00004EA8  67F0                     beq        -0xE /* 00004E9A */
00004EAA  4A43                     tst.w      D3
00004EAC  4267                     clr.w      -[A7]
00004EAE  302D F3D2                move.w     D0, [A5 - 0xC2E]
00004EB2  906D F3CE                sub.w      D0, [A5 - 0xC32]
00004EB6  0640 FFE0                addi.w     D0, 0xFFE0
00004EBA  3F00                     move.w     -[A7], D0
00004EBC  4EAD 02AA                jsr        [A5 + 0x2AA /* export_81, CODE:2 @ 00000154 */]
00004EC0  7A20                     moveq.l    D5, 0x20
00004EC2  DA5F                     add.w      D5, [A7]+
00004EC4  7C00                     moveq.l    D6, 0x00
00004EC6  E94D                     lsl        D5.w, 4
00004EC8  E94E                     lsl        D6.w, 4
00004ECA  3D7C 0002 FFFC           move.w     [A6 - 0x4], 0x2
00004ED0  4A44                     tst.w      D4
00004ED2  6F24                     ble        +0x26 /* 00004EF8 */
00004ED4  2F3C 686F 6D65           move.l     -[A7], 0x686F6D65 /* 'home' */
00004EDA  3F03                     move.w     -[A7], D3
00004EDC  3F04                     move.w     -[A7], D4
00004EDE  3F06                     move.w     -[A7], D6
00004EE0  3F05                     move.w     -[A7], D5
00004EE2  3F2E FFFC                move.w     -[A7], [A6 - 0x4]
00004EE6  2F2D F8B8                move.l     -[A7], [A5 - 0x748]
00004EEA  4EBA F81C                jsr        [PC - 0x7E4 /* 00004708 */]
00004EEE  3B40 F3CA                move.w     [A5 - 0xC36], D0
00004EF2  4FEF 0012                lea.l      A7, [A7 + 0x12]
00004EF6  6022                     bra        +0x24 /* 00004F1A */
label00004EF8:
00004EF8  2F3C 686F 6D65           move.l     -[A7], 0x686F6D65 /* 'home' */
00004EFE  3F03                     move.w     -[A7], D3
00004F00  3F04                     move.w     -[A7], D4
00004F02  3F06                     move.w     -[A7], D6
00004F04  3F05                     move.w     -[A7], D5
00004F06  3F2E FFFC                move.w     -[A7], [A6 - 0x4]
00004F0A  2F2D F8B4                move.l     -[A7], [A5 - 0x74C]
00004F0E  4EBA F7F8                jsr        [PC - 0x808 /* 00004708 */]
00004F12  3B40 F3CA                move.w     [A5 - 0xC36], D0
00004F16  4FEF 0012                lea.l      A7, [A7 + 0x12]
label00004F1A:
00004F1A  42AD F818                clr.l      [A5 - 0x7E8]
00004F1E  526E FFFE                addq.w     [A6 - 0x2], 1
label00004F22:
00004F22  BE6E FFFE                cmp.w      D7, [A6 - 0x2]
00004F26  6E00 FF42                bgt        -0xBC /* 00004E6A */
00004F2A  4227                     clr.b      -[A7]
00004F2C  2F2D F928                move.l     -[A7], [A5 - 0x6D8]
00004F30  3F3C 0004                move.w     -[A7], 0x4
00004F34  42A7                     clr.l      -[A7]
00004F36  4EAD 00BA                jsr        [A5 + 0xBA /* export_19, CODE:3 @ 00001E74 */]
00004F3A  302D F3CA                move.w     D0, [A5 - 0xC36]
00004F3E  4CEE 00F8 FFE8           movem.l    D3,D4,D5,D6,D7, [A6 - 0x18]
00004F44  4E5E                     unlink     A6
00004F46  4E75                     rts
fn00004F48:
00004F48  4E56 0000                link       A6, 0
00004F4C  48E7 0F00                movem.l    -[A7], D4,D5,D6,D7
00004F50  3E2D F7CE                move.w     D7, [A5 - 0x832]
00004F54  48C7                     ext.l      D7
00004F56  8FFC 0006                divs.w     D7, 0x6
00004F5A  5847                     addq.w     D7, 4
00004F5C  E94F                     lsl        D7.w, 4
00004F5E  7A00                     moveq.l    D5, 0x00
00004F60  3C05                     move.w     D6, D5
00004F62  2807                     move.l     D4, D7
00004F64  48C4                     ext.l      D4
00004F66  89FC 0002                divs.w     D4, 0x2
00004F6A  600C                     bra        +0xE /* 00004F78 */
label00004F6C:
00004F6C  4267                     clr.w      -[A7]
00004F6E  3F07                     move.w     -[A7], D7
00004F70  4EAD 02AA                jsr        [A5 + 0x2AA /* export_81, CODE:2 @ 00000154 */]
00004F74  3C1F                     move.w     D6, [A7]+
00004F76  9C44                     sub.w      D6, D4
label00004F78:
00004F78  4A46                     tst.w      D6
00004F7A  67F0                     beq        -0xE /* 00004F6C */
00004F7C  4A46                     tst.w      D6
00004F7E  600C                     bra        +0xE /* 00004F8C */
label00004F80:
00004F80  4267                     clr.w      -[A7]
00004F82  3F07                     move.w     -[A7], D7
00004F84  4EAD 02AA                jsr        [A5 + 0x2AA /* export_81, CODE:2 @ 00000154 */]
00004F88  3A1F                     move.w     D5, [A7]+
00004F8A  9A44                     sub.w      D5, D4
label00004F8C:
00004F8C  4A45                     tst.w      D5
00004F8E  67F0                     beq        -0xE /* 00004F80 */
00004F90  4A45                     tst.w      D5
00004F92  4267                     clr.w      -[A7]
00004F94  3F3C 0003                move.w     -[A7], 0x3
00004F98  4EAD 02AA                jsr        [A5 + 0x2AA /* export_81, CODE:2 @ 00000154 */]
00004F9C  7E02                     moveq.l    D7, 0x02
00004F9E  DE5F                     add.w      D7, [A7]+
00004FA0  4A46                     tst.w      D6
00004FA2  6F26                     ble        +0x28 /* 00004FCA */
00004FA4  2F3C 6261 7374           move.l     -[A7], 0x62617374 /* 'bast' */
00004FAA  3F05                     move.w     -[A7], D5
00004FAC  3F06                     move.w     -[A7], D6
00004FAE  3F2E 000A                move.w     -[A7], [A6 + 0xA]
00004FB2  3F2E 0008                move.w     -[A7], [A6 + 0x8]
00004FB6  3F07                     move.w     -[A7], D7
00004FB8  2F2D F858                move.l     -[A7], [A5 - 0x7A8]
00004FBC  4EBA F74A                jsr        [PC - 0x8B6 /* 00004708 */]
00004FC0  3B40 F3CA                move.w     [A5 - 0xC36], D0
00004FC4  4FEF 0012                lea.l      A7, [A7 + 0x12]
00004FC8  6024                     bra        +0x26 /* 00004FEE */
label00004FCA:
00004FCA  2F3C 6261 7374           move.l     -[A7], 0x62617374 /* 'bast' */
00004FD0  3F05                     move.w     -[A7], D5
00004FD2  3F06                     move.w     -[A7], D6
00004FD4  3F2E 000A                move.w     -[A7], [A6 + 0xA]
00004FD8  3F2E 0008                move.w     -[A7], [A6 + 0x8]
00004FDC  3F07                     move.w     -[A7], D7
00004FDE  2F2D F868                move.l     -[A7], [A5 - 0x798]
00004FE2  4EBA F724                jsr        [PC - 0x8DC /* 00004708 */]
00004FE6  3B40 F3CA                move.w     [A5 - 0xC36], D0
00004FEA  4FEF 0012                lea.l      A7, [A7 + 0x12]
label00004FEE:
00004FEE  526D F7DA                addq.w     [A5 - 0x826], 1
00004FF2  302D F3CA                move.w     D0, [A5 - 0xC36]
00004FF6  4CDF 00F0                movem.l    D4,D5,D6,D7, [A7]+
00004FFA  4E5E                     unlink     A6
00004FFC  4E75                     rts
fn00004FFE:
00004FFE  4E56 0000                link       A6, 0
00005002  48E7 0F00                movem.l    -[A7], D4,D5,D6,D7
00005006  3E2D F7CE                move.w     D7, [A5 - 0x832]
0000500A  48C7                     ext.l      D7
0000500C  8FFC 0006                divs.w     D7, 0x6
00005010  5847                     addq.w     D7, 4
00005012  E94F                     lsl        D7.w, 4
00005014  7A00                     moveq.l    D5, 0x00
00005016  3C05                     move.w     D6, D5
00005018  2807                     move.l     D4, D7
0000501A  48C4                     ext.l      D4
0000501C  89FC 0002                divs.w     D4, 0x2
00005020  600C                     bra        +0xE /* 0000502E */
label00005022:
00005022  4267                     clr.w      -[A7]
00005024  3F07                     move.w     -[A7], D7
00005026  4EAD 02AA                jsr        [A5 + 0x2AA /* export_81, CODE:2 @ 00000154 */]
0000502A  3C1F                     move.w     D6, [A7]+
0000502C  9C44                     sub.w      D6, D4
label0000502E:
0000502E  4A46                     tst.w      D6
00005030  67F0                     beq        -0xE /* 00005022 */
00005032  4A46                     tst.w      D6
00005034  6F06                     ble        +0x8 /* 0000503C */
00005036  0646 0010                addi.w     D6, 0x10
0000503A  6012                     bra        +0x14 /* 0000504E */
label0000503C:
0000503C  0646 FFF0                addi.w     D6, 0xFFF0
00005040  600C                     bra        +0xE /* 0000504E */
label00005042:
00005042  4267                     clr.w      -[A7]
00005044  3F07                     move.w     -[A7], D7
00005046  4EAD 02AA                jsr        [A5 + 0x2AA /* export_81, CODE:2 @ 00000154 */]
0000504A  3A1F                     move.w     D5, [A7]+
0000504C  9A44                     sub.w      D5, D4
label0000504E:
0000504E  4A45                     tst.w      D5
00005050  67F0                     beq        -0xE /* 00005042 */
00005052  4A45                     tst.w      D5
00005054  6F06                     ble        +0x8 /* 0000505C */
00005056  0645 0010                addi.w     D5, 0x10
0000505A  6004                     bra        +0x6 /* 00005060 */
label0000505C:
0000505C  0645 FFF0                addi.w     D5, 0xFFF0
label00005060:
00005060  4267                     clr.w      -[A7]
00005062  3F3C 0003                move.w     -[A7], 0x3
00005066  4EAD 02AA                jsr        [A5 + 0x2AA /* export_81, CODE:2 @ 00000154 */]
0000506A  7E02                     moveq.l    D7, 0x02
0000506C  DE5F                     add.w      D7, [A7]+
0000506E  4A46                     tst.w      D6
00005070  6F26                     ble        +0x28 /* 00005098 */
00005072  2F3C 6D61 7374           move.l     -[A7], 0x6D617374 /* 'mast' */
00005078  3F05                     move.w     -[A7], D5
0000507A  3F06                     move.w     -[A7], D6
0000507C  3F2E 000A                move.w     -[A7], [A6 + 0xA]
00005080  3F2E 0008                move.w     -[A7], [A6 + 0x8]
00005084  3F07                     move.w     -[A7], D7
00005086  2F2D F85C                move.l     -[A7], [A5 - 0x7A4]
0000508A  4EBA F67C                jsr        [PC - 0x984 /* 00004708 */]
0000508E  3B40 F3CA                move.w     [A5 - 0xC36], D0
00005092  4FEF 0012                lea.l      A7, [A7 + 0x12]
00005096  6024                     bra        +0x26 /* 000050BC */
label00005098:
00005098  2F3C 6D61 7374           move.l     -[A7], 0x6D617374 /* 'mast' */
0000509E  3F05                     move.w     -[A7], D5
000050A0  3F06                     move.w     -[A7], D6
000050A2  3F2E 000A                move.w     -[A7], [A6 + 0xA]
000050A6  3F2E 0008                move.w     -[A7], [A6 + 0x8]
000050AA  3F07                     move.w     -[A7], D7
000050AC  2F2D F86C                move.l     -[A7], [A5 - 0x794]
000050B0  4EBA F656                jsr        [PC - 0x9AA /* 00004708 */]
000050B4  3B40 F3CA                move.w     [A5 - 0xC36], D0
000050B8  4FEF 0012                lea.l      A7, [A7 + 0x12]
label000050BC:
000050BC  526D F7DA                addq.w     [A5 - 0x826], 1
000050C0  302D F3CA                move.w     D0, [A5 - 0xC36]
000050C4  4CDF 00F0                movem.l    D4,D5,D6,D7, [A7]+
000050C8  4E5E                     unlink     A6
000050CA  4E75                     rts
fn000050CC:
000050CC  4E56 0000                link       A6, 0
000050D0  48E7 0F00                movem.l    -[A7], D4,D5,D6,D7
000050D4  3E2D F7CE                move.w     D7, [A5 - 0x832]
000050D8  48C7                     ext.l      D7
000050DA  8FFC 0006                divs.w     D7, 0x6
000050DE  5847                     addq.w     D7, 4
000050E0  E94F                     lsl        D7.w, 4
000050E2  7A00                     moveq.l    D5, 0x00
000050E4  3C05                     move.w     D6, D5
000050E6  2807                     move.l     D4, D7
000050E8  48C4                     ext.l      D4
000050EA  89FC 0002                divs.w     D4, 0x2
000050EE  600C                     bra        +0xE /* 000050FC */
label000050F0:
000050F0  4267                     clr.w      -[A7]
000050F2  3F07                     move.w     -[A7], D7
000050F4  4EAD 02AA                jsr        [A5 + 0x2AA /* export_81, CODE:2 @ 00000154 */]
000050F8  3C1F                     move.w     D6, [A7]+
000050FA  9C44                     sub.w      D6, D4
label000050FC:
000050FC  4A46                     tst.w      D6
000050FE  67F0                     beq        -0xE /* 000050F0 */
00005100  4A46                     tst.w      D6
00005102  6F06                     ble        +0x8 /* 0000510A */
00005104  0646 0020                addi.w     D6, 0x20 /* ' ' */
00005108  6012                     bra        +0x14 /* 0000511C */
label0000510A:
0000510A  0646 FFE0                addi.w     D6, 0xFFE0
0000510E  600C                     bra        +0xE /* 0000511C */
label00005110:
00005110  4267                     clr.w      -[A7]
00005112  3F07                     move.w     -[A7], D7
00005114  4EAD 02AA                jsr        [A5 + 0x2AA /* export_81, CODE:2 @ 00000154 */]
00005118  3A1F                     move.w     D5, [A7]+
0000511A  9A44                     sub.w      D5, D4
label0000511C:
0000511C  4A45                     tst.w      D5
0000511E  67F0                     beq        -0xE /* 00005110 */
00005120  4A45                     tst.w      D5
00005122  6F06                     ble        +0x8 /* 0000512A */
00005124  0645 0020                addi.w     D5, 0x20 /* ' ' */
00005128  6004                     bra        +0x6 /* 0000512E */
label0000512A:
0000512A  0645 FFE0                addi.w     D5, 0xFFE0
label0000512E:
0000512E  4267                     clr.w      -[A7]
00005130  3F3C 0003                move.w     -[A7], 0x3
00005134  4EAD 02AA                jsr        [A5 + 0x2AA /* export_81, CODE:2 @ 00000154 */]
00005138  7E01                     moveq.l    D7, 0x01
0000513A  DE5F                     add.w      D7, [A7]+
0000513C  4A46                     tst.w      D6
0000513E  6F26                     ble        +0x28 /* 00005166 */
00005140  2F3C 7361 7374           move.l     -[A7], 0x73617374 /* 'sast' */
00005146  3F05                     move.w     -[A7], D5
00005148  3F06                     move.w     -[A7], D6
0000514A  3F2E 000A                move.w     -[A7], [A6 + 0xA]
0000514E  3F2E 0008                move.w     -[A7], [A6 + 0x8]
00005152  3F07                     move.w     -[A7], D7
00005154  2F2D F860                move.l     -[A7], [A5 - 0x7A0]
00005158  4EBA F5AE                jsr        [PC - 0xA52 /* 00004708 */]
0000515C  3B40 F3CA                move.w     [A5 - 0xC36], D0
00005160  4FEF 0012                lea.l      A7, [A7 + 0x12]
00005164  6024                     bra        +0x26 /* 0000518A */
label00005166:
00005166  2F3C 7361 7374           move.l     -[A7], 0x73617374 /* 'sast' */
0000516C  3F05                     move.w     -[A7], D5
0000516E  3F06                     move.w     -[A7], D6
00005170  3F2E 000A                move.w     -[A7], [A6 + 0xA]
00005174  3F2E 0008                move.w     -[A7], [A6 + 0x8]
00005178  3F07                     move.w     -[A7], D7
0000517A  2F2D F870                move.l     -[A7], [A5 - 0x790]
0000517E  4EBA F588                jsr        [PC - 0xA78 /* 00004708 */]
00005182  3B40 F3CA                move.w     [A5 - 0xC36], D0
00005186  4FEF 0012                lea.l      A7, [A7 + 0x12]
label0000518A:
0000518A  526D F7DA                addq.w     [A5 - 0x826], 1
0000518E  302D F3CA                move.w     D0, [A5 - 0xC36]
00005192  4CDF 00F0                movem.l    D4,D5,D6,D7, [A7]+
00005196  4E5E                     unlink     A6
00005198  4E75                     rts
fn0000519A:
0000519A  4E56 0000                link       A6, 0
0000519E  48E7 0F00                movem.l    -[A7], D4,D5,D6,D7
000051A2  3E2D F7CE                move.w     D7, [A5 - 0x832]
000051A6  48C7                     ext.l      D7
000051A8  8FFC 0006                divs.w     D7, 0x6
000051AC  5847                     addq.w     D7, 4
000051AE  E94F                     lsl        D7.w, 4
000051B0  7A00                     moveq.l    D5, 0x00
000051B2  3C05                     move.w     D6, D5
000051B4  2807                     move.l     D4, D7
000051B6  48C4                     ext.l      D4
000051B8  89FC 0002                divs.w     D4, 0x2
000051BC  600C                     bra        +0xE /* 000051CA */
label000051BE:
000051BE  4267                     clr.w      -[A7]
000051C0  3F07                     move.w     -[A7], D7
000051C2  4EAD 02AA                jsr        [A5 + 0x2AA /* export_81, CODE:2 @ 00000154 */]
000051C6  3C1F                     move.w     D6, [A7]+
000051C8  9C44                     sub.w      D6, D4
label000051CA:
000051CA  4A46                     tst.w      D6
000051CC  67F0                     beq        -0xE /* 000051BE */
000051CE  4A46                     tst.w      D6
000051D0  6F06                     ble        +0x8 /* 000051D8 */
000051D2  0646 0010                addi.w     D6, 0x10
000051D6  6012                     bra        +0x14 /* 000051EA */
label000051D8:
000051D8  0646 FFF0                addi.w     D6, 0xFFF0
000051DC  600C                     bra        +0xE /* 000051EA */
label000051DE:
000051DE  4267                     clr.w      -[A7]
000051E0  3F07                     move.w     -[A7], D7
000051E2  4EAD 02AA                jsr        [A5 + 0x2AA /* export_81, CODE:2 @ 00000154 */]
000051E6  3A1F                     move.w     D5, [A7]+
000051E8  9A44                     sub.w      D5, D4
label000051EA:
000051EA  4A45                     tst.w      D5
000051EC  67F0                     beq        -0xE /* 000051DE */
000051EE  4A45                     tst.w      D5
000051F0  6F06                     ble        +0x8 /* 000051F8 */
000051F2  0645 0020                addi.w     D5, 0x20 /* ' ' */
000051F6  6004                     bra        +0x6 /* 000051FC */
label000051F8:
000051F8  0645 FFE0                addi.w     D5, 0xFFE0
label000051FC:
000051FC  7E03                     moveq.l    D7, 0x03
000051FE  4A46                     tst.w      D6
00005200  6F26                     ble        +0x28 /* 00005228 */
00005202  2F3C 7374 6173           move.l     -[A7], 0x73746173 /* 'stas' */
00005208  3F05                     move.w     -[A7], D5
0000520A  3F06                     move.w     -[A7], D6
0000520C  3F2E 000A                move.w     -[A7], [A6 + 0xA]
00005210  3F2E 0008                move.w     -[A7], [A6 + 0x8]
00005214  3F07                     move.w     -[A7], D7
00005216  2F2D F8A0                move.l     -[A7], [A5 - 0x760]
0000521A  4EBA F4EC                jsr        [PC - 0xB14 /* 00004708 */]
0000521E  3B40 F3CA                move.w     [A5 - 0xC36], D0
00005222  4FEF 0012                lea.l      A7, [A7 + 0x12]
00005226  6024                     bra        +0x26 /* 0000524C */
label00005228:
00005228  2F3C 7374 6173           move.l     -[A7], 0x73746173 /* 'stas' */
0000522E  3F05                     move.w     -[A7], D5
00005230  3F06                     move.w     -[A7], D6
00005232  3F2E 000A                move.w     -[A7], [A6 + 0xA]
00005236  3F2E 0008                move.w     -[A7], [A6 + 0x8]
0000523A  3F07                     move.w     -[A7], D7
0000523C  2F2D F89C                move.l     -[A7], [A5 - 0x764]
00005240  4EBA F4C6                jsr        [PC - 0xB3A /* 00004708 */]
00005244  3B40 F3CA                move.w     [A5 - 0xC36], D0
00005248  4FEF 0012                lea.l      A7, [A7 + 0x12]
label0000524C:
0000524C  302D F3CA                move.w     D0, [A5 - 0xC36]
00005250  4CDF 00F0                movem.l    D4,D5,D6,D7, [A7]+
00005254  4E5E                     unlink     A6
00005256  4E75                     rts
fn00005258:
00005258  4E56 FFFC                link       A6, -0x0004
0000525C  48E7 1F08                movem.l    -[A7], D3,D4,D5,D6,D7,A4
00005260  49ED F234                lea.l      A4, [A5 - 0xDCC]
00005264  302E 0008                move.w     D0, [A6 + 0x8]
00005268  48C0                     ext.l      D0
0000526A  E588                     lsl        D0, 2
0000526C  D08C                     add.l      D0, A4
0000526E  2840                     movea.l    A4, D0
00005270  2054                     movea.l    A0, [A4]
00005272  217C 6578 706C 0002      move.l     [A0 + 0x2], 0x6578706C /* 'expl' */
0000527A  2054                     movea.l    A0, [A4]
0000527C  4268 001A                clr.w      [A0 + 0x1A]
00005280  2054                     movea.l    A0, [A4]
00005282  4268 001E                clr.w      [A0 + 0x1E]
00005286  2054                     movea.l    A0, [A4]
00005288  4268 000A                clr.w      [A0 + 0xA]
0000528C  2054                     movea.l    A0, [A4]
0000528E  4268 000C                clr.w      [A0 + 0xC]
00005292  2054                     movea.l    A0, [A4]
00005294  2028 0020                move.l     D0, [A0 + 0x20]
00005298  B0AD F878                cmp.l      D0, [A5 - 0x788]
0000529C  670E                     beq        +0x10 /* 000052AC */
0000529E  2054                     movea.l    A0, [A4]
000052A0  2028 0020                move.l     D0, [A0 + 0x20]
000052A4  B0AD F864                cmp.l      D0, [A5 - 0x79C]
000052A8  6600 0156                bne        +0x158 /* 00005400 */
label000052AC:
000052AC  2054                     movea.l    A0, [A4]
000052AE  216D F874 0020           move.l     [A0 + 0x20], [A5 - 0x78C]
000052B4  206D F874                movea.l    A0, [A5 - 0x78C]
000052B8  2254                     movea.l    A1, [A4]
000052BA  3350 0018                move.w     [A1 + 0x18], [A0]
000052BE  2054                     movea.l    A0, [A4]
000052C0  317C 0002 001C           move.w     [A0 + 0x1C], 0x2
000052C6  7E00                     moveq.l    D7, 0x00
000052C8  6000 008E                bra        +0x90 /* 00005358 */
label000052CC:
000052CC  2054                     movea.l    A0, [A4]
000052CE  3D68 000E FFFC           move.w     [A6 - 0x4], [A0 + 0xE]
000052D4  2054                     movea.l    A0, [A4]
000052D6  3D68 0010 FFFE           move.w     [A6 - 0x2], [A0 + 0x10]
000052DC  7A10                     moveq.l    D5, 0x10
000052DE  7600                     moveq.l    D3, 0x00
000052E0  3803                     move.w     D4, D3
000052E2  2C05                     move.l     D6, D5
000052E4  48C6                     ext.l      D6
000052E6  8DFC 0002                divs.w     D6, 0x2
000052EA  600C                     bra        +0xE /* 000052F8 */
label000052EC:
000052EC  4267                     clr.w      -[A7]
000052EE  3F06                     move.w     -[A7], D6
000052F0  4EAD 02AA                jsr        [A5 + 0x2AA /* export_81, CODE:2 @ 00000154 */]
000052F4  7810                     moveq.l    D4, 0x10
000052F6  D85F                     add.w      D4, [A7]+
label000052F8:
000052F8  4A44                     tst.w      D4
000052FA  67F0                     beq        -0xE /* 000052EC */
000052FC  600C                     bra        +0xE /* 0000530A */
label000052FE:
000052FE  4267                     clr.w      -[A7]
00005300  3F05                     move.w     -[A7], D5
00005302  4EAD 02AA                jsr        [A5 + 0x2AA /* export_81, CODE:2 @ 00000154 */]
00005306  361F                     move.w     D3, [A7]+
00005308  9646                     sub.w      D3, D6
label0000530A:
0000530A  4A43                     tst.w      D3
0000530C  67F0                     beq        -0xE /* 000052FE */
0000530E  4A43                     tst.w      D3
00005310  6F06                     ble        +0x8 /* 00005318 */
00005312  0643 0010                addi.w     D3, 0x10
00005316  6004                     bra        +0x6 /* 0000531C */
label00005318:
00005318  0643 FFF0                addi.w     D3, 0xFFF0
label0000531C:
0000531C  2F3C 6578 706C           move.l     -[A7], 0x6578706C /* 'expl' */
00005322  3F03                     move.w     -[A7], D3
00005324  3F04                     move.w     -[A7], D4
00005326  3F2E FFFE                move.w     -[A7], [A6 - 0x2]
0000532A  3F2E FFFC                move.w     -[A7], [A6 - 0x4]
0000532E  3F3C 0002                move.w     -[A7], 0x2
00005332  2F2D F8CC                move.l     -[A7], [A5 - 0x734]
00005336  4EBA F3D0                jsr        [PC - 0xC30 /* 00004708 */]
0000533A  3B40 F3CA                move.w     [A5 - 0xC36], D0
0000533E  322D F7C6                move.w     D1, [A5 - 0x83A]
00005342  204D                     movea.l    A0, A5
00005344  48C1                     ext.l      D1
00005346  E589                     lsl        D1, 2
00005348  D1C1                     add.l      A0, D1
0000534A  2068 F230                movea.l    A0, [A0 - 0xDD0]
0000534E  4268 001A                clr.w      [A0 + 0x1A]
00005352  4FEF 0012                lea.l      A7, [A7 + 0x12]
00005356  5247                     addq.w     D7, 1
label00005358:
00005358  0C47 0001                cmpi.w     D7, 0x1
0000535C  6D00 FF6E                blt        -0x90 /* 000052CC */
00005360  7E00                     moveq.l    D7, 0x00
00005362  6000 0092                bra        +0x94 /* 000053F6 */
label00005366:
00005366  2054                     movea.l    A0, [A4]
00005368  3D68 000E FFFC           move.w     [A6 - 0x4], [A0 + 0xE]
0000536E  2054                     movea.l    A0, [A4]
00005370  3D68 0010 FFFE           move.w     [A6 - 0x2], [A0 + 0x10]
00005376  7A10                     moveq.l    D5, 0x10
00005378  7600                     moveq.l    D3, 0x00
0000537A  3803                     move.w     D4, D3
0000537C  2C05                     move.l     D6, D5
0000537E  48C6                     ext.l      D6
00005380  8DFC 0002                divs.w     D6, 0x2
00005384  600C                     bra        +0xE /* 00005392 */
label00005386:
00005386  4267                     clr.w      -[A7]
00005388  3F06                     move.w     -[A7], D6
0000538A  4EAD 02AA                jsr        [A5 + 0x2AA /* export_81, CODE:2 @ 00000154 */]
0000538E  7810                     moveq.l    D4, 0x10
00005390  D85F                     add.w      D4, [A7]+
label00005392:
00005392  4A44                     tst.w      D4
00005394  67F0                     beq        -0xE /* 00005386 */
00005396  C9FC FFFF                muls.w     D4, 0xFFFF
0000539A  600C                     bra        +0xE /* 000053A8 */
label0000539C:
0000539C  4267                     clr.w      -[A7]
0000539E  3F05                     move.w     -[A7], D5
000053A0  4EAD 02AA                jsr        [A5 + 0x2AA /* export_81, CODE:2 @ 00000154 */]
000053A4  361F                     move.w     D3, [A7]+
000053A6  9646                     sub.w      D3, D6
label000053A8:
000053A8  4A43                     tst.w      D3
000053AA  67F0                     beq        -0xE /* 0000539C */
000053AC  4A43                     tst.w      D3
000053AE  6F06                     ble        +0x8 /* 000053B6 */
000053B0  0643 0010                addi.w     D3, 0x10
000053B4  6004                     bra        +0x6 /* 000053BA */
label000053B6:
000053B6  0643 FFF0                addi.w     D3, 0xFFF0
label000053BA:
000053BA  2F3C 6578 706C           move.l     -[A7], 0x6578706C /* 'expl' */
000053C0  3F03                     move.w     -[A7], D3
000053C2  3F04                     move.w     -[A7], D4
000053C4  3F2E FFFE                move.w     -[A7], [A6 - 0x2]
000053C8  3F2E FFFC                move.w     -[A7], [A6 - 0x4]
000053CC  3F3C 0002                move.w     -[A7], 0x2
000053D0  2F2D F8D0                move.l     -[A7], [A5 - 0x730]
000053D4  4EBA F332                jsr        [PC - 0xCCE /* 00004708 */]
000053D8  3B40 F3CA                move.w     [A5 - 0xC36], D0
000053DC  322D F7C6                move.w     D1, [A5 - 0x83A]
000053E0  204D                     movea.l    A0, A5
000053E2  48C1                     ext.l      D1
000053E4  E589                     lsl        D1, 2
000053E6  D1C1                     add.l      A0, D1
000053E8  2068 F230                movea.l    A0, [A0 - 0xDD0]
000053EC  4268 001A                clr.w      [A0 + 0x1A]
000053F0  4FEF 0012                lea.l      A7, [A7 + 0x12]
000053F4  5247                     addq.w     D7, 1
label000053F6:
000053F6  0C47 0001                cmpi.w     D7, 0x1
000053FA  6D00 FF6A                blt        -0x94 /* 00005366 */
000053FE  601A                     bra        +0x1C /* 0000541A */
label00005400:
00005400  2054                     movea.l    A0, [A4]
00005402  317C 0002 001C           move.w     [A0 + 0x1C], 0x2
00005408  2054                     movea.l    A0, [A4]
0000540A  216D F87C 0020           move.l     [A0 + 0x20], [A5 - 0x784]
00005410  206D F87C                movea.l    A0, [A5 - 0x784]
00005414  2254                     movea.l    A1, [A4]
00005416  3350 0018                move.w     [A1 + 0x18], [A0]
label0000541A:
0000541A  4CDF 10F8                movem.l    D3,D4,D5,D6,D7,A4, [A7]+
0000541E  4E5E                     unlink     A6
00005420  4E75                     rts
