# near model CODE resource
# jump table entries: 80-119 (40 of them)
export_30:
00000000  4A78 028E                tst.w      [0x0000028E /* ROM85 */]
00000004  6B22                     bmi        +0x24 /* 00000028 */
00000006  303C 0090                move.w     D0, 0x90
0000000A  A346                     syscall    GetOSTrapAddress, flags=3
0000000C  2248                     movea.l    A1, A0
0000000E  303C 009F                move.w     D0, 0x9F
00000012  A746                     syscall    GetToolBoxTrapAddress/GetToolTrapAddress, flags=7
00000014  B3C8                     cmpa.l     A1, A0
00000016  6710                     beq        +0x12 /* 00000028 */
00000018  225F                     movea.l    A1, [A7]+
0000001A  205F                     movea.l    A0, [A7]+
0000001C  301F                     move.w     D0, [A7]+
0000001E  2F09                     move.l     -[A7], A1
00000020  A090                     syscall    SysEnvirons
00000022  3F40 0004                move.w     [A7 + 0x4], D0
00000026  4E75                     rts
label00000028:
00000028  206F 0004                movea.l    A0, [A7 + 0x4]
0000002C  303C 0001                move.w     D0, 0x1
00000030  2248                     movea.l    A1, A0
00000032  6006                     bra        +0x8 /* 0000003A */
00000034  0313                     btst       [A3], D1
00000036  0B02                     btst       D2, D5
00000038  0100                     btst       D0, D0
label0000003A:
0000003A  303C 0010                move.w     D0, 0x10
0000003E  E240                     asr        D0.w, 1
00000040  5340                     subq.w     D0, 1
label00000042:
00000042  4258                     clr.w      [A0]+
00000044  51C8 FFFC                dbf        D0, -0x6 /* 00000042 */
00000048  32BC 0001                move.w     [A1], 0x1
0000004C  2078 02AE                movea.l    A0, [0x000002AE /* ROMBase */]
00000050  337C FFFE 0002           move.w     [A1 + 0x2], 0xFFFE
00000056  0C28 00FF 0009           cmpi.b     [A0 + 0x9], 0xFF
0000005C  6742                     beq        +0x44 /* 000000A0 */
0000005E  4A28 0008                tst.b      [A0 + 0x8]
00000062  6E20                     bgt        +0x22 /* 00000084 */
00000064  337C FFFF 0002           move.w     [A1 + 0x2], 0xFFFF
0000006A  4A78 028E                tst.w      [0x0000028E /* ROM85 */]
0000006E  6B30                     bmi        +0x32 /* 000000A0 */
00000070  337C 0001 0002           move.w     [A1 + 0x2], 0x1
00000076  4A78 0B22                tst.w      [0x00000B22 /* HWCfgFlags */]
0000007A  6A24                     bpl        +0x26 /* 000000A0 */
0000007C  337C 0002 0002           move.w     [A1 + 0x2], 0x2
00000082  601C                     bra        +0x1E /* 000000A0 */
label00000084:
00000084  4269 0002                clr.w      [A1 + 0x2]
00000088  0C28 0002 0008           cmpi.b     [A0 + 0x8], 0x2
0000008E  6E10                     bgt        +0x12 /* 000000A0 */
00000090  6708                     beq        +0xA /* 0000009A */
00000092  337C 0004 0002           move.w     [A1 + 0x2], 0x4
00000098  6006                     bra        +0x8 /* 000000A0 */
label0000009A:
0000009A  337C 0003 0002           move.w     [A1 + 0x2], 0x3
label000000A0:
000000A0  4269 0004                clr.w      [A1 + 0x4]
000000A4  0C38 0002 012F           cmpi.b     [0x0000012F /* CPUFlag */], 0x2
000000AA  6E0A                     bgt        +0xC /* 000000B6 */
000000AC  1038 012F                move.b     D0, [0x0000012F /* CPUFlag */]
000000B0  5240                     addq.w     D0, 1
000000B2  1340 0007                move.b     [A1 + 0x7], D0
label000000B6:
000000B6  4A78 028E                tst.w      [0x0000028E /* ROM85 */]
000000BA  6B0E                     bmi        +0x10 /* 000000CA */
000000BC  0838 0004 0B22           btst.b     [0x00000B22 /* HWCfgFlags */], 0x4
000000C2  6706                     beq        +0x8 /* 000000CA */
000000C4  137C 0001 0008           move.b     [A1 + 0x8], 0x1
label000000CA:
000000CA  0C78 3FFF 028E           cmpi.w     [0x0000028E /* ROM85 */], 0x3FFF
000000D0  6206                     bhi        +0x8 /* 000000D8 */
000000D2  137C 0001 0009           move.b     [A1 + 0x9], 0x1
label000000D8:
000000D8  1038 021E                move.b     D0, [0x0000021E /* KbdType */]
000000DC  41FA FF5B                lea.l      A0, [PC - 0xA5 /* 00000039, value 0x303C00 '0<\0', cstring "" */]
000000E0  323C 0004                move.w     D1, 0x4
label000000E4:
000000E4  B020                     cmp.b      D0, -[A0]
000000E6  57C9 FFFC                dbeq       D1, -0x6 /* 000000E4 */
000000EA  5241                     addq.w     D1, 1
000000EC  3341 000A                move.w     [A1 + 0xA], D1
000000F0  4A38 0291                tst.b      [0x00000291 /* PortBUse */]
000000F4  6B18                     bmi        +0x1A /* 0000010E */
000000F6  1238 01FB                move.b     D1, [0x000001FB /* SPConfig */]
000000FA  0201 000F                andi.b     D1, 0xF
000000FE  0C01 0001                cmpi.b     D1, 0x1
00000102  660A                     bne        +0xC /* 0000010E */
00000104  2078 02DC                movea.l    A0, [0x000002DC /* ABusDCE */]
00000108  1368 0007 000D           move.b     [A1 + 0xD], [A0 + 0x7]
label0000010E:
0000010E  3378 0210 000E           move.w     [A1 + 0xE], [0x00000210 /* BootDrive */]
00000114  4A78 03F6                tst.w      [0x000003F6 /* FSFCBLen */]
00000118  6D44                     blt        +0x46 /* 0000015E */
0000011A  4269 000E                clr.w      [A1 + 0xE]
0000011E  323C 003C                move.w     D1, 0x3C /* '<' */
label00000122:
00000122  4267                     clr.w      -[A7]
00000124  51C9 FFFC                dbf        D1, -0x6 /* 00000122 */
00000128  204F                     movea.l    A0, A7
0000012A  3178 0A58 0018           move.w     [A0 + 0x18], [0x00000A58 /* SysMap */]
00000130  7008                     moveq.l    D0, 0x08
00000132  A260                     syscall    FSDispatch/HFSDispatch, flags=2
00000134  6624                     bne        +0x26 /* 0000015A */
00000136  3168 0034 0016           move.w     [A0 + 0x16], [A0 + 0x34]
0000013C  A207                     syscall    GetVolInfo/PBHGetVInfo/HGetVInfo, flags=2
0000013E  661A                     bne        +0x1C /* 0000015A */
00000140  2168 005A 0030           move.l     [A0 + 0x30], [A0 + 0x5A]
00000146  217C 4552 494B 001C      move.l     [A0 + 0x1C], 0x4552494B /* 'ERIK' */
0000014E  7001                     moveq.l    D0, 0x01
00000150  A260                     syscall    FSDispatch/HFSDispatch, flags=2
00000152  6606                     bne        +0x8 /* 0000015A */
00000154  3368 0016 000E           move.w     [A1 + 0xE], [A0 + 0x16]
label0000015A:
0000015A  4FEF 007A                lea.l      A7, [A7 + 0x7A]
label0000015E:
0000015E  2049                     movea.l    A0, A1
00000160  225F                     movea.l    A1, [A7]+
00000162  5C4F                     addq.w     A7, 6
00000164  3EBC EA84                move.w     [A7], 0xEA84
00000168  4ED1                     jmp        [A1]
export_31:
fn0000016A:
0000016A  4E56 0000                link       A6, 0
0000016E  203C 0000 A89F           move.l     D0, 0xA89F
00000174  A746                     syscall    GetToolBoxTrapAddress/GetToolTrapAddress, flags=7
00000176  2F08                     move.l     -[A7], A0
00000178  203C 0000 A0AD           move.l     D0, 0xA0AD
0000017E  A346                     syscall    GetOSTrapAddress, flags=3
00000180  B1DF                     cmpa.l     A0, [A7]+
00000182  670E                     beq        +0x10 /* 00000192 */
00000184  202E 000C                move.l     D0, [A6 + 0xC]
00000188  A1AD                     syscall    Gestalt, flags=1
0000018A  226E 0008                movea.l    A1, [A6 + 0x8]
0000018E  2288                     move.l     [A1], A0
00000190  6026                     bra        +0x28 /* 000001B8 */
label00000192:
00000192  41FA 0036                lea.l      A0, [PC + 0x36 /* 000001CA, value 0x76657273 'vers', cstring "vers" */]
00000196  303C EA51                move.w     D0, 0xEA51
0000019A  222E 000C                move.l     D1, [A6 + 0xC]
label0000019E:
0000019E  B298                     cmp.l      D1, [A0]+
000001A0  6706                     beq        +0x8 /* 000001A8 */
000001A2  4A98                     tst.l      [A0]+
000001A4  6712                     beq        +0x14 /* 000001B8 */
000001A6  60F6                     bra        -0x8 /* 0000019E */
label000001A8:
000001A8  43FA 0020                lea.l      A1, [PC + 0x20 /* 000001CA, value 0x76657273 'vers', cstring "vers" */]
000001AC  D3D0                     add.l      A1, [A0]
000001AE  4ED1                     jmp        [A1]
label000001B0:
000001B0  226E 0008                movea.l    A1, [A6 + 0x8]
000001B4  2280                     move.l     [A1], D0
000001B6  4240                     clr.w      D0
label000001B8:
000001B8  3D40 0010                move.w     [A6 + 0x10], D0
000001BC  4E5E                     unlink     A6
000001BE  205F                     movea.l    A0, [A7]+
000001C0  508F                     addq.l     A7, 8
000001C2  4ED0                     jmp        [A0]
label000001C4:
000001C4  303C EA52                move.w     D0, 0xEA52
000001C8  60EE                     bra        -0x10 /* 000001B8 */
000001CA  7665                     moveq.l    D3, 0x65
000001CC  7273                     moveq.l    D1, 0x73
000001CE  0000 0060                ori.b      D0, 0x60 /* '`' */
000001D2  6D61                     blt        +0x63 /* 00000235 */
000001D4  6368                     bls        +0x6A /* 0000023E */
000001D6  0000 0064                ori.b      D0, 0x64 /* 'd' */
000001DA  7379                     moveq.l    D1, 0x79
000001DC  7376                     moveq.l    D1, 0x76
000001DE  0000 0088                ori.b      D0, 0x88
000001E2  7072                     moveq.l    D0, 0x72
000001E4  6F63                     ble        +0x65 /* 00000249 */
000001E6  0000 0092                ori.b      D0, 0x92
000001EA  6670                     bne        +0x72 /* 0000025C */
000001EC  7520                     moveq.l    D2, 0x20
000001EE  0000 009E                ori.b      D0, 0x9E
000001F2  7164                     moveq.l    D0, 0x64
000001F4  2020                     move.l     D0, -[A0]
000001F6  0000 00E8                ori.b      D0, 0xE8
000001FA  6B62                     bmi        +0x64 /* 0000025E */
000001FC  6420                     bcc        +0x22 /* 0000021E */
000001FE  0000 011A                ori.b      D0, 0x1A
00000202  6174                     bsr        +0x76 /* 00000278 */
00000204  6C6B                     bge        +0x6D /* 00000271 */
00000206  0000 0142                ori.b      D0, 0x42 /* 'B' */
0000020A  6D6D                     blt        +0x6F /* 00000279 */
0000020C  7520                     moveq.l    D2, 0x20
0000020E  0000 0164                ori.b      D0, 0x64 /* 'd' */
00000212  7261                     moveq.l    D1, 0x61
00000214  6D20                     blt        +0x22 /* 00000236 */
00000216  0000 0188                ori.b      D0, 0x88
0000021A  6C72                     bge        +0x74 /* 0000028E */
0000021C  616D                     bsr        +0x6F /* 0000028B */
label0000021E:
0000021E  0000 0188                ori.b      D0, 0x88
00000222  0000 0000                ori.b      D0, 0x0
00000226  0000 0000                ori.b      D0, 0x0
0000022A  7001                     moveq.l    D0, 0x01
0000022C  6082                     bra        -0x7C /* 000001B0 */
0000022E  2278 02AE                movea.l    A1, [0x000002AE /* ROMBase */]
00000232  7004                     moveq.l    D0, 0x04
00000234  0C69 0075 0008           cmpi.w     [A1 + 0x8], 0x75 /* 'u' */
// begin alternate branch 00000236-0000023E
label00000236:
00000236  0075 0008 6712 0C69      ori.w      [[A5 + D6 * 8] + 0xC69], 0x8
// end alternate branch 00000236-0000023E
label00000236: // (misaligned)
0000023A  6712                     beq        +0x14 /* 0000024E */
0000023C  0C69 0276 0008           cmpi.w     [A1 + 0x8], 0x276
// begin alternate branch 0000023E-00000244
label0000023E:
0000023E  0276 0008 6604           andi.w     [A6 + D6.w * 8 + 0x4], 0x8
// end alternate branch 0000023E-00000244
label0000023E: // (misaligned)
00000242  6604                     bne        +0x6 /* 00000248 */
00000244  5240                     addq.w     D0, 1
00000246  6006                     bra        +0x8 /* 0000024E */
label00000248:
00000248  1038 0CB3                move.b     D0, [0x00000CB3 /* MMUFluff/MachineType */]
0000024C  5C80                     addq.l     D0, 6
label0000024E:
0000024E  6000 FF60                bra        -0x9E /* 000001B0 */
00000252  7000                     moveq.l    D0, 0x00
00000254  3038 015A                move.w     D0, [0x0000015A /* SysVersion */]
00000258  6000 FF56                bra        -0xA8 /* 000001B0 */
label0000025C:
0000025C  7000                     moveq.l    D0, 0x00
label0000025E:
0000025E  1038 012F                move.b     D0, [0x0000012F /* CPUFlag */]
00000262  5240                     addq.w     D0, 1
00000264  6000 FF4A                bra        -0xB4 /* 000001B0 */
00000268  0C38 0004 012F           cmpi.b     [0x0000012F /* CPUFlag */], 0x4
0000026E  6738                     beq        +0x3A /* 000002A8 */
00000270  0838 0004 0B22           btst.b     [0x00000B22 /* HWCfgFlags */], 0x4
00000276  6734                     beq        +0x36 /* 000002AC */
fn00000278:
00000278  204F                     movea.l    A0, A7
0000027A  F280 0000                fnop
0000027E  F327                     .extension 0x327 <<F/4-5/1>> // unimplemented
00000280  3017                     move.w     D0, [A7]
00000282  2E48                     movea.l    A7, A0
00000284  0C40 1F18                cmpi.w     D0, 0x1F18
00000288  6716                     beq        +0x18 /* 000002A0 */
0000028A  0C40 3F18                cmpi.w     D0, 0x3F18
label0000028E:
0000028E  6710                     beq        +0x12 /* 000002A0 */
00000290  0C40 3F38                cmpi.w     D0, 0x3F38 /* '?8' */
00000294  670E                     beq        +0x10 /* 000002A4 */
00000296  0C40 1F38                cmpi.w     D0, 0x1F38
0000029A  6708                     beq        +0xA /* 000002A4 */
0000029C  7000                     moveq.l    D0, 0x00
0000029E  600E                     bra        +0x10 /* 000002AE */
label000002A0:
000002A0  7001                     moveq.l    D0, 0x01
000002A2  600A                     bra        +0xC /* 000002AE */
label000002A4:
000002A4  7002                     moveq.l    D0, 0x02
000002A6  6006                     bra        +0x8 /* 000002AE */
label000002A8:
000002A8  7003                     moveq.l    D0, 0x03
000002AA  6002                     bra        +0x4 /* 000002AE */
label000002AC:
000002AC  7000                     moveq.l    D0, 0x00
label000002AE:
000002AE  6000 FF00                bra        -0xFE /* 000001B0 */
000002B2  0C78 3FFF 028E           cmpi.w     [0x0000028E /* ROM85 */], 0x3FFF
000002B8  6E1C                     bgt        +0x1E /* 000002D6 */
000002BA  303C A89F                move.w     D0, 0xA89F
000002BE  A746                     syscall    GetToolBoxTrapAddress/GetToolTrapAddress, flags=7
000002C0  2408                     move.l     D2, A0
000002C2  203C 0000 AB03           move.l     D0, 0xAB03
000002C8  A746                     syscall    GetToolBoxTrapAddress/GetToolTrapAddress, flags=7
000002CA  203C 0000 0100           move.l     D0, 0x100
000002D0  B488                     cmp.l      D2, A0
000002D2  6606                     bne        +0x8 /* 000002DA */
000002D4  600A                     bra        +0xC /* 000002E0 */
label000002D6:
000002D6  7000                     moveq.l    D0, 0x00
000002D8  6006                     bra        +0x8 /* 000002E0 */
label000002DA:
000002DA  203C 0000 0200           move.l     D0, 0x200
label000002E0:
000002E0  6000 FECE                bra        -0x130 /* 000001B0 */
000002E4  1038 021E                move.b     D0, [0x0000021E /* KbdType */]
000002E8  41FA 0016                lea.l      A0, [PC + 0x16 /* 00000300, value 0x3130B02 */]
000002EC  2248                     movea.l    A1, A0
label000002EE:
000002EE  1218                     move.b     D1, [A0]+
000002F0  6700 FED2                beq        -0x12C /* 000001C4 */
000002F4  B200                     cmp.b      D1, D0
000002F6  66F6                     bne        -0x8 /* 000002EE */
000002F8  91C9                     sub.l      A0, A1
000002FA  2008                     move.l     D0, A0
000002FC  6000 FEB2                bra        -0x14C /* 000001B0 */
00000300  0313                     btst       [A3], D1
00000302  0B02                     btst       D2, D5
00000304  0106                     btst       D6, D0
00000306  0704                     btst       D4, D3
00000308  0508                     btst       A0, D2
0000030A  0900                     btst       D0, D4
0000030C  7000                     moveq.l    D0, 0x00
0000030E  4A38 0291                tst.b      [0x00000291 /* PortBUse */]
00000312  6B16                     bmi        +0x18 /* 0000032A */
00000314  1238 01FB                move.b     D1, [0x000001FB /* SPConfig */]
00000318  0201 000F                andi.b     D1, 0xF
0000031C  0C01 0001                cmpi.b     D1, 0x1
00000320  6608                     bne        +0xA /* 0000032A */
00000322  2078 02DC                movea.l    A0, [0x000002DC /* ABusDCE */]
00000326  1028 0007                move.b     D0, [A0 + 0x7]
label0000032A:
0000032A  6000 FE84                bra        -0x17A /* 000001B0 */
0000032E  0C38 0002 012F           cmpi.b     [0x0000012F /* CPUFlag */], 0x2
00000334  6D16                     blt        +0x18 /* 0000034C */
00000336  7000                     moveq.l    D0, 0x00
00000338  1038 0CB1                move.b     D0, [0x00000CB1 /* MMUType */]
0000033C  0C00 0001                cmpi.b     D0, 0x1
00000340  670C                     beq        +0xE /* 0000034E */
00000342  0C00 0003                cmpi.b     D0, 0x3
00000346  6D04                     blt        +0x6 /* 0000034C */
00000348  5340                     subq.w     D0, 1
0000034A  6002                     bra        +0x4 /* 0000034E */
label0000034C:
0000034C  7000                     moveq.l    D0, 0x00
label0000034E:
0000034E  6000 FE60                bra        -0x19E /* 000001B0 */
00000352  303C A89F                move.w     D0, 0xA89F
00000356  A746                     syscall    GetToolBoxTrapAddress/GetToolTrapAddress, flags=7
00000358  2408                     move.l     D2, A0
0000035A  203C 0000 A88F           move.l     D0, 0xA88F
00000360  A746                     syscall    GetToolBoxTrapAddress/GetToolTrapAddress, flags=7
00000362  2038 0108                move.l     D0, [0x00000108 /* MemTop */]
00000366  B488                     cmp.l      D2, A0
00000368  670A                     beq        +0xC /* 00000374 */
0000036A  598F                     subq.l     A7, 4
0000036C  3F3C 0016                move.w     -[A7], 0x16
00000370  A88F                     syscall    OSDispatch
00000372  201F                     move.l     D0, [A7]+
label00000374:
00000374  6000 FE3A                bra        -0x1C4 /* 000001B0 */
export_32:
00000378  225F                     movea.l    A1, [A7]+
0000037A  204F                     movea.l    A0, A7
0000037C  A019                     syscall    InitZone
0000037E  4FEF 000E                lea.l      A7, [A7 + 0xE]
00000382  4ED1                     jmp        [A1]
export_33:
00000384  225F                     movea.l    A1, [A7]+
00000386  205F                     movea.l    A0, [A7]+
00000388  A021                     syscall    GetPtrSize
0000038A  2E80                     move.l     [A7], D0
0000038C  6A02                     bpl        +0x4 /* 00000390 */
0000038E  4297                     clr.l      [A7]
label00000390:
00000390  4ED1                     jmp        [A1]
export_34:
fn00000392:
00000392  225F                     movea.l    A1, [A7]+
00000394  205F                     movea.l    A0, [A7]+
00000396  A025                     syscall    GetHandleSize
00000398  2E80                     move.l     [A7], D0
0000039A  6A02                     bpl        +0x4 /* 0000039E */
0000039C  4297                     clr.l      [A7]
label0000039E:
0000039E  4ED1                     jmp        [A1]
export_35:
000003A0  225F                     movea.l    A1, [A7]+
000003A2  121F                     move.b     D1, [A7]+
000003A4  301F                     move.w     D0, [A7]+
000003A6  4A01                     tst.b      D1
000003A8  6704                     beq        +0x6 /* 000003AE */
000003AA  A746                     syscall    GetToolBoxTrapAddress/GetToolTrapAddress, flags=7
000003AC  6002                     bra        +0x4 /* 000003B0 */
label000003AE:
000003AE  A346                     syscall    GetOSTrapAddress, flags=3
label000003B0:
000003B0  2E88                     move.l     [A7], A0
000003B2  4ED1                     jmp        [A1]
export_36:
000003B4  206F 000C                movea.l    A0, [A7 + 0xC]
000003B8  226F 0008                movea.l    A1, [A7 + 0x8]
000003BC  7000                     moveq.l    D0, 0x00
000003BE  1018                     move.b     D0, [A0]+
000003C0  4840                     swap.w     D0
000003C2  1019                     move.b     D0, [A1]+
000003C4  4A2F 0004                tst.b      [A7 + 0x4]
000003C8  670E                     beq        +0x10 /* 000003D8 */
000003CA  4A2F 0006                tst.b      [A7 + 0x6]
000003CE  6704                     beq        +0x6 /* 000003D4 */
000003D0  A43C                     syscall    CmpString, flags=4
000003D2  6010                     bra        +0x12 /* 000003E4 */
label000003D4:
000003D4  A03C                     syscall    CmpString
000003D6  600C                     bra        +0xE /* 000003E4 */
label000003D8:
000003D8  4A2F 0006                tst.b      [A7 + 0x6]
000003DC  6704                     beq        +0x6 /* 000003E2 */
000003DE  A63C                     syscall    CmpString, flags=6
000003E0  6002                     bra        +0x4 /* 000003E4 */
label000003E2:
000003E2  A23C                     syscall    CmpString, flags=2
label000003E4:
000003E4  0A00 0001                xori.b     D0, 0x1
000003E8  1F40 0010                move.b     [A7 + 0x10], D0
000003EC  205F                     movea.l    A0, [A7]+
000003EE  4FEF 000C                lea.l      A7, [A7 + 0xC]
000003F2  4ED0                     jmp        [A0]
export_37:
000003F4  4E56 FFCE                link       A6, -0x0032
000003F8  204F                     movea.l    A0, A7
000003FA  316E 0008 0018           move.w     [A0 + 0x18], [A6 + 0x8]
00000400  A001                     syscall    Close
00000402  3D40 000A                move.w     [A6 + 0xA], D0
00000406  4E5E                     unlink     A6
00000408  205F                     movea.l    A0, [A7]+
0000040A  548F                     addq.l     A7, 2
0000040C  4ED0                     jmp        [A0]
export_38:
0000040E  51C1                     sf         D1
00000410  6002                     bra        +0x4 /* 00000414 */
export_39:
00000412  50C1                     st         D1
label00000414:
00000414  4E56 FFCE                link       A6, -0x0032
00000418  204F                     movea.l    A0, A7
0000041A  216E 0008 0020           move.l     [A0 + 0x20], [A6 + 0x8]
00000420  316E 0010 0018           move.w     [A0 + 0x18], [A6 + 0x10]
00000426  226E 000C                movea.l    A1, [A6 + 0xC]
0000042A  2151 0024                move.l     [A0 + 0x24], [A1]
0000042E  4268 002C                clr.w      [A0 + 0x2C]
00000432  42A8 002E                clr.l      [A0 + 0x2E]
00000436  4A01                     tst.b      D1
00000438  6604                     bne        +0x6 /* 0000043E */
0000043A  A002                     syscall    Read
0000043C  6002                     bra        +0x4 /* 00000440 */
label0000043E:
0000043E  A003                     syscall    Write
label00000440:
00000440  3D40 0012                move.w     [A6 + 0x12], D0
00000444  226E 000C                movea.l    A1, [A6 + 0xC]
00000448  22A8 0028                move.l     [A1], [A0 + 0x28]
0000044C  4E5E                     unlink     A6
0000044E  225F                     movea.l    A1, [A7]+
00000450  4FEF 000A                lea.l      A7, [A7 + 0xA]
00000454  4ED1                     jmp        [A1]
export_40:
00000456  4E56 FFC0                link       A6, -0x0040
0000045A  204F                     movea.l    A0, A7
0000045C  216E 000C 0012           move.l     [A0 + 0x12], [A6 + 0xC]
00000462  A014                     syscall    GetVol/PBHGetVol/HGetVol
00000464  3D40 0010                move.w     [A6 + 0x10], D0
00000468  226E 0008                movea.l    A1, [A6 + 0x8]
0000046C  32A8 0016                move.w     [A1], [A0 + 0x16]
00000470  4E5E                     unlink     A6
00000472  225F                     movea.l    A1, [A7]+
00000474  508F                     addq.l     A7, 8
00000476  4ED1                     jmp        [A1]
export_41:
00000478  4E56 FFC0                link       A6, -0x0040
0000047C  204F                     movea.l    A0, A7
0000047E  316E 0008 0016           move.w     [A0 + 0x16], [A6 + 0x8]
00000484  216E 000A 0012           move.l     [A0 + 0x12], [A6 + 0xA]
0000048A  A013                     syscall    FlushVol
0000048C  3D40 000E                move.w     [A6 + 0xE], D0
00000490  4E5E                     unlink     A6
00000492  225F                     movea.l    A1, [A7]+
00000494  5C8F                     addq.l     A7, 6
00000496  4ED1                     jmp        [A1]
export_42:
00000498  4E56 FFB0                link       A6, -0x0050
0000049C  204F                     movea.l    A0, A7
0000049E  216E 0012 0012           move.l     [A0 + 0x12], [A6 + 0x12]
000004A4  316E 0010 0016           move.w     [A0 + 0x16], [A6 + 0x10]
000004AA  4228 001A                clr.b      [A0 + 0x1A]
000004AE  A008                     syscall    Create/PBHCreate/HCreate
000004B0  6616                     bne        +0x18 /* 000004C8 */
000004B2  4268 001C                clr.w      [A0 + 0x1C]
000004B6  A00C                     syscall    GetFileInfo/PBHGetFInfo/HGetFileInfo
000004B8  660E                     bne        +0x10 /* 000004C8 */
000004BA  43E8 0020                lea.l      A1, [A0 + 0x20]
000004BE  22EE 0008                move.l     [A1]+, [A6 + 0x8]
000004C2  22AE 000C                move.l     [A1], [A6 + 0xC]
000004C6  A00D                     syscall    SetFileInfo/PBHSetFInfo/HSetFileInfo
label000004C8:
000004C8  3D40 0016                move.w     [A6 + 0x16], D0
000004CC  4E5E                     unlink     A6
000004CE  225F                     movea.l    A1, [A7]+
000004D0  4FEF 000E                lea.l      A7, [A7 + 0xE]
000004D4  4ED1                     jmp        [A1]
export_43:
000004D6  4E56 FFCE                link       A6, -0x0032
000004DA  204F                     movea.l    A0, A7
000004DC  216E 000A 0012           move.l     [A0 + 0x12], [A6 + 0xA]
000004E2  316E 0008 0016           move.w     [A0 + 0x16], [A6 + 0x8]
000004E8  4228 001A                clr.b      [A0 + 0x1A]
000004EC  A009                     syscall    Delete/PBHDelete/HDelete
000004EE  3D40 000E                move.w     [A6 + 0xE], D0
000004F2  4E5E                     unlink     A6
000004F4  225F                     movea.l    A1, [A7]+
000004F6  5C8F                     addq.l     A7, 6
000004F8  4ED1                     jmp        [A1]
export_44:
000004FA  4E56 FFCE                link       A6, -0x0032
000004FE  204F                     movea.l    A0, A7
00000500  316E 000C 0018           move.w     [A0 + 0x18], [A6 + 0xC]
00000506  A011                     syscall    GetEOF
00000508  3D40 000E                move.w     [A6 + 0xE], D0
0000050C  226E 0008                movea.l    A1, [A6 + 0x8]
00000510  22A8 001C                move.l     [A1], [A0 + 0x1C]
00000514  4E5E                     unlink     A6
00000516  225F                     movea.l    A1, [A7]+
00000518  5C8F                     addq.l     A7, 6
0000051A  4ED1                     jmp        [A1]
export_45:
0000051C  4E56 FFCE                link       A6, -0x0032
00000520  204F                     movea.l    A0, A7
00000522  316E 000E 0018           move.w     [A0 + 0x18], [A6 + 0xE]
00000528  316E 000C 002C           move.w     [A0 + 0x2C], [A6 + 0xC]
0000052E  216E 0008 002E           move.l     [A0 + 0x2E], [A6 + 0x8]
00000534  A044                     syscall    SetFPos
00000536  3D40 0010                move.w     [A6 + 0x10], D0
0000053A  4E5E                     unlink     A6
0000053C  225F                     movea.l    A1, [A7]+
0000053E  508F                     addq.l     A7, 8
00000540  4ED1                     jmp        [A1]
fn00000542:
00000542  225F                     movea.l    A1, [A7]+
00000544  101F                     move.b     D0, [A7]+
00000546  205F                     movea.l    A0, [A7]+
00000548  6604                     bne        +0x6 /* 0000054E */
0000054A  A214                     syscall    GetVol/PBHGetVol/HGetVol, flags=2
0000054C  6002                     bra        +0x4 /* 00000550 */
label0000054E:
0000054E  A614                     syscall    GetVol/PBHGetVol/HGetVol, flags=6
label00000550:
00000550  3E80                     move.w     [A7], D0
00000552  4ED1                     jmp        [A1]
fn00000554:
00000554  225F                     movea.l    A1, [A7]+
00000556  101F                     move.b     D0, [A7]+
00000558  205F                     movea.l    A0, [A7]+
0000055A  6604                     bne        +0x6 /* 00000560 */
0000055C  A200                     syscall    OpenSlot, flags=2
0000055E  6002                     bra        +0x4 /* 00000562 */
label00000560:
00000560  A600                     syscall    Open/PBHOpen/HOpen, flags=6
label00000562:
00000562  3E80                     move.w     [A7], D0
00000564  4ED1                     jmp        [A1]
fn00000566:
00000566  225F                     movea.l    A1, [A7]+
00000568  101F                     move.b     D0, [A7]+
0000056A  205F                     movea.l    A0, [A7]+
0000056C  6604                     bne        +0x6 /* 00000572 */
0000056E  A208                     syscall    Create/PBHCreate/HCreate, flags=2
00000570  6002                     bra        +0x4 /* 00000574 */
label00000572:
00000572  A608                     syscall    Create/PBHCreate/HCreate, flags=6
label00000574:
00000574  3E80                     move.w     [A7], D0
00000576  4ED1                     jmp        [A1]
fn00000578:
00000578  225F                     movea.l    A1, [A7]+
0000057A  101F                     move.b     D0, [A7]+
0000057C  205F                     movea.l    A0, [A7]+
0000057E  6604                     bne        +0x6 /* 00000584 */
00000580  A20C                     syscall    GetFileInfo/PBHGetFInfo/HGetFileInfo, flags=2
00000582  6002                     bra        +0x4 /* 00000586 */
label00000584:
00000584  A60C                     syscall    GetFileInfo/PBHGetFInfo/HGetFileInfo, flags=6
label00000586:
00000586  3E80                     move.w     [A7], D0
00000588  4ED1                     jmp        [A1]
fn0000058A:
0000058A  225F                     movea.l    A1, [A7]+
0000058C  101F                     move.b     D0, [A7]+
0000058E  205F                     movea.l    A0, [A7]+
00000590  6604                     bne        +0x6 /* 00000596 */
00000592  A20D                     syscall    SetFileInfo/PBHSetFInfo/HSetFileInfo, flags=2
00000594  6002                     bra        +0x4 /* 00000598 */
label00000596:
00000596  A60D                     syscall    SetFileInfo/PBHSetFInfo/HSetFileInfo, flags=6
label00000598:
00000598  3E80                     move.w     [A7], D0
0000059A  4ED1                     jmp        [A1]
fn0000059C:
0000059C  205F                     movea.l    A0, [A7]+
0000059E  301F                     move.w     D0, [A7]+
000005A0  2F08                     move.l     -[A7], A0
000005A2  4E56 FFE0                link       A6, -0x0020
000005A6  204F                     movea.l    A0, A7
000005A8  317C FFFC 0018           move.w     [A0 + 0x18], 0xFFFC
000005AE  317C 0002 001A           move.w     [A0 + 0x1A], 0x2
000005B4  3140 001C                move.w     [A0 + 0x1C], D0
000005B8  A204                     syscall    Control, flags=2
000005BA  4E5E                     unlink     A6
000005BC  4E75                     rts
fn000005BE:
000005BE  7402                     moveq.l    D2, 0x02
label000005C0:
000005C0  205F                     movea.l    A0, [A7]+
000005C2  3F02                     move.w     -[A7], D2
000005C4  2F08                     move.l     -[A7], A0
000005C6  ADE9                     syscall    Pack2, auto_pop
fn000005C8:
000005C8  7404                     moveq.l    D2, 0x04
000005CA  4EFA FFF4                jmp        [PC - 0xC /* 000005C0 */]
fn000005CE:
000005CE  7400                     moveq.l    D2, 0x00
000005D0  4EFA FFEE                jmp        [PC - 0x12 /* 000005C0 */]
export_46:
fn000005D4:
000005D4  206F 0008                movea.l    A0, [A7 + 0x8]
000005D8  3F3C 0001                move.w     -[A7], 0x1
000005DC  A9EE                     syscall    Pack7/DecStr68K
000005DE  206F 0004                movea.l    A0, [A7 + 0x4]
000005E2  2080                     move.l     [A0], D0
000005E4  4EFA 000E                jmp        [PC + 0xE /* 000005F4 */]
export_47:
fn000005E8:
000005E8  206F 0004                movea.l    A0, [A7 + 0x4]
000005EC  202F 0008                move.l     D0, [A7 + 0x8]
000005F0  4267                     clr.w      -[A7]
000005F2  A9EE                     syscall    Pack7/DecStr68K
label000005F4:
000005F4  205F                     movea.l    A0, [A7]+
000005F6  504F                     addq.w     A7, 8
000005F8  4ED0                     jmp        [A0]
export_48:
000005FA  225F                     movea.l    A1, [A7]+
000005FC  201F                     move.l     D0, [A7]+
000005FE  0838 0006 028E           btst.b     [0x0000028E /* ROM85 */], 0x6
00000604  6606                     bne        +0x8 /* 0000060C */
00000606  A055                     syscall    StripAddress
00000608  2E80                     move.l     [A7], D0
0000060A  4ED1                     jmp        [A1]
label0000060C:
0000060C  C0B8 031A                and.l      D0, [0x0000031A /* MaskBC/MaskHandle/MaskPtr/Lo3Bytes */]
00000610  2E80                     move.l     [A7], D0
00000612  4ED1                     jmp        [A1]
export_49:
fn00000614:
00000614  4E56 0000                link       A6, 0
00000618  594F                     subq.w     A7, 4
0000061A  2F3C 5354 5223           move.l     -[A7], 0x53545223 /* 'STR#' */
00000620  3F2E 000A                move.w     -[A7], [A6 + 0xA]
00000624  A9A0                     syscall    GetResource
00000626  226E 000C                movea.l    A1, [A6 + 0xC]
0000062A  4211                     clr.b      [A1]
0000062C  201F                     move.l     D0, [A7]+
0000062E  6722                     beq        +0x24 /* 00000652 */
00000630  2040                     movea.l    A0, D0
00000632  2050                     movea.l    A0, [A0]
00000634  3018                     move.w     D0, [A0]+
00000636  322E 0008                move.w     D1, [A6 + 0x8]
0000063A  6716                     beq        +0x18 /* 00000652 */
0000063C  B240                     cmp.w      D1, D0
0000063E  6212                     bhi        +0x14 /* 00000652 */
00000640  7000                     moveq.l    D0, 0x00
label00000642:
00000642  5341                     subq.w     D1, 1
00000644  6706                     beq        +0x8 /* 0000064C */
00000646  1018                     move.b     D0, [A0]+
00000648  D1C0                     add.l      A0, D0
0000064A  60F6                     bra        -0x8 /* 00000642 */
label0000064C:
0000064C  1010                     move.b     D0, [A0]
0000064E  5240                     addq.w     D0, 1
00000650  A02E                     syscall    BlockMove/BlockMoveData
label00000652:
00000652  4E5E                     unlink     A6
00000654  205F                     movea.l    A0, [A7]+
00000656  508F                     addq.l     A7, 8
00000658  4ED0                     jmp        [A0]
export_16:
0000065A  4E56 FEEE                link       A6, -0x0112
0000065E  48E7 0318                movem.l    -[A7], D6,D7,A3,A4
00000662  2D6D F1EA FEEE           move.l     [A6 - 0x112], [A5 - 0xE16]
00000668  3D6D F1EE FEF2           move.w     [A6 - 0x10E], [A5 - 0xE12]
0000066E  7E00                     moveq.l    D7, 0x00
00000670  1B7C 0001 F762           move.b     [A5 - 0x89E], 0x1
00000676  422D F204                clr.b      [A5 - 0xDFC]
0000067A  4EAD 01BA                jsr        [A5 + 0x1BA /* export_51, CODE:5 @ 000005F6 */]
0000067E  3C00                     move.w     D6, D0
00000680  4A46                     tst.w      D6
00000682  6600 04F2                bne        +0x4F4 /* 00000B76 */
00000686  A852                     syscall    HideCursor
00000688  4227                     clr.b      -[A7]
0000068A  2F2D F938                move.l     -[A7], [A5 - 0x6C8]
0000068E  3F3C 0005                move.w     -[A7], 0x5
00000692  42A7                     clr.l      -[A7]
00000694  4EBA 17DE                jsr        [PC + 0x17DE /* 00001E74 */]
00000698  3EBC 0014                move.w     [A7], 0x14
0000069C  486E FEEE                pea.l      [A6 - 0x112]
000006A0  4EAD 0272                jsr        [A5 + 0x272 /* export_74, CODE:8 @ 00000320 */]
000006A4  2F3C 0000 FFFF           move.l     -[A7], 0xFFFF
000006AA  201F                     move.l     D0, [A7]+
000006AC  A032                     syscall    FlushEvents
000006AE  1B7C 0001 F204           move.b     [A5 - 0xDFC], 0x1
000006B4  1B7C 0001 F79B           move.b     [A5 - 0x865], 0x1
000006BA  4EAD 02C2                jsr        [A5 + 0x2C2 /* export_84, CODE:2 @ 00000358 */]
000006BE  A850                     syscall    InitCursor
000006C0  4A2D F205                tst.b      [A5 - 0xDFB]
000006C4  6700 04A6                beq        +0x4A8 /* 00000B6C */
000006C8  A852                     syscall    HideCursor
000006CA  6000 04A0                bra        +0x4A2 /* 00000B6C */
label000006CE:
000006CE  4A07                     tst.b      D7
000006D0  661A                     bne        +0x1C /* 000006EC */
000006D2  4A2D F204                tst.b      [A5 - 0xDFC]
000006D6  6614                     bne        +0x16 /* 000006EC */
000006D8  3F3C 01FE                move.w     -[A7], 0x1FE
000006DC  4EAD 01C2                jsr        [A5 + 0x1C2 /* export_52, CODE:4 @ 00000000 */]
000006E0  7E01                     moveq.l    D7, 0x01
000006E2  A852                     syscall    HideCursor
000006E4  1B7C 0001 F79B           move.b     [A5 - 0x865], 0x1
000006EA  548F                     addq.l     A7, 2
label000006EC:
000006EC  486D 01B2                pea.l      [A5 + 0x1B2 /* export_50, CODE:5 @ 000001CE */]
000006F0  A9F1                     syscall    UnloadSeg
000006F2  486D 01C2                pea.l      [A5 + 0x1C2 /* export_52, CODE:4 @ 00000000 */]
000006F6  A9F1                     syscall    UnloadSeg
000006F8  3F2D F782                move.w     -[A7], [A5 - 0x87E]
000006FC  A998                     syscall    UseResFile
000006FE  4A2D F205                tst.b      [A5 - 0xDFB]
00000702  6704                     beq        +0x6 /* 00000708 */
00000704  4EAD 02BA                jsr        [A5 + 0x2BA /* export_83, CODE:2 @ 000002C6 */]
label00000708:
00000708  4A2D F1F4                tst.b      [A5 - 0xE0C]
0000070C  6716                     beq        +0x18 /* 00000724 */
0000070E  4227                     clr.b      -[A7]
00000710  3F3C FFFF                move.w     -[A7], 0xFFFF
00000714  486D F752                pea.l      [A5 - 0x8AE]
00000718  4878 0001                push.l     0x1
0000071C  42A7                     clr.l      -[A7]
0000071E  A860                     syscall    WaitNextEvent
00000720  1C1F                     move.b     D6, [A7]+
00000722  6010                     bra        +0x12 /* 00000734 */
label00000724:
00000724  A9B4                     syscall    SystemTask
00000726  4227                     clr.b      -[A7]
00000728  3F3C FFFF                move.w     -[A7], 0xFFFF
0000072C  486D F752                pea.l      [A5 - 0x8AE]
00000730  A970                     syscall    GetNextEvent
00000732  1C1F                     move.b     D6, [A7]+
label00000734:
00000734  486D 01F2                pea.l      [A5 + 0x1F2 /* export_58, CODE:6 @ 0000097E */]
00000738  A9F1                     syscall    UnloadSeg
0000073A  42A7                     clr.l      -[A7]
0000073C  A924                     syscall    FrontWindow
0000073E  202D F218                move.l     D0, [A5 - 0xDE8]
00000742  B09F                     cmp.l      D0, [A7]+
00000744  660E                     bne        +0x10 /* 00000754 */
00000746  4227                     clr.b      -[A7]
00000748  4EAD 0262                jsr        [A5 + 0x262 /* export_72, CODE:8 @ 00000294 */]
0000074C  4A1F                     tst.b      [A7]+
0000074E  6704                     beq        +0x6 /* 00000754 */
00000750  4EBA 06BA                jsr        [PC + 0x6BA /* 00000E0C */]
label00000754:
00000754  4A06                     tst.b      D6
00000756  6700 0414                beq        +0x416 /* 00000B6C */
0000075A  0C6D 0003 F752           cmpi.w     [A5 - 0x8AE], 0x3
00000760  6600 0368                bne        +0x36A /* 00000ACA */
00000764  4A2D F204                tst.b      [A5 - 0xDFC]
00000768  6600 0360                bne        +0x362 /* 00000ACA */
0000076C  42A7                     clr.l      -[A7]
0000076E  2F2D F754                move.l     -[A7], [A5 - 0x8AC]
00000772  4878 00FF                push.l     0xFF
00000776  A858                     syscall    BitAnd
00000778  2C1F                     move.l     D6, [A7]+
0000077A  1006                     move.b     D0, D6
0000077C  4880                     ext.w      D0
0000077E  0440 0020                subi.w     D0, 0x20 /* ' ' */
00000782  0C40 005A                cmpi.w     D0, 0x5A /* 'Z' */
00000786  6200 0324                bhi        +0x326 /* 00000AAC */
0000078A  43FA 040E                lea.l      A1, [PC + 0x40E /* 00000B9A, value 0xFBFCFF12 */]
0000078E  D040                     add.w      D0, D0
00000790  D2F1 0000                add.w      A1, [A1 + D0.w]
00000794  4ED1                     jmp        [A1]
00000796  4A2D F205                tst.b      [A5 - 0xDFB]
0000079A  670E                     beq        +0x10 /* 000007AA */
0000079C  422D F205                clr.b      [A5 - 0xDFB]
000007A0  4EAD 02C2                jsr        [A5 + 0x2C2 /* export_84, CODE:2 @ 00000358 */]
000007A4  A850                     syscall    InitCursor
000007A6  6000 0322                bra        +0x324 /* 00000ACA */
label000007AA:
000007AA  1B7C 0001 F205           move.b     [A5 - 0xDFB], 0x1
000007B0  4EAD 02BA                jsr        [A5 + 0x2BA /* export_83, CODE:2 @ 000002C6 */]
000007B4  A850                     syscall    InitCursor
000007B6  A852                     syscall    HideCursor
000007B8  6000 0310                bra        +0x312 /* 00000ACA */
000007BC  426D F1FA                clr.w      [A5 - 0xE06]
000007C0  43EE FFFC                lea.l      A1, [A6 - 0x4]
000007C4  307C 0006                movea.w    A0, 0x6
000007C8  A03B                     syscall    Delay
000007CA  2280                     move.l     [A1], D0
000007CC  4227                     clr.b      -[A7]
000007CE  2F2D F934                move.l     -[A7], [A5 - 0x6CC]
000007D2  3F3C 0005                move.w     -[A7], 0x5
000007D6  42A7                     clr.l      -[A7]
000007D8  4EBA 169A                jsr        [PC + 0x169A /* 00001E74 */]
000007DC  4EAD 01F2                jsr        [A5 + 0x1F2 /* export_58, CODE:6 @ 0000097E */]
000007E0  A850                     syscall    InitCursor
000007E2  4A2D F205                tst.b      [A5 - 0xDFB]
000007E6  548F                     addq.l     A7, 2
000007E8  6700 02E0                beq        +0x2E2 /* 00000ACA */
000007EC  A852                     syscall    HideCursor
000007EE  6000 02DA                bra        +0x2DC /* 00000ACA */
000007F2  3F3C 01FE                move.w     -[A7], 0x1FE
000007F6  4EAD 01C2                jsr        [A5 + 0x1C2 /* export_52, CODE:4 @ 00000000 */]
000007FA  A852                     syscall    HideCursor
000007FC  1B7C 0001 F79B           move.b     [A5 - 0x865], 0x1
00000802  548F                     addq.l     A7, 2
00000804  6000 02C4                bra        +0x2C6 /* 00000ACA */
00000808  A850                     syscall    InitCursor
0000080A  43EE FFFC                lea.l      A1, [A6 - 0x4]
0000080E  307C 0006                movea.w    A0, 0x6
00000812  A03B                     syscall    Delay
00000814  2280                     move.l     [A1], D0
00000816  4227                     clr.b      -[A7]
00000818  2F2D F928                move.l     -[A7], [A5 - 0x6D8]
0000081C  3F3C 0005                move.w     -[A7], 0x5
00000820  42A7                     clr.l      -[A7]
00000822  4EBA 1650                jsr        [PC + 0x1650 /* 00001E74 */]
00000826  4EAD 01E2                jsr        [A5 + 0x1E2 /* export_56, CODE:6 @ 0000081C */]
0000082A  A850                     syscall    InitCursor
0000082C  4A2D F205                tst.b      [A5 - 0xDFB]
00000830  548F                     addq.l     A7, 2
00000832  6702                     beq        +0x4 /* 00000836 */
00000834  A852                     syscall    HideCursor
label00000836:
00000836  4EBA 0A8A                jsr        [PC + 0xA8A /* 000012C2 */]
0000083A  6000 028E                bra        +0x290 /* 00000ACA */
0000083E  3B7C 0003 F1FE           move.w     [A5 - 0xE02], 0x3
00000844  3B7C 0001 F1FC           move.w     [A5 - 0xE04], 0x1
0000084A  426D F1FA                clr.w      [A5 - 0xE06]
0000084E  43EE FFFC                lea.l      A1, [A6 - 0x4]
00000852  307C 0006                movea.w    A0, 0x6
00000856  A03B                     syscall    Delay
00000858  2280                     move.l     [A1], D0
0000085A  4227                     clr.b      -[A7]
0000085C  2F2D F914                move.l     -[A7], [A5 - 0x6EC]
00000860  3F3C 0005                move.w     -[A7], 0x5
00000864  42A7                     clr.l      -[A7]
00000866  4EBA 160C                jsr        [PC + 0x160C /* 00001E74 */]
0000086A  43EE FFFC                lea.l      A1, [A6 - 0x4]
0000086E  307C 0006                movea.w    A0, 0x6
00000872  A03B                     syscall    Delay
00000874  2280                     move.l     [A1], D0
00000876  4EAD 021A                jsr        [A5 + 0x21A /* export_63, CODE:7 @ 00002B46 */]
0000087A  2F3C 0000 FFFF           move.l     -[A7], 0xFFFF
00000880  201F                     move.l     D0, [A7]+
00000882  A032                     syscall    FlushEvents
00000884  A850                     syscall    InitCursor
00000886  4A2D F205                tst.b      [A5 - 0xDFB]
0000088A  548F                     addq.l     A7, 2
0000088C  6700 023C                beq        +0x23E /* 00000ACA */
00000890  A852                     syscall    HideCursor
00000892  6000 0236                bra        +0x238 /* 00000ACA */
00000896  A850                     syscall    InitCursor
00000898  43EE FFFC                lea.l      A1, [A6 - 0x4]
0000089C  307C 0006                movea.w    A0, 0x6
000008A0  A03B                     syscall    Delay
000008A2  2280                     move.l     [A1], D0
000008A4  4227                     clr.b      -[A7]
000008A6  2F2D F8E0                move.l     -[A7], [A5 - 0x720]
000008AA  3F3C 0005                move.w     -[A7], 0x5
000008AE  42A7                     clr.l      -[A7]
000008B0  4EBA 15C2                jsr        [PC + 0x15C2 /* 00001E74 */]
000008B4  4EAD 01FA                jsr        [A5 + 0x1FA /* export_59, CODE:6 @ 0000009E */]
000008B8  3B40 F1FC                move.w     [A5 - 0xE04], D0
000008BC  4A40                     tst.w      D0
000008BE  548F                     addq.l     A7, 2
000008C0  6F38                     ble        +0x3A /* 000008FA */
000008C2  43EE FFFC                lea.l      A1, [A6 - 0x4]
000008C6  307C 0006                movea.w    A0, 0x6
000008CA  A03B                     syscall    Delay
000008CC  2280                     move.l     [A1], D0
000008CE  4227                     clr.b      -[A7]
000008D0  2F2D F914                move.l     -[A7], [A5 - 0x6EC]
000008D4  3F3C 0005                move.w     -[A7], 0x5
000008D8  42A7                     clr.l      -[A7]
000008DA  4EBA 1598                jsr        [PC + 0x1598 /* 00001E74 */]
000008DE  43EE FFFC                lea.l      A1, [A6 - 0x4]
000008E2  307C 0006                movea.w    A0, 0x6
000008E6  A03B                     syscall    Delay
000008E8  2280                     move.l     [A1], D0
000008EA  4EAD 021A                jsr        [A5 + 0x21A /* export_63, CODE:7 @ 00002B46 */]
000008EE  2F3C 0000 FFFF           move.l     -[A7], 0xFFFF
000008F4  201F                     move.l     D0, [A7]+
000008F6  A032                     syscall    FlushEvents
000008F8  548F                     addq.l     A7, 2
label000008FA:
000008FA  A850                     syscall    InitCursor
000008FC  4A2D F205                tst.b      [A5 - 0xDFB]
00000900  6700 01C8                beq        +0x1CA /* 00000ACA */
00000904  A852                     syscall    HideCursor
00000906  6000 01C2                bra        +0x1C4 /* 00000ACA */
0000090A  43EE FFFC                lea.l      A1, [A6 - 0x4]
0000090E  307C 0006                movea.w    A0, 0x6
00000912  A03B                     syscall    Delay
00000914  2280                     move.l     [A1], D0
00000916  4227                     clr.b      -[A7]
00000918  2F2D F8F0                move.l     -[A7], [A5 - 0x710]
0000091C  3F3C 0005                move.w     -[A7], 0x5
00000920  42A7                     clr.l      -[A7]
00000922  4EBA 1550                jsr        [PC + 0x1550 /* 00001E74 */]
00000926  43EE FFFC                lea.l      A1, [A6 - 0x4]
0000092A  307C 0006                movea.w    A0, 0x6
0000092E  A03B                     syscall    Delay
00000930  2280                     move.l     [A1], D0
00000932  422D F762                clr.b      [A5 - 0x89E]
00000936  548F                     addq.l     A7, 2
00000938  6000 0190                bra        +0x192 /* 00000ACA */
0000093C  1D7C 0001 FEF4           move.b     [A6 - 0x10C], 0x1
00000942  1D46 FEF5                move.b     [A6 - 0x10B], D6
00000946  486E FEF4                pea.l      [A6 - 0x10C]
0000094A  486E FFF4                pea.l      [A6 - 0xC]
0000094E  4EBA FC84                jsr        [PC - 0x37C /* 000005D4 */]
00000952  3B6E FFF6 F1F8           move.w     [A5 - 0xE08], [A6 - 0xA]
00000958  3F2D F1F8                move.w     -[A7], [A5 - 0xE08]
0000095C  4EBA 14A8                jsr        [PC + 0x14A8 /* 00001E06 */]
00000960  3F2D F772                move.w     -[A7], [A5 - 0x88E]
00000964  A998                     syscall    UseResFile
00000966  42A7                     clr.l      -[A7]
00000968  2F3C 534F 554E           move.l     -[A7], 0x534F554E /* 'SOUN' */
0000096E  3F3C 0080                move.w     -[A7], 0x80
00000972  A9A0                     syscall    GetResource
00000974  285F                     movea.l    A4, [A7]+
00000976  2054                     movea.l    A0, [A4]
00000978  30AD F1F8                move.w     [A0], [A5 - 0xE08]
0000097C  2F0C                     move.l     -[A7], A4
0000097E  A9AA                     syscall    ChangedResource
00000980  4267                     clr.w      -[A7]
00000982  A994                     syscall    CurResFile
00000984  A999                     syscall    UpdateResFile
00000986  2F2D F218                move.l     -[A7], [A5 - 0xDE8]
0000098A  A873                     syscall    SetPort
0000098C  3F2D F782                move.w     -[A7], [A5 - 0x87E]
00000990  A998                     syscall    UseResFile
00000992  43EE FFFC                lea.l      A1, [A6 - 0x4]
00000996  307C 0006                movea.w    A0, 0x6
0000099A  A03B                     syscall    Delay
0000099C  2280                     move.l     [A1], D0
0000099E  4227                     clr.b      -[A7]
000009A0  2F2D F914                move.l     -[A7], [A5 - 0x6EC]
000009A4  3F3C 0005                move.w     -[A7], 0x5
000009A8  42A7                     clr.l      -[A7]
000009AA  4EBA 14C8                jsr        [PC + 0x14C8 /* 00001E74 */]
000009AE  4EBA 07CA                jsr        [PC + 0x7CA /* 0000117A */]
000009B2  548F                     addq.l     A7, 2
000009B4  6000 0114                bra        +0x116 /* 00000ACA */
000009B8  A850                     syscall    InitCursor
000009BA  43EE FFFC                lea.l      A1, [A6 - 0x4]
000009BE  307C 0006                movea.w    A0, 0x6
000009C2  A03B                     syscall    Delay
000009C4  2280                     move.l     [A1], D0
000009C6  4227                     clr.b      -[A7]
000009C8  2F2D F944                move.l     -[A7], [A5 - 0x6BC]
000009CC  3F3C 0005                move.w     -[A7], 0x5
000009D0  42A7                     clr.l      -[A7]
000009D2  4EBA 14A0                jsr        [PC + 0x14A0 /* 00001E74 */]
000009D6  A850                     syscall    InitCursor
000009D8  4257                     clr.w      [A7]
000009DA  3F3C 0083                move.w     -[A7], 0x83
000009DE  42A7                     clr.l      -[A7]
000009E0  A985                     syscall    Alert
000009E2  0C5F 0001                cmpi.w     [A7]+, 0x1
000009E6  A850                     syscall    InitCursor
000009E8  4A2D F205                tst.b      [A5 - 0xDFB]
000009EC  6700 00DC                beq        +0xDE /* 00000ACA */
000009F0  A852                     syscall    HideCursor
000009F2  6000 00D6                bra        +0xD8 /* 00000ACA */
000009F6  A850                     syscall    InitCursor
000009F8  43EE FFFC                lea.l      A1, [A6 - 0x4]
000009FC  307C 0006                movea.w    A0, 0x6
00000A00  A03B                     syscall    Delay
00000A02  2280                     move.l     [A1], D0
00000A04  4227                     clr.b      -[A7]
00000A06  2F2D F8F8                move.l     -[A7], [A5 - 0x708]
00000A0A  3F3C 0005                move.w     -[A7], 0x5
00000A0E  42A7                     clr.l      -[A7]
00000A10  4EBA 1462                jsr        [PC + 0x1462 /* 00001E74 */]
00000A14  4257                     clr.w      [A7]
00000A16  3F3C 0081                move.w     -[A7], 0x81
00000A1A  42A7                     clr.l      -[A7]
00000A1C  A985                     syscall    Alert
00000A1E  0C5F 0002                cmpi.w     [A7]+, 0x2
00000A22  667C                     bne        +0x7E /* 00000AA0 */
00000A24  43EE FFFC                lea.l      A1, [A6 - 0x4]
00000A28  307C 0006                movea.w    A0, 0x6
00000A2C  A03B                     syscall    Delay
00000A2E  2280                     move.l     [A1], D0
00000A30  4227                     clr.b      -[A7]
00000A32  2F2D F8DC                move.l     -[A7], [A5 - 0x724]
00000A36  3F3C 0005                move.w     -[A7], 0x5
00000A3A  42A7                     clr.l      -[A7]
00000A3C  4EBA 1436                jsr        [PC + 0x1436 /* 00001E74 */]
00000A40  3EAD F772                move.w     [A7], [A5 - 0x88E]
00000A44  A998                     syscall    UseResFile
00000A46  42A7                     clr.l      -[A7]
00000A48  2F3C 5343 4F52           move.l     -[A7], 0x53434F52 /* 'SCOR' */
00000A4E  3F3C 0080                move.w     -[A7], 0x80
00000A52  A9A0                     syscall    GetResource
00000A54  285F                     movea.l    A4, [A7]+
00000A56  7C00                     moveq.l    D6, 0x00
00000A58  97CB                     sub.l      A3, A3
00000A5A  6018                     bra        +0x1A /* 00000A74 */
label00000A5C:
00000A5C  2014                     move.l     D0, [A4]
00000A5E  4273 0814                clr.w      [A3 + D0 + 0x14]
00000A62  2014                     move.l     D0, [A4]
00000A64  42B3 0816                clr.l      [A3 + D0 + 0x16]
00000A68  204B                     movea.l    A0, A3
00000A6A  D1D4                     add.l      A0, [A4]
00000A6C  4210                     clr.b      [A0]
00000A6E  5246                     addq.w     D6, 1
00000A70  47EB 001A                lea.l      A3, [A3 + 0x1A]
label00000A74:
00000A74  0C46 000A                cmpi.w     D6, 0xA /* '\n' */
00000A78  6DE2                     blt        -0x1C /* 00000A5C */
00000A7A  2F0C                     move.l     -[A7], A4
00000A7C  A9AA                     syscall    ChangedResource
00000A7E  4267                     clr.w      -[A7]
00000A80  A994                     syscall    CurResFile
00000A82  A999                     syscall    UpdateResFile
00000A84  2F2D F218                move.l     -[A7], [A5 - 0xDE8]
00000A88  A873                     syscall    SetPort
00000A8A  206D F218                movea.l    A0, [A5 - 0xDE8]
00000A8E  4868 0010                pea.l      [A0 + 0x10]
00000A92  A928                     syscall    InvalRect
00000A94  3F2D F782                move.w     -[A7], [A5 - 0x87E]
00000A98  A998                     syscall    UseResFile
00000A9A  1B7C 0001 F79B           move.b     [A5 - 0x865], 0x1
label00000AA0:
00000AA0  A850                     syscall    InitCursor
00000AA2  4A2D F205                tst.b      [A5 - 0xDFB]
00000AA6  6722                     beq        +0x24 /* 00000ACA */
00000AA8  A852                     syscall    HideCursor
00000AAA  601E                     bra        +0x20 /* 00000ACA */
label00000AAC:
00000AAC  43EE FFFC                lea.l      A1, [A6 - 0x4]
00000AB0  307C 0006                movea.w    A0, 0x6
00000AB4  A03B                     syscall    Delay
00000AB6  2280                     move.l     [A1], D0
00000AB8  4227                     clr.b      -[A7]
00000ABA  2F2D F8FC                move.l     -[A7], [A5 - 0x704]
00000ABE  3F3C 0005                move.w     -[A7], 0x5
00000AC2  42A7                     clr.l      -[A7]
00000AC4  4EBA 13AE                jsr        [PC + 0x13AE /* 00001E74 */]
00000AC8  548F                     addq.l     A7, 2
label00000ACA:
00000ACA  0C6D 0007 F752           cmpi.w     [A5 - 0x8AE], 0x7
00000AD0  6634                     bne        +0x36 /* 00000B06 */
00000AD2  2D6D F1F0 FFF6           move.l     [A6 - 0xA], [A5 - 0xE10]
00000AD8  A850                     syscall    InitCursor
00000ADA  4267                     clr.w      -[A7]
00000ADC  2F2D F754                move.l     -[A7], [A5 - 0x8AC]
00000AE0  A86A                     syscall    HiWord
00000AE2  4A5F                     tst.w      [A7]+
00000AE4  6718                     beq        +0x1A /* 00000AFE */
00000AE6  4EBA FAD6                jsr        [PC - 0x52A /* 000005BE */]
00000AEA  4267                     clr.w      -[A7]
00000AEC  2F2E FFF6                move.l     -[A7], [A6 - 0xA]
00000AF0  2F2D F754                move.l     -[A7], [A5 - 0x8AC]
00000AF4  4EBA FAD8                jsr        [PC - 0x528 /* 000005CE */]
00000AF8  4EBA FACE                jsr        [PC - 0x532 /* 000005C8 */]
00000AFC  548F                     addq.l     A7, 2
label00000AFE:
00000AFE  4A2D F205                tst.b      [A5 - 0xDFB]
00000B02  6702                     beq        +0x4 /* 00000B06 */
00000B04  A852                     syscall    HideCursor
label00000B06:
00000B06  0C6D 000F F752           cmpi.w     [A5 - 0x8AE], 0xF
00000B0C  6628                     bne        +0x2A /* 00000B36 */
00000B0E  082D 0000 F754           btst.b     [A5 - 0x8AC], 0x0
00000B14  6720                     beq        +0x22 /* 00000B36 */
00000B16  082D 0000 F757           btst.b     [A5 - 0x8A9], 0x0
00000B1C  6714                     beq        +0x16 /* 00000B32 */
00000B1E  4EBA 0274                jsr        [PC + 0x274 /* 00000D94 */]
00000B22  4EAD 02C2                jsr        [A5 + 0x2C2 /* export_84, CODE:2 @ 00000358 */]
00000B26  A850                     syscall    InitCursor
00000B28  4A2D F205                tst.b      [A5 - 0xDFB]
00000B2C  6708                     beq        +0xA /* 00000B36 */
00000B2E  A852                     syscall    HideCursor
00000B30  6004                     bra        +0x6 /* 00000B36 */
label00000B32:
00000B32  4EBA 02A2                jsr        [PC + 0x2A2 /* 00000DD6 */]
label00000B36:
00000B36  0C6D 0001 F752           cmpi.w     [A5 - 0x8AE], 0x1
00000B3C  660A                     bne        +0xC /* 00000B48 */
00000B3E  4A2D F204                tst.b      [A5 - 0xDFC]
00000B42  6604                     bne        +0x6 /* 00000B48 */
00000B44  4EBA 044E                jsr        [PC + 0x44E /* 00000F94 */]
label00000B48:
00000B48  0C6D 0006 F752           cmpi.w     [A5 - 0x8AE], 0x6
00000B4E  661C                     bne        +0x1E /* 00000B6C */
00000B50  202D F754                move.l     D0, [A5 - 0x8AC]
00000B54  B0AD F21C                cmp.l      D0, [A5 - 0xDE4]
00000B58  6604                     bne        +0x6 /* 00000B5E */
00000B5A  4EBA 01C0                jsr        [PC + 0x1C0 /* 00000D1C */]
label00000B5E:
00000B5E  202D F754                move.l     D0, [A5 - 0x8AC]
00000B62  B0AD F218                cmp.l      D0, [A5 - 0xDE8]
00000B66  6604                     bne        +0x6 /* 00000B6C */
00000B68  4EBA 00E6                jsr        [PC + 0xE6 /* 00000C50 */]
label00000B6C:
00000B6C  4A2D F762                tst.b      [A5 - 0x89E]
00000B70  6600 FB5C                bne        -0x4A2 /* 000006CE */
00000B74  600C                     bra        +0xE /* 00000B82 */
label00000B76:
00000B76  1F3C 0001                move.b     -[A7], 0x1
00000B7A  3F06                     move.w     -[A7], D6
00000B7C  4EBA 05A2                jsr        [PC + 0x5A2 /* 00001120 */]
00000B80  588F                     addq.l     A7, 4
label00000B82:
00000B82  3F3C 0014                move.w     -[A7], 0x14
00000B86  486E FEEE                pea.l      [A6 - 0x112]
00000B8A  4EAD 0272                jsr        [A5 + 0x272 /* export_74, CODE:8 @ 00000320 */]
00000B8E  4EBA 0504                jsr        [PC + 0x504 /* 00001094 */]
00000B92  4CDF 18C0                movem.l    D6,D7,A3,A4, [A7]+
00000B96  4E5E                     unlink     A6
00000B98  4E75                     rts
00000B9A  FBFC                     .invalid   <<F/7/5>>
00000B9C  FF12                     .extension 0xF12 <<F/4-5/7>> // unimplemented
00000B9E  FF12                     .extension 0xF12 <<F/4-5/7>> // unimplemented
00000BA0  FF12                     .extension 0xF12 <<F/4-5/7>> // unimplemented
00000BA2  FF12                     .extension 0xF12 <<F/4-5/7>> // unimplemented
00000BA4  FF12                     .extension 0xF12 <<F/4-5/7>> // unimplemented
00000BA6  FF12                     .extension 0xF12 <<F/4-5/7>> // unimplemented
00000BA8  FF12                     .extension 0xF12 <<F/4-5/7>> // unimplemented
00000BAA  FF12                     .extension 0xF12 <<F/4-5/7>> // unimplemented
00000BAC  FF12                     .extension 0xF12 <<F/4-5/7>> // unimplemented
00000BAE  FF12                     .extension 0xF12 <<F/4-5/7>> // unimplemented
00000BB0  FF12                     .extension 0xF12 <<F/4-5/7>> // unimplemented
00000BB2  FF12                     .extension 0xF12 <<F/4-5/7>> // unimplemented
00000BB4  FF12                     .extension 0xF12 <<F/4-5/7>> // unimplemented
00000BB6  FF12                     .extension 0xF12 <<F/4-5/7>> // unimplemented
00000BB8  FF12                     .extension 0xF12 <<F/4-5/7>> // unimplemented
00000BBA  FDA2                     .invalid   <<F/6/6>>
00000BBC  FDA2                     .invalid   <<F/6/6>>
00000BBE  FDA2                     .invalid   <<F/6/6>>
00000BC0  FDA2                     .invalid   <<F/6/6>>
00000BC2  FDA2                     .invalid   <<F/6/6>>
00000BC4  FDA2                     .invalid   <<F/6/6>>
00000BC6  FDA2                     .invalid   <<F/6/6>>
00000BC8  FDA2                     .invalid   <<F/6/6>>
00000BCA  FDA2                     .invalid   <<F/6/6>>
00000BCC  FF12                     .extension 0xF12 <<F/4-5/7>> // unimplemented
00000BCE  FF12                     .extension 0xF12 <<F/4-5/7>> // unimplemented
00000BD0  FF12                     .extension 0xF12 <<F/4-5/7>> // unimplemented
00000BD2  FF12                     .extension 0xF12 <<F/4-5/7>> // unimplemented
00000BD4  FF12                     .extension 0xF12 <<F/4-5/7>> // unimplemented
00000BD6  FF12                     .extension 0xF12 <<F/4-5/7>> // unimplemented
00000BD8  FF12                     .extension 0xF12 <<F/4-5/7>> // unimplemented
00000BDA  FF12                     .extension 0xF12 <<F/4-5/7>> // unimplemented
00000BDC  FC22 FF12                .unknown   0xFC22 0xFF12 (W = 6)
00000BE0  FC6E FF12                .extension 0xC6E <<F/1/6>>, 0xFF12 // unimplemented
00000BE4  FF12                     .extension 0xF12 <<F/4-5/7>> // unimplemented
00000BE6  FF12                     .extension 0xF12 <<F/4-5/7>> // unimplemented
00000BE8  FF12                     .extension 0xF12 <<F/4-5/7>> // unimplemented
00000BEA  FF12                     .extension 0xF12 <<F/4-5/7>> // unimplemented
00000BEC  FF12                     .extension 0xF12 <<F/4-5/7>> // unimplemented
00000BEE  FF12                     .extension 0xF12 <<F/4-5/7>> // unimplemented
00000BF0  FF12                     .extension 0xF12 <<F/4-5/7>> // unimplemented
00000BF2  FCFC FF12                .extension 0xCFC <<F/2-3/6>> // unimplemented
00000BF6  FF12                     .extension 0xF12 <<F/4-5/7>> // unimplemented
00000BF8  FF12                     .extension 0xF12 <<F/4-5/7>> // unimplemented
00000BFA  FCA4 FD70                .extension 0xCA4 <<F/2-3/6>> // unimplemented
00000BFE  FC58 FF12                .extension 0xC58 <<F/1/6>>, 0xFF12 // unimplemented
00000C02  FF12                     .extension 0xF12 <<F/4-5/7>> // unimplemented
00000C04  FF12                     .extension 0xF12 <<F/4-5/7>> // unimplemented
00000C06  FF12                     .extension 0xF12 <<F/4-5/7>> // unimplemented
00000C08  FF12                     .extension 0xF12 <<F/4-5/7>> // unimplemented
00000C0A  FE1E FF12                .unknown   0xFE1E 0xFF12 (W = 7)
00000C0E  FE5C FF12                .extension 0xE5C <<F/1/7>>, 0xFF12 // unimplemented
00000C12  FF12                     .extension 0xF12 <<F/4-5/7>> // unimplemented
00000C14  FF12                     .extension 0xF12 <<F/4-5/7>> // unimplemented
00000C16  FF12                     .extension 0xF12 <<F/4-5/7>> // unimplemented
00000C18  FF12                     .extension 0xF12 <<F/4-5/7>> // unimplemented
00000C1A  FF12                     .extension 0xF12 <<F/4-5/7>> // unimplemented
00000C1C  FC22 FF12                .unknown   0xFC22 0xFF12 (W = 6)
00000C20  FC6E FF12                .extension 0xC6E <<F/1/6>>, 0xFF12 // unimplemented
00000C24  FF12                     .extension 0xF12 <<F/4-5/7>> // unimplemented
00000C26  FF12                     .extension 0xF12 <<F/4-5/7>> // unimplemented
00000C28  FF12                     .extension 0xF12 <<F/4-5/7>> // unimplemented
00000C2A  FF12                     .extension 0xF12 <<F/4-5/7>> // unimplemented
00000C2C  FF12                     .extension 0xF12 <<F/4-5/7>> // unimplemented
00000C2E  FF12                     .extension 0xF12 <<F/4-5/7>> // unimplemented
00000C30  FF12                     .extension 0xF12 <<F/4-5/7>> // unimplemented
00000C32  FCFC FF12                .extension 0xCFC <<F/2-3/6>> // unimplemented
00000C36  FF12                     .extension 0xF12 <<F/4-5/7>> // unimplemented
00000C38  FF12                     .extension 0xF12 <<F/4-5/7>> // unimplemented
00000C3A  FCA4 FD70                .extension 0xCA4 <<F/2-3/6>> // unimplemented
00000C3E  FC58 FF12                .extension 0xC58 <<F/1/6>>, 0xFF12 // unimplemented
00000C42  FF12                     .extension 0xF12 <<F/4-5/7>> // unimplemented
00000C44  FF12                     .extension 0xF12 <<F/4-5/7>> // unimplemented
00000C46  FF12                     .extension 0xF12 <<F/4-5/7>> // unimplemented
00000C48  FF12                     .extension 0xF12 <<F/4-5/7>> // unimplemented
00000C4A  FE1E FF12                .unknown   0xFE1E 0xFF12 (W = 7)
00000C4E  FE5C 4E56                .extension 0xE5C <<F/1/7>>, 0x4E56 // unimplemented
// begin alternate branch 00000C50-00000C54
fn00000C50:
00000C50  4E56 FFF4                link       A6, -0x000C
// end alternate branch 00000C50-00000C54
fn00000C50: // (misaligned)
00000C52  FFF4                     .invalid   <<F/7/7>>
00000C54  48E7 0038                movem.l    -[A7], A2,A3,A4
00000C58  486E FFF6                pea.l      [A6 - 0xA]
00000C5C  A874                     syscall    GetPort
00000C5E  286D F3D4                movea.l    A4, [A5 - 0xC2C]
00000C62  266D F218                movea.l    A3, [A5 - 0xDE8]
00000C66  4A2D F79B                tst.b      [A5 - 0x865]
00000C6A  6714                     beq        +0x16 /* 00000C80 */
00000C6C  42A7                     clr.l      -[A7]
00000C6E  AA32                     syscall    GetGDevice
00000C70  245F                     movea.l    A2, [A7]+
00000C72  2F2D F20C                move.l     -[A7], [A5 - 0xDF4]
00000C76  AA31                     syscall    SetGDevice
00000C78  4EBA 074C                jsr        [PC + 0x74C /* 000013C6 */]
00000C7C  2F0A                     move.l     -[A7], A2
00000C7E  AA31                     syscall    SetGDevice
label00000C80:
00000C80  2F2D F218                move.l     -[A7], [A5 - 0xDE8]
00000C84  A873                     syscall    SetPort
00000C86  2F2D F218                move.l     -[A7], [A5 - 0xDE8]
00000C8A  A922                     syscall    BeginUpdate
00000C8C  426E FFFA                clr.w      [A6 - 0x6]
00000C90  426E FFFC                clr.w      [A6 - 0x4]
00000C94  426E FFFE                clr.w      [A6 - 0x2]
00000C98  42A7                     clr.l      -[A7]
00000C9A  AA32                     syscall    GetGDevice
00000C9C  245F                     movea.l    A2, [A7]+
00000C9E  2F2D F20C                move.l     -[A7], [A5 - 0xDF4]
00000CA2  AA31                     syscall    SetGDevice
00000CA4  486E FFFA                pea.l      [A6 - 0x6]
00000CA8  AA14                     syscall    RGBForeColor
00000CAA  3D7C FFFF FFFA           move.w     [A6 - 0x6], 0xFFFF
00000CB0  3D7C FFFF FFFC           move.w     [A6 - 0x4], 0xFFFF
00000CB6  3D7C FFFF FFFE           move.w     [A6 - 0x2], 0xFFFF
00000CBC  486E FFFA                pea.l      [A6 - 0x6]
00000CC0  AA15                     syscall    RGBBackColor
00000CC2  206D F218                movea.l    A0, [A5 - 0xDE8]
00000CC6  4868 0010                pea.l      [A0 + 0x10]
00000CCA  A8A2                     syscall    PaintRect
00000CCC  2F0A                     move.l     -[A7], A2
00000CCE  AA31                     syscall    SetGDevice
00000CD0  42A7                     clr.l      -[A7]
00000CD2  AA32                     syscall    GetGDevice
00000CD4  245F                     movea.l    A2, [A7]+
00000CD6  2F2D F20C                move.l     -[A7], [A5 - 0xDF4]
00000CDA  AA31                     syscall    SetGDevice
00000CDC  486C 0002                pea.l      [A4 + 0x2]
00000CE0  486B 0002                pea.l      [A3 + 0x2]
00000CE4  486D F79C                pea.l      [A5 - 0x864]
00000CE8  486D F7A4                pea.l      [A5 - 0x85C]
00000CEC  4267                     clr.w      -[A7]
00000CEE  42A7                     clr.l      -[A7]
00000CF0  A8EC                     syscall    CopyBits
00000CF2  2F0A                     move.l     -[A7], A2
00000CF4  AA31                     syscall    SetGDevice
00000CF6  2F2D F218                move.l     -[A7], [A5 - 0xDE8]
00000CFA  A923                     syscall    EndUpdate
00000CFC  4A2D F204                tst.b      [A5 - 0xDFC]
00000D00  670C                     beq        +0xE /* 00000D0E */
00000D02  3F3C 0014                move.w     -[A7], 0x14
00000D06  4EAD 027A                jsr        [A5 + 0x27A /* export_75, CODE:8 @ 00000548 */]
00000D0A  422D F204                clr.b      [A5 - 0xDFC]
label00000D0E:
00000D0E  2F2E FFF6                move.l     -[A7], [A6 - 0xA]
00000D12  A873                     syscall    SetPort
00000D14  4CDF 1C00                movem.l    A2,A3,A4, [A7]+
00000D18  4E5E                     unlink     A6
00000D1A  4E75                     rts
export_13:
fn00000D1C:
00000D1C  4E56 FFF8                link       A6, -0x0008
00000D20  2F2D F21C                move.l     -[A7], [A5 - 0xDE4]
00000D24  A873                     syscall    SetPort
00000D26  2F2D F21C                move.l     -[A7], [A5 - 0xDE4]
00000D2A  A922                     syscall    BeginUpdate
00000D2C  A89E                     syscall    PenNormal
00000D2E  3F3C 0002                move.w     -[A7], 0x2
00000D32  A889                     syscall    TextMode
00000D34  3F3C 0003                move.w     -[A7], 0x3
00000D38  A887                     syscall    TextFont
00000D3A  3F3C 0009                move.w     -[A7], 0x9 /* '\t' */
00000D3E  A88A                     syscall    TextSize
00000D40  4267                     clr.w      -[A7]
00000D42  A888                     syscall    TextFace
00000D44  206D F21C                movea.l    A0, [A5 - 0xDE4]
00000D48  4868 0010                pea.l      [A0 + 0x10]
00000D4C  A8A3                     syscall    EraseRect
00000D4E  3F3C 0003                move.w     -[A7], 0x3
00000D52  206D F21C                movea.l    A0, [A5 - 0xDE4]
00000D56  70FB                     moveq.l    D0, 0xFFFFFFFB
00000D58  D068 0014                add.w      D0, [A0 + 0x14]
00000D5C  3F00                     move.w     -[A7], D0
00000D5E  A893                     syscall    MoveTo
00000D60  486D F98C                pea.l      [A5 - 0x674]
00000D64  A884                     syscall    DrawString
00000D66  486E FFF8                pea.l      [A6 - 0x8]
00000D6A  42A7                     clr.l      -[A7]
00000D6C  2F3C 0020 0020           move.l     -[A7], 0x200020 /* ' \0 ' */
00000D72  A8A7                     syscall    SetRect
00000D74  486E FFF8                pea.l      [A6 - 0x8]
00000D78  2F3C 0005 000A           move.l     -[A7], 0x5000A
00000D7E  A8A8                     syscall    OffsetRect
00000D80  486E FFF8                pea.l      [A6 - 0x8]
00000D84  2F2D F788                move.l     -[A7], [A5 - 0x878]
00000D88  AA1F                     syscall    PlotCIcon
00000D8A  2F2D F21C                move.l     -[A7], [A5 - 0xDE4]
00000D8E  A923                     syscall    EndUpdate
00000D90  4E5E                     unlink     A6
00000D92  4E75                     rts
export_11:
fn00000D94:
00000D94  4E56 0000                link       A6, 0
00000D98  A850                     syscall    InitCursor
00000D9A  4AAD F218                tst.l      [A5 - 0xDE8]
00000D9E  6706                     beq        +0x8 /* 00000DA6 */
00000DA0  2F2D F218                move.l     -[A7], [A5 - 0xDE8]
00000DA4  A915                     syscall    ShowWindow
label00000DA6:
00000DA6  4AAD F21C                tst.l      [A5 - 0xDE4]
00000DAA  6706                     beq        +0x8 /* 00000DB2 */
00000DAC  2F2D F21C                move.l     -[A7], [A5 - 0xDE4]
00000DB0  A916                     syscall    HideWindow
label00000DB2:
00000DB2  4227                     clr.b      -[A7]
00000DB4  4EAD 025A                jsr        [A5 + 0x25A /* export_71, CODE:8 @ 00000268 */]
00000DB8  4A1F                     tst.b      [A7]+
00000DBA  6704                     beq        +0x6 /* 00000DC0 */
00000DBC  4EBA 004E                jsr        [PC + 0x4E /* 00000E0C */]
label00000DC0:
00000DC0  4AAD F218                tst.l      [A5 - 0xDE8]
00000DC4  6706                     beq        +0x8 /* 00000DCC */
00000DC6  2F2D F218                move.l     -[A7], [A5 - 0xDE8]
00000DCA  A873                     syscall    SetPort
label00000DCC:
00000DCC  1B7C 0001 F79B           move.b     [A5 - 0x865], 0x1
00000DD2  4E5E                     unlink     A6
00000DD4  4E75                     rts
export_12:
fn00000DD6:
00000DD6  4E56 0000                link       A6, 0
00000DDA  A850                     syscall    InitCursor
00000DDC  4EAD 02C2                jsr        [A5 + 0x2C2 /* export_84, CODE:2 @ 00000358 */]
00000DE0  4AAD F218                tst.l      [A5 - 0xDE8]
00000DE4  6706                     beq        +0x8 /* 00000DEC */
00000DE6  2F2D F218                move.l     -[A7], [A5 - 0xDE8]
00000DEA  A916                     syscall    HideWindow
label00000DEC:
00000DEC  4AAD F21C                tst.l      [A5 - 0xDE4]
00000DF0  6706                     beq        +0x8 /* 00000DF8 */
00000DF2  2F2D F21C                move.l     -[A7], [A5 - 0xDE4]
00000DF6  A915                     syscall    ShowWindow
label00000DF8:
00000DF8  4EAD 0252                jsr        [A5 + 0x252 /* export_70, CODE:8 @ 0000024E */]
00000DFC  4AAD F218                tst.l      [A5 - 0xDE8]
00000E00  6706                     beq        +0x8 /* 00000E08 */
00000E02  2F2D F218                move.l     -[A7], [A5 - 0xDE8]
00000E06  A873                     syscall    SetPort
label00000E08:
00000E08  4E5E                     unlink     A6
00000E0A  4E75                     rts
export_15:
fn00000E0C:
00000E0C  4E56 FEF4                link       A6, -0x010C
00000E10  2F07                     move.l     -[A7], D7
00000E12  2F2D F218                move.l     -[A7], [A5 - 0xDE8]
00000E16  A873                     syscall    SetPort
00000E18  426E FEF4                clr.w      [A6 - 0x10C]
00000E1C  426E FEF6                clr.w      [A6 - 0x10A]
00000E20  426E FEF8                clr.w      [A6 - 0x108]
00000E24  3D7C FFFF FEFA           move.w     [A6 - 0x106], 0xFFFF
00000E2A  3D7C FFFF FEFC           move.w     [A6 - 0x104], 0xFFFF
00000E30  3D7C FFFF FEFE           move.w     [A6 - 0x102], 0xFFFF
00000E36  486E FF00                pea.l      [A6 - 0x100]
00000E3A  2F3C 0012 0080           move.l     -[A7], 0x120080
00000E40  4EBA F7D2                jsr        [PC - 0x82E /* 00000614 */]
00000E44  486E FF00                pea.l      [A6 - 0x100]
00000E48  486D F996                pea.l      [A5 - 0x66A]
00000E4C  486D F998                pea.l      [A5 - 0x668]
00000E50  486D F99A                pea.l      [A5 - 0x666]
00000E54  A98B                     syscall    ParamText
00000E56  A850                     syscall    InitCursor
00000E58  4EAD 02C2                jsr        [A5 + 0x2C2 /* export_84, CODE:2 @ 00000358 */]
00000E5C  4267                     clr.w      -[A7]
00000E5E  3F3C 0080                move.w     -[A7], 0x80
00000E62  42A7                     clr.l      -[A7]
00000E64  A985                     syscall    Alert
00000E66  3E1F                     move.w     D7, [A7]+
00000E68  2F2D F78C                move.l     -[A7], [A5 - 0x874]
00000E6C  3F3C 0001                move.w     -[A7], 0x1
00000E70  A93A                     syscall    DisableItem
00000E72  2F2D F790                move.l     -[A7], [A5 - 0x870]
00000E76  3F3C 0001                move.w     -[A7], 0x1
00000E7A  A93A                     syscall    DisableItem
00000E7C  6000 00CE                bra        +0xD0 /* 00000F4C */
label00000E80:
00000E80  4A2D F1F4                tst.b      [A5 - 0xE0C]
00000E84  6716                     beq        +0x18 /* 00000E9C */
00000E86  4227                     clr.b      -[A7]
00000E88  3F3C FFFF                move.w     -[A7], 0xFFFF
00000E8C  486D F752                pea.l      [A5 - 0x8AE]
00000E90  4878 0001                push.l     0x1
00000E94  42A7                     clr.l      -[A7]
00000E96  A860                     syscall    WaitNextEvent
00000E98  1E1F                     move.b     D7, [A7]+
00000E9A  6010                     bra        +0x12 /* 00000EAC */
label00000E9C:
00000E9C  A9B4                     syscall    SystemTask
00000E9E  4227                     clr.b      -[A7]
00000EA0  3F3C FFFF                move.w     -[A7], 0xFFFF
00000EA4  486D F752                pea.l      [A5 - 0x8AE]
00000EA8  A970                     syscall    GetNextEvent
00000EAA  1E1F                     move.b     D7, [A7]+
label00000EAC:
00000EAC  4A07                     tst.b      D7
00000EAE  6700 009C                beq        +0x9E /* 00000F4C */
00000EB2  0C6D 0001 F752           cmpi.w     [A5 - 0x8AE], 0x1
00000EB8  6604                     bne        +0x6 /* 00000EBE */
00000EBA  4EBA 00D8                jsr        [PC + 0xD8 /* 00000F94 */]
label00000EBE:
00000EBE  0C6D 000F F752           cmpi.w     [A5 - 0x8AE], 0xF
00000EC4  663E                     bne        +0x40 /* 00000F04 */
00000EC6  082D 0000 F754           btst.b     [A5 - 0x8AC], 0x0
00000ECC  6736                     beq        +0x38 /* 00000F04 */
00000ECE  082D 0000 F757           btst.b     [A5 - 0x8A9], 0x0
00000ED4  672A                     beq        +0x2C /* 00000F00 */
00000ED6  4EBA FEBC                jsr        [PC - 0x144 /* 00000D94 */]
00000EDA  4EAD 02C2                jsr        [A5 + 0x2C2 /* export_84, CODE:2 @ 00000358 */]
00000EDE  206D F20C                movea.l    A0, [A5 - 0xDF4]
00000EE2  2050                     movea.l    A0, [A0]
00000EE4  2068 0016                movea.l    A0, [A0 + 0x16]
00000EE8  2050                     movea.l    A0, [A0]
00000EEA  0C68 0008 0020           cmpi.w     [A0 + 0x20], 0x8
00000EF0  6712                     beq        +0x14 /* 00000F04 */
00000EF2  4267                     clr.w      -[A7]
00000EF4  3F3C 0080                move.w     -[A7], 0x80
00000EF8  42A7                     clr.l      -[A7]
00000EFA  A985                     syscall    Alert
00000EFC  3E1F                     move.w     D7, [A7]+
00000EFE  6004                     bra        +0x6 /* 00000F04 */
label00000F00:
00000F00  4EBA FED4                jsr        [PC - 0x12C /* 00000DD6 */]
label00000F04:
00000F04  0C6D 0006 F752           cmpi.w     [A5 - 0x8AE], 0x6
00000F0A  6640                     bne        +0x42 /* 00000F4C */
00000F0C  202D F754                move.l     D0, [A5 - 0x8AC]
00000F10  B0AD F21C                cmp.l      D0, [A5 - 0xDE4]
00000F14  6604                     bne        +0x6 /* 00000F1A */
00000F16  4EBA FE04                jsr        [PC - 0x1FC /* 00000D1C */]
label00000F1A:
00000F1A  202D F754                move.l     D0, [A5 - 0x8AC]
00000F1E  B0AD F218                cmp.l      D0, [A5 - 0xDE8]
00000F22  6628                     bne        +0x2A /* 00000F4C */
00000F24  2F2D F218                move.l     -[A7], [A5 - 0xDE8]
00000F28  A873                     syscall    SetPort
00000F2A  2F2D F218                move.l     -[A7], [A5 - 0xDE8]
00000F2E  A922                     syscall    BeginUpdate
00000F30  486E FEFA                pea.l      [A6 - 0x106]
00000F34  AA15                     syscall    RGBBackColor
00000F36  486E FEF4                pea.l      [A6 - 0x10C]
00000F3A  AA14                     syscall    RGBForeColor
00000F3C  206D F218                movea.l    A0, [A5 - 0xDE8]
00000F40  4868 0010                pea.l      [A0 + 0x10]
00000F44  A8A2                     syscall    PaintRect
00000F46  2F2D F218                move.l     -[A7], [A5 - 0xDE8]
00000F4A  A923                     syscall    EndUpdate
label00000F4C:
00000F4C  206D F20C                movea.l    A0, [A5 - 0xDF4]
00000F50  2050                     movea.l    A0, [A0]
00000F52  2068 0016                movea.l    A0, [A0 + 0x16]
00000F56  2050                     movea.l    A0, [A0]
00000F58  0C68 0008 0020           cmpi.w     [A0 + 0x20], 0x8
00000F5E  6600 FF20                bne        -0xDE /* 00000E80 */
00000F62  42A7                     clr.l      -[A7]
00000F64  A924                     syscall    FrontWindow
00000F66  201F                     move.l     D0, [A7]+
00000F68  B0AD F218                cmp.l      D0, [A5 - 0xDE8]
00000F6C  6600 FF12                bne        -0xEC /* 00000E80 */
00000F70  2F2D F78C                move.l     -[A7], [A5 - 0x874]
00000F74  3F3C 0001                move.w     -[A7], 0x1
00000F78  A939                     syscall    EnableItem
00000F7A  2F2D F790                move.l     -[A7], [A5 - 0x870]
00000F7E  3F3C 0001                move.w     -[A7], 0x1
00000F82  A939                     syscall    EnableItem
00000F84  A850                     syscall    InitCursor
00000F86  4A2D F205                tst.b      [A5 - 0xDFB]
00000F8A  6702                     beq        +0x4 /* 00000F8E */
00000F8C  A852                     syscall    HideCursor
label00000F8E:
00000F8E  2E1F                     move.l     D7, [A7]+
00000F90  4E5E                     unlink     A6
00000F92  4E75                     rts
export_14:
fn00000F94:
00000F94  4E56 FEF8                link       A6, -0x0108
00000F98  48E7 0700                movem.l    -[A7], D5,D6,D7
00000F9C  4267                     clr.w      -[A7]
00000F9E  2F2D F75C                move.l     -[A7], [A5 - 0x8A4]
00000FA2  486E FEFC                pea.l      [A6 - 0x104]
00000FA6  A92C                     syscall    FindWindow
00000FA8  3E1F                     move.w     D7, [A7]+
00000FAA  0C47 0001                cmpi.w     D7, 0x1
00000FAE  6600 00CC                bne        +0xCE /* 0000107C */
00000FB2  42A7                     clr.l      -[A7]
00000FB4  2F2D F75C                move.l     -[A7], [A5 - 0x8A4]
00000FB8  A93D                     syscall    MenuSelect
00000FBA  2C1F                     move.l     D6, [A7]+
00000FBC  4267                     clr.w      -[A7]
00000FBE  2F06                     move.l     -[A7], D6
00000FC0  A86B                     syscall    LoWord
00000FC2  3A1F                     move.w     D5, [A7]+
00000FC4  4267                     clr.w      -[A7]
00000FC6  2F06                     move.l     -[A7], D6
00000FC8  A86A                     syscall    HiWord
00000FCA  206D F78C                movea.l    A0, [A5 - 0x874]
00000FCE  2050                     movea.l    A0, [A0]
00000FD0  301F                     move.w     D0, [A7]+
00000FD2  B050                     cmp.w      D0, [A0]
00000FD4  6644                     bne        +0x46 /* 0000101A */
00000FD6  0C45 0001                cmpi.w     D5, 0x1
00000FDA  6622                     bne        +0x24 /* 00000FFE */
00000FDC  4227                     clr.b      -[A7]
00000FDE  2F2D F934                move.l     -[A7], [A5 - 0x6CC]
00000FE2  3F3C 0005                move.w     -[A7], 0x5
00000FE6  42A7                     clr.l      -[A7]
00000FE8  4EBA 0E8A                jsr        [PC + 0xE8A /* 00001E74 */]
00000FEC  4EAD 01F2                jsr        [A5 + 0x1F2 /* export_58, CODE:6 @ 0000097E */]
00000FF0  A850                     syscall    InitCursor
00000FF2  4A2D F205                tst.b      [A5 - 0xDFB]
00000FF6  548F                     addq.l     A7, 2
00000FF8  6720                     beq        +0x22 /* 0000101A */
00000FFA  A852                     syscall    HideCursor
00000FFC  601C                     bra        +0x1E /* 0000101A */
label00000FFE:
00000FFE  2F2D F78C                move.l     -[A7], [A5 - 0x874]
00001002  3F05                     move.w     -[A7], D5
00001004  486E FF00                pea.l      [A6 - 0x100]
00001008  A946                     syscall    GetMenuItemText/GetItem
0000100A  4267                     clr.w      -[A7]
0000100C  486E FF00                pea.l      [A6 - 0x100]
00001010  A9B6                     syscall    OpenDeskAcc
00001012  2F2D F218                move.l     -[A7], [A5 - 0xDE8]
00001016  A873                     syscall    SetPort
00001018  548F                     addq.l     A7, 2
label0000101A:
0000101A  4267                     clr.w      -[A7]
0000101C  2F06                     move.l     -[A7], D6
0000101E  A86A                     syscall    HiWord
00001020  206D F790                movea.l    A0, [A5 - 0x870]
00001024  2050                     movea.l    A0, [A0]
00001026  301F                     move.w     D0, [A7]+
00001028  B050                     cmp.w      D0, [A0]
0000102A  664C                     bne        +0x4E /* 00001078 */
0000102C  0C45 0001                cmpi.w     D5, 0x1
00001030  6646                     bne        +0x48 /* 00001078 */
00001032  7C01                     moveq.l    D6, 0x01
00001034  A850                     syscall    InitCursor
00001036  4227                     clr.b      -[A7]
00001038  2F2D F8F0                move.l     -[A7], [A5 - 0x710]
0000103C  3F3C 0005                move.w     -[A7], 0x5
00001040  42A7                     clr.l      -[A7]
00001042  4EBA 0E30                jsr        [PC + 0xE30 /* 00001E74 */]
00001046  4A6D F7E2                tst.w      [A5 - 0x81E]
0000104A  548F                     addq.l     A7, 2
0000104C  6714                     beq        +0x16 /* 00001062 */
0000104E  4267                     clr.w      -[A7]
00001050  3F3C 0087                move.w     -[A7], 0x87
00001054  42A7                     clr.l      -[A7]
00001056  A985                     syscall    Alert
00001058  3A1F                     move.w     D5, [A7]+
0000105A  0C45 0002                cmpi.w     D5, 0x2
0000105E  6602                     bne        +0x4 /* 00001062 */
00001060  7C00                     moveq.l    D6, 0x00
label00001062:
00001062  43EE FEF8                lea.l      A1, [A6 - 0x108]
00001066  307C 0006                movea.w    A0, 0x6
0000106A  A03B                     syscall    Delay
0000106C  2280                     move.l     [A1], D0
0000106E  4A06                     tst.b      D6
00001070  6706                     beq        +0x8 /* 00001078 */
00001072  4EBA 0020                jsr        [PC + 0x20 /* 00001094 */]
00001076  A9F4                     syscall    ExitToShell
label00001078:
00001078  4267                     clr.w      -[A7]
0000107A  A938                     syscall    HiliteMenu
label0000107C:
0000107C  0C47 0002                cmpi.w     D7, 0x2
00001080  660A                     bne        +0xC /* 0000108C */
00001082  486D F752                pea.l      [A5 - 0x8AE]
00001086  2F2E FEFC                move.l     -[A7], [A6 - 0x104]
0000108A  A9B3                     syscall    SystemClick
label0000108C:
0000108C  4CDF 00E0                movem.l    D5,D6,D7, [A7]+
00001090  4E5E                     unlink     A6
00001092  4E75                     rts
fn00001094:
00001094  4E56 FFF6                link       A6, -0x000A
00001098  4EAD 02A2                jsr        [A5 + 0x2A2 /* export_80, CODE:2 @ 000000F8 */]
0000109C  4EBA 0D10                jsr        [PC + 0xD10 /* 00001DAE */]
000010A0  4AAD F21C                tst.l      [A5 - 0xDE4]
000010A4  6706                     beq        +0x8 /* 000010AC */
000010A6  2F2D F21C                move.l     -[A7], [A5 - 0xDE4]
000010AA  A914                     syscall    DisposeWindow
label000010AC:
000010AC  42AD F21C                clr.l      [A5 - 0xDE4]
000010B0  4AAD F218                tst.l      [A5 - 0xDE8]
000010B4  6706                     beq        +0x8 /* 000010BC */
000010B6  2F2D F218                move.l     -[A7], [A5 - 0xDE8]
000010BA  A914                     syscall    DisposeWindow
label000010BC:
000010BC  42AD F218                clr.l      [A5 - 0xDE8]
000010C0  4EAD 024A                jsr        [A5 + 0x24A /* export_69, CODE:8 @ 000001EE */]
000010C4  0C6D FFFF F772           cmpi.w     [A5 - 0x88E], 0xFFFF
000010CA  6706                     beq        +0x8 /* 000010D2 */
000010CC  3F2D F772                move.w     -[A7], [A5 - 0x88E]
000010D0  A99A                     syscall    CloseResFile
label000010D2:
000010D2  0C6D FFFF F780           cmpi.w     [A5 - 0x880], 0xFFFF
000010D8  6706                     beq        +0x8 /* 000010E0 */
000010DA  3F2D F780                move.w     -[A7], [A5 - 0x880]
000010DE  A99A                     syscall    CloseResFile
label000010E0:
000010E0  0C6D FFFF F77E           cmpi.w     [A5 - 0x882], 0xFFFF
000010E6  6706                     beq        +0x8 /* 000010EE */
000010E8  3F2D F77E                move.w     -[A7], [A5 - 0x882]
000010EC  A99A                     syscall    CloseResFile
label000010EE:
000010EE  0C6D FFFF F77C           cmpi.w     [A5 - 0x884], 0xFFFF
000010F4  6706                     beq        +0x8 /* 000010FC */
000010F6  3F2D F77C                move.w     -[A7], [A5 - 0x884]
000010FA  A99A                     syscall    CloseResFile
label000010FC:
000010FC  4A2D F794                tst.b      [A5 - 0x86C]
00001100  670E                     beq        +0x10 /* 00001110 */
00001102  0C6D FFFF F796           cmpi.w     [A5 - 0x86A], 0xFFFF
00001108  6706                     beq        +0x8 /* 00001110 */
0000110A  3F2D F796                move.w     -[A7], [A5 - 0x86A]
0000110E  A99A                     syscall    CloseResFile
label00001110:
00001110  A850                     syscall    InitCursor
00001112  2F3C 0000 FFFF           move.l     -[A7], 0xFFFF
00001118  201F                     move.l     D0, [A7]+
0000111A  A032                     syscall    FlushEvents
0000111C  4E5E                     unlink     A6
0000111E  4E75                     rts
export_10:
fn00001120:
00001120  4E56 FEFE                link       A6, -0x0102
00001124  4A2E 000A                tst.b      [A6 + 0xA]
00001128  6706                     beq        +0x8 /* 00001130 */
0000112A  206D F200                movea.l    A0, [A5 - 0xE00]
0000112E  A01F                     syscall    DisposPtr/DisposePtr
label00001130:
00001130  4EBA FCA4                jsr        [PC - 0x35C /* 00000DD6 */]
00001134  486E FF00                pea.l      [A6 - 0x100]
00001138  3F3C 0080                move.w     -[A7], 0x80
0000113C  3F2E 0008                move.w     -[A7], [A6 + 0x8]
00001140  4EBA F4D2                jsr        [PC - 0xB2E /* 00000614 */]
00001144  486E FF00                pea.l      [A6 - 0x100]
00001148  486D F99C                pea.l      [A5 - 0x664]
0000114C  486D F99E                pea.l      [A5 - 0x662]
00001150  486D F9A0                pea.l      [A5 - 0x660]
00001154  A98B                     syscall    ParamText
00001156  A850                     syscall    InitCursor
00001158  4267                     clr.w      -[A7]
0000115A  3F3C 0080                move.w     -[A7], 0x80
0000115E  42A7                     clr.l      -[A7]
00001160  A985                     syscall    Alert
00001162  3D5F FEFE                move.w     [A6 - 0x102], [A7]+
00001166  4A2E 000A                tst.b      [A6 + 0xA]
0000116A  6706                     beq        +0x8 /* 00001172 */
0000116C  4EBA FF26                jsr        [PC - 0xDA /* 00001094 */]
00001170  A9F4                     syscall    ExitToShell
label00001172:
00001172  4EBA FC20                jsr        [PC - 0x3E0 /* 00000D94 */]
00001176  4E5E                     unlink     A6
00001178  4E75                     rts
fn0000117A:
0000117A  4E56 FEF6                link       A6, -0x010A
0000117E  48E7 0108                movem.l    -[A7], D7,A4
00001182  42A7                     clr.l      -[A7]
00001184  AA32                     syscall    GetGDevice
00001186  285F                     movea.l    A4, [A7]+
00001188  2F2D F20C                move.l     -[A7], [A5 - 0xDF4]
0000118C  AA31                     syscall    SetGDevice
0000118E  2F2D F218                move.l     -[A7], [A5 - 0xDE8]
00001192  A873                     syscall    SetPort
00001194  206D F218                movea.l    A0, [A5 - 0xDE8]
00001198  4868 0010                pea.l      [A0 + 0x10]
0000119C  A87B                     syscall    ClipRect
0000119E  426E FFFA                clr.w      [A6 - 0x6]
000011A2  426E FFFC                clr.w      [A6 - 0x4]
000011A6  426E FFFE                clr.w      [A6 - 0x2]
000011AA  486E FFFA                pea.l      [A6 - 0x6]
000011AE  AA15                     syscall    RGBBackColor
000011B0  3D7C 7530 FFFA           move.w     [A6 - 0x6], 0x7530 /* 'u0' */
000011B6  3D7C 7530 FFFC           move.w     [A6 - 0x4], 0x7530 /* 'u0' */
000011BC  3D7C FFFF FFFE           move.w     [A6 - 0x2], 0xFFFF
000011C2  486E FFFA                pea.l      [A6 - 0x6]
000011C6  AA14                     syscall    RGBForeColor
000011C8  4267                     clr.w      -[A7]
000011CA  A889                     syscall    TextMode
000011CC  3F3C 0003                move.w     -[A7], 0x3
000011D0  A887                     syscall    TextFont
000011D2  3F3C 0009                move.w     -[A7], 0x9 /* '\t' */
000011D6  A88A                     syscall    TextSize
000011D8  3F3C 0001                move.w     -[A7], 0x1
000011DC  A888                     syscall    TextFace
000011DE  302D F7A6                move.w     D0, [A5 - 0x85A]
000011E2  0640 0135                addi.w     D0, 0x135
000011E6  3F00                     move.w     -[A7], D0
000011E8  302D F7A4                move.w     D0, [A5 - 0x85C]
000011EC  0640 00F0                addi.w     D0, 0xF0
000011F0  3F00                     move.w     -[A7], D0
000011F2  A893                     syscall    MoveTo
000011F4  3E2D F1F8                move.w     D7, [A5 - 0xE08]
000011F8  48C7                     ext.l      D7
000011FA  2F07                     move.l     -[A7], D7
000011FC  486E FEF6                pea.l      [A6 - 0x10A]
00001200  4EBA F3E6                jsr        [PC - 0xC1A /* 000005E8 */]
00001204  486E FEF6                pea.l      [A6 - 0x10A]
00001208  A884                     syscall    DrawString
0000120A  2F2D F3D4                move.l     -[A7], [A5 - 0xC2C]
0000120E  A873                     syscall    SetPort
00001210  206D F3D4                movea.l    A0, [A5 - 0xC2C]
00001214  4868 0010                pea.l      [A0 + 0x10]
00001218  A87B                     syscall    ClipRect
0000121A  426E FFFA                clr.w      [A6 - 0x6]
0000121E  426E FFFC                clr.w      [A6 - 0x4]
00001222  426E FFFE                clr.w      [A6 - 0x2]
00001226  486E FFFA                pea.l      [A6 - 0x6]
0000122A  AA15                     syscall    RGBBackColor
0000122C  3D7C 7530 FFFA           move.w     [A6 - 0x6], 0x7530 /* 'u0' */
00001232  3D7C 7530 FFFC           move.w     [A6 - 0x4], 0x7530 /* 'u0' */
00001238  3D7C FFFF FFFE           move.w     [A6 - 0x2], 0xFFFF
0000123E  486E FFFA                pea.l      [A6 - 0x6]
00001242  AA14                     syscall    RGBForeColor
00001244  4267                     clr.w      -[A7]
00001246  A889                     syscall    TextMode
00001248  3F3C 0003                move.w     -[A7], 0x3
0000124C  A887                     syscall    TextFont
0000124E  3F3C 0009                move.w     -[A7], 0x9 /* '\t' */
00001252  A88A                     syscall    TextSize
00001254  3F3C 0001                move.w     -[A7], 0x1
00001258  A888                     syscall    TextFace
0000125A  302D F79E                move.w     D0, [A5 - 0x862]
0000125E  0640 0135                addi.w     D0, 0x135
00001262  3F00                     move.w     -[A7], D0
00001264  302D F79C                move.w     D0, [A5 - 0x864]
00001268  0640 00F0                addi.w     D0, 0xF0
0000126C  3F00                     move.w     -[A7], D0
0000126E  A893                     syscall    MoveTo
00001270  3E2D F1F8                move.w     D7, [A5 - 0xE08]
00001274  48C7                     ext.l      D7
00001276  2F07                     move.l     -[A7], D7
00001278  486E FEF6                pea.l      [A6 - 0x10A]
0000127C  4EBA F36A                jsr        [PC - 0xC96 /* 000005E8 */]
00001280  486E FEF6                pea.l      [A6 - 0x10A]
00001284  A884                     syscall    DrawString
00001286  3D7C FFFF FFFA           move.w     [A6 - 0x6], 0xFFFF
0000128C  3D7C FFFF FFFC           move.w     [A6 - 0x4], 0xFFFF
00001292  3D7C FFFF FFFE           move.w     [A6 - 0x2], 0xFFFF
00001298  486E FFFA                pea.l      [A6 - 0x6]
0000129C  AA15                     syscall    RGBBackColor
0000129E  426E FFFA                clr.w      [A6 - 0x6]
000012A2  426E FFFC                clr.w      [A6 - 0x4]
000012A6  426E FFFE                clr.w      [A6 - 0x2]
000012AA  486E FFFA                pea.l      [A6 - 0x6]
000012AE  AA14                     syscall    RGBForeColor
000012B0  2F2D F218                move.l     -[A7], [A5 - 0xDE8]
000012B4  A873                     syscall    SetPort
000012B6  2F0C                     move.l     -[A7], A4
000012B8  AA31                     syscall    SetGDevice
000012BA  4CDF 1080                movem.l    D7,A4, [A7]+
000012BE  4E5E                     unlink     A6
000012C0  4E75                     rts
fn000012C2:
000012C2  4E56 0000                link       A6, 0
000012C6  48E7 0018                movem.l    -[A7], A3,A4
000012CA  3F2D F772                move.w     -[A7], [A5 - 0x88E]
000012CE  A998                     syscall    UseResFile
000012D0  42A7                     clr.l      -[A7]
000012D2  2F3C 534F 554E           move.l     -[A7], 0x534F554E /* 'SOUN' */
000012D8  3F3C 0080                move.w     -[A7], 0x80
000012DC  A9A0                     syscall    GetResource
000012DE  285F                     movea.l    A4, [A7]+
000012E0  200C                     move.l     D0, A4
000012E2  6634                     bne        +0x36 /* 00001318 */
000012E4  7002                     moveq.l    D0, 0x02
000012E6  A122                     syscall    NewHandle, flags=1
000012E8  2848                     movea.l    A4, A0
000012EA  200C                     move.l     D0, A4
000012EC  660C                     bne        +0xE /* 000012FA */
000012EE  2F3C 0002 0100           move.l     -[A7], 0x20100
000012F4  4EBA FE2A                jsr        [PC - 0x1D6 /* 00001120 */]
000012F8  588F                     addq.l     A7, 4
label000012FA:
000012FA  2054                     movea.l    A0, [A4]
000012FC  30BC 0007                move.w     [A0], 0x7
00001300  2F0C                     move.l     -[A7], A4
00001302  2F3C 534F 554E           move.l     -[A7], 0x534F554E /* 'SOUN' */
00001308  3F3C 0080                move.w     -[A7], 0x80
0000130C  486D F9A2                pea.l      [A5 - 0x65E]
00001310  A9AB                     syscall    AddResource
00001312  4267                     clr.w      -[A7]
00001314  A994                     syscall    CurResFile
00001316  A999                     syscall    UpdateResFile
label00001318:
00001318  3F2D F782                move.w     -[A7], [A5 - 0x87E]
0000131C  A998                     syscall    UseResFile
0000131E  2054                     movea.l    A0, [A4]
00001320  3B50 F1F8                move.w     [A5 - 0xE08], [A0]
00001324  3F2D F1F8                move.w     -[A7], [A5 - 0xE08]
00001328  4EBA 0ADC                jsr        [PC + 0xADC /* 00001E06 */]
0000132C  3F2D F772                move.w     -[A7], [A5 - 0x88E]
00001330  A998                     syscall    UseResFile
00001332  42A7                     clr.l      -[A7]
00001334  2F3C 434F 4E54           move.l     -[A7], 0x434F4E54 /* 'CONT' */
0000133A  3F3C 0080                move.w     -[A7], 0x80
0000133E  A9A0                     syscall    GetResource
00001340  285F                     movea.l    A4, [A7]+
00001342  200C                     move.l     D0, A4
00001344  6654                     bne        +0x56 /* 0000139A */
00001346  700A                     moveq.l    D0, 0x0A
00001348  A122                     syscall    NewHandle, flags=1
0000134A  2848                     movea.l    A4, A0
0000134C  200C                     move.l     D0, A4
0000134E  660C                     bne        +0xE /* 0000135C */
00001350  2F3C 0002 0100           move.l     -[A7], 0x20100
00001356  4EBA FDC8                jsr        [PC - 0x238 /* 00001120 */]
0000135A  588F                     addq.l     A7, 4
label0000135C:
0000135C  2054                     movea.l    A0, [A4]
0000135E  30BC 003C                move.w     [A0], 0x3C /* '<' */
00001362  2054                     movea.l    A0, [A4]
00001364  317C 003F 0002           move.w     [A0 + 0x2], 0x3F /* '?' */
0000136A  2054                     movea.l    A0, [A4]
0000136C  317C 003D 0004           move.w     [A0 + 0x4], 0x3D /* '=' */
00001372  2054                     movea.l    A0, [A4]
00001374  317C 0030 0006           move.w     [A0 + 0x6], 0x30 /* '0' */
0000137A  2054                     movea.l    A0, [A4]
0000137C  317C 0036 0008           move.w     [A0 + 0x8], 0x36 /* '6' */
00001382  2F0C                     move.l     -[A7], A4
00001384  2F3C 434F 4E54           move.l     -[A7], 0x434F4E54 /* 'CONT' */
0000138A  3F3C 0080                move.w     -[A7], 0x80
0000138E  486D F9A4                pea.l      [A5 - 0x65C]
00001392  A9AB                     syscall    AddResource
00001394  4267                     clr.w      -[A7]
00001396  A994                     syscall    CurResFile
00001398  A999                     syscall    UpdateResFile
label0000139A:
0000139A  3F2D F782                move.w     -[A7], [A5 - 0x87E]
0000139E  A998                     syscall    UseResFile
000013A0  2654                     movea.l    A3, [A4]
000013A2  3B6B 0004 F7B0           move.w     [A5 - 0x850], [A3 + 0x4]
000013A8  3B6B 0006 F7B2           move.w     [A5 - 0x84E], [A3 + 0x6]
000013AE  3B6B 0002 F7B4           move.w     [A5 - 0x84C], [A3 + 0x2]
000013B4  3B53 F7B6                move.w     [A5 - 0x84A], [A3]
000013B8  3B6B 0008 F7B8           move.w     [A5 - 0x848], [A3 + 0x8]
000013BE  4CDF 1800                movem.l    A3,A4, [A7]+
000013C2  4E5E                     unlink     A6
000013C4  4E75                     rts
fn000013C6:
000013C6  4E56 FECE                link       A6, -0x0132
000013CA  48E7 1F18                movem.l    -[A7], D3,D4,D5,D6,D7,A3,A4
000013CE  422D F79B                clr.b      [A5 - 0x865]
000013D2  3F2D F782                move.w     -[A7], [A5 - 0x87E]
000013D6  A998                     syscall    UseResFile
000013D8  486D F79C                pea.l      [A5 - 0x864]
000013DC  42A7                     clr.l      -[A7]
000013DE  2F3C 018E 020E           move.l     -[A7], 0x18E020E
000013E4  A8A7                     syscall    SetRect
000013E6  2B6D F79C F7A4           move.l     [A5 - 0x85C], [A5 - 0x864]
000013EC  2B6D F7A0 F7A8           move.l     [A5 - 0x858], [A5 - 0x860]
000013F2  302D F7AA                move.w     D0, [A5 - 0x856]
000013F6  906D F7A6                sub.w      D0, [A5 - 0x85A]
000013FA  3E2D F76A                move.w     D7, [A5 - 0x896]
000013FE  9E6D F766                sub.w      D7, [A5 - 0x89A]
00001402  9E40                     sub.w      D7, D0
00001404  48C7                     ext.l      D7
00001406  8FFC 0002                divs.w     D7, 0x2
0000140A  302D F7A8                move.w     D0, [A5 - 0x858]
0000140E  906D F7A4                sub.w      D0, [A5 - 0x85C]
00001412  3C2D F768                move.w     D6, [A5 - 0x898]
00001416  9C6D F764                sub.w      D6, [A5 - 0x89C]
0000141A  9C40                     sub.w      D6, D0
0000141C  48C6                     ext.l      D6
0000141E  8DFC 0002                divs.w     D6, 0x2
00001422  486D F7A4                pea.l      [A5 - 0x85C]
00001426  3F07                     move.w     -[A7], D7
00001428  3F06                     move.w     -[A7], D6
0000142A  A8A8                     syscall    OffsetRect
0000142C  2F2D F3D4                move.l     -[A7], [A5 - 0xC2C]
00001430  A873                     syscall    SetPort
00001432  206D F3D4                movea.l    A0, [A5 - 0xC2C]
00001436  4868 0010                pea.l      [A0 + 0x10]
0000143A  A87B                     syscall    ClipRect
0000143C  426E FFFA                clr.w      [A6 - 0x6]
00001440  426E FFFC                clr.w      [A6 - 0x4]
00001444  426E FFFE                clr.w      [A6 - 0x2]
00001448  486E FFFA                pea.l      [A6 - 0x6]
0000144C  AA14                     syscall    RGBForeColor
0000144E  206D F3D4                movea.l    A0, [A5 - 0xC2C]
00001452  2D68 0010 FFE2           move.l     [A6 - 0x1E], [A0 + 0x10]
00001458  2D68 0014 FFE6           move.l     [A6 - 0x1A], [A0 + 0x14]
0000145E  486E FFE2                pea.l      [A6 - 0x1E]
00001462  A8A2                     syscall    PaintRect
00001464  486E FFFA                pea.l      [A6 - 0x6]
00001468  AA15                     syscall    RGBBackColor
0000146A  3D7C 7530 FFFA           move.w     [A6 - 0x6], 0x7530 /* 'u0' */
00001470  3D7C 7530 FFFC           move.w     [A6 - 0x4], 0x7530 /* 'u0' */
00001476  3D7C FFFF FFFE           move.w     [A6 - 0x2], 0xFFFF
0000147C  486E FFFA                pea.l      [A6 - 0x6]
00001480  AA14                     syscall    RGBForeColor
00001482  3D7C 9C40 FFF4           move.w     [A6 - 0xC], 0x9C40
00001488  3D7C 9C40 FFF6           move.w     [A6 - 0xA], 0x9C40
0000148E  3D7C FFFF FFF8           move.w     [A6 - 0x8], 0xFFFF
00001494  3D7C C350 FFEE           move.w     [A6 - 0x12], 0xC350
0000149A  3D7C C350 FFF0           move.w     [A6 - 0x10], 0xC350
000014A0  3D7C FFFF FFF2           move.w     [A6 - 0xE], 0xFFFF
000014A6  42A7                     clr.l      -[A7]
000014A8  3F3C 0081                move.w     -[A7], 0x81
000014AC  A9BC                     syscall    GetPicture
000014AE  285F                     movea.l    A4, [A7]+
000014B0  200C                     move.l     D0, A4
000014B2  660C                     bne        +0xE /* 000014C0 */
000014B4  2F3C 0002 0100           move.l     -[A7], 0x20100
000014BA  4EBA FC64                jsr        [PC - 0x39C /* 00001120 */]
000014BE  588F                     addq.l     A7, 4
label000014C0:
000014C0  204C                     movea.l    A0, A4
000014C2  A04A                     syscall    HNoPurge
000014C4  2D6D F79C FFDA           move.l     [A6 - 0x26], [A5 - 0x864]
000014CA  2D6D F7A0 FFDE           move.l     [A6 - 0x22], [A5 - 0x860]
000014D0  486E FFDA                pea.l      [A6 - 0x26]
000014D4  2F3C 0007 0007           move.l     -[A7], 0x70007
000014DA  A8A9                     syscall    InsetRect
000014DC  2D6E FFDA FFE2           move.l     [A6 - 0x1E], [A6 - 0x26]
000014E2  2D6E FFDE FFE6           move.l     [A6 - 0x1A], [A6 - 0x22]
000014E8  486E FFFA                pea.l      [A6 - 0x6]
000014EC  AA14                     syscall    RGBForeColor
000014EE  486E FFE2                pea.l      [A6 - 0x1E]
000014F2  4878 FFFF                push.l     0xFFFF
000014F6  A8A9                     syscall    InsetRect
000014F8  486E FFE2                pea.l      [A6 - 0x1E]
000014FC  A8A1                     syscall    FrameRect
000014FE  486E FFE2                pea.l      [A6 - 0x1E]
00001502  4878 FFFF                push.l     0xFFFF
00001506  A8A9                     syscall    InsetRect
00001508  486E FFE2                pea.l      [A6 - 0x1E]
0000150C  A8A1                     syscall    FrameRect
0000150E  486E FFF4                pea.l      [A6 - 0xC]
00001512  AA14                     syscall    RGBForeColor
00001514  486E FFE2                pea.l      [A6 - 0x1E]
00001518  4878 FFFF                push.l     0xFFFF
0000151C  A8A9                     syscall    InsetRect
0000151E  486E FFE2                pea.l      [A6 - 0x1E]
00001522  A8A1                     syscall    FrameRect
00001524  486E FFE2                pea.l      [A6 - 0x1E]
00001528  4878 FFFF                push.l     0xFFFF
0000152C  A8A9                     syscall    InsetRect
0000152E  486E FFE2                pea.l      [A6 - 0x1E]
00001532  A8A1                     syscall    FrameRect
00001534  486E FFEE                pea.l      [A6 - 0x12]
00001538  AA14                     syscall    RGBForeColor
0000153A  486E FFE2                pea.l      [A6 - 0x1E]
0000153E  4878 FFFF                push.l     0xFFFF
00001542  A8A9                     syscall    InsetRect
00001544  486E FFE2                pea.l      [A6 - 0x1E]
00001548  A8A1                     syscall    FrameRect
0000154A  486E FFF4                pea.l      [A6 - 0xC]
0000154E  AA14                     syscall    RGBForeColor
00001550  486E FFE2                pea.l      [A6 - 0x1E]
00001554  4878 FFFF                push.l     0xFFFF
00001558  A8A9                     syscall    InsetRect
0000155A  486E FFE2                pea.l      [A6 - 0x1E]
0000155E  A8A1                     syscall    FrameRect
00001560  486E FFFA                pea.l      [A6 - 0x6]
00001564  AA14                     syscall    RGBForeColor
00001566  486E FFE2                pea.l      [A6 - 0x1E]
0000156A  4878 FFFF                push.l     0xFFFF
0000156E  A8A9                     syscall    InsetRect
00001570  486E FFE2                pea.l      [A6 - 0x1E]
00001574  A8A1                     syscall    FrameRect
00001576  486E FFE2                pea.l      [A6 - 0x1E]
0000157A  2F3C 0007 0007           move.l     -[A7], 0x70007
00001580  A8A9                     syscall    InsetRect
00001582  486E FFF4                pea.l      [A6 - 0xC]
00001586  AA14                     syscall    RGBForeColor
00001588  2054                     movea.l    A0, [A4]
0000158A  2D68 0002 FFE2           move.l     [A6 - 0x1E], [A0 + 0x2]
00001590  2D68 0006 FFE6           move.l     [A6 - 0x1A], [A0 + 0x6]
00001596  486E FFE2                pea.l      [A6 - 0x1E]
0000159A  302E FFE4                move.w     D0, [A6 - 0x1C]
0000159E  4440                     neg.w      D0
000015A0  D06E FFDC                add.w      D0, [A6 - 0x24]
000015A4  5A40                     addq.w     D0, 5
000015A6  3F00                     move.w     -[A7], D0
000015A8  302E FFE2                move.w     D0, [A6 - 0x1E]
000015AC  4440                     neg.w      D0
000015AE  D06E FFDA                add.w      D0, [A6 - 0x26]
000015B2  5A40                     addq.w     D0, 5
000015B4  3F00                     move.w     -[A7], D0
000015B6  A8A8                     syscall    OffsetRect
000015B8  7E05                     moveq.l    D7, 0x05
000015BA  DE6E FFE6                add.w      D7, [A6 - 0x1A]
000015BE  7C05                     moveq.l    D6, 0x05
000015C0  DC6E FFE8                add.w      D6, [A6 - 0x18]
000015C4  3F06                     move.w     -[A7], D6
000015C6  3F2E FFDA                move.w     -[A7], [A6 - 0x26]
000015CA  A893                     syscall    MoveTo
000015CC  3F06                     move.w     -[A7], D6
000015CE  3F2E FFDE                move.w     -[A7], [A6 - 0x22]
000015D2  A891                     syscall    LineTo
000015D4  3F2E FFDC                move.w     -[A7], [A6 - 0x24]
000015D8  3F07                     move.w     -[A7], D7
000015DA  A893                     syscall    MoveTo
000015DC  3F06                     move.w     -[A7], D6
000015DE  3F07                     move.w     -[A7], D7
000015E0  A891                     syscall    LineTo
000015E2  3F06                     move.w     -[A7], D6
000015E4  302E FFDA                move.w     D0, [A6 - 0x26]
000015E8  0640 0107                addi.w     D0, 0x107
000015EC  3F00                     move.w     -[A7], D0
000015EE  A893                     syscall    MoveTo
000015F0  3F2E FFE0                move.w     -[A7], [A6 - 0x20]
000015F4  302E FFDA                move.w     D0, [A6 - 0x26]
000015F8  0640 0107                addi.w     D0, 0x107
000015FC  3F00                     move.w     -[A7], D0
000015FE  A891                     syscall    LineTo
00001600  2F0C                     move.l     -[A7], A4
00001602  486E FFE2                pea.l      [A6 - 0x1E]
00001606  A8F6                     syscall    DrawPicture
00001608  204C                     movea.l    A0, A4
0000160A  A049                     syscall    HPurge
0000160C  3D7C 7530 FFFA           move.w     [A6 - 0x6], 0x7530 /* 'u0' */
00001612  3D7C 7530 FFFC           move.w     [A6 - 0x4], 0x7530 /* 'u0' */
00001618  3D7C FFFF FFFE           move.w     [A6 - 0x2], 0xFFFF
0000161E  486E FFFA                pea.l      [A6 - 0x6]
00001622  AA14                     syscall    RGBForeColor
00001624  3F3C 0003                move.w     -[A7], 0x3
00001628  A887                     syscall    TextFont
0000162A  3F3C 0009                move.w     -[A7], 0x9 /* '\t' */
0000162E  A88A                     syscall    TextSize
00001630  3F3C 0005                move.w     -[A7], 0x5
00001634  A888                     syscall    TextFace
00001636  486E FEDA                pea.l      [A6 - 0x126]
0000163A  2F3C 0013 0080           move.l     -[A7], 0x130080
00001640  4EBA EFD2                jsr        [PC - 0x102E /* 00000614 */]
00001644  7A0D                     moveq.l    D5, 0x0D
00001646  DA46                     add.w      D5, D6
00001648  3F05                     move.w     -[A7], D5
0000164A  302E FFDA                move.w     D0, [A6 - 0x26]
0000164E  0640 011C                addi.w     D0, 0x11C
00001652  3F00                     move.w     -[A7], D0
00001654  A893                     syscall    MoveTo
00001656  486E FEDA                pea.l      [A6 - 0x126]
0000165A  A884                     syscall    DrawString
0000165C  3D7C FFFF FFFA           move.w     [A6 - 0x6], 0xFFFF
00001662  3D7C FFFF FFFC           move.w     [A6 - 0x4], 0xFFFF
00001668  3D7C FFFF FFFE           move.w     [A6 - 0x2], 0xFFFF
0000166E  486E FFFA                pea.l      [A6 - 0x6]
00001672  AA14                     syscall    RGBForeColor
00001674  3F3C 0001                move.w     -[A7], 0x1
00001678  A888                     syscall    TextFace
0000167A  7812                     moveq.l    D4, 0x12
0000167C  D846                     add.w      D4, D6
0000167E  3F04                     move.w     -[A7], D4
00001680  302E FFDA                move.w     D0, [A6 - 0x26]
00001684  0640 0128                addi.w     D0, 0x128
00001688  3F00                     move.w     -[A7], D0
0000168A  A893                     syscall    MoveTo
0000168C  3F3C 01FE                move.w     -[A7], 0x1FE
00001690  4EAD 01D2                jsr        [A5 + 0x1D2 /* export_54, CODE:4 @ 00000202 */]
00001694  2840                     movea.l    A4, D0
00001696  2F14                     move.l     -[A7], [A4]
00001698  A884                     syscall    DrawString
0000169A  3D7C 7530 FFFA           move.w     [A6 - 0x6], 0x7530 /* 'u0' */
000016A0  3D7C 7530 FFFC           move.w     [A6 - 0x4], 0x7530 /* 'u0' */
000016A6  3D7C FFFF FFFE           move.w     [A6 - 0x2], 0xFFFF
000016AC  486E FFFA                pea.l      [A6 - 0x6]
000016B0  AA14                     syscall    RGBForeColor
000016B2  3EBC 0003                move.w     [A7], 0x3
000016B6  A887                     syscall    TextFont
000016B8  3F3C 0009                move.w     -[A7], 0x9 /* '\t' */
000016BC  A88A                     syscall    TextSize
000016BE  3F3C 0005                move.w     -[A7], 0x5
000016C2  A888                     syscall    TextFace
000016C4  486E FEDA                pea.l      [A6 - 0x126]
000016C8  2F3C 0014 0080           move.l     -[A7], 0x140080
000016CE  4EBA EF44                jsr        [PC - 0x10BC /* 00000614 */]
000016D2  7005                     moveq.l    D0, 0x05
000016D4  D046                     add.w      D0, D6
000016D6  3F00                     move.w     -[A7], D0
000016D8  302E FFDA                move.w     D0, [A6 - 0x26]
000016DC  0640 0140                addi.w     D0, 0x140
000016E0  3F00                     move.w     -[A7], D0
000016E2  A893                     syscall    MoveTo
000016E4  486E FEDA                pea.l      [A6 - 0x126]
000016E8  A884                     syscall    DrawString
000016EA  3D7C FFFF FFFA           move.w     [A6 - 0x6], 0xFFFF
000016F0  3D7C FFFF FFFC           move.w     [A6 - 0x4], 0xFFFF
000016F6  3D7C FFFF FFFE           move.w     [A6 - 0x2], 0xFFFF
000016FC  486E FFFA                pea.l      [A6 - 0x6]
00001700  AA14                     syscall    RGBForeColor
00001702  3F3C 0001                move.w     -[A7], 0x1
00001706  A888                     syscall    TextFace
00001708  3F04                     move.w     -[A7], D4
0000170A  302E FFDA                move.w     D0, [A6 - 0x26]
0000170E  0640 014C                addi.w     D0, 0x14C
00001712  3F00                     move.w     -[A7], D0
00001714  A893                     syscall    MoveTo
00001716  2054                     movea.l    A0, [A4]
00001718  3828 0200                move.w     D4, [A0 + 0x200]
0000171C  3244                     movea.w    A1, D4
0000171E  2F09                     move.l     -[A7], A1
00001720  486E FEDA                pea.l      [A6 - 0x126]
00001724  4EBA EEC2                jsr        [PC - 0x113E /* 000005E8 */]
00001728  4A44                     tst.w      D4
0000172A  660E                     bne        +0x10 /* 0000173A */
0000172C  486E FEDA                pea.l      [A6 - 0x126]
00001730  2F3C 0029 02BC           move.l     -[A7], 0x2902BC
00001736  4EBA EEDC                jsr        [PC - 0x1124 /* 00000614 */]
label0000173A:
0000173A  486E FEDA                pea.l      [A6 - 0x126]
0000173E  A884                     syscall    DrawString
00001740  204C                     movea.l    A0, A4
00001742  A023                     syscall    DisposHandle/DisposeHandle
00001744  3F05                     move.w     -[A7], D5
00001746  302E FFDA                move.w     D0, [A6 - 0x26]
0000174A  0640 016A                addi.w     D0, 0x16A
0000174E  3F00                     move.w     -[A7], D0
00001750  A893                     syscall    MoveTo
00001752  3F3C 01FE                move.w     -[A7], 0x1FE
00001756  4EAD 01CA                jsr        [A5 + 0x1CA /* export_53, CODE:4 @ 00000144 */]
0000175A  4A00                     tst.b      D0
0000175C  548F                     addq.l     A7, 2
0000175E  6710                     beq        +0x12 /* 00001770 */
00001760  486E FEDA                pea.l      [A6 - 0x126]
00001764  2F3C 0016 0080           move.l     -[A7], 0x160080
0000176A  4EBA EEA8                jsr        [PC - 0x1158 /* 00000614 */]
0000176E  600E                     bra        +0x10 /* 0000177E */
label00001770:
00001770  486E FEDA                pea.l      [A6 - 0x126]
00001774  2F3C 0015 0080           move.l     -[A7], 0x150080
0000177A  4EBA EE98                jsr        [PC - 0x1168 /* 00000614 */]
label0000177E:
0000177E  486E FEDA                pea.l      [A6 - 0x126]
00001782  A884                     syscall    DrawString
00001784  4EBA FB3C                jsr        [PC - 0x4C4 /* 000012C2 */]
00001788  3F2D F772                move.w     -[A7], [A5 - 0x88E]
0000178C  A998                     syscall    UseResFile
0000178E  42A7                     clr.l      -[A7]
00001790  2F3C 5343 4F52           move.l     -[A7], 0x53434F52 /* 'SCOR' */
00001796  3F3C 0080                move.w     -[A7], 0x80
0000179A  A9A0                     syscall    GetResource
0000179C  285F                     movea.l    A4, [A7]+
0000179E  200C                     move.l     D0, A4
000017A0  6656                     bne        +0x58 /* 000017F8 */
000017A2  203C 0000 0104           move.l     D0, 0x104
000017A8  A122                     syscall    NewHandle, flags=1
000017AA  2848                     movea.l    A4, A0
000017AC  200C                     move.l     D0, A4
000017AE  660C                     bne        +0xE /* 000017BC */
000017B0  2F3C 0002 0100           move.l     -[A7], 0x20100
000017B6  4EBA F968                jsr        [PC - 0x698 /* 00001120 */]
000017BA  588F                     addq.l     A7, 4
label000017BC:
000017BC  7800                     moveq.l    D4, 0x00
000017BE  97CB                     sub.l      A3, A3
000017C0  6018                     bra        +0x1A /* 000017DA */
label000017C2:
000017C2  2014                     move.l     D0, [A4]
000017C4  4273 0814                clr.w      [A3 + D0 + 0x14]
000017C8  2014                     move.l     D0, [A4]
000017CA  42B3 0816                clr.l      [A3 + D0 + 0x16]
000017CE  204B                     movea.l    A0, A3
000017D0  D1D4                     add.l      A0, [A4]
000017D2  4210                     clr.b      [A0]
000017D4  5244                     addq.w     D4, 1
000017D6  47EB 001A                lea.l      A3, [A3 + 0x1A]
label000017DA:
000017DA  0C44 000A                cmpi.w     D4, 0xA /* '\n' */
000017DE  6DE2                     blt        -0x1C /* 000017C2 */
000017E0  2F0C                     move.l     -[A7], A4
000017E2  2F3C 5343 4F52           move.l     -[A7], 0x53434F52 /* 'SCOR' */
000017E8  3F3C 0080                move.w     -[A7], 0x80
000017EC  486D F9A6                pea.l      [A5 - 0x65A]
000017F0  A9AB                     syscall    AddResource
000017F2  4267                     clr.w      -[A7]
000017F4  A994                     syscall    CurResFile
000017F6  A999                     syscall    UpdateResFile
label000017F8:
000017F8  3F2D F782                move.w     -[A7], [A5 - 0x87E]
000017FC  A998                     syscall    UseResFile
000017FE  3F3C 0002                move.w     -[A7], 0x2
00001802  A887                     syscall    TextFont
00001804  3F3C 0012                move.w     -[A7], 0x12
00001808  A88A                     syscall    TextSize
0000180A  3F3C 0004                move.w     -[A7], 0x4
0000180E  A888                     syscall    TextFace
00001810  3D7C FFFF FFFA           move.w     [A6 - 0x6], 0xFFFF
00001816  3D7C FFFF FFFC           move.w     [A6 - 0x4], 0xFFFF
0000181C  426E FFFE                clr.w      [A6 - 0x2]
00001820  486E FFFA                pea.l      [A6 - 0x6]
00001824  AA14                     syscall    RGBForeColor
00001826  7A16                     moveq.l    D5, 0x16
00001828  DA47                     add.w      D5, D7
0000182A  7005                     moveq.l    D0, 0x05
0000182C  D06E FFDC                add.w      D0, [A6 - 0x24]
00001830  3F00                     move.w     -[A7], D0
00001832  3F05                     move.w     -[A7], D5
00001834  A893                     syscall    MoveTo
00001836  486D F9A8                pea.l      [A5 - 0x658]
0000183A  A884                     syscall    DrawString
0000183C  302E FFDC                move.w     D0, [A6 - 0x24]
00001840  0640 00B9                addi.w     D0, 0xB9
00001844  3F00                     move.w     -[A7], D0
00001846  3F05                     move.w     -[A7], D5
00001848  A893                     syscall    MoveTo
0000184A  486D F9AE                pea.l      [A5 - 0x652]
0000184E  A884                     syscall    DrawString
00001850  206D F1E6                movea.l    A0, [A5 - 0xE1A]
00001854  3D68 0032 FED2           move.w     [A6 - 0x12E], [A0 + 0x32]
0000185A  302E FFDC                move.w     D0, [A6 - 0x24]
0000185E  0640 00F5                addi.w     D0, 0xF5
00001862  3F00                     move.w     -[A7], D0
00001864  3F05                     move.w     -[A7], D5
00001866  A893                     syscall    MoveTo
00001868  486D F9B4                pea.l      [A5 - 0x64C]
0000186C  A884                     syscall    DrawString
0000186E  206D F1E6                movea.l    A0, [A5 - 0xE1A]
00001872  7AF6                     moveq.l    D5, 0xFFFFFFF6
00001874  DA68 0032                add.w      D5, [A0 + 0x32]
00001878  3D7C 7530 FFFA           move.w     [A6 - 0x6], 0x7530 /* 'u0' */
0000187E  3D7C 7530 FFFC           move.w     [A6 - 0x4], 0x7530 /* 'u0' */
00001884  3D7C 7530 FFFE           move.w     [A6 - 0x2], 0x7530 /* 'u0' */
0000188A  486E FFFA                pea.l      [A6 - 0x6]
0000188E  AA14                     syscall    RGBForeColor
00001890  204C                     movea.l    A0, A4
00001892  A029                     syscall    HLock
00001894  3F3C 0002                move.w     -[A7], 0x2
00001898  A887                     syscall    TextFont
0000189A  3F3C 000E                move.w     -[A7], 0xE
0000189E  A88A                     syscall    TextSize
000018A0  3F3C 0001                move.w     -[A7], 0x1
000018A4  A888                     syscall    TextFace
000018A6  2054                     movea.l    A0, [A4]
000018A8  2B68 0016 F76C           move.l     [A5 - 0x894], [A0 + 0x16]
000018AE  7800                     moveq.l    D4, 0x00
000018B0  702A                     moveq.l    D0, 0x2A
000018B2  D047                     add.w      D0, D7
000018B4  3D40 FED0                move.w     [A6 - 0x130], D0
000018B8  721A                     moveq.l    D1, 0x1A
000018BA  C3C4                     muls.w     D1, D4
000018BC  2641                     movea.l    A3, D1
000018BE  7612                     moveq.l    D3, 0x12
000018C0  C7C4                     muls.w     D3, D4
000018C2  6000 00C6                bra        +0xC8 /* 0000198A */
label000018C6:
000018C6  B86D F770                cmp.w      D4, [A5 - 0x890]
000018CA  661A                     bne        +0x1C /* 000018E6 */
000018CC  3D7C FFFF FFFA           move.w     [A6 - 0x6], 0xFFFF
000018D2  3D7C FFFF FFFC           move.w     [A6 - 0x4], 0xFFFF
000018D8  3D7C FFFF FFFE           move.w     [A6 - 0x2], 0xFFFF
000018DE  486E FFFA                pea.l      [A6 - 0x6]
000018E2  AA14                     syscall    RGBForeColor
000018E4  6018                     bra        +0x1A /* 000018FE */
label000018E6:
000018E6  3D7C 7530 FFFA           move.w     [A6 - 0x6], 0x7530 /* 'u0' */
000018EC  3D7C 7530 FFFC           move.w     [A6 - 0x4], 0x7530 /* 'u0' */
000018F2  3D7C 7530 FFFE           move.w     [A6 - 0x2], 0x7530 /* 'u0' */
000018F8  486E FFFA                pea.l      [A6 - 0x6]
000018FC  AA14                     syscall    RGBForeColor
label000018FE:
000018FE  7005                     moveq.l    D0, 0x05
00001900  D06E FFDC                add.w      D0, [A6 - 0x24]
00001904  3F00                     move.w     -[A7], D0
00001906  302E FED0                move.w     D0, [A6 - 0x130]
0000190A  D043                     add.w      D0, D3
0000190C  3F00                     move.w     -[A7], D0
0000190E  A893                     syscall    MoveTo
00001910  204B                     movea.l    A0, A3
00001912  D1D4                     add.l      A0, [A4]
00001914  2F08                     move.l     -[A7], A0
00001916  A884                     syscall    DrawString
00001918  2014                     move.l     D0, [A4]
0000191A  2F33 0816                move.l     -[A7], [A3 + D0 + 0x16]
0000191E  486E FEDA                pea.l      [A6 - 0x126]
00001922  4EBA ECC4                jsr        [PC - 0x133C /* 000005E8 */]
00001926  4267                     clr.w      -[A7]
00001928  486E FEDA                pea.l      [A6 - 0x126]
0000192C  A88C                     syscall    StringWidth
0000192E  3D5F FECE                move.w     [A6 - 0x132], [A7]+
00001932  302E FED2                move.w     D0, [A6 - 0x12E]
00001936  906E FECE                sub.w      D0, [A6 - 0x132]
0000193A  3F00                     move.w     -[A7], D0
0000193C  302E FED0                move.w     D0, [A6 - 0x130]
00001940  D043                     add.w      D0, D3
00001942  3F00                     move.w     -[A7], D0
00001944  A893                     syscall    MoveTo
00001946  486E FEDA                pea.l      [A6 - 0x126]
0000194A  A884                     syscall    DrawString
0000194C  2014                     move.l     D0, [A4]
0000194E  3073 0814                movea.w    A0, [A3 + D0 + 0x14]
00001952  2F08                     move.l     -[A7], A0
00001954  486E FEDA                pea.l      [A6 - 0x126]
00001958  4EBA EC8E                jsr        [PC - 0x1372 /* 000005E8 */]
0000195C  4267                     clr.w      -[A7]
0000195E  486E FEDA                pea.l      [A6 - 0x126]
00001962  A88C                     syscall    StringWidth
00001964  3D5F FECE                move.w     [A6 - 0x132], [A7]+
00001968  3005                     move.w     D0, D5
0000196A  906E FECE                sub.w      D0, [A6 - 0x132]
0000196E  3F00                     move.w     -[A7], D0
00001970  302E FED0                move.w     D0, [A6 - 0x130]
00001974  D043                     add.w      D0, D3
00001976  3F00                     move.w     -[A7], D0
00001978  A893                     syscall    MoveTo
0000197A  486E FEDA                pea.l      [A6 - 0x126]
0000197E  A884                     syscall    DrawString
00001980  5244                     addq.w     D4, 1
00001982  47EB 001A                lea.l      A3, [A3 + 0x1A]
00001986  0643 0012                addi.w     D3, 0x12
label0000198A:
0000198A  0C44 000A                cmpi.w     D4, 0xA /* '\n' */
0000198E  6D00 FF36                blt        -0xC8 /* 000018C6 */
00001992  204C                     movea.l    A0, A4
00001994  A02A                     syscall    HUnlock
00001996  4267                     clr.w      -[A7]
00001998  A888                     syscall    TextFace
0000199A  3F3C 0012                move.w     -[A7], 0x12
0000199E  A88A                     syscall    TextSize
000019A0  3D7C FFFF FFFA           move.w     [A6 - 0x6], 0xFFFF
000019A6  3D7C FFFF FFFC           move.w     [A6 - 0x4], 0xFFFF
000019AC  3D7C FFFF FFFE           move.w     [A6 - 0x2], 0xFFFF
000019B2  486E FFFA                pea.l      [A6 - 0x6]
000019B6  AA14                     syscall    RGBForeColor
000019B8  7005                     moveq.l    D0, 0x05
000019BA  D06E FFDC                add.w      D0, [A6 - 0x24]
000019BE  3F00                     move.w     -[A7], D0
000019C0  3007                     move.w     D0, D7
000019C2  0640 00E2                addi.w     D0, 0xE2
000019C6  3F00                     move.w     -[A7], D0
000019C8  A893                     syscall    MoveTo
000019CA  486D F9BA                pea.l      [A5 - 0x646]
000019CE  A884                     syscall    DrawString
000019D0  2F2D F7C8                move.l     -[A7], [A5 - 0x838]
000019D4  486E FEDA                pea.l      [A6 - 0x126]
000019D8  4EBA EC0E                jsr        [PC - 0x13F2 /* 000005E8 */]
000019DC  486E FEDA                pea.l      [A6 - 0x126]
000019E0  A884                     syscall    DrawString
000019E2  3F3C 0001                move.w     -[A7], 0x1
000019E6  A888                     syscall    TextFace
000019E8  3F3C 0009                move.w     -[A7], 0x9 /* '\t' */
000019EC  A88A                     syscall    TextSize
000019EE  3F3C 0003                move.w     -[A7], 0x3
000019F2  A887                     syscall    TextFont
000019F4  3F3C 0001                move.w     -[A7], 0x1
000019F8  A889                     syscall    TextMode
000019FA  7E22                     moveq.l    D7, 0x22
000019FC  7A0A                     moveq.l    D5, 0x0A
000019FE  DA46                     add.w      D5, D6
00001A00  3D45 FED8                move.w     [A6 - 0x128], D5
00001A04  700A                     moveq.l    D0, 0x0A
00001A06  D06E FFDA                add.w      D0, [A6 - 0x26]
00001A0A  3D40 FED6                move.w     [A6 - 0x12A], D0
00001A0E  486D F9C8                pea.l      [A5 - 0x638]
00001A12  486D F9E2                pea.l      [A5 - 0x61E]
00001A16  2F2E FED6                move.l     -[A7], [A6 - 0x12A]
00001A1A  4EBA 0144                jsr        [PC + 0x144 /* 00001B60 */]
00001A1E  3D45 FED8                move.w     [A6 - 0x128], D5
00001A22  DF6E FED6                add.w      [A6 - 0x12A], D7
00001A26  486D F9E4                pea.l      [A5 - 0x61C]
00001A2A  486D FA02                pea.l      [A5 - 0x5FE]
00001A2E  2F2E FED6                move.l     -[A7], [A6 - 0x12A]
00001A32  4EBA 012C                jsr        [PC + 0x12C /* 00001B60 */]
00001A36  3D45 FED8                move.w     [A6 - 0x128], D5
00001A3A  DF6E FED6                add.w      [A6 - 0x12A], D7
00001A3E  486D FA04                pea.l      [A5 - 0x5FC]
00001A42  486D FA1A                pea.l      [A5 - 0x5E6]
00001A46  2F2E FED6                move.l     -[A7], [A6 - 0x12A]
00001A4A  4EBA 0114                jsr        [PC + 0x114 /* 00001B60 */]
00001A4E  3D45 FED8                move.w     [A6 - 0x128], D5
00001A52  DF6E FED6                add.w      [A6 - 0x12A], D7
00001A56  486D FA1C                pea.l      [A5 - 0x5E4]
00001A5A  486D FA30                pea.l      [A5 - 0x5D0]
00001A5E  2F2E FED6                move.l     -[A7], [A6 - 0x12A]
00001A62  4EBA 00FC                jsr        [PC + 0xFC /* 00001B60 */]
00001A66  3D45 FED8                move.w     [A6 - 0x128], D5
00001A6A  DF6E FED6                add.w      [A6 - 0x12A], D7
00001A6E  486D FA32                pea.l      [A5 - 0x5CE]
00001A72  486D FA4C                pea.l      [A5 - 0x5B4]
00001A76  2F2E FED6                move.l     -[A7], [A6 - 0x12A]
00001A7A  4EBA 00E4                jsr        [PC + 0xE4 /* 00001B60 */]
00001A7E  3D45 FED8                move.w     [A6 - 0x128], D5
00001A82  DF6E FED6                add.w      [A6 - 0x12A], D7
00001A86  486D FA4E                pea.l      [A5 - 0x5B2]
00001A8A  486D FA5E                pea.l      [A5 - 0x5A2]
00001A8E  2F2E FED6                move.l     -[A7], [A6 - 0x12A]
00001A92  4EBA 00CC                jsr        [PC + 0xCC /* 00001B60 */]
00001A96  3D45 FED8                move.w     [A6 - 0x128], D5
00001A9A  DF6E FED6                add.w      [A6 - 0x12A], D7
00001A9E  486D FA60                pea.l      [A5 - 0x5A0]
00001AA2  486D FA62                pea.l      [A5 - 0x59E]
00001AA6  2F2E FED6                move.l     -[A7], [A6 - 0x12A]
00001AAA  4EBA 00B4                jsr        [PC + 0xB4 /* 00001B60 */]
00001AAE  7022                     moveq.l    D0, 0x22
00001AB0  D06E FED8                add.w      D0, [A6 - 0x128]
00001AB4  3E80                     move.w     [A7], D0
00001AB6  7014                     moveq.l    D0, 0x14
00001AB8  D06E FED6                add.w      D0, [A6 - 0x12A]
00001ABC  3F00                     move.w     -[A7], D0
00001ABE  A893                     syscall    MoveTo
00001AC0  486D FA64                pea.l      [A5 - 0x59C]
00001AC4  A884                     syscall    DrawString
00001AC6  7032                     moveq.l    D0, 0x32
00001AC8  D046                     add.w      D0, D6
00001ACA  3D40 FED8                move.w     [A6 - 0x128], D0
00001ACE  486D FA66                pea.l      [A5 - 0x59A]
00001AD2  486D FA78                pea.l      [A5 - 0x588]
00001AD6  2F2E FED6                move.l     -[A7], [A6 - 0x12A]
00001ADA  4EBA 0084                jsr        [PC + 0x84 /* 00001B60 */]
00001ADE  3D7C FFFF FFFA           move.w     [A6 - 0x6], 0xFFFF
00001AE4  3D7C FFFF FFFC           move.w     [A6 - 0x4], 0xFFFF
00001AEA  3D7C FFFF FFFE           move.w     [A6 - 0x2], 0xFFFF
00001AF0  486E FFFA                pea.l      [A6 - 0x6]
00001AF4  AA14                     syscall    RGBForeColor
00001AF6  3E85                     move.w     [A7], D5
00001AF8  302E FFDA                move.w     D0, [A6 - 0x26]
00001AFC  0640 0103                addi.w     D0, 0x103
00001B00  3F00                     move.w     -[A7], D0
00001B02  A893                     syscall    MoveTo
00001B04  486D FA7A                pea.l      [A5 - 0x586]
00001B08  A884                     syscall    DrawString
00001B0A  4257                     clr.w      [A7]
00001B0C  A888                     syscall    TextFace
00001B0E  7014                     moveq.l    D0, 0x14
00001B10  D06E FFDC                add.w      D0, [A6 - 0x24]
00001B14  3E80                     move.w     [A7], D0
00001B16  302E FFDA                move.w     D0, [A6 - 0x26]
00001B1A  0640 0097                addi.w     D0, 0x97
00001B1E  3F00                     move.w     -[A7], D0
00001B20  A893                     syscall    MoveTo
00001B22  486D FA9A                pea.l      [A5 - 0x566]
00001B26  A884                     syscall    DrawString
00001B28  3D7C FFFF FFFA           move.w     [A6 - 0x6], 0xFFFF
00001B2E  3D7C FFFF FFFC           move.w     [A6 - 0x4], 0xFFFF
00001B34  3D7C FFFF FFFE           move.w     [A6 - 0x2], 0xFFFF
00001B3A  486E FFFA                pea.l      [A6 - 0x6]
00001B3E  AA15                     syscall    RGBBackColor
00001B40  426E FFFA                clr.w      [A6 - 0x6]
00001B44  426E FFFC                clr.w      [A6 - 0x4]
00001B48  426E FFFE                clr.w      [A6 - 0x2]
00001B4C  486E FFFA                pea.l      [A6 - 0x6]
00001B50  AA14                     syscall    RGBForeColor
00001B52  4EBA F626                jsr        [PC - 0x9DA /* 0000117A */]
00001B56  4CEE 18F8 FEB2           movem.l    D3,D4,D5,D6,D7,A3,A4, [A6 - 0x14E]
00001B5C  4E5E                     unlink     A6
00001B5E  4E75                     rts
fn00001B60:
00001B60  4E56 FFF2                link       A6, -0x000E
00001B64  3F3C 0001                move.w     -[A7], 0x1
00001B68  A888                     syscall    TextFace
00001B6A  3F3C 0009                move.w     -[A7], 0x9 /* '\t' */
00001B6E  A88A                     syscall    TextSize
00001B70  3F3C 0003                move.w     -[A7], 0x3
00001B74  A887                     syscall    TextFont
00001B76  3F3C 0001                move.w     -[A7], 0x1
00001B7A  A889                     syscall    TextMode
00001B7C  486E FFF8                pea.l      [A6 - 0x8]
00001B80  42A7                     clr.l      -[A7]
00001B82  2F3C 0020 0020           move.l     -[A7], 0x200020 /* ' \0 ' */
00001B88  A8A7                     syscall    SetRect
00001B8A  486E FFF8                pea.l      [A6 - 0x8]
00001B8E  3F2E 000A                move.w     -[A7], [A6 + 0xA]
00001B92  3F2E 0008                move.w     -[A7], [A6 + 0x8]
00001B96  A8A8                     syscall    OffsetRect
00001B98  4A2D F1F5                tst.b      [A5 - 0xE0B]
00001B9C  670C                     beq        +0xE /* 00001BAA */
00001B9E  486E FFF8                pea.l      [A6 - 0x8]
00001BA2  2F2D F988                move.l     -[A7], [A5 - 0x678]
00001BA6  AA1F                     syscall    PlotCIcon
00001BA8  600A                     bra        +0xC /* 00001BB4 */
label00001BAA:
00001BAA  486E FFF8                pea.l      [A6 - 0x8]
00001BAE  2F2D F980                move.l     -[A7], [A5 - 0x680]
00001BB2  AA1F                     syscall    PlotCIcon
label00001BB4:
00001BB4  3D7C FFFF FFF2           move.w     [A6 - 0xE], 0xFFFF
00001BBA  3D7C FFFF FFF4           move.w     [A6 - 0xC], 0xFFFF
00001BC0  3D7C FFFF FFF6           move.w     [A6 - 0xA], 0xFFFF
00001BC6  4A2D F1F5                tst.b      [A5 - 0xE0B]
00001BCA  670C                     beq        +0xE /* 00001BD8 */
00001BCC  426E FFF2                clr.w      [A6 - 0xE]
00001BD0  426E FFF4                clr.w      [A6 - 0xC]
00001BD4  426E FFF6                clr.w      [A6 - 0xA]
label00001BD8:
00001BD8  486E FFF2                pea.l      [A6 - 0xE]
00001BDC  AA14                     syscall    RGBForeColor
00001BDE  700E                     moveq.l    D0, 0x0E
00001BE0  D06E FFFA                add.w      D0, [A6 - 0x6]
00001BE4  3F00                     move.w     -[A7], D0
00001BE6  7014                     moveq.l    D0, 0x14
00001BE8  D06E FFF8                add.w      D0, [A6 - 0x8]
00001BEC  3F00                     move.w     -[A7], D0
00001BEE  A893                     syscall    MoveTo
00001BF0  2F2E 000C                move.l     -[A7], [A6 + 0xC]
00001BF4  A884                     syscall    DrawString
00001BF6  426E FFF2                clr.w      [A6 - 0xE]
00001BFA  426E FFF4                clr.w      [A6 - 0xC]
00001BFE  426E FFF6                clr.w      [A6 - 0xA]
00001C02  4A2D F1F5                tst.b      [A5 - 0xE0B]
00001C06  670E                     beq        +0x10 /* 00001C16 */
00001C08  426E FFF2                clr.w      [A6 - 0xE]
00001C0C  3D7C FFFF FFF4           move.w     [A6 - 0xC], 0xFFFF
00001C12  426E FFF6                clr.w      [A6 - 0xA]
label00001C16:
00001C16  486E FFF2                pea.l      [A6 - 0xE]
00001C1A  AA14                     syscall    RGBForeColor
00001C1C  700D                     moveq.l    D0, 0x0D
00001C1E  D06E FFFA                add.w      D0, [A6 - 0x6]
00001C22  3F00                     move.w     -[A7], D0
00001C24  7013                     moveq.l    D0, 0x13
00001C26  D06E FFF8                add.w      D0, [A6 - 0x8]
00001C2A  3F00                     move.w     -[A7], D0
00001C2C  A893                     syscall    MoveTo
00001C2E  2F2E 000C                move.l     -[A7], [A6 + 0xC]
00001C32  A884                     syscall    DrawString
00001C34  3D7C FFFF FFF2           move.w     [A6 - 0xE], 0xFFFF
00001C3A  3D7C FFFF FFF4           move.w     [A6 - 0xC], 0xFFFF
00001C40  426E FFF6                clr.w      [A6 - 0xA]
00001C44  486E FFF2                pea.l      [A6 - 0xE]
00001C48  AA14                     syscall    RGBForeColor
00001C4A  7003                     moveq.l    D0, 0x03
00001C4C  D06E FFFE                add.w      D0, [A6 - 0x2]
00001C50  3F00                     move.w     -[A7], D0
00001C52  7013                     moveq.l    D0, 0x13
00001C54  D06E FFF8                add.w      D0, [A6 - 0x8]
00001C58  3F00                     move.w     -[A7], D0
00001C5A  A893                     syscall    MoveTo
00001C5C  2F2E 0010                move.l     -[A7], [A6 + 0x10]
00001C60  A884                     syscall    DrawString
00001C62  4E5E                     unlink     A6
00001C64  4E75                     rts
export_17:
00001C66  4E56 FFFC                link       A6, -0x0004
00001C6A  2F07                     move.l     -[A7], D7
00001C6C  7E00                     moveq.l    D7, 0x00
00001C6E  4A2D FAA0                tst.b      [A5 - 0x560]
00001C72  670A                     beq        +0xC /* 00001C7E */
00001C74  3D7C FFFE 0008           move.w     [A6 + 0x8], 0xFFFE
00001C7A  6000 011C                bra        +0x11E /* 00001D98 */
label00001C7E:
00001C7E  1B7C 0001 FAA0           move.b     [A5 - 0x560], 0x1
00001C84  4267                     clr.w      -[A7]
00001C86  2F3C 736E 6420           move.l     -[A7], 0x736E6420 /* 'snd ' */
00001C8C  486E FFFC                pea.l      [A6 - 0x4]
00001C90  4EBA E4D8                jsr        [PC - 0x1B28 /* 0000016A */]
00001C94  4A5F                     tst.w      [A7]+
00001C96  6706                     beq        +0x8 /* 00001C9E */
00001C98  7EFD                     moveq.l    D7, 0xFFFFFFFD
00001C9A  6000 00F0                bra        +0xF2 /* 00001D8C */
label00001C9E:
00001C9E  202E FFFC                move.l     D0, [A6 - 0x4]
00001CA2  C0BC 0000 0000           and.l      D0, 0x0
00001CA8  6706                     beq        +0x8 /* 00001CB0 */
00001CAA  7EFD                     moveq.l    D7, 0xFFFFFFFD
00001CAC  6000 00DE                bra        +0xE0 /* 00001D8C */
label00001CB0:
00001CB0  42A7                     clr.l      -[A7]
00001CB2  4EBA 0D00                jsr        [PC + 0xD00 /* 000029B4 */]
00001CB6  2B5F FAC0                move.l     [A5 - 0x540], [A7]+
00001CBA  4AAD FAC0                tst.l      [A5 - 0x540]
00001CBE  6606                     bne        +0x8 /* 00001CC6 */
00001CC0  7EFF                     moveq.l    D7, 0xFFFFFFFF
00001CC2  6000 00C8                bra        +0xCA /* 00001D8C */
label00001CC6:
00001CC6  41ED FAA2                lea.l      A0, [A5 - 0x55E]
00001CCA  4218                     clr.b      [A0]+
00001CCC  10B8 0260                move.b     [A0], [0x00000260 /* SdVolume */]
00001CD0  7001                     moveq.l    D0, 0x01
00001CD2  D06D FAA2                add.w      D0, [A5 - 0x55E]
00001CD6  3F00                     move.w     -[A7], D0
00001CD8  4EBA 012C                jsr        [PC + 0x12C /* 00001E06 */]
00001CDC  3B7C 0001 FAA4           move.w     [A5 - 0x55C], 0x1
00001CE2  3B7C 0008 FAA6           move.w     [A5 - 0x55A], 0x8
00001CE8  426D FAA8                clr.w      [A5 - 0x558]
00001CEC  426D FAAA                clr.w      [A5 - 0x556]
00001CF0  2B7C 56EE 8BA3 FAAC      move.l     [A5 - 0x554], 0x56EE8BA3
00001CF8  42A7                     clr.l      -[A7]
00001CFA  4EBA 0DF8                jsr        [PC + 0xDF8 /* 00002AF4 */]
00001CFE  2B5F FAB0                move.l     [A5 - 0x550], [A7]+
00001D02  4AAD FAB0                tst.l      [A5 - 0x550]
00001D06  6606                     bne        +0x8 /* 00001D0E */
00001D08  7EFF                     moveq.l    D7, 0xFFFFFFFF
00001D0A  6000 0080                bra        +0x82 /* 00001D8C */
label00001D0E:
00001D0E  42A7                     clr.l      -[A7]
00001D10  4EBA 0DE2                jsr        [PC + 0xDE2 /* 00002AF4 */]
00001D14  2B5F FAB4                move.l     [A5 - 0x54C], [A7]+
00001D18  4AAD FAB0                tst.l      [A5 - 0x550]
00001D1C  660A                     bne        +0xC /* 00001D28 */
00001D1E  206D FAB0                movea.l    A0, [A5 - 0x550]
00001D22  A01F                     syscall    DisposPtr/DisposePtr
00001D24  7EFF                     moveq.l    D7, 0xFFFFFFFF
00001D26  6064                     bra        +0x66 /* 00001D8C */
label00001D28:
00001D28  41ED 00EA                lea.l      A0, [A5 + 0xEA /* export_25, CODE:3 @ 00002730 */]
00001D2C  2B48 FAB8                move.l     [A5 - 0x548], A0
00001D30  42AD FABC                clr.l      [A5 - 0x544]
00001D34  4267                     clr.w      -[A7]
00001D36  486D FABC                pea.l      [A5 - 0x544]
00001D3A  3F3C 0005                move.w     -[A7], 0x5
00001D3E  4878 0004                push.l     0x4
00001D42  42A7                     clr.l      -[A7]
00001D44  A807                     syscall    SndNewChannel
00001D46  4A5F                     tst.w      [A7]+
00001D48  6710                     beq        +0x12 /* 00001D5A */
00001D4A  206D FAB0                movea.l    A0, [A5 - 0x550]
00001D4E  A01F                     syscall    DisposPtr/DisposePtr
00001D50  206D FAB4                movea.l    A0, [A5 - 0x54C]
00001D54  A01F                     syscall    DisposPtr/DisposePtr
00001D56  7EFF                     moveq.l    D7, 0xFFFFFFFF
00001D58  6032                     bra        +0x34 /* 00001D8C */
label00001D5A:
00001D5A  4267                     clr.w      -[A7]
00001D5C  2F2D FABC                move.l     -[A7], [A5 - 0x544]
00001D60  486D FAA4                pea.l      [A5 - 0x55C]
00001D64  203C 0020 0008           move.l     D0, 0x200008
00001D6A  A800                     syscall    SoundDispatch
00001D6C  4A5F                     tst.w      [A7]+
00001D6E  671C                     beq        +0x1E /* 00001D8C */
00001D70  206D FAB0                movea.l    A0, [A5 - 0x550]
00001D74  A01F                     syscall    DisposPtr/DisposePtr
00001D76  206D FAB4                movea.l    A0, [A5 - 0x54C]
00001D7A  A01F                     syscall    DisposPtr/DisposePtr
00001D7C  4267                     clr.w      -[A7]
00001D7E  2F2D FABC                move.l     -[A7], [A5 - 0x544]
00001D82  1F3C 0001                move.b     -[A7], 0x1
00001D86  A801                     syscall    SndDisposeChannel
00001D88  3E1F                     move.w     D7, [A7]+
00001D8A  7EFF                     moveq.l    D7, 0xFFFFFFFF
label00001D8C:
00001D8C  4A47                     tst.w      D7
00001D8E  6704                     beq        +0x6 /* 00001D94 */
00001D90  422D FAA0                clr.b      [A5 - 0x560]
label00001D94:
00001D94  3D47 0008                move.w     [A6 + 0x8], D7
label00001D98:
00001D98  2E1F                     move.l     D7, [A7]+
00001D9A  4E5E                     unlink     A6
00001D9C  4E75                     rts
00001D9E  8D4F 7065 6E53 6F75 6... dc.b       "OpenSoundTool"
fn00001DAE:
00001DAE  4E56 FFFE                link       A6, -0x0002
00001DB2  4A2D FAA0                tst.b      [A5 - 0x560]
00001DB6  6738                     beq        +0x3A /* 00001DF0 */
00001DB8  4267                     clr.w      -[A7]
00001DBA  2F2D FABC                move.l     -[A7], [A5 - 0x544]
00001DBE  1F3C 0001                move.b     -[A7], 0x1
00001DC2  A801                     syscall    SndDisposeChannel
00001DC4  3D5F FFFE                move.w     [A6 - 0x2], [A7]+
00001DC8  3F2D FAA2                move.w     -[A7], [A5 - 0x55E]
00001DCC  4EBA E7CE                jsr        [PC - 0x1832 /* 0000059C */]
00001DD0  206D FAB0                movea.l    A0, [A5 - 0x550]
00001DD4  A01F                     syscall    DisposPtr/DisposePtr
00001DD6  206D FAB4                movea.l    A0, [A5 - 0x54C]
00001DDA  A01F                     syscall    DisposPtr/DisposePtr
00001DDC  206D FAC0                movea.l    A0, [A5 - 0x540]
00001DE0  2068 0052                movea.l    A0, [A0 + 0x52]
00001DE4  A01F                     syscall    DisposPtr/DisposePtr
00001DE6  206D FAC0                movea.l    A0, [A5 - 0x540]
00001DEA  A01F                     syscall    DisposPtr/DisposePtr
00001DEC  422D FAA0                clr.b      [A5 - 0x560]
label00001DF0:
00001DF0  4E5E                     unlink     A6
00001DF2  4E75                     rts
00001DF4  8E43 6C6F 7365 536F 7... dc.b       "CloseSoundTool"
fn00001E06:
00001E06  4E56 0000                link       A6, 0
00001E0A  2F07                     move.l     -[A7], D7
00001E0C  3E2E 0008                move.w     D7, [A6 + 0x8]
00001E10  4A2D FAA0                tst.b      [A5 - 0x560]
00001E14  6744                     beq        +0x46 /* 00001E5A */
00001E16  0C47 0008                cmpi.w     D7, 0x8
00001E1A  6F02                     ble        +0x4 /* 00001E1E */
00001E1C  7E08                     moveq.l    D7, 0x08
label00001E1E:
00001E1E  4A47                     tst.w      D7
00001E20  6C02                     bge        +0x4 /* 00001E24 */
00001E22  7E00                     moveq.l    D7, 0x00
label00001E24:
00001E24  206D FAC0                movea.l    A0, [A5 - 0x540]
00001E28  3087                     move.w     [A0], D7
00001E2A  4A47                     tst.w      D7
00001E2C  670C                     beq        +0xE /* 00001E3A */
00001E2E  70FF                     moveq.l    D0, 0xFFFFFFFF
00001E30  D047                     add.w      D0, D7
00001E32  3F00                     move.w     -[A7], D0
00001E34  4EBA E766                jsr        [PC - 0x189A /* 0000059C */]
00001E38  6020                     bra        +0x22 /* 00001E5A */
label00001E3A:
00001E3A  206D FAC0                movea.l    A0, [A5 - 0x540]
00001E3E  42A8 0006                clr.l      [A0 + 0x6]
00001E42  206D FAC0                movea.l    A0, [A5 - 0x540]
00001E46  42A8 001A                clr.l      [A0 + 0x1A]
00001E4A  206D FAC0                movea.l    A0, [A5 - 0x540]
00001E4E  42A8 002E                clr.l      [A0 + 0x2E]
00001E52  206D FAC0                movea.l    A0, [A5 - 0x540]
00001E56  42A8 0042                clr.l      [A0 + 0x42]
label00001E5A:
00001E5A  2E1F                     move.l     D7, [A7]+
00001E5C  4E5E                     unlink     A6
00001E5E  205F                     movea.l    A0, [A7]+
00001E60  548F                     addq.l     A7, 2
00001E62  4ED0                     jmp        [A0]
00001E64  8D53 6574 546F 6F6C 5... dc.b       "SetToolVolume"
export_19:
fn00001E74:
00001E74  4E56 0000                link       A6, 0
00001E78  48E7 0F18                movem.l    -[A7], D4,D5,D6,D7,A3,A4
00001E7C  3E2E 000C                move.w     D7, [A6 + 0xC]
00001E80  286E 000E                movea.l    A4, [A6 + 0xE]
00001E84  266E 0008                movea.l    A3, [A6 + 0x8]
00001E88  7C00                     moveq.l    D6, 0x00
00001E8A  200C                     move.l     D0, A4
00001E8C  6700 02BE                beq        +0x2C0 /* 0000214C */
00001E90  4A2D FAA0                tst.b      [A5 - 0x560]
00001E94  6700 02B6                beq        +0x2B8 /* 0000214C */
00001E98  206D FAC0                movea.l    A0, [A5 - 0x540]
00001E9C  4A50                     tst.w      [A0]
00001E9E  6F00 02AC                ble        +0x2AE /* 0000214C */
00001EA2  206D FAC0                movea.l    A0, [A5 - 0x540]
00001EA6  4AA8 0006                tst.l      [A0 + 0x6]
00001EAA  6644                     bne        +0x46 /* 00001EF0 */
00001EAC  206D FAC0                movea.l    A0, [A5 - 0x540]
00001EB0  4AA8 000E                tst.l      [A0 + 0xE]
00001EB4  663A                     bne        +0x3C /* 00001EF0 */
00001EB6  41EC 0004                lea.l      A0, [A4 + 0x4]
00001EBA  226D FAC0                movea.l    A1, [A5 - 0x540]
00001EBE  2348 0002                move.l     [A1 + 0x2], A0
00001EC2  206D FAC0                movea.l    A0, [A5 - 0x540]
00001EC6  2154 0006                move.l     [A0 + 0x6], [A4]
00001ECA  206D FAC0                movea.l    A0, [A5 - 0x540]
00001ECE  3147 000A                move.w     [A0 + 0xA], D7
00001ED2  206D FAC0                movea.l    A0, [A5 - 0x540]
00001ED6  214B 000E                move.l     [A0 + 0xE], A3
00001EDA  206D FAC0                movea.l    A0, [A5 - 0x540]
00001EDE  4268 000C                clr.w      [A0 + 0xC]
00001EE2  206D FAC0                movea.l    A0, [A5 - 0x540]
00001EE6  214C 0012                move.l     [A0 + 0x12], A4
00001EEA  7C01                     moveq.l    D6, 0x01
00001EEC  6000 025E                bra        +0x260 /* 0000214C */
label00001EF0:
00001EF0  206D FAC0                movea.l    A0, [A5 - 0x540]
00001EF4  4AA8 001A                tst.l      [A0 + 0x1A]
00001EF8  6644                     bne        +0x46 /* 00001F3E */
00001EFA  206D FAC0                movea.l    A0, [A5 - 0x540]
00001EFE  4AA8 0022                tst.l      [A0 + 0x22]
00001F02  663A                     bne        +0x3C /* 00001F3E */
00001F04  41EC 0004                lea.l      A0, [A4 + 0x4]
00001F08  226D FAC0                movea.l    A1, [A5 - 0x540]
00001F0C  2348 0016                move.l     [A1 + 0x16], A0
00001F10  206D FAC0                movea.l    A0, [A5 - 0x540]
00001F14  2154 001A                move.l     [A0 + 0x1A], [A4]
00001F18  206D FAC0                movea.l    A0, [A5 - 0x540]
00001F1C  3147 001E                move.w     [A0 + 0x1E], D7
00001F20  206D FAC0                movea.l    A0, [A5 - 0x540]
00001F24  214B 0022                move.l     [A0 + 0x22], A3
00001F28  206D FAC0                movea.l    A0, [A5 - 0x540]
00001F2C  4268 0020                clr.w      [A0 + 0x20]
00001F30  206D FAC0                movea.l    A0, [A5 - 0x540]
00001F34  214C 0026                move.l     [A0 + 0x26], A4
00001F38  7C01                     moveq.l    D6, 0x01
00001F3A  6000 0210                bra        +0x212 /* 0000214C */
label00001F3E:
00001F3E  206D FAC0                movea.l    A0, [A5 - 0x540]
00001F42  4AA8 002E                tst.l      [A0 + 0x2E]
00001F46  6644                     bne        +0x46 /* 00001F8C */
00001F48  206D FAC0                movea.l    A0, [A5 - 0x540]
00001F4C  4AA8 0036                tst.l      [A0 + 0x36]
00001F50  663A                     bne        +0x3C /* 00001F8C */
00001F52  41EC 0004                lea.l      A0, [A4 + 0x4]
00001F56  226D FAC0                movea.l    A1, [A5 - 0x540]
00001F5A  2348 002A                move.l     [A1 + 0x2A], A0
00001F5E  206D FAC0                movea.l    A0, [A5 - 0x540]
00001F62  2154 002E                move.l     [A0 + 0x2E], [A4]
00001F66  206D FAC0                movea.l    A0, [A5 - 0x540]
00001F6A  3147 0032                move.w     [A0 + 0x32], D7
00001F6E  206D FAC0                movea.l    A0, [A5 - 0x540]
00001F72  214B 0036                move.l     [A0 + 0x36], A3
00001F76  206D FAC0                movea.l    A0, [A5 - 0x540]
00001F7A  4268 0034                clr.w      [A0 + 0x34]
00001F7E  206D FAC0                movea.l    A0, [A5 - 0x540]
00001F82  214C 003A                move.l     [A0 + 0x3A], A4
00001F86  7C01                     moveq.l    D6, 0x01
00001F88  6000 01C2                bra        +0x1C4 /* 0000214C */
label00001F8C:
00001F8C  206D FAC0                movea.l    A0, [A5 - 0x540]
00001F90  4AA8 0042                tst.l      [A0 + 0x42]
00001F94  6644                     bne        +0x46 /* 00001FDA */
00001F96  206D FAC0                movea.l    A0, [A5 - 0x540]
00001F9A  4AA8 004A                tst.l      [A0 + 0x4A]
00001F9E  663A                     bne        +0x3C /* 00001FDA */
00001FA0  41EC 0004                lea.l      A0, [A4 + 0x4]
00001FA4  226D FAC0                movea.l    A1, [A5 - 0x540]
00001FA8  2348 003E                move.l     [A1 + 0x3E], A0
00001FAC  206D FAC0                movea.l    A0, [A5 - 0x540]
00001FB0  2154 0042                move.l     [A0 + 0x42], [A4]
00001FB4  206D FAC0                movea.l    A0, [A5 - 0x540]
00001FB8  3147 0046                move.w     [A0 + 0x46], D7
00001FBC  206D FAC0                movea.l    A0, [A5 - 0x540]
00001FC0  214B 004A                move.l     [A0 + 0x4A], A3
00001FC4  206D FAC0                movea.l    A0, [A5 - 0x540]
00001FC8  4268 0048                clr.w      [A0 + 0x48]
00001FCC  206D FAC0                movea.l    A0, [A5 - 0x540]
00001FD0  214C 004E                move.l     [A0 + 0x4E], A4
00001FD4  7C01                     moveq.l    D6, 0x01
00001FD6  6000 0174                bra        +0x176 /* 0000214C */
label00001FDA:
00001FDA  206D FAC0                movea.l    A0, [A5 - 0x540]
00001FDE  3828 000A                move.w     D4, [A0 + 0xA]
00001FE2  7A01                     moveq.l    D5, 0x01
00001FE4  B868 001E                cmp.w      D4, [A0 + 0x1E]
00001FE8  6D0A                     blt        +0xC /* 00001FF4 */
00001FEA  7A02                     moveq.l    D5, 0x02
00001FEC  206D FAC0                movea.l    A0, [A5 - 0x540]
00001FF0  3828 001E                move.w     D4, [A0 + 0x1E]
label00001FF4:
00001FF4  206D FAC0                movea.l    A0, [A5 - 0x540]
00001FF8  B868 0032                cmp.w      D4, [A0 + 0x32]
00001FFC  6D0A                     blt        +0xC /* 00002008 */
00001FFE  7A03                     moveq.l    D5, 0x03
00002000  206D FAC0                movea.l    A0, [A5 - 0x540]
00002004  3828 0032                move.w     D4, [A0 + 0x32]
label00002008:
00002008  206D FAC0                movea.l    A0, [A5 - 0x540]
0000200C  B868 0046                cmp.w      D4, [A0 + 0x46]
00002010  6D0A                     blt        +0xC /* 0000201C */
00002012  7A04                     moveq.l    D5, 0x04
00002014  206D FAC0                movea.l    A0, [A5 - 0x540]
00002018  3828 0046                move.w     D4, [A0 + 0x46]
label0000201C:
0000201C  3005                     move.w     D0, D5
0000201E  6700 012C                beq        +0x12E /* 0000214C */
00002022  6B00 0128                bmi        +0x12A /* 0000214C */
00002026  5740                     subq.w     D0, 3
00002028  6700 00A0                beq        +0xA2 /* 000020CA */
0000202C  6A06                     bpl        +0x8 /* 00002034 */
0000202E  5240                     addq.w     D0, 1
00002030  6A52                     bpl        +0x54 /* 00002084 */
00002032  600A                     bra        +0xC /* 0000203E */
label00002034:
00002034  5540                     subq.w     D0, 2
00002036  6A00 0114                bpl        +0x116 /* 0000214C */
0000203A  6000 00D0                bra        +0xD2 /* 0000210C */
label0000203E:
0000203E  206D FAC0                movea.l    A0, [A5 - 0x540]
00002042  BE68 000A                cmp.w      D7, [A0 + 0xA]
00002046  6D00 0104                blt        +0x106 /* 0000214C */
0000204A  41EC 0004                lea.l      A0, [A4 + 0x4]
0000204E  226D FAC0                movea.l    A1, [A5 - 0x540]
00002052  2348 0002                move.l     [A1 + 0x2], A0
00002056  206D FAC0                movea.l    A0, [A5 - 0x540]
0000205A  2154 0006                move.l     [A0 + 0x6], [A4]
0000205E  206D FAC0                movea.l    A0, [A5 - 0x540]
00002062  3147 000A                move.w     [A0 + 0xA], D7
00002066  206D FAC0                movea.l    A0, [A5 - 0x540]
0000206A  214B 000E                move.l     [A0 + 0xE], A3
0000206E  206D FAC0                movea.l    A0, [A5 - 0x540]
00002072  4268 000C                clr.w      [A0 + 0xC]
00002076  206D FAC0                movea.l    A0, [A5 - 0x540]
0000207A  214C 0012                move.l     [A0 + 0x12], A4
0000207E  7C01                     moveq.l    D6, 0x01
00002080  6000 00CA                bra        +0xCC /* 0000214C */
label00002084:
00002084  206D FAC0                movea.l    A0, [A5 - 0x540]
00002088  BE68 001E                cmp.w      D7, [A0 + 0x1E]
0000208C  6D00 00BE                blt        +0xC0 /* 0000214C */
00002090  41EC 0004                lea.l      A0, [A4 + 0x4]
00002094  226D FAC0                movea.l    A1, [A5 - 0x540]
00002098  2348 0016                move.l     [A1 + 0x16], A0
0000209C  206D FAC0                movea.l    A0, [A5 - 0x540]
000020A0  2154 001A                move.l     [A0 + 0x1A], [A4]
000020A4  206D FAC0                movea.l    A0, [A5 - 0x540]
000020A8  3147 001E                move.w     [A0 + 0x1E], D7
000020AC  206D FAC0                movea.l    A0, [A5 - 0x540]
000020B0  214B 0022                move.l     [A0 + 0x22], A3
000020B4  206D FAC0                movea.l    A0, [A5 - 0x540]
000020B8  4268 0020                clr.w      [A0 + 0x20]
000020BC  206D FAC0                movea.l    A0, [A5 - 0x540]
000020C0  214C 0026                move.l     [A0 + 0x26], A4
000020C4  7C01                     moveq.l    D6, 0x01
000020C6  6000 0084                bra        +0x86 /* 0000214C */
label000020CA:
000020CA  206D FAC0                movea.l    A0, [A5 - 0x540]
000020CE  BE68 0032                cmp.w      D7, [A0 + 0x32]
000020D2  6D78                     blt        +0x7A /* 0000214C */
000020D4  41EC 0004                lea.l      A0, [A4 + 0x4]
000020D8  226D FAC0                movea.l    A1, [A5 - 0x540]
000020DC  2348 002A                move.l     [A1 + 0x2A], A0
000020E0  206D FAC0                movea.l    A0, [A5 - 0x540]
000020E4  2154 002E                move.l     [A0 + 0x2E], [A4]
000020E8  206D FAC0                movea.l    A0, [A5 - 0x540]
000020EC  3147 0032                move.w     [A0 + 0x32], D7
000020F0  206D FAC0                movea.l    A0, [A5 - 0x540]
000020F4  214B 0036                move.l     [A0 + 0x36], A3
000020F8  206D FAC0                movea.l    A0, [A5 - 0x540]
000020FC  4268 0034                clr.w      [A0 + 0x34]
00002100  206D FAC0                movea.l    A0, [A5 - 0x540]
00002104  214C 003A                move.l     [A0 + 0x3A], A4
00002108  7C01                     moveq.l    D6, 0x01
0000210A  6040                     bra        +0x42 /* 0000214C */
label0000210C:
0000210C  206D FAC0                movea.l    A0, [A5 - 0x540]
00002110  BE68 0046                cmp.w      D7, [A0 + 0x46]
00002114  6D36                     blt        +0x38 /* 0000214C */
00002116  41EC 0004                lea.l      A0, [A4 + 0x4]
0000211A  226D FAC0                movea.l    A1, [A5 - 0x540]
0000211E  2348 003E                move.l     [A1 + 0x3E], A0
00002122  206D FAC0                movea.l    A0, [A5 - 0x540]
00002126  2154 0042                move.l     [A0 + 0x42], [A4]
0000212A  206D FAC0                movea.l    A0, [A5 - 0x540]
0000212E  3147 0046                move.w     [A0 + 0x46], D7
00002132  206D FAC0                movea.l    A0, [A5 - 0x540]
00002136  214B 004A                move.l     [A0 + 0x4A], A3
0000213A  206D FAC0                movea.l    A0, [A5 - 0x540]
0000213E  4268 0048                clr.w      [A0 + 0x48]
00002142  206D FAC0                movea.l    A0, [A5 - 0x540]
00002146  214C 004E                move.l     [A0 + 0x4E], A4
0000214A  7C01                     moveq.l    D6, 0x01
label0000214C:
0000214C  1D46 0012                move.b     [A6 + 0x12], D6
00002150  4CDF 18F0                movem.l    D4,D5,D6,D7,A3,A4, [A7]+
00002154  4E5E                     unlink     A6
00002156  205F                     movea.l    A0, [A7]+
00002158  4FEF 000A                lea.l      A7, [A7 + 0xA]
0000215C  4ED0                     jmp        [A0]
0000215E  8950 6C61 7953 6F75 6... dc.b       "PlaySound"
export_20:
0000216A  4A2D FAA0                tst.b      [A5 - 0x560]
0000216E  6700 00A2                beq        +0xA4 /* 00002212 */
00002172  206D FAC0                movea.l    A0, [A5 - 0x540]
00002176  42A8 0006                clr.l      [A0 + 0x6]
0000217A  206D FAC0                movea.l    A0, [A5 - 0x540]
0000217E  4268 000A                clr.w      [A0 + 0xA]
00002182  206D FAC0                movea.l    A0, [A5 - 0x540]
00002186  42A8 000E                clr.l      [A0 + 0xE]
0000218A  206D FAC0                movea.l    A0, [A5 - 0x540]
0000218E  4268 000C                clr.w      [A0 + 0xC]
00002192  206D FAC0                movea.l    A0, [A5 - 0x540]
00002196  42A8 0012                clr.l      [A0 + 0x12]
0000219A  206D FAC0                movea.l    A0, [A5 - 0x540]
0000219E  42A8 001A                clr.l      [A0 + 0x1A]
000021A2  206D FAC0                movea.l    A0, [A5 - 0x540]
000021A6  4268 001E                clr.w      [A0 + 0x1E]
000021AA  206D FAC0                movea.l    A0, [A5 - 0x540]
000021AE  42A8 0022                clr.l      [A0 + 0x22]
000021B2  206D FAC0                movea.l    A0, [A5 - 0x540]
000021B6  4268 0020                clr.w      [A0 + 0x20]
000021BA  206D FAC0                movea.l    A0, [A5 - 0x540]
000021BE  42A8 0026                clr.l      [A0 + 0x26]
000021C2  206D FAC0                movea.l    A0, [A5 - 0x540]
000021C6  42A8 002E                clr.l      [A0 + 0x2E]
000021CA  206D FAC0                movea.l    A0, [A5 - 0x540]
000021CE  4268 0032                clr.w      [A0 + 0x32]
000021D2  206D FAC0                movea.l    A0, [A5 - 0x540]
000021D6  42A8 0036                clr.l      [A0 + 0x36]
000021DA  206D FAC0                movea.l    A0, [A5 - 0x540]
000021DE  4268 0034                clr.w      [A0 + 0x34]
000021E2  206D FAC0                movea.l    A0, [A5 - 0x540]
000021E6  42A8 003A                clr.l      [A0 + 0x3A]
000021EA  206D FAC0                movea.l    A0, [A5 - 0x540]
000021EE  42A8 0042                clr.l      [A0 + 0x42]
000021F2  206D FAC0                movea.l    A0, [A5 - 0x540]
000021F6  4268 0046                clr.w      [A0 + 0x46]
000021FA  206D FAC0                movea.l    A0, [A5 - 0x540]
000021FE  42A8 004A                clr.l      [A0 + 0x4A]
00002202  206D FAC0                movea.l    A0, [A5 - 0x540]
00002206  4268 0048                clr.w      [A0 + 0x48]
0000220A  206D FAC0                movea.l    A0, [A5 - 0x540]
0000220E  42A8 004E                clr.l      [A0 + 0x4E]
label00002212:
00002212  4E75                     rts
export_21:
00002214  4E56 0000                link       A6, 0
00002218  48E7 0108                movem.l    -[A7], D7,A4
0000221C  286E 0008                movea.l    A4, [A6 + 0x8]
00002220  7E00                     moveq.l    D7, 0x00
00002222  200C                     move.l     D0, A4
00002224  662C                     bne        +0x2E /* 00002252 */
00002226  206D FAC0                movea.l    A0, [A5 - 0x540]
0000222A  4AA8 0012                tst.l      [A0 + 0x12]
0000222E  661E                     bne        +0x20 /* 0000224E */
00002230  206D FAC0                movea.l    A0, [A5 - 0x540]
00002234  4AA8 0026                tst.l      [A0 + 0x26]
00002238  6614                     bne        +0x16 /* 0000224E */
0000223A  206D FAC0                movea.l    A0, [A5 - 0x540]
0000223E  4AA8 003A                tst.l      [A0 + 0x3A]
00002242  660A                     bne        +0xC /* 0000224E */
00002244  206D FAC0                movea.l    A0, [A5 - 0x540]
00002248  4AA8 004E                tst.l      [A0 + 0x4E]
0000224C  672E                     beq        +0x30 /* 0000227C */
label0000224E:
0000224E  7E01                     moveq.l    D7, 0x01
00002250  602A                     bra        +0x2C /* 0000227C */
label00002252:
00002252  206D FAC0                movea.l    A0, [A5 - 0x540]
00002256  B9E8 0012                cmpa.l     A4, [A0 + 0x12]
0000225A  671E                     beq        +0x20 /* 0000227A */
0000225C  206D FAC0                movea.l    A0, [A5 - 0x540]
00002260  B9E8 0026                cmpa.l     A4, [A0 + 0x26]
00002264  6714                     beq        +0x16 /* 0000227A */
00002266  206D FAC0                movea.l    A0, [A5 - 0x540]
0000226A  B9E8 003A                cmpa.l     A4, [A0 + 0x3A]
0000226E  670A                     beq        +0xC /* 0000227A */
00002270  206D FAC0                movea.l    A0, [A5 - 0x540]
00002274  B9E8 004E                cmpa.l     A4, [A0 + 0x4E]
00002278  6602                     bne        +0x4 /* 0000227C */
label0000227A:
0000227A  7E01                     moveq.l    D7, 0x01
label0000227C:
0000227C  1D47 000C                move.b     [A6 + 0xC], D7
00002280  4CDF 1080                movem.l    D7,A4, [A7]+
00002284  4E5E                     unlink     A6
00002286  2E9F                     move.l     [A7], [A7]+
00002288  4E75                     rts
0000228A  8E49 7353 6F75 6E64 5... dc.b       "IsSoundPlaying"
export_22:
0000229C  4E56 0000                link       A6, 0
000022A0  4A2D FAA0                tst.b      [A5 - 0x560]
000022A4  6700 0082                beq        +0x84 /* 00002328 */
000022A8  206D FAC0                movea.l    A0, [A5 - 0x540]
000022AC  4AA8 0006                tst.l      [A0 + 0x6]
000022B0  660A                     bne        +0xC /* 000022BC */
000022B2  206E 0014                movea.l    A0, [A6 + 0x14]
000022B6  30BC FFFF                move.w     [A0], 0xFFFF
000022BA  600C                     bra        +0xE /* 000022C8 */
label000022BC:
000022BC  206D FAC0                movea.l    A0, [A5 - 0x540]
000022C0  226E 0014                movea.l    A1, [A6 + 0x14]
000022C4  32A8 000A                move.w     [A1], [A0 + 0xA]
label000022C8:
000022C8  206D FAC0                movea.l    A0, [A5 - 0x540]
000022CC  4AA8 001A                tst.l      [A0 + 0x1A]
000022D0  660A                     bne        +0xC /* 000022DC */
000022D2  206E 0010                movea.l    A0, [A6 + 0x10]
000022D6  30BC FFFF                move.w     [A0], 0xFFFF
000022DA  600C                     bra        +0xE /* 000022E8 */
label000022DC:
000022DC  206D FAC0                movea.l    A0, [A5 - 0x540]
000022E0  226E 0010                movea.l    A1, [A6 + 0x10]
000022E4  32A8 001E                move.w     [A1], [A0 + 0x1E]
label000022E8:
000022E8  206D FAC0                movea.l    A0, [A5 - 0x540]
000022EC  4AA8 002E                tst.l      [A0 + 0x2E]
000022F0  660A                     bne        +0xC /* 000022FC */
000022F2  206E 000C                movea.l    A0, [A6 + 0xC]
000022F6  30BC FFFF                move.w     [A0], 0xFFFF
000022FA  600C                     bra        +0xE /* 00002308 */
label000022FC:
000022FC  206D FAC0                movea.l    A0, [A5 - 0x540]
00002300  226E 000C                movea.l    A1, [A6 + 0xC]
00002304  32A8 0032                move.w     [A1], [A0 + 0x32]
label00002308:
00002308  206D FAC0                movea.l    A0, [A5 - 0x540]
0000230C  4AA8 0042                tst.l      [A0 + 0x42]
00002310  660A                     bne        +0xC /* 0000231C */
00002312  206E 0008                movea.l    A0, [A6 + 0x8]
00002316  30BC FFFF                move.w     [A0], 0xFFFF
0000231A  600C                     bra        +0xE /* 00002328 */
label0000231C:
0000231C  206D FAC0                movea.l    A0, [A5 - 0x540]
00002320  226E 0008                movea.l    A1, [A6 + 0x8]
00002324  32A8 0046                move.w     [A1], [A0 + 0x46]
label00002328:
00002328  4E5E                     unlink     A6
0000232A  205F                     movea.l    A0, [A7]+
0000232C  4FEF 0010                lea.l      A7, [A7 + 0x10]
00002330  4ED0                     jmp        [A0]
00002332  8D43 6861 6E6E 656C 5... dc.b       "ChannelStatus"
export_18:
00002342  4E56 FFE2                link       A6, -0x001E
00002346  42AE FFE6                clr.l      [A6 - 0x1A]
0000234A  42A7                     clr.l      -[A7]
0000234C  2F3C 736E 6420           move.l     -[A7], 0x736E6420 /* 'snd ' */
00002352  3F2E 0008                move.w     -[A7], [A6 + 0x8]
00002356  A9A0                     syscall    GetResource
00002358  2D5F FFE2                move.l     [A6 - 0x1E], [A7]+
0000235C  4AAE FFE2                tst.l      [A6 - 0x1E]
00002360  6700 0120                beq        +0x122 /* 00002482 */
00002364  426E FFF2                clr.w      [A6 - 0xE]
00002368  206E FFE2                movea.l    A0, [A6 - 0x1E]
0000236C  A04A                     syscall    HNoPurge
0000236E  206E FFE2                movea.l    A0, [A6 - 0x1E]
00002372  A064                     syscall    MoveHHi
00002374  206E FFE2                movea.l    A0, [A6 - 0x1E]
00002378  2050                     movea.l    A0, [A0]
0000237A  4280                     clr.l      D0
0000237C  3018                     move.w     D0, [A0]+
0000237E  0C40 0001                cmpi.w     D0, 0x1
00002382  671A                     beq        +0x1C /* 0000239E */
00002384  0C40 0002                cmpi.w     D0, 0x2
00002388  6708                     beq        +0xA /* 00002392 */
0000238A  3D7C 0001 FFF2           move.w     [A6 - 0xE], 0x1
00002390  6032                     bra        +0x34 /* 000023C4 */
label00002392:
00002392  3018                     move.w     D0, [A0]+
00002394  3018                     move.w     D0, [A0]+
00002396  C0FC 0008                mulu.w     D0, 0x8
0000239A  D0C0                     add.w      A0, D0
0000239C  6010                     bra        +0x12 /* 000023AE */
label0000239E:
0000239E  3018                     move.w     D0, [A0]+
000023A0  C0FC 0006                mulu.w     D0, 0x6
000023A4  D0C0                     add.w      A0, D0
000023A6  3018                     move.w     D0, [A0]+
000023A8  C0FC 0008                mulu.w     D0, 0x8
000023AC  D0C0                     add.w      A0, D0
label000023AE:
000023AE  0C68 2B77 0008           cmpi.w     [A0 + 0x8], 0x2B77 /* '+w' */
000023B4  6608                     bne        +0xA /* 000023BE */
000023B6  4A28 0014                tst.b      [A0 + 0x14]
000023BA  6602                     bne        +0x4 /* 000023BE */
000023BC  6006                     bra        +0x8 /* 000023C4 */
label000023BE:
000023BE  3D7C 0001 FFF2           move.w     [A6 - 0xE], 0x1
label000023C4:
000023C4  D1FC 0000 0018           add.l      A0, 0x18
000023CA  226E FFE2                movea.l    A1, [A6 - 0x1E]
000023CE  2251                     movea.l    A1, [A1]
000023D0  91C9                     sub.l      A0, A1
000023D2  2D48 FFF4                move.l     [A6 - 0xC], A0
000023D6  4A6E FFF2                tst.w      [A6 - 0xE]
000023DA  6600 009A                bne        +0x9C /* 00002476 */
000023DE  42A7                     clr.l      -[A7]
000023E0  2F2E FFE2                move.l     -[A7], [A6 - 0x1E]
000023E4  4EBA DFAC                jsr        [PC - 0x2054 /* 00000392 */]
000023E8  201F                     move.l     D0, [A7]+
000023EA  90AE FFF4                sub.l      D0, [A6 - 0xC]
000023EE  2D40 FFF8                move.l     [A6 - 0x8], D0
000023F2  4878 0200                push.l     0x200
000023F6  2F00                     move.l     -[A7], D0
000023F8  4EAD 005A                jsr        [A5 + 0x5A /* export_7, CODE:1 @ 0000014E */]
000023FC  5280                     addq.l     D0, 1
000023FE  7209                     moveq.l    D1, 0x09
00002400  E3A8                     lsl        D0, D1
00002402  2D40 FFFC                move.l     [A6 - 0x4], D0
00002406  90AE FFF8                sub.l      D0, [A6 - 0x8]
0000240A  2D40 FFEE                move.l     [A6 - 0x12], D0
0000240E  7004                     moveq.l    D0, 0x04
00002410  D0AE FFFC                add.l      D0, [A6 - 0x4]
00002414  A11E                     syscall    NewPtr, flags=1
00002416  2D48 FFE6                move.l     [A6 - 0x1A], A0
0000241A  2008                     move.l     D0, A0
0000241C  6758                     beq        +0x5A /* 00002476 */
0000241E  4878 0200                push.l     0x200
00002422  2F2E FFFC                move.l     -[A7], [A6 - 0x4]
00002426  4EAD 005A                jsr        [A5 + 0x5A /* export_7, CODE:1 @ 0000014E */]
0000242A  2D40 FFEA                move.l     [A6 - 0x16], D0
0000242E  226E FFE6                movea.l    A1, [A6 - 0x1A]
00002432  22EE FFEA                move.l     [A1]+, [A6 - 0x16]
00002436  206E FFE2                movea.l    A0, [A6 - 0x1E]
0000243A  2050                     movea.l    A0, [A0]
0000243C  D1EE FFF4                add.l      A0, [A6 - 0xC]
00002440  202E FFF8                move.l     D0, [A6 - 0x8]
00002444  A02E                     syscall    BlockMove/BlockMoveData
00002446  226E FFE6                movea.l    A1, [A6 - 0x1A]
0000244A  5849                     addq.w     A1, 4
0000244C  D3EE FFF8                add.l      A1, [A6 - 0x8]
00002450  202E FFEE                move.l     D0, [A6 - 0x12]
00002454  5340                     subq.w     D0, 1
00002456  123C 0080                move.b     D1, 0x80
label0000245A:
0000245A  12C1                     move.b     [A1]+, D1
0000245C  51C8 FFFC                dbf        D0, -0x6 /* 0000245A */
00002460  202E FFFC                move.l     D0, [A6 - 0x4]
00002464  206E FFE6                movea.l    A0, [A6 - 0x1A]
00002468  5888                     addq.l     A0, 4
0000246A  4281                     clr.l      D1
label0000246C:
0000246C  1210                     move.b     D1, [A0]
0000246E  E209                     lsr        D1.b, 1
00002470  10C1                     move.b     [A0]+, D1
00002472  5380                     subq.l     D0, 1
00002474  66F6                     bne        -0x8 /* 0000246C */
label00002476:
00002476  206E FFE2                movea.l    A0, [A6 - 0x1E]
0000247A  A02A                     syscall    HUnlock
0000247C  2F2E FFE2                move.l     -[A7], [A6 - 0x1E]
00002480  A9A3                     syscall    ReleaseResource
label00002482:
00002482  2D6E FFE6 000A           move.l     [A6 + 0xA], [A6 - 0x1A]
00002488  4E5E                     unlink     A6
0000248A  205F                     movea.l    A0, [A7]+
0000248C  548F                     addq.l     A7, 2
0000248E  4ED0                     jmp        [A0]
00002490  894C 6F61 6453 6F75 6... dc.b       "LoadSound"
export_23:
0000249C  4E56 0000                link       A6, 0
000024A0  4A2D FAA0                tst.b      [A5 - 0x560]
000024A4  6700 00CA                beq        +0xCC /* 00002570 */
000024A8  302E 0008                move.w     D0, [A6 + 0x8]
000024AC  6700 00C2                beq        +0xC4 /* 00002570 */
000024B0  6B00 00BE                bmi        +0xC0 /* 00002570 */
000024B4  5740                     subq.w     D0, 3
000024B6  6766                     beq        +0x68 /* 0000251E */
000024B8  6A06                     bpl        +0x8 /* 000024C0 */
000024BA  5240                     addq.w     D0, 1
000024BC  6A36                     bpl        +0x38 /* 000024F4 */
000024BE  600A                     bra        +0xC /* 000024CA */
label000024C0:
000024C0  5540                     subq.w     D0, 2
000024C2  6A00 00AC                bpl        +0xAE /* 00002570 */
000024C6  6000 0080                bra        +0x82 /* 00002548 */
label000024CA:
000024CA  206D FAC0                movea.l    A0, [A5 - 0x540]
000024CE  42A8 0006                clr.l      [A0 + 0x6]
000024D2  206D FAC0                movea.l    A0, [A5 - 0x540]
000024D6  4268 000A                clr.w      [A0 + 0xA]
000024DA  206D FAC0                movea.l    A0, [A5 - 0x540]
000024DE  42A8 000E                clr.l      [A0 + 0xE]
000024E2  206D FAC0                movea.l    A0, [A5 - 0x540]
000024E6  4268 000C                clr.w      [A0 + 0xC]
000024EA  206D FAC0                movea.l    A0, [A5 - 0x540]
000024EE  42A8 0012                clr.l      [A0 + 0x12]
000024F2  607C                     bra        +0x7E /* 00002570 */
label000024F4:
000024F4  206D FAC0                movea.l    A0, [A5 - 0x540]
000024F8  42A8 001A                clr.l      [A0 + 0x1A]
000024FC  206D FAC0                movea.l    A0, [A5 - 0x540]
00002500  4268 001E                clr.w      [A0 + 0x1E]
00002504  206D FAC0                movea.l    A0, [A5 - 0x540]
00002508  42A8 0022                clr.l      [A0 + 0x22]
0000250C  206D FAC0                movea.l    A0, [A5 - 0x540]
00002510  4268 0020                clr.w      [A0 + 0x20]
00002514  206D FAC0                movea.l    A0, [A5 - 0x540]
00002518  42A8 0026                clr.l      [A0 + 0x26]
0000251C  6052                     bra        +0x54 /* 00002570 */
label0000251E:
0000251E  206D FAC0                movea.l    A0, [A5 - 0x540]
00002522  42A8 002E                clr.l      [A0 + 0x2E]
00002526  206D FAC0                movea.l    A0, [A5 - 0x540]
0000252A  4268 0032                clr.w      [A0 + 0x32]
0000252E  206D FAC0                movea.l    A0, [A5 - 0x540]
00002532  42A8 0036                clr.l      [A0 + 0x36]
00002536  206D FAC0                movea.l    A0, [A5 - 0x540]
0000253A  4268 0034                clr.w      [A0 + 0x34]
0000253E  206D FAC0                movea.l    A0, [A5 - 0x540]
00002542  42A8 003A                clr.l      [A0 + 0x3A]
00002546  6028                     bra        +0x2A /* 00002570 */
label00002548:
00002548  206D FAC0                movea.l    A0, [A5 - 0x540]
0000254C  42A8 0042                clr.l      [A0 + 0x42]
00002550  206D FAC0                movea.l    A0, [A5 - 0x540]
00002554  4268 0046                clr.w      [A0 + 0x46]
00002558  206D FAC0                movea.l    A0, [A5 - 0x540]
0000255C  42A8 004A                clr.l      [A0 + 0x4A]
00002560  206D FAC0                movea.l    A0, [A5 - 0x540]
00002564  4268 0048                clr.w      [A0 + 0x48]
00002568  206D FAC0                movea.l    A0, [A5 - 0x540]
0000256C  42A8 004E                clr.l      [A0 + 0x4E]
label00002570:
00002570  4E5E                     unlink     A6
00002572  205F                     movea.l    A0, [A7]+
00002574  548F                     addq.l     A7, 2
00002576  4ED0                     jmp        [A0]
00002578  8B48 616C 7443 6861 6... dc.b       "HaltChannel"
export_24:
00002586  4E56 0000                link       A6, 0
0000258A  48E7 0318                movem.l    -[A7], D6,D7,A3,A4
0000258E  286E 0010                movea.l    A4, [A6 + 0x10]
00002592  3C2E 000E                move.w     D6, [A6 + 0xE]
00002596  266E 0008                movea.l    A3, [A6 + 0x8]
0000259A  7E00                     moveq.l    D7, 0x00
0000259C  200C                     move.l     D0, A4
0000259E  6700 0170                beq        +0x172 /* 00002710 */
000025A2  4A2D FAA0                tst.b      [A5 - 0x560]
000025A6  6700 0168                beq        +0x16A /* 00002710 */
000025AA  206D FAC0                movea.l    A0, [A5 - 0x540]
000025AE  4A50                     tst.w      [A0]
000025B0  6F00 015E                ble        +0x160 /* 00002710 */
000025B4  302E 000C                move.w     D0, [A6 + 0xC]
000025B8  6700 0156                beq        +0x158 /* 00002710 */
000025BC  6B00 0152                bmi        +0x154 /* 00002710 */
000025C0  5740                     subq.w     D0, 3
000025C2  6700 00B4                beq        +0xB6 /* 00002678 */
000025C6  6A06                     bpl        +0x8 /* 000025CE */
000025C8  5240                     addq.w     D0, 1
000025CA  6A5C                     bpl        +0x5E /* 00002628 */
000025CC  600A                     bra        +0xC /* 000025D8 */
label000025CE:
000025CE  5540                     subq.w     D0, 2
000025D0  6A00 013E                bpl        +0x140 /* 00002710 */
000025D4  6000 00F0                bra        +0xF2 /* 000026C6 */
label000025D8:
000025D8  206D FAC0                movea.l    A0, [A5 - 0x540]
000025DC  4AA8 0006                tst.l      [A0 + 0x6]
000025E0  670C                     beq        +0xE /* 000025EE */
000025E2  206D FAC0                movea.l    A0, [A5 - 0x540]
000025E6  BC68 000A                cmp.w      D6, [A0 + 0xA]
000025EA  6D00 0124                blt        +0x126 /* 00002710 */
label000025EE:
000025EE  41EC 0004                lea.l      A0, [A4 + 0x4]
000025F2  226D FAC0                movea.l    A1, [A5 - 0x540]
000025F6  2348 0002                move.l     [A1 + 0x2], A0
000025FA  206D FAC0                movea.l    A0, [A5 - 0x540]
000025FE  2154 0006                move.l     [A0 + 0x6], [A4]
00002602  206D FAC0                movea.l    A0, [A5 - 0x540]
00002606  3146 000A                move.w     [A0 + 0xA], D6
0000260A  206D FAC0                movea.l    A0, [A5 - 0x540]
0000260E  214B 000E                move.l     [A0 + 0xE], A3
00002612  206D FAC0                movea.l    A0, [A5 - 0x540]
00002616  4268 000C                clr.w      [A0 + 0xC]
0000261A  206D FAC0                movea.l    A0, [A5 - 0x540]
0000261E  214C 0012                move.l     [A0 + 0x12], A4
00002622  7E01                     moveq.l    D7, 0x01
00002624  6000 00EA                bra        +0xEC /* 00002710 */
label00002628:
00002628  206D FAC0                movea.l    A0, [A5 - 0x540]
0000262C  4AA8 001A                tst.l      [A0 + 0x1A]
00002630  670C                     beq        +0xE /* 0000263E */
00002632  206D FAC0                movea.l    A0, [A5 - 0x540]
00002636  BC68 001E                cmp.w      D6, [A0 + 0x1E]
0000263A  6D00 00D4                blt        +0xD6 /* 00002710 */
label0000263E:
0000263E  41EC 0004                lea.l      A0, [A4 + 0x4]
00002642  226D FAC0                movea.l    A1, [A5 - 0x540]
00002646  2348 0016                move.l     [A1 + 0x16], A0
0000264A  206D FAC0                movea.l    A0, [A5 - 0x540]
0000264E  2154 001A                move.l     [A0 + 0x1A], [A4]
00002652  206D FAC0                movea.l    A0, [A5 - 0x540]
00002656  3146 001E                move.w     [A0 + 0x1E], D6
0000265A  206D FAC0                movea.l    A0, [A5 - 0x540]
0000265E  214B 0022                move.l     [A0 + 0x22], A3
00002662  206D FAC0                movea.l    A0, [A5 - 0x540]
00002666  4268 0020                clr.w      [A0 + 0x20]
0000266A  206D FAC0                movea.l    A0, [A5 - 0x540]
0000266E  214C 0026                move.l     [A0 + 0x26], A4
00002672  7E01                     moveq.l    D7, 0x01
00002674  6000 009A                bra        +0x9C /* 00002710 */
label00002678:
00002678  206D FAC0                movea.l    A0, [A5 - 0x540]
0000267C  4AA8 002E                tst.l      [A0 + 0x2E]
00002680  670C                     beq        +0xE /* 0000268E */
00002682  206D FAC0                movea.l    A0, [A5 - 0x540]
00002686  BC68 0032                cmp.w      D6, [A0 + 0x32]
0000268A  6D00 0084                blt        +0x86 /* 00002710 */
label0000268E:
0000268E  41EC 0004                lea.l      A0, [A4 + 0x4]
00002692  226D FAC0                movea.l    A1, [A5 - 0x540]
00002696  2348 002A                move.l     [A1 + 0x2A], A0
0000269A  206D FAC0                movea.l    A0, [A5 - 0x540]
0000269E  2154 002E                move.l     [A0 + 0x2E], [A4]
000026A2  206D FAC0                movea.l    A0, [A5 - 0x540]
000026A6  3146 0032                move.w     [A0 + 0x32], D6
000026AA  206D FAC0                movea.l    A0, [A5 - 0x540]
000026AE  214B 0036                move.l     [A0 + 0x36], A3
000026B2  206D FAC0                movea.l    A0, [A5 - 0x540]
000026B6  4268 0034                clr.w      [A0 + 0x34]
000026BA  206D FAC0                movea.l    A0, [A5 - 0x540]
000026BE  214C 003A                move.l     [A0 + 0x3A], A4
000026C2  7E01                     moveq.l    D7, 0x01
000026C4  604A                     bra        +0x4C /* 00002710 */
label000026C6:
000026C6  206D FAC0                movea.l    A0, [A5 - 0x540]
000026CA  4AA8 0042                tst.l      [A0 + 0x42]
000026CE  670A                     beq        +0xC /* 000026DA */
000026D0  206D FAC0                movea.l    A0, [A5 - 0x540]
000026D4  BC68 0046                cmp.w      D6, [A0 + 0x46]
000026D8  6D36                     blt        +0x38 /* 00002710 */
label000026DA:
000026DA  41EC 0004                lea.l      A0, [A4 + 0x4]
000026DE  226D FAC0                movea.l    A1, [A5 - 0x540]
000026E2  2348 003E                move.l     [A1 + 0x3E], A0
000026E6  206D FAC0                movea.l    A0, [A5 - 0x540]
000026EA  2154 0042                move.l     [A0 + 0x42], [A4]
000026EE  206D FAC0                movea.l    A0, [A5 - 0x540]
000026F2  3146 0046                move.w     [A0 + 0x46], D6
000026F6  206D FAC0                movea.l    A0, [A5 - 0x540]
000026FA  214B 004A                move.l     [A0 + 0x4A], A3
000026FE  206D FAC0                movea.l    A0, [A5 - 0x540]
00002702  4268 0048                clr.w      [A0 + 0x48]
00002706  206D FAC0                movea.l    A0, [A5 - 0x540]
0000270A  214C 004E                move.l     [A0 + 0x4E], A4
0000270E  7E01                     moveq.l    D7, 0x01
label00002710:
00002710  1D47 0014                move.b     [A6 + 0x14], D7
00002714  4CDF 18C0                movem.l    D6,D7,A3,A4, [A7]+
00002718  4E5E                     unlink     A6
0000271A  205F                     movea.l    A0, [A7]+
0000271C  4FEF 000C                lea.l      A7, [A7 + 0xC]
00002720  4ED0                     jmp        [A0]
00002722  8B50 6C61 7943 6861 6... dc.b       "PlayChannel"
export_25:
00002730  4E56 FFF8                link       A6, -0x0008
00002734  206E 0008                movea.l    A0, [A6 + 0x8]
00002738  2D68 0008 FFF8           move.l     [A6 - 0x8], [A0 + 0x8]
0000273E  41E8 0010                lea.l      A0, [A0 + 0x10]
00002742  2D48 FFFC                move.l     [A6 - 0x4], A0
00002746  48E7 FFFE                movem.l    -[A7], D0,D1,D2,D3,D4,D5,D6,D7,A0,A1,A2,A3,A4,A5,A6
0000274A  286E FFF8                movea.l    A4, [A6 - 0x8]
0000274E  2A6E FFFC                movea.l    A5, [A6 - 0x4]
00002752  224C                     movea.l    A1, A4
00002754  4A69 000C                tst.w      [A1 + 0xC]
00002758  6730                     beq        +0x32 /* 0000278A */
0000275A  4269 000C                clr.w      [A1 + 0xC]
0000275E  426C 000A                clr.w      [A4 + 0xA]
00002762  42A9 0012                clr.l      [A1 + 0x12]
00002766  4AA9 000E                tst.l      [A1 + 0xE]
0000276A  671E                     beq        +0x20 /* 0000278A */
0000276C  48E7 007C                movem.l    -[A7], A1,A2,A3,A4,A5
00002770  2069 000E                movea.l    A0, [A1 + 0xE]
00002774  2A69 0056                movea.l    A5, [A1 + 0x56]
00002778  2869 005A                movea.l    A4, [A1 + 0x5A]
0000277C  42A9 000E                clr.l      [A1 + 0xE]
00002780  3F3C 0001                move.w     -[A7], 0x1
00002784  4E90                     jsr        [A0]
00002786  4CDF 3E00                movem.l    A1,A2,A3,A4,A5, [A7]+
label0000278A:
0000278A  224C                     movea.l    A1, A4
0000278C  4A69 0020                tst.w      [A1 + 0x20]
00002790  6730                     beq        +0x32 /* 000027C2 */
00002792  4269 0020                clr.w      [A1 + 0x20]
00002796  426C 001E                clr.w      [A4 + 0x1E]
0000279A  42A9 0026                clr.l      [A1 + 0x26]
0000279E  4AA9 0022                tst.l      [A1 + 0x22]
000027A2  671E                     beq        +0x20 /* 000027C2 */
000027A4  48E7 007C                movem.l    -[A7], A1,A2,A3,A4,A5
000027A8  2069 0022                movea.l    A0, [A1 + 0x22]
000027AC  2A69 0056                movea.l    A5, [A1 + 0x56]
000027B0  2869 005A                movea.l    A4, [A1 + 0x5A]
000027B4  42A9 0022                clr.l      [A1 + 0x22]
000027B8  3F3C 0002                move.w     -[A7], 0x2
000027BC  4E90                     jsr        [A0]
000027BE  4CDF 3E00                movem.l    A1,A2,A3,A4,A5, [A7]+
label000027C2:
000027C2  224C                     movea.l    A1, A4
000027C4  4A69 0034                tst.w      [A1 + 0x34]
000027C8  6730                     beq        +0x32 /* 000027FA */
000027CA  4269 0034                clr.w      [A1 + 0x34]
000027CE  426C 0032                clr.w      [A4 + 0x32]
000027D2  42A9 003A                clr.l      [A1 + 0x3A]
000027D6  4AA9 0036                tst.l      [A1 + 0x36]
000027DA  671E                     beq        +0x20 /* 000027FA */
000027DC  48E7 007C                movem.l    -[A7], A1,A2,A3,A4,A5
000027E0  2069 0036                movea.l    A0, [A1 + 0x36]
000027E4  2A69 0056                movea.l    A5, [A1 + 0x56]
000027E8  2869 005A                movea.l    A4, [A1 + 0x5A]
000027EC  42A9 0036                clr.l      [A1 + 0x36]
000027F0  3F3C 0003                move.w     -[A7], 0x3
000027F4  4E90                     jsr        [A0]
000027F6  4CDF 3E00                movem.l    A1,A2,A3,A4,A5, [A7]+
label000027FA:
000027FA  224C                     movea.l    A1, A4
000027FC  4A69 0048                tst.w      [A1 + 0x48]
00002800  6730                     beq        +0x32 /* 00002832 */
00002802  4269 0048                clr.w      [A1 + 0x48]
00002806  426C 0046                clr.w      [A4 + 0x46]
0000280A  42A9 004E                clr.l      [A1 + 0x4E]
0000280E  4AA9 004A                tst.l      [A1 + 0x4A]
00002812  671E                     beq        +0x20 /* 00002832 */
00002814  48E7 007C                movem.l    -[A7], A1,A2,A3,A4,A5
00002818  2069 004A                movea.l    A0, [A1 + 0x4A]
0000281C  2A69 0056                movea.l    A5, [A1 + 0x56]
00002820  2869 005A                movea.l    A4, [A1 + 0x5A]
00002824  42A9 004A                clr.l      [A1 + 0x4A]
00002828  3F3C 0004                move.w     -[A7], 0x4
0000282C  4E90                     jsr        [A0]
0000282E  4CDF 3E00                movem.l    A1,A2,A3,A4,A5, [A7]+
label00002832:
00002832  206C 0052                movea.l    A0, [A4 + 0x52]
00002836  226C 0052                movea.l    A1, [A4 + 0x52]
0000283A  246C 0052                movea.l    A2, [A4 + 0x52]
0000283E  266C 0052                movea.l    A3, [A4 + 0x52]
00002842  4AAC 0006                tst.l      [A4 + 0x6]
00002846  6704                     beq        +0x6 /* 0000284C */
00002848  206C 0002                movea.l    A0, [A4 + 0x2]
label0000284C:
0000284C  4AAC 001A                tst.l      [A4 + 0x1A]
00002850  6704                     beq        +0x6 /* 00002856 */
00002852  226C 0016                movea.l    A1, [A4 + 0x16]
label00002856:
00002856  4AAC 002E                tst.l      [A4 + 0x2E]
0000285A  6704                     beq        +0x6 /* 00002860 */
0000285C  246C 002A                movea.l    A2, [A4 + 0x2A]
label00002860:
00002860  4AAC 0042                tst.l      [A4 + 0x42]
00002864  6704                     beq        +0x6 /* 0000286A */
00002866  266C 003E                movea.l    A3, [A4 + 0x3E]
label0000286A:
0000286A  4285                     clr.l      D5
0000286C  7A7F                     moveq.l    D5, 0x7F
0000286E  4286                     clr.l      D6
00002870  4287                     clr.l      D7
label00002872:
00002872  2018                     move.l     D0, [A0]+
00002874  2219                     move.l     D1, [A1]+
00002876  D081                     add.l      D0, D1
00002878  241A                     move.l     D2, [A2]+
0000287A  261B                     move.l     D3, [A3]+
0000287C  D483                     add.l      D2, D3
0000287E  E198                     rol        D0, 8
00002880  E19A                     rol        D2, 8
00002882  4246                     clr.w      D6
00002884  1C00                     move.b     D6, D0
00002886  4244                     clr.w      D4
00002888  1802                     move.b     D4, D2
0000288A  DC44                     add.w      D6, D4
0000288C  0446 0080                subi.w     D6, 0x80
00002890  4A46                     tst.w      D6
00002892  5EC4                     sgt        D4
00002894  4884                     ext.w      D4
00002896  CC44                     and.w      D6, D4
00002898  0C46 00FF                cmpi.w     D6, 0xFF
0000289C  5EC4                     sgt        D4
0000289E  8C04                     or.b       D6, D4
000028A0  E19F                     rol        D7, 8
000028A2  1E06                     move.b     D7, D6
000028A4  E19F                     rol        D7, 8
000028A6  1E06                     move.b     D7, D6
000028A8  E198                     rol        D0, 8
000028AA  E19A                     rol        D2, 8
000028AC  4246                     clr.w      D6
000028AE  1C00                     move.b     D6, D0
000028B0  4244                     clr.w      D4
000028B2  1802                     move.b     D4, D2
000028B4  DC44                     add.w      D6, D4
000028B6  0446 0080                subi.w     D6, 0x80
000028BA  4A46                     tst.w      D6
000028BC  5EC4                     sgt        D4
000028BE  4884                     ext.w      D4
000028C0  CC44                     and.w      D6, D4
000028C2  0C46 00FF                cmpi.w     D6, 0xFF
000028C6  5EC4                     sgt        D4
000028C8  8C04                     or.b       D6, D4
000028CA  E19F                     rol        D7, 8
000028CC  1E06                     move.b     D7, D6
000028CE  E19F                     rol        D7, 8
000028D0  1E06                     move.b     D7, D6
000028D2  2AC7                     move.l     [A5]+, D7
000028D4  E198                     rol        D0, 8
000028D6  E19A                     rol        D2, 8
000028D8  4246                     clr.w      D6
000028DA  1C00                     move.b     D6, D0
000028DC  4244                     clr.w      D4
000028DE  1802                     move.b     D4, D2
000028E0  DC44                     add.w      D6, D4
000028E2  0446 0080                subi.w     D6, 0x80
000028E6  4A46                     tst.w      D6
000028E8  5EC4                     sgt        D4
000028EA  4884                     ext.w      D4
000028EC  CC44                     and.w      D6, D4
000028EE  0C46 00FF                cmpi.w     D6, 0xFF
000028F2  5EC4                     sgt        D4
000028F4  8C04                     or.b       D6, D4
000028F6  E19F                     rol        D7, 8
000028F8  1E06                     move.b     D7, D6
000028FA  E19F                     rol        D7, 8
000028FC  1E06                     move.b     D7, D6
000028FE  E198                     rol        D0, 8
00002900  E19A                     rol        D2, 8
00002902  4246                     clr.w      D6
00002904  1C00                     move.b     D6, D0
00002906  4244                     clr.w      D4
00002908  1802                     move.b     D4, D2
0000290A  DC44                     add.w      D6, D4
0000290C  0446 0080                subi.w     D6, 0x80
00002910  4A46                     tst.w      D6
00002912  5EC4                     sgt        D4
00002914  4884                     ext.w      D4
00002916  CC44                     and.w      D6, D4
00002918  0C46 00FF                cmpi.w     D6, 0xFF
0000291C  5EC4                     sgt        D4
0000291E  8C04                     or.b       D6, D4
00002920  E19F                     rol        D7, 8
00002922  1E06                     move.b     D7, D6
00002924  E19F                     rol        D7, 8
00002926  1E06                     move.b     D7, D6
00002928  2AC7                     move.l     [A5]+, D7
0000292A  51CD FF46                dbf        D5, -0xBC /* 00002872 */
0000292E  2948 0002                move.l     [A4 + 0x2], A0
00002932  2949 0016                move.l     [A4 + 0x16], A1
00002936  294A 002A                move.l     [A4 + 0x2A], A2
0000293A  294B 003E                move.l     [A4 + 0x3E], A3
0000293E  4AAC 0006                tst.l      [A4 + 0x6]
00002942  670C                     beq        +0xE /* 00002950 */
00002944  53AC 0006                subq.l     [A4 + 0x6], 1
00002948  6606                     bne        +0x8 /* 00002950 */
0000294A  397C 0001 000C           move.w     [A4 + 0xC], 0x1
label00002950:
00002950  4AAC 001A                tst.l      [A4 + 0x1A]
00002954  670C                     beq        +0xE /* 00002962 */
00002956  53AC 001A                subq.l     [A4 + 0x1A], 1
0000295A  6606                     bne        +0x8 /* 00002962 */
0000295C  397C 0001 0020           move.w     [A4 + 0x20], 0x1
label00002962:
00002962  4AAC 002E                tst.l      [A4 + 0x2E]
00002966  670C                     beq        +0xE /* 00002974 */
00002968  53AC 002E                subq.l     [A4 + 0x2E], 1
0000296C  6606                     bne        +0x8 /* 00002974 */
0000296E  397C 0001 0034           move.w     [A4 + 0x34], 0x1
label00002974:
00002974  4AAC 0042                tst.l      [A4 + 0x42]
00002978  670C                     beq        +0xE /* 00002986 */
0000297A  53AC 0042                subq.l     [A4 + 0x42], 1
0000297E  6606                     bne        +0x8 /* 00002986 */
00002980  397C 0001 0048           move.w     [A4 + 0x48], 0x1
label00002986:
00002986  4CDF 7FFF                movem.l    D0,D1,D2,D3,D4,D5,D6,D7,A0,A1,A2,A3,A4,A5,A6, [A7]+
0000298A  206E 0008                movea.l    A0, [A6 + 0x8]
0000298E  7001                     moveq.l    D0, 0x01
00002990  2140 0004                move.l     [A0 + 0x4], D0
00002994  4E5E                     unlink     A6
00002996  205F                     movea.l    A0, [A7]+
00002998  508F                     addq.l     A7, 8
0000299A  4ED0                     jmp        [A0]
0000299C  9444 6F75 626C 6542 7... dc.b       "DoubleBufferCallBack"
fn000029B4:
000029B4  4E56 FFF8                link       A6, -0x0008
000029B8  705E                     moveq.l    D0, 0x5E
000029BA  A11E                     syscall    NewPtr, flags=1
000029BC  2D48 FFF8                move.l     [A6 - 0x8], A0
000029C0  2008                     move.l     D0, A0
000029C2  6700 0118                beq        +0x11A /* 00002ADC */
000029C6  203C 0000 0200           move.l     D0, 0x200
000029CC  A11E                     syscall    NewPtr, flags=1
000029CE  226E FFF8                movea.l    A1, [A6 - 0x8]
000029D2  2348 0052                move.l     [A1 + 0x52], A0
000029D6  206E FFF8                movea.l    A0, [A6 - 0x8]
000029DA  4AA8 0052                tst.l      [A0 + 0x52]
000029DE  660E                     bne        +0x10 /* 000029EE */
000029E0  206E FFF8                movea.l    A0, [A6 - 0x8]
000029E4  A01F                     syscall    DisposPtr/DisposePtr
000029E6  42AE FFF8                clr.l      [A6 - 0x8]
000029EA  6000 00F0                bra        +0xF2 /* 00002ADC */
label000029EE:
000029EE  206E FFF8                movea.l    A0, [A6 - 0x8]
000029F2  2D68 0052 FFFC           move.l     [A6 - 0x4], [A0 + 0x52]
000029F8  203C 0000 0080           move.l     D0, 0x80
000029FE  5340                     subq.w     D0, 1
00002A00  206E FFFC                movea.l    A0, [A6 - 0x4]
00002A04  223C 4040 4040           move.l     D1, 0x40404040 /* '@@@@' */
label00002A0A:
00002A0A  20C1                     move.l     [A0]+, D1
00002A0C  51C8 FFFC                dbf        D0, -0x6 /* 00002A0A */
00002A10  206E FFF8                movea.l    A0, [A6 - 0x8]
00002A14  42A8 0002                clr.l      [A0 + 0x2]
00002A18  206E FFF8                movea.l    A0, [A6 - 0x8]
00002A1C  42A8 0006                clr.l      [A0 + 0x6]
00002A20  206E FFF8                movea.l    A0, [A6 - 0x8]
00002A24  4268 000A                clr.w      [A0 + 0xA]
00002A28  206E FFF8                movea.l    A0, [A6 - 0x8]
00002A2C  4268 000C                clr.w      [A0 + 0xC]
00002A30  206E FFF8                movea.l    A0, [A6 - 0x8]
00002A34  42A8 000E                clr.l      [A0 + 0xE]
00002A38  206E FFF8                movea.l    A0, [A6 - 0x8]
00002A3C  42A8 0012                clr.l      [A0 + 0x12]
00002A40  206E FFF8                movea.l    A0, [A6 - 0x8]
00002A44  42A8 0016                clr.l      [A0 + 0x16]
00002A48  206E FFF8                movea.l    A0, [A6 - 0x8]
00002A4C  42A8 001A                clr.l      [A0 + 0x1A]
00002A50  206E FFF8                movea.l    A0, [A6 - 0x8]
00002A54  4268 001E                clr.w      [A0 + 0x1E]
00002A58  206E FFF8                movea.l    A0, [A6 - 0x8]
00002A5C  4268 0020                clr.w      [A0 + 0x20]
00002A60  206E FFF8                movea.l    A0, [A6 - 0x8]
00002A64  42A8 0022                clr.l      [A0 + 0x22]
00002A68  206E FFF8                movea.l    A0, [A6 - 0x8]
00002A6C  42A8 0026                clr.l      [A0 + 0x26]
00002A70  206E FFF8                movea.l    A0, [A6 - 0x8]
00002A74  42A8 002A                clr.l      [A0 + 0x2A]
00002A78  206E FFF8                movea.l    A0, [A6 - 0x8]
00002A7C  42A8 002E                clr.l      [A0 + 0x2E]
00002A80  206E FFF8                movea.l    A0, [A6 - 0x8]
00002A84  4268 0032                clr.w      [A0 + 0x32]
00002A88  206E FFF8                movea.l    A0, [A6 - 0x8]
00002A8C  4268 0034                clr.w      [A0 + 0x34]
00002A90  206E FFF8                movea.l    A0, [A6 - 0x8]
00002A94  42A8 0036                clr.l      [A0 + 0x36]
00002A98  206E FFF8                movea.l    A0, [A6 - 0x8]
00002A9C  42A8 003A                clr.l      [A0 + 0x3A]
00002AA0  206E FFF8                movea.l    A0, [A6 - 0x8]
00002AA4  42A8 003E                clr.l      [A0 + 0x3E]
00002AA8  206E FFF8                movea.l    A0, [A6 - 0x8]
00002AAC  42A8 0042                clr.l      [A0 + 0x42]
00002AB0  206E FFF8                movea.l    A0, [A6 - 0x8]
00002AB4  4268 0046                clr.w      [A0 + 0x46]
00002AB8  206E FFF8                movea.l    A0, [A6 - 0x8]
00002ABC  4268 0048                clr.w      [A0 + 0x48]
00002AC0  206E FFF8                movea.l    A0, [A6 - 0x8]
00002AC4  42A8 004A                clr.l      [A0 + 0x4A]
00002AC8  206E FFF8                movea.l    A0, [A6 - 0x8]
00002ACC  42A8 004E                clr.l      [A0 + 0x4E]
00002AD0  206E FFF8                movea.l    A0, [A6 - 0x8]
00002AD4  214D 0056                move.l     [A0 + 0x56], A5
00002AD8  214C 005A                move.l     [A0 + 0x5A], A4
label00002ADC:
00002ADC  2D6E FFF8 0008           move.l     [A6 + 0x8], [A6 - 0x8]
00002AE2  4E5E                     unlink     A6
00002AE4  4E75                     rts
00002AE6  8A49 6E69 7453 5456 6... dc.b       "InitSTVars"
fn00002AF4:
00002AF4  4E56 FFF8                link       A6, -0x0008
00002AF8  203C 0000 0412           move.l     D0, 0x412
00002AFE  A11E                     syscall    NewPtr, flags=1
00002B00  2D48 FFF8                move.l     [A6 - 0x8], A0
00002B04  2008                     move.l     D0, A0
00002B06  6736                     beq        +0x38 /* 00002B3E */
00002B08  206E FFF8                movea.l    A0, [A6 - 0x8]
00002B0C  20BC 0000 0400           move.l     [A0], 0x400
00002B12  216D FAC0 0008           move.l     [A0 + 0x8], [A5 - 0x540]
00002B18  7001                     moveq.l    D0, 0x01
00002B1A  2140 0004                move.l     [A0 + 0x4], D0
00002B1E  41E8 0010                lea.l      A0, [A0 + 0x10]
00002B22  2D48 FFFC                move.l     [A6 - 0x4], A0
00002B26  203C 0000 0100           move.l     D0, 0x100
00002B2C  5340                     subq.w     D0, 1
00002B2E  206E FFFC                movea.l    A0, [A6 - 0x4]
00002B32  223C 8080 8080           move.l     D1, 0x80808080
label00002B38:
00002B38  20C1                     move.l     [A0]+, D1
00002B3A  51C8 FFFC                dbf        D0, -0x6 /* 00002B38 */
label00002B3E:
00002B3E  2D6E FFF8 0008           move.l     [A6 + 0x8], [A6 - 0x8]
00002B44  4E5E                     unlink     A6
00002B46  4E75                     rts
00002B48  9243 7265 6174 6544 6... dc.b       "CreateDoubleBuffer"
export_26:
00002B5E  4E56 FF7C                link       A6, -0x0084
00002B62  48E7 0F18                movem.l    -[A7], D4,D5,D6,D7,A3,A4
00002B66  266E 0008                movea.l    A3, [A6 + 0x8]
00002B6A  286E 000C                movea.l    A4, [A6 + 0xC]
00002B6E  3A2E 0016                move.w     D5, [A6 + 0x16]
00002B72  2C2E 0012                move.l     D6, [A6 + 0x12]
00002B76  4204                     clr.b      D4
00002B78  558F                     subq.l     A7, 2
00002B7A  2F3C 666F 6C64           move.l     -[A7], 0x666F6C64 /* 'fold' */
00002B80  486E FF7C                pea.l      [A6 - 0x84]
00002B84  4EBA D5E4                jsr        [PC - 0x2A1C /* 0000016A */]
00002B88  3E1F                     move.w     D7, [A7]+
00002B8A  660C                     bne        +0xE /* 00002B98 */
00002B8C  202E FF7C                move.l     D0, [A6 - 0x84]
00002B90  0800 0000                btst.b     D0, 0x0
00002B94  6702                     beq        +0x4 /* 00002B98 */
00002B96  7801                     moveq.l    D4, 0x01
label00002B98:
00002B98  4A04                     tst.b      D4
00002B9A  671A                     beq        +0x1C /* 00002BB6 */
00002B9C  558F                     subq.l     A7, 2
00002B9E  3F05                     move.w     -[A7], D5
00002BA0  2F06                     move.l     -[A7], D6
00002BA2  1F2E 0010                move.b     -[A7], [A6 + 0x10]
00002BA6  2F0C                     move.l     -[A7], A4
00002BA8  2F0B                     move.l     -[A7], A3
00002BAA  7000                     moveq.l    D0, 0x00
00002BAC  A823                     syscall    AliasDispatch
00002BAE  3D5F 0018                move.w     [A6 + 0x18], [A7]+
00002BB2  6000 00E4                bra        +0xE6 /* 00002C98 */
label00002BB6:
00002BB6  0C86 6D61 6373           cmpi.l     D6, 0x6D616373 /* 'macs' */
00002BBC  6742                     beq        +0x44 /* 00002C00 */
00002BBE  0C86 7465 6D70           cmpi.l     D6, 0x74656D70 /* 'temp' */
00002BC4  673A                     beq        +0x3C /* 00002C00 */
00002BC6  0C86 7072 6566           cmpi.l     D6, 0x70726566 /* 'pref' */
00002BCC  6732                     beq        +0x34 /* 00002C00 */
00002BCE  0C86 6578 746E           cmpi.l     D6, 0x6578746E /* 'extn' */
00002BD4  672A                     beq        +0x2C /* 00002C00 */
00002BD6  0C86 6374 726C           cmpi.l     D6, 0x6374726C /* 'ctrl' */
00002BDC  6722                     beq        +0x24 /* 00002C00 */
00002BDE  0C86 616D 6E75           cmpi.l     D6, 0x616D6E75 /* 'amnu' */
00002BE4  671A                     beq        +0x1C /* 00002C00 */
00002BE6  0C86 7374 7274           cmpi.l     D6, 0x73747274 /* 'strt' */
00002BEC  6712                     beq        +0x14 /* 00002C00 */
00002BEE  0C86 7072 6E74           cmpi.l     D6, 0x70726E74 /* 'prnt' */
00002BF4  670A                     beq        +0xC /* 00002C00 */
00002BF6  3D7C FFCE 0018           move.w     [A6 + 0x18], 0xFFCE
00002BFC  6000 009A                bra        +0x9C /* 00002C98 */
label00002C00:
00002C00  7000                     moveq.l    D0, 0x00
00002C02  2D40 FF92                move.l     [A6 - 0x6E], D0
00002C06  0C45 8000                cmpi.w     D5, 0x8000
00002C0A  6624                     bne        +0x26 /* 00002C30 */
00002C0C  3D78 0A58 FF98           move.w     [A6 - 0x68], [0x00000A58 /* SysMap */]
00002C12  426E FF9C                clr.w      [A6 - 0x64]
00002C16  7002                     moveq.l    D0, 0x02
00002C18  2D40 FFBA                move.l     [A6 - 0x46], D0
00002C1C  41EE FF80                lea.l      A0, [A6 - 0x80]
00002C20  7008                     moveq.l    D0, 0x08
00002C22  A260                     syscall    FSDispatch/HFSDispatch, flags=2
00002C24  3E00                     move.w     D7, D0
00002C26  666C                     bne        +0x6E /* 00002C94 */
00002C28  3D6E FFB4 FF96           move.w     [A6 - 0x6A], [A6 - 0x4C]
00002C2E  6004                     bra        +0x6 /* 00002C34 */
label00002C30:
00002C30  3D45 FF96                move.w     [A6 - 0x6A], D5
label00002C34:
00002C34  7006                     moveq.l    D0, 0x06
00002C36  2D40 FFA4                move.l     [A6 - 0x5C], D0
00002C3A  41EE FFFA                lea.l      A0, [A6 - 0x6]
00002C3E  2D48 FFA0                move.l     [A6 - 0x60], A0
00002C42  41EE FF80                lea.l      A0, [A6 - 0x80]
00002C46  7030                     moveq.l    D0, 0x30
00002C48  A260                     syscall    FSDispatch/HFSDispatch, flags=2
00002C4A  3E00                     move.w     D7, D0
00002C4C  0C47 FFCE                cmpi.w     D7, 0xFFCE
00002C50  6710                     beq        +0x12 /* 00002C62 */
00002C52  4A47                     tst.w      D7
00002C54  6638                     bne        +0x3A /* 00002C8E */
00002C56  203C 0002 0000           move.l     D0, 0x20000
00002C5C  C0AE FFFC                and.l      D0, [A6 - 0x4]
00002C60  672C                     beq        +0x2E /* 00002C8E */
label00002C62:
00002C62  426E FF9C                clr.w      [A6 - 0x64]
00002C66  7000                     moveq.l    D0, 0x00
00002C68  2D40 FFDA                move.l     [A6 - 0x26], D0
00002C6C  2D40 FFB0                move.l     [A6 - 0x50], D0
00002C70  41EE FF80                lea.l      A0, [A6 - 0x80]
00002C74  A207                     syscall    GetVolInfo/PBHGetVInfo/HGetVInfo, flags=2
00002C76  3E00                     move.w     D7, D0
00002C78  661A                     bne        +0x1C /* 00002C94 */
00002C7A  4AAE FFDA                tst.l      [A6 - 0x26]
00002C7E  670A                     beq        +0xC /* 00002C8A */
00002C80  38AE FF96                move.w     [A4], [A6 - 0x6A]
00002C84  26AE FFDA                move.l     [A3], [A6 - 0x26]
00002C88  600A                     bra        +0xC /* 00002C94 */
label00002C8A:
00002C8A  7ED5                     moveq.l    D7, 0xFFFFFFD5
00002C8C  6006                     bra        +0x8 /* 00002C94 */
label00002C8E:
00002C8E  4A47                     tst.w      D7
00002C90  6602                     bne        +0x4 /* 00002C94 */
00002C92  7ED5                     moveq.l    D7, 0xFFFFFFD5
label00002C94:
00002C94  3D47 0018                move.w     [A6 + 0x18], D7
label00002C98:
00002C98  4CEE 18F0 FF64           movem.l    D4,D5,D6,D7,A3,A4, [A6 - 0x9C]
00002C9E  4E5E                     unlink     A6
00002CA0  205F                     movea.l    A0, [A7]+
00002CA2  4FEF 0010                lea.l      A7, [A7 + 0x10]
00002CA6  4ED0                     jmp        [A0]
00002CA8  8A46 494E 4446 4F4C 4... dc.b       "FINDFOLDER"
export_27:
00002CB6  4E56 FFCC                link       A6, -0x0034
00002CBA  2F07                     move.l     -[A7], D7
00002CBC  2D6E 0010 FFDE           move.l     [A6 - 0x22], [A6 + 0x10]
00002CC2  558F                     subq.l     A7, 2
00002CC4  486E FFCC                pea.l      [A6 - 0x34]
00002CC8  7000                     moveq.l    D0, 0x00
00002CCA  1F00                     move.b     -[A7], D0
00002CCC  4EBA D874                jsr        [PC - 0x278C /* 00000542 */]
00002CD0  3E1F                     move.w     D7, [A7]+
00002CD2  206E 000C                movea.l    A0, [A6 + 0xC]
00002CD6  30AE FFE2                move.w     [A0], [A6 - 0x1E]
00002CDA  206E 0008                movea.l    A0, [A6 + 0x8]
00002CDE  20AE FFFC                move.l     [A0], [A6 - 0x4]
00002CE2  3D47 0014                move.w     [A6 + 0x14], D7
00002CE6  2E2E FFC8                move.l     D7, [A6 - 0x38]
00002CEA  4E5E                     unlink     A6
00002CEC  205F                     movea.l    A0, [A7]+
00002CEE  4FEF 000C                lea.l      A7, [A7 + 0xC]
00002CF2  4ED0                     jmp        [A0]
00002CF4  8748 4745 5456 4F4C 0000 dc.b       "HGETVOL"
export_28:
00002CFE  4E56 FF86                link       A6, -0x007A
00002D02  2F07                     move.l     -[A7], D7
00002D04  3D6E 0016 FF9C           move.w     [A6 - 0x64], [A6 + 0x16]
00002D0A  2D6E 0012 FFB6           move.l     [A6 - 0x4A], [A6 + 0x12]
00002D10  2D6E 000E FF98           move.l     [A6 - 0x68], [A6 + 0xE]
00002D16  422E FFA0                clr.b      [A6 - 0x60]
00002D1A  1D6E 000C FFA1           move.b     [A6 - 0x5F], [A6 + 0xC]
00002D20  7000                     moveq.l    D0, 0x00
00002D22  2D40 FFA2                move.l     [A6 - 0x5E], D0
00002D26  558F                     subq.l     A7, 2
00002D28  486E FF86                pea.l      [A6 - 0x7A]
00002D2C  7000                     moveq.l    D0, 0x00
00002D2E  1F00                     move.b     -[A7], D0
00002D30  4EBA D822                jsr        [PC - 0x27DE /* 00000554 */]
00002D34  3E1F                     move.w     D7, [A7]+
00002D36  206E 0008                movea.l    A0, [A6 + 0x8]
00002D3A  30AE FF9E                move.w     [A0], [A6 - 0x62]
00002D3E  3D47 0018                move.w     [A6 + 0x18], D7
00002D42  2E2E FF82                move.l     D7, [A6 - 0x7E]
00002D46  4E5E                     unlink     A6
00002D48  205F                     movea.l    A0, [A7]+
00002D4A  4FEF 0010                lea.l      A7, [A7 + 0x10]
00002D4E  4ED0                     jmp        [A0]
00002D50  8548 4F50 454E 0000      dc.b       "HOPEN"
export_29:
00002D58  4E56 FF86                link       A6, -0x007A
00002D5C  48E7 0300                movem.l    -[A7], D6,D7
00002D60  2C2E 0014                move.l     D6, [A6 + 0x14]
00002D64  3D6E 0018 FF9C           move.w     [A6 - 0x64], [A6 + 0x18]
00002D6A  2D46 FFB6                move.l     [A6 - 0x4A], D6
00002D6E  2D6E 0010 FF98           move.l     [A6 - 0x68], [A6 + 0x10]
00002D74  422E FFA0                clr.b      [A6 - 0x60]
00002D78  558F                     subq.l     A7, 2
00002D7A  486E FF86                pea.l      [A6 - 0x7A]
00002D7E  7000                     moveq.l    D0, 0x00
00002D80  1F00                     move.b     -[A7], D0
00002D82  4EBA D7E2                jsr        [PC - 0x281E /* 00000566 */]
00002D86  3E1F                     move.w     D7, [A7]+
00002D88  6636                     bne        +0x38 /* 00002DC0 */
00002D8A  426E FFA2                clr.w      [A6 - 0x5E]
00002D8E  558F                     subq.l     A7, 2
00002D90  486E FF86                pea.l      [A6 - 0x7A]
00002D94  7000                     moveq.l    D0, 0x00
00002D96  1F00                     move.b     -[A7], D0
00002D98  4EBA D7DE                jsr        [PC - 0x2822 /* 00000578 */]
00002D9C  3E1F                     move.w     D7, [A7]+
00002D9E  6620                     bne        +0x22 /* 00002DC0 */
00002DA0  2D6E 000C FFAA           move.l     [A6 - 0x56], [A6 + 0xC]
00002DA6  2D6E 0008 FFA6           move.l     [A6 - 0x5A], [A6 + 0x8]
00002DAC  2D46 FFB6                move.l     [A6 - 0x4A], D6
00002DB0  558F                     subq.l     A7, 2
00002DB2  486E FF86                pea.l      [A6 - 0x7A]
00002DB6  7000                     moveq.l    D0, 0x00
00002DB8  1F00                     move.b     -[A7], D0
00002DBA  4EBA D7CE                jsr        [PC - 0x2832 /* 0000058A */]
00002DBE  3E1F                     move.w     D7, [A7]+
label00002DC0:
00002DC0  3D47 001A                move.w     [A6 + 0x1A], D7
00002DC4  4CEE 00C0 FF7E           movem.l    D6,D7, [A6 - 0x82]
00002DCA  4E5E                     unlink     A6
00002DCC  205F                     movea.l    A0, [A7]+
00002DCE  4FEF 0012                lea.l      A7, [A7 + 0x12]
00002DD2  4ED0                     jmp        [A0]
00002DD4  8748 4352 4541 5445 0000 dc.b       "HCREATE"
