# near model CODE resource
# jump table entries: 4872-4890 (19 of them)
fn00000000:
00000000  4E56 0000                link       A6, 0
00000004  4EBA 0C9C                jsr        [PC + 0xC9C /* 00000CA2 */]
00000008  2F2D ECD4                move.l     -[A7], [A5 - 0x132C]
0000000C  2F2D D6BC                move.l     -[A7], [A5 - 0x2944]
00000010  486D E2DA                pea.l      [A5 - 0x1D26]
00000014  4267                     clr.w      -[A7]
00000016  4EAD 1582                jsr        [A5 + 0x1582 /* export_684, CODE:15 @ 000005C0 */]
0000001A  2F2D ECD0                move.l     -[A7], [A5 - 0x1330]
0000001E  2F2D D6B8                move.l     -[A7], [A5 - 0x2948]
00000022  486D E2DA                pea.l      [A5 - 0x1D26]
00000026  4267                     clr.w      -[A7]
00000028  4EAD 1582                jsr        [A5 + 0x1582 /* export_684, CODE:15 @ 000005C0 */]
0000002C  41ED E2DA                lea.l      A0, [A5 - 0x1D26]
00000030  43ED ED8A                lea.l      A1, [A5 - 0x1276]
00000034  20D9                     move.l     [A0]+, [A1]+
00000036  20D9                     move.l     [A0]+, [A1]+
00000038  102D D68D                move.b     D0, [A5 - 0x2973]
0000003C  6716                     beq        +0x18 /* 00000054 */
0000003E  2F2D D6B4                move.l     -[A7], [A5 - 0x294C]
00000042  2F2D D6B0                move.l     -[A7], [A5 - 0x2950]
00000046  486D ED82                pea.l      [A5 - 0x127E]
0000004A  4267                     clr.w      -[A7]
0000004C  4EAD 1582                jsr        [A5 + 0x1582 /* export_684, CODE:15 @ 000005C0 */]
00000050  422D D68D                clr.b      [A5 - 0x2973]
label00000054:
00000054  1B6D E2E3 D69F           move.b     [A5 - 0x2961], [A5 - 0x1D1D]
0000005A  1B6D D50E D4FB           move.b     [A5 - 0x2B05], [A5 - 0x2AF2]
00000060  1B6D D50D D4FA           move.b     [A5 - 0x2B06], [A5 - 0x2AF3]
00000066  1B6D D50A D4F7           move.b     [A5 - 0x2B09], [A5 - 0x2AF6]
0000006C  1B6D D50C D4F9           move.b     [A5 - 0x2B07], [A5 - 0x2AF4]
00000072  1B6D D50B D4F8           move.b     [A5 - 0x2B08], [A5 - 0x2AF5]
00000078  1B6D D509 D4F6           move.b     [A5 - 0x2B0A], [A5 - 0x2AF7]
0000007E  41ED D4EE                lea.l      A0, [A5 - 0x2B12]
00000082  43ED D500                lea.l      A1, [A5 - 0x2B00]
00000086  20D9                     move.l     [A0]+, [A1]+
00000088  20D9                     move.l     [A0]+, [A1]+
0000008A  2B6D D4FC D4EA           move.l     [A5 - 0x2B16], [A5 - 0x2B04]
00000090  422D D50A                clr.b      [A5 - 0x2AF6]
00000094  4E5E                     unlink     A6
00000096  4E75                     rts
export_609:
00000098  4E56 0000                link       A6, 0
0000009C  1B7C 0001 E2F1           move.b     [A5 - 0x1D0F], 0x1
000000A2  1B7C 0001 E2F0           move.b     [A5 - 0x1D10], 0x1
000000A8  41ED E2F2                lea.l      A0, [A5 - 0x1D0E]
000000AC  43ED ED82                lea.l      A1, [A5 - 0x127E]
000000B0  20D9                     move.l     [A0]+, [A1]+
000000B2  20D9                     move.l     [A0]+, [A1]+
000000B4  422D D509                clr.b      [A5 - 0x2AF7]
000000B8  422D D50D                clr.b      [A5 - 0x2AF3]
000000BC  422D D50E                clr.b      [A5 - 0x2AF2]
000000C0  102D EFDF                move.b     D0, [A5 - 0x1021]
000000C4  6704                     beq        +0x6 /* 000000CA */
000000C6  4EBA 50C8                jsr        [PC + 0x50C8 /* 00005190 */]
label000000CA:
000000CA  4EBA 0EBC                jsr        [PC + 0xEBC /* 00000F88 */]
000000CE  4EBA FF30                jsr        [PC - 0xD0 /* 00000000 */]
000000D2  426D E09E                clr.w      [A5 - 0x1F62]
000000D6  4E5E                     unlink     A6
000000D8  4E75                     rts
export_610:
fn000000DA:
000000DA  4E56 FFFE                link       A6, -0x0002
000000DE  4EBA 4CD4                jsr        [PC + 0x4CD4 /* 00004DB4 */]
000000E2  4EBA FF1C                jsr        [PC - 0xE4 /* 00000000 */]
000000E6  4E5E                     unlink     A6
000000E8  4E75                     rts
fn000000EA:
000000EA  4E56 0000                link       A6, 0
000000EE  422E 0008                clr.b      [A6 + 0x8]
000000F2  4EAD 173A                jsr        [A5 + 0x173A /* export_739, CODE:15 @ 00004FD6 */]
000000F6  4EAD 160A                jsr        [A5 + 0x160A /* export_701, CODE:15 @ 00001282 */]
000000FA  102D D4E9                move.b     D0, [A5 - 0x2B17]
000000FE  6704                     beq        +0x6 /* 00000104 */
00000100  4EBA 3670                jsr        [PC + 0x3670 /* 00003772 */]
label00000104:
00000104  102D D50E                move.b     D0, [A5 - 0x2AF2]
00000108  6704                     beq        +0x6 /* 0000010E */
0000010A  4EBA 5C56                jsr        [PC + 0x5C56 /* 00005D62 */]
label0000010E:
0000010E  102D D50A                move.b     D0, [A5 - 0x2AF6]
00000112  6704                     beq        +0x6 /* 00000118 */
00000114  4EBA FEEA                jsr        [PC - 0x116 /* 00000000 */]
label00000118:
00000118  486D EE38                pea.l      [A5 - 0x11C8]
0000011C  A873                     syscall    SetPort
0000011E  102D F4CD                move.b     D0, [A5 - 0xB33]
00000122  C02D F016                and.b      D0, [A5 - 0xFEA]
00000126  122D D47A                move.b     D1, [A5 - 0x2B86]
0000012A  0A01 0001                xori.b     D1, 0x1
0000012E  C001                     and.b      D0, D1
00000130  6706                     beq        +0x8 /* 00000138 */
00000132  4EAD 15BA                jsr        [A5 + 0x15BA /* export_691, CODE:15 @ 00000AE6 */]
00000136  6026                     bra        +0x28 /* 0000015E */
label00000138:
00000138  4267                     clr.w      -[A7]
0000013A  4EBA 5286                jsr        [PC + 0x5286 /* 000053C2 */]
0000013E  101F                     move.b     D0, [A7]+
00000140  6702                     beq        +0x4 /* 00000144 */
00000142  601A                     bra        +0x1C /* 0000015E */
label00000144:
00000144  102D D50D                move.b     D0, [A5 - 0x2AF3]
00000148  802D D509                or.b       D0, [A5 - 0x2AF7]
0000014C  6708                     beq        +0xA /* 00000156 */
0000014E  1D7C 0001 0008           move.b     [A6 + 0x8], 0x1
00000154  6008                     bra        +0xA /* 0000015E */
label00000156:
00000156  3F3C 0004                move.w     -[A7], 0x4
0000015A  4EAD 187A                jsr        [A5 + 0x187A /* export_779, CODE:16 @ 00000500 */]
label0000015E:
0000015E  4E5E                     unlink     A6
00000160  4E75                     rts
fn00000162:
00000162  4E56 0000                link       A6, 0
00000166  4EAD 173A                jsr        [A5 + 0x173A /* export_739, CODE:15 @ 00004FD6 */]
0000016A  4EBA FE94                jsr        [PC - 0x16C /* 00000000 */]
0000016E  422D D50C                clr.b      [A5 - 0x2AF4]
00000172  1B7C 0001 D50A           move.b     [A5 - 0x2AF6], 0x1
00000178  1B7C 0001 E2E3           move.b     [A5 - 0x1D1D], 0x1
0000017E  1B7C 0001 E303           move.b     [A5 - 0x1CFD], 0x1
00000184  4EBA 7030                jsr        [PC + 0x7030 /* 000071B6 */]
00000188  3B7C 0001 D47C           move.w     [A5 - 0x2B84], 0x1
0000018E  102D EF22                move.b     D0, [A5 - 0x10DE]
00000192  6706                     beq        +0x8 /* 0000019A */
00000194  3B6D EF20 D47C           move.w     [A5 - 0x2B84], [A5 - 0x10E0]
label0000019A:
0000019A  4E5E                     unlink     A6
0000019C  4E75                     rts
fn0000019E:
0000019E  4E56 FFF8                link       A6, -0x0008
000001A2  2F0C                     move.l     -[A7], A4
000001A4  286E 0008                movea.l    A4, [A6 + 0x8]
000001A8  486C FFE0                pea.l      [A4 - 0x20]
000001AC  486C FF70                pea.l      [A4 - 0x90]
000001B0  2F2E 000C                move.l     -[A7], [A6 + 0xC]
000001B4  486D D700                pea.l      [A5 - 0x2900]
000001B8  486D D70E                pea.l      [A5 - 0x28F2]
000001BC  4267                     clr.w      -[A7]
000001BE  486D ED82                pea.l      [A5 - 0x127E]
000001C2  3F2C FF6C                move.w     -[A7], [A4 - 0x94]
000001C6  4EAD 14BA                jsr        [A5 + 0x14BA /* export_659, CODE:14 @ 00000106 */]
000001CA  486E FFF8                pea.l      [A6 - 0x8]
000001CE  302E 000E                move.w     D0, [A6 + 0xE]
000001D2  5140                     subq.w     D0, 8
000001D4  3F00                     move.w     -[A7], D0
000001D6  302E 000C                move.w     D0, [A6 + 0xC]
000001DA  906C FF60                sub.w      D0, [A4 - 0xA0]
000001DE  3F00                     move.w     -[A7], D0
000001E0  302E 000E                move.w     D0, [A6 + 0xE]
000001E4  5040                     addq.w     D0, 8
000001E6  3F00                     move.w     -[A7], D0
000001E8  302C FF5E                move.w     D0, [A4 - 0xA2]
000001EC  D06E 000C                add.w      D0, [A6 + 0xC]
000001F0  3F00                     move.w     -[A7], D0
000001F2  A8A7                     syscall    SetRect
000001F4  486E FFF8                pea.l      [A6 - 0x8]
000001F8  486D E2F2                pea.l      [A5 - 0x1D0E]
000001FC  4EAD 1CEA                jsr        [A5 + 0x1CEA /* export_921, CODE:17 @ 00001DBA */]
00000200  285F                     movea.l    A4, [A7]+
00000202  4E5E                     unlink     A6
00000204  205F                     movea.l    A0, [A7]+
00000206  504F                     addq.w     A7, 8
00000208  4ED0                     jmp        [A0]
fn0000020A:
0000020A  4E56 FFDC                link       A6, -0x0024
0000020E  48E7 0F08                movem.l    -[A7], D4,D5,D6,D7,A4
00000212  286E 0008                movea.l    A4, [A6 + 0x8]
00000216  4267                     clr.w      -[A7]
00000218  2F2C FFD4                move.l     -[A7], [A4 - 0x2C]
0000021C  486C FF64                pea.l      [A4 - 0x9C]
00000220  A8AD                     syscall    PtInRect
00000222  4267                     clr.w      -[A7]
00000224  2F2C FFD0                move.l     -[A7], [A4 - 0x30]
00000228  486C FF64                pea.l      [A4 - 0x9C]
0000022C  A8AD                     syscall    PtInRect
0000022E  101F                     move.b     D0, [A7]+
00000230  C01F                     and.b      D0, [A7]+
00000232  1D40 FFDF                move.b     [A6 - 0x21], D0
00000236  3C2C FFD2                move.w     D6, [A4 - 0x2E]
0000023A  9C6C FFD6                sub.w      D6, [A4 - 0x2A]
0000023E  3A2C FFD0                move.w     D5, [A4 - 0x30]
00000242  9A6C FFD4                sub.w      D5, [A4 - 0x2C]
00000246  4267                     clr.w      -[A7]
00000248  3006                     move.w     D0, D6
0000024A  6A02                     bpl        +0x4 /* 0000024E */
0000024C  4440                     neg.w      D0
label0000024E:
0000024E  3F00                     move.w     -[A7], D0
00000250  3005                     move.w     D0, D5
00000252  6A02                     bpl        +0x4 /* 00000256 */
00000254  4440                     neg.w      D0
label00000256:
00000256  3F00                     move.w     -[A7], D0
00000258  4EAD 18BA                jsr        [A5 + 0x18BA /* export_787, CODE:16 @ 000007C6 */]
0000025C  3E1F                     move.w     D7, [A7]+
0000025E  42A7                     clr.l      -[A7]
00000260  3F06                     move.w     -[A7], D6
00000262  3F07                     move.w     -[A7], D7
00000264  A869                     syscall    FixRatio
00000266  2D5F FFF0                move.l     [A6 - 0x10], [A7]+
0000026A  42A7                     clr.l      -[A7]
0000026C  3F05                     move.w     -[A7], D5
0000026E  3F07                     move.w     -[A7], D7
00000270  A869                     syscall    FixRatio
00000272  2D5F FFF4                move.l     [A6 - 0xC], [A7]+
00000276  42A7                     clr.l      -[A7]
00000278  302C FFD6                move.w     D0, [A4 - 0x2A]
0000027C  48C0                     ext.l      D0
0000027E  2F00                     move.l     -[A7], D0
00000280  3F3C 0010                move.w     -[A7], 0x10
00000284  A85C                     syscall    BitShift
00000286  281F                     move.l     D4, [A7]+
00000288  D8BC 0000 8000           add.l      D4, 0x8000
0000028E  42A7                     clr.l      -[A7]
00000290  302C FFD4                move.w     D0, [A4 - 0x2C]
00000294  48C0                     ext.l      D0
00000296  2F00                     move.l     -[A7], D0
00000298  3F3C 0010                move.w     -[A7], 0x10
0000029C  A85C                     syscall    BitShift
0000029E  201F                     move.l     D0, [A7]+
000002A0  D0BC 0000 8000           add.l      D0, 0x8000
000002A6  2D40 FFEC                move.l     [A6 - 0x14], D0
000002AA  3D47 FFDC                move.w     [A6 - 0x24], D7
000002AE  3D7C 0001 FFFC           move.w     [A6 - 0x4], 0x1
000002B4  603C                     bra        +0x3E /* 000002F2 */
label000002B6:
000002B6  D8AE FFF0                add.l      D4, [A6 - 0x10]
000002BA  202E FFF4                move.l     D0, [A6 - 0xC]
000002BE  D1AE FFEC                add.l      [A6 - 0x14], D0
000002C2  486C FFE0                pea.l      [A4 - 0x20]
000002C6  486C FF70                pea.l      [A4 - 0x90]
000002CA  2004                     move.l     D0, D4
000002CC  4840                     swap.w     D0
000002CE  3F00                     move.w     -[A7], D0
000002D0  3F2E FFEC                move.w     -[A7], [A6 - 0x14]
000002D4  486D D700                pea.l      [A5 - 0x2900]
000002D8  486D D70E                pea.l      [A5 - 0x28F2]
000002DC  1F2E FFDF                move.b     -[A7], [A6 - 0x21]
000002E0  486D ED82                pea.l      [A5 - 0x127E]
000002E4  3F2C FF6C                move.w     -[A7], [A4 - 0x94]
000002E8  4EAD 14BA                jsr        [A5 + 0x14BA /* export_659, CODE:14 @ 00000106 */]
000002EC  526E FFFC                addq.w     [A6 - 0x4], 1
000002F0  690A                     bvs        +0xC /* 000002FC */
label000002F2:
000002F2  302E FFFC                move.w     D0, [A6 - 0x4]
000002F6  B06E FFDC                cmp.w      D0, [A6 - 0x24]
000002FA  6FBA                     ble        -0x44 /* 000002B6 */
label000002FC:
000002FC  2F2C FFD0                move.l     -[A7], [A4 - 0x30]
00000300  2F2C FFD4                move.l     -[A7], [A4 - 0x2C]
00000304  486E FFE0                pea.l      [A6 - 0x20]
00000308  A8AC                     syscall    Pt2Rect
0000030A  302E FFE2                move.w     D0, [A6 - 0x1E]
0000030E  5140                     subq.w     D0, 8
00000310  3D40 FFE2                move.w     [A6 - 0x1E], D0
00000314  302E FFE6                move.w     D0, [A6 - 0x1A]
00000318  5040                     addq.w     D0, 8
0000031A  3D40 FFE6                move.w     [A6 - 0x1A], D0
0000031E  302E FFE0                move.w     D0, [A6 - 0x20]
00000322  906C FF60                sub.w      D0, [A4 - 0xA0]
00000326  3D40 FFE0                move.w     [A6 - 0x20], D0
0000032A  302C FF5E                move.w     D0, [A4 - 0xA2]
0000032E  D06E FFE4                add.w      D0, [A6 - 0x1C]
00000332  3D40 FFE4                move.w     [A6 - 0x1C], D0
00000336  486E FFE0                pea.l      [A6 - 0x20]
0000033A  486D E2F2                pea.l      [A5 - 0x1D0E]
0000033E  4EAD 1CEA                jsr        [A5 + 0x1CEA /* export_921, CODE:17 @ 00001DBA */]
00000342  4CDF 10F0                movem.l    D4,D5,D6,D7,A4, [A7]+
00000346  4E5E                     unlink     A6
00000348  2E9F                     move.l     [A7], [A7]+
0000034A  4E75                     rts
fn0000034C:
0000034C  4E56 FF5A                link       A6, -0x00A6
00000350  48E7 0308                movem.l    -[A7], D6,D7,A4
00000354  206E 000C                movea.l    A0, [A6 + 0xC]
00000358  43EE FFE0                lea.l      A1, [A6 - 0x20]
0000035C  7007                     moveq.l    D0, 0x07
label0000035E:
0000035E  22D8                     move.l     [A1]+, [A0]+
00000360  51C8 FFFC                dbf        D0, -0x6 /* 0000035E */
00000364  206E 0008                movea.l    A0, [A6 + 0x8]
00000368  43EE FFD8                lea.l      A1, [A6 - 0x28]
0000036C  22D8                     move.l     [A1]+, [A0]+
0000036E  22D8                     move.l     [A1]+, [A0]+
00000370  486E FFD4                pea.l      [A6 - 0x2C]
00000374  4EBA 2CA6                jsr        [PC + 0x2CA6 /* 0000301C */]
00000378  4EBA FDE8                jsr        [PC - 0x218 /* 00000162 */]
0000037C  3D7C 0008 FF60           move.w     [A6 - 0xA0], 0x8
00000382  49EE FFE0                lea.l      A4, [A6 - 0x20]
label00000386:
00000386  4A54                     tst.w      [A4]
00000388  57C0                     seq        D0
0000038A  4A6E FF60                tst.w      [A6 - 0xA0]
0000038E  5EC1                     sgt        D1
00000390  C001                     and.b      D0, D1
00000392  6708                     beq        +0xA /* 0000039C */
00000394  536E FF60                subq.w     [A6 - 0xA0], 1
00000398  548C                     addq.l     A4, 2
0000039A  60EA                     bra        -0x14 /* 00000386 */
label0000039C:
0000039C  3D7C 0008 FF5E           move.w     [A6 - 0xA2], 0x8
000003A2  41EE FFE0                lea.l      A0, [A6 - 0x20]
000003A6  2848                     movea.l    A4, A0
000003A8  701E                     moveq.l    D0, 0x1E
000003AA  D9C0                     add.l      A4, D0
label000003AC:
000003AC  4A54                     tst.w      [A4]
000003AE  57C0                     seq        D0
000003B0  4A6E FF5E                tst.w      [A6 - 0xA2]
000003B4  5EC1                     sgt        D1
000003B6  C001                     and.b      D0, D1
000003B8  6708                     beq        +0xA /* 000003C2 */
000003BA  536E FF5E                subq.w     [A6 - 0xA2], 1
000003BE  558C                     subq.l     A4, 2
000003C0  60EA                     bra        -0x14 /* 000003AC */
label000003C2:
000003C2  7008                     moveq.l    D0, 0x08
000003C4  B06D EFDC                cmp.w      D0, [A5 - 0x1024]
000003C8  660C                     bne        +0xE /* 000003D6 */
000003CA  7E01                     moveq.l    D7, 0x01
000003CC  102D F004                move.b     D0, [A5 - 0xFFC]
000003D0  6702                     beq        +0x4 /* 000003D4 */
000003D2  4247                     clr.w      D7
label000003D4:
000003D4  600A                     bra        +0xC /* 000003E0 */
label000003D6:
000003D6  4247                     clr.w      D7
000003D8  102D F004                move.b     D0, [A5 - 0xFFC]
000003DC  6702                     beq        +0x4 /* 000003E0 */
000003DE  7E01                     moveq.l    D7, 0x01
label000003E0:
000003E0  486E FFD8                pea.l      [A6 - 0x28]
000003E4  486E FF70                pea.l      [A6 - 0x90]
000003E8  3F2D ED06                move.w     -[A7], [A5 - 0x12FA]
000003EC  4EAD 14CA                jsr        [A5 + 0x14CA /* export_661, CODE:14 @ 00000232 */]
000003F0  426E FF6C                clr.w      [A6 - 0x94]
000003F4  4267                     clr.w      -[A7]
000003F6  486E FFD8                pea.l      [A6 - 0x28]
000003FA  486D FE98                pea.l      [A5 - 0x168]
000003FE  4EAD 1C1A                jsr        [A5 + 0x1C1A /* export_895, CODE:17 @ 00000930 */]
00000402  101F                     move.b     D0, [A7]+
00000404  6706                     beq        +0x8 /* 0000040C */
00000406  3D7C 0001 FF6C           move.w     [A6 - 0x94], 0x1
label0000040C:
0000040C  41EE FF64                lea.l      A0, [A6 - 0x9C]
00000410  43ED ED82                lea.l      A1, [A5 - 0x127E]
00000414  20D9                     move.l     [A0]+, [A1]+
00000416  20D9                     move.l     [A0]+, [A1]+
00000418  486E FF64                pea.l      [A6 - 0x9C]
0000041C  2F3C 0008 0008           move.l     -[A7], 0x80008
00000422  A8A9                     syscall    InsetRect
00000424  2F2E FFD4                move.l     -[A7], [A6 - 0x2C]
00000428  2F0E                     move.l     -[A7], A6
0000042A  4EBA FD72                jsr        [PC - 0x28E /* 0000019E */]
0000042E  486D E2F2                pea.l      [A5 - 0x1D0E]
00000432  486D D68E                pea.l      [A5 - 0x2972]
00000436  4EAD 1CEA                jsr        [A5 + 0x1CEA /* export_921, CODE:17 @ 00001DBA */]
0000043A  486D E2F2                pea.l      [A5 - 0x1D0E]
0000043E  486D E2F2                pea.l      [A5 - 0x1D0E]
00000442  3F07                     move.w     -[A7], D7
00000444  4EBA 5F60                jsr        [PC + 0x5F60 /* 000063A6 */]
00000448  4EBA 0B3E                jsr        [PC + 0xB3E /* 00000F88 */]
0000044C  2F2E FFD4                move.l     -[A7], [A6 - 0x2C]
00000450  4EAD 17E2                jsr        [A5 + 0x17E2 /* export_760, CODE:15 @ 00006D92 */]
00000454  7C01                     moveq.l    D6, 0x01
00000456  7008                     moveq.l    D0, 0x08
00000458  B06D EFDC                cmp.w      D0, [A5 - 0x1024]
0000045C  6602                     bne        +0x4 /* 00000460 */
0000045E  4246                     clr.w      D6
label00000460:
00000460  700A                     moveq.l    D0, 0x0A
00000462  B06D EFDC                cmp.w      D0, [A5 - 0x1024]
00000466  6602                     bne        +0x4 /* 0000046A */
00000468  7C02                     moveq.l    D6, 0x02
label0000046A:
0000046A  486E FFD0                pea.l      [A6 - 0x30]
0000046E  4EBA 2BAC                jsr        [PC + 0x2BAC /* 0000301C */]
00000472  486E FFD0                pea.l      [A6 - 0x30]
00000476  4EAD 17CA                jsr        [A5 + 0x17CA /* export_757, CODE:15 @ 00006960 */]
0000047A  302E FFD2                move.w     D0, [A6 - 0x2E]
0000047E  906E FFD6                sub.w      D0, [A6 - 0x2A]
00000482  6A02                     bpl        +0x4 /* 00000486 */
00000484  4440                     neg.w      D0
label00000486:
00000486  322E FFD0                move.w     D1, [A6 - 0x30]
0000048A  926E FFD4                sub.w      D1, [A6 - 0x2C]
0000048E  6A02                     bpl        +0x4 /* 00000492 */
00000490  4441                     neg.w      D1
label00000492:
00000492  D240                     add.w      D1, D0
00000494  BC41                     cmp.w      D6, D1
00000496  6C3E                     bge        +0x40 /* 000004D6 */
00000498  700A                     moveq.l    D0, 0x0A
0000049A  B06D EFDC                cmp.w      D0, [A5 - 0x1024]
0000049E  660C                     bne        +0xE /* 000004AC */
000004A0  2F2E FFD0                move.l     -[A7], [A6 - 0x30]
000004A4  2F0E                     move.l     -[A7], A6
000004A6  4EBA FCF6                jsr        [PC - 0x30A /* 0000019E */]
000004AA  6006                     bra        +0x8 /* 000004B2 */
label000004AC:
000004AC  2F0E                     move.l     -[A7], A6
000004AE  4EBA FD5A                jsr        [PC - 0x2A6 /* 0000020A */]
label000004B2:
000004B2  486D E2F2                pea.l      [A5 - 0x1D0E]
000004B6  486D D68E                pea.l      [A5 - 0x2972]
000004BA  4EAD 1CEA                jsr        [A5 + 0x1CEA /* export_921, CODE:17 @ 00001DBA */]
000004BE  486D E2F2                pea.l      [A5 - 0x1D0E]
000004C2  486D E2F2                pea.l      [A5 - 0x1D0E]
000004C6  3F07                     move.w     -[A7], D7
000004C8  4EBA 5EDC                jsr        [PC + 0x5EDC /* 000063A6 */]
000004CC  4EBA 0ABA                jsr        [PC + 0xABA /* 00000F88 */]
000004D0  2D6E FFD0 FFD4           move.l     [A6 - 0x2C], [A6 - 0x30]
label000004D6:
000004D6  4267                     clr.w      -[A7]
000004D8  4EAD 210A                jsr        [A5 + 0x210A /* export_1053, CODE:20 @ 000016F6 */]
000004DC  101F                     move.b     D0, [A7]+
000004DE  0A00 0001                xori.b     D0, 0x1
000004E2  6786                     beq        -0x78 /* 0000046A */
000004E4  1B7C 0001 D50E           move.b     [A5 - 0x2AF2], 0x1
000004EA  4CDF 10C0                movem.l    D6,D7,A4, [A7]+
000004EE  4E5E                     unlink     A6
000004F0  205F                     movea.l    A0, [A7]+
000004F2  504F                     addq.w     A7, 8
000004F4  4ED0                     jmp        [A0]
fn000004F6:
000004F6  4E56 FFF4                link       A6, -0x000C
000004FA  48E7 0F00                movem.l    -[A7], D4,D5,D6,D7
000004FE  42A7                     clr.l      -[A7]
00000500  A8CB                     syscall    OpenPoly
00000502  2D5F 001A                move.l     [A6 + 0x1A], [A7]+
00000506  3D6E 0018 FFF4           move.w     [A6 - 0xC], [A6 + 0x18]
0000050C  7E01                     moveq.l    D7, 0x01
0000050E  606A                     bra        +0x6C /* 0000057A */
label00000510:
00000510  4267                     clr.w      -[A7]
00000512  42A7                     clr.l      -[A7]
00000514  2F2E 0008                move.l     -[A7], [A6 + 0x8]
00000518  42A7                     clr.l      -[A7]
0000051A  42A7                     clr.l      -[A7]
0000051C  2F2E 0010                move.l     -[A7], [A6 + 0x10]
00000520  4EAD 019A                jsr        [A5 + 0x19A /* export_47, CODE:1 @ 000042AA */]
00000524  4EBA 362A                jsr        [PC + 0x362A /* 00003B50 */]
00000528  A868                     syscall    FixMul
0000052A  A86C                     syscall    FixRound
0000052C  3C1F                     move.w     D6, [A7]+
0000052E  DC6E 0016                add.w      D6, [A6 + 0x16]
00000532  4267                     clr.w      -[A7]
00000534  42A7                     clr.l      -[A7]
00000536  2F2E 0008                move.l     -[A7], [A6 + 0x8]
0000053A  42A7                     clr.l      -[A7]
0000053C  42A7                     clr.l      -[A7]
0000053E  2F2E 0010                move.l     -[A7], [A6 + 0x10]
00000542  4EAD 01A2                jsr        [A5 + 0x1A2 /* export_48, CODE:1 @ 000042BA */]
00000546  4EBA 3608                jsr        [PC + 0x3608 /* 00003B50 */]
0000054A  A868                     syscall    FixMul
0000054C  A86C                     syscall    FixRound
0000054E  3A1F                     move.w     D5, [A7]+
00000550  DA6E 0014                add.w      D5, [A6 + 0x14]
00000554  7001                     moveq.l    D0, 0x01
00000556  B047                     cmp.w      D0, D7
00000558  660E                     bne        +0x10 /* 00000568 */
0000055A  3F06                     move.w     -[A7], D6
0000055C  3F05                     move.w     -[A7], D5
0000055E  A893                     syscall    MoveTo
00000560  3806                     move.w     D4, D6
00000562  3D45 FFFE                move.w     [A6 - 0x2], D5
00000566  6006                     bra        +0x8 /* 0000056E */
label00000568:
00000568  3F06                     move.w     -[A7], D6
0000056A  3F05                     move.w     -[A7], D5
0000056C  A891                     syscall    LineTo
label0000056E:
0000056E  202E 000C                move.l     D0, [A6 + 0xC]
00000572  D1AE 0010                add.l      [A6 + 0x10], D0
00000576  5247                     addq.w     D7, 1
00000578  6906                     bvs        +0x8 /* 00000580 */
label0000057A:
0000057A  BE6E FFF4                cmp.w      D7, [A6 - 0xC]
0000057E  6F90                     ble        -0x6E /* 00000510 */
label00000580:
00000580  3F04                     move.w     -[A7], D4
00000582  3F2E FFFE                move.w     -[A7], [A6 - 0x2]
00000586  A891                     syscall    LineTo
00000588  A8CC                     syscall    ClosePoly/ClosePgon
0000058A  4CDF 00F0                movem.l    D4,D5,D6,D7, [A7]+
0000058E  4E5E                     unlink     A6
00000590  205F                     movea.l    A0, [A7]+
00000592  DEFC 0012                add.w      A7, 0x12
00000596  4ED0                     jmp        [A0]
fn00000598:
00000598  4E56 FFFC                link       A6, -0x0004
0000059C  3D6E 000E FFFE           move.w     [A6 - 0x2], [A6 + 0xE]
000005A2  3D6E 000C FFFC           move.w     [A6 - 0x4], [A6 + 0xC]
000005A8  4267                     clr.w      -[A7]
000005AA  2F2E FFFC                move.l     -[A7], [A6 - 0x4]
000005AE  486D ED82                pea.l      [A5 - 0x127E]
000005B2  A8AD                     syscall    PtInRect
000005B4  101F                     move.b     D0, [A7]+
000005B6  6724                     beq        +0x26 /* 000005DC */
000005B8  4267                     clr.w      -[A7]
000005BA  2F2E 000C                move.l     -[A7], [A6 + 0xC]
000005BE  486D ED0C                pea.l      [A5 - 0x12F4]
000005C2  4EAD 1502                jsr        [A5 + 0x1502 /* export_668, CODE:14 @ 0000079E */]
000005C6  101F                     move.b     D0, [A7]+
000005C8  670A                     beq        +0xC /* 000005D4 */
000005CA  206E 0008                movea.l    A0, [A6 + 0x8]
000005CE  5268 FFFA                addq.w     [A0 - 0x6], 1
000005D2  6008                     bra        +0xA /* 000005DC */
label000005D4:
000005D4  206E 0008                movea.l    A0, [A6 + 0x8]
000005D8  5268 FFF8                addq.w     [A0 - 0x8], 1
label000005DC:
000005DC  4E5E                     unlink     A6
000005DE  205F                     movea.l    A0, [A7]+
000005E0  504F                     addq.w     A7, 8
000005E2  4ED0                     jmp        [A0]
fn000005E4:
000005E4  4E56 FFF8                link       A6, -0x0008
000005E8  48E7 0300                movem.l    -[A7], D6,D7
000005EC  426E FFF8                clr.w      [A6 - 0x8]
000005F0  426E FFFA                clr.w      [A6 - 0x6]
000005F4  302D D506                move.w     D0, [A5 - 0x2AFA]
000005F8  D06D D502                add.w      D0, [A5 - 0x2AFE]
000005FC  48C0                     ext.l      D0
000005FE  81FC 0002                divs.w     D0, 0x2
00000602  3E00                     move.w     D7, D0
00000604  302D D504                move.w     D0, [A5 - 0x2AFC]
00000608  D06D D500                add.w      D0, [A5 - 0x2B00]
0000060C  48C0                     ext.l      D0
0000060E  81FC 0002                divs.w     D0, 0x2
00000612  3C00                     move.w     D6, D0
00000614  302D D502                move.w     D0, [A5 - 0x2AFE]
00000618  5340                     subq.w     D0, 1
0000061A  3F00                     move.w     -[A7], D0
0000061C  3F06                     move.w     -[A7], D6
0000061E  2F0E                     move.l     -[A7], A6
00000620  4EBA FF76                jsr        [PC - 0x8A /* 00000598 */]
00000624  302D D506                move.w     D0, [A5 - 0x2AFA]
00000628  5240                     addq.w     D0, 1
0000062A  3F00                     move.w     -[A7], D0
0000062C  3F06                     move.w     -[A7], D6
0000062E  2F0E                     move.l     -[A7], A6
00000630  4EBA FF66                jsr        [PC - 0x9A /* 00000598 */]
00000634  3F07                     move.w     -[A7], D7
00000636  302D D500                move.w     D0, [A5 - 0x2B00]
0000063A  5340                     subq.w     D0, 1
0000063C  3F00                     move.w     -[A7], D0
0000063E  2F0E                     move.l     -[A7], A6
00000640  4EBA FF56                jsr        [PC - 0xAA /* 00000598 */]
00000644  3F07                     move.w     -[A7], D7
00000646  302D D504                move.w     D0, [A5 - 0x2AFC]
0000064A  5240                     addq.w     D0, 1
0000064C  3F00                     move.w     -[A7], D0
0000064E  2F0E                     move.l     -[A7], A6
00000650  4EBA FF46                jsr        [PC - 0xBA /* 00000598 */]
00000654  302E FFF8                move.w     D0, [A6 - 0x8]
00000658  B06E FFFA                cmp.w      D0, [A6 - 0x6]
0000065C  5CC0                     sge        D0
0000065E  4400                     neg.b      D0
00000660  1B40 D50B                move.b     [A5 - 0x2AF5], D0
00000664  4CDF 00C0                movem.l    D6,D7, [A7]+
00000668  4E5E                     unlink     A6
0000066A  4E75                     rts
fn0000066C:
0000066C  4E56 FFF2                link       A6, -0x000E
00000670  48E7 0708                movem.l    -[A7], D5,D6,D7,A4
00000674  1A2D EFD9                move.b     D5, [A5 - 0x1027]
00000678  1B7C 0001 EFD9           move.b     [A5 - 0x1027], 0x1
0000067E  41EE FFF4                lea.l      A0, [A6 - 0xC]
00000682  43ED ED82                lea.l      A1, [A5 - 0x127E]
00000686  20D9                     move.l     [A0]+, [A1]+
00000688  20D9                     move.l     [A0]+, [A1]+
0000068A  102D E225                move.b     D0, [A5 - 0x1DDB]
0000068E  670C                     beq        +0xE /* 0000069C */
00000690  41EE FFF4                lea.l      A0, [A6 - 0xC]
00000694  43ED D678                lea.l      A1, [A5 - 0x2988]
00000698  20D9                     move.l     [A0]+, [A1]+
0000069A  20D9                     move.l     [A0]+, [A1]+
label0000069C:
0000069C  286E 0008                movea.l    A4, [A6 + 0x8]
000006A0  3E2C 0006                move.w     D7, [A4 + 0x6]
000006A4  9E6C 0002                sub.w      D7, [A4 + 0x2]
000006A8  3C2C 0004                move.w     D6, [A4 + 0x4]
000006AC  9C54                     sub.w      D6, [A4]
000006AE  302E FFFA                move.w     D0, [A6 - 0x6]
000006B2  D06E FFF6                add.w      D0, [A6 - 0xA]
000006B6  9047                     sub.w      D0, D7
000006B8  48C0                     ext.l      D0
000006BA  81FC 0002                divs.w     D0, 0x2
000006BE  3940 0002                move.w     [A4 + 0x2], D0
000006C2  302E FFF8                move.w     D0, [A6 - 0x8]
000006C6  D06E FFF4                add.w      D0, [A6 - 0xC]
000006CA  9046                     sub.w      D0, D6
000006CC  48C0                     ext.l      D0
000006CE  81FC 0002                divs.w     D0, 0x2
000006D2  3880                     move.w     [A4], D0
000006D4  2F0C                     move.l     -[A7], A4
000006D6  4EBA 2BF4                jsr        [PC + 0x2BF4 /* 000032CC */]
000006DA  3007                     move.w     D0, D7
000006DC  D06C 0002                add.w      D0, [A4 + 0x2]
000006E0  3940 0006                move.w     [A4 + 0x6], D0
000006E4  3006                     move.w     D0, D6
000006E6  D054                     add.w      D0, [A4]
000006E8  3940 0004                move.w     [A4 + 0x4], D0
000006EC  1B45 EFD9                move.b     [A5 - 0x1027], D5
000006F0  2F2E 0008                move.l     -[A7], [A6 + 0x8]
000006F4  4EBA 000C                jsr        [PC + 0xC /* 00000702 */]
000006F8  4CDF 10E0                movem.l    D5,D6,D7,A4, [A7]+
000006FC  4E5E                     unlink     A6
000006FE  2E9F                     move.l     [A7], [A7]+
00000700  4E75                     rts
fn00000702:
00000702  4E56 FFEE                link       A6, -0x0012
00000706  206E 0008                movea.l    A0, [A6 + 0x8]
0000070A  43EE FFF8                lea.l      A1, [A6 - 0x8]
0000070E  22D8                     move.l     [A1]+, [A0]+
00000710  22D8                     move.l     [A1]+, [A0]+
00000712  102D E225                move.b     D0, [A5 - 0x1DDB]
00000716  673E                     beq        +0x40 /* 00000756 */
00000718  4267                     clr.w      -[A7]
0000071A  486E FFF8                pea.l      [A6 - 0x8]
0000071E  486D D678                pea.l      [A5 - 0x2988]
00000722  486E FFEE                pea.l      [A6 - 0x12]
00000726  A8AA                     syscall    SectRect
00000728  1D5F FFF7                move.b     [A6 - 0x9], [A7]+
0000072C  4267                     clr.w      -[A7]
0000072E  486E FFF8                pea.l      [A6 - 0x8]
00000732  486E FFEE                pea.l      [A6 - 0x12]
00000736  A8A6                     syscall    EqualRect
00000738  101F                     move.b     D0, [A7]+
0000073A  661A                     bne        +0x1C /* 00000756 */
0000073C  422D E225                clr.b      [A5 - 0x1DDB]
00000740  2F2D EDBC                move.l     -[A7], [A5 - 0x1244]
00000744  A916                     syscall    HideWindow
00000746  41ED E2F2                lea.l      A0, [A5 - 0x1D0E]
0000074A  43ED ED82                lea.l      A1, [A5 - 0x127E]
0000074E  20D9                     move.l     [A0]+, [A1]+
00000750  20D9                     move.l     [A0]+, [A1]+
00000752  4EBA 0834                jsr        [PC + 0x834 /* 00000F88 */]
label00000756:
00000756  4E5E                     unlink     A6
00000758  2E9F                     move.l     [A7], [A7]+
0000075A  4E75                     rts
fn0000075C:
0000075C  4E56 FFF8                link       A6, -0x0008
00000760  206E 0008                movea.l    A0, [A6 + 0x8]
00000764  3028 FFF8                move.w     D0, [A0 - 0x8]
00000768  EB40                     asl        D0.w, 5
0000076A  D07C 0010                add.w      D0, 0x10
0000076E  3D40 FFFA                move.w     [A6 - 0x6], D0
00000772  D07C 0020                add.w      D0, 0x20 /* ' ' */
00000776  3D40 FFFE                move.w     [A6 - 0x2], D0
0000077A  206E 0008                movea.l    A0, [A6 + 0x8]
0000077E  3028 FFF6                move.w     D0, [A0 - 0xA]
00000782  EB40                     asl        D0.w, 5
00000784  D07C 0010                add.w      D0, 0x10
00000788  3D40 FFF8                move.w     [A6 - 0x8], D0
0000078C  D07C 0020                add.w      D0, 0x20 /* ' ' */
00000790  3D40 FFFC                move.w     [A6 - 0x4], D0
00000794  2F3C 0002 0002           move.l     -[A7], 0x20002
0000079A  A89B                     syscall    PenSize
0000079C  3F3C 000A                move.w     -[A7], 0xA /* '\n' */
000007A0  A89C                     syscall    PenMode
000007A2  486E FFF8                pea.l      [A6 - 0x8]
000007A6  A8A1                     syscall    FrameRect
000007A8  A89E                     syscall    PenNormal
000007AA  4E5E                     unlink     A6
000007AC  2E9F                     move.l     [A7], [A7]+
000007AE  4E75                     rts
fn000007B0:
000007B0  4E56 FFEC                link       A6, -0x0014
000007B4  48E7 0708                movem.l    -[A7], D5,D6,D7,A4
000007B8  4EBA F846                jsr        [PC - 0x7BA /* 00000000 */]
000007BC  4EAD 1862                jsr        [A5 + 0x1862 /* export_776, CODE:16 @ 00000474 */]
000007C0  42A7                     clr.l      -[A7]
000007C2  3F3C 07DA                move.w     -[A7], 0x7DA
000007C6  42A7                     clr.l      -[A7]
000007C8  70FF                     moveq.l    D0, 0xFFFFFFFF
000007CA  2F00                     move.l     -[A7], D0
000007CC  A97C                     syscall    GetNewDialog
000007CE  285F                     movea.l    A4, [A7]+
000007D0  2F0C                     move.l     -[A7], A4
000007D2  A873                     syscall    SetPort
000007D4  4EAD 21DA                jsr        [A5 + 0x21DA /* export_1079, CODE:20 @ 00004546 */]
000007D8  7E78                     moveq.l    D7, 0x78
000007DA  7C18                     moveq.l    D6, 0x18
000007DC  426E FFF8                clr.w      [A6 - 0x8]
000007E0  6032                     bra        +0x34 /* 00000814 */
label000007E2:
000007E2  7A18                     moveq.l    D5, 0x18
000007E4  426E FFF6                clr.w      [A6 - 0xA]
000007E8  601A                     bra        +0x1C /* 00000804 */
label000007EA:
000007EA  3F06                     move.w     -[A7], D6
000007EC  3005                     move.w     D0, D5
000007EE  D07C 0010                add.w      D0, 0x10
000007F2  3F00                     move.w     -[A7], D0
000007F4  A893                     syscall    MoveTo
000007F6  3F07                     move.w     -[A7], D7
000007F8  A883                     syscall    DrawChar
000007FA  DA7C 0020                add.w      D5, 0x20 /* ' ' */
000007FE  5247                     addq.w     D7, 1
00000800  526E FFF6                addq.w     [A6 - 0xA], 1
label00000804:
00000804  7003                     moveq.l    D0, 0x03
00000806  B06E FFF6                cmp.w      D0, [A6 - 0xA]
0000080A  6CDE                     bge        -0x20 /* 000007EA */
0000080C  DC7C 0020                add.w      D6, 0x20 /* ' ' */
00000810  526E FFF8                addq.w     [A6 - 0x8], 1
label00000814:
00000814  7007                     moveq.l    D0, 0x07
00000816  B06E FFF8                cmp.w      D0, [A6 - 0x8]
0000081A  6CC6                     bge        -0x38 /* 000007E2 */
0000081C  4EAD 218A                jsr        [A5 + 0x218A /* export_1069, CODE:20 @ 00003950 */]
00000820  302D EF4C                move.w     D0, [A5 - 0x10B4]
00000824  5340                     subq.w     D0, 1
00000826  48C0                     ext.l      D0
00000828  81FC 0004                divs.w     D0, 0x4
0000082C  3D40 FFF8                move.w     [A6 - 0x8], D0
00000830  42A7                     clr.l      -[A7]
00000832  302D EF4C                move.w     D0, [A5 - 0x10B4]
00000836  5340                     subq.w     D0, 1
00000838  48C0                     ext.l      D0
0000083A  2F00                     move.l     -[A7], D0
0000083C  7003                     moveq.l    D0, 0x03
0000083E  2F00                     move.l     -[A7], D0
00000840  A858                     syscall    BitAnd
00000842  201F                     move.l     D0, [A7]+
00000844  3D40 FFF6                move.w     [A6 - 0xA], D0
00000848  2F0E                     move.l     -[A7], A6
0000084A  4EBA FF10                jsr        [PC - 0xF0 /* 0000075C */]
0000084E  42A7                     clr.l      -[A7]
00000850  486E FFFA                pea.l      [A6 - 0x6]
00000854  A991                     syscall    ModalDialog
00000856  7002                     moveq.l    D0, 0x02
00000858  B06E FFFA                cmp.w      D0, [A6 - 0x6]
0000085C  6670                     bne        +0x72 /* 000008CE */
0000085E  486E FFF2                pea.l      [A6 - 0xE]
00000862  4EAD 20DA                jsr        [A5 + 0x20DA /* export_1047, CODE:20 @ 0000147C */]
00000866  2F0E                     move.l     -[A7], A6
00000868  4EBA FEF2                jsr        [PC - 0x10E /* 0000075C */]
0000086C  4267                     clr.w      -[A7]
0000086E  302E FFF2                move.w     D0, [A6 - 0xE]
00000872  907C 0010                sub.w      D0, 0x10
00000876  48C0                     ext.l      D0
00000878  81FC 0020                divs.w     D0, 0x20 /* ' ' */
0000087C  3F00                     move.w     -[A7], D0
0000087E  2F3C 0003 0000           move.l     -[A7], 0x30000
00000884  4EAD 1A8A                jsr        [A5 + 0x1A8A /* export_845, CODE:16 @ 000019F8 */]
00000888  3D5F FFF6                move.w     [A6 - 0xA], [A7]+
0000088C  4267                     clr.w      -[A7]
0000088E  302E FFF4                move.w     D0, [A6 - 0xC]
00000892  907C 0010                sub.w      D0, 0x10
00000896  48C0                     ext.l      D0
00000898  81FC 0020                divs.w     D0, 0x20 /* ' ' */
0000089C  3F00                     move.w     -[A7], D0
0000089E  2F3C 0007 0000           move.l     -[A7], 0x70000
000008A4  4EAD 1A8A                jsr        [A5 + 0x1A8A /* export_845, CODE:16 @ 000019F8 */]
000008A8  3D5F FFF8                move.w     [A6 - 0x8], [A7]+
000008AC  2F0E                     move.l     -[A7], A6
000008AE  4EBA FEAC                jsr        [PC - 0x154 /* 0000075C */]
000008B2  302E FFF6                move.w     D0, [A6 - 0xA]
000008B6  5240                     addq.w     D0, 1
000008B8  322E FFF8                move.w     D1, [A6 - 0x8]
000008BC  E541                     asl        D1.w, 2
000008BE  D240                     add.w      D1, D0
000008C0  3B41 EF4C                move.w     [A5 - 0x10B4], D1
000008C4  2F2D EDC8                move.l     -[A7], [A5 - 0x1238]
000008C8  A873                     syscall    SetPort
000008CA  4EAD 220A                jsr        [A5 + 0x220A /* export_1085, CODE:20 @ 000048DE */]
label000008CE:
000008CE  486E FFF2                pea.l      [A6 - 0xE]
000008D2  4EAD 20DA                jsr        [A5 + 0x20DA /* export_1047, CODE:20 @ 0000147C */]
000008D6  4267                     clr.w      -[A7]
000008D8  4EAD 210A                jsr        [A5 + 0x210A /* export_1053, CODE:20 @ 000016F6 */]
000008DC  101F                     move.b     D0, [A7]+
000008DE  0A00 0001                xori.b     D0, 0x1
000008E2  67EA                     beq        -0x14 /* 000008CE */
000008E4  2F0C                     move.l     -[A7], A4
000008E6  4EAD 201A                jsr        [A5 + 0x201A /* export_1023, CODE:20 @ 000002FA */]
000008EA  1B7C 0001 EFEF           move.b     [A5 - 0x1011], 0x1
000008F0  7007                     moveq.l    D0, 0x07
000008F2  B06D EFDC                cmp.w      D0, [A5 - 0x1024]
000008F6  6708                     beq        +0xA /* 00000900 */
000008F8  3F3C 0007                move.w     -[A7], 0x7
000008FC  4EBA 3A1C                jsr        [PC + 0x3A1C /* 0000431A */]
label00000900:
00000900  4CDF 10E0                movem.l    D5,D6,D7,A4, [A7]+
00000904  4E5E                     unlink     A6
00000906  4E75                     rts
fn00000908:
00000908  4E56 FFFC                link       A6, -0x0004
0000090C  48E7 0308                movem.l    -[A7], D6,D7,A4
00000910  286E 0008                movea.l    A4, [A6 + 0x8]
00000914  206C FFFC                movea.l    A0, [A4 - 0x4]
00000918  43EC FFEA                lea.l      A1, [A4 - 0x16]
0000091C  41E8 0010                lea.l      A0, [A0 + 0x10]
00000920  22D8                     move.l     [A1]+, [A0]+
00000922  22D8                     move.l     [A1]+, [A0]+
00000924  486C FFEA                pea.l      [A4 - 0x16]
00000928  2F3C 000C 0000           move.l     -[A7], 0xC0000
0000092E  A8A9                     syscall    InsetRect
00000930  302C FFF8                move.w     D0, [A4 - 0x8]
00000934  C1EC FFFA                muls.w     D0, [A4 - 0x6]
00000938  3C00                     move.w     D6, D0
0000093A  302C FFF8                move.w     D0, [A4 - 0x8]
0000093E  5340                     subq.w     D0, 1
00000940  41ED EF0C                lea.l      A0, [A5 - 0x10F4]
00000944  D040                     add.w      D0, D0
00000946  3E30 0000                move.w     D7, [A0 + D0.w]
0000094A  3007                     move.w     D0, D7
0000094C  48C0                     ext.l      D0
0000094E  81FC 0002                divs.w     D0, 0x2
00000952  3206                     move.w     D1, D6
00000954  9240                     sub.w      D1, D0
00000956  3941 FFEC                move.w     [A4 - 0x14], D1
0000095A  3007                     move.w     D0, D7
0000095C  D06C FFEC                add.w      D0, [A4 - 0x14]
00000960  3940 FFF0                move.w     [A4 - 0x10], D0
00000964  4CDF 10C0                movem.l    D6,D7,A4, [A7]+
00000968  4E5E                     unlink     A6
0000096A  2E9F                     move.l     [A7], [A7]+
0000096C  4E75                     rts
fn0000096E:
0000096E  4E56 0000                link       A6, 0
00000972  2F2E 0008                move.l     -[A7], [A6 + 0x8]
00000976  4EBA FF90                jsr        [PC - 0x70 /* 00000908 */]
0000097A  206E 0008                movea.l    A0, [A6 + 0x8]
0000097E  4868 FFEA                pea.l      [A0 - 0x16]
00000982  2F3C FFF8 FFF6           move.l     -[A7], 0xFFF8FFF6
00000988  A8A9                     syscall    InsetRect
0000098A  2F3C 0002 0002           move.l     -[A7], 0x20002
00000990  A89B                     syscall    PenSize
00000992  3F3C 000A                move.w     -[A7], 0xA /* '\n' */
00000996  A89C                     syscall    PenMode
00000998  206E 0008                movea.l    A0, [A6 + 0x8]
0000099C  4868 FFEA                pea.l      [A0 - 0x16]
000009A0  A8A1                     syscall    FrameRect
000009A2  A89E                     syscall    PenNormal
000009A4  4E5E                     unlink     A6
000009A6  2E9F                     move.l     [A7], [A7]+
000009A8  4E75                     rts
fn000009AA:
000009AA  4E56 FFEA                link       A6, -0x0016
000009AE  4EBA F650                jsr        [PC - 0x9B0 /* 00000000 */]
000009B2  4EAD 1862                jsr        [A5 + 0x1862 /* export_776, CODE:16 @ 00000474 */]
000009B6  42A7                     clr.l      -[A7]
000009B8  3F3C 07DB                move.w     -[A7], 0x7DB
000009BC  42A7                     clr.l      -[A7]
000009BE  70FF                     moveq.l    D0, 0xFFFFFFFF
000009C0  2F00                     move.l     -[A7], D0
000009C2  A97C                     syscall    GetNewDialog
000009C4  2D5F FFFC                move.l     [A6 - 0x4], [A7]+
000009C8  2F2E FFFC                move.l     -[A7], [A6 - 0x4]
000009CC  A873                     syscall    SetPort
000009CE  206E FFFC                movea.l    A0, [A6 - 0x4]
000009D2  43EE FFEA                lea.l      A1, [A6 - 0x16]
000009D6  41E8 0010                lea.l      A0, [A0 + 0x10]
000009DA  22D8                     move.l     [A1]+, [A0]+
000009DC  22D8                     move.l     [A1]+, [A0]+
000009DE  302E FFF0                move.w     D0, [A6 - 0x10]
000009E2  906E FFEC                sub.w      D0, [A6 - 0x14]
000009E6  48C0                     ext.l      D0
000009E8  81FC 0007                divs.w     D0, 0x7
000009EC  3D40 FFFA                move.w     [A6 - 0x6], D0
000009F0  3D7C 0001 FFF8           move.w     [A6 - 0x8], 0x1
000009F6  6010                     bra        +0x12 /* 00000A08 */
label000009F8:
000009F8  2F0E                     move.l     -[A7], A6
000009FA  4EBA FF0C                jsr        [PC - 0xF4 /* 00000908 */]
000009FE  486E FFEA                pea.l      [A6 - 0x16]
00000A02  A8A2                     syscall    PaintRect
00000A04  526E FFF8                addq.w     [A6 - 0x8], 1
label00000A08:
00000A08  7006                     moveq.l    D0, 0x06
00000A0A  B06E FFF8                cmp.w      D0, [A6 - 0x8]
00000A0E  6CE8                     bge        -0x16 /* 000009F8 */
00000A10  3D7C 0001 FFF8           move.w     [A6 - 0x8], 0x1
00000A16  601A                     bra        +0x1C /* 00000A32 */
label00000A18:
00000A18  302E FFF8                move.w     D0, [A6 - 0x8]
00000A1C  5340                     subq.w     D0, 1
00000A1E  41ED EF0C                lea.l      A0, [A5 - 0x10F4]
00000A22  D040                     add.w      D0, D0
00000A24  3230 0000                move.w     D1, [A0 + D0.w]
00000A28  B26D EF1A                cmp.w      D1, [A5 - 0x10E6]
00000A2C  670C                     beq        +0xE /* 00000A3A */
00000A2E  526E FFF8                addq.w     [A6 - 0x8], 1
label00000A32:
00000A32  7006                     moveq.l    D0, 0x06
00000A34  B06E FFF8                cmp.w      D0, [A6 - 0x8]
00000A38  6CDE                     bge        -0x20 /* 00000A18 */
label00000A3A:
00000A3A  2F0E                     move.l     -[A7], A6
00000A3C  4EBA FF30                jsr        [PC - 0xD0 /* 0000096E */]
00000A40  42A7                     clr.l      -[A7]
00000A42  486E FFF6                pea.l      [A6 - 0xA]
00000A46  A991                     syscall    ModalDialog
00000A48  7002                     moveq.l    D0, 0x02
00000A4A  B06E FFF6                cmp.w      D0, [A6 - 0xA]
00000A4E  6658                     bne        +0x5A /* 00000AA8 */
00000A50  2F0E                     move.l     -[A7], A6
00000A52  4EBA FF1A                jsr        [PC - 0xE6 /* 0000096E */]
00000A56  486E FFF2                pea.l      [A6 - 0xE]
00000A5A  4EAD 20DA                jsr        [A5 + 0x20DA /* export_1047, CODE:20 @ 0000147C */]
00000A5E  4267                     clr.w      -[A7]
00000A60  302E FFFA                move.w     D0, [A6 - 0x6]
00000A64  48C0                     ext.l      D0
00000A66  81FC 0002                divs.w     D0, 0x2
00000A6A  D06E FFF4                add.w      D0, [A6 - 0xC]
00000A6E  48C0                     ext.l      D0
00000A70  81EE FFFA                divs.w     D0, [A6 - 0x6]
00000A74  3F00                     move.w     -[A7], D0
00000A76  2F3C 0006 0001           move.l     -[A7], 0x60001
00000A7C  4EAD 1A8A                jsr        [A5 + 0x1A8A /* export_845, CODE:16 @ 000019F8 */]
00000A80  3D5F FFF8                move.w     [A6 - 0x8], [A7]+
00000A84  2F0E                     move.l     -[A7], A6
00000A86  4EBA FEE6                jsr        [PC - 0x11A /* 0000096E */]
00000A8A  2F2D EDC8                move.l     -[A7], [A5 - 0x1238]
00000A8E  A873                     syscall    SetPort
00000A90  302E FFF8                move.w     D0, [A6 - 0x8]
00000A94  5340                     subq.w     D0, 1
00000A96  41ED EF0C                lea.l      A0, [A5 - 0x10F4]
00000A9A  D040                     add.w      D0, D0
00000A9C  3F30 0000                move.w     -[A7], [A0 + D0.w]
00000AA0  4EBA 547C                jsr        [PC + 0x547C /* 00005F1E */]
00000AA4  4EAD 220A                jsr        [A5 + 0x220A /* export_1085, CODE:20 @ 000048DE */]
label00000AA8:
00000AA8  486E FFF2                pea.l      [A6 - 0xE]
00000AAC  4EAD 20DA                jsr        [A5 + 0x20DA /* export_1047, CODE:20 @ 0000147C */]
00000AB0  4267                     clr.w      -[A7]
00000AB2  4EAD 210A                jsr        [A5 + 0x210A /* export_1053, CODE:20 @ 000016F6 */]
00000AB6  101F                     move.b     D0, [A7]+
00000AB8  0A00 0001                xori.b     D0, 0x1
00000ABC  67EA                     beq        -0x14 /* 00000AA8 */
00000ABE  2F2E FFFC                move.l     -[A7], [A6 - 0x4]
00000AC2  4EAD 201A                jsr        [A5 + 0x201A /* export_1023, CODE:20 @ 000002FA */]
00000AC6  1B7C 0001 EFEF           move.b     [A5 - 0x1011], 0x1
00000ACC  4E5E                     unlink     A6
00000ACE  4E75                     rts
fn00000AD0:
00000AD0  4E56 FFF8                link       A6, -0x0008
00000AD4  206E 0008                movea.l    A0, [A6 + 0x8]
00000AD8  3028 FFF2                move.w     D0, [A0 - 0xE]
00000ADC  907C 0031                sub.w      D0, 0x31 /* '1' */
00000AE0  EB40                     asl        D0.w, 5
00000AE2  5040                     addq.w     D0, 8
00000AE4  3D40 FFFA                move.w     [A6 - 0x6], D0
00000AE8  D07C 0020                add.w      D0, 0x20 /* ' ' */
00000AEC  3D40 FFFE                move.w     [A6 - 0x2], D0
00000AF0  3D7C 0008 FFF8           move.w     [A6 - 0x8], 0x8
00000AF6  302E FFF8                move.w     D0, [A6 - 0x8]
00000AFA  D07C 0020                add.w      D0, 0x20 /* ' ' */
00000AFE  3D40 FFFC                move.w     [A6 - 0x4], D0
00000B02  2F3C 0002 0002           move.l     -[A7], 0x20002
00000B08  A89B                     syscall    PenSize
00000B0A  3F3C 000A                move.w     -[A7], 0xA /* '\n' */
00000B0E  A89C                     syscall    PenMode
00000B10  486E FFF8                pea.l      [A6 - 0x8]
00000B14  A8A1                     syscall    FrameRect
00000B16  A89E                     syscall    PenNormal
00000B18  4E5E                     unlink     A6
00000B1A  2E9F                     move.l     [A7], [A7]+
00000B1C  4E75                     rts
fn00000B1E:
00000B1E  4E56 FFEE                link       A6, -0x0012
00000B22  48E7 0108                movem.l    -[A7], D7,A4
00000B26  4EBA F4D8                jsr        [PC - 0xB28 /* 00000000 */]
00000B2A  4EAD 1862                jsr        [A5 + 0x1862 /* export_776, CODE:16 @ 00000474 */]
00000B2E  42A7                     clr.l      -[A7]
00000B30  3F3C 07D8                move.w     -[A7], 0x7D8
00000B34  42A7                     clr.l      -[A7]
00000B36  70FF                     moveq.l    D0, 0xFFFFFFFF
00000B38  2F00                     move.l     -[A7], D0
00000B3A  A97C                     syscall    GetNewDialog
00000B3C  285F                     movea.l    A4, [A7]+
00000B3E  2F0C                     move.l     -[A7], A4
00000B40  A873                     syscall    SetPort
00000B42  4EAD 21DA                jsr        [A5 + 0x21DA /* export_1079, CODE:20 @ 00004546 */]
00000B46  7E10                     moveq.l    D7, 0x10
00000B48  3D7C 0031 FFF2           move.w     [A6 - 0xE], 0x31 /* '1' */
00000B4E  6016                     bra        +0x18 /* 00000B66 */
label00000B50:
00000B50  3F07                     move.w     -[A7], D7
00000B52  3F3C 0020                move.w     -[A7], 0x20 /* ' ' */
00000B56  A893                     syscall    MoveTo
00000B58  3F2E FFF2                move.w     -[A7], [A6 - 0xE]
00000B5C  A883                     syscall    DrawChar
00000B5E  DE7C 0020                add.w      D7, 0x20 /* ' ' */
00000B62  526E FFF2                addq.w     [A6 - 0xE], 1
label00000B66:
00000B66  7036                     moveq.l    D0, 0x36
00000B68  B06E FFF2                cmp.w      D0, [A6 - 0xE]
00000B6C  6CE2                     bge        -0x1C /* 00000B50 */
00000B6E  4EAD 218A                jsr        [A5 + 0x218A /* export_1069, CODE:20 @ 00003950 */]
00000B72  302D EF1C                move.w     D0, [A5 - 0x10E4]
00000B76  5740                     subq.w     D0, 3
00000B78  6712                     beq        +0x14 /* 00000B8C */
00000B7A  5340                     subq.w     D0, 1
00000B7C  6716                     beq        +0x18 /* 00000B94 */
00000B7E  5340                     subq.w     D0, 1
00000B80  671A                     beq        +0x1C /* 00000B9C */
00000B82  5340                     subq.w     D0, 1
00000B84  671E                     beq        +0x20 /* 00000BA4 */
00000B86  5540                     subq.w     D0, 2
00000B88  6722                     beq        +0x24 /* 00000BAC */
00000B8A  6028                     bra        +0x2A /* 00000BB4 */
label00000B8C:
00000B8C  3D7C 0031 FFF2           move.w     [A6 - 0xE], 0x31 /* '1' */
00000B92  602A                     bra        +0x2C /* 00000BBE */
label00000B94:
00000B94  3D7C 0032 FFF2           move.w     [A6 - 0xE], 0x32 /* '2' */
00000B9A  6022                     bra        +0x24 /* 00000BBE */
label00000B9C:
00000B9C  3D7C 0033 FFF2           move.w     [A6 - 0xE], 0x33 /* '3' */
00000BA2  601A                     bra        +0x1C /* 00000BBE */
label00000BA4:
00000BA4  3D7C 0034 FFF2           move.w     [A6 - 0xE], 0x34 /* '4' */
00000BAA  6012                     bra        +0x14 /* 00000BBE */
label00000BAC:
00000BAC  3D7C 0035 FFF2           move.w     [A6 - 0xE], 0x35 /* '5' */
00000BB2  600A                     bra        +0xC /* 00000BBE */
label00000BB4:
00000BB4  426D EF1C                clr.w      [A5 - 0x10E4]
00000BB8  3D7C 0036 FFF2           move.w     [A6 - 0xE], 0x36 /* '6' */
label00000BBE:
00000BBE  2F0E                     move.l     -[A7], A6
00000BC0  4EBA FF0E                jsr        [PC - 0xF2 /* 00000AD0 */]
00000BC4  42A7                     clr.l      -[A7]
00000BC6  486E FFFA                pea.l      [A6 - 0x6]
00000BCA  A991                     syscall    ModalDialog
00000BCC  7002                     moveq.l    D0, 0x02
00000BCE  B06E FFFA                cmp.w      D0, [A6 - 0x6]
00000BD2  6600 0094                bne        +0x96 /* 00000C68 */
00000BD6  486E FFF4                pea.l      [A6 - 0xC]
00000BDA  4EAD 20DA                jsr        [A5 + 0x20DA /* export_1047, CODE:20 @ 0000147C */]
00000BDE  2F0E                     move.l     -[A7], A6
00000BE0  4EBA FEEE                jsr        [PC - 0x112 /* 00000AD0 */]
00000BE4  4267                     clr.w      -[A7]
00000BE6  302E FFF6                move.w     D0, [A6 - 0xA]
00000BEA  5140                     subq.w     D0, 8
00000BEC  48C0                     ext.l      D0
00000BEE  81FC 0020                divs.w     D0, 0x20 /* ' ' */
00000BF2  D07C 0031                add.w      D0, 0x31 /* '1' */
00000BF6  3F00                     move.w     -[A7], D0
00000BF8  2F3C 0036 0031           move.l     -[A7], 0x360031 /* '6\01' */
00000BFE  4EAD 1A8A                jsr        [A5 + 0x1A8A /* export_845, CODE:16 @ 000019F8 */]
00000C02  3D5F FFF2                move.w     [A6 - 0xE], [A7]+
00000C06  2F0E                     move.l     -[A7], A6
00000C08  4EBA FEC6                jsr        [PC - 0x13A /* 00000AD0 */]
00000C0C  302E FFF2                move.w     D0, [A6 - 0xE]
00000C10  0440 0031                subi.w     D0, 0x31 /* '1' */
00000C14  6B48                     bmi        +0x4A /* 00000C5E */
00000C16  0C40 0005                cmpi.w     D0, 0x5
00000C1A  6E42                     bgt        +0x44 /* 00000C5E */
00000C1C  D040                     add.w      D0, D0
00000C1E  303B 0006                move.w     D0, [PC + D0.w + 0x6]
00000C22  4EFB 0000                jmp        [PC + D0.w]
00000C26  000E 0016                ori.b      A6, 0x16
00000C2A  001E 0026                ori.b      [A6]+, 0x26 /* '&' */
00000C2E  002E 0036 3B7C           ori.b      [A6 + 0x3B7C], 0x36 /* '6' */
00000C34  0003 EF1C                ori.b      D3, 0x1C
00000C38  6024                     bra        +0x26 /* 00000C5E */
00000C3A  3B7C 0004 EF1C           move.w     [A5 - 0x10E4], 0x4
00000C40  601C                     bra        +0x1E /* 00000C5E */
00000C42  3B7C 0005 EF1C           move.w     [A5 - 0x10E4], 0x5
00000C48  6014                     bra        +0x16 /* 00000C5E */
00000C4A  3B7C 0006 EF1C           move.w     [A5 - 0x10E4], 0x6
00000C50  600C                     bra        +0xE /* 00000C5E */
00000C52  3B7C 0008 EF1C           move.w     [A5 - 0x10E4], 0x8
00000C58  6004                     bra        +0x6 /* 00000C5E */
00000C5A  426D EF1C                clr.w      [A5 - 0x10E4]
label00000C5E:
00000C5E  2F2D EDC8                move.l     -[A7], [A5 - 0x1238]
00000C62  A873                     syscall    SetPort
00000C64  4EAD 220A                jsr        [A5 + 0x220A /* export_1085, CODE:20 @ 000048DE */]
label00000C68:
00000C68  486E FFF4                pea.l      [A6 - 0xC]
00000C6C  4EAD 20DA                jsr        [A5 + 0x20DA /* export_1047, CODE:20 @ 0000147C */]
00000C70  4267                     clr.w      -[A7]
00000C72  4EAD 210A                jsr        [A5 + 0x210A /* export_1053, CODE:20 @ 000016F6 */]
00000C76  101F                     move.b     D0, [A7]+
00000C78  0A00 0001                xori.b     D0, 0x1
00000C7C  67EA                     beq        -0x14 /* 00000C68 */
00000C7E  2F0C                     move.l     -[A7], A4
00000C80  4EAD 201A                jsr        [A5 + 0x201A /* export_1023, CODE:20 @ 000002FA */]
00000C84  1B7C 0001 EFEF           move.b     [A5 - 0x1011], 0x1
00000C8A  7011                     moveq.l    D0, 0x11
00000C8C  B06D EFDC                cmp.w      D0, [A5 - 0x1024]
00000C90  6708                     beq        +0xA /* 00000C9A */
00000C92  3F3C 0011                move.w     -[A7], 0x11
00000C96  4EBA 3682                jsr        [PC + 0x3682 /* 0000431A */]
label00000C9A:
00000C9A  4CDF 1080                movem.l    D7,A4, [A7]+
00000C9E  4E5E                     unlink     A6
00000CA0  4E75                     rts
fn00000CA2:
00000CA2  4E56 0000                link       A6, 0
00000CA6  102D E2FB                move.b     D0, [A5 - 0x1D05]
00000CAA  6624                     bne        +0x26 /* 00000CD0 */
00000CAC  42A7                     clr.l      -[A7]
00000CAE  4EBA 2600                jsr        [PC + 0x2600 /* 000032B0 */]
00000CB2  2F2D ECD4                move.l     -[A7], [A5 - 0x132C]
00000CB6  2F2D ECD0                move.l     -[A7], [A5 - 0x1330]
00000CBA  4EAD 1572                jsr        [A5 + 0x1572 /* export_682, CODE:15 @ 00000408 */]
00000CBE  41ED E2DA                lea.l      A0, [A5 - 0x1D26]
00000CC2  43ED ED82                lea.l      A1, [A5 - 0x127E]
00000CC6  20D9                     move.l     [A0]+, [A1]+
00000CC8  20D9                     move.l     [A0]+, [A1]+
00000CCA  1B7C 0001 E2FB           move.b     [A5 - 0x1D05], 0x1
label00000CD0:
00000CD0  4E5E                     unlink     A6
00000CD2  4E75                     rts
fn00000CD4:
00000CD4  4E56 0000                link       A6, 0
00000CD8  2F2D ECDC                move.l     -[A7], [A5 - 0x1324]
00000CDC  70FF                     moveq.l    D0, 0xFFFFFFFF
00000CDE  2F00                     move.l     -[A7], D0
00000CE0  486D D696                pea.l      [A5 - 0x296A]
00000CE4  4EAD 1722                jsr        [A5 + 0x1722 /* export_736, CODE:15 @ 00004B16 */]
00000CE8  486D EE38                pea.l      [A5 - 0x11C8]
00000CEC  A873                     syscall    SetPort
00000CEE  486D ED28                pea.l      [A5 - 0x12D8]
00000CF2  A875                     syscall    SetPBits/SetPortBits
00000CF4  102D EFDF                move.b     D0, [A5 - 0x1021]
00000CF8  670C                     beq        +0xE /* 00000D06 */
00000CFA  2F3C 0002 0000           move.l     -[A7], 0x20000
00000D00  4EAD 168A                jsr        [A5 + 0x168A /* export_717, CODE:15 @ 000030FC */]
00000D04  600A                     bra        +0xC /* 00000D10 */
label00000D06:
00000D06  2F3C 0002 0000           move.l     -[A7], 0x20000
00000D0C  4EAD 1692                jsr        [A5 + 0x1692 /* export_718, CODE:15 @ 000036F0 */]
label00000D10:
00000D10  486D ED44                pea.l      [A5 - 0x12BC]
00000D14  A875                     syscall    SetPBits/SetPortBits
00000D16  2F2D ECD8                move.l     -[A7], [A5 - 0x1328]
00000D1A  42A7                     clr.l      -[A7]
00000D1C  486D D696                pea.l      [A5 - 0x296A]
00000D20  4EAD 1722                jsr        [A5 + 0x1722 /* export_736, CODE:15 @ 00004B16 */]
00000D24  486D EE38                pea.l      [A5 - 0x11C8]
00000D28  A873                     syscall    SetPort
00000D2A  486D ED1A                pea.l      [A5 - 0x12E6]
00000D2E  A875                     syscall    SetPBits/SetPortBits
00000D30  102D EFDF                move.b     D0, [A5 - 0x1021]
00000D34  670C                     beq        +0xE /* 00000D42 */
00000D36  2F3C 0002 0000           move.l     -[A7], 0x20000
00000D3C  4EAD 168A                jsr        [A5 + 0x168A /* export_717, CODE:15 @ 000030FC */]
00000D40  600A                     bra        +0xC /* 00000D4C */
label00000D42:
00000D42  2F3C 0002 0000           move.l     -[A7], 0x20000
00000D48  4EAD 1692                jsr        [A5 + 0x1692 /* export_718, CODE:15 @ 000036F0 */]
label00000D4C:
00000D4C  486D ED44                pea.l      [A5 - 0x12BC]
00000D50  A875                     syscall    SetPBits/SetPortBits
00000D52  41ED D696                lea.l      A0, [A5 - 0x296A]
00000D56  43ED E2D2                lea.l      A1, [A5 - 0x1D2E]
00000D5A  20D9                     move.l     [A0]+, [A1]+
00000D5C  20D9                     move.l     [A0]+, [A1]+
00000D5E  7000                     moveq.l    D0, 0x00
00000D60  302D D698                move.w     D0, [A5 - 0x2968]
00000D64  C0BC FFFF FFE0           and.l      D0, 0xFFFFFFE0
00000D6A  3B40 D698                move.w     [A5 - 0x2968], D0
00000D6E  7000                     moveq.l    D0, 0x00
00000D70  322D D69C                move.w     D1, [A5 - 0x2964]
00000D74  D27C 001F                add.w      D1, 0x1F
00000D78  3001                     move.w     D0, D1
00000D7A  C0BC FFFF FFE0           and.l      D0, 0xFFFFFFE0
00000D80  3B40 D69C                move.w     [A5 - 0x2964], D0
00000D84  422D E2F1                clr.b      [A5 - 0x1D0F]
00000D88  4E5E                     unlink     A6
00000D8A  4E75                     rts
fn00000D8C:
00000D8C  4E56 0000                link       A6, 0
00000D90  486D EE38                pea.l      [A5 - 0x11C8]
00000D94  A873                     syscall    SetPort
00000D96  102D E2E4                move.b     D0, [A5 - 0x1D1C]
00000D9A  670A                     beq        +0xC /* 00000DA6 */
00000D9C  2F2D ECE0                move.l     -[A7], [A5 - 0x1320]
00000DA0  4EAD 1D12                jsr        [A5 + 0x1D12 /* export_926, CODE:17 @ 00002B38 */]
00000DA4  6028                     bra        +0x2A /* 00000DCE */
label00000DA6:
00000DA6  102D E2FC                move.b     D0, [A5 - 0x1D04]
00000DAA  6714                     beq        +0x16 /* 00000DC0 */
00000DAC  2F2D ECE8                move.l     -[A7], [A5 - 0x1318]
00000DB0  2F2D ECE0                move.l     -[A7], [A5 - 0x1320]
00000DB4  2F3C 0000 5580           move.l     -[A7], 0x5580
00000DBA  4EAD 024A                jsr        [A5 + 0x24A /* export_69, CODE:1 @ 000046A6 */]
00000DBE  600E                     bra        +0x10 /* 00000DCE */
label00000DC0:
00000DC0  2F2D E2E6                move.l     -[A7], [A5 - 0x1D1A]
00000DC4  42A7                     clr.l      -[A7]
00000DC6  2F2D ECE0                move.l     -[A7], [A5 - 0x1320]
00000DCA  4EAD 1572                jsr        [A5 + 0x1572 /* export_682, CODE:15 @ 00000408 */]
label00000DCE:
00000DCE  486D ED36                pea.l      [A5 - 0x12CA]
00000DD2  A875                     syscall    SetPBits/SetPortBits
00000DD4  2F3C 0002 0000           move.l     -[A7], 0x20000
00000DDA  4EAD 168A                jsr        [A5 + 0x168A /* export_717, CODE:15 @ 000030FC */]
00000DDE  486D ED44                pea.l      [A5 - 0x12BC]
00000DE2  A875                     syscall    SetPBits/SetPortBits
00000DE4  422D E2F0                clr.b      [A5 - 0x1D10]
00000DE8  4E5E                     unlink     A6
00000DEA  4E75                     rts
export_611:
fn00000DEC:
00000DEC  4E56 0000                link       A6, 0
00000DF0  422D EF22                clr.b      [A5 - 0x10DE]
00000DF4  3B7C 0001 EF20           move.w     [A5 - 0x10E0], 0x1
00000DFA  422D EF1F                clr.b      [A5 - 0x10E1]
00000DFE  102D E225                move.b     D0, [A5 - 0x1DDB]
00000E02  6704                     beq        +0x6 /* 00000E08 */
00000E04  4EBA 5A96                jsr        [PC + 0x5A96 /* 0000689C */]
label00000E08:
00000E08  102D EF23                move.b     D0, [A5 - 0x10DD]
00000E0C  6704                     beq        +0x6 /* 00000E12 */
00000E0E  4EBA 5B76                jsr        [PC + 0x5B76 /* 00006986 */]
label00000E12:
00000E12  4E5E                     unlink     A6
00000E14  4E75                     rts
fn00000E16:
00000E16  4E56 0000                link       A6, 0
00000E1A  102D EDAB                move.b     D0, [A5 - 0x1255]
00000E1E  6734                     beq        +0x36 /* 00000E54 */
00000E20  206D EDAC                movea.l    A0, [A5 - 0x1254]
00000E24  2050                     movea.l    A0, [A0]
00000E26  226D EDAC                movea.l    A1, [A5 - 0x1254]
00000E2A  2251                     movea.l    A1, [A1]
00000E2C  3028 0020                move.w     D0, [A0 + 0x20]
00000E30  B069 0022                cmp.w      D0, [A1 + 0x22]
00000E34  6708                     beq        +0xA /* 00000E3E */
00000E36  2F2D EDAC                move.l     -[A7], [A5 - 0x1254]
00000E3A  A9D7                     syscall    TEDelete
00000E3C  6054                     bra        +0x56 /* 00000E92 */
label00000E3E:
00000E3E  486D ED8A                pea.l      [A5 - 0x1276]
00000E42  42A7                     clr.l      -[A7]
00000E44  2F2D EDAC                move.l     -[A7], [A5 - 0x1254]
00000E48  A9CF                     syscall    TESetText
00000E4A  4EAD 22BA                jsr        [A5 + 0x22BA /* export_1107, CODE:20 @ 00005F96 */]
00000E4E  4EAD 213A                jsr        [A5 + 0x213A /* export_1059, CODE:20 @ 000023E2 */]
00000E52  603E                     bra        +0x40 /* 00000E92 */
label00000E54:
00000E54  4267                     clr.w      -[A7]
00000E56  4EBA F292                jsr        [PC - 0xD6E /* 000000EA */]
00000E5A  101F                     move.b     D0, [A7]+
00000E5C  6734                     beq        +0x36 /* 00000E92 */
00000E5E  4EBA 6356                jsr        [PC + 0x6356 /* 000071B6 */]
00000E62  486D ED82                pea.l      [A5 - 0x127E]
00000E66  4EBA 23BA                jsr        [PC + 0x23BA /* 00003222 */]
00000E6A  4EBA 1C1C                jsr        [PC + 0x1C1C /* 00002A88 */]
00000E6E  422D D509                clr.b      [A5 - 0x2AF7]
00000E72  422D D50D                clr.b      [A5 - 0x2AF3]
00000E76  7005                     moveq.l    D0, 0x05
00000E78  B06D EFDC                cmp.w      D0, [A5 - 0x1024]
00000E7C  57C0                     seq        D0
00000E7E  7204                     moveq.l    D1, 0x04
00000E80  B26D EFDC                cmp.w      D1, [A5 - 0x1024]
00000E84  57C1                     seq        D1
00000E86  8001                     or.b       D0, D1
00000E88  6708                     beq        +0xA /* 00000E92 */
00000E8A  3F2D D71C                move.w     -[A7], [A5 - 0x28E4]
00000E8E  4EBA 348A                jsr        [PC + 0x348A /* 0000431A */]
label00000E92:
00000E92  4E5E                     unlink     A6
00000E94  4E75                     rts
fn00000E96:
00000E96  4E56 FFFC                link       A6, -0x0004
00000E9A  2D6D F022 FFFC           move.l     [A6 - 0x4], [A5 - 0xFDE]
00000EA0  486E FFFC                pea.l      [A6 - 0x4]
00000EA4  A871                     syscall    GlobalToLocal
00000EA6  4267                     clr.w      -[A7]
00000EA8  2F2E FFFC                move.l     -[A7], [A6 - 0x4]
00000EAC  486D EDB0                pea.l      [A5 - 0x1250]
00000EB0  A8AD                     syscall    PtInRect
00000EB2  101F                     move.b     D0, [A7]+
00000EB4  6716                     beq        +0x18 /* 00000ECC */
00000EB6  4EBA 28BA                jsr        [PC + 0x28BA /* 00003772 */]
00000EBA  4EAD 213A                jsr        [A5 + 0x213A /* export_1059, CODE:20 @ 000023E2 */]
00000EBE  2F2E FFFC                move.l     -[A7], [A6 - 0x4]
00000EC2  1F2D F005                move.b     -[A7], [A5 - 0xFFB]
00000EC6  2F2D EDAC                move.l     -[A7], [A5 - 0x1254]
00000ECA  A9D4                     syscall    TEClick
label00000ECC:
00000ECC  2F2D EDB8                move.l     -[A7], [A5 - 0x1248]
00000ED0  A91F                     syscall    SelectWindow
00000ED2  2F2D EDB8                move.l     -[A7], [A5 - 0x1248]
00000ED6  4EAD 22E2                jsr        [A5 + 0x22E2 /* export_1112, CODE:20 @ 0000633A */]
00000EDA  4E5E                     unlink     A6
00000EDC  4E75                     rts
export_612:
00000EDE  4E56 FFF6                link       A6, -0x000A
00000EE2  2F07                     move.l     -[A7], D7
00000EE4  4EBA 4802                jsr        [PC + 0x4802 /* 000056E8 */]
00000EE8  102D D47B                move.b     D0, [A5 - 0x2B85]
00000EEC  6744                     beq        +0x46 /* 00000F32 */
00000EEE  206D ED9E                movea.l    A0, [A5 - 0x1262]
00000EF2  1028 006E                move.b     D0, [A0 + 0x6E]
00000EF6  6708                     beq        +0xA /* 00000F00 */
00000EF8  2F2D EDBC                move.l     -[A7], [A5 - 0x1244]
00000EFC  4EAD 227A                jsr        [A5 + 0x227A /* export_1099, CODE:20 @ 000053BE */]
label00000F00:
00000F00  3D6D D4D6 FFF6           move.w     [A6 - 0xA], [A5 - 0x2B2A]
00000F06  7E01                     moveq.l    D7, 0x01
00000F08  6016                     bra        +0x18 /* 00000F20 */
label00000F0A:
00000F0A  3007                     move.w     D0, D7
00000F0C  5340                     subq.w     D0, 1
00000F0E  41ED D486                lea.l      A0, [A5 - 0x2B7A]
00000F12  E540                     asl        D0.w, 2
00000F14  2F30 0000                move.l     -[A7], [A0 + D0.w]
00000F18  4EAD 18D2                jsr        [A5 + 0x18D2 /* export_790, CODE:16 @ 0000083E */]
00000F1C  5247                     addq.w     D7, 1
00000F1E  6906                     bvs        +0x8 /* 00000F26 */
label00000F20:
00000F20  BE6E FFF6                cmp.w      D7, [A6 - 0xA]
00000F24  6FE4                     ble        -0x1A /* 00000F0A */
label00000F26:
00000F26  426D D4D6                clr.w      [A5 - 0x2B2A]
00000F2A  422D D4E9                clr.b      [A5 - 0x2B17]
00000F2E  422D D47B                clr.b      [A5 - 0x2B85]
label00000F32:
00000F32  102D EFDF                move.b     D0, [A5 - 0x1021]
00000F36  671A                     beq        +0x1C /* 00000F52 */
00000F38  2F2D ECD0                move.l     -[A7], [A5 - 0x1330]
00000F3C  2F2D ECE8                move.l     -[A7], [A5 - 0x1318]
00000F40  486D ED82                pea.l      [A5 - 0x127E]
00000F44  4267                     clr.w      -[A7]
00000F46  4EAD 1582                jsr        [A5 + 0x1582 /* export_684, CODE:15 @ 000005C0 */]
00000F4A  1B7C 0001 E2FC           move.b     [A5 - 0x1D04], 0x1
00000F50  6004                     bra        +0x6 /* 00000F56 */
label00000F52:
00000F52  422D E2FC                clr.b      [A5 - 0x1D04]
label00000F56:
00000F56  206D ED6E                movea.l    A0, [A5 - 0x1292]
00000F5A  2050                     movea.l    A0, [A0]
00000F5C  317C FFFF 0002           move.w     [A0 + 0x2], 0xFFFF
00000F62  41ED E2F2                lea.l      A0, [A5 - 0x1D0E]
00000F66  43ED ED82                lea.l      A1, [A5 - 0x127E]
00000F6A  20D9                     move.l     [A0]+, [A1]+
00000F6C  20D9                     move.l     [A0]+, [A1]+
00000F6E  3B7C FFFF EFDA           move.w     [A5 - 0x1026], 0xFFFF
00000F74  4EAD 22B2                jsr        [A5 + 0x22B2 /* export_1106, CODE:20 @ 00005E80 */]
00000F78  4A6D FD8A                tst.w      [A5 - 0x276]
00000F7C  6D04                     blt        +0x6 /* 00000F82 */
00000F7E  4EAD 1862                jsr        [A5 + 0x1862 /* export_776, CODE:16 @ 00000474 */]
label00000F82:
00000F82  2E1F                     move.l     D7, [A7]+
00000F84  4E5E                     unlink     A6
00000F86  4E75                     rts
export_613:
fn00000F88:
00000F88  4E56 FFF8                link       A6, -0x0008
00000F8C  41EE FFF8                lea.l      A0, [A6 - 0x8]
00000F90  43ED E2F2                lea.l      A1, [A5 - 0x1D0E]
00000F94  20D9                     move.l     [A0]+, [A1]+
00000F96  20D9                     move.l     [A0]+, [A1]+
00000F98  4EBA 000E                jsr        [PC + 0xE /* 00000FA8 */]
00000F9C  486E FFF8                pea.l      [A6 - 0x8]
00000FA0  4EBA 61CC                jsr        [PC + 0x61CC /* 0000716E */]
00000FA4  4E5E                     unlink     A6
00000FA6  4E75                     rts
export_614:
fn00000FA8:
00000FA8  4E56 FFD8                link       A6, -0x0028
00000FAC  48E7 0018                movem.l    -[A7], A3,A4
00000FB0  4267                     clr.w      -[A7]
00000FB2  486D ED82                pea.l      [A5 - 0x127E]
00000FB6  486D E2F2                pea.l      [A5 - 0x1D0E]
00000FBA  486D E2F2                pea.l      [A5 - 0x1D0E]
00000FBE  A8AA                     syscall    SectRect
00000FC0  101F                     move.b     D0, [A7]+
00000FC2  6604                     bne        +0x6 /* 00000FC8 */
00000FC4  6000 0138                bra        +0x13A /* 000010FE */
label00000FC8:
00000FC8  4EBA FCD8                jsr        [PC - 0x328 /* 00000CA2 */]
00000FCC  7000                     moveq.l    D0, 0x00
00000FCE  302D E2F4                move.w     D0, [A5 - 0x1D0C]
00000FD2  C0BC FFFF FFE0           and.l      D0, 0xFFFFFFE0
00000FD8  3B40 E2F4                move.w     [A5 - 0x1D0C], D0
00000FDC  7000                     moveq.l    D0, 0x00
00000FDE  322D E2F8                move.w     D1, [A5 - 0x1D08]
00000FE2  D27C 001F                add.w      D1, 0x1F
00000FE6  3001                     move.w     D0, D1
00000FE8  C0BC FFFF FFE0           and.l      D0, 0xFFFFFFE0
00000FEE  3B40 E2F8                move.w     [A5 - 0x1D08], D0
00000FF2  42A7                     clr.l      -[A7]
00000FF4  2F2D F622                move.l     -[A7], [A5 - 0x9DE]
00000FF8  4EAD 1F6A                jsr        [A5 + 0x1F6A /* export_1001, CODE:19 @ 000016EC */]
00000FFC  285F                     movea.l    A4, [A7]+
00000FFE  42A7                     clr.l      -[A7]
00001000  2F2D F62A                move.l     -[A7], [A5 - 0x9D6]
00001004  4EAD 1F7A                jsr        [A5 + 0x1F7A /* export_1003, CODE:19 @ 00001744 */]
00001008  265F                     movea.l    A3, [A7]+
0000100A  200B                     move.l     D0, A3
0000100C  57C0                     seq        D0
0000100E  220C                     move.l     D1, A4
00001010  57C1                     seq        D1
00001012  8001                     or.b       D0, D1
00001014  6708                     beq        +0xA /* 0000101E */
00001016  4EAD 1812                jsr        [A5 + 0x1812 /* export_766, CODE:16 @ 00000208 */]
0000101A  6000 00BA                bra        +0xBC /* 000010D6 */
label0000101E:
0000101E  486D EE38                pea.l      [A5 - 0x11C8]
00001022  A873                     syscall    SetPort
00001024  486E FFE0                pea.l      [A6 - 0x20]
00001028  A898                     syscall    GetPenState
0000102A  102D EFDF                move.b     D0, [A5 - 0x1021]
0000102E  672A                     beq        +0x2C /* 0000105A */
00001030  102D E2E4                move.b     D0, [A5 - 0x1D1C]
00001034  6710                     beq        +0x12 /* 00001046 */
00001036  2F2D ECE4                move.l     -[A7], [A5 - 0x131C]
0000103A  42A7                     clr.l      -[A7]
0000103C  486D E2F2                pea.l      [A5 - 0x1D0E]
00001040  4EAD 1722                jsr        [A5 + 0x1722 /* export_736, CODE:15 @ 00004B16 */]
00001044  6050                     bra        +0x52 /* 00001096 */
label00001046:
00001046  2F2D ECD0                move.l     -[A7], [A5 - 0x1330]
0000104A  2F2D ECE4                move.l     -[A7], [A5 - 0x131C]
0000104E  486D E2F2                pea.l      [A5 - 0x1D0E]
00001052  4267                     clr.w      -[A7]
00001054  4EAD 1582                jsr        [A5 + 0x1582 /* export_684, CODE:15 @ 000005C0 */]
00001058  603C                     bra        +0x3E /* 00001096 */
label0000105A:
0000105A  102D E2F0                move.b     D0, [A5 - 0x1D10]
0000105E  6704                     beq        +0x6 /* 00001064 */
00001060  4EBA FD2A                jsr        [PC - 0x2D6 /* 00000D8C */]
label00001064:
00001064  102D E2E5                move.b     D0, [A5 - 0x1D1B]
00001068  6714                     beq        +0x16 /* 0000107E */
0000106A  2F2D ECE0                move.l     -[A7], [A5 - 0x1320]
0000106E  2F2D ECE4                move.l     -[A7], [A5 - 0x131C]
00001072  486D E2F2                pea.l      [A5 - 0x1D0E]
00001076  4267                     clr.w      -[A7]
00001078  4EAD 1582                jsr        [A5 + 0x1582 /* export_684, CODE:15 @ 000005C0 */]
0000107C  6018                     bra        +0x1A /* 00001096 */
label0000107E:
0000107E  2F2D ECE0                move.l     -[A7], [A5 - 0x1320]
00001082  2F2D ECD4                move.l     -[A7], [A5 - 0x132C]
00001086  2F2D ECD0                move.l     -[A7], [A5 - 0x1330]
0000108A  2F2D ECE4                move.l     -[A7], [A5 - 0x131C]
0000108E  486D E2F2                pea.l      [A5 - 0x1D0E]
00001092  4EAD 1BEA                jsr        [A5 + 0x1BEA /* export_889, CODE:17 @ 000007E0 */]
label00001096:
00001096  102D E2F1                move.b     D0, [A5 - 0x1D0F]
0000109A  6704                     beq        +0x6 /* 000010A0 */
0000109C  4EBA FC36                jsr        [PC - 0x3CA /* 00000CD4 */]
label000010A0:
000010A0  4267                     clr.w      -[A7]
000010A2  486D E2F2                pea.l      [A5 - 0x1D0E]
000010A6  486D D696                pea.l      [A5 - 0x296A]
000010AA  486E FFD8                pea.l      [A6 - 0x28]
000010AE  A8AA                     syscall    SectRect
000010B0  101F                     move.b     D0, [A7]+
000010B2  671C                     beq        +0x1E /* 000010D0 */
000010B4  2F2D ECE4                move.l     -[A7], [A5 - 0x131C]
000010B8  2F2D ECDC                move.l     -[A7], [A5 - 0x1324]
000010BC  2F2D ECD8                move.l     -[A7], [A5 - 0x1328]
000010C0  2F2D ECE4                move.l     -[A7], [A5 - 0x131C]
000010C4  486E FFD8                pea.l      [A6 - 0x28]
000010C8  3F3C FFFF                move.w     -[A7], 0xFFFF
000010CC  4EAD 157A                jsr        [A5 + 0x157A /* export_683, CODE:15 @ 000004C6 */]
label000010D0:
000010D0  486E FFE0                pea.l      [A6 - 0x20]
000010D4  A899                     syscall    SetPenState
label000010D6:
000010D6  200B                     move.l     D0, A3
000010D8  670A                     beq        +0xC /* 000010E4 */
000010DA  2F2D F62A                move.l     -[A7], [A5 - 0x9D6]
000010DE  4267                     clr.w      -[A7]
000010E0  4EAD 1EF2                jsr        [A5 + 0x1EF2 /* export_986, CODE:19 @ 00000450 */]
label000010E4:
000010E4  200C                     move.l     D0, A4
000010E6  670A                     beq        +0xC /* 000010F2 */
000010E8  2F2D F622                move.l     -[A7], [A5 - 0x9DE]
000010EC  4267                     clr.w      -[A7]
000010EE  4EAD 1EE2                jsr        [A5 + 0x1EE2 /* export_984, CODE:19 @ 00000414 */]
label000010F2:
000010F2  41ED E2F2                lea.l      A0, [A5 - 0x1D0E]
000010F6  43ED ED8A                lea.l      A1, [A5 - 0x1276]
000010FA  20D9                     move.l     [A0]+, [A1]+
000010FC  20D9                     move.l     [A0]+, [A1]+
label000010FE:
000010FE  4CDF 1800                movem.l    A3,A4, [A7]+
00001102  4E5E                     unlink     A6
00001104  4E75                     rts
fn00001106:
00001106  4E56 FFFE                link       A6, -0x0002
0000110A  7005                     moveq.l    D0, 0x05
0000110C  B06D F018                cmp.w      D0, [A5 - 0xFE8]
00001110  662C                     bne        +0x2E /* 0000113E */
00001112  7032                     moveq.l    D0, 0x32
00001114  B06D F00C                cmp.w      D0, [A5 - 0xFF4]
00001118  56C0                     sne        D0
0000111A  7233                     moveq.l    D1, 0x33
0000111C  B26D F00C                cmp.w      D1, [A5 - 0xFF4]
00001120  56C1                     sne        D1
00001122  C001                     and.b      D0, D1
00001124  720D                     moveq.l    D1, 0x0D
00001126  B26D F008                cmp.w      D1, [A5 - 0xFF8]
0000112A  56C1                     sne        D1
0000112C  C001                     and.b      D0, D1
0000112E  720E                     moveq.l    D1, 0x0E
00001130  B26D F008                cmp.w      D1, [A5 - 0xFF8]
00001134  56C1                     sne        D1
00001136  C001                     and.b      D0, D1
00001138  6704                     beq        +0x6 /* 0000113E */
0000113A  6000 00C6                bra        +0xC8 /* 00001202 */
label0000113E:
0000113E  4EAD 17B2                jsr        [A5 + 0x17B2 /* export_754, CODE:15 @ 000064EE */]
00001142  4EAD 15CA                jsr        [A5 + 0x15CA /* export_693, CODE:15 @ 00000B34 */]
00001146  4267                     clr.w      -[A7]
00001148  4EAD 21B2                jsr        [A5 + 0x21B2 /* export_1074, CODE:20 @ 000040B8 */]
0000114C  101F                     move.b     D0, [A7]+
0000114E  6600 00B2                bne        +0xB4 /* 00001202 */
00001152  302D F008                move.w     D0, [A5 - 0xFF8]
00001156  5540                     subq.w     D0, 2
00001158  671A                     beq        +0x1C /* 00001174 */
0000115A  5340                     subq.w     D0, 1
0000115C  672E                     beq        +0x30 /* 0000118C */
0000115E  5340                     subq.w     D0, 1
00001160  672A                     beq        +0x2C /* 0000118C */
00001162  5F40                     subq.w     D0, 7
00001164  6732                     beq        +0x34 /* 00001198 */
00001166  5340                     subq.w     D0, 1
00001168  670A                     beq        +0xC /* 00001174 */
0000116A  5740                     subq.w     D0, 3
0000116C  673C                     beq        +0x3E /* 000011AA */
0000116E  5340                     subq.w     D0, 1
00001170  670E                     beq        +0x10 /* 00001180 */
00001172  6068                     bra        +0x6A /* 000011DC */
label00001174:
00001174  2F3C 0001 0004           move.l     -[A7], 0x10004
0000117A  4EAD 21BA                jsr        [A5 + 0x21BA /* export_1075, CODE:20 @ 00004336 */]
0000117E  605A                     bra        +0x5C /* 000011DA */
label00001180:
00001180  2F3C 0003 0004           move.l     -[A7], 0x30004
00001186  4EAD 21BA                jsr        [A5 + 0x21BA /* export_1075, CODE:20 @ 00004336 */]
0000118A  6076                     bra        +0x78 /* 00001202 */
label0000118C:
0000118C  2F3C 0009 0003           move.l     -[A7], 0x90003
00001192  4EAD 21BA                jsr        [A5 + 0x21BA /* export_1075, CODE:20 @ 00004336 */]
00001196  606A                     bra        +0x6C /* 00001202 */
label00001198:
00001198  2B6D F01E EFFE           move.l     [A5 - 0x1002], [A5 - 0xFE2]
0000119E  2F3C 0001 0005           move.l     -[A7], 0x10005
000011A4  4EAD 21BA                jsr        [A5 + 0x21BA /* export_1075, CODE:20 @ 00004336 */]
000011A8  6058                     bra        +0x5A /* 00001202 */
label000011AA:
000011AA  102D E0E7                move.b     D0, [A5 - 0x1F19]
000011AE  6712                     beq        +0x14 /* 000011C2 */
000011B0  41ED E0E8                lea.l      A0, [A5 - 0x1F18]
000011B4  43FA 005E                lea.l      A1, [PC + 0x5E /* 00001214, value 0xC686964, pstring "hide menuBar" */]
000011B8  20D9                     move.l     [A0]+, [A1]+
000011BA  20D9                     move.l     [A0]+, [A1]+
000011BC  20D9                     move.l     [A0]+, [A1]+
000011BE  3091                     move.w     [A0], [A1]
000011C0  6010                     bra        +0x12 /* 000011D2 */
label000011C2:
000011C2  41ED E0E8                lea.l      A0, [A5 - 0x1F18]
000011C6  43FA 003E                lea.l      A1, [PC + 0x3E /* 00001206, value 0xC73686F, pstring "show menuBar" */]
000011CA  20D9                     move.l     [A0]+, [A1]+
000011CC  20D9                     move.l     [A0]+, [A1]+
000011CE  20D9                     move.l     [A0]+, [A1]+
000011D0  3091                     move.w     [A0], [A1]
label000011D2:
000011D2  4EAD 0B8A                jsr        [A5 + 0xB8A /* export_365, CODE:8 @ 00003F30 */]
000011D6  602A                     bra        +0x2C /* 00001202 */
000011D8  6002                     bra        +0x4 /* 000011DC */
label000011DA:
000011DA  6026                     bra        +0x28 /* 00001202 */
label000011DC:
000011DC  4267                     clr.w      -[A7]
000011DE  486D E1E8                pea.l      [A5 - 0x1E18]
000011E2  486E FFFF                pea.l      [A6 - 0x1]
000011E6  4EAD 225A                jsr        [A5 + 0x225A /* export_1095, CODE:20 @ 000050F4 */]
000011EA  101F                     move.b     D0, [A7]+
000011EC  6710                     beq        +0x12 /* 000011FE */
000011EE  102E FFFF                move.b     D0, [A6 - 0x1]
000011F2  6708                     beq        +0xA /* 000011FC */
000011F4  1F3C 0001                move.b     -[A7], 0x1
000011F8  4EBA 5CC8                jsr        [PC + 0x5CC8 /* 00006EC2 */]
label000011FC:
000011FC  6004                     bra        +0x6 /* 00001202 */
label000011FE:
000011FE  4EAD 164A                jsr        [A5 + 0x164A /* export_709, CODE:15 @ 000029F2 */]
label00001202:
00001202  4E5E                     unlink     A6
00001204  4E75                     rts
00001206  0C73 686F 7720 6D65      cmpi.w     [A3 + 0x6D65 + D7 * 8], 0x686F /* 'ho' */
0000120E  6E75                     bgt        +0x77 /* 00001285 */
00001210  4261                     clr.w      -[A1]
00001212  7200                     moveq.l    D1, 0x00
00001214  0C68 6964 6520           cmpi.w     [A0 + 0x6520], 0x6964 /* 'id' */
0000121A  6D65                     blt        +0x67 /* 00001281 */
0000121C  6E75                     bgt        +0x77 /* 00001293 */
0000121E  4261                     clr.w      -[A1]
00001220  7200                     moveq.l    D1, 0x00
fn00001222:
00001222  4E56 FFF2                link       A6, -0x000E
00001226  48E7 0F08                movem.l    -[A7], D4,D5,D6,D7,A4
0000122A  286E 0008                movea.l    A4, [A6 + 0x8]
0000122E  4267                     clr.w      -[A7]
00001230  4EAD 221A                jsr        [A5 + 0x221A /* export_1087, CODE:20 @ 00004B46 */]
00001234  101F                     move.b     D0, [A7]+
00001236  6706                     beq        +0x8 /* 0000123E */
00001238  1B7C 0001 F005           move.b     [A5 - 0xFFB], 0x1
label0000123E:
0000123E  102D F005                move.b     D0, [A5 - 0xFFB]
00001242  6760                     beq        +0x62 /* 000012A4 */
00001244  2D54 FFF2                move.l     [A6 - 0xE], [A4]
00001248  3E2C 0002                move.w     D7, [A4 + 0x2]
0000124C  9E6E 000E                sub.w      D7, [A6 + 0xE]
00001250  3C14                     move.w     D6, [A4]
00001252  9C6E 000C                sub.w      D6, [A6 + 0xC]
00001256  3007                     move.w     D0, D7
00001258  6A02                     bpl        +0x4 /* 0000125C */
0000125A  4440                     neg.w      D0
label0000125C:
0000125C  3D40 FFFA                move.w     [A6 - 0x6], D0
00001260  3006                     move.w     D0, D6
00001262  6A02                     bpl        +0x4 /* 00001266 */
00001264  4440                     neg.w      D0
label00001266:
00001266  3800                     move.w     D4, D0
00001268  4267                     clr.w      -[A7]
0000126A  3F2E FFFA                move.w     -[A7], [A6 - 0x6]
0000126E  3F04                     move.w     -[A7], D4
00001270  4EAD 18C2                jsr        [A5 + 0x18C2 /* export_788, CODE:16 @ 000007E6 */]
00001274  3A1F                     move.w     D5, [A7]+
00001276  4A47                     tst.w      D7
00001278  6C08                     bge        +0xA /* 00001282 */
0000127A  3005                     move.w     D0, D5
0000127C  4440                     neg.w      D0
0000127E  3E00                     move.w     D7, D0
00001280  6002                     bra        +0x4 /* 00001284 */
label00001282:
00001282  3E05                     move.w     D7, D5
label00001284:
00001284  4A46                     tst.w      D6
00001286  6C08                     bge        +0xA /* 00001290 */
00001288  3005                     move.w     D0, D5
0000128A  4440                     neg.w      D0
0000128C  3C00                     move.w     D6, D0
0000128E  6002                     bra        +0x4 /* 00001292 */
label00001290:
00001290  3C05                     move.w     D6, D5
label00001292:
00001292  3007                     move.w     D0, D7
00001294  D06E 000E                add.w      D0, [A6 + 0xE]
00001298  3940 0002                move.w     [A4 + 0x2], D0
0000129C  3006                     move.w     D0, D6
0000129E  D06E 000C                add.w      D0, [A6 + 0xC]
000012A2  3880                     move.w     [A4], D0
label000012A4:
000012A4  4CDF 10F0                movem.l    D4,D5,D6,D7,A4, [A7]+
000012A8  4E5E                     unlink     A6
000012AA  205F                     movea.l    A0, [A7]+
000012AC  504F                     addq.w     A7, 8
000012AE  4ED0                     jmp        [A0]
fn000012B0:
000012B0  4E56 FFFC                link       A6, -0x0004
000012B4  48E7 0718                movem.l    -[A7], D5,D6,D7,A3,A4
000012B8  286E 0010                movea.l    A4, [A6 + 0x10]
000012BC  266E 0016                movea.l    A3, [A6 + 0x16]
000012C0  2C2E 0008                move.l     D6, [A6 + 0x8]
000012C4  2A2E 000C                move.l     D5, [A6 + 0xC]
000012C8  4267                     clr.w      -[A7]
000012CA  4EAD 221A                jsr        [A5 + 0x221A /* export_1087, CODE:20 @ 00004B46 */]
000012CE  101F                     move.b     D0, [A7]+
000012D0  6706                     beq        +0x8 /* 000012D8 */
000012D2  1B7C 0001 F005           move.b     [A5 - 0xFFB], 0x1
label000012D8:
000012D8  7002                     moveq.l    D0, 0x02
000012DA  B06E 0014                cmp.w      D0, [A6 + 0x14]
000012DE  5DC0                     slt        D0
000012E0  802D F005                or.b       D0, [A5 - 0xFFB]
000012E4  0240 0001                andi.w     D0, 0x1
000012E8  6764                     beq        +0x66 /* 0000134E */
000012EA  42A7                     clr.l      -[A7]
000012EC  302B 0002                move.w     D0, [A3 + 0x2]
000012F0  906E 001C                sub.w      D0, [A6 + 0x1C]
000012F4  48C0                     ext.l      D0
000012F6  2F00                     move.l     -[A7], D0
000012F8  3013                     move.w     D0, [A3]
000012FA  906E 001A                sub.w      D0, [A6 + 0x1A]
000012FE  48C0                     ext.l      D0
00001300  2F00                     move.l     -[A7], D0
00001302  A818                     syscall    FixATan2
00001304  201F                     move.l     D0, [A7]+
00001306  D0BC 0006 4880           add.l      D0, 0x64880
0000130C  2880                     move.l     [A4], D0
0000130E  2046                     movea.l    A0, D6
00001310  2F08                     move.l     -[A7], A0
00001312  42A7                     clr.l      -[A7]
00001314  2F2E 001A                move.l     -[A7], [A6 + 0x1A]
00001318  2F13                     move.l     -[A7], [A3]
0000131A  4EAD 1822                jsr        [A5 + 0x1822 /* export_768, CODE:16 @ 00000242 */]
0000131E  201F                     move.l     D0, [A7]+
00001320  205F                     movea.l    A0, [A7]+
00001322  2080                     move.l     [A0], D0
00001324  2045                     movea.l    A0, D5
00001326  2F08                     move.l     -[A7], A0
00001328  42A7                     clr.l      -[A7]
0000132A  2F3C 0006 4880           move.l     -[A7], 0x64880
00001330  2F08                     move.l     -[A7], A0
00001332  42A7                     clr.l      -[A7]
00001334  302E 0014                move.w     D0, [A6 + 0x14]
00001338  48C0                     ext.l      D0
0000133A  2F00                     move.l     -[A7], D0
0000133C  A83F                     syscall    Long2Fix
0000133E  201F                     move.l     D0, [A7]+
00001340  205F                     movea.l    A0, [A7]+
00001342  2F00                     move.l     -[A7], D0
00001344  4EAD 01AA                jsr        [A5 + 0x1AA /* export_49, CODE:1 @ 000041E0 */]
00001348  201F                     move.l     D0, [A7]+
0000134A  205F                     movea.l    A0, [A7]+
0000134C  2080                     move.l     [A0], D0
label0000134E:
0000134E  102D F005                move.b     D0, [A5 - 0xFFB]
00001352  6700 009A                beq        +0x9C /* 000013EE */
00001356  2045                     movea.l    A0, D5
00001358  2F10                     move.l     -[A7], [A0]
0000135A  7002                     moveq.l    D0, 0x02
0000135C  2F00                     move.l     -[A7], D0
0000135E  4EAD 04F2                jsr        [A5 + 0x4F2 /* export_154, CODE:1 @ 00005224 */]
00001362  2E1F                     move.l     D7, [A7]+
00001364  DE94                     add.l      D7, [A4]
00001366  42A7                     clr.l      -[A7]
00001368  2F07                     move.l     -[A7], D7
0000136A  2F3C 0000 4305           move.l     -[A7], 0x4305
00001370  4EAD 01AA                jsr        [A5 + 0x1AA /* export_49, CODE:1 @ 000041E0 */]
00001374  2E1F                     move.l     D7, [A7]+
00001376  42A7                     clr.l      -[A7]
00001378  4267                     clr.w      -[A7]
0000137A  2F07                     move.l     -[A7], D7
0000137C  A86C                     syscall    FixRound
0000137E  301F                     move.w     D0, [A7]+
00001380  48C0                     ext.l      D0
00001382  2F00                     move.l     -[A7], D0
00001384  A83F                     syscall    Long2Fix
00001386  2E1F                     move.l     D7, [A7]+
00001388  42A7                     clr.l      -[A7]
0000138A  2F07                     move.l     -[A7], D7
0000138C  2F3C 0000 4305           move.l     -[A7], 0x4305
00001392  A868                     syscall    FixMul
00001394  2E1F                     move.l     D7, [A7]+
00001396  2045                     movea.l    A0, D5
00001398  2F10                     move.l     -[A7], [A0]
0000139A  7002                     moveq.l    D0, 0x02
0000139C  2F00                     move.l     -[A7], D0
0000139E  4EAD 04F2                jsr        [A5 + 0x4F2 /* export_154, CODE:1 @ 00005224 */]
000013A2  2007                     move.l     D0, D7
000013A4  909F                     sub.l      D0, [A7]+
000013A6  2880                     move.l     [A4], D0
000013A8  42A7                     clr.l      -[A7]
000013AA  42A7                     clr.l      -[A7]
000013AC  2046                     movea.l    A0, D6
000013AE  2F10                     move.l     -[A7], [A0]
000013B0  42A7                     clr.l      -[A7]
000013B2  42A7                     clr.l      -[A7]
000013B4  2F14                     move.l     -[A7], [A4]
000013B6  4EAD 019A                jsr        [A5 + 0x19A /* export_47, CODE:1 @ 000042AA */]
000013BA  4EBA 2794                jsr        [PC + 0x2794 /* 00003B50 */]
000013BE  A868                     syscall    FixMul
000013C0  A840                     syscall    Fix2Long
000013C2  201F                     move.l     D0, [A7]+
000013C4  D06E 001C                add.w      D0, [A6 + 0x1C]
000013C8  3740 0002                move.w     [A3 + 0x2], D0
000013CC  42A7                     clr.l      -[A7]
000013CE  42A7                     clr.l      -[A7]
000013D0  2046                     movea.l    A0, D6
000013D2  2F10                     move.l     -[A7], [A0]
000013D4  42A7                     clr.l      -[A7]
000013D6  42A7                     clr.l      -[A7]
000013D8  2F14                     move.l     -[A7], [A4]
000013DA  4EAD 01A2                jsr        [A5 + 0x1A2 /* export_48, CODE:1 @ 000042BA */]
000013DE  4EBA 2770                jsr        [PC + 0x2770 /* 00003B50 */]
000013E2  A868                     syscall    FixMul
000013E4  A840                     syscall    Fix2Long
000013E6  201F                     move.l     D0, [A7]+
000013E8  D06E 001A                add.w      D0, [A6 + 0x1A]
000013EC  3680                     move.w     [A3], D0
label000013EE:
000013EE  4CDF 18E0                movem.l    D5,D6,D7,A3,A4, [A7]+
000013F2  4E5E                     unlink     A6
000013F4  205F                     movea.l    A0, [A7]+
000013F6  DEFC 0016                add.w      A7, 0x16
000013FA  4ED0                     jmp        [A0]
fn000013FC:
000013FC  4E56 F03A                link       A6, -0x0FC6
00001400  48E7 0708                movem.l    -[A7], D5,D6,D7,A4
00001404  4EBA 227C                jsr        [PC + 0x227C /* 00003682 */]
00001408  486E FFF4                pea.l      [A6 - 0xC]
0000140C  4EBA 1C6E                jsr        [PC + 0x1C6E /* 0000307C */]
00001410  4EBA ED50                jsr        [PC - 0x12B0 /* 00000162 */]
00001414  102D EF41                move.b     D0, [A5 - 0x10BF]
00001418  6712                     beq        +0x14 /* 0000142C */
0000141A  42A7                     clr.l      -[A7]
0000141C  4EBA 1EFE                jsr        [PC + 0x1EFE /* 0000331C */]
00001420  2A1F                     move.l     D5, [A7]+
00001422  42A7                     clr.l      -[A7]
00001424  A8D8                     syscall    NewRgn
00001426  285F                     movea.l    A4, [A7]+
00001428  A8DA                     syscall    OpenRgn
0000142A  A897                     syscall    ShowPen
label0000142C:
0000142C  2F2E FFF4                move.l     -[A7], [A6 - 0xC]
00001430  2F2E FFF4                move.l     -[A7], [A6 - 0xC]
00001434  4EBA 226C                jsr        [PC + 0x226C /* 000036A2 */]
00001438  2D6E FFF4 FFF8           move.l     [A6 - 0x8], [A6 - 0xC]
0000143E  7E01                     moveq.l    D7, 0x01
label00001440:
00001440  486E FFFC                pea.l      [A6 - 0x4]
00001444  4EBA 1C36                jsr        [PC + 0x1C36 /* 0000307C */]
00001448  302E FFFE                move.w     D0, [A6 - 0x2]
0000144C  906E FFFA                sub.w      D0, [A6 - 0x6]
00001450  6A02                     bpl        +0x4 /* 00001454 */
00001452  4440                     neg.w      D0
label00001454:
00001454  322E FFFC                move.w     D1, [A6 - 0x4]
00001458  926E FFF8                sub.w      D1, [A6 - 0x8]
0000145C  6A02                     bpl        +0x4 /* 00001460 */
0000145E  4441                     neg.w      D1
label00001460:
00001460  D240                     add.w      D1, D0
00001462  7001                     moveq.l    D0, 0x01
00001464  B041                     cmp.w      D0, D1
00001466  6C22                     bge        +0x24 /* 0000148A */
00001468  2F2E FFF8                move.l     -[A7], [A6 - 0x8]
0000146C  2F2E FFFC                move.l     -[A7], [A6 - 0x4]
00001470  4EBA 2230                jsr        [PC + 0x2230 /* 000036A2 */]
00001474  3007                     move.w     D0, D7
00001476  E540                     asl        D0.w, 2
00001478  41EE F04C                lea.l      A0, [A6 - 0xFB4]
0000147C  21AE FFFC 0000           move.l     [A0 + D0.w], [A6 - 0x4]
00001482  5247                     addq.w     D7, 1
00001484  2D6E FFFC FFF8           move.l     [A6 - 0x8], [A6 - 0x4]
label0000148A:
0000148A  102D EF41                move.b     D0, [A5 - 0x10BF]
0000148E  6716                     beq        +0x18 /* 000014A6 */
00001490  2F00                     move.l     -[A7], D0
00001492  4267                     clr.w      -[A7]
00001494  4EAD 14F2                jsr        [A5 + 0x14F2 /* export_666, CODE:14 @ 00000634 */]
00001498  321F                     move.w     D1, [A7]+
0000149A  201F                     move.l     D0, [A7]+
0000149C  48C1                     ext.l      D1
0000149E  BA81                     cmp.l      D5, D1
000014A0  5DC1                     slt        D1
000014A2  C001                     and.b      D0, D1
000014A4  6620                     bne        +0x22 /* 000014C6 */
label000014A6:
000014A6  0C47 03E8                cmpi.w     D7, 0x3E8
000014AA  57C0                     seq        D0
000014AC  2F00                     move.l     -[A7], D0
000014AE  4267                     clr.w      -[A7]
000014B0  4EAD 210A                jsr        [A5 + 0x210A /* export_1053, CODE:20 @ 000016F6 */]
000014B4  121F                     move.b     D1, [A7]+
000014B6  201F                     move.l     D0, [A7]+
000014B8  0A01 0001                xori.b     D1, 0x1
000014BC  8001                     or.b       D0, D1
000014BE  0240 0001                andi.w     D0, 0x1
000014C2  6700 FF7C                beq        -0x82 /* 00001440 */
label000014C6:
000014C6  102D EF41                move.b     D0, [A5 - 0x10BF]
000014CA  6700 00EA                beq        +0xEC /* 000015B6 */
000014CE  2F2E FFF8                move.l     -[A7], [A6 - 0x8]
000014D2  2F2E FFF4                move.l     -[A7], [A6 - 0xC]
000014D6  4EBA 21CA                jsr        [PC + 0x21CA /* 000036A2 */]
000014DA  A896                     syscall    HidePen
000014DC  2F0C                     move.l     -[A7], A4
000014DE  A8DB                     syscall    CloseRgn
000014E0  2054                     movea.l    A0, [A4]
000014E2  43EE F03C                lea.l      A1, [A6 - 0xFC4]
000014E6  5488                     addq.l     A0, 2
000014E8  22D8                     move.l     [A1]+, [A0]+
000014EA  22D8                     move.l     [A1]+, [A0]+
000014EC  486E F03C                pea.l      [A6 - 0xFC4]
000014F0  302D EF1A                move.w     D0, [A5 - 0x10E6]
000014F4  4440                     neg.w      D0
000014F6  3F00                     move.w     -[A7], D0
000014F8  302D EF1A                move.w     D0, [A5 - 0x10E6]
000014FC  4440                     neg.w      D0
000014FE  3F00                     move.w     -[A7], D0
00001500  A8A9                     syscall    InsetRect
00001502  486D D70E                pea.l      [A5 - 0x28F2]
00001506  A875                     syscall    SetPBits/SetPortBits
00001508  2F0C                     move.l     -[A7], A4
0000150A  486D FE98                pea.l      [A5 - 0x168]
0000150E  A8D6                     syscall    FillRgn
00001510  2F2D D6C4                move.l     -[A7], [A5 - 0x293C]
00001514  2F2D D6C0                move.l     -[A7], [A5 - 0x2940]
00001518  486E F03C                pea.l      [A6 - 0xFC4]
0000151C  4267                     clr.w      -[A7]
0000151E  4EAD 1582                jsr        [A5 + 0x1582 /* export_684, CODE:15 @ 000005C0 */]
00001522  486E F03C                pea.l      [A6 - 0xFC4]
00001526  486D D68E                pea.l      [A5 - 0x2972]
0000152A  4EAD 1CEA                jsr        [A5 + 0x1CEA /* export_921, CODE:17 @ 00001DBA */]
0000152E  4267                     clr.w      -[A7]
00001530  486D EF44                pea.l      [A5 - 0x10BC]
00001534  486D FE98                pea.l      [A5 - 0x168]
00001538  4EAD 1C1A                jsr        [A5 + 0x1C1A /* export_895, CODE:17 @ 00000930 */]
0000153C  101F                     move.b     D0, [A7]+
0000153E  6658                     bne        +0x5A /* 00001598 */
00001540  486D D700                pea.l      [A5 - 0x2900]
00001544  A875                     syscall    SetPBits/SetPortBits
00001546  486D EF44                pea.l      [A5 - 0x10BC]
0000154A  A89D                     syscall    PenPat
0000154C  3F3C 000F                move.w     -[A7], 0xF
00001550  A89C                     syscall    PenMode
00001552  486E F03C                pea.l      [A6 - 0xFC4]
00001556  A8A2                     syscall    PaintRect
00001558  102D F003                move.b     D0, [A5 - 0xFFD]
0000155C  663A                     bne        +0x3C /* 00001598 */
0000155E  4EBA 2122                jsr        [PC + 0x2122 /* 00003682 */]
00001562  2F2E FFF4                move.l     -[A7], [A6 - 0xC]
00001566  4EBA 25C8                jsr        [PC + 0x25C8 /* 00003B30 */]
0000156A  3007                     move.w     D0, D7
0000156C  5340                     subq.w     D0, 1
0000156E  3D40 F03A                move.w     [A6 - 0xFC6], D0
00001572  7C01                     moveq.l    D6, 0x01
00001574  6014                     bra        +0x16 /* 0000158A */
label00001576:
00001576  3006                     move.w     D0, D6
00001578  E540                     asl        D0.w, 2
0000157A  41EE F04C                lea.l      A0, [A6 - 0xFB4]
0000157E  2F30 0000                move.l     -[A7], [A0 + D0.w]
00001582  4EBA 224E                jsr        [PC + 0x224E /* 000037D2 */]
00001586  5246                     addq.w     D6, 1
00001588  6906                     bvs        +0x8 /* 00001590 */
label0000158A:
0000158A  BC6E F03A                cmp.w      D6, [A6 - 0xFC6]
0000158E  6FE6                     ble        -0x18 /* 00001576 */
label00001590:
00001590  2F2E FFF4                move.l     -[A7], [A6 - 0xC]
00001594  4EBA 223C                jsr        [PC + 0x223C /* 000037D2 */]
label00001598:
00001598  2F0C                     move.l     -[A7], A4
0000159A  A8D9                     syscall    DisposRgn/DisposeRgn
0000159C  486E F03C                pea.l      [A6 - 0xFC4]
000015A0  486E F03C                pea.l      [A6 - 0xFC4]
000015A4  4267                     clr.w      -[A7]
000015A6  4EBA 4DFE                jsr        [PC + 0x4DFE /* 000063A6 */]
000015AA  486E F03C                pea.l      [A6 - 0xFC4]
000015AE  486D E2F2                pea.l      [A5 - 0x1D0E]
000015B2  4EAD 1CEA                jsr        [A5 + 0x1CEA /* export_921, CODE:17 @ 00001DBA */]
label000015B6:
000015B6  486D ED44                pea.l      [A5 - 0x12BC]
000015BA  A875                     syscall    SetPBits/SetPortBits
000015BC  4EBA F9CA                jsr        [PC - 0x636 /* 00000F88 */]
000015C0  1B7C 0001 D50E           move.b     [A5 - 0x2AF2], 0x1
000015C6  4CDF 10E0                movem.l    D5,D6,D7,A4, [A7]+
000015CA  4E5E                     unlink     A6
000015CC  4E75                     rts
fn000015CE:
000015CE  4E56 FFD0                link       A6, -0x0030
000015D2  48E7 0F00                movem.l    -[A7], D4,D5,D6,D7
000015D6  4EBA 20AA                jsr        [PC + 0x20AA /* 00003682 */]
000015DA  3C2D EF1A                move.w     D6, [A5 - 0x10E6]
000015DE  9C6D EF18                sub.w      D6, [A5 - 0x10E8]
000015E2  486E FFFC                pea.l      [A6 - 0x4]
000015E6  4EBA 1A94                jsr        [PC + 0x1A94 /* 0000307C */]
000015EA  4EBA EB76                jsr        [PC - 0x148A /* 00000162 */]
000015EE  2D6E FFFC FFEC           move.l     [A6 - 0x14], [A6 - 0x4]
000015F4  2D6E FFFC FFF0           move.l     [A6 - 0x10], [A6 - 0x4]
000015FA  2D6E FFFC FFF8           move.l     [A6 - 0x8], [A6 - 0x4]
00001600  7E01                     moveq.l    D7, 0x01
00001602  7001                     moveq.l    D0, 0x01
00001604  B06D D47C                cmp.w      D0, [A5 - 0x2B84]
00001608  57C0                     seq        D0
0000160A  C02D F017                and.b      D0, [A5 - 0xFE9]
0000160E  122D F00F                move.b     D1, [A5 - 0xFF1]
00001612  0A01 0001                xori.b     D1, 0x1
00001616  C001                     and.b      D0, D1
00001618  6702                     beq        +0x4 /* 0000161C */
0000161A  4207                     clr.b      D7
label0000161C:
0000161C  486E FFF4                pea.l      [A6 - 0xC]
00001620  4EBA 1A5A                jsr        [PC + 0x1A5A /* 0000307C */]
00001624  2F2E FFFC                move.l     -[A7], [A6 - 0x4]
00001628  486E FFF4                pea.l      [A6 - 0xC]
0000162C  3F3C 0002                move.w     -[A7], 0x2
00001630  486E FFDC                pea.l      [A6 - 0x24]
00001634  486E FFE0                pea.l      [A6 - 0x20]
00001638  486E FFE4                pea.l      [A6 - 0x1C]
0000163C  4EBA FC72                jsr        [PC - 0x38E /* 000012B0 */]
00001640  4267                     clr.w      -[A7]
00001642  2F2E FFF4                move.l     -[A7], [A6 - 0xC]
00001646  2F2E FFF8                move.l     -[A7], [A6 - 0x8]
0000164A  3F2D D47C                move.w     -[A7], [A5 - 0x2B84]
0000164E  4EAD 1A72                jsr        [A5 + 0x1A72 /* export_842, CODE:16 @ 000019A8 */]
00001652  101F                     move.b     D0, [A7]+
00001654  0A00 0001                xori.b     D0, 0x1
00001658  2207                     move.l     D1, D7
0000165A  8200                     or.b       D1, D0
0000165C  6700 0090                beq        +0x92 /* 000016EE */
00001660  102D EF22                move.b     D0, [A5 - 0x10DE]
00001664  6608                     bne        +0xA /* 0000166E */
00001666  486E FFEC                pea.l      [A6 - 0x14]
0000166A  4EBA 144C                jsr        [PC + 0x144C /* 00002AB8 */]
label0000166E:
0000166E  102D EF1F                move.b     D0, [A5 - 0x10E1]
00001672  673A                     beq        +0x3C /* 000016AE */
00001674  3A2E FFF6                move.w     D5, [A6 - 0xA]
00001678  9A6E FFFE                sub.w      D5, [A6 - 0x2]
0000167C  382E FFF4                move.w     D4, [A6 - 0xC]
00001680  986E FFFC                sub.w      D4, [A6 - 0x4]
00001684  302E FFFE                move.w     D0, [A6 - 0x2]
00001688  9045                     sub.w      D0, D5
0000168A  3D40 FFD6                move.w     [A6 - 0x2A], D0
0000168E  302E FFFC                move.w     D0, [A6 - 0x4]
00001692  9044                     sub.w      D0, D4
00001694  3D40 FFD4                move.w     [A6 - 0x2C], D0
00001698  3005                     move.w     D0, D5
0000169A  D06E FFFE                add.w      D0, [A6 - 0x2]
0000169E  3D40 FFDA                move.w     [A6 - 0x26], D0
000016A2  3004                     move.w     D0, D4
000016A4  D06E FFFC                add.w      D0, [A6 - 0x4]
000016A8  3D40 FFD8                move.w     [A6 - 0x28], D0
000016AC  600C                     bra        +0xE /* 000016BA */
label000016AE:
000016AE  2D6E FFFC FFD4           move.l     [A6 - 0x2C], [A6 - 0x4]
000016B4  2D6E FFF4 FFD8           move.l     [A6 - 0x28], [A6 - 0xC]
label000016BA:
000016BA  2F2E FFD4                move.l     -[A7], [A6 - 0x2C]
000016BE  2F2E FFD8                move.l     -[A7], [A6 - 0x28]
000016C2  4EBA 1FDE                jsr        [PC + 0x1FDE /* 000036A2 */]
000016C6  2F2E FFD4                move.l     -[A7], [A6 - 0x2C]
000016CA  2F2E FFD8                move.l     -[A7], [A6 - 0x28]
000016CE  486E FFEC                pea.l      [A6 - 0x14]
000016D2  A8AC                     syscall    Pt2Rect
000016D4  486E FFEC                pea.l      [A6 - 0x14]
000016D8  3006                     move.w     D0, D6
000016DA  4440                     neg.w      D0
000016DC  3F00                     move.w     -[A7], D0
000016DE  3006                     move.w     D0, D6
000016E0  4440                     neg.w      D0
000016E2  3F00                     move.w     -[A7], D0
000016E4  A8A9                     syscall    InsetRect
000016E6  2D6E FFF4 FFF8           move.l     [A6 - 0x8], [A6 - 0xC]
000016EC  4207                     clr.b      D7
label000016EE:
000016EE  4267                     clr.w      -[A7]
000016F0  4EAD 210A                jsr        [A5 + 0x210A /* export_1053, CODE:20 @ 000016F6 */]
000016F4  101F                     move.b     D0, [A7]+
000016F6  0A00 0001                xori.b     D0, 0x1
000016FA  6700 FF20                beq        -0xDE /* 0000161C */
000016FE  1B7C 0001 D50E           move.b     [A5 - 0x2AF2], 0x1
00001704  486D ED44                pea.l      [A5 - 0x12BC]
00001708  A875                     syscall    SetPBits/SetPortBits
0000170A  4CDF 00F0                movem.l    D4,D5,D6,D7, [A7]+
0000170E  4E5E                     unlink     A6
00001710  4E75                     rts
fn00001712:
00001712  4E56 F024                link       A6, -0x0FDC
00001716  48E7 0F18                movem.l    -[A7], D4,D5,D6,D7,A3,A4
0000171A  7001                     moveq.l    D0, 0x01
0000171C  B06D EFF4                cmp.w      D0, [A5 - 0x100C]
00001720  6C04                     bge        +0x6 /* 00001726 */
00001722  6000 021A                bra        +0x21C /* 0000193E */
label00001726:
00001726  102D F017                move.b     D0, [A5 - 0xFE9]
0000172A  6718                     beq        +0x1A /* 00001744 */
label0000172C:
0000172C  4267                     clr.w      -[A7]
0000172E  4EAD 210A                jsr        [A5 + 0x210A /* export_1053, CODE:20 @ 000016F6 */]
00001732  101F                     move.b     D0, [A7]+
00001734  670A                     beq        +0xC /* 00001740 */
00001736  486E FFFC                pea.l      [A6 - 0x4]
0000173A  4EAD 20DA                jsr        [A5 + 0x20DA /* export_1047, CODE:20 @ 0000147C */]
0000173E  60EC                     bra        -0x12 /* 0000172C */
label00001740:
00001740  6000 01FC                bra        +0x1FE /* 0000193E */
label00001744:
00001744  4EBA 1F3C                jsr        [PC + 0x1F3C /* 00003682 */]
00001748  486E FFF4                pea.l      [A6 - 0xC]
0000174C  4EBA 192E                jsr        [PC + 0x192E /* 0000307C */]
00001750  4EBA EA10                jsr        [PC - 0x15F0 /* 00000162 */]
00001754  7000                     moveq.l    D0, 0x00
00001756  2640                     movea.l    A3, D0
00001758  102D EF41                move.b     D0, [A5 - 0x10BF]
0000175C  6718                     beq        +0x1A /* 00001776 */
0000175E  42A7                     clr.l      -[A7]
00001760  4EBA 1BBA                jsr        [PC + 0x1BBA /* 0000331C */]
00001764  2D5F FFD6                move.l     [A6 - 0x2A], [A7]+
00001768  A8DA                     syscall    OpenRgn
0000176A  A897                     syscall    ShowPen
0000176C  266D EE98                movea.l    A3, [A5 - 0x1168]
00001770  7000                     moveq.l    D0, 0x00
00001772  2B40 EE98                move.l     [A5 - 0x1168], D0
label00001776:
00001776  2D6E FFF4 FFF8           move.l     [A6 - 0x8], [A6 - 0xC]
0000177C  7C01                     moveq.l    D6, 0x01
label0000177E:
0000177E  4267                     clr.w      -[A7]
00001780  2F2E FFF8                move.l     -[A7], [A6 - 0x8]
00001784  486E FFFC                pea.l      [A6 - 0x4]
00001788  4EBA 3D1C                jsr        [PC + 0x3D1C /* 000054A6 */]
0000178C  1E1F                     move.b     D7, [A7]+
0000178E  1007                     move.b     D0, D7
00001790  6626                     bne        +0x28 /* 000017B8 */
00001792  2B4B EE98                move.l     [A5 - 0x1168], A3
00001796  2F2E FFF8                move.l     -[A7], [A6 - 0x8]
0000179A  2F2E FFFC                move.l     -[A7], [A6 - 0x4]
0000179E  4EBA 1F02                jsr        [PC + 0x1F02 /* 000036A2 */]
000017A2  7000                     moveq.l    D0, 0x00
000017A4  2B40 EE98                move.l     [A5 - 0x1168], D0
000017A8  3006                     move.w     D0, D6
000017AA  E540                     asl        D0.w, 2
000017AC  41EE F032                lea.l      A0, [A6 - 0xFCE]
000017B0  21AE FFFC 0000           move.l     [A0 + D0.w], [A6 - 0x4]
000017B6  5246                     addq.w     D6, 1
label000017B8:
000017B8  4205                     clr.b      D5
000017BA  7002                     moveq.l    D0, 0x02
000017BC  B046                     cmp.w      D0, D6
000017BE  6C32                     bge        +0x34 /* 000017F2 */
000017C0  4267                     clr.w      -[A7]
000017C2  2F2E FFFC                move.l     -[A7], [A6 - 0x4]
000017C6  2F2E FFF4                move.l     -[A7], [A6 - 0xC]
000017CA  302D EF18                move.w     D0, [A5 - 0x10E8]
000017CE  5640                     addq.w     D0, 3
000017D0  3F00                     move.w     -[A7], D0
000017D2  4EAD 1A72                jsr        [A5 + 0x1A72 /* export_842, CODE:16 @ 000019A8 */]
000017D6  1A1F                     move.b     D5, [A7]+
000017D8  8E05                     or.b       D7, D5
000017DA  4267                     clr.w      -[A7]
000017DC  2F2E FFFC                move.l     -[A7], [A6 - 0x4]
000017E0  2F2E FFF8                move.l     -[A7], [A6 - 0x8]
000017E4  302D EF18                move.w     D0, [A5 - 0x10E8]
000017E8  5640                     addq.w     D0, 3
000017EA  3F00                     move.w     -[A7], D0
000017EC  4EAD 1A72                jsr        [A5 + 0x1A72 /* export_842, CODE:16 @ 000019A8 */]
000017F0  8E1F                     or.b       D7, [A7]+
label000017F2:
000017F2  0C46 03E8                cmpi.w     D6, 0x3E8
000017F6  6602                     bne        +0x4 /* 000017FA */
000017F8  7E01                     moveq.l    D7, 0x01
label000017FA:
000017FA  102D EF41                move.b     D0, [A5 - 0x10BF]
000017FE  671A                     beq        +0x1C /* 0000181A */
00001800  2F00                     move.l     -[A7], D0
00001802  4267                     clr.w      -[A7]
00001804  4EAD 14F2                jsr        [A5 + 0x14F2 /* export_666, CODE:14 @ 00000634 */]
00001808  321F                     move.w     D1, [A7]+
0000180A  201F                     move.l     D0, [A7]+
0000180C  48C1                     ext.l      D1
0000180E  B2AE FFD6                cmp.l      D1, [A6 - 0x2A]
00001812  5EC1                     sgt        D1
00001814  C001                     and.b      D0, D1
00001816  6702                     beq        +0x4 /* 0000181A */
00001818  7E01                     moveq.l    D7, 0x01
label0000181A:
0000181A  2D6E FFFC FFF8           move.l     [A6 - 0x8], [A6 - 0x4]
00001820  1007                     move.b     D0, D7
00001822  6700 FF5A                beq        -0xA4 /* 0000177E */
00001826  1005                     move.b     D0, D5
00001828  802D EF41                or.b       D0, [A5 - 0x10BF]
0000182C  6710                     beq        +0x12 /* 0000183E */
0000182E  2B4B EE98                move.l     [A5 - 0x1168], A3
00001832  2F2E FFFC                move.l     -[A7], [A6 - 0x4]
00001836  2F2E FFF4                move.l     -[A7], [A6 - 0xC]
0000183A  4EBA 1E66                jsr        [PC + 0x1E66 /* 000036A2 */]
label0000183E:
0000183E  102D EF41                move.b     D0, [A5 - 0x10BF]
00001842  6700 00E4                beq        +0xE6 /* 00001928 */
00001846  A896                     syscall    HidePen
00001848  42A7                     clr.l      -[A7]
0000184A  A8D8                     syscall    NewRgn
0000184C  285F                     movea.l    A4, [A7]+
0000184E  2F0C                     move.l     -[A7], A4
00001850  A8DB                     syscall    CloseRgn
00001852  2054                     movea.l    A0, [A4]
00001854  43EE F026                lea.l      A1, [A6 - 0xFDA]
00001858  5488                     addq.l     A0, 2
0000185A  22D8                     move.l     [A1]+, [A0]+
0000185C  22D8                     move.l     [A1]+, [A0]+
0000185E  486E F026                pea.l      [A6 - 0xFDA]
00001862  302D EF1A                move.w     D0, [A5 - 0x10E6]
00001866  4440                     neg.w      D0
00001868  3F00                     move.w     -[A7], D0
0000186A  302D EF1A                move.w     D0, [A5 - 0x10E6]
0000186E  4440                     neg.w      D0
00001870  3F00                     move.w     -[A7], D0
00001872  A8A9                     syscall    InsetRect
00001874  486D D70E                pea.l      [A5 - 0x28F2]
00001878  A875                     syscall    SetPBits/SetPortBits
0000187A  2F0C                     move.l     -[A7], A4
0000187C  486D FE98                pea.l      [A5 - 0x168]
00001880  A8D6                     syscall    FillRgn
00001882  2F2D D6C4                move.l     -[A7], [A5 - 0x293C]
00001886  2F2D D6C0                move.l     -[A7], [A5 - 0x2940]
0000188A  486E F026                pea.l      [A6 - 0xFDA]
0000188E  4267                     clr.w      -[A7]
00001890  4EAD 1582                jsr        [A5 + 0x1582 /* export_684, CODE:15 @ 000005C0 */]
00001894  486E F026                pea.l      [A6 - 0xFDA]
00001898  486D D68E                pea.l      [A5 - 0x2972]
0000189C  4EAD 1CEA                jsr        [A5 + 0x1CEA /* export_921, CODE:17 @ 00001DBA */]
000018A0  4267                     clr.w      -[A7]
000018A2  486D EF44                pea.l      [A5 - 0x10BC]
000018A6  486D FE98                pea.l      [A5 - 0x168]
000018AA  4EAD 1C1A                jsr        [A5 + 0x1C1A /* export_895, CODE:17 @ 00000930 */]
000018AE  101F                     move.b     D0, [A7]+
000018B0  6658                     bne        +0x5A /* 0000190A */
000018B2  486D D700                pea.l      [A5 - 0x2900]
000018B6  A875                     syscall    SetPBits/SetPortBits
000018B8  486D EF44                pea.l      [A5 - 0x10BC]
000018BC  A89D                     syscall    PenPat
000018BE  3F3C 000F                move.w     -[A7], 0xF
000018C2  A89C                     syscall    PenMode
000018C4  486E F026                pea.l      [A6 - 0xFDA]
000018C8  A8A2                     syscall    PaintRect
000018CA  102D F003                move.b     D0, [A5 - 0xFFD]
000018CE  663A                     bne        +0x3C /* 0000190A */
000018D0  4EBA 1DB0                jsr        [PC + 0x1DB0 /* 00003682 */]
000018D4  2F2E FFF4                move.l     -[A7], [A6 - 0xC]
000018D8  4EBA 2256                jsr        [PC + 0x2256 /* 00003B30 */]
000018DC  3006                     move.w     D0, D6
000018DE  5340                     subq.w     D0, 1
000018E0  3D40 F024                move.w     [A6 - 0xFDC], D0
000018E4  7801                     moveq.l    D4, 0x01
000018E6  6014                     bra        +0x16 /* 000018FC */
label000018E8:
000018E8  3004                     move.w     D0, D4
000018EA  E540                     asl        D0.w, 2
000018EC  41EE F032                lea.l      A0, [A6 - 0xFCE]
000018F0  2F30 0000                move.l     -[A7], [A0 + D0.w]
000018F4  4EBA 1EDC                jsr        [PC + 0x1EDC /* 000037D2 */]
000018F8  5244                     addq.w     D4, 1
000018FA  6906                     bvs        +0x8 /* 00001902 */
label000018FC:
000018FC  B86E F024                cmp.w      D4, [A6 - 0xFDC]
00001900  6FE6                     ble        -0x18 /* 000018E8 */
label00001902:
00001902  2F2E FFF4                move.l     -[A7], [A6 - 0xC]
00001906  4EBA 1ECA                jsr        [PC + 0x1ECA /* 000037D2 */]
label0000190A:
0000190A  2F0C                     move.l     -[A7], A4
0000190C  A8D9                     syscall    DisposRgn/DisposeRgn
0000190E  486E F026                pea.l      [A6 - 0xFDA]
00001912  486E F026                pea.l      [A6 - 0xFDA]
00001916  4267                     clr.w      -[A7]
00001918  4EBA 4A8C                jsr        [PC + 0x4A8C /* 000063A6 */]
0000191C  486E F026                pea.l      [A6 - 0xFDA]
00001920  486D E2F2                pea.l      [A5 - 0x1D0E]
00001924  4EAD 1CEA                jsr        [A5 + 0x1CEA /* export_921, CODE:17 @ 00001DBA */]
label00001928:
00001928  486D ED44                pea.l      [A5 - 0x12BC]
0000192C  A875                     syscall    SetPBits/SetPortBits
0000192E  4EBA F658                jsr        [PC - 0x9A8 /* 00000F88 */]
00001932  1B7C 0001 D50E           move.b     [A5 - 0x2AF2], 0x1
00001938  1B7C 0001 EFEF           move.b     [A5 - 0x1011], 0x1
label0000193E:
0000193E  4CDF 18F0                movem.l    D4,D5,D6,D7,A3,A4, [A7]+
00001942  4E5E                     unlink     A6
00001944  4E75                     rts
fn00001946:
00001946  4E56 FFCE                link       A6, -0x0032
0000194A  48E7 0708                movem.l    -[A7], D5,D6,D7,A4
0000194E  4EBA 1D32                jsr        [PC + 0x1D32 /* 00003682 */]
00001952  486E FFF4                pea.l      [A6 - 0xC]
00001956  4EBA 1724                jsr        [PC + 0x1724 /* 0000307C */]
0000195A  4EBA E806                jsr        [PC - 0x17FA /* 00000162 */]
0000195E  2D6E FFF4 FFEC           move.l     [A6 - 0x14], [A6 - 0xC]
00001964  2D6E FFF4 FFF0           move.l     [A6 - 0x10], [A6 - 0xC]
0000196A  2D6E FFF4 FFF8           move.l     [A6 - 0x8], [A6 - 0xC]
00001970  7A01                     moveq.l    D5, 0x01
00001972  4206                     clr.b      D6
00001974  7001                     moveq.l    D0, 0x01
00001976  B06D D47C                cmp.w      D0, [A5 - 0x2B84]
0000197A  57C0                     seq        D0
0000197C  C02D F017                and.b      D0, [A5 - 0xFE9]
00001980  122D F00F                move.b     D1, [A5 - 0xFF1]
00001984  0A01 0001                xori.b     D1, 0x1
00001988  C001                     and.b      D0, D1
0000198A  6702                     beq        +0x4 /* 0000198E */
0000198C  4205                     clr.b      D5
label0000198E:
0000198E  7003                     moveq.l    D0, 0x03
00001990  B06D EF1C                cmp.w      D0, [A5 - 0x10E4]
00001994  6F04                     ble        +0x6 /* 0000199A */
00001996  426D EF1C                clr.w      [A5 - 0x10E4]
label0000199A:
0000199A  7032                     moveq.l    D0, 0x32
0000199C  B06D EF1C                cmp.w      D0, [A5 - 0x10E4]
000019A0  6C06                     bge        +0x8 /* 000019A8 */
000019A2  3B7C 0032 EF1C           move.w     [A5 - 0x10E4], 0x32 /* '2' */
label000019A8:
000019A8  486E FFFC                pea.l      [A6 - 0x4]
000019AC  4EBA 16CE                jsr        [PC + 0x16CE /* 0000307C */]
000019B0  4267                     clr.w      -[A7]
000019B2  4EAD 1612                jsr        [A5 + 0x1612 /* export_702, CODE:15 @ 00001296 */]
000019B6  101F                     move.b     D0, [A7]+
000019B8  6734                     beq        +0x36 /* 000019EE */
000019BA  1006                     move.b     D0, D6
000019BC  660E                     bne        +0x10 /* 000019CC */
000019BE  2D6E FFFC FFD2           move.l     [A6 - 0x2E], [A6 - 0x4]
000019C4  2D6E FFF4 FFCE           move.l     [A6 - 0x32], [A6 - 0xC]
000019CA  7C01                     moveq.l    D6, 0x01
label000019CC:
000019CC  302E FFFE                move.w     D0, [A6 - 0x2]
000019D0  D06E FFD0                add.w      D0, [A6 - 0x30]
000019D4  906E FFD4                sub.w      D0, [A6 - 0x2C]
000019D8  3D40 FFF6                move.w     [A6 - 0xA], D0
000019DC  302E FFFC                move.w     D0, [A6 - 0x4]
000019E0  D06E FFCE                add.w      D0, [A6 - 0x32]
000019E4  906E FFD2                sub.w      D0, [A6 - 0x2E]
000019E8  3D40 FFF4                move.w     [A6 - 0xC], D0
000019EC  6002                     bra        +0x4 /* 000019F0 */
label000019EE:
000019EE  4206                     clr.b      D6
label000019F0:
000019F0  4A6D EF1C                tst.w      [A5 - 0x10E4]
000019F4  671C                     beq        +0x1E /* 00001A12 */
000019F6  2F2E FFF4                move.l     -[A7], [A6 - 0xC]
000019FA  486E FFFC                pea.l      [A6 - 0x4]
000019FE  3F2D EF1C                move.w     -[A7], [A5 - 0x10E4]
00001A02  486E FFDA                pea.l      [A6 - 0x26]
00001A06  486E FFDE                pea.l      [A6 - 0x22]
00001A0A  486E FFE2                pea.l      [A6 - 0x1E]
00001A0E  4EBA F8A0                jsr        [PC - 0x760 /* 000012B0 */]
label00001A12:
00001A12  4267                     clr.w      -[A7]
00001A14  2F2E FFFC                move.l     -[A7], [A6 - 0x4]
00001A18  2F2E FFF8                move.l     -[A7], [A6 - 0x8]
00001A1C  3F2D D47C                move.w     -[A7], [A5 - 0x2B84]
00001A20  4EAD 1A72                jsr        [A5 + 0x1A72 /* export_842, CODE:16 @ 000019A8 */]
00001A24  101F                     move.b     D0, [A7]+
00001A26  0A00 0001                xori.b     D0, 0x1
00001A2A  2205                     move.l     D1, D5
00001A2C  8200                     or.b       D1, D0
00001A2E  6700 0236                beq        +0x238 /* 00001C66 */
00001A32  102D EF22                move.b     D0, [A5 - 0x10DE]
00001A36  6608                     bne        +0xA /* 00001A40 */
00001A38  486E FFEC                pea.l      [A6 - 0x14]
00001A3C  4EBA 107A                jsr        [PC + 0x107A /* 00002AB8 */]
label00001A40:
00001A40  4A6D EF1C                tst.w      [A5 - 0x10E4]
00001A44  665A                     bne        +0x5C /* 00001AA0 */
00001A46  4267                     clr.w      -[A7]
00001A48  42A7                     clr.l      -[A7]
00001A4A  2F2E FFF4                move.l     -[A7], [A6 - 0xC]
00001A4E  2F2E FFFC                move.l     -[A7], [A6 - 0x4]
00001A52  4EAD 1822                jsr        [A5 + 0x1822 /* export_768, CODE:16 @ 00000242 */]
00001A56  A86C                     syscall    FixRound
00001A58  3E1F                     move.w     D7, [A7]+
00001A5A  302E FFF6                move.w     D0, [A6 - 0xA]
00001A5E  9047                     sub.w      D0, D7
00001A60  906D EF18                sub.w      D0, [A5 - 0x10E8]
00001A64  3D40 FFEE                move.w     [A6 - 0x12], D0
00001A68  302E FFF4                move.w     D0, [A6 - 0xC]
00001A6C  9047                     sub.w      D0, D7
00001A6E  906D EF18                sub.w      D0, [A5 - 0x10E8]
00001A72  3D40 FFEC                move.w     [A6 - 0x14], D0
00001A76  3007                     move.w     D0, D7
00001A78  D06E FFF6                add.w      D0, [A6 - 0xA]
00001A7C  322D EF1A                move.w     D1, [A5 - 0x10E6]
00001A80  D240                     add.w      D1, D0
00001A82  926D EF18                sub.w      D1, [A5 - 0x10E8]
00001A86  3D41 FFF2                move.w     [A6 - 0xE], D1
00001A8A  3007                     move.w     D0, D7
00001A8C  D06E FFF4                add.w      D0, [A6 - 0xC]
00001A90  322D EF1A                move.w     D1, [A5 - 0x10E6]
00001A94  D240                     add.w      D1, D0
00001A96  926D EF18                sub.w      D1, [A5 - 0x10E8]
00001A9A  3D41 FFF0                move.w     [A6 - 0x10], D1
00001A9E  6052                     bra        +0x54 /* 00001AF2 */
label00001AA0:
00001AA0  42A7                     clr.l      -[A7]
00001AA2  3F2D EF1C                move.w     -[A7], [A5 - 0x10E4]
00001AA6  2F2E FFF4                move.l     -[A7], [A6 - 0xC]
00001AAA  2F2E FFDA                move.l     -[A7], [A6 - 0x26]
00001AAE  2F2E FFDE                move.l     -[A7], [A6 - 0x22]
00001AB2  2F2E FFE2                move.l     -[A7], [A6 - 0x1E]
00001AB6  4EBA EA3E                jsr        [PC - 0x15C2 /* 000004F6 */]
00001ABA  285F                     movea.l    A4, [A7]+
00001ABC  2F0C                     move.l     -[A7], A4
00001ABE  302D EF18                move.w     D0, [A5 - 0x10E8]
00001AC2  4440                     neg.w      D0
00001AC4  3F00                     move.w     -[A7], D0
00001AC6  302D EF18                move.w     D0, [A5 - 0x10E8]
00001ACA  4440                     neg.w      D0
00001ACC  3F00                     move.w     -[A7], D0
00001ACE  A8CE                     syscall    OffsetPoly
00001AD0  2054                     movea.l    A0, [A4]
00001AD2  43EE FFEC                lea.l      A1, [A6 - 0x14]
00001AD6  5488                     addq.l     A0, 2
00001AD8  22D8                     move.l     [A1]+, [A0]+
00001ADA  22D8                     move.l     [A1]+, [A0]+
00001ADC  486E FFEC                pea.l      [A6 - 0x14]
00001AE0  302D EF1A                move.w     D0, [A5 - 0x10E6]
00001AE4  4440                     neg.w      D0
00001AE6  3F00                     move.w     -[A7], D0
00001AE8  302D EF1A                move.w     D0, [A5 - 0x10E6]
00001AEC  4440                     neg.w      D0
00001AEE  3F00                     move.w     -[A7], D0
00001AF0  A8A9                     syscall    InsetRect
label00001AF2:
00001AF2  102D EF41                move.b     D0, [A5 - 0x10BF]
00001AF6  6700 00C2                beq        +0xC4 /* 00001BBA */
00001AFA  486D D70E                pea.l      [A5 - 0x28F2]
00001AFE  A875                     syscall    SetPBits/SetPortBits
00001B00  4A6D EF1C                tst.w      [A5 - 0x10E4]
00001B04  660C                     bne        +0xE /* 00001B12 */
00001B06  486E FFEC                pea.l      [A6 - 0x14]
00001B0A  486D FE98                pea.l      [A5 - 0x168]
00001B0E  A8BB                     syscall    FillOval
00001B10  6008                     bra        +0xA /* 00001B1A */
label00001B12:
00001B12  2F0C                     move.l     -[A7], A4
00001B14  486D FE98                pea.l      [A5 - 0x168]
00001B18  A8CA                     syscall    FillPoly
label00001B1A:
00001B1A  4EBA 1B66                jsr        [PC + 0x1B66 /* 00003682 */]
00001B1E  486D FE98                pea.l      [A5 - 0x168]
00001B22  A89D                     syscall    PenPat
00001B24  4A6D EF1C                tst.w      [A5 - 0x10E4]
00001B28  6704                     beq        +0x6 /* 00001B2E */
00001B2A  2F0C                     move.l     -[A7], A4
00001B2C  A8C6                     syscall    FramePoly
label00001B2E:
00001B2E  486D D700                pea.l      [A5 - 0x2900]
00001B32  A875                     syscall    SetPBits/SetPortBits
00001B34  102D EF22                move.b     D0, [A5 - 0x10DE]
00001B38  6732                     beq        +0x34 /* 00001B6C */
00001B3A  4A6D EF1C                tst.w      [A5 - 0x10E4]
00001B3E  660C                     bne        +0xE /* 00001B4C */
00001B40  486E FFEC                pea.l      [A6 - 0x14]
00001B44  486D EF44                pea.l      [A5 - 0x10BC]
00001B48  A8BB                     syscall    FillOval
00001B4A  6008                     bra        +0xA /* 00001B54 */
label00001B4C:
00001B4C  2F0C                     move.l     -[A7], A4
00001B4E  486D EF44                pea.l      [A5 - 0x10BC]
00001B52  A8CA                     syscall    FillPoly
label00001B54:
00001B54  4EBA 1B2C                jsr        [PC + 0x1B2C /* 00003682 */]
00001B58  4A6D EF1C                tst.w      [A5 - 0x10E4]
00001B5C  6608                     bne        +0xA /* 00001B66 */
00001B5E  486E FFEC                pea.l      [A6 - 0x14]
00001B62  A8B7                     syscall    FrameOval
00001B64  6052                     bra        +0x54 /* 00001BB8 */
label00001B66:
00001B66  2F0C                     move.l     -[A7], A4
00001B68  A8C6                     syscall    FramePoly
00001B6A  604C                     bra        +0x4E /* 00001BB8 */
label00001B6C:
00001B6C  2F2D D6C4                move.l     -[A7], [A5 - 0x293C]
00001B70  2F2D D6C0                move.l     -[A7], [A5 - 0x2940]
00001B74  486E FFEC                pea.l      [A6 - 0x14]
00001B78  4267                     clr.w      -[A7]
00001B7A  4EAD 1582                jsr        [A5 + 0x1582 /* export_684, CODE:15 @ 000005C0 */]
00001B7E  4267                     clr.w      -[A7]
00001B80  486D EF44                pea.l      [A5 - 0x10BC]
00001B84  486D FE98                pea.l      [A5 - 0x168]
00001B88  4EAD 1C1A                jsr        [A5 + 0x1C1A /* export_895, CODE:17 @ 00000930 */]
00001B8C  101F                     move.b     D0, [A7]+
00001B8E  6628                     bne        +0x2A /* 00001BB8 */
00001B90  486D EF44                pea.l      [A5 - 0x10BC]
00001B94  A89D                     syscall    PenPat
00001B96  3F3C 000F                move.w     -[A7], 0xF
00001B9A  A89C                     syscall    PenMode
00001B9C  486E FFEC                pea.l      [A6 - 0x14]
00001BA0  A8A2                     syscall    PaintRect
00001BA2  4EBA 1ADE                jsr        [PC + 0x1ADE /* 00003682 */]
00001BA6  4A6D EF1C                tst.w      [A5 - 0x10E4]
00001BAA  6608                     bne        +0xA /* 00001BB4 */
00001BAC  486E FFEC                pea.l      [A6 - 0x14]
00001BB0  A8B7                     syscall    FrameOval
00001BB2  6076                     bra        +0x78 /* 00001C2A */
label00001BB4:
00001BB4  2F0C                     move.l     -[A7], A4
00001BB6  A8C6                     syscall    FramePoly
label00001BB8:
00001BB8  6070                     bra        +0x72 /* 00001C2A */
label00001BBA:
00001BBA  486D D70E                pea.l      [A5 - 0x28F2]
00001BBE  A875                     syscall    SetPBits/SetPortBits
00001BC0  4EBA 1AC0                jsr        [PC + 0x1AC0 /* 00003682 */]
00001BC4  486D FE98                pea.l      [A5 - 0x168]
00001BC8  A89D                     syscall    PenPat
00001BCA  4A6D EF1C                tst.w      [A5 - 0x10E4]
00001BCE  6608                     bne        +0xA /* 00001BD8 */
00001BD0  486E FFEC                pea.l      [A6 - 0x14]
00001BD4  A8B7                     syscall    FrameOval
00001BD6  6004                     bra        +0x6 /* 00001BDC */
label00001BD8:
00001BD8  2F0C                     move.l     -[A7], A4
00001BDA  A8C6                     syscall    FramePoly
label00001BDC:
00001BDC  486D D700                pea.l      [A5 - 0x2900]
00001BE0  A875                     syscall    SetPBits/SetPortBits
00001BE2  102D EF22                move.b     D0, [A5 - 0x10DE]
00001BE6  6718                     beq        +0x1A /* 00001C00 */
00001BE8  4EBA 1A98                jsr        [PC + 0x1A98 /* 00003682 */]
00001BEC  4A6D EF1C                tst.w      [A5 - 0x10E4]
00001BF0  6608                     bne        +0xA /* 00001BFA */
00001BF2  486E FFEC                pea.l      [A6 - 0x14]
00001BF6  A8B7                     syscall    FrameOval
00001BF8  6030                     bra        +0x32 /* 00001C2A */
label00001BFA:
00001BFA  2F0C                     move.l     -[A7], A4
00001BFC  A8C6                     syscall    FramePoly
00001BFE  602A                     bra        +0x2C /* 00001C2A */
label00001C00:
00001C00  2F2D D6C4                move.l     -[A7], [A5 - 0x293C]
00001C04  2F2D D6C0                move.l     -[A7], [A5 - 0x2940]
00001C08  486E FFEC                pea.l      [A6 - 0x14]
00001C0C  4267                     clr.w      -[A7]
00001C0E  4EAD 1582                jsr        [A5 + 0x1582 /* export_684, CODE:15 @ 000005C0 */]
00001C12  102D F003                move.b     D0, [A5 - 0xFFD]
00001C16  6712                     beq        +0x14 /* 00001C2A */
00001C18  486D EF44                pea.l      [A5 - 0x10BC]
00001C1C  A89D                     syscall    PenPat
00001C1E  3F3C 000F                move.w     -[A7], 0xF
00001C22  A89C                     syscall    PenMode
00001C24  486E FFEC                pea.l      [A6 - 0x14]
00001C28  A8A2                     syscall    PaintRect
label00001C2A:
00001C2A  486E FFEC                pea.l      [A6 - 0x14]
00001C2E  486D D68E                pea.l      [A5 - 0x2972]
00001C32  4EAD 1CEA                jsr        [A5 + 0x1CEA /* export_921, CODE:17 @ 00001DBA */]
00001C36  486E FFEC                pea.l      [A6 - 0x14]
00001C3A  486E FFEC                pea.l      [A6 - 0x14]
00001C3E  4267                     clr.w      -[A7]
00001C40  4EBA 4764                jsr        [PC + 0x4764 /* 000063A6 */]
00001C44  486E FFEC                pea.l      [A6 - 0x14]
00001C48  486D E2F2                pea.l      [A5 - 0x1D0E]
00001C4C  4EAD 1CEA                jsr        [A5 + 0x1CEA /* export_921, CODE:17 @ 00001DBA */]
00001C50  4EBA F336                jsr        [PC - 0xCCA /* 00000F88 */]
00001C54  4A6D EF1C                tst.w      [A5 - 0x10E4]
00001C58  6704                     beq        +0x6 /* 00001C5E */
00001C5A  2F0C                     move.l     -[A7], A4
00001C5C  A8CD                     syscall    KillPoly
label00001C5E:
00001C5E  2D6E FFFC FFF8           move.l     [A6 - 0x8], [A6 - 0x4]
00001C64  4205                     clr.b      D5
label00001C66:
00001C66  4267                     clr.w      -[A7]
00001C68  4EAD 210A                jsr        [A5 + 0x210A /* export_1053, CODE:20 @ 000016F6 */]
00001C6C  101F                     move.b     D0, [A7]+
00001C6E  0A00 0001                xori.b     D0, 0x1
00001C72  6700 FD34                beq        -0x2CA /* 000019A8 */
00001C76  1B7C 0001 D50E           move.b     [A5 - 0x2AF2], 0x1
00001C7C  486D ED44                pea.l      [A5 - 0x12BC]
00001C80  A875                     syscall    SetPBits/SetPortBits
00001C82  A89E                     syscall    PenNormal
00001C84  4CDF 10E0                movem.l    D5,D6,D7,A4, [A7]+
00001C88  4E5E                     unlink     A6
00001C8A  4E75                     rts
fn00001C8C:
00001C8C  4E56 FFDC                link       A6, -0x0024
00001C90  48E7 0F00                movem.l    -[A7], D4,D5,D6,D7
00001C94  1A2E 0008                move.b     D5, [A6 + 0x8]
00001C98  4EBA 19E8                jsr        [PC + 0x19E8 /* 00003682 */]
00001C9C  486E FFF4                pea.l      [A6 - 0xC]
00001CA0  4EBA 13DA                jsr        [PC + 0x13DA /* 0000307C */]
00001CA4  4EBA E4BC                jsr        [PC - 0x1B44 /* 00000162 */]
00001CA8  2D6E FFF4 FFEC           move.l     [A6 - 0x14], [A6 - 0xC]
00001CAE  2D6E FFF4 FFF0           move.l     [A6 - 0x10], [A6 - 0xC]
00001CB4  2D6E FFF4 FFFC           move.l     [A6 - 0x4], [A6 - 0xC]
00001CBA  7E01                     moveq.l    D7, 0x01
00001CBC  4206                     clr.b      D6
00001CBE  7001                     moveq.l    D0, 0x01
00001CC0  B06D D47C                cmp.w      D0, [A5 - 0x2B84]
00001CC4  57C0                     seq        D0
00001CC6  C02D F017                and.b      D0, [A5 - 0xFE9]
00001CCA  122D F00F                move.b     D1, [A5 - 0xFF1]
00001CCE  0A01 0001                xori.b     D1, 0x1
00001CD2  C001                     and.b      D0, D1
00001CD4  6702                     beq        +0x4 /* 00001CD8 */
00001CD6  4207                     clr.b      D7
label00001CD8:
00001CD8  486E FFF8                pea.l      [A6 - 0x8]
00001CDC  4EBA 139E                jsr        [PC + 0x139E /* 0000307C */]
00001CE0  4267                     clr.w      -[A7]
00001CE2  4EAD 1612                jsr        [A5 + 0x1612 /* export_702, CODE:15 @ 00001296 */]
00001CE6  101F                     move.b     D0, [A7]+
00001CE8  6734                     beq        +0x36 /* 00001D1E */
00001CEA  1006                     move.b     D0, D6
00001CEC  660E                     bne        +0x10 /* 00001CFC */
00001CEE  2D6E FFF8 FFE0           move.l     [A6 - 0x20], [A6 - 0x8]
00001CF4  2D6E FFF4 FFDC           move.l     [A6 - 0x24], [A6 - 0xC]
00001CFA  7C01                     moveq.l    D6, 0x01
label00001CFC:
00001CFC  302E FFFA                move.w     D0, [A6 - 0x6]
00001D00  D06E FFDE                add.w      D0, [A6 - 0x22]
00001D04  906E FFE2                sub.w      D0, [A6 - 0x1E]
00001D08  3D40 FFF6                move.w     [A6 - 0xA], D0
00001D0C  302E FFF8                move.w     D0, [A6 - 0x8]
00001D10  D06E FFDC                add.w      D0, [A6 - 0x24]
00001D14  906E FFE0                sub.w      D0, [A6 - 0x20]
00001D18  3D40 FFF4                move.w     [A6 - 0xC], D0
00001D1C  6002                     bra        +0x4 /* 00001D20 */
label00001D1E:
00001D1E  4206                     clr.b      D6
label00001D20:
00001D20  2F2E FFF4                move.l     -[A7], [A6 - 0xC]
00001D24  486E FFF8                pea.l      [A6 - 0x8]
00001D28  4EBA F4F8                jsr        [PC - 0xB08 /* 00001222 */]
00001D2C  4267                     clr.w      -[A7]
00001D2E  2F2E FFF8                move.l     -[A7], [A6 - 0x8]
00001D32  2F2E FFFC                move.l     -[A7], [A6 - 0x4]
00001D36  3F2D D47C                move.w     -[A7], [A5 - 0x2B84]
00001D3A  4EAD 1A72                jsr        [A5 + 0x1A72 /* export_842, CODE:16 @ 000019A8 */]
00001D3E  101F                     move.b     D0, [A7]+
00001D40  0A00 0001                xori.b     D0, 0x1
00001D44  2207                     move.l     D1, D7
00001D46  8200                     or.b       D1, D0
00001D48  6700 02A4                beq        +0x2A6 /* 00001FEE */
00001D4C  102D EF22                move.b     D0, [A5 - 0x10DE]
00001D50  6608                     bne        +0xA /* 00001D5A */
00001D52  486E FFEC                pea.l      [A6 - 0x14]
00001D56  4EBA 0D60                jsr        [PC + 0xD60 /* 00002AB8 */]
label00001D5A:
00001D5A  102D EF1F                move.b     D0, [A5 - 0x10E1]
00001D5E  674C                     beq        +0x4E /* 00001DAC */
00001D60  302E FFFA                move.w     D0, [A6 - 0x6]
00001D64  906E FFF6                sub.w      D0, [A6 - 0xA]
00001D68  6A02                     bpl        +0x4 /* 00001D6C */
00001D6A  4440                     neg.w      D0
label00001D6C:
00001D6C  3D40 FFE6                move.w     [A6 - 0x1A], D0
00001D70  302E FFF8                move.w     D0, [A6 - 0x8]
00001D74  906E FFF4                sub.w      D0, [A6 - 0xC]
00001D78  6A02                     bpl        +0x4 /* 00001D7C */
00001D7A  4440                     neg.w      D0
label00001D7C:
00001D7C  3800                     move.w     D4, D0
00001D7E  302E FFF6                move.w     D0, [A6 - 0xA]
00001D82  906E FFE6                sub.w      D0, [A6 - 0x1A]
00001D86  3D40 FFEE                move.w     [A6 - 0x12], D0
00001D8A  302E FFF4                move.w     D0, [A6 - 0xC]
00001D8E  9044                     sub.w      D0, D4
00001D90  3D40 FFEC                move.w     [A6 - 0x14], D0
00001D94  302E FFE6                move.w     D0, [A6 - 0x1A]
00001D98  D06E FFF6                add.w      D0, [A6 - 0xA]
00001D9C  3D40 FFF2                move.w     [A6 - 0xE], D0
00001DA0  3004                     move.w     D0, D4
00001DA2  D06E FFF4                add.w      D0, [A6 - 0xC]
00001DA6  3D40 FFF0                move.w     [A6 - 0x10], D0
00001DAA  600E                     bra        +0x10 /* 00001DBA */
label00001DAC:
00001DAC  2F2E FFF4                move.l     -[A7], [A6 - 0xC]
00001DB0  2F2E FFF8                move.l     -[A7], [A6 - 0x8]
00001DB4  486E FFEC                pea.l      [A6 - 0x14]
00001DB8  A8AC                     syscall    Pt2Rect
label00001DBA:
00001DBA  302E FFEE                move.w     D0, [A6 - 0x12]
00001DBE  906D EF18                sub.w      D0, [A5 - 0x10E8]
00001DC2  3D40 FFEE                move.w     [A6 - 0x12], D0
00001DC6  302E FFEC                move.w     D0, [A6 - 0x14]
00001DCA  906D EF18                sub.w      D0, [A5 - 0x10E8]
00001DCE  3D40 FFEC                move.w     [A6 - 0x14], D0
00001DD2  302D EF1A                move.w     D0, [A5 - 0x10E6]
00001DD6  D06E FFF2                add.w      D0, [A6 - 0xE]
00001DDA  906D EF18                sub.w      D0, [A5 - 0x10E8]
00001DDE  3D40 FFF2                move.w     [A6 - 0xE], D0
00001DE2  302D EF1A                move.w     D0, [A5 - 0x10E6]
00001DE6  D06E FFF0                add.w      D0, [A6 - 0x10]
00001DEA  906D EF18                sub.w      D0, [A5 - 0x10E8]
00001DEE  3D40 FFF0                move.w     [A6 - 0x10], D0
00001DF2  102D EF41                move.b     D0, [A5 - 0x10BF]
00001DF6  6700 0120                beq        +0x122 /* 00001F18 */
00001DFA  486D D70E                pea.l      [A5 - 0x28F2]
00001DFE  A875                     syscall    SetPBits/SetPortBits
00001E00  1005                     move.b     D0, D5
00001E02  4880                     ext.w      D0
00001E04  670A                     beq        +0xC /* 00001E10 */
00001E06  5340                     subq.w     D0, 1
00001E08  6712                     beq        +0x14 /* 00001E1C */
00001E0A  5340                     subq.w     D0, 1
00001E0C  6720                     beq        +0x22 /* 00001E2E */
00001E0E  6028                     bra        +0x2A /* 00001E38 */
label00001E10:
00001E10  486E FFEC                pea.l      [A6 - 0x14]
00001E14  486D FE98                pea.l      [A5 - 0x168]
00001E18  A8A5                     syscall    FillRect
00001E1A  601C                     bra        +0x1E /* 00001E38 */
label00001E1C:
00001E1C  486E FFEC                pea.l      [A6 - 0x14]
00001E20  2F3C 0012 0012           move.l     -[A7], 0x120012
00001E26  486D FE98                pea.l      [A5 - 0x168]
00001E2A  A8B4                     syscall    FillRoundRect
00001E2C  600A                     bra        +0xC /* 00001E38 */
label00001E2E:
00001E2E  486E FFEC                pea.l      [A6 - 0x14]
00001E32  486D FE98                pea.l      [A5 - 0x168]
00001E36  A8BB                     syscall    FillOval
label00001E38:
00001E38  486D D700                pea.l      [A5 - 0x2900]
00001E3C  A875                     syscall    SetPBits/SetPortBits
00001E3E  102D EF22                move.b     D0, [A5 - 0x10DE]
00001E42  676A                     beq        +0x6C /* 00001EAE */
00001E44  1005                     move.b     D0, D5
00001E46  4880                     ext.w      D0
00001E48  670A                     beq        +0xC /* 00001E54 */
00001E4A  5340                     subq.w     D0, 1
00001E4C  6712                     beq        +0x14 /* 00001E60 */
00001E4E  5340                     subq.w     D0, 1
00001E50  6720                     beq        +0x22 /* 00001E72 */
00001E52  6028                     bra        +0x2A /* 00001E7C */
label00001E54:
00001E54  486E FFEC                pea.l      [A6 - 0x14]
00001E58  486D EF44                pea.l      [A5 - 0x10BC]
00001E5C  A8A5                     syscall    FillRect
00001E5E  601C                     bra        +0x1E /* 00001E7C */
label00001E60:
00001E60  486E FFEC                pea.l      [A6 - 0x14]
00001E64  2F3C 0012 0012           move.l     -[A7], 0x120012
00001E6A  486D EF44                pea.l      [A5 - 0x10BC]
00001E6E  A8B4                     syscall    FillRoundRect
00001E70  600A                     bra        +0xC /* 00001E7C */
label00001E72:
00001E72  486E FFEC                pea.l      [A6 - 0x14]
00001E76  486D EF44                pea.l      [A5 - 0x10BC]
00001E7A  A8BB                     syscall    FillOval
label00001E7C:
00001E7C  4EBA 1804                jsr        [PC + 0x1804 /* 00003682 */]
00001E80  1005                     move.b     D0, D5
00001E82  4880                     ext.w      D0
00001E84  670A                     beq        +0xC /* 00001E90 */
00001E86  5340                     subq.w     D0, 1
00001E88  670E                     beq        +0x10 /* 00001E98 */
00001E8A  5340                     subq.w     D0, 1
00001E8C  6718                     beq        +0x1A /* 00001EA6 */
00001E8E  601C                     bra        +0x1E /* 00001EAC */
label00001E90:
00001E90  486E FFEC                pea.l      [A6 - 0x14]
00001E94  A8A1                     syscall    FrameRect
00001E96  607C                     bra        +0x7E /* 00001F14 */
label00001E98:
00001E98  486E FFEC                pea.l      [A6 - 0x14]
00001E9C  2F3C 0012 0012           move.l     -[A7], 0x120012
00001EA2  A8B0                     syscall    FrameRoundRect
00001EA4  606E                     bra        +0x70 /* 00001F14 */
label00001EA6:
00001EA6  486E FFEC                pea.l      [A6 - 0x14]
00001EAA  A8B7                     syscall    FrameOval
label00001EAC:
00001EAC  6066                     bra        +0x68 /* 00001F14 */
label00001EAE:
00001EAE  2F2D D6C4                move.l     -[A7], [A5 - 0x293C]
00001EB2  2F2D D6C0                move.l     -[A7], [A5 - 0x2940]
00001EB6  486E FFEC                pea.l      [A6 - 0x14]
00001EBA  4267                     clr.w      -[A7]
00001EBC  4EAD 1582                jsr        [A5 + 0x1582 /* export_684, CODE:15 @ 000005C0 */]
00001EC0  4267                     clr.w      -[A7]
00001EC2  486D EF44                pea.l      [A5 - 0x10BC]
00001EC6  486D FE98                pea.l      [A5 - 0x168]
00001ECA  4EAD 1C1A                jsr        [A5 + 0x1C1A /* export_895, CODE:17 @ 00000930 */]
00001ECE  101F                     move.b     D0, [A7]+
00001ED0  6642                     bne        +0x44 /* 00001F14 */
00001ED2  486D EF44                pea.l      [A5 - 0x10BC]
00001ED6  A89D                     syscall    PenPat
00001ED8  3F3C 000F                move.w     -[A7], 0xF
00001EDC  A89C                     syscall    PenMode
00001EDE  486E FFEC                pea.l      [A6 - 0x14]
00001EE2  A8A2                     syscall    PaintRect
00001EE4  4EBA 179C                jsr        [PC + 0x179C /* 00003682 */]
00001EE8  1005                     move.b     D0, D5
00001EEA  4880                     ext.w      D0
00001EEC  670A                     beq        +0xC /* 00001EF8 */
00001EEE  5340                     subq.w     D0, 1
00001EF0  670E                     beq        +0x10 /* 00001F00 */
00001EF2  5340                     subq.w     D0, 1
00001EF4  6718                     beq        +0x1A /* 00001F0E */
00001EF6  601C                     bra        +0x1E /* 00001F14 */
label00001EF8:
00001EF8  486E FFEC                pea.l      [A6 - 0x14]
00001EFC  A8A1                     syscall    FrameRect
00001EFE  6014                     bra        +0x16 /* 00001F14 */
label00001F00:
00001F00  486E FFEC                pea.l      [A6 - 0x14]
00001F04  2F3C 0012 0012           move.l     -[A7], 0x120012
00001F0A  A8B0                     syscall    FrameRoundRect
00001F0C  6006                     bra        +0x8 /* 00001F14 */
label00001F0E:
00001F0E  486E FFEC                pea.l      [A6 - 0x14]
00001F12  A8B7                     syscall    FrameOval
label00001F14:
00001F14  6000 00A6                bra        +0xA8 /* 00001FBC */
label00001F18:
00001F18  486D D70E                pea.l      [A5 - 0x28F2]
00001F1C  A875                     syscall    SetPBits/SetPortBits
00001F1E  4EBA 1762                jsr        [PC + 0x1762 /* 00003682 */]
00001F22  486D FE98                pea.l      [A5 - 0x168]
00001F26  A89D                     syscall    PenPat
00001F28  1005                     move.b     D0, D5
00001F2A  4880                     ext.w      D0
00001F2C  670A                     beq        +0xC /* 00001F38 */
00001F2E  5340                     subq.w     D0, 1
00001F30  670E                     beq        +0x10 /* 00001F40 */
00001F32  5340                     subq.w     D0, 1
00001F34  6718                     beq        +0x1A /* 00001F4E */
00001F36  601C                     bra        +0x1E /* 00001F54 */
label00001F38:
00001F38  486E FFEC                pea.l      [A6 - 0x14]
00001F3C  A8A1                     syscall    FrameRect
00001F3E  6014                     bra        +0x16 /* 00001F54 */
label00001F40:
00001F40  486E FFEC                pea.l      [A6 - 0x14]
00001F44  2F3C 0012 0012           move.l     -[A7], 0x120012
00001F4A  A8B0                     syscall    FrameRoundRect
00001F4C  6006                     bra        +0x8 /* 00001F54 */
label00001F4E:
00001F4E  486E FFEC                pea.l      [A6 - 0x14]
00001F52  A8B7                     syscall    FrameOval
label00001F54:
00001F54  486D D700                pea.l      [A5 - 0x2900]
00001F58  A875                     syscall    SetPBits/SetPortBits
00001F5A  102D EF22                move.b     D0, [A5 - 0x10DE]
00001F5E  6732                     beq        +0x34 /* 00001F92 */
00001F60  4EBA 1720                jsr        [PC + 0x1720 /* 00003682 */]
00001F64  1005                     move.b     D0, D5
00001F66  4880                     ext.w      D0
00001F68  670A                     beq        +0xC /* 00001F74 */
00001F6A  5340                     subq.w     D0, 1
00001F6C  670E                     beq        +0x10 /* 00001F7C */
00001F6E  5340                     subq.w     D0, 1
00001F70  6718                     beq        +0x1A /* 00001F8A */
00001F72  6048                     bra        +0x4A /* 00001FBC */
label00001F74:
00001F74  486E FFEC                pea.l      [A6 - 0x14]
00001F78  A8A1                     syscall    FrameRect
00001F7A  6040                     bra        +0x42 /* 00001FBC */
label00001F7C:
00001F7C  486E FFEC                pea.l      [A6 - 0x14]
00001F80  2F3C 0012 0012           move.l     -[A7], 0x120012
00001F86  A8B0                     syscall    FrameRoundRect
00001F88  6032                     bra        +0x34 /* 00001FBC */
label00001F8A:
00001F8A  486E FFEC                pea.l      [A6 - 0x14]
00001F8E  A8B7                     syscall    FrameOval
00001F90  602A                     bra        +0x2C /* 00001FBC */
label00001F92:
00001F92  2F2D D6C4                move.l     -[A7], [A5 - 0x293C]
00001F96  2F2D D6C0                move.l     -[A7], [A5 - 0x2940]
00001F9A  486E FFEC                pea.l      [A6 - 0x14]
00001F9E  4267                     clr.w      -[A7]
00001FA0  4EAD 1582                jsr        [A5 + 0x1582 /* export_684, CODE:15 @ 000005C0 */]
00001FA4  102D F003                move.b     D0, [A5 - 0xFFD]
00001FA8  6712                     beq        +0x14 /* 00001FBC */
00001FAA  486D EF44                pea.l      [A5 - 0x10BC]
00001FAE  A89D                     syscall    PenPat
00001FB0  3F3C 000F                move.w     -[A7], 0xF
00001FB4  A89C                     syscall    PenMode
00001FB6  486E FFEC                pea.l      [A6 - 0x14]
00001FBA  A8A2                     syscall    PaintRect
label00001FBC:
00001FBC  486E FFEC                pea.l      [A6 - 0x14]
00001FC0  486D D68E                pea.l      [A5 - 0x2972]
00001FC4  4EAD 1CEA                jsr        [A5 + 0x1CEA /* export_921, CODE:17 @ 00001DBA */]
00001FC8  486E FFEC                pea.l      [A6 - 0x14]
00001FCC  486E FFEC                pea.l      [A6 - 0x14]
00001FD0  4267                     clr.w      -[A7]
00001FD2  4EBA 43D2                jsr        [PC + 0x43D2 /* 000063A6 */]
00001FD6  486E FFEC                pea.l      [A6 - 0x14]
00001FDA  486D E2F2                pea.l      [A5 - 0x1D0E]
00001FDE  4EAD 1CEA                jsr        [A5 + 0x1CEA /* export_921, CODE:17 @ 00001DBA */]
00001FE2  4EBA EFA4                jsr        [PC - 0x105C /* 00000F88 */]
00001FE6  2D6E FFF8 FFFC           move.l     [A6 - 0x4], [A6 - 0x8]
00001FEC  4207                     clr.b      D7
label00001FEE:
00001FEE  4267                     clr.w      -[A7]
00001FF0  4EAD 210A                jsr        [A5 + 0x210A /* export_1053, CODE:20 @ 000016F6 */]
00001FF4  101F                     move.b     D0, [A7]+
00001FF6  0A00 0001                xori.b     D0, 0x1
00001FFA  6700 FCDC                beq        -0x322 /* 00001CD8 */
00001FFE  1B7C 0001 D50E           move.b     [A5 - 0x2AF2], 0x1
00002004  486D ED44                pea.l      [A5 - 0x12BC]
00002008  A875                     syscall    SetPBits/SetPortBits
0000200A  A89E                     syscall    PenNormal
0000200C  4CDF 00F0                movem.l    D4,D5,D6,D7, [A7]+
00002010  4E5E                     unlink     A6
00002012  205F                     movea.l    A0, [A7]+
00002014  544F                     addq.w     A7, 2
00002016  4ED0                     jmp        [A0]
fn00002018:
00002018  4E56 FFE6                link       A6, -0x001A
0000201C  48E7 0708                movem.l    -[A7], D5,D6,D7,A4
00002020  1A2E 0008                move.b     D5, [A6 + 0x8]
00002024  102D EDAB                move.b     D0, [A5 - 0x1255]
00002028  674C                     beq        +0x4E /* 00002076 */
0000202A  206D EDAC                movea.l    A0, [A5 - 0x1254]
0000202E  2050                     movea.l    A0, [A0]
00002030  226D EDAC                movea.l    A1, [A5 - 0x1254]
00002034  2251                     movea.l    A1, [A1]
00002036  3028 0020                move.w     D0, [A0 + 0x20]
0000203A  B069 0022                cmp.w      D0, [A1 + 0x22]
0000203E  6D08                     blt        +0xA /* 00002048 */
00002040  4EAD 1812                jsr        [A5 + 0x1812 /* export_766, CODE:16 @ 00000208 */]
00002044  6000 0156                bra        +0x158 /* 0000219C */
label00002048:
00002048  1005                     move.b     D0, D5
0000204A  6708                     beq        +0xA /* 00002054 */
0000204C  2F2D EDAC                move.l     -[A7], [A5 - 0x1254]
00002050  A9D6                     syscall    TECut
00002052  6006                     bra        +0x8 /* 0000205A */
label00002054:
00002054  2F2D EDAC                move.l     -[A7], [A5 - 0x1254]
00002058  A9D5                     syscall    TECopy
label0000205A:
0000205A  42A7                     clr.l      -[A7]
0000205C  A9FC                     syscall    ZeroScrap
0000205E  2E1F                     move.l     D7, [A7]+
00002060  42A7                     clr.l      -[A7]
00002062  A9FB                     syscall    LoadScrap/LodeScrap
00002064  2E1F                     move.l     D7, [A7]+
00002066  4267                     clr.w      -[A7]
00002068  4EAD 047A                jsr        [A5 + 0x47A /* export_139, CODE:1 @ 00004E1C */]
0000206C  301F                     move.w     D0, [A7]+
0000206E  48C0                     ext.l      D0
00002070  2E00                     move.l     D7, D0
00002072  6000 0128                bra        +0x12A /* 0000219C */
label00002076:
00002076  102D D50E                move.b     D0, [A5 - 0x2AF2]
0000207A  6704                     beq        +0x6 /* 00002080 */
0000207C  4EBA 3CE4                jsr        [PC + 0x3CE4 /* 00005D62 */]
label00002080:
00002080  102D D50D                move.b     D0, [A5 - 0x2AF3]
00002084  802D D509                or.b       D0, [A5 - 0x2AF7]
00002088  660C                     bne        +0xE /* 00002096 */
0000208A  3F3C 0004                move.w     -[A7], 0x4
0000208E  4EAD 187A                jsr        [A5 + 0x187A /* export_779, CODE:16 @ 00000500 */]
00002092  6000 0108                bra        +0x10A /* 0000219C */
label00002096:
00002096  4EBA EC0A                jsr        [PC - 0x13F6 /* 00000CA2 */]
0000209A  41EE FFEE                lea.l      A0, [A6 - 0x12]
0000209E  43ED ED82                lea.l      A1, [A5 - 0x127E]
000020A2  20D9                     move.l     [A0]+, [A1]+
000020A4  20D9                     move.l     [A0]+, [A1]+
000020A6  2F2D ECD4                move.l     -[A7], [A5 - 0x132C]
000020AA  486E FFEE                pea.l      [A6 - 0x12]
000020AE  4EAD 153A                jsr        [A5 + 0x153A /* export_675, CODE:14 @ 00000C62 */]
000020B2  41EE FFE6                lea.l      A0, [A6 - 0x1A]
000020B6  43ED ED82                lea.l      A1, [A5 - 0x127E]
000020BA  20D9                     move.l     [A0]+, [A1]+
000020BC  20D9                     move.l     [A0]+, [A1]+
000020BE  2F2D ECD0                move.l     -[A7], [A5 - 0x1330]
000020C2  486E FFE6                pea.l      [A6 - 0x1A]
000020C6  4EAD 153A                jsr        [A5 + 0x153A /* export_675, CODE:14 @ 00000C62 */]
000020CA  4267                     clr.w      -[A7]
000020CC  486E FFEE                pea.l      [A6 - 0x12]
000020D0  A8AE                     syscall    EmptyRect
000020D2  4267                     clr.w      -[A7]
000020D4  486E FFE6                pea.l      [A6 - 0x1A]
000020D8  A8AE                     syscall    EmptyRect
000020DA  101F                     move.b     D0, [A7]+
000020DC  C01F                     and.b      D0, [A7]+
000020DE  670C                     beq        +0xE /* 000020EC */
000020E0  3F3C 001F                move.w     -[A7], 0x1F
000020E4  4EAD 187A                jsr        [A5 + 0x187A /* export_779, CODE:16 @ 00000500 */]
000020E8  6000 00B2                bra        +0xB4 /* 0000219C */
label000020EC:
000020EC  1C2D E2E3                move.b     D6, [A5 - 0x1D1D]
000020F0  1005                     move.b     D0, D5
000020F2  0A00 0001                xori.b     D0, 0x1
000020F6  1B40 D47A                move.b     [A5 - 0x2B86], D0
000020FA  4267                     clr.w      -[A7]
000020FC  4EBA DFEC                jsr        [PC - 0x2014 /* 000000EA */]
00002100  101F                     move.b     D0, [A7]+
00002102  6700 0094                beq        +0x96 /* 00002198 */
00002106  42A7                     clr.l      -[A7]
00002108  A9FC                     syscall    ZeroScrap
0000210A  2E1F                     move.l     D7, [A7]+
0000210C  42A7                     clr.l      -[A7]
0000210E  A9FB                     syscall    LoadScrap/LodeScrap
00002110  2E1F                     move.l     D7, [A7]+
00002112  486D D700                pea.l      [A5 - 0x2900]
00002116  A875                     syscall    SetPBits/SetPortBits
00002118  42A7                     clr.l      -[A7]
0000211A  486D D500                pea.l      [A5 - 0x2B00]
0000211E  A8F3                     syscall    OpenPicture
00002120  285F                     movea.l    A4, [A7]+
00002122  102D D50D                move.b     D0, [A5 - 0x2AF3]
00002126  670A                     beq        +0xC /* 00002132 */
00002128  2F3C 0000 3039           move.l     -[A7], 0x3039 /* '09' */
0000212E  42A7                     clr.l      -[A7]
00002130  A8F2                     syscall    PicComment
label00002132:
00002132  486D ED82                pea.l      [A5 - 0x127E]
00002136  A87B                     syscall    ClipRect
00002138  486D D700                pea.l      [A5 - 0x2900]
0000213C  486D D700                pea.l      [A5 - 0x2900]
00002140  486D D500                pea.l      [A5 - 0x2B00]
00002144  486D D500                pea.l      [A5 - 0x2B00]
00002148  4267                     clr.w      -[A7]
0000214A  42A7                     clr.l      -[A7]
0000214C  A8EC                     syscall    CopyBits
0000214E  A8F4                     syscall    ClosePicture
00002150  2F0C                     move.l     -[A7], A4
00002152  4EAD 0222                jsr        [A5 + 0x222 /* export_64, CODE:1 @ 00004678 */]
00002156  42A7                     clr.l      -[A7]
00002158  2054                     movea.l    A0, [A4]
0000215A  3010                     move.w     D0, [A0]
0000215C  48C0                     ext.l      D0
0000215E  2F00                     move.l     -[A7], D0
00002160  2F3A 0046                move.l     -[A7], [PC + 0x46 /* 000021A8, value 0x50494354 'PICT', cstring "PICTNV" */]
00002164  2F14                     move.l     -[A7], [A4]
00002166  4EAD 20EA                jsr        [A5 + 0x20EA /* export_1049, CODE:20 @ 0000151C */]
0000216A  2E1F                     move.l     D7, [A7]+
0000216C  2F0C                     move.l     -[A7], A4
0000216E  4EAD 022A                jsr        [A5 + 0x22A /* export_65, CODE:1 @ 00004682 */]
00002172  4A87                     tst.l      D7
00002174  6708                     beq        +0xA /* 0000217E */
00002176  3F3C 0020                move.w     -[A7], 0x20 /* ' ' */
0000217A  4EAD 187A                jsr        [A5 + 0x187A /* export_779, CODE:16 @ 00000500 */]
label0000217E:
0000217E  2F0C                     move.l     -[A7], A4
00002180  A8F5                     syscall    KillPicture
00002182  4EBA 0904                jsr        [PC + 0x904 /* 00002A88 */]
00002186  1B46 E2E3                move.b     [A5 - 0x1D1D], D6
0000218A  4A87                     tst.l      D7
0000218C  57C0                     seq        D0
0000218E  2205                     move.l     D1, D5
00002190  C200                     and.b      D1, D0
00002192  6704                     beq        +0x6 /* 00002198 */
00002194  4EBA EC80                jsr        [PC - 0x1380 /* 00000E16 */]
label00002198:
00002198  422D D47A                clr.b      [A5 - 0x2B86]
label0000219C:
0000219C  4CDF 10E0                movem.l    D5,D6,D7,A4, [A7]+
000021A0  4E5E                     unlink     A6
000021A2  205F                     movea.l    A0, [A7]+
000021A4  544F                     addq.w     A7, 2
000021A6  4ED0                     jmp        [A0]
000021A8  5049                     addq.w     A1, 8
000021AA  4354                     chk.w      D1, [A4]
fn000021AC:
000021AC  4E56 0000                link       A6, 0
000021B0  102D EF4F                move.b     D0, [A5 - 0x10B1]
000021B4  802D F003                or.b       D0, [A5 - 0xFFD]
000021B8  6608                     bne        +0xA /* 000021C2 */
000021BA  4EAD 1812                jsr        [A5 + 0x1812 /* export_766, CODE:16 @ 00000208 */]
000021BE  6000 01C4                bra        +0x1C6 /* 00002384 */
label000021C2:
000021C2  7031                     moveq.l    D0, 0x31
000021C4  B06D F00C                cmp.w      D0, [A5 - 0xFF4]
000021C8  5FC0                     sle        D0
000021CA  7238                     moveq.l    D1, 0x38
000021CC  B26D F00C                cmp.w      D1, [A5 - 0xFF4]
000021D0  5CC1                     sge        D1
000021D2  C001                     and.b      D0, D1
000021D4  6716                     beq        +0x18 /* 000021EC */
000021D6  302D F00C                move.w     D0, [A5 - 0xFF4]
000021DA  907C 0030                sub.w      D0, 0x30 /* '0' */
000021DE  3F00                     move.w     -[A7], D0
000021E0  4EBA 3D3C                jsr        [PC + 0x3D3C /* 00005F1E */]
000021E4  4EAD 220A                jsr        [A5 + 0x220A /* export_1085, CODE:20 @ 000048DE */]
000021E8  6000 019A                bra        +0x19C /* 00002384 */
label000021EC:
000021EC  302D F008                move.w     D0, [A5 - 0xFF8]
000021F0  0440 0014                subi.w     D0, 0x14
000021F4  6B00 018A                bmi        +0x18C /* 00002380 */
000021F8  0C40 0020                cmpi.w     D0, 0x20 /* ' ' */
000021FC  6E00 0182                bgt        +0x184 /* 00002380 */
00002200  D040                     add.w      D0, D0
00002202  303B 0006                move.w     D0, [PC + D0.w + 0x6]
00002206  4EFB 0000                jmp        [PC + D0.w]
0000220A  0044 004C                ori.w      D4, 0x4C /* 'L' */
0000220E  005C 0066                ori.w      [A4]+, 0x66 /* 'f' */
00002212  0072 007A 0086           ori.w      [A2 + D0.w - 0x7A], 0x7A /* 'z' */
00002218  008E 0096 009E           ori.l      A6, 0x96009E
0000221E  00A8 00B2 00BA 00C2      ori.l      [A0 + 0xC2], 0xB200BA
00002226  00CA                     .incomplete
00002228  00D2                     .incomplete
0000222A  00DA                     .incomplete
0000222C  00E2                     .incomplete
0000222E  00F2                     .incomplete
00002230  00FC                     .incomplete
00002232  0172 0106 010E           bchg       [[A2 + <<invalid base displacement size>>] + D0 + 0x10E], D0
00002238  0116                     btst       [A6], D0
0000223A  011E                     btst       [A6]+, D0
0000223C  0126                     btst       -[A6], D0
0000223E  012E 0136                btst       [A6 + 0x136], D0
00002242  013E                     btst       <<invalid special address>>, D0
00002244  0146                     bchg       D6, D0
00002246  015E                     bchg       [A6]+, D0
00002248  014E                     bchg       A6, D0
0000224A  0168 4EBA                bchg       [A0 + 0x4EBA], D0
0000224E  3A38 6000                move.w     D5, [0x00006000]
00002252  0132 3F3C                btst       <<invalid full ext with I/IS == 4>>, D0
00002256  000C 1F3C                ori.b      A4, 0x3C /* '<' */
0000225A  0001 4EAD                ori.b      D1, 0xAD
0000225E  15E2 6000                move.b     [PC + 0x6000 /* 00008260 */], -[A2]
00002262  0122                     btst       -[A2], D0
00002264  0A2D 0001 EF1F           xori.b     [A5 - 0x10E1], 0x1
0000226A  6000 0118                bra        +0x11A /* 00002384 */
0000226E  1F3C 0001                move.b     -[A7], 0x1
00002272  4EBA 40F0                jsr        [PC + 0x40F0 /* 00006364 */]
00002276  6000 010C                bra        +0x10E /* 00002384 */
0000227A  4EBA 480A                jsr        [PC + 0x480A /* 00006A86 */]
0000227E  6000 0104                bra        +0x106 /* 00002384 */
00002282  486D EF44                pea.l      [A5 - 0x10BC]
00002286  4EBA 0B78                jsr        [PC + 0xB78 /* 00002E00 */]
0000228A  6000 00F8                bra        +0xFA /* 00002384 */
0000228E  4EBA 46F6                jsr        [PC + 0x46F6 /* 00006986 */]
00002292  6000 00F0                bra        +0xF2 /* 00002384 */
00002296  4EBA 0BEC                jsr        [PC + 0xBEC /* 00002E84 */]
0000229A  6000 00E8                bra        +0xEA /* 00002384 */
0000229E  4EBA 13A0                jsr        [PC + 0x13A0 /* 00003640 */]
000022A2  6000 00E0                bra        +0xE2 /* 00002384 */
000022A6  4267                     clr.w      -[A7]
000022A8  4EBA 40BA                jsr        [PC + 0x40BA /* 00006364 */]
000022AC  6000 00D6                bra        +0xD8 /* 00002384 */
000022B0  0A2D 0001 EF22           xori.b     [A5 - 0x10DE], 0x1
000022B6  6000 00CC                bra        +0xCE /* 00002384 */
000022BA  4EBA 1AD8                jsr        [PC + 0x1AD8 /* 00003D94 */]
000022BE  6000 00C4                bra        +0xC6 /* 00002384 */
000022C2  4EBA 3074                jsr        [PC + 0x3074 /* 00005338 */]
000022C6  6000 00BC                bra        +0xBE /* 00002384 */
000022CA  4EBA 3464                jsr        [PC + 0x3464 /* 00005730 */]
000022CE  6000 00B4                bra        +0xB6 /* 00002384 */
000022D2  4EBA 3B24                jsr        [PC + 0x3B24 /* 00005DF8 */]
000022D6  6000 00AC                bra        +0xAE /* 00002384 */
000022DA  4EBA 4A96                jsr        [PC + 0x4A96 /* 00006D72 */]
000022DE  6000 00A4                bra        +0xA6 /* 00002384 */
000022E2  4EBA 0C78                jsr        [PC + 0xC78 /* 00002F5C */]
000022E6  6000 009C                bra        +0x9E /* 00002384 */
000022EA  3F3C 0001                move.w     -[A7], 0x1
000022EE  1F3C 0001                move.b     -[A7], 0x1
000022F2  4EAD 15E2                jsr        [A5 + 0x15E2 /* export_696, CODE:15 @ 00000D72 */]
000022F6  6000 008C                bra        +0x8E /* 00002384 */
000022FA  4267                     clr.w      -[A7]
000022FC  4EBA 351A                jsr        [PC + 0x351A /* 00005818 */]
00002300  6000 0082                bra        +0x84 /* 00002384 */
00002304  1F3C 0001                move.b     -[A7], 0x1
00002308  4EBA 350E                jsr        [PC + 0x350E /* 00005818 */]
0000230C  6076                     bra        +0x78 /* 00002384 */
0000230E  3B7C 0001 EF20           move.w     [A5 - 0x10E0], 0x1
00002314  606E                     bra        +0x70 /* 00002384 */
00002316  3B7C 0002 EF20           move.w     [A5 - 0x10E0], 0x2
0000231C  6066                     bra        +0x68 /* 00002384 */
0000231E  3B7C 0003 EF20           move.w     [A5 - 0x10E0], 0x3
00002324  605E                     bra        +0x60 /* 00002384 */
00002326  3B7C 0004 EF20           move.w     [A5 - 0x10E0], 0x4
0000232C  6056                     bra        +0x58 /* 00002384 */
0000232E  3B7C 0006 EF20           move.w     [A5 - 0x10E0], 0x6
00002334  604E                     bra        +0x50 /* 00002384 */
00002336  3B7C 0008 EF20           move.w     [A5 - 0x10E0], 0x8
0000233C  6046                     bra        +0x48 /* 00002384 */
0000233E  3B7C 000C EF20           move.w     [A5 - 0x10E0], 0xC
00002344  603E                     bra        +0x40 /* 00002384 */
00002346  3B7C 0010 EF20           move.w     [A5 - 0x10E0], 0x10
0000234C  6036                     bra        +0x38 /* 00002384 */
0000234E  3B7C 0018 EF20           move.w     [A5 - 0x10E0], 0x18
00002354  602E                     bra        +0x30 /* 00002384 */
00002356  102D EFDF                move.b     D0, [A5 - 0x1021]
0000235A  6608                     bne        +0xA /* 00002364 */
0000235C  486D ED36                pea.l      [A5 - 0x12CA]
00002360  4EBA 2E7C                jsr        [PC + 0x2E7C /* 000051DE */]
label00002364:
00002364  601E                     bra        +0x20 /* 00002384 */
00002366  486D ECFE                pea.l      [A5 - 0x1302]
0000236A  4EBA 2E72                jsr        [PC + 0x2E72 /* 000051DE */]
0000236E  6014                     bra        +0x16 /* 00002384 */
00002370  486D ED0C                pea.l      [A5 - 0x12F4]
00002374  4EBA 2E68                jsr        [PC + 0x2E68 /* 000051DE */]
00002378  600A                     bra        +0xC /* 00002384 */
0000237A  4EBA 4520                jsr        [PC + 0x4520 /* 0000689C */]
0000237E  6004                     bra        +0x6 /* 00002384 */
label00002380:
00002380  4EAD 1812                jsr        [A5 + 0x1812 /* export_766, CODE:16 @ 00000208 */]
label00002384:
00002384  4E5E                     unlink     A6
00002386  4E75                     rts
fn00002388:
00002388  4E56 0000                link       A6, 0
0000238C  2F0C                     move.l     -[A7], A4
0000238E  286E 0008                movea.l    A4, [A6 + 0x8]
00002392  41EC FFDC                lea.l      A0, [A4 - 0x24]
00002396  43EC FFD4                lea.l      A1, [A4 - 0x2C]
0000239A  20D9                     move.l     [A0]+, [A1]+
0000239C  20D9                     move.l     [A0]+, [A1]+
0000239E  102C FFB2                move.b     D0, [A4 - 0x4E]
000023A2  676E                     beq        +0x70 /* 00002412 */
000023A4  296C FFEC FFF8           move.l     [A4 - 0x8], [A4 - 0x14]
000023AA  2F2C FFFC                move.l     -[A7], [A4 - 0x4]
000023AE  486C FFF8                pea.l      [A4 - 0x8]
000023B2  4EBA EE6E                jsr        [PC - 0x1192 /* 00001222 */]
000023B6  2F2C FFFC                move.l     -[A7], [A4 - 0x4]
000023BA  486C FFF4                pea.l      [A4 - 0xC]
000023BE  4EBA EE62                jsr        [PC - 0x119E /* 00001222 */]
000023C2  2F2C FFFC                move.l     -[A7], [A4 - 0x4]
000023C6  2F2C FFF8                move.l     -[A7], [A4 - 0x8]
000023CA  486C FFB6                pea.l      [A4 - 0x4A]
000023CE  A8AC                     syscall    Pt2Rect
000023D0  2F2C FFFC                move.l     -[A7], [A4 - 0x4]
000023D4  2F2C FFF4                move.l     -[A7], [A4 - 0xC]
000023D8  486C FFBE                pea.l      [A4 - 0x42]
000023DC  A8AC                     syscall    Pt2Rect
000023DE  102C FFC6                move.b     D0, [A4 - 0x3A]
000023E2  670C                     beq        +0xE /* 000023F0 */
000023E4  396C FFB8 FFC0           move.w     [A4 - 0x40], [A4 - 0x48]
000023EA  396C FFBC FFC4           move.w     [A4 - 0x3C], [A4 - 0x44]
label000023F0:
000023F0  102C FFC7                move.b     D0, [A4 - 0x39]
000023F4  670C                     beq        +0xE /* 00002402 */
000023F6  396C FFB6 FFBE           move.w     [A4 - 0x42], [A4 - 0x4A]
000023FC  396C FFBA FFC2           move.w     [A4 - 0x3E], [A4 - 0x46]
label00002402:
00002402  486C FFDC                pea.l      [A4 - 0x24]
00002406  486C FFB6                pea.l      [A4 - 0x4A]
0000240A  486C FFBE                pea.l      [A4 - 0x42]
0000240E  A8FA                     syscall    MapRect
00002410  606C                     bra        +0x6E /* 0000247E */
label00002412:
00002412  4267                     clr.w      -[A7]
00002414  302C FFF6                move.w     D0, [A4 - 0xA]
00002418  906C FFEE                sub.w      D0, [A4 - 0x12]
0000241C  3F00                     move.w     -[A7], D0
0000241E  3F2C FFCC                move.w     -[A7], [A4 - 0x34]
00002422  3F2C FFCE                move.w     -[A7], [A4 - 0x32]
00002426  4EAD 1A8A                jsr        [A5 + 0x1A8A /* export_845, CODE:16 @ 000019F8 */]
0000242A  395F FFC8                move.w     [A4 - 0x38], [A7]+
0000242E  4267                     clr.w      -[A7]
00002430  302C FFF4                move.w     D0, [A4 - 0xC]
00002434  906C FFEC                sub.w      D0, [A4 - 0x14]
00002438  3F00                     move.w     -[A7], D0
0000243A  3F2C FFD0                move.w     -[A7], [A4 - 0x30]
0000243E  3F2C FFD2                move.w     -[A7], [A4 - 0x2E]
00002442  4EAD 1A8A                jsr        [A5 + 0x1A8A /* export_845, CODE:16 @ 000019F8 */]
00002446  395F FFCA                move.w     [A4 - 0x36], [A7]+
0000244A  102D EFD9                move.b     D0, [A5 - 0x1027]
0000244E  C02D EF23                and.b      D0, [A5 - 0x10DD]
00002452  671C                     beq        +0x1E /* 00002470 */
00002454  4267                     clr.w      -[A7]
00002456  3F2C FFC8                move.w     -[A7], [A4 - 0x38]
0000245A  4EAD 1B22                jsr        [A5 + 0x1B22 /* export_864, CODE:16 @ 00001E04 */]
0000245E  395F FFC8                move.w     [A4 - 0x38], [A7]+
00002462  4267                     clr.w      -[A7]
00002464  3F2C FFCA                move.w     -[A7], [A4 - 0x36]
00002468  4EAD 1B22                jsr        [A5 + 0x1B22 /* export_864, CODE:16 @ 00001E04 */]
0000246C  395F FFCA                move.w     [A4 - 0x36], [A7]+
label00002470:
00002470  486C FFDC                pea.l      [A4 - 0x24]
00002474  3F2C FFC8                move.w     -[A7], [A4 - 0x38]
00002478  3F2C FFCA                move.w     -[A7], [A4 - 0x36]
0000247C  A8A8                     syscall    OffsetRect
label0000247E:
0000247E  285F                     movea.l    A4, [A7]+
00002480  4E5E                     unlink     A6
00002482  2E9F                     move.l     [A7], [A7]+
00002484  4E75                     rts
fn00002486:
00002486  4E56 FF84                link       A6, -0x007C
0000248A  48E7 0F18                movem.l    -[A7], D4,D5,D6,D7,A3,A4
0000248E  102D F4CD                move.b     D0, [A5 - 0xB33]
00002492  C02D F016                and.b      D0, [A5 - 0xFEA]
00002496  6708                     beq        +0xA /* 000024A0 */
00002498  4EAD 15BA                jsr        [A5 + 0x15BA /* export_691, CODE:15 @ 00000AE6 */]
0000249C  6000 04A2                bra        +0x4A4 /* 00002940 */
label000024A0:
000024A0  4267                     clr.w      -[A7]
000024A2  4EBA 2F1E                jsr        [PC + 0x2F1E /* 000053C2 */]
000024A6  101F                     move.b     D0, [A7]+
000024A8  6704                     beq        +0x6 /* 000024AE */
000024AA  6000 0494                bra        +0x496 /* 00002940 */
label000024AE:
000024AE  1D6D EFD9 FFB5           move.b     [A6 - 0x4B], [A5 - 0x1027]
000024B4  1B7C 0001 EFD9           move.b     [A5 - 0x1027], 0x1
000024BA  2D6D F022 FFEC           move.l     [A6 - 0x14], [A5 - 0xFDE]
000024C0  486E FFEC                pea.l      [A6 - 0x14]
000024C4  4EBA 0E06                jsr        [PC + 0xE06 /* 000032CC */]
000024C8  102D E225                move.b     D0, [A5 - 0x1DDB]
000024CC  6708                     beq        +0xA /* 000024D6 */
000024CE  486E FFEC                pea.l      [A6 - 0x14]
000024D2  4EBA 0BA8                jsr        [PC + 0xBA8 /* 0000307C */]
label000024D6:
000024D6  2F2E FFEC                move.l     -[A7], [A6 - 0x14]
000024DA  4EAD 17E2                jsr        [A5 + 0x17E2 /* export_760, CODE:15 @ 00006D92 */]
000024DE  102D F004                move.b     D0, [A5 - 0xFFC]
000024E2  C02D F003                and.b      D0, [A5 - 0xFFD]
000024E6  1E00                     move.b     D7, D0
000024E8  0A00 0001                xori.b     D0, 0x1
000024EC  C02D F003                and.b      D0, [A5 - 0xFFD]
000024F0  1D40 FFB3                move.b     [A6 - 0x4D], D0
000024F4  102D F003                move.b     D0, [A5 - 0xFFD]
000024F8  0A00 0001                xori.b     D0, 0x1
000024FC  C02D F004                and.b      D0, [A5 - 0xFFC]
00002500  1D40 FFB2                move.b     [A6 - 0x4E], D0
00002504  6700 0090                beq        +0x92 /* 00002596 */
00002508  422E FFC6                clr.b      [A6 - 0x3A]
0000250C  302D D506                move.w     D0, [A5 - 0x2AFA]
00002510  906D D502                sub.w      D0, [A5 - 0x2AFE]
00002514  48C0                     ext.l      D0
00002516  81FC 0003                divs.w     D0, 0x3
0000251A  3C00                     move.w     D6, D0
0000251C  D06D D502                add.w      D0, [A5 - 0x2AFE]
00002520  B06E FFEE                cmp.w      D0, [A6 - 0x12]
00002524  6F08                     ble        +0xA /* 0000252E */
00002526  3D6D D506 FFFE           move.w     [A6 - 0x2], [A5 - 0x2AFA]
0000252C  601A                     bra        +0x1C /* 00002548 */
label0000252E:
0000252E  302D D506                move.w     D0, [A5 - 0x2AFA]
00002532  9046                     sub.w      D0, D6
00002534  B06E FFEE                cmp.w      D0, [A6 - 0x12]
00002538  6C08                     bge        +0xA /* 00002542 */
0000253A  3D6D D502 FFFE           move.w     [A6 - 0x2], [A5 - 0x2AFE]
00002540  6006                     bra        +0x8 /* 00002548 */
label00002542:
00002542  1D7C 0001 FFC6           move.b     [A6 - 0x3A], 0x1
label00002548:
00002548  422E FFC7                clr.b      [A6 - 0x39]
0000254C  302D D504                move.w     D0, [A5 - 0x2AFC]
00002550  906D D500                sub.w      D0, [A5 - 0x2B00]
00002554  48C0                     ext.l      D0
00002556  81FC 0003                divs.w     D0, 0x3
0000255A  3C00                     move.w     D6, D0
0000255C  D06D D500                add.w      D0, [A5 - 0x2B00]
00002560  B06E FFEC                cmp.w      D0, [A6 - 0x14]
00002564  6F08                     ble        +0xA /* 0000256E */
00002566  3D6D D504 FFFC           move.w     [A6 - 0x4], [A5 - 0x2AFC]
0000256C  601A                     bra        +0x1C /* 00002588 */
label0000256E:
0000256E  302D D504                move.w     D0, [A5 - 0x2AFC]
00002572  9046                     sub.w      D0, D6
00002574  B06E FFEC                cmp.w      D0, [A6 - 0x14]
00002578  6C08                     bge        +0xA /* 00002582 */
0000257A  3D6D D500 FFFC           move.w     [A6 - 0x4], [A5 - 0x2B00]
00002580  6006                     bra        +0x8 /* 00002588 */
label00002582:
00002582  1D7C 0001 FFC7           move.b     [A6 - 0x39], 0x1
label00002588:
00002588  102E FFC7                move.b     D0, [A6 - 0x39]
0000258C  C02E FFC6                and.b      D0, [A6 - 0x3A]
00002590  6704                     beq        +0x6 /* 00002596 */
00002592  422E FFB2                clr.b      [A6 - 0x4E]
label00002596:
00002596  4AAD D482                tst.l      [A5 - 0x2B7E]
0000259A  56C0                     sne        D0
0000259C  C02E FFB2                and.b      D0, [A6 - 0x4E]
000025A0  1A00                     move.b     D5, D0
000025A2  102E FFB3                move.b     D0, [A6 - 0x4D]
000025A6  6706                     beq        +0x8 /* 000025AE */
000025A8  1B7C 0001 D50A           move.b     [A5 - 0x2AF6], 0x1
label000025AE:
000025AE  102D D50A                move.b     D0, [A5 - 0x2AF6]
000025B2  6704                     beq        +0x6 /* 000025B8 */
000025B4  4EBA DA4A                jsr        [PC - 0x25B6 /* 00000000 */]
label000025B8:
000025B8  1007                     move.b     D0, D7
000025BA  802E FFB3                or.b       D0, [A6 - 0x4D]
000025BE  6704                     beq        +0x6 /* 000025C4 */
000025C0  422D D50C                clr.b      [A5 - 0x2AF4]
label000025C4:
000025C4  1007                     move.b     D0, D7
000025C6  6706                     beq        +0x8 /* 000025CE */
000025C8  1B7C 0001 D50A           move.b     [A5 - 0x2AF6], 0x1
label000025CE:
000025CE  41EE FFA8                lea.l      A0, [A6 - 0x58]
000025D2  43ED ED82                lea.l      A1, [A5 - 0x127E]
000025D6  20D9                     move.l     [A0]+, [A1]+
000025D8  20D9                     move.l     [A0]+, [A1]+
000025DA  102D E225                move.b     D0, [A5 - 0x1DDB]
000025DE  670C                     beq        +0xE /* 000025EC */
000025E0  41EE FFA8                lea.l      A0, [A6 - 0x58]
000025E4  43ED D678                lea.l      A1, [A5 - 0x2988]
000025E8  20D9                     move.l     [A0]+, [A1]+
000025EA  20D9                     move.l     [A0]+, [A1]+
label000025EC:
000025EC  302E FFAA                move.w     D0, [A6 - 0x56]
000025F0  906D D502                sub.w      D0, [A5 - 0x2AFE]
000025F4  3D40 FFCC                move.w     [A6 - 0x34], D0
000025F8  302E FFAE                move.w     D0, [A6 - 0x52]
000025FC  906D D506                sub.w      D0, [A5 - 0x2AFA]
00002600  3D40 FFCE                move.w     [A6 - 0x32], D0
00002604  302E FFA8                move.w     D0, [A6 - 0x58]
00002608  906D D500                sub.w      D0, [A5 - 0x2B00]
0000260C  3D40 FFD0                move.w     [A6 - 0x30], D0
00002610  302E FFAC                move.w     D0, [A6 - 0x54]
00002614  906D D504                sub.w      D0, [A5 - 0x2AFC]
00002618  3D40 FFD2                move.w     [A6 - 0x2E], D0
0000261C  A89E                     syscall    PenNormal
0000261E  3F3C 00F8                move.w     -[A7], 0xF8
00002622  3F2D E2C8                move.w     -[A7], [A5 - 0x1D38]
00002626  486D EE72                pea.l      [A5 - 0x118E]
0000262A  4EAD 1C2A                jsr        [A5 + 0x1C2A /* export_897, CODE:17 @ 00000A16 */]
0000262E  41EE FFD4                lea.l      A0, [A6 - 0x2C]
00002632  43ED D500                lea.l      A1, [A5 - 0x2B00]
00002636  20D9                     move.l     [A0]+, [A1]+
00002638  20D9                     move.l     [A0]+, [A1]+
0000263A  41EE FFDC                lea.l      A0, [A6 - 0x24]
0000263E  43EE FFD4                lea.l      A1, [A6 - 0x2C]
00002642  20D9                     move.l     [A0]+, [A1]+
00002644  20D9                     move.l     [A0]+, [A1]+
00002646  1007                     move.b     D0, D7
00002648  0A00 0001                xori.b     D0, 0x1
0000264C  1D40 FF8F                move.b     [A6 - 0x71], D0
00002650  3B7C 0001 D47C           move.w     [A5 - 0x2B84], 0x1
00002656  1007                     move.b     D0, D7
00002658  6706                     beq        +0x8 /* 00002660 */
0000265A  3B6D EF20 D47C           move.w     [A5 - 0x2B84], [A5 - 0x10E0]
label00002660:
00002660  41EE FF9A                lea.l      A0, [A6 - 0x66]
00002664  43ED ECFE                lea.l      A1, [A5 - 0x1302]
00002668  20D9                     move.l     [A0]+, [A1]+
0000266A  20D9                     move.l     [A0]+, [A1]+
0000266C  20D9                     move.l     [A0]+, [A1]+
0000266E  3091                     move.w     [A0], [A1]
00002670  102D E225                move.b     D0, [A5 - 0x1DDB]
00002674  6710                     beq        +0x12 /* 00002686 */
00002676  41EE FF9A                lea.l      A0, [A6 - 0x66]
0000267A  43ED D672                lea.l      A1, [A5 - 0x298E]
0000267E  20D9                     move.l     [A0]+, [A1]+
00002680  20D9                     move.l     [A0]+, [A1]+
00002682  20D9                     move.l     [A0]+, [A1]+
00002684  3091                     move.w     [A0], [A1]
label00002686:
00002686  7801                     moveq.l    D4, 0x01
label00002688:
00002688  486E FFF4                pea.l      [A6 - 0xC]
0000268C  4EBA 09EE                jsr        [PC + 0x9EE /* 0000307C */]
00002690  102E FFB2                move.b     D0, [A6 - 0x4E]
00002694  6608                     bne        +0xA /* 0000269E */
00002696  486E FFF4                pea.l      [A6 - 0xC]
0000269A  4EAD 17CA                jsr        [A5 + 0x17CA /* export_757, CODE:15 @ 00006960 */]
label0000269E:
0000269E  4267                     clr.w      -[A7]
000026A0  2F2E FFF4                move.l     -[A7], [A6 - 0xC]
000026A4  2F2E FFF0                move.l     -[A7], [A6 - 0x10]
000026A8  3F2D D47C                move.w     -[A7], [A5 - 0x2B84]
000026AC  4EAD 1A72                jsr        [A5 + 0x1A72 /* export_842, CODE:16 @ 000019A8 */]
000026B0  101F                     move.b     D0, [A7]+
000026B2  0A00 0001                xori.b     D0, 0x1
000026B6  2204                     move.l     D1, D4
000026B8  8200                     or.b       D1, D0
000026BA  6700 00D8                beq        +0xDA /* 00002794 */
000026BE  41EE FFE4                lea.l      A0, [A6 - 0x1C]
000026C2  43EE FFDC                lea.l      A1, [A6 - 0x24]
000026C6  20D9                     move.l     [A0]+, [A1]+
000026C8  20D9                     move.l     [A0]+, [A1]+
000026CA  41EE FF90                lea.l      A0, [A6 - 0x70]
000026CE  43EE FFDC                lea.l      A1, [A6 - 0x24]
000026D2  20D9                     move.l     [A0]+, [A1]+
000026D4  20D9                     move.l     [A0]+, [A1]+
000026D6  2F0E                     move.l     -[A7], A6
000026D8  4EBA FCAE                jsr        [PC - 0x352 /* 00002388 */]
000026DC  486E FFDC                pea.l      [A6 - 0x24]
000026E0  486E FF90                pea.l      [A6 - 0x70]
000026E4  4EAD 1CEA                jsr        [A5 + 0x1CEA /* export_921, CODE:17 @ 00001DBA */]
000026E8  102E FF8F                move.b     D0, [A6 - 0x71]
000026EC  6708                     beq        +0xA /* 000026F6 */
000026EE  486E FF90                pea.l      [A6 - 0x70]
000026F2  4EBA 0B2E                jsr        [PC + 0xB2E /* 00003222 */]
label000026F6:
000026F6  1005                     move.b     D0, D5
000026F8  6718                     beq        +0x1A /* 00002712 */
000026FA  486E FFDC                pea.l      [A6 - 0x24]
000026FE  4EBA 028C                jsr        [PC + 0x28C /* 0000298C */]
00002702  486E FFDC                pea.l      [A6 - 0x24]
00002706  486E FFDC                pea.l      [A6 - 0x24]
0000270A  4267                     clr.w      -[A7]
0000270C  4EBA 3C98                jsr        [PC + 0x3C98 /* 000063A6 */]
00002710  606A                     bra        +0x6C /* 0000277C */
label00002712:
00002712  102E FFB2                move.b     D0, [A6 - 0x4E]
00002716  6756                     beq        +0x58 /* 0000276E */
00002718  486D D70E                pea.l      [A5 - 0x28F2]
0000271C  486D ED0C                pea.l      [A5 - 0x12F4]
00002720  486E FFD4                pea.l      [A6 - 0x2C]
00002724  486E FFDC                pea.l      [A6 - 0x24]
00002728  3F3C 0001                move.w     -[A7], 0x1
0000272C  42A7                     clr.l      -[A7]
0000272E  A8EC                     syscall    CopyBits
00002730  486D D70E                pea.l      [A5 - 0x28F2]
00002734  486D ECFE                pea.l      [A5 - 0x1302]
00002738  486E FFD4                pea.l      [A6 - 0x2C]
0000273C  486E FFDC                pea.l      [A6 - 0x24]
00002740  3F3C 0003                move.w     -[A7], 0x3
00002744  42A7                     clr.l      -[A7]
00002746  A8EC                     syscall    CopyBits
00002748  486D D700                pea.l      [A5 - 0x2900]
0000274C  486D ECFE                pea.l      [A5 - 0x1302]
00002750  486E FFD4                pea.l      [A6 - 0x2C]
00002754  486E FFDC                pea.l      [A6 - 0x24]
00002758  3F3C 0001                move.w     -[A7], 0x1
0000275C  42A7                     clr.l      -[A7]
0000275E  A8EC                     syscall    CopyBits
00002760  486E FFDC                pea.l      [A6 - 0x24]
00002764  486D E2DA                pea.l      [A5 - 0x1D26]
00002768  4EAD 1CEA                jsr        [A5 + 0x1CEA /* export_921, CODE:17 @ 00001DBA */]
0000276C  600E                     bra        +0x10 /* 0000277C */
label0000276E:
0000276E  486E FFD4                pea.l      [A6 - 0x2C]
00002772  486E FFDC                pea.l      [A6 - 0x24]
00002776  4267                     clr.w      -[A7]
00002778  4EBA 3C2C                jsr        [PC + 0x3C2C /* 000063A6 */]
label0000277C:
0000277C  486E FF90                pea.l      [A6 - 0x70]
00002780  486D E2F2                pea.l      [A5 - 0x1D0E]
00002784  4EAD 1CEA                jsr        [A5 + 0x1CEA /* export_921, CODE:17 @ 00001DBA */]
00002788  4EBA E7FE                jsr        [PC - 0x1802 /* 00000F88 */]
0000278C  2D6E FFF4 FFF0           move.l     [A6 - 0x10], [A6 - 0xC]
00002792  4204                     clr.b      D4
label00002794:
00002794  4267                     clr.w      -[A7]
00002796  4EAD 210A                jsr        [A5 + 0x210A /* export_1053, CODE:20 @ 000016F6 */]
0000279A  101F                     move.b     D0, [A7]+
0000279C  0A00 0001                xori.b     D0, 0x1
000027A0  6700 FEE6                beq        -0x118 /* 00002688 */
000027A4  486E FFDC                pea.l      [A6 - 0x24]
000027A8  4EBA 3874                jsr        [PC + 0x3874 /* 0000601E */]
000027AC  4267                     clr.w      -[A7]
000027AE  486E FFDC                pea.l      [A6 - 0x24]
000027B2  A8AE                     syscall    EmptyRect
000027B4  101F                     move.b     D0, [A7]+
000027B6  6710                     beq        +0x12 /* 000027C8 */
000027B8  422D D509                clr.b      [A5 - 0x2AF7]
000027BC  422D D50D                clr.b      [A5 - 0x2AF3]
000027C0  3F2D D71C                move.w     -[A7], [A5 - 0x28E4]
000027C4  4EBA 1B54                jsr        [PC + 0x1B54 /* 0000431A */]
label000027C8:
000027C8  1005                     move.b     D0, D5
000027CA  6722                     beq        +0x24 /* 000027EE */
000027CC  2F2D D6B4                move.l     -[A7], [A5 - 0x294C]
000027D0  4EAD 1D12                jsr        [A5 + 0x1D12 /* export_926, CODE:17 @ 00002B38 */]
000027D4  1B7C 0001 D68D           move.b     [A5 - 0x2973], 0x1
000027DA  486D D6D6                pea.l      [A5 - 0x292A]
000027DE  A875                     syscall    SetPBits/SetPortBits
000027E0  486D D500                pea.l      [A5 - 0x2B00]
000027E4  486D FE98                pea.l      [A5 - 0x168]
000027E8  A8A5                     syscall    FillRect
000027EA  6000 0136                bra        +0x138 /* 00002922 */
label000027EE:
000027EE  102E FFB2                move.b     D0, [A6 - 0x4E]
000027F2  6700 0088                beq        +0x8A /* 0000287C */
000027F6  2F2D D6B4                move.l     -[A7], [A5 - 0x294C]
000027FA  2F2D ECE4                move.l     -[A7], [A5 - 0x131C]
000027FE  486E FFD4                pea.l      [A6 - 0x2C]
00002802  4267                     clr.w      -[A7]
00002804  4EAD 1582                jsr        [A5 + 0x1582 /* export_684, CODE:15 @ 000005C0 */]
00002808  486D ED44                pea.l      [A5 - 0x12BC]
0000280C  486D D6D6                pea.l      [A5 - 0x292A]
00002810  486E FFD4                pea.l      [A6 - 0x2C]
00002814  486E FFDC                pea.l      [A6 - 0x24]
00002818  4267                     clr.w      -[A7]
0000281A  42A7                     clr.l      -[A7]
0000281C  A8EC                     syscall    CopyBits
0000281E  2F2D D6C4                move.l     -[A7], [A5 - 0x293C]
00002822  2F2D ECE4                move.l     -[A7], [A5 - 0x131C]
00002826  486E FFD4                pea.l      [A6 - 0x2C]
0000282A  4267                     clr.w      -[A7]
0000282C  4EAD 1582                jsr        [A5 + 0x1582 /* export_684, CODE:15 @ 000005C0 */]
00002830  486D ED44                pea.l      [A5 - 0x12BC]
00002834  486D D70E                pea.l      [A5 - 0x28F2]
00002838  486E FFD4                pea.l      [A6 - 0x2C]
0000283C  486E FFDC                pea.l      [A6 - 0x24]
00002840  4267                     clr.w      -[A7]
00002842  42A7                     clr.l      -[A7]
00002844  A8EC                     syscall    CopyBits
00002846  2F2D D6C0                move.l     -[A7], [A5 - 0x2940]
0000284A  2F2D ECE4                move.l     -[A7], [A5 - 0x131C]
0000284E  486E FFD4                pea.l      [A6 - 0x2C]
00002852  4267                     clr.w      -[A7]
00002854  4EAD 1582                jsr        [A5 + 0x1582 /* export_684, CODE:15 @ 000005C0 */]
00002858  486D ED44                pea.l      [A5 - 0x12BC]
0000285C  486D D700                pea.l      [A5 - 0x2900]
00002860  486E FFD4                pea.l      [A6 - 0x2C]
00002864  486E FFDC                pea.l      [A6 - 0x24]
00002868  4267                     clr.w      -[A7]
0000286A  42A7                     clr.l      -[A7]
0000286C  A8EC                     syscall    CopyBits
0000286E  486E FFD4                pea.l      [A6 - 0x2C]
00002872  486D E2F2                pea.l      [A5 - 0x1D0E]
00002876  4EAD 1CEA                jsr        [A5 + 0x1CEA /* export_921, CODE:17 @ 00001DBA */]
0000287A  6042                     bra        +0x44 /* 000028BE */
label0000287C:
0000287C  486D D6D6                pea.l      [A5 - 0x292A]
00002880  486D D6D6                pea.l      [A5 - 0x292A]
00002884  486E FFD4                pea.l      [A6 - 0x2C]
00002888  486E FFDC                pea.l      [A6 - 0x24]
0000288C  4267                     clr.w      -[A7]
0000288E  42A7                     clr.l      -[A7]
00002890  A8EC                     syscall    CopyBits
00002892  486D D70E                pea.l      [A5 - 0x28F2]
00002896  486D D70E                pea.l      [A5 - 0x28F2]
0000289A  486E FFD4                pea.l      [A6 - 0x2C]
0000289E  486E FFDC                pea.l      [A6 - 0x24]
000028A2  4267                     clr.w      -[A7]
000028A4  42A7                     clr.l      -[A7]
000028A6  A8EC                     syscall    CopyBits
000028A8  486D D700                pea.l      [A5 - 0x2900]
000028AC  486D D700                pea.l      [A5 - 0x2900]
000028B0  486E FFD4                pea.l      [A6 - 0x2C]
000028B4  486E FFDC                pea.l      [A6 - 0x24]
000028B8  4267                     clr.w      -[A7]
000028BA  42A7                     clr.l      -[A7]
000028BC  A8EC                     syscall    CopyBits
label000028BE:
000028BE  1B7C 0001 D68D           move.b     [A5 - 0x2973], 0x1
000028C4  41ED D68E                lea.l      A0, [A5 - 0x2972]
000028C8  43EE FFDC                lea.l      A1, [A6 - 0x24]
000028CC  20D9                     move.l     [A0]+, [A1]+
000028CE  20D9                     move.l     [A0]+, [A1]+
000028D0  42A7                     clr.l      -[A7]
000028D2  A8D8                     syscall    NewRgn
000028D4  285F                     movea.l    A4, [A7]+
000028D6  2054                     movea.l    A0, [A4]
000028D8  5488                     addq.l     A0, 2
000028DA  43EE FFD4                lea.l      A1, [A6 - 0x2C]
000028DE  20D9                     move.l     [A0]+, [A1]+
000028E0  20D9                     move.l     [A0]+, [A1]+
000028E2  42A7                     clr.l      -[A7]
000028E4  A8D8                     syscall    NewRgn
000028E6  265F                     movea.l    A3, [A7]+
000028E8  2053                     movea.l    A0, [A3]
000028EA  5488                     addq.l     A0, 2
000028EC  43EE FFDC                lea.l      A1, [A6 - 0x24]
000028F0  20D9                     move.l     [A0]+, [A1]+
000028F2  20D9                     move.l     [A0]+, [A1]+
000028F4  2F0C                     move.l     -[A7], A4
000028F6  2F0B                     move.l     -[A7], A3
000028F8  2F0C                     move.l     -[A7], A4
000028FA  A8E6                     syscall    DiffRgn
000028FC  486D D6D6                pea.l      [A5 - 0x292A]
00002900  A875                     syscall    SetPBits/SetPortBits
00002902  2F0C                     move.l     -[A7], A4
00002904  A8D4                     syscall    EraseRgn
00002906  486D D70E                pea.l      [A5 - 0x28F2]
0000290A  A875                     syscall    SetPBits/SetPortBits
0000290C  2F0C                     move.l     -[A7], A4
0000290E  A8D4                     syscall    EraseRgn
00002910  486D D700                pea.l      [A5 - 0x2900]
00002914  A875                     syscall    SetPBits/SetPortBits
00002916  2F0C                     move.l     -[A7], A4
00002918  A8D4                     syscall    EraseRgn
0000291A  2F0C                     move.l     -[A7], A4
0000291C  A8D9                     syscall    DisposRgn/DisposeRgn
0000291E  2F0B                     move.l     -[A7], A3
00002920  A8D9                     syscall    DisposRgn/DisposeRgn
label00002922:
00002922  1B6E FFB5 EFD9           move.b     [A5 - 0x1027], [A6 - 0x4B]
00002928  A89E                     syscall    PenNormal
0000292A  486D ED44                pea.l      [A5 - 0x12BC]
0000292E  A875                     syscall    SetPBits/SetPortBits
00002930  4EBA E676                jsr        [PC - 0x198A /* 00000FA8 */]
00002934  1B7C 0001 E2E3           move.b     [A5 - 0x1D1D], 0x1
0000293A  1B7C 0001 E303           move.b     [A5 - 0x1CFD], 0x1
label00002940:
00002940  4CDF 18F0                movem.l    D4,D5,D6,D7,A3,A4, [A7]+
00002944  4E5E                     unlink     A6
00002946  4E75                     rts
fn00002948:
00002948  4E56 0000                link       A6, 0
0000294C  2F2D D6C4                move.l     -[A7], [A5 - 0x293C]
00002950  2F2D ECD4                move.l     -[A7], [A5 - 0x132C]
00002954  486D D500                pea.l      [A5 - 0x2B00]
00002958  3F3C 0001                move.w     -[A7], 0x1
0000295C  4EAD 1582                jsr        [A5 + 0x1582 /* export_684, CODE:15 @ 000005C0 */]
00002960  2F2D D6C4                move.l     -[A7], [A5 - 0x293C]
00002964  2F2D D6C0                move.l     -[A7], [A5 - 0x2940]
00002968  2F2D ECD0                move.l     -[A7], [A5 - 0x1330]
0000296C  2F2D ECD0                move.l     -[A7], [A5 - 0x1330]
00002970  486D D500                pea.l      [A5 - 0x2B00]
00002974  3F3C FFFE                move.w     -[A7], 0xFFFE
00002978  4EAD 157A                jsr        [A5 + 0x157A /* export_683, CODE:15 @ 000004C6 */]
0000297C  486D D500                pea.l      [A5 - 0x2B00]
00002980  486D E2DA                pea.l      [A5 - 0x1D26]
00002984  4EAD 1CEA                jsr        [A5 + 0x1CEA /* export_921, CODE:17 @ 00001DBA */]
00002988  4E5E                     unlink     A6
0000298A  4E75                     rts
fn0000298C:
0000298C  4E56 FFE4                link       A6, -0x001C
00002990  206E 0008                movea.l    A0, [A6 + 0x8]
00002994  43EE FFF8                lea.l      A1, [A6 - 0x8]
00002998  22D8                     move.l     [A1]+, [A0]+
0000299A  22D8                     move.l     [A1]+, [A0]+
0000299C  4EBA 4818                jsr        [PC + 0x4818 /* 000071B6 */]
000029A0  486D EE38                pea.l      [A5 - 0x11C8]
000029A4  A873                     syscall    SetPort
000029A6  3F2D E1FE                move.w     -[A7], [A5 - 0x1E02]
000029AA  A887                     syscall    TextFont
000029AC  3F2D E200                move.w     -[A7], [A5 - 0x1E00]
000029B0  A88A                     syscall    TextSize
000029B2  4240                     clr.w      D0
000029B4  102D E202                move.b     D0, [A5 - 0x1DFE]
000029B8  3F00                     move.w     -[A7], D0
000029BA  A888                     syscall    TextFace
000029BC  3F3C 0001                move.w     -[A7], 0x1
000029C0  A889                     syscall    TextMode
000029C2  486D D70E                pea.l      [A5 - 0x28F2]
000029C6  A875                     syscall    SetPBits/SetPortBits
000029C8  486E FFF8                pea.l      [A6 - 0x8]
000029CC  486D FE98                pea.l      [A5 - 0x168]
000029D0  A8A5                     syscall    FillRect
000029D2  486E FFF8                pea.l      [A6 - 0x8]
000029D6  486D D68E                pea.l      [A5 - 0x2972]
000029DA  4EAD 1CEA                jsr        [A5 + 0x1CEA /* export_921, CODE:17 @ 00001DBA */]
000029DE  486E FFE8                pea.l      [A6 - 0x18]
000029E2  A88B                     syscall    GetFontInfo
000029E4  302E FFEC                move.w     D0, [A6 - 0x14]
000029E8  5E40                     addq.w     D0, 7
000029EA  3D40 FFE6                move.w     [A6 - 0x1A], D0
000029EE  3D6D E204 FFE4           move.w     [A6 - 0x1C], [A5 - 0x1DFC]
000029F4  41EE FFF0                lea.l      A0, [A6 - 0x10]
000029F8  43EE FFF8                lea.l      A1, [A6 - 0x8]
000029FC  20D9                     move.l     [A0]+, [A1]+
000029FE  20D9                     move.l     [A0]+, [A1]+
00002A00  486E FFF0                pea.l      [A6 - 0x10]
00002A04  2F3C 0000 0002           move.l     -[A7], 0x2
00002A0A  A8A9                     syscall    InsetRect
00002A0C  4267                     clr.w      -[A7]
00002A0E  3F2E FFF6                move.w     -[A7], [A6 - 0xA]
00002A12  302E FFE6                move.w     D0, [A6 - 0x1A]
00002A16  D06E FFF2                add.w      D0, [A6 - 0xE]
00002A1A  3F00                     move.w     -[A7], D0
00002A1C  4EAD 18BA                jsr        [A5 + 0x18BA /* export_787, CODE:16 @ 000007C6 */]
00002A20  3D5F FFF6                move.w     [A6 - 0xA], [A7]+
00002A24  4267                     clr.w      -[A7]
00002A26  3F2E FFF4                move.w     -[A7], [A6 - 0xC]
00002A2A  302E FFE4                move.w     D0, [A6 - 0x1C]
00002A2E  D06E FFF0                add.w      D0, [A6 - 0x10]
00002A32  3F00                     move.w     -[A7], D0
00002A34  4EAD 18BA                jsr        [A5 + 0x18BA /* export_787, CODE:16 @ 000007C6 */]
00002A38  3D5F FFF4                move.w     [A6 - 0xC], [A7]+
00002A3C  486D D700                pea.l      [A5 - 0x2900]
00002A40  A875                     syscall    SetPBits/SetPortBits
00002A42  486E FFF8                pea.l      [A6 - 0x8]
00002A46  A87B                     syscall    ClipRect
00002A48  2F2D D482                move.l     -[A7], [A5 - 0x2B7E]
00002A4C  4EAD 0222                jsr        [A5 + 0x222 /* export_64, CODE:1 @ 00004678 */]
00002A50  206D D482                movea.l    A0, [A5 - 0x2B7E]
00002A54  2F10                     move.l     -[A7], [A0]
00002A56  2F2D D47E                move.l     -[A7], [A5 - 0x2B82]
00002A5A  486E FFF0                pea.l      [A6 - 0x10]
00002A5E  3F2D E1FC                move.w     -[A7], [A5 - 0x1E04]
00002A62  A9CE                     syscall    TETextBox/TextBox
00002A64  2F2D D482                move.l     -[A7], [A5 - 0x2B7E]
00002A68  4EAD 022A                jsr        [A5 + 0x22A /* export_65, CODE:1 @ 00004682 */]
00002A6C  486D ED82                pea.l      [A5 - 0x127E]
00002A70  A87B                     syscall    ClipRect
00002A72  4EAD 2262                jsr        [A5 + 0x2262 /* export_1096, CODE:20 @ 0000535A */]
00002A76  486D ED44                pea.l      [A5 - 0x12BC]
00002A7A  A875                     syscall    SetPBits/SetPortBits
00002A7C  1B7C 0001 D50E           move.b     [A5 - 0x2AF2], 0x1
00002A82  4E5E                     unlink     A6
00002A84  2E9F                     move.l     [A7], [A7]+
00002A86  4E75                     rts
fn00002A88:
00002A88  4E56 0000                link       A6, 0
00002A8C  486D ED44                pea.l      [A5 - 0x12BC]
00002A90  A875                     syscall    SetPBits/SetPortBits
00002A92  2F2D EDC8                move.l     -[A7], [A5 - 0x1238]
00002A96  A873                     syscall    SetPort
00002A98  486D D500                pea.l      [A5 - 0x2B00]
00002A9C  486D E2F2                pea.l      [A5 - 0x1D0E]
00002AA0  4EAD 1CEA                jsr        [A5 + 0x1CEA /* export_921, CODE:17 @ 00001DBA */]
00002AA4  4EBA E4E2                jsr        [PC - 0x1B1E /* 00000F88 */]
00002AA8  1B7C 0001 E2E3           move.b     [A5 - 0x1D1D], 0x1
00002AAE  1B7C 0001 E303           move.b     [A5 - 0x1CFD], 0x1
00002AB4  4E5E                     unlink     A6
00002AB6  4E75                     rts
fn00002AB8:
00002AB8  4E56 FFF8                link       A6, -0x0008
00002ABC  206E 0008                movea.l    A0, [A6 + 0x8]
00002AC0  43EE FFF8                lea.l      A1, [A6 - 0x8]
00002AC4  22D8                     move.l     [A1]+, [A0]+
00002AC6  22D8                     move.l     [A1]+, [A0]+
00002AC8  4267                     clr.w      -[A7]
00002ACA  486E FFF8                pea.l      [A6 - 0x8]
00002ACE  A8AE                     syscall    EmptyRect
00002AD0  101F                     move.b     D0, [A7]+
00002AD2  6702                     beq        +0x4 /* 00002AD6 */
00002AD4  6040                     bra        +0x42 /* 00002B16 */
label00002AD6:
00002AD6  2F2D D6B8                move.l     -[A7], [A5 - 0x2948]
00002ADA  2F2D ECD0                move.l     -[A7], [A5 - 0x1330]
00002ADE  486E FFF8                pea.l      [A6 - 0x8]
00002AE2  4267                     clr.w      -[A7]
00002AE4  4EAD 1582                jsr        [A5 + 0x1582 /* export_684, CODE:15 @ 000005C0 */]
00002AE8  2F2D D6BC                move.l     -[A7], [A5 - 0x2944]
00002AEC  2F2D ECD4                move.l     -[A7], [A5 - 0x132C]
00002AF0  486E FFF8                pea.l      [A6 - 0x8]
00002AF4  4267                     clr.w      -[A7]
00002AF6  4EAD 1582                jsr        [A5 + 0x1582 /* export_684, CODE:15 @ 000005C0 */]
00002AFA  486E FFF8                pea.l      [A6 - 0x8]
00002AFE  486D E2DA                pea.l      [A5 - 0x1D26]
00002B02  4EAD 1CEA                jsr        [A5 + 0x1CEA /* export_921, CODE:17 @ 00001DBA */]
00002B06  486E FFF8                pea.l      [A6 - 0x8]
00002B0A  486D E2F2                pea.l      [A5 - 0x1D0E]
00002B0E  4EAD 1CEA                jsr        [A5 + 0x1CEA /* export_921, CODE:17 @ 00001DBA */]
00002B12  4EBA 46A2                jsr        [PC + 0x46A2 /* 000071B6 */]
label00002B16:
00002B16  4E5E                     unlink     A6
00002B18  2E9F                     move.l     [A7], [A7]+
00002B1A  4E75                     rts
fn00002B1C:
00002B1C  4E56 FFE0                link       A6, -0x0020
00002B20  41EE FFE0                lea.l      A0, [A6 - 0x20]
00002B24  43ED EFB4                lea.l      A1, [A5 - 0x104C]
00002B28  7007                     moveq.l    D0, 0x07
label00002B2A:
00002B2A  20D9                     move.l     [A0]+, [A1]+
00002B2C  51C8 FFFC                dbf        D0, -0x6 /* 00002B2A */
00002B30  102D E225                move.b     D0, [A5 - 0x1DDB]
00002B34  6718                     beq        +0x1A /* 00002B4E */
00002B36  486E FFE0                pea.l      [A6 - 0x20]
00002B3A  7020                     moveq.l    D0, 0x20
00002B3C  2F00                     move.l     -[A7], D0
00002B3E  4EAD 1B42                jsr        [A5 + 0x1B42 /* export_868, CODE:16 @ 00001E7C */]
00002B42  3D7C 0180 FFEE           move.w     [A6 - 0x12], 0x180
00002B48  3D7C 0180 FFF0           move.w     [A6 - 0x10], 0x180
label00002B4E:
00002B4E  486E FFE0                pea.l      [A6 - 0x20]
00002B52  486D FEA0                pea.l      [A5 - 0x160]
00002B56  4EBA D7F4                jsr        [PC - 0x280C /* 0000034C */]
00002B5A  4E5E                     unlink     A6
00002B5C  4E75                     rts
fn00002B5E:
00002B5E  4E56 F644                link       A6, -0x09BC
00002B62  48E7 0708                movem.l    -[A7], D5,D6,D7,A4
00002B66  4EBA E440                jsr        [PC - 0x1BC0 /* 00000FA8 */]
00002B6A  2F2D EDC8                move.l     -[A7], [A5 - 0x1238]
00002B6E  A873                     syscall    SetPort
00002B70  2F2D ED72                move.l     -[A7], [A5 - 0x128E]
00002B74  486E F644                pea.l      [A6 - 0x9BC]
00002B78  3F3C 001E                move.w     -[A7], 0x1E
00002B7C  4EAD 209A                jsr        [A5 + 0x209A /* export_1039, CODE:20 @ 00000F60 */]
00002B80  487A 027C                pea.l      [PC + 0x27C /* 00002DFE, value 0x4E56 'NV', cstring "" */]
00002B84  42A7                     clr.l      -[A7]
00002B86  486E F754                pea.l      [A6 - 0x8AC]
00002B8A  4EAD 03FA                jsr        [A5 + 0x3FA /* export_123, CODE:1 @ 00004D0A */]
00002B8E  2F2D EDC8                move.l     -[A7], [A5 - 0x1238]
00002B92  4EAD 22E2                jsr        [A5 + 0x22E2 /* export_1112, CODE:20 @ 0000633A */]
00002B96  102E F754                move.b     D0, [A6 - 0x8AC]
00002B9A  6604                     bne        +0x6 /* 00002BA0 */
00002B9C  6000 0250                bra        +0x252 /* 00002DEE */
label00002BA0:
00002BA0  4267                     clr.w      -[A7]
00002BA2  486E F75E                pea.l      [A6 - 0x8A2]
00002BA6  3F2E F75A                move.w     -[A7], [A6 - 0x8A6]
00002BAA  486E FFF8                pea.l      [A6 - 0x8]
00002BAE  4EAD 02EA                jsr        [A5 + 0x2EA /* export_89, CODE:1 @ 00004832 */]
00002BB2  3A1F                     move.w     D5, [A7]+
00002BB4  4A45                     tst.w      D5
00002BB6  6632                     bne        +0x34 /* 00002BEA */
00002BB8  4267                     clr.w      -[A7]
00002BBA  486E F75E                pea.l      [A6 - 0x8A2]
00002BBE  3F2E F75A                move.w     -[A7], [A6 - 0x8A6]
00002BC2  486E F744                pea.l      [A6 - 0x8BC]
00002BC6  4EAD 0312                jsr        [A5 + 0x312 /* export_94, CODE:1 @ 00004908 */]
00002BCA  3E1F                     move.w     D7, [A7]+
00002BCC  41EE F744                lea.l      A0, [A6 - 0x8BC]
00002BD0  43FA 0224                lea.l      A1, [PC + 0x224 /* 00002DF6, value 0x504E5447 'PNTG', cstring "PNTGMPNT" */]
00002BD4  7003                     moveq.l    D0, 0x03
label00002BD6:
00002BD6  B109                     cmpm.b     [A0]+, [A1]+
00002BD8  56C8 FFFC                dbne       D0, -0x6 /* 00002BD6 */
00002BDC  670C                     beq        +0xE /* 00002BEA */
00002BDE  3F3C 0018                move.w     -[A7], 0x18
00002BE2  4EAD 187A                jsr        [A5 + 0x187A /* export_779, CODE:16 @ 00000500 */]
00002BE6  6000 01EC                bra        +0x1EE /* 00002DD4 */
label00002BEA:
00002BEA  70D5                     moveq.l    D0, 0xFFFFFFD5
00002BEC  B045                     cmp.w      D0, D5
00002BEE  662C                     bne        +0x2E /* 00002C1C */
00002BF0  4267                     clr.w      -[A7]
00002BF2  486E F75E                pea.l      [A6 - 0x8A2]
00002BF6  3F2E F75A                move.w     -[A7], [A6 - 0x8A6]
00002BFA  2F3A 01FE                move.l     -[A7], [PC + 0x1FE /* 00002DFA, value 0x4D504E54 'MPNT', cstring "MPNT" */]
00002BFE  2F3A 01F6                move.l     -[A7], [PC + 0x1F6 /* 00002DF6, value 0x504E5447 'PNTG', cstring "PNTGMPNT" */]
00002C02  4EAD 0332                jsr        [A5 + 0x332 /* export_98, CODE:1 @ 000049A8 */]
00002C06  3E1F                     move.w     D7, [A7]+
00002C08  4267                     clr.w      -[A7]
00002C0A  486E F75E                pea.l      [A6 - 0x8A2]
00002C0E  3F2E F75A                move.w     -[A7], [A6 - 0x8A6]
00002C12  486E FFF8                pea.l      [A6 - 0x8]
00002C16  4EAD 02EA                jsr        [A5 + 0x2EA /* export_89, CODE:1 @ 00004832 */]
00002C1A  3A1F                     move.w     D5, [A7]+
label00002C1C:
00002C1C  4A45                     tst.w      D5
00002C1E  670C                     beq        +0xE /* 00002C2C */
00002C20  3F3C 0019                move.w     -[A7], 0x19
00002C24  4EAD 187A                jsr        [A5 + 0x187A /* export_779, CODE:16 @ 00000500 */]
00002C28  6000 01C4                bra        +0x1C6 /* 00002DEE */
label00002C2C:
00002C2C  4EAD 181A                jsr        [A5 + 0x181A /* export_767, CODE:16 @ 00000216 */]
00002C30  486E F7E8                pea.l      [A6 - 0x818]
00002C34  2F3C 0000 0080           move.l     -[A7], 0x80
00002C3A  4EAD 1B4A                jsr        [A5 + 0x1B4A /* export_869, CODE:16 @ 00001E9C */]
00002C3E  7000                     moveq.l    D0, 0x00
00002C40  2D40 FFF4                move.l     [A6 - 0xC], D0
00002C44  4267                     clr.w      -[A7]
00002C46  3F2E FFF8                move.w     -[A7], [A6 - 0x8]
00002C4A  486E FFF4                pea.l      [A6 - 0xC]
00002C4E  2F3C 0000 0200           move.l     -[A7], 0x200
00002C54  486E F7E8                pea.l      [A6 - 0x818]
00002C58  4EAD 1B2A                jsr        [A5 + 0x1B2A /* export_865, CODE:16 @ 00001E1C */]
00002C5C  3E1F                     move.w     D7, [A7]+
00002C5E  41EE F7E8                lea.l      A0, [A6 - 0x818]
00002C62  2D48 FFEC                move.l     [A6 - 0x14], A0
00002C66  486E F7A0                pea.l      [A6 - 0x860]
00002C6A  7048                     moveq.l    D0, 0x48
00002C6C  2F00                     move.l     -[A7], D0
00002C6E  4EAD 1B42                jsr        [A5 + 0x1B42 /* export_868, CODE:16 @ 00001E7C */]
00002C72  4246                     clr.w      D6
00002C74  6000 009A                bra        +0x9C /* 00002D10 */
label00002C78:
00002C78  4EAD 181A                jsr        [A5 + 0x181A /* export_767, CODE:16 @ 00000216 */]
00002C7C  3006                     move.w     D0, D6
00002C7E  ED40                     asl        D0.w, 6
00002C80  48C0                     ext.l      D0
00002C82  2840                     movea.l    A4, D0
00002C84  D9ED ECE4                add.l      A4, [A5 - 0x131C]
00002C88  2F0C                     move.l     -[A7], A4
00002C8A  486E F7A0                pea.l      [A6 - 0x860]
00002C8E  7040                     moveq.l    D0, 0x40
00002C90  2F00                     move.l     -[A7], D0
00002C92  4EAD 024A                jsr        [A5 + 0x24A /* export_69, CODE:1 @ 000046A6 */]
00002C96  41EE F7A0                lea.l      A0, [A6 - 0x860]
00002C9A  2D48 FFE8                move.l     [A6 - 0x18], A0
00002C9E  486E FFE8                pea.l      [A6 - 0x18]
00002CA2  486E FFEC                pea.l      [A6 - 0x14]
00002CA6  3F3C 0048                move.w     -[A7], 0x48 /* 'H' */
00002CAA  A8CF                     syscall    PackBits
00002CAC  41EE F7E8                lea.l      A0, [A6 - 0x818]
00002CB0  2008                     move.l     D0, A0
00002CB2  D0BC 0000 0800           add.l      D0, 0x800
00002CB8  90BC 0000 0200           sub.l      D0, 0x200
00002CBE  B0AE FFEC                cmp.l      D0, [A6 - 0x14]
00002CC2  6E4A                     bgt        +0x4C /* 00002D0E */
00002CC4  4267                     clr.w      -[A7]
00002CC6  3F2E FFF8                move.w     -[A7], [A6 - 0x8]
00002CCA  486E FFF4                pea.l      [A6 - 0xC]
00002CCE  2F3C 0000 0600           move.l     -[A7], 0x600
00002CD4  486E F7E8                pea.l      [A6 - 0x818]
00002CD8  4EAD 1B2A                jsr        [A5 + 0x1B2A /* export_865, CODE:16 @ 00001E1C */]
00002CDC  3E1F                     move.w     D7, [A7]+
00002CDE  4A47                     tst.w      D7
00002CE0  6708                     beq        +0xA /* 00002CEA */
00002CE2  4EAD 1812                jsr        [A5 + 0x1812 /* export_766, CODE:16 @ 00000208 */]
00002CE6  6000 00EC                bra        +0xEE /* 00002DD4 */
label00002CEA:
00002CEA  41EE F7E8                lea.l      A0, [A6 - 0x818]
00002CEE  43EE FDE8                lea.l      A1, [A6 - 0x218]
00002CF2  707F                     moveq.l    D0, 0x7F
label00002CF4:
00002CF4  20D9                     move.l     [A0]+, [A1]+
00002CF6  51C8 FFFC                dbf        D0, -0x6 /* 00002CF4 */
00002CFA  202E FFEC                move.l     D0, [A6 - 0x14]
00002CFE  90BC 0000 0800           sub.l      D0, 0x800
00002D04  D0BC 0000 0200           add.l      D0, 0x200
00002D0A  2D40 FFEC                move.l     [A6 - 0x14], D0
label00002D0E:
00002D0E  5246                     addq.w     D6, 1
label00002D10:
00002D10  0C46 0155                cmpi.w     D6, 0x155
00002D14  6F00 FF62                ble        -0x9C /* 00002C78 */
00002D18  486E F7A0                pea.l      [A6 - 0x860]
00002D1C  7048                     moveq.l    D0, 0x48
00002D1E  2F00                     move.l     -[A7], D0
00002D20  4EAD 1B42                jsr        [A5 + 0x1B42 /* export_868, CODE:16 @ 00001E7C */]
00002D24  7C01                     moveq.l    D6, 0x01
00002D26  607C                     bra        +0x7E /* 00002DA4 */
label00002D28:
00002D28  4EAD 181A                jsr        [A5 + 0x181A /* export_767, CODE:16 @ 00000216 */]
00002D2C  41EE F7A0                lea.l      A0, [A6 - 0x860]
00002D30  2D48 FFE8                move.l     [A6 - 0x18], A0
00002D34  486E FFE8                pea.l      [A6 - 0x18]
00002D38  486E FFEC                pea.l      [A6 - 0x14]
00002D3C  3F3C 0048                move.w     -[A7], 0x48 /* 'H' */
00002D40  A8CF                     syscall    PackBits
00002D42  41EE F7E8                lea.l      A0, [A6 - 0x818]
00002D46  2008                     move.l     D0, A0
00002D48  D0BC 0000 0800           add.l      D0, 0x800
00002D4E  90BC 0000 0200           sub.l      D0, 0x200
00002D54  B0AE FFEC                cmp.l      D0, [A6 - 0x14]
00002D58  6E48                     bgt        +0x4A /* 00002DA2 */
00002D5A  4267                     clr.w      -[A7]
00002D5C  3F2E FFF8                move.w     -[A7], [A6 - 0x8]
00002D60  486E FFF4                pea.l      [A6 - 0xC]
00002D64  2F3C 0000 0600           move.l     -[A7], 0x600
00002D6A  486E F7E8                pea.l      [A6 - 0x818]
00002D6E  4EAD 1B2A                jsr        [A5 + 0x1B2A /* export_865, CODE:16 @ 00001E1C */]
00002D72  3E1F                     move.w     D7, [A7]+
00002D74  4A47                     tst.w      D7
00002D76  6706                     beq        +0x8 /* 00002D7E */
00002D78  4EAD 1812                jsr        [A5 + 0x1812 /* export_766, CODE:16 @ 00000208 */]
00002D7C  6056                     bra        +0x58 /* 00002DD4 */
label00002D7E:
00002D7E  41EE F7E8                lea.l      A0, [A6 - 0x818]
00002D82  43EE FDE8                lea.l      A1, [A6 - 0x218]
00002D86  707F                     moveq.l    D0, 0x7F
label00002D88:
00002D88  20D9                     move.l     [A0]+, [A1]+
00002D8A  51C8 FFFC                dbf        D0, -0x6 /* 00002D88 */
00002D8E  202E FFEC                move.l     D0, [A6 - 0x14]
00002D92  90BC 0000 0800           sub.l      D0, 0x800
00002D98  D0BC 0000 0200           add.l      D0, 0x200
00002D9E  2D40 FFEC                move.l     [A6 - 0x14], D0
label00002DA2:
00002DA2  5246                     addq.w     D6, 1
label00002DA4:
00002DA4  0C46 017A                cmpi.w     D6, 0x17A
00002DA8  6F00 FF7E                ble        -0x80 /* 00002D28 */
00002DAC  4267                     clr.w      -[A7]
00002DAE  3F2E FFF8                move.w     -[A7], [A6 - 0x8]
00002DB2  486E FFF4                pea.l      [A6 - 0xC]
00002DB6  41EE F7E8                lea.l      A0, [A6 - 0x818]
00002DBA  202E FFEC                move.l     D0, [A6 - 0x14]
00002DBE  9088                     sub.l      D0, A0
00002DC0  2F00                     move.l     -[A7], D0
00002DC2  486E F7E8                pea.l      [A6 - 0x818]
00002DC6  4EAD 1B2A                jsr        [A5 + 0x1B2A /* export_865, CODE:16 @ 00001E1C */]
00002DCA  3E1F                     move.w     D7, [A7]+
00002DCC  4A47                     tst.w      D7
00002DCE  6704                     beq        +0x6 /* 00002DD4 */
00002DD0  4EAD 1812                jsr        [A5 + 0x1812 /* export_766, CODE:16 @ 00000208 */]
label00002DD4:
00002DD4  4267                     clr.w      -[A7]
00002DD6  3F2E FFF8                move.w     -[A7], [A6 - 0x8]
00002DDA  4EAD 02F2                jsr        [A5 + 0x2F2 /* export_90, CODE:1 @ 0000486A */]
00002DDE  3E1F                     move.w     D7, [A7]+
00002DE0  4267                     clr.w      -[A7]
00002DE2  42A7                     clr.l      -[A7]
00002DE4  3F2E F75A                move.w     -[A7], [A6 - 0x8A6]
00002DE8  4EAD 032A                jsr        [A5 + 0x32A /* export_97, CODE:1 @ 00004986 */]
00002DEC  3E1F                     move.w     D7, [A7]+
label00002DEE:
00002DEE  4CDF 10E0                movem.l    D5,D6,D7,A4, [A7]+
00002DF2  4E5E                     unlink     A6
00002DF4  4E75                     rts
00002DF6  504E 5447 4D50 4E54      dc.b       "PNTGMPNT"
00002DFE  0000 4E56                ori.b      D0, 0x56 /* 'V' */
// begin alternate branch 00002E00-00002E04
fn00002E00:
00002E00  4E56 FFF8                link       A6, -0x0008
// end alternate branch 00002E00-00002E04
fn00002E00: // (misaligned)
00002E02  FFF8                     .invalid   <<F/7/7>>
00002E04  206E 0008                movea.l    A0, [A6 + 0x8]
00002E08  43EE FFF8                lea.l      A1, [A6 - 0x8]
00002E0C  22D8                     move.l     [A1]+, [A0]+
00002E0E  22D8                     move.l     [A1]+, [A0]+
00002E10  4267                     clr.w      -[A7]
00002E12  4EBA D2D6                jsr        [PC - 0x2D2A /* 000000EA */]
00002E16  101F                     move.b     D0, [A7]+
00002E18  6764                     beq        +0x66 /* 00002E7E */
00002E1A  2F2D D6B4                move.l     -[A7], [A5 - 0x294C]
00002E1E  2F2D D6C4                move.l     -[A7], [A5 - 0x293C]
00002E22  486D D500                pea.l      [A5 - 0x2B00]
00002E26  3F3C 0001                move.w     -[A7], 0x1
00002E2A  4EAD 1582                jsr        [A5 + 0x1582 /* export_684, CODE:15 @ 000005C0 */]
00002E2E  486D D500                pea.l      [A5 - 0x2B00]
00002E32  486D D68E                pea.l      [A5 - 0x2972]
00002E36  4EAD 1CEA                jsr        [A5 + 0x1CEA /* export_921, CODE:17 @ 00001DBA */]
00002E3A  486D D700                pea.l      [A5 - 0x2900]
00002E3E  A875                     syscall    SetPBits/SetPortBits
00002E40  486E FFF8                pea.l      [A6 - 0x8]
00002E44  A89D                     syscall    PenPat
00002E46  3F3C 000E                move.w     -[A7], 0xE
00002E4A  A89C                     syscall    PenMode
00002E4C  486D D500                pea.l      [A5 - 0x2B00]
00002E50  A8A2                     syscall    PaintRect
00002E52  2F2D D6B4                move.l     -[A7], [A5 - 0x294C]
00002E56  2F2D D6C0                move.l     -[A7], [A5 - 0x2940]
00002E5A  486D D500                pea.l      [A5 - 0x2B00]
00002E5E  3F3C 0001                move.w     -[A7], 0x1
00002E62  4EAD 1582                jsr        [A5 + 0x1582 /* export_684, CODE:15 @ 000005C0 */]
00002E66  486D D500                pea.l      [A5 - 0x2B00]
00002E6A  A8A2                     syscall    PaintRect
00002E6C  A89E                     syscall    PenNormal
00002E6E  486D ED82                pea.l      [A5 - 0x127E]
00002E72  4EBA 03AE                jsr        [PC + 0x3AE /* 00003222 */]
00002E76  4EBA FAD0                jsr        [PC - 0x530 /* 00002948 */]
00002E7A  4EBA FC0C                jsr        [PC - 0x3F4 /* 00002A88 */]
label00002E7E:
00002E7E  4E5E                     unlink     A6
00002E80  2E9F                     move.l     [A7], [A7]+
00002E82  4E75                     rts
fn00002E84:
00002E84  4E56 FFF8                link       A6, -0x0008
00002E88  4267                     clr.w      -[A7]
00002E8A  4EBA D25E                jsr        [PC - 0x2DA2 /* 000000EA */]
00002E8E  101F                     move.b     D0, [A7]+
00002E90  6700 00C6                beq        +0xC8 /* 00002F58 */
00002E94  41EE FFF8                lea.l      A0, [A6 - 0x8]
00002E98  43ED D500                lea.l      A1, [A5 - 0x2B00]
00002E9C  20D9                     move.l     [A0]+, [A1]+
00002E9E  20D9                     move.l     [A0]+, [A1]+
00002EA0  302D ED88                move.w     D0, [A5 - 0x1278]
00002EA4  906D D506                sub.w      D0, [A5 - 0x2AFA]
00002EA8  3D40 FFFA                move.w     [A6 - 0x6], D0
00002EAC  302D ED88                move.w     D0, [A5 - 0x1278]
00002EB0  906D D502                sub.w      D0, [A5 - 0x2AFE]
00002EB4  3D40 FFFE                move.w     [A6 - 0x2], D0
00002EB8  2F2D D6B4                move.l     -[A7], [A5 - 0x294C]
00002EBC  2F2D ECE4                move.l     -[A7], [A5 - 0x131C]
00002EC0  3F2D D500                move.w     -[A7], [A5 - 0x2B00]
00002EC4  3F2D D504                move.w     -[A7], [A5 - 0x2AFC]
00002EC8  4EAD 14E2                jsr        [A5 + 0x14E2 /* export_664, CODE:14 @ 000004B4 */]
00002ECC  486D ED44                pea.l      [A5 - 0x12BC]
00002ED0  486D D6D6                pea.l      [A5 - 0x292A]
00002ED4  486E FFF8                pea.l      [A6 - 0x8]
00002ED8  486D D500                pea.l      [A5 - 0x2B00]
00002EDC  4267                     clr.w      -[A7]
00002EDE  42A7                     clr.l      -[A7]
00002EE0  A8EC                     syscall    CopyBits
00002EE2  1B7C 0001 D68D           move.b     [A5 - 0x2973], 0x1
00002EE8  2F2D D6C4                move.l     -[A7], [A5 - 0x293C]
00002EEC  2F2D ECE4                move.l     -[A7], [A5 - 0x131C]
00002EF0  3F2D D500                move.w     -[A7], [A5 - 0x2B00]
00002EF4  3F2D D504                move.w     -[A7], [A5 - 0x2AFC]
00002EF8  4EAD 14E2                jsr        [A5 + 0x14E2 /* export_664, CODE:14 @ 000004B4 */]
00002EFC  486D ED44                pea.l      [A5 - 0x12BC]
00002F00  486D D70E                pea.l      [A5 - 0x28F2]
00002F04  486E FFF8                pea.l      [A6 - 0x8]
00002F08  486D D500                pea.l      [A5 - 0x2B00]
00002F0C  4267                     clr.w      -[A7]
00002F0E  42A7                     clr.l      -[A7]
00002F10  A8EC                     syscall    CopyBits
00002F12  2F2D D6C0                move.l     -[A7], [A5 - 0x2940]
00002F16  2F2D ECE4                move.l     -[A7], [A5 - 0x131C]
00002F1A  3F2D D500                move.w     -[A7], [A5 - 0x2B00]
00002F1E  3F2D D504                move.w     -[A7], [A5 - 0x2AFC]
00002F22  4EAD 14E2                jsr        [A5 + 0x14E2 /* export_664, CODE:14 @ 000004B4 */]
00002F26  486D ED44                pea.l      [A5 - 0x12BC]
00002F2A  486D D700                pea.l      [A5 - 0x2900]
00002F2E  486E FFF8                pea.l      [A6 - 0x8]
00002F32  486D D500                pea.l      [A5 - 0x2B00]
00002F36  4267                     clr.w      -[A7]
00002F38  42A7                     clr.l      -[A7]
00002F3A  A8EC                     syscall    CopyBits
00002F3C  486D ED82                pea.l      [A5 - 0x127E]
00002F40  4EBA 02E0                jsr        [PC + 0x2E0 /* 00003222 */]
00002F44  4EBA FA02                jsr        [PC - 0x5FE /* 00002948 */]
00002F48  41ED E2F2                lea.l      A0, [A5 - 0x1D0E]
00002F4C  43ED ED82                lea.l      A1, [A5 - 0x127E]
00002F50  20D9                     move.l     [A0]+, [A1]+
00002F52  20D9                     move.l     [A0]+, [A1]+
00002F54  4EBA FB32                jsr        [PC - 0x4CE /* 00002A88 */]
label00002F58:
00002F58  4E5E                     unlink     A6
00002F5A  4E75                     rts
fn00002F5C:
00002F5C  4E56 FFF8                link       A6, -0x0008
00002F60  4267                     clr.w      -[A7]
00002F62  4EBA D186                jsr        [PC - 0x2E7A /* 000000EA */]
00002F66  101F                     move.b     D0, [A7]+
00002F68  6700 00AE                beq        +0xB0 /* 00003018 */
00002F6C  41EE FFF8                lea.l      A0, [A6 - 0x8]
00002F70  43ED D500                lea.l      A1, [A5 - 0x2B00]
00002F74  20D9                     move.l     [A0]+, [A1]+
00002F76  20D9                     move.l     [A0]+, [A1]+
00002F78  302D ED86                move.w     D0, [A5 - 0x127A]
00002F7C  906D D504                sub.w      D0, [A5 - 0x2AFC]
00002F80  3D40 FFF8                move.w     [A6 - 0x8], D0
00002F84  302D ED86                move.w     D0, [A5 - 0x127A]
00002F88  906D D500                sub.w      D0, [A5 - 0x2B00]
00002F8C  3D40 FFFC                move.w     [A6 - 0x4], D0
00002F90  2F2D D6B4                move.l     -[A7], [A5 - 0x294C]
00002F94  2F2D ECE4                move.l     -[A7], [A5 - 0x131C]
00002F98  4EAD 14EA                jsr        [A5 + 0x14EA /* export_665, CODE:14 @ 000005FA */]
00002F9C  486D ED44                pea.l      [A5 - 0x12BC]
00002FA0  486D D6D6                pea.l      [A5 - 0x292A]
00002FA4  486E FFF8                pea.l      [A6 - 0x8]
00002FA8  486D D500                pea.l      [A5 - 0x2B00]
00002FAC  4267                     clr.w      -[A7]
00002FAE  42A7                     clr.l      -[A7]
00002FB0  A8EC                     syscall    CopyBits
00002FB2  1B7C 0001 D68D           move.b     [A5 - 0x2973], 0x1
00002FB8  2F2D D6C4                move.l     -[A7], [A5 - 0x293C]
00002FBC  2F2D ECE4                move.l     -[A7], [A5 - 0x131C]
00002FC0  4EAD 14EA                jsr        [A5 + 0x14EA /* export_665, CODE:14 @ 000005FA */]
00002FC4  486D ED44                pea.l      [A5 - 0x12BC]
00002FC8  486D D70E                pea.l      [A5 - 0x28F2]
00002FCC  486E FFF8                pea.l      [A6 - 0x8]
00002FD0  486D D500                pea.l      [A5 - 0x2B00]
00002FD4  4267                     clr.w      -[A7]
00002FD6  42A7                     clr.l      -[A7]
00002FD8  A8EC                     syscall    CopyBits
00002FDA  2F2D D6C0                move.l     -[A7], [A5 - 0x2940]
00002FDE  2F2D ECE4                move.l     -[A7], [A5 - 0x131C]
00002FE2  4EAD 14EA                jsr        [A5 + 0x14EA /* export_665, CODE:14 @ 000005FA */]
00002FE6  486D ED44                pea.l      [A5 - 0x12BC]
00002FEA  486D D700                pea.l      [A5 - 0x2900]
00002FEE  486E FFF8                pea.l      [A6 - 0x8]
00002FF2  486D D500                pea.l      [A5 - 0x2B00]
00002FF6  4267                     clr.w      -[A7]
00002FF8  42A7                     clr.l      -[A7]
00002FFA  A8EC                     syscall    CopyBits
00002FFC  486D ED82                pea.l      [A5 - 0x127E]
00003000  4EBA 0220                jsr        [PC + 0x220 /* 00003222 */]
00003004  4EBA F942                jsr        [PC - 0x6BE /* 00002948 */]
00003008  41ED E2F2                lea.l      A0, [A5 - 0x1D0E]
0000300C  43ED ED82                lea.l      A1, [A5 - 0x127E]
00003010  20D9                     move.l     [A0]+, [A1]+
00003012  20D9                     move.l     [A0]+, [A1]+
00003014  4EBA FA72                jsr        [PC - 0x58E /* 00002A88 */]
label00003018:
00003018  4E5E                     unlink     A6
0000301A  4E75                     rts
fn0000301C:
0000301C  4E56 FFFC                link       A6, -0x0004
00003020  486E FFFC                pea.l      [A6 - 0x4]
00003024  A874                     syscall    GetPort
00003026  2F2D EDC8                move.l     -[A7], [A5 - 0x1238]
0000302A  A873                     syscall    SetPort
0000302C  2F2E 0008                move.l     -[A7], [A6 + 0x8]
00003030  4EAD 20DA                jsr        [A5 + 0x20DA /* export_1047, CODE:20 @ 0000147C */]
00003034  2F2E FFFC                move.l     -[A7], [A6 - 0x4]
00003038  A873                     syscall    SetPort
0000303A  102D E225                move.b     D0, [A5 - 0x1DDB]
0000303E  6736                     beq        +0x38 /* 00003076 */
00003040  7008                     moveq.l    D0, 0x08
00003042  B06D EFDC                cmp.w      D0, [A5 - 0x1024]
00003046  6720                     beq        +0x22 /* 00003068 */
00003048  206E 0008                movea.l    A0, [A6 + 0x8]
0000304C  3028 0002                move.w     D0, [A0 + 0x2]
00003050  5940                     subq.w     D0, 4
00003052  206E 0008                movea.l    A0, [A6 + 0x8]
00003056  3140 0002                move.w     [A0 + 0x2], D0
0000305A  206E 0008                movea.l    A0, [A6 + 0x8]
0000305E  3010                     move.w     D0, [A0]
00003060  5940                     subq.w     D0, 4
00003062  206E 0008                movea.l    A0, [A6 + 0x8]
00003066  3080                     move.w     [A0], D0
label00003068:
00003068  2F2E 0008                move.l     -[A7], [A6 + 0x8]
0000306C  486D ED82                pea.l      [A5 - 0x127E]
00003070  486D D678                pea.l      [A5 - 0x2988]
00003074  A8F9                     syscall    MapPt
label00003076:
00003076  4E5E                     unlink     A6
00003078  2E9F                     move.l     [A7], [A7]+
0000307A  4E75                     rts
fn0000307C:
0000307C  4E56 0000                link       A6, 0
00003080  2F2E 0008                move.l     -[A7], [A6 + 0x8]
00003084  4EBA FF96                jsr        [PC - 0x6A /* 0000301C */]
00003088  2F2E 0008                move.l     -[A7], [A6 + 0x8]
0000308C  4EBA 023E                jsr        [PC + 0x23E /* 000032CC */]
00003090  4E5E                     unlink     A6
00003092  2E9F                     move.l     [A7], [A7]+
00003094  4E75                     rts
fn00003096:
00003096  4E56 FFF8                link       A6, -0x0008
0000309A  2F2E 0010                move.l     -[A7], [A6 + 0x10]
0000309E  4EBA 0A90                jsr        [PC + 0xA90 /* 00003B30 */]
000030A2  2F2E 000C                move.l     -[A7], [A6 + 0xC]
000030A6  4EBA 072A                jsr        [PC + 0x72A /* 000037D2 */]
000030AA  2F2E 0010                move.l     -[A7], [A6 + 0x10]
000030AE  2F2E 000C                move.l     -[A7], [A6 + 0xC]
000030B2  486E FFF8                pea.l      [A6 - 0x8]
000030B6  A8AC                     syscall    Pt2Rect
000030B8  302E FFFE                move.w     D0, [A6 - 0x2]
000030BC  5240                     addq.w     D0, 1
000030BE  3D40 FFFE                move.w     [A6 - 0x2], D0
000030C2  302E FFFC                move.w     D0, [A6 - 0x4]
000030C6  5240                     addq.w     D0, 1
000030C8  3D40 FFFC                move.w     [A6 - 0x4], D0
000030CC  486E FFF8                pea.l      [A6 - 0x8]
000030D0  206E 0008                movea.l    A0, [A6 + 0x8]
000030D4  4868 F03A                pea.l      [A0 - 0xFC6]
000030D8  4EAD 1CEA                jsr        [A5 + 0x1CEA /* export_921, CODE:17 @ 00001DBA */]
000030DC  102D E225                move.b     D0, [A5 - 0x1DDB]
000030E0  6708                     beq        +0xA /* 000030EA */
000030E2  486E FFF8                pea.l      [A6 - 0x8]
000030E6  4EBA 3166                jsr        [PC + 0x3166 /* 0000624E */]
label000030EA:
000030EA  4E5E                     unlink     A6
000030EC  205F                     movea.l    A0, [A7]+
000030EE  DEFC 000C                add.w      A7, 0xC
000030F2  4ED0                     jmp        [A0]
fn000030F4:
000030F4  4E56 F03A                link       A6, -0x0FC6
000030F8  48E7 0708                movem.l    -[A7], D5,D6,D7,A4
000030FC  A89E                     syscall    PenNormal
000030FE  3A2D EF1A                move.w     D5, [A5 - 0x10E6]
00003102  3F3C 0001                move.w     -[A7], 0x1
00003106  4EBA 2E16                jsr        [PC + 0x2E16 /* 00005F1E */]
0000310A  486E FFF4                pea.l      [A6 - 0xC]
0000310E  4EBA 232E                jsr        [PC + 0x232E /* 0000543E */]
00003112  42A7                     clr.l      -[A7]
00003114  4EBA 0206                jsr        [PC + 0x206 /* 0000331C */]
00003118  2C1F                     move.l     D6, [A7]+
0000311A  2F2D EDC8                move.l     -[A7], [A5 - 0x1238]
0000311E  A873                     syscall    SetPort
00003120  102D E225                move.b     D0, [A5 - 0x1DDB]
00003124  670C                     beq        +0xE /* 00003132 */
00003126  486D EE38                pea.l      [A5 - 0x11C8]
0000312A  A873                     syscall    SetPort
0000312C  486D D672                pea.l      [A5 - 0x298E]
00003130  A875                     syscall    SetPBits/SetPortBits
label00003132:
00003132  42A7                     clr.l      -[A7]
00003134  A8D8                     syscall    NewRgn
00003136  285F                     movea.l    A4, [A7]+
00003138  41EE F03A                lea.l      A0, [A6 - 0xFC6]
0000313C  43ED ED8A                lea.l      A1, [A5 - 0x1276]
00003140  20D9                     move.l     [A0]+, [A1]+
00003142  20D9                     move.l     [A0]+, [A1]+
00003144  A8DA                     syscall    OpenRgn
00003146  A897                     syscall    ShowPen
00003148  2F2E FFF4                move.l     -[A7], [A6 - 0xC]
0000314C  2F2E FFF4                move.l     -[A7], [A6 - 0xC]
00003150  2F0E                     move.l     -[A7], A6
00003152  4EBA FF42                jsr        [PC - 0xBE /* 00003096 */]
00003156  2D6E FFF4 FFF8           move.l     [A6 - 0x8], [A6 - 0xC]
0000315C  7E01                     moveq.l    D7, 0x01
label0000315E:
0000315E  486E FFFC                pea.l      [A6 - 0x4]
00003162  4EBA 22DA                jsr        [PC + 0x22DA /* 0000543E */]
00003166  302E FFFE                move.w     D0, [A6 - 0x2]
0000316A  906E FFFA                sub.w      D0, [A6 - 0x6]
0000316E  6A02                     bpl        +0x4 /* 00003172 */
00003170  4440                     neg.w      D0
label00003172:
00003172  322E FFFC                move.w     D1, [A6 - 0x4]
00003176  926E FFF8                sub.w      D1, [A6 - 0x8]
0000317A  6A02                     bpl        +0x4 /* 0000317E */
0000317C  4441                     neg.w      D1
label0000317E:
0000317E  D240                     add.w      D1, D0
00003180  7001                     moveq.l    D0, 0x01
00003182  B041                     cmp.w      D0, D1
00003184  6C24                     bge        +0x26 /* 000031AA */
00003186  2F2E FFF8                move.l     -[A7], [A6 - 0x8]
0000318A  2F2E FFFC                move.l     -[A7], [A6 - 0x4]
0000318E  2F0E                     move.l     -[A7], A6
00003190  4EBA FF04                jsr        [PC - 0xFC /* 00003096 */]
00003194  3007                     move.w     D0, D7
00003196  E540                     asl        D0.w, 2
00003198  41EE F04C                lea.l      A0, [A6 - 0xFB4]
0000319C  21AE FFFC 0000           move.l     [A0 + D0.w], [A6 - 0x4]
000031A2  5247                     addq.w     D7, 1
000031A4  2D6E FFFC FFF8           move.l     [A6 - 0x8], [A6 - 0x4]
label000031AA:
000031AA  4267                     clr.w      -[A7]
000031AC  4EAD 210A                jsr        [A5 + 0x210A /* export_1053, CODE:20 @ 000016F6 */]
000031B0  101F                     move.b     D0, [A7]+
000031B2  0A00 0001                xori.b     D0, 0x1
000031B6  2F00                     move.l     -[A7], D0
000031B8  4267                     clr.w      -[A7]
000031BA  4EAD 14F2                jsr        [A5 + 0x14F2 /* export_666, CODE:14 @ 00000634 */]
000031BE  321F                     move.w     D1, [A7]+
000031C0  201F                     move.l     D0, [A7]+
000031C2  48C1                     ext.l      D1
000031C4  BC81                     cmp.l      D6, D1
000031C6  5DC1                     slt        D1
000031C8  8001                     or.b       D0, D1
000031CA  0C47 03E8                cmpi.w     D7, 0x3E8
000031CE  57C1                     seq        D1
000031D0  8001                     or.b       D0, D1
000031D2  0240 0001                andi.w     D0, 0x1
000031D6  6786                     beq        -0x78 /* 0000315E */
000031D8  2F2E FFF8                move.l     -[A7], [A6 - 0x8]
000031DC  2F2E FFF4                move.l     -[A7], [A6 - 0xC]
000031E0  2F0E                     move.l     -[A7], A6
000031E2  4EBA FEB2                jsr        [PC - 0x14E /* 00003096 */]
000031E6  A896                     syscall    HidePen
000031E8  2F0C                     move.l     -[A7], A4
000031EA  A8DB                     syscall    CloseRgn
000031EC  3F05                     move.w     -[A7], D5
000031EE  4EBA 2D2E                jsr        [PC + 0x2D2E /* 00005F1E */]
000031F2  486D EE38                pea.l      [A5 - 0x11C8]
000031F6  A873                     syscall    SetPort
000031F8  486D ED44                pea.l      [A5 - 0x12BC]
000031FC  A875                     syscall    SetPBits/SetPortBits
000031FE  2D4C 0008                move.l     [A6 + 0x8], A4
00003202  41ED E2F2                lea.l      A0, [A5 - 0x1D0E]
00003206  43ED ED82                lea.l      A1, [A5 - 0x127E]
0000320A  20D9                     move.l     [A0]+, [A1]+
0000320C  20D9                     move.l     [A0]+, [A1]+
0000320E  4EBA DD98                jsr        [PC - 0x2268 /* 00000FA8 */]
00003212  486E F03A                pea.l      [A6 - 0xFC6]
00003216  4EBA 3F56                jsr        [PC + 0x3F56 /* 0000716E */]
0000321A  4CDF 10E0                movem.l    D5,D6,D7,A4, [A7]+
0000321E  4E5E                     unlink     A6
00003220  4E75                     rts
fn00003222:
00003222  4E56 FFF8                link       A6, -0x0008
00003226  206E 0008                movea.l    A0, [A6 + 0x8]
0000322A  43EE FFF8                lea.l      A1, [A6 - 0x8]
0000322E  22D8                     move.l     [A1]+, [A0]+
00003230  22D8                     move.l     [A1]+, [A0]+
00003232  486E FFF8                pea.l      [A6 - 0x8]
00003236  486D E2DA                pea.l      [A5 - 0x1D26]
0000323A  4EAD 1CEA                jsr        [A5 + 0x1CEA /* export_921, CODE:17 @ 00001DBA */]
0000323E  102D D50B                move.b     D0, [A5 - 0x2AF5]
00003242  C02D D50C                and.b      D0, [A5 - 0x2AF4]
00003246  671C                     beq        +0x1E /* 00003264 */
00003248  2F2D D6BC                move.l     -[A7], [A5 - 0x2944]
0000324C  2F2D D6B0                move.l     -[A7], [A5 - 0x2950]
00003250  42A7                     clr.l      -[A7]
00003252  2F2D ECD4                move.l     -[A7], [A5 - 0x132C]
00003256  486E FFF8                pea.l      [A6 - 0x8]
0000325A  3F3C 0003                move.w     -[A7], 0x3
0000325E  4EAD 157A                jsr        [A5 + 0x157A /* export_683, CODE:15 @ 000004C6 */]
00003262  6012                     bra        +0x14 /* 00003276 */
label00003264:
00003264  2F2D D6BC                move.l     -[A7], [A5 - 0x2944]
00003268  2F2D ECD4                move.l     -[A7], [A5 - 0x132C]
0000326C  486E FFF8                pea.l      [A6 - 0x8]
00003270  4267                     clr.w      -[A7]
00003272  4EAD 1582                jsr        [A5 + 0x1582 /* export_684, CODE:15 @ 000005C0 */]
label00003276:
00003276  102D D50C                move.b     D0, [A5 - 0x2AF4]
0000327A  671C                     beq        +0x1E /* 00003298 */
0000327C  2F2D D6B8                move.l     -[A7], [A5 - 0x2948]
00003280  2F2D D6B0                move.l     -[A7], [A5 - 0x2950]
00003284  42A7                     clr.l      -[A7]
00003286  2F2D ECD0                move.l     -[A7], [A5 - 0x1330]
0000328A  486E FFF8                pea.l      [A6 - 0x8]
0000328E  3F3C 0003                move.w     -[A7], 0x3
00003292  4EAD 157A                jsr        [A5 + 0x157A /* export_683, CODE:15 @ 000004C6 */]
00003296  6012                     bra        +0x14 /* 000032AA */
label00003298:
00003298  2F2D D6B8                move.l     -[A7], [A5 - 0x2948]
0000329C  2F2D ECD0                move.l     -[A7], [A5 - 0x1330]
000032A0  486E FFF8                pea.l      [A6 - 0x8]
000032A4  4267                     clr.w      -[A7]
000032A6  4EAD 1582                jsr        [A5 + 0x1582 /* export_684, CODE:15 @ 000005C0 */]
label000032AA:
000032AA  4E5E                     unlink     A6
000032AC  2E9F                     move.l     [A7], [A7]+
000032AE  4E75                     rts
fn000032B0:
000032B0  4E56 0000                link       A6, 0
000032B4  102D EFDF                move.b     D0, [A5 - 0x1021]
000032B8  6708                     beq        +0xA /* 000032C2 */
000032BA  2D6D E2E6 0008           move.l     [A6 + 0x8], [A5 - 0x1D1A]
000032C0  6006                     bra        +0x8 /* 000032C8 */
label000032C2:
000032C2  2D6D E2EA 0008           move.l     [A6 + 0x8], [A5 - 0x1D16]
label000032C8:
000032C8  4E5E                     unlink     A6
000032CA  4E75                     rts
fn000032CC:
000032CC  4E56 0000                link       A6, 0
000032D0  102D EFD9                move.b     D0, [A5 - 0x1027]
000032D4  C02D EF23                and.b      D0, [A5 - 0x10DD]
000032D8  673C                     beq        +0x3E /* 00003316 */
000032DA  206E 0008                movea.l    A0, [A6 + 0x8]
000032DE  2F08                     move.l     -[A7], A0
000032E0  4267                     clr.w      -[A7]
000032E2  226E 0008                movea.l    A1, [A6 + 0x8]
000032E6  3029 0002                move.w     D0, [A1 + 0x2]
000032EA  5840                     addq.w     D0, 4
000032EC  3F00                     move.w     -[A7], D0
000032EE  4EAD 1B22                jsr        [A5 + 0x1B22 /* export_864, CODE:16 @ 00001E04 */]
000032F2  301F                     move.w     D0, [A7]+
000032F4  205F                     movea.l    A0, [A7]+
000032F6  3140 0002                move.w     [A0 + 0x2], D0
000032FA  206E 0008                movea.l    A0, [A6 + 0x8]
000032FE  2F08                     move.l     -[A7], A0
00003300  4267                     clr.w      -[A7]
00003302  226E 0008                movea.l    A1, [A6 + 0x8]
00003306  3011                     move.w     D0, [A1]
00003308  5840                     addq.w     D0, 4
0000330A  3F00                     move.w     -[A7], D0
0000330C  4EAD 1B22                jsr        [A5 + 0x1B22 /* export_864, CODE:16 @ 00001E04 */]
00003310  301F                     move.w     D0, [A7]+
00003312  205F                     movea.l    A0, [A7]+
00003314  3080                     move.w     [A0], D0
label00003316:
00003316  4E5E                     unlink     A6
00003318  2E9F                     move.l     [A7], [A7]+
0000331A  4E75                     rts
fn0000331C:
0000331C  4E56 FFFC                link       A6, -0x0004
00003320  2F07                     move.l     -[A7], D7
00003322  42A7                     clr.l      -[A7]
00003324  4EAD 1F4A                jsr        [A5 + 0x1F4A /* export_997, CODE:19 @ 00001378 */]
00003328  201F                     move.l     D0, [A7]+
0000332A  90BC 0000 1948           sub.l      D0, 0x1948
00003330  2E00                     move.l     D7, D0
00003332  E28F                     lsr        D7, 1
00003334  0C87 0000 4E20           cmpi.l     D7, 0x4E20 /* 'N ' */
0000333A  6F06                     ble        +0x8 /* 00003342 */
0000333C  2E3C 0000 4E20           move.l     D7, 0x4E20 /* 'N ' */
label00003342:
00003342  2D47 0008                move.l     [A6 + 0x8], D7
00003346  2E1F                     move.l     D7, [A7]+
00003348  4E5E                     unlink     A6
0000334A  4E75                     rts
fn0000334C:
0000334C  4E56 FFFA                link       A6, -0x0006
00003350  48E7 0300                movem.l    -[A7], D6,D7
00003354  42A7                     clr.l      -[A7]
00003356  A975                     syscall    TickCount
00003358  2E1F                     move.l     D7, [A7]+
0000335A  BEAD D4D8                cmp.l      D7, [A5 - 0x2B28]
0000335E  5EC0                     sgt        D0
00003360  C02D D4E9                and.b      D0, [A5 - 0x2B17]
00003364  6712                     beq        +0x14 /* 00003378 */
00003366  4EBA 01FE                jsr        [PC + 0x1FE /* 00003566 */]
0000336A  42A7                     clr.l      -[A7]
0000336C  2EB8 02F4                move.l     [A7], [0x000002F4 /* CaretTime */]
00003370  201F                     move.l     D0, [A7]+
00003372  D087                     add.l      D0, D7
00003374  2B40 D4D8                move.l     [A5 - 0x2B28], D0
label00003378:
00003378  102D D509                move.b     D0, [A5 - 0x2AF7]
0000337C  802D D50D                or.b       D0, [A5 - 0x2AF3]
00003380  6734                     beq        +0x36 /* 000033B6 */
00003382  3C2D E2C8                move.w     D6, [A5 - 0x1D38]
00003386  102D E0DE                move.b     D0, [A5 - 0x1F22]
0000338A  6702                     beq        +0x4 /* 0000338E */
0000338C  E28F                     lsr        D7, 1
label0000338E:
0000338E  102D E225                move.b     D0, [A5 - 0x1DDB]
00003392  670C                     beq        +0xE /* 000033A0 */
00003394  2F07                     move.l     -[A7], D7
00003396  7003                     moveq.l    D0, 0x03
00003398  2F00                     move.l     -[A7], D0
0000339A  4EAD 04F2                jsr        [A5 + 0x4F2 /* export_154, CODE:1 @ 00005224 */]
0000339E  2E1F                     move.l     D7, [A7]+
label000033A0:
000033A0  2007                     move.l     D0, D7
000033A2  C0BC 0000 0007           and.l      D0, 0x7
000033A8  3B40 E2C8                move.w     [A5 - 0x1D38], D0
000033AC  BC6D E2C8                cmp.w      D6, [A5 - 0x1D38]
000033B0  6704                     beq        +0x6 /* 000033B6 */
000033B2  4EBA 2CE8                jsr        [PC + 0x2CE8 /* 0000609C */]
label000033B6:
000033B6  4CDF 00C0                movem.l    D6,D7, [A7]+
000033BA  4E5E                     unlink     A6
000033BC  4E75                     rts
fn000033BE:
000033BE  4E56 F6C6                link       A6, -0x093A
000033C2  48E7 0308                movem.l    -[A7], D6,D7,A4
000033C6  2D7C 504E 5447 F710      move.l     [A6 - 0x8F0], 0x504E5447 /* 'PNTG' */
000033CE  426E F6CC                clr.w      [A6 - 0x934]
000033D2  2F2D ED72                move.l     -[A7], [A5 - 0x128E]
000033D6  487A 018C                pea.l      [PC + 0x18C /* 00003564, value 0x1204E56 */]
000033DA  42A7                     clr.l      -[A7]
000033DC  3F3C 0001                move.w     -[A7], 0x1
000033E0  486E F710                pea.l      [A6 - 0x8F0]
000033E4  42A7                     clr.l      -[A7]
000033E6  486E F6C6                pea.l      [A6 - 0x93A]
000033EA  4EAD 040A                jsr        [A5 + 0x40A /* export_125, CODE:1 @ 00004D1A */]
000033EE  2F2D EDC8                move.l     -[A7], [A5 - 0x1238]
000033F2  4EAD 22E2                jsr        [A5 + 0x22E2 /* export_1112, CODE:20 @ 0000633A */]
000033F6  102E F6C6                move.b     D0, [A6 - 0x93A]
000033FA  6604                     bne        +0x6 /* 00003400 */
000033FC  6000 015E                bra        +0x160 /* 0000355C */
label00003400:
00003400  4267                     clr.w      -[A7]
00003402  486E F6D0                pea.l      [A6 - 0x930]
00003406  3F2E F6CC                move.w     -[A7], [A6 - 0x934]
0000340A  486E FFFA                pea.l      [A6 - 0x6]
0000340E  4EAD 02EA                jsr        [A5 + 0x2EA /* export_89, CODE:1 @ 00004832 */]
00003412  3E1F                     move.w     D7, [A7]+
00003414  4A47                     tst.w      D7
00003416  6708                     beq        +0xA /* 00003420 */
00003418  4EAD 1812                jsr        [A5 + 0x1812 /* export_766, CODE:16 @ 00000208 */]
0000341C  6000 0132                bra        +0x134 /* 00003550 */
label00003420:
00003420  422D D509                clr.b      [A5 - 0x2AF7]
00003424  422D D50D                clr.b      [A5 - 0x2AF3]
00003428  4EBA CD38                jsr        [PC - 0x32C8 /* 00000162 */]
0000342C  2F2D D6B4                move.l     -[A7], [A5 - 0x294C]
00003430  70FF                     moveq.l    D0, 0xFFFFFFFF
00003432  2F00                     move.l     -[A7], D0
00003434  486D ED82                pea.l      [A5 - 0x127E]
00003438  4EAD 1722                jsr        [A5 + 0x1722 /* export_736, CODE:15 @ 00004B16 */]
0000343C  2F2D D6C4                move.l     -[A7], [A5 - 0x293C]
00003440  70FF                     moveq.l    D0, 0xFFFFFFFF
00003442  2F00                     move.l     -[A7], D0
00003444  486D ED82                pea.l      [A5 - 0x127E]
00003448  4EAD 1722                jsr        [A5 + 0x1722 /* export_736, CODE:15 @ 00004B16 */]
0000344C  1B7C 0001 D68D           move.b     [A5 - 0x2973], 0x1
00003452  41ED D68E                lea.l      A0, [A5 - 0x2972]
00003456  43ED ED82                lea.l      A1, [A5 - 0x127E]
0000345A  20D9                     move.l     [A0]+, [A1]+
0000345C  20D9                     move.l     [A0]+, [A1]+
0000345E  41ED D500                lea.l      A0, [A5 - 0x2B00]
00003462  43ED ED82                lea.l      A1, [A5 - 0x127E]
00003466  20D9                     move.l     [A0]+, [A1]+
00003468  20D9                     move.l     [A0]+, [A1]+
0000346A  4EAD 181A                jsr        [A5 + 0x181A /* export_767, CODE:16 @ 00000216 */]
0000346E  2D7C 0000 0200 FFF6      move.l     [A6 - 0xA], 0x200
00003476  4267                     clr.w      -[A7]
00003478  3F2E FFFA                move.w     -[A7], [A6 - 0x6]
0000347C  486E FFF6                pea.l      [A6 - 0xA]
00003480  2F3C 0000 0800           move.l     -[A7], 0x800
00003486  486E F7EA                pea.l      [A6 - 0x816]
0000348A  4EAD 1B32                jsr        [A5 + 0x1B32 /* export_866, CODE:16 @ 00001E20 */]
0000348E  3E1F                     move.w     D7, [A7]+
00003490  41EE F7EA                lea.l      A0, [A6 - 0x816]
00003494  2D48 FFF2                move.l     [A6 - 0xE], A0
00003498  286D D6C0                movea.l    A4, [A5 - 0x2940]
0000349C  4246                     clr.w      D6
0000349E  6000 008E                bra        +0x90 /* 0000352E */
label000034A2:
000034A2  4EAD 181A                jsr        [A5 + 0x181A /* export_767, CODE:16 @ 00000216 */]
000034A6  41EE F722                lea.l      A0, [A6 - 0x8DE]
000034AA  2D48 FFEA                move.l     [A6 - 0x16], A0
000034AE  486E FFF2                pea.l      [A6 - 0xE]
000034B2  486E FFEA                pea.l      [A6 - 0x16]
000034B6  3F3C 0048                move.w     -[A7], 0x48 /* 'H' */
000034BA  A8D0                     syscall    UnpackBits
000034BC  41EE F722                lea.l      A0, [A6 - 0x8DE]
000034C0  202E FFEA                move.l     D0, [A6 - 0x16]
000034C4  9088                     sub.l      D0, A0
000034C6  7248                     moveq.l    D1, 0x48
000034C8  B280                     cmp.l      D1, D0
000034CA  6706                     beq        +0x8 /* 000034D2 */
000034CC  4EAD 1812                jsr        [A5 + 0x1812 /* export_766, CODE:16 @ 00000208 */]
000034D0  6064                     bra        +0x66 /* 00003536 */
label000034D2:
000034D2  486E F722                pea.l      [A6 - 0x8DE]
000034D6  2F0C                     move.l     -[A7], A4
000034D8  7040                     moveq.l    D0, 0x40
000034DA  2F00                     move.l     -[A7], D0
000034DC  4EAD 024A                jsr        [A5 + 0x24A /* export_69, CODE:1 @ 000046A6 */]
000034E0  7040                     moveq.l    D0, 0x40
000034E2  D9C0                     add.l      A4, D0
000034E4  41EE FDEA                lea.l      A0, [A6 - 0x216]
000034E8  B1EE FFF2                cmpa.l     A0, [A6 - 0xE]
000034EC  6E3E                     bgt        +0x40 /* 0000352C */
000034EE  41EE F7EA                lea.l      A0, [A6 - 0x816]
000034F2  43EE FDEA                lea.l      A1, [A6 - 0x216]
000034F6  707F                     moveq.l    D0, 0x7F
label000034F8:
000034F8  20D9                     move.l     [A0]+, [A1]+
000034FA  51C8 FFFC                dbf        D0, -0x6 /* 000034F8 */
000034FE  4267                     clr.w      -[A7]
00003500  3F2E FFFA                move.w     -[A7], [A6 - 0x6]
00003504  486E FFF6                pea.l      [A6 - 0xA]
00003508  2F3C 0000 0600           move.l     -[A7], 0x600
0000350E  486E F9EA                pea.l      [A6 - 0x616]
00003512  4EAD 1B32                jsr        [A5 + 0x1B32 /* export_866, CODE:16 @ 00001E20 */]
00003516  3E1F                     move.w     D7, [A7]+
00003518  202E FFF2                move.l     D0, [A6 - 0xE]
0000351C  90BC 0000 0800           sub.l      D0, 0x800
00003522  D0BC 0000 0200           add.l      D0, 0x200
00003528  2D40 FFF2                move.l     [A6 - 0xE], D0
label0000352C:
0000352C  5246                     addq.w     D6, 1
label0000352E:
0000352E  0C46 0155                cmpi.w     D6, 0x155
00003532  6F00 FF6E                ble        -0x90 /* 000034A2 */
label00003536:
00003536  4EBA F410                jsr        [PC - 0xBF0 /* 00002948 */]
0000353A  41ED E2F2                lea.l      A0, [A5 - 0x1D0E]
0000353E  43ED ED82                lea.l      A1, [A5 - 0x127E]
00003542  20D9                     move.l     [A0]+, [A1]+
00003544  20D9                     move.l     [A0]+, [A1]+
00003546  4EBA DA40                jsr        [PC - 0x25C0 /* 00000F88 */]
0000354A  1B7C 0001 D50E           move.b     [A5 - 0x2AF2], 0x1
label00003550:
00003550  4267                     clr.w      -[A7]
00003552  3F2E FFFA                move.w     -[A7], [A6 - 0x6]
00003556  4EAD 02F2                jsr        [A5 + 0x2F2 /* export_90, CODE:1 @ 0000486A */]
0000355A  3E1F                     move.w     D7, [A7]+
label0000355C:
0000355C  4CDF 10C0                movem.l    D6,D7,A4, [A7]+
00003560  4E5E                     unlink     A6
00003562  4E75                     rts
00003564  0120                     btst       -[A0], D0
fn00003566:
00003566  4E56 FFE2                link       A6, -0x001E
0000356A  48E7 0300                movem.l    -[A7], D6,D7
0000356E  0A2D 0001 D4DD           xori.b     [A5 - 0x2B23], 0x1
00003574  4A6D FD8A                tst.w      [A5 - 0x276]
00003578  5DC0                     slt        D0
0000357A  122D EFDF                move.b     D1, [A5 - 0x1021]
0000357E  C22D E2E4                and.b      D1, [A5 - 0x1D1C]
00003582  8001                     or.b       D0, D1
00003584  122D EFDF                move.b     D1, [A5 - 0x1021]
00003588  0A01 0001                xori.b     D1, 0x1
0000358C  C22D E2E5                and.b      D1, [A5 - 0x1D1B]
00003590  8001                     or.b       D0, D1
00003592  0240 0001                andi.w     D0, 0x1
00003596  6704                     beq        +0x6 /* 0000359C */
00003598  6000 009E                bra        +0xA0 /* 00003638 */
label0000359C:
0000359C  302D E204                move.w     D0, [A5 - 0x1DFC]
000035A0  48C0                     ext.l      D0
000035A2  81FC 0004                divs.w     D0, 0x4
000035A6  3E00                     move.w     D7, D0
000035A8  3C2D E204                move.w     D6, [A5 - 0x1DFC]
000035AC  9C47                     sub.w      D6, D7
000035AE  3D6D D4E0 FFE4           move.w     [A6 - 0x1C], [A5 - 0x2B20]
000035B4  302E FFE4                move.w     D0, [A6 - 0x1C]
000035B8  5240                     addq.w     D0, 1
000035BA  3D40 FFE8                move.w     [A6 - 0x18], D0
000035BE  302D D4DE                move.w     D0, [A5 - 0x2B22]
000035C2  9046                     sub.w      D0, D6
000035C4  3D40 FFE2                move.w     [A6 - 0x1E], D0
000035C8  3007                     move.w     D0, D7
000035CA  D06D D4DE                add.w      D0, [A5 - 0x2B22]
000035CE  3D40 FFE6                move.w     [A6 - 0x1A], D0
000035D2  4267                     clr.w      -[A7]
000035D4  486D ED82                pea.l      [A5 - 0x127E]
000035D8  486E FFE2                pea.l      [A6 - 0x1E]
000035DC  486E FFE2                pea.l      [A6 - 0x1E]
000035E0  A8AA                     syscall    SectRect
000035E2  101F                     move.b     D0, [A7]+
000035E4  6602                     bne        +0x4 /* 000035E8 */
000035E6  6050                     bra        +0x52 /* 00003638 */
label000035E8:
000035E8  486E FFFC                pea.l      [A6 - 0x4]
000035EC  A874                     syscall    GetPort
000035EE  102D E225                move.b     D0, [A5 - 0x1DDB]
000035F2  6732                     beq        +0x34 /* 00003626 */
000035F4  486D EE38                pea.l      [A5 - 0x11C8]
000035F8  A873                     syscall    SetPort
000035FA  41EE FFEE                lea.l      A0, [A6 - 0x12]
000035FE  43ED EE3A                lea.l      A1, [A5 - 0x11C6]
00003602  20D9                     move.l     [A0]+, [A1]+
00003604  20D9                     move.l     [A0]+, [A1]+
00003606  20D9                     move.l     [A0]+, [A1]+
00003608  3091                     move.w     [A0], [A1]
0000360A  486D D672                pea.l      [A5 - 0x298E]
0000360E  A875                     syscall    SetPBits/SetPortBits
00003610  486E FFE2                pea.l      [A6 - 0x1E]
00003614  A8A4                     syscall    InvertRect
00003616  486E FFEE                pea.l      [A6 - 0x12]
0000361A  A875                     syscall    SetPBits/SetPortBits
0000361C  486E FFE2                pea.l      [A6 - 0x1E]
00003620  4EBA 2C2C                jsr        [PC + 0x2C2C /* 0000624E */]
00003624  600C                     bra        +0xE /* 00003632 */
label00003626:
00003626  2F2D EDC8                move.l     -[A7], [A5 - 0x1238]
0000362A  A873                     syscall    SetPort
0000362C  486E FFE2                pea.l      [A6 - 0x1E]
00003630  A8A4                     syscall    InvertRect
label00003632:
00003632  2F2E FFFC                move.l     -[A7], [A6 - 0x4]
00003636  A873                     syscall    SetPort
label00003638:
00003638  4CDF 00C0                movem.l    D6,D7, [A7]+
0000363C  4E5E                     unlink     A6
0000363E  4E75                     rts
fn00003640:
00003640  4E56 0000                link       A6, 0
00003644  4267                     clr.w      -[A7]
00003646  4EBA CAA2                jsr        [PC - 0x355E /* 000000EA */]
0000364A  101F                     move.b     D0, [A7]+
0000364C  6730                     beq        +0x32 /* 0000367E */
0000364E  2F2D D6B4                move.l     -[A7], [A5 - 0x294C]
00003652  2F2D D6C0                move.l     -[A7], [A5 - 0x2940]
00003656  486D D500                pea.l      [A5 - 0x2B00]
0000365A  3F3C 0002                move.w     -[A7], 0x2
0000365E  4EAD 1582                jsr        [A5 + 0x1582 /* export_684, CODE:15 @ 000005C0 */]
00003662  486D D500                pea.l      [A5 - 0x2B00]
00003666  486D D68E                pea.l      [A5 - 0x2972]
0000366A  4EAD 1CEA                jsr        [A5 + 0x1CEA /* export_921, CODE:17 @ 00001DBA */]
0000366E  486D ED82                pea.l      [A5 - 0x127E]
00003672  4EBA FBAE                jsr        [PC - 0x452 /* 00003222 */]
00003676  4EBA F2D0                jsr        [PC - 0xD30 /* 00002948 */]
0000367A  4EBA F40C                jsr        [PC - 0xBF4 /* 00002A88 */]
label0000367E:
0000367E  4E5E                     unlink     A6
00003680  4E75                     rts
fn00003682:
00003682  4E56 0000                link       A6, 0
00003686  A89E                     syscall    PenNormal
00003688  3F2D EF1A                move.w     -[A7], [A5 - 0x10E6]
0000368C  3F2D EF1A                move.w     -[A7], [A5 - 0x10E6]
00003690  A89B                     syscall    PenSize
00003692  102D F003                move.b     D0, [A5 - 0xFFD]
00003696  6706                     beq        +0x8 /* 0000369E */
00003698  486D EF44                pea.l      [A5 - 0x10BC]
0000369C  A89D                     syscall    PenPat
label0000369E:
0000369E  4E5E                     unlink     A6
000036A0  4E75                     rts
fn000036A2:
000036A2  4E56 FFE6                link       A6, -0x001A
000036A6  48E7 0108                movem.l    -[A7], D7,A4
000036AA  2F2E 000C                move.l     -[A7], [A6 + 0xC]
000036AE  2F2E 0008                move.l     -[A7], [A6 + 0x8]
000036B2  486E FFE8                pea.l      [A6 - 0x18]
000036B6  A8AC                     syscall    Pt2Rect
000036B8  3E2D EF1A                move.w     D7, [A5 - 0x10E6]
000036BC  9E6D EF18                sub.w      D7, [A5 - 0x10E8]
000036C0  486E FFE8                pea.l      [A6 - 0x18]
000036C4  3007                     move.w     D0, D7
000036C6  4440                     neg.w      D0
000036C8  3F00                     move.w     -[A7], D0
000036CA  3007                     move.w     D0, D7
000036CC  4440                     neg.w      D0
000036CE  3F00                     move.w     -[A7], D0
000036D0  A8A9                     syscall    InsetRect
000036D2  486E FFFC                pea.l      [A6 - 0x4]
000036D6  A874                     syscall    GetPort
000036D8  486D EE38                pea.l      [A5 - 0x11C8]
000036DC  A873                     syscall    SetPort
000036DE  486D D700                pea.l      [A5 - 0x2900]
000036E2  A875                     syscall    SetPBits/SetPortBits
000036E4  2F2E 000C                move.l     -[A7], [A6 + 0xC]
000036E8  4EBA 0446                jsr        [PC + 0x446 /* 00003B30 */]
000036EC  2F2E 0008                move.l     -[A7], [A6 + 0x8]
000036F0  4EBA 00E0                jsr        [PC + 0xE0 /* 000037D2 */]
000036F4  486D D70E                pea.l      [A5 - 0x28F2]
000036F8  A875                     syscall    SetPBits/SetPortBits
000036FA  41EE FFF4                lea.l      A0, [A6 - 0xC]
000036FE  43ED EE72                lea.l      A1, [A5 - 0x118E]
00003702  20D9                     move.l     [A0]+, [A1]+
00003704  20D9                     move.l     [A0]+, [A1]+
00003706  286D EE98                movea.l    A4, [A5 - 0x1168]
0000370A  486D FE98                pea.l      [A5 - 0x168]
0000370E  A89D                     syscall    PenPat
00003710  7000                     moveq.l    D0, 0x00
00003712  2B40 EE98                move.l     [A5 - 0x1168], D0
00003716  2F2E 000C                move.l     -[A7], [A6 + 0xC]
0000371A  4EBA 0414                jsr        [PC + 0x414 /* 00003B30 */]
0000371E  2F2E 0008                move.l     -[A7], [A6 + 0x8]
00003722  4EBA 00AE                jsr        [PC + 0xAE /* 000037D2 */]
00003726  486E FFF4                pea.l      [A6 - 0xC]
0000372A  A89D                     syscall    PenPat
0000372C  2B4C EE98                move.l     [A5 - 0x1168], A4
00003730  486E FFE8                pea.l      [A6 - 0x18]
00003734  486D D68E                pea.l      [A5 - 0x2972]
00003738  4EAD 1CEA                jsr        [A5 + 0x1CEA /* export_921, CODE:17 @ 00001DBA */]
0000373C  486E FFE8                pea.l      [A6 - 0x18]
00003740  486E FFE8                pea.l      [A6 - 0x18]
00003744  4267                     clr.w      -[A7]
00003746  4EBA 2C5E                jsr        [PC + 0x2C5E /* 000063A6 */]
0000374A  486E FFE8                pea.l      [A6 - 0x18]
0000374E  486D E2F2                pea.l      [A5 - 0x1D0E]
00003752  4EAD 1CEA                jsr        [A5 + 0x1CEA /* export_921, CODE:17 @ 00001DBA */]
00003756  4EBA D830                jsr        [PC - 0x27D0 /* 00000F88 */]
0000375A  486D ED44                pea.l      [A5 - 0x12BC]
0000375E  A875                     syscall    SetPBits/SetPortBits
00003760  2F2E FFFC                move.l     -[A7], [A6 - 0x4]
00003764  A873                     syscall    SetPort
00003766  4CDF 1080                movem.l    D7,A4, [A7]+
0000376A  4E5E                     unlink     A6
0000376C  205F                     movea.l    A0, [A7]+
0000376E  504F                     addq.w     A7, 8
00003770  4ED0                     jmp        [A0]
fn00003772:
00003772  4E56 FFFC                link       A6, -0x0004
00003776  2F07                     move.l     -[A7], D7
00003778  4AAD D482                tst.l      [A5 - 0x2B7E]
0000377C  6714                     beq        +0x16 /* 00003792 */
0000377E  2F2D D482                move.l     -[A7], [A5 - 0x2B7E]
00003782  4EAD 18D2                jsr        [A5 + 0x18D2 /* export_790, CODE:16 @ 0000083E */]
00003786  7000                     moveq.l    D0, 0x00
00003788  2B40 D482                move.l     [A5 - 0x2B7E], D0
0000378C  7000                     moveq.l    D0, 0x00
0000378E  2B40 D47E                move.l     [A5 - 0x2B82], D0
label00003792:
00003792  3D6D D4D6 FFFC           move.w     [A6 - 0x4], [A5 - 0x2B2A]
00003798  7E01                     moveq.l    D7, 0x01
0000379A  6016                     bra        +0x18 /* 000037B2 */
label0000379C:
0000379C  3007                     move.w     D0, D7
0000379E  5340                     subq.w     D0, 1
000037A0  41ED D486                lea.l      A0, [A5 - 0x2B7A]
000037A4  E540                     asl        D0.w, 2
000037A6  2F30 0000                move.l     -[A7], [A0 + D0.w]
000037AA  4EAD 18D2                jsr        [A5 + 0x18D2 /* export_790, CODE:16 @ 0000083E */]
000037AE  5247                     addq.w     D7, 1
000037B0  6906                     bvs        +0x8 /* 000037B8 */
label000037B2:
000037B2  BE6E FFFC                cmp.w      D7, [A6 - 0x4]
000037B6  6FE4                     ble        -0x1A /* 0000379C */
label000037B8:
000037B8  426D D4D6                clr.w      [A5 - 0x2B2A]
000037BC  422D D4E9                clr.b      [A5 - 0x2B17]
000037C0  422D D50D                clr.b      [A5 - 0x2AF3]
000037C4  422D D509                clr.b      [A5 - 0x2AF7]
000037C8  4EBA D7BE                jsr        [PC - 0x2842 /* 00000F88 */]
000037CC  2E1F                     move.l     D7, [A7]+
000037CE  4E5E                     unlink     A6
000037D0  4E75                     rts
fn000037D2:
000037D2  4E56 0000                link       A6, 0
000037D6  302E 000A                move.w     D0, [A6 + 0xA]
000037DA  906D EF18                sub.w      D0, [A5 - 0x10E8]
000037DE  3F00                     move.w     -[A7], D0
000037E0  302E 0008                move.w     D0, [A6 + 0x8]
000037E4  906D EF18                sub.w      D0, [A5 - 0x10E8]
000037E8  3F00                     move.w     -[A7], D0
000037EA  A891                     syscall    LineTo
000037EC  4E5E                     unlink     A6
000037EE  2E9F                     move.l     [A7], [A7]+
000037F0  4E75                     rts
fn000037F2:
000037F2  4E56 FFF8                link       A6, -0x0008
000037F6  48E7 0318                movem.l    -[A7], D6,D7,A3,A4
000037FA  286E 0010                movea.l    A4, [A6 + 0x10]
000037FE  2E2E 000C                move.l     D7, [A6 + 0xC]
00003802  2C2E 0008                move.l     D6, [A6 + 0x8]
00003806  422E 0014                clr.b      [A6 + 0x14]
0000380A  4267                     clr.w      -[A7]
0000380C  2F14                     move.l     -[A7], [A4]
0000380E  4EAD 1912                jsr        [A5 + 0x1912 /* export_798, CODE:16 @ 00000BA6 */]
00003812  101F                     move.b     D0, [A7]+
00003814  6718                     beq        +0x1A /* 0000382E */
00003816  2F14                     move.l     -[A7], [A4]
00003818  2F3C 0000 558C           move.l     -[A7], 0x558C
0000381E  4EAD 197A                jsr        [A5 + 0x197A /* export_811, CODE:16 @ 00000E5A */]
00003822  4267                     clr.w      -[A7]
00003824  3EB8 0220                move.w     [A7], [0x00000220 /* MemErr */]
00003828  4A5F                     tst.w      [A7]+
0000382A  6702                     beq        +0x4 /* 0000382E */
0000382C  605E                     bra        +0x60 /* 0000388C */
label0000382E:
0000382E  1D7C 0001 0014           move.b     [A6 + 0x14], 0x1
00003834  2F14                     move.l     -[A7], [A4]
00003836  4EAD 01DA                jsr        [A5 + 0x1DA /* export_55, CODE:1 @ 000043FE */]
0000383A  2F14                     move.l     -[A7], [A4]
0000383C  4EAD 0222                jsr        [A5 + 0x222 /* export_64, CODE:1 @ 00004678 */]
00003840  2F14                     move.l     -[A7], [A4]
00003842  4EAD 023A                jsr        [A5 + 0x23A /* export_67, CODE:1 @ 00004696 */]
00003846  2054                     movea.l    A0, [A4]
00003848  2010                     move.l     D0, [A0]
0000384A  5E80                     addq.l     D0, 7
0000384C  C0BC FFFF FFFC           and.l      D0, 0xFFFFFFFC
00003852  2047                     movea.l    A0, D7
00003854  2080                     move.l     [A0], D0
00003856  2047                     movea.l    A0, D7
00003858  2246                     movea.l    A1, D6
0000385A  2290                     move.l     [A1], [A0]
0000385C  2046                     movea.l    A0, D6
0000385E  317C 0040 0004           move.w     [A0 + 0x4], 0x40 /* '@' */
00003864  2046                     movea.l    A0, D6
00003866  5C88                     addq.l     A0, 6
00003868  43ED ED82                lea.l      A1, [A5 - 0x127E]
0000386C  20D9                     move.l     [A0]+, [A1]+
0000386E  20D9                     move.l     [A0]+, [A1]+
00003870  2047                     movea.l    A0, D7
00003872  2650                     movea.l    A3, [A0]
00003874  97FC 0000 0004           sub.l      A3, 0x4
0000387A  7000                     moveq.l    D0, 0x00
0000387C  2680                     move.l     [A3], D0
0000387E  2047                     movea.l    A0, D7
00003880  2650                     movea.l    A3, [A0]
00003882  D7FC 0000 5580           add.l      A3, 0x5580
00003888  7000                     moveq.l    D0, 0x00
0000388A  2680                     move.l     [A3], D0
label0000388C:
0000388C  4CDF 18C0                movem.l    D6,D7,A3,A4, [A7]+
00003890  4E5E                     unlink     A6
00003892  205F                     movea.l    A0, [A7]+
00003894  DEFC 000C                add.w      A7, 0xC
00003898  4ED0                     jmp        [A0]
fn0000389A:
0000389A  4E56 FFDC                link       A6, -0x0024
0000389E  48E7 0F00                movem.l    -[A7], D4,D5,D6,D7
000038A2  4EBA 1510                jsr        [PC + 0x1510 /* 00004DB4 */]
000038A6  422D D4F6                clr.b      [A5 - 0x2B0A]
000038AA  422D D4FA                clr.b      [A5 - 0x2B06]
000038AE  382D EF1A                move.w     D4, [A5 - 0x10E6]
000038B2  3F3C 0001                move.w     -[A7], 0x1
000038B6  4EBA 2666                jsr        [PC + 0x2666 /* 00005F1E */]
000038BA  A89E                     syscall    PenNormal
000038BC  486E FFDE                pea.l      [A6 - 0x22]
000038C0  4EBA 1B7C                jsr        [PC + 0x1B7C /* 0000543E */]
000038C4  41EE FFF0                lea.l      A0, [A6 - 0x10]
000038C8  43ED ED8A                lea.l      A1, [A5 - 0x1276]
000038CC  20D9                     move.l     [A0]+, [A1]+
000038CE  20D9                     move.l     [A0]+, [A1]+
000038D0  4EBA D6D6                jsr        [PC - 0x292A /* 00000FA8 */]
000038D4  2F2D ECE4                move.l     -[A7], [A5 - 0x131C]
000038D8  2F2D D6B4                move.l     -[A7], [A5 - 0x294C]
000038DC  486D ED82                pea.l      [A5 - 0x127E]
000038E0  4267                     clr.w      -[A7]
000038E2  4EAD 1582                jsr        [A5 + 0x1582 /* export_684, CODE:15 @ 000005C0 */]
000038E6  1B7C 0001 D68D           move.b     [A5 - 0x2973], 0x1
000038EC  102D E225                move.b     D0, [A5 - 0x1DDB]
000038F0  6708                     beq        +0xA /* 000038FA */
000038F2  486D D672                pea.l      [A5 - 0x298E]
000038F6  A875                     syscall    SetPBits/SetPortBits
000038F8  6006                     bra        +0x8 /* 00003900 */
label000038FA:
000038FA  486D D6D6                pea.l      [A5 - 0x292A]
000038FE  A875                     syscall    SetPBits/SetPortBits
label00003900:
00003900  7EFF                     moveq.l    D7, 0xFFFFFFFF
label00003902:
00003902  486E FFE2                pea.l      [A6 - 0x1E]
00003906  4EBA 1B36                jsr        [PC + 0x1B36 /* 0000543E */]
0000390A  4267                     clr.w      -[A7]
0000390C  4EAD 210A                jsr        [A5 + 0x210A /* export_1053, CODE:20 @ 000016F6 */]
00003910  1C1F                     move.b     D6, [A7]+
00003912  0A06 0001                xori.b     D6, 0x1
00003916  102D F017                move.b     D0, [A5 - 0xFE9]
0000391A  6706                     beq        +0x8 /* 00003922 */
0000391C  3B47 E2C8                move.w     [A5 - 0x1D38], D7
00003920  602C                     bra        +0x2E /* 0000394E */
label00003922:
00003922  42A7                     clr.l      -[A7]
00003924  A975                     syscall    TickCount
00003926  201F                     move.l     D0, [A7]+
00003928  3A00                     move.w     D5, D0
0000392A  102D E225                move.b     D0, [A5 - 0x1DDB]
0000392E  670A                     beq        +0xC /* 0000393A */
00003930  3005                     move.w     D0, D5
00003932  48C0                     ext.l      D0
00003934  81FC 0003                divs.w     D0, 0x3
00003938  3A00                     move.w     D5, D0
label0000393A:
0000393A  42A7                     clr.l      -[A7]
0000393C  3005                     move.w     D0, D5
0000393E  48C0                     ext.l      D0
00003940  2F00                     move.l     -[A7], D0
00003942  7007                     moveq.l    D0, 0x07
00003944  2F00                     move.l     -[A7], D0
00003946  A858                     syscall    BitAnd
00003948  201F                     move.l     D0, [A7]+
0000394A  3B40 E2C8                move.w     [A5 - 0x1D38], D0
label0000394E:
0000394E  BE6D E2C8                cmp.w      D7, [A5 - 0x1D38]
00003952  56C0                     sne        D0
00003954  2206                     move.l     D1, D6
00003956  8200                     or.b       D1, D0
00003958  0241 0001                andi.w     D1, 0x1
0000395C  6700 0142                beq        +0x144 /* 00003AA0 */
00003960  3F3C 00F8                move.w     -[A7], 0xF8
00003964  3F2D E2C8                move.w     -[A7], [A5 - 0x1D38]
00003968  486D EE72                pea.l      [A5 - 0x118E]
0000396C  4EAD 1C2A                jsr        [A5 + 0x1C2A /* export_897, CODE:17 @ 00000A16 */]
00003970  41EE FFF8                lea.l      A0, [A6 - 0x8]
00003974  43EE FFF0                lea.l      A1, [A6 - 0x10]
00003978  20D9                     move.l     [A0]+, [A1]+
0000397A  20D9                     move.l     [A0]+, [A1]+
0000397C  2F2E FFDE                move.l     -[A7], [A6 - 0x22]
00003980  2F2E FFE2                move.l     -[A7], [A6 - 0x1E]
00003984  486E FFF0                pea.l      [A6 - 0x10]
00003988  A8AC                     syscall    Pt2Rect
0000398A  4267                     clr.w      -[A7]
0000398C  4EAD 1612                jsr        [A5 + 0x1612 /* export_702, CODE:15 @ 00001296 */]
00003990  2006                     move.l     D0, D6
00003992  C01F                     and.b      D0, [A7]+
00003994  2F00                     move.l     -[A7], D0
00003996  4267                     clr.w      -[A7]
00003998  4EAD 2142                jsr        [A5 + 0x2142 /* export_1060, CODE:20 @ 000023F6 */]
0000399C  121F                     move.b     D1, [A7]+
0000399E  201F                     move.l     D0, [A7]+
000039A0  0A01 0001                xori.b     D1, 0x1
000039A4  C001                     and.b      D0, D1
000039A6  6764                     beq        +0x66 /* 00003A0C */
000039A8  2F2D D6B4                move.l     -[A7], [A5 - 0x294C]
000039AC  4EAD 1D12                jsr        [A5 + 0x1D12 /* export_926, CODE:17 @ 00002B38 */]
000039B0  302E FFF6                move.w     D0, [A6 - 0xA]
000039B4  5240                     addq.w     D0, 1
000039B6  3D40 FFF6                move.w     [A6 - 0xA], D0
000039BA  302E FFF4                move.w     D0, [A6 - 0xC]
000039BE  5240                     addq.w     D0, 1
000039C0  3D40 FFF4                move.w     [A6 - 0xC], D0
000039C4  486D ECFE                pea.l      [A5 - 0x1302]
000039C8  486D D6D6                pea.l      [A5 - 0x292A]
000039CC  486E FFF0                pea.l      [A6 - 0x10]
000039D0  486E FFF0                pea.l      [A6 - 0x10]
000039D4  4267                     clr.w      -[A7]
000039D6  42A7                     clr.l      -[A7]
000039D8  A8EC                     syscall    CopyBits
000039DA  2F2D D6B4                move.l     -[A7], [A5 - 0x294C]
000039DE  486E FFF0                pea.l      [A6 - 0x10]
000039E2  4EAD 153A                jsr        [A5 + 0x153A /* export_675, CODE:14 @ 00000C62 */]
000039E6  2F2D ECE4                move.l     -[A7], [A5 - 0x131C]
000039EA  2F2D D6B4                move.l     -[A7], [A5 - 0x294C]
000039EE  486D ED82                pea.l      [A5 - 0x127E]
000039F2  4267                     clr.w      -[A7]
000039F4  4EAD 1582                jsr        [A5 + 0x1582 /* export_684, CODE:15 @ 000005C0 */]
000039F8  4267                     clr.w      -[A7]
000039FA  486E FFF0                pea.l      [A6 - 0x10]
000039FE  A8AE                     syscall    EmptyRect
00003A00  101F                     move.b     D0, [A7]+
00003A02  0A00 0001                xori.b     D0, 0x1
00003A06  1B40 D509                move.b     [A5 - 0x2AF7], D0
00003A0A  6028                     bra        +0x2A /* 00003A34 */
label00003A0C:
00003A0C  4267                     clr.w      -[A7]
00003A0E  486E FFF0                pea.l      [A6 - 0x10]
00003A12  A8AE                     syscall    EmptyRect
00003A14  101F                     move.b     D0, [A7]+
00003A16  0A00 0001                xori.b     D0, 0x1
00003A1A  1B40 D509                move.b     [A5 - 0x2AF7], D0
00003A1E  6714                     beq        +0x16 /* 00003A34 */
00003A20  302E FFF6                move.w     D0, [A6 - 0xA]
00003A24  5240                     addq.w     D0, 1
00003A26  3D40 FFF6                move.w     [A6 - 0xA], D0
00003A2A  302E FFF4                move.w     D0, [A6 - 0xC]
00003A2E  5240                     addq.w     D0, 1
00003A30  3D40 FFF4                move.w     [A6 - 0xC], D0
label00003A34:
00003A34  486E FFF0                pea.l      [A6 - 0x10]
00003A38  486E FFF8                pea.l      [A6 - 0x8]
00003A3C  4EAD 1CEA                jsr        [A5 + 0x1CEA /* export_921, CODE:17 @ 00001DBA */]
00003A40  102D E225                move.b     D0, [A5 - 0x1DDB]
00003A44  672C                     beq        +0x2E /* 00003A72 */
00003A46  486D ED44                pea.l      [A5 - 0x12BC]
00003A4A  486D D672                pea.l      [A5 - 0x298E]
00003A4E  486D D678                pea.l      [A5 - 0x2988]
00003A52  486D D678                pea.l      [A5 - 0x2988]
00003A56  4267                     clr.w      -[A7]
00003A58  42A7                     clr.l      -[A7]
00003A5A  A8EC                     syscall    CopyBits
00003A5C  102D F017                move.b     D0, [A5 - 0xFE9]
00003A60  6606                     bne        +0x8 /* 00003A68 */
00003A62  486E FFF0                pea.l      [A6 - 0x10]
00003A66  A8A1                     syscall    FrameRect
label00003A68:
00003A68  486E FFF8                pea.l      [A6 - 0x8]
00003A6C  4EBA 27E0                jsr        [PC + 0x27E0 /* 0000624E */]
00003A70  602A                     bra        +0x2C /* 00003A9C */
label00003A72:
00003A72  2F2D ECE4                move.l     -[A7], [A5 - 0x131C]
00003A76  2F2D D6B4                move.l     -[A7], [A5 - 0x294C]
00003A7A  486E FFF8                pea.l      [A6 - 0x8]
00003A7E  4267                     clr.w      -[A7]
00003A80  4EAD 1582                jsr        [A5 + 0x1582 /* export_684, CODE:15 @ 000005C0 */]
00003A84  102D F017                move.b     D0, [A5 - 0xFE9]
00003A88  6606                     bne        +0x8 /* 00003A90 */
00003A8A  486E FFF0                pea.l      [A6 - 0x10]
00003A8E  A8A1                     syscall    FrameRect
label00003A90:
00003A90  2F2D D6B4                move.l     -[A7], [A5 - 0x294C]
00003A94  486E FFF8                pea.l      [A6 - 0x8]
00003A98  4EAD 158A                jsr        [A5 + 0x158A /* export_685, CODE:15 @ 000006FE */]
label00003A9C:
00003A9C  3E2D E2C8                move.w     D7, [A5 - 0x1D38]
label00003AA0:
00003AA0  1006                     move.b     D0, D6
00003AA2  6700 FE5E                beq        -0x1A0 /* 00003902 */
00003AA6  A89E                     syscall    PenNormal
00003AA8  2F2D D6B4                move.l     -[A7], [A5 - 0x294C]
00003AAC  4EAD 1D12                jsr        [A5 + 0x1D12 /* export_926, CODE:17 @ 00002B38 */]
00003AB0  1B7C 0001 D68D           move.b     [A5 - 0x2973], 0x1
00003AB6  102D D509                move.b     D0, [A5 - 0x2AF7]
00003ABA  6724                     beq        +0x26 /* 00003AE0 */
00003ABC  486E FFF0                pea.l      [A6 - 0x10]
00003AC0  4EBA 255C                jsr        [PC + 0x255C /* 0000601E */]
00003AC4  486D D6D6                pea.l      [A5 - 0x292A]
00003AC8  A875                     syscall    SetPBits/SetPortBits
00003ACA  486D D500                pea.l      [A5 - 0x2B00]
00003ACE  486D FE98                pea.l      [A5 - 0x168]
00003AD2  A8A5                     syscall    FillRect
00003AD4  4EBA 1884                jsr        [PC + 0x1884 /* 0000535A */]
00003AD8  3B7C 0004 D71C           move.w     [A5 - 0x28E4], 0x4
00003ADE  6008                     bra        +0xA /* 00003AE8 */
label00003AE0:
00003AE0  3F2D D71C                move.w     -[A7], [A5 - 0x28E4]
00003AE4  4EBA 0834                jsr        [PC + 0x834 /* 0000431A */]
label00003AE8:
00003AE8  486D ED44                pea.l      [A5 - 0x12BC]
00003AEC  A875                     syscall    SetPBits/SetPortBits
00003AEE  3F04                     move.w     -[A7], D4
00003AF0  4EBA 242C                jsr        [PC + 0x242C /* 00005F1E */]
00003AF4  1B7C 0001 D50A           move.b     [A5 - 0x2AF6], 0x1
00003AFA  1B7C 0001 D50C           move.b     [A5 - 0x2AF4], 0x1
00003B00  4EBA CAE2                jsr        [PC - 0x351E /* 000005E4 */]
00003B04  4267                     clr.w      -[A7]
00003B06  4EAD 2142                jsr        [A5 + 0x2142 /* export_1060, CODE:20 @ 000023F6 */]
00003B0A  101F                     move.b     D0, [A7]+
00003B0C  C02D D509                and.b      D0, [A5 - 0x2AF7]
00003B10  2F00                     move.l     -[A7], D0
00003B12  4267                     clr.w      -[A7]
00003B14  4EAD 1612                jsr        [A5 + 0x1612 /* export_702, CODE:15 @ 00001296 */]
00003B18  121F                     move.b     D1, [A7]+
00003B1A  201F                     move.l     D0, [A7]+
00003B1C  0A01 0001                xori.b     D1, 0x1
00003B20  C001                     and.b      D0, D1
00003B22  6704                     beq        +0x6 /* 00003B28 */
00003B24  4EBA 22D2                jsr        [PC + 0x22D2 /* 00005DF8 */]
label00003B28:
00003B28  4CDF 00F0                movem.l    D4,D5,D6,D7, [A7]+
00003B2C  4E5E                     unlink     A6
00003B2E  4E75                     rts
fn00003B30:
00003B30  4E56 0000                link       A6, 0
00003B34  302E 000A                move.w     D0, [A6 + 0xA]
00003B38  906D EF18                sub.w      D0, [A5 - 0x10E8]
00003B3C  3F00                     move.w     -[A7], D0
00003B3E  302E 0008                move.w     D0, [A6 + 0x8]
00003B42  906D EF18                sub.w      D0, [A5 - 0x10E8]
00003B46  3F00                     move.w     -[A7], D0
00003B48  A893                     syscall    MoveTo
00003B4A  4E5E                     unlink     A6
00003B4C  2E9F                     move.l     [A7], [A7]+
00003B4E  4E75                     rts
fn00003B50:
00003B50  4E56 FFF6                link       A6, -0x000A
00003B54  42A7                     clr.l      -[A7]
00003B56  486E FFF6                pea.l      [A6 - 0xA]
00003B5A  2F2E 0008                move.l     -[A7], [A6 + 0x8]
00003B5E  4EAD 05BA                jsr        [A5 + 0x5BA /* export_179, CODE:2 @ 000002DA */]
00003B62  588F                     addq.l     A7, 4
00003B64  486E FFF6                pea.l      [A6 - 0xA]
00003B68  4EAD 05C2                jsr        [A5 + 0x5C2 /* export_180, CODE:2 @ 000002D8 */]
00003B6C  2D5F 000C                move.l     [A6 + 0xC], [A7]+
00003B70  4E5E                     unlink     A6
00003B72  2E9F                     move.l     [A7], [A7]+
00003B74  4E75                     rts
00003B76  4E56 0000                link       A6, 0
00003B7A  0C6E 3039 000E           cmpi.w     [A6 + 0xE], 0x3039 /* '09' */
00003B80  6606                     bne        +0x8 /* 00003B88 */
00003B82  1B7C 0001 D511           move.b     [A5 - 0x2AEF], 0x1
label00003B88:
00003B88  4E5E                     unlink     A6
00003B8A  205F                     movea.l    A0, [A7]+
00003B8C  504F                     addq.w     A7, 8
00003B8E  4ED0                     jmp        [A0]
fn00003B90:
00003B90  4E56 FFFE                link       A6, -0x0002
00003B94  2F07                     move.l     -[A7], D7
00003B96  700A                     moveq.l    D0, 0x0A
00003B98  B06D F008                cmp.w      D0, [A5 - 0xFF8]
00003B9C  57C0                     seq        D0
00003B9E  C02D D4E9                and.b      D0, [A5 - 0x2B17]
00003BA2  670A                     beq        +0xC /* 00003BAE */
00003BA4  4267                     clr.w      -[A7]
00003BA6  4EBA 18B4                jsr        [PC + 0x18B4 /* 0000545C */]
00003BAA  6000 01DC                bra        +0x1DE /* 00003D88 */
label00003BAE:
00003BAE  7009                     moveq.l    D0, 0x09
00003BB0  B06D F008                cmp.w      D0, [A5 - 0xFF8]
00003BB4  57C0                     seq        D0
00003BB6  C02D D4E9                and.b      D0, [A5 - 0x2B17]
00003BBA  6722                     beq        +0x24 /* 00003BDE */
00003BBC  102D F4CD                move.b     D0, [A5 - 0xB33]
00003BC0  C02D F016                and.b      D0, [A5 - 0xFEA]
00003BC4  6706                     beq        +0x8 /* 00003BCC */
00003BC6  4EAD 15BA                jsr        [A5 + 0x15BA /* export_691, CODE:15 @ 00000AE6 */]
00003BCA  600E                     bra        +0x10 /* 00003BDA */
label00003BCC:
00003BCC  4267                     clr.w      -[A7]
00003BCE  4EBA 17F2                jsr        [PC + 0x17F2 /* 000053C2 */]
00003BD2  101F                     move.b     D0, [A7]+
00003BD4  6604                     bne        +0x6 /* 00003BDA */
00003BD6  4EBA 2958                jsr        [PC + 0x2958 /* 00006530 */]
label00003BDA:
00003BDA  6000 01AC                bra        +0x1AE /* 00003D88 */
label00003BDE:
00003BDE  4267                     clr.w      -[A7]
00003BE0  4EAD 21B2                jsr        [A5 + 0x21B2 /* export_1074, CODE:20 @ 000040B8 */]
00003BE4  101F                     move.b     D0, [A7]+
00003BE6  6600 01A0                bne        +0x1A2 /* 00003D88 */
00003BEA  700B                     moveq.l    D0, 0x0B
00003BEC  B06D F008                cmp.w      D0, [A5 - 0xFF8]
00003BF0  661C                     bne        +0x1E /* 00003C0E */
00003BF2  102D F003                move.b     D0, [A5 - 0xFFD]
00003BF6  670A                     beq        +0xC /* 00003C02 */
00003BF8  2F2D EDC4                move.l     -[A7], [A5 - 0x123C]
00003BFC  4EAD 227A                jsr        [A5 + 0x227A /* export_1099, CODE:20 @ 000053BE */]
00003C00  6008                     bra        +0xA /* 00003C0A */
label00003C02:
00003C02  2F2D EDC0                move.l     -[A7], [A5 - 0x1240]
00003C06  4EAD 227A                jsr        [A5 + 0x227A /* export_1099, CODE:20 @ 000053BE */]
label00003C0A:
00003C0A  6000 017C                bra        +0x17E /* 00003D88 */
label00003C0E:
00003C0E  7002                     moveq.l    D0, 0x02
00003C10  B06D F008                cmp.w      D0, [A5 - 0xFF8]
00003C14  57C0                     seq        D0
00003C16  720C                     moveq.l    D1, 0x0C
00003C18  B26D F008                cmp.w      D1, [A5 - 0xFF8]
00003C1C  57C1                     seq        D1
00003C1E  8001                     or.b       D0, D1
00003C20  6708                     beq        +0xA /* 00003C2A */
00003C22  4EBA 31B4                jsr        [PC + 0x31B4 /* 00006DD8 */]
00003C26  6000 0160                bra        +0x162 /* 00003D88 */
label00003C2A:
00003C2A  7003                     moveq.l    D0, 0x03
00003C2C  B06D F008                cmp.w      D0, [A5 - 0xFF8]
00003C30  6614                     bne        +0x16 /* 00003C46 */
00003C32  102D F003                move.b     D0, [A5 - 0xFFD]
00003C36  6706                     beq        +0x8 /* 00003C3E */
00003C38  4EBA D1B2                jsr        [PC - 0x2E4E /* 00000DEC */]
00003C3C  6004                     bra        +0x6 /* 00003C42 */
label00003C3E:
00003C3E  4EBA D1D6                jsr        [PC - 0x2E2A /* 00000E16 */]
label00003C42:
00003C42  6000 0144                bra        +0x146 /* 00003D88 */
label00003C46:
00003C46  4EAD 17B2                jsr        [A5 + 0x17B2 /* export_754, CODE:15 @ 000064EE */]
00003C4A  3E2D F00C                move.w     D7, [A5 - 0xFF4]
00003C4E  7001                     moveq.l    D0, 0x01
00003C50  B06D F008                cmp.w      D0, [A5 - 0xFF8]
00003C54  57C0                     seq        D0
00003C56  7220                     moveq.l    D1, 0x20
00003C58  B247                     cmp.w      D1, D7
00003C5A  5EC1                     sgt        D1
00003C5C  7408                     moveq.l    D2, 0x08
00003C5E  B447                     cmp.w      D2, D7
00003C60  56C2                     sne        D2
00003C62  C202                     and.b      D1, D2
00003C64  142D F00B                move.b     D2, [A5 - 0xFF5]
00003C68  0A02 0001                xori.b     D2, 0x1
00003C6C  C202                     and.b      D1, D2
00003C6E  8001                     or.b       D0, D1
00003C70  0240 0001                andi.w     D0, 0x1
00003C74  6708                     beq        +0xA /* 00003C7E */
00003C76  4EAD 1812                jsr        [A5 + 0x1812 /* export_766, CODE:16 @ 00000208 */]
00003C7A  6000 010C                bra        +0x10E /* 00003D88 */
label00003C7E:
00003C7E  102D EDAB                move.b     D0, [A5 - 0x1255]
00003C82  6714                     beq        +0x16 /* 00003C98 */
00003C84  4EBA FAEC                jsr        [PC - 0x514 /* 00003772 */]
00003C88  3F2D F00C                move.w     -[A7], [A5 - 0xFF4]
00003C8C  2F2D EDAC                move.l     -[A7], [A5 - 0x1254]
00003C90  4EAD 2112                jsr        [A5 + 0x2112 /* export_1054, CODE:20 @ 0000172C */]
00003C94  6000 00F2                bra        +0xF4 /* 00003D88 */
label00003C98:
00003C98  102D D4E9                move.b     D0, [A5 - 0x2B17]
00003C9C  6722                     beq        +0x24 /* 00003CC0 */
00003C9E  102D F4CD                move.b     D0, [A5 - 0xB33]
00003CA2  C02D F016                and.b      D0, [A5 - 0xFEA]
00003CA6  6706                     beq        +0x8 /* 00003CAE */
00003CA8  4EAD 15BA                jsr        [A5 + 0x15BA /* export_691, CODE:15 @ 00000AE6 */]
00003CAC  600E                     bra        +0x10 /* 00003CBC */
label00003CAE:
00003CAE  4267                     clr.w      -[A7]
00003CB0  4EBA 1710                jsr        [PC + 0x1710 /* 000053C2 */]
00003CB4  101F                     move.b     D0, [A7]+
00003CB6  6604                     bne        +0x6 /* 00003CBC */
00003CB8  4EBA 2876                jsr        [PC + 0x2876 /* 00006530 */]
label00003CBC:
00003CBC  6000 00CA                bra        +0xCC /* 00003D88 */
label00003CC0:
00003CC0  102D F00B                move.b     D0, [A5 - 0xFF5]
00003CC4  6600 00A8                bne        +0xAA /* 00003D6E */
00003CC8  302D F00C                move.w     D0, [A5 - 0xFF4]
00003CCC  6B18                     bmi        +0x1A /* 00003CE6 */
00003CCE  B07C 002F                cmp.w      D0, 0x2F /* '/' */
00003CD2  6E12                     bgt        +0x14 /* 00003CE6 */
00003CD4  41FA 00BE                lea.l      A0, [PC + 0xBE /* 00003D94, value 0x4E560000 'NV\0\0', cstring "NV" */]
00003CD8  3200                     move.w     D1, D0
00003CDA  E649                     lsr        D1.w, 3
00003CDC  4441                     neg.w      D1
00003CDE  0130 10FF                btst       [A0 + D1.w - 0x1], D0
00003CE2  0A3C 0004                xori.b     ccr, 4
label00003CE6:
00003CE6  6640                     bne        +0x42 /* 00003D28 */
00003CE8  4EBA FA88                jsr        [PC - 0x578 /* 00003772 */]
00003CEC  2F3C 0000 7FFF           move.l     -[A7], 0x7FFF
00003CF2  2F3C 0000 7FFF           move.l     -[A7], 0x7FFF
00003CF8  2F2D EDAC                move.l     -[A7], [A5 - 0x1254]
00003CFC  A9D1                     syscall    TESetSelect
00003CFE  4EAD 213A                jsr        [A5 + 0x213A /* export_1059, CODE:20 @ 000023E2 */]
00003D02  3F3C 0020                move.w     -[A7], 0x20 /* ' ' */
00003D06  2F2D EDAC                move.l     -[A7], [A5 - 0x1254]
00003D0A  4EAD 2112                jsr        [A5 + 0x2112 /* export_1054, CODE:20 @ 0000172C */]
00003D0E  3F2D F00C                move.w     -[A7], [A5 - 0xFF4]
00003D12  2F2D EDAC                move.l     -[A7], [A5 - 0x1254]
00003D16  4EAD 2112                jsr        [A5 + 0x2112 /* export_1054, CODE:20 @ 0000172C */]
00003D1A  3F3C 0020                move.w     -[A7], 0x20 /* ' ' */
00003D1E  2F2D EDAC                move.l     -[A7], [A5 - 0x1254]
00003D22  4EAD 2112                jsr        [A5 + 0x2112 /* export_1054, CODE:20 @ 0000172C */]
00003D26  6060                     bra        +0x62 /* 00003D88 */
label00003D28:
00003D28  7004                     moveq.l    D0, 0x04
00003D2A  B06D F008                cmp.w      D0, [A5 - 0xFF8]
00003D2E  6620                     bne        +0x22 /* 00003D50 */
00003D30  102D F003                move.b     D0, [A5 - 0xFFD]
00003D34  6706                     beq        +0x8 /* 00003D3C */
00003D36  4EBA D0B4                jsr        [PC - 0x2F4C /* 00000DEC */]
00003D3A  604C                     bra        +0x4E /* 00003D88 */
label00003D3C:
00003D3C  102D D509                move.b     D0, [A5 - 0x2AF7]
00003D40  802D D50D                or.b       D0, [A5 - 0x2AF3]
00003D44  802D D50E                or.b       D0, [A5 - 0x2AF2]
00003D48  6706                     beq        +0x8 /* 00003D50 */
00003D4A  4EBA D0CA                jsr        [PC - 0x2F36 /* 00000E16 */]
00003D4E  6038                     bra        +0x3A /* 00003D88 */
label00003D50:
00003D50  102D D509                move.b     D0, [A5 - 0x2AF7]
00003D54  802D D50D                or.b       D0, [A5 - 0x2AF3]
00003D58  206D ED9A                movea.l    A0, [A5 - 0x1266]
00003D5C  1228 006E                move.b     D1, [A0 + 0x6E]
00003D60  0A01 0001                xori.b     D1, 0x1
00003D64  8001                     or.b       D0, D1
00003D66  6706                     beq        +0x8 /* 00003D6E */
00003D68  4EBA E442                jsr        [PC - 0x1BBE /* 000021AC */]
00003D6C  601A                     bra        +0x1C /* 00003D88 */
label00003D6E:
00003D6E  4267                     clr.w      -[A7]
00003D70  4EAD 208A                jsr        [A5 + 0x208A /* export_1037, CODE:20 @ 00000DD0 */]
00003D74  101F                     move.b     D0, [A7]+
00003D76  6710                     beq        +0x12 /* 00003D88 */
00003D78  4EBA F9F8                jsr        [PC - 0x608 /* 00003772 */]
00003D7C  3F2D F00C                move.w     -[A7], [A5 - 0xFF4]
00003D80  2F2D EDAC                move.l     -[A7], [A5 - 0x1254]
00003D84  4EAD 2112                jsr        [A5 + 0x2112 /* export_1054, CODE:20 @ 0000172C */]
label00003D88:
00003D88  2E1F                     move.l     D7, [A7]+
00003D8A  4E5E                     unlink     A6
00003D8C  4E75                     rts
00003D8E  AC00                     syscall    SoundDispatch, auto_pop
00003D90  0000 0000                ori.b      D0, 0x0
fn00003D94:
00003D94  4E56 0000                link       A6, 0
00003D98  4267                     clr.w      -[A7]
00003D9A  4EBA C34E                jsr        [PC - 0x3CB2 /* 000000EA */]
00003D9E  101F                     move.b     D0, [A7]+
00003DA0  6730                     beq        +0x32 /* 00003DD2 */
00003DA2  2F2D D6B4                move.l     -[A7], [A5 - 0x294C]
00003DA6  2F2D D6C4                move.l     -[A7], [A5 - 0x293C]
00003DAA  486D D500                pea.l      [A5 - 0x2B00]
00003DAE  3F3C 0001                move.w     -[A7], 0x1
00003DB2  4EAD 1582                jsr        [A5 + 0x1582 /* export_684, CODE:15 @ 000005C0 */]
00003DB6  486D D500                pea.l      [A5 - 0x2B00]
00003DBA  486D D68E                pea.l      [A5 - 0x2972]
00003DBE  4EAD 1CEA                jsr        [A5 + 0x1CEA /* export_921, CODE:17 @ 00001DBA */]
00003DC2  486D ED82                pea.l      [A5 - 0x127E]
00003DC6  4EBA F45A                jsr        [PC - 0xBA6 /* 00003222 */]
00003DCA  4EBA EB7C                jsr        [PC - 0x1484 /* 00002948 */]
00003DCE  4EBA ECB8                jsr        [PC - 0x1348 /* 00002A88 */]
label00003DD2:
00003DD2  4E5E                     unlink     A6
00003DD4  4E75                     rts
export_615:
00003DD6  4E56 0000                link       A6, 0
00003DDA  3B7C 0001 EFDA           move.w     [A5 - 0x1026], 0x1
00003DE0  4EAD 22B2                jsr        [A5 + 0x22B2 /* export_1106, CODE:20 @ 00005E80 */]
00003DE4  4EAD 2062                jsr        [A5 + 0x2062 /* export_1032, CODE:20 @ 00000C18 */]
00003DE8  102D EFDF                move.b     D0, [A5 - 0x1021]
00003DEC  672A                     beq        +0x2C /* 00003E18 */
00003DEE  2F2D ECD4                move.l     -[A7], [A5 - 0x132C]
00003DF2  70FF                     moveq.l    D0, 0xFFFFFFFF
00003DF4  2F00                     move.l     -[A7], D0
00003DF6  486D ED82                pea.l      [A5 - 0x127E]
00003DFA  4EAD 1722                jsr        [A5 + 0x1722 /* export_736, CODE:15 @ 00004B16 */]
00003DFE  2F2D ECE8                move.l     -[A7], [A5 - 0x1318]
00003E02  2F2D ECD0                move.l     -[A7], [A5 - 0x1330]
00003E06  486D ED82                pea.l      [A5 - 0x127E]
00003E0A  4267                     clr.w      -[A7]
00003E0C  4EAD 1582                jsr        [A5 + 0x1582 /* export_684, CODE:15 @ 000005C0 */]
00003E10  1B7C 0001 E2FB           move.b     [A5 - 0x1D05], 0x1
00003E16  6042                     bra        +0x44 /* 00003E5A */
label00003E18:
00003E18  102D E2E4                move.b     D0, [A5 - 0x1D1C]
00003E1C  670A                     beq        +0xC /* 00003E28 */
00003E1E  2F2D ECE0                move.l     -[A7], [A5 - 0x1320]
00003E22  4EAD 1D12                jsr        [A5 + 0x1D12 /* export_926, CODE:17 @ 00002B38 */]
00003E26  6012                     bra        +0x14 /* 00003E3A */
label00003E28:
00003E28  2F2D ECE8                move.l     -[A7], [A5 - 0x1318]
00003E2C  2F2D ECE0                move.l     -[A7], [A5 - 0x1320]
00003E30  2F3C 0000 5580           move.l     -[A7], 0x5580
00003E36  4EAD 024A                jsr        [A5 + 0x24A /* export_69, CODE:1 @ 000046A6 */]
label00003E3A:
00003E3A  486D EE38                pea.l      [A5 - 0x11C8]
00003E3E  A873                     syscall    SetPort
00003E40  486D ED36                pea.l      [A5 - 0x12CA]
00003E44  A875                     syscall    SetPBits/SetPortBits
00003E46  2F3C 0002 0000           move.l     -[A7], 0x20000
00003E4C  4EAD 168A                jsr        [A5 + 0x168A /* export_717, CODE:15 @ 000030FC */]
00003E50  486D ED44                pea.l      [A5 - 0x12BC]
00003E54  A875                     syscall    SetPBits/SetPortBits
00003E56  422D E2F0                clr.b      [A5 - 0x1D10]
label00003E5A:
00003E5A  41ED D696                lea.l      A0, [A5 - 0x296A]
00003E5E  43ED ED82                lea.l      A1, [A5 - 0x127E]
00003E62  20D9                     move.l     [A0]+, [A1]+
00003E64  20D9                     move.l     [A0]+, [A1]+
00003E66  4EBA CE6C                jsr        [PC - 0x3194 /* 00000CD4 */]
00003E6A  4EBA CF20                jsr        [PC - 0x30E0 /* 00000D8C */]
00003E6E  4EBA CE32                jsr        [PC - 0x31CE /* 00000CA2 */]
00003E72  4267                     clr.w      -[A7]
00003E74  486D D6A4                pea.l      [A5 - 0x295C]
00003E78  486D D6BC                pea.l      [A5 - 0x2944]
00003E7C  486D D6F2                pea.l      [A5 - 0x290E]
00003E80  4EBA F970                jsr        [PC - 0x690 /* 000037F2 */]
00003E84  101F                     move.b     D0, [A7]+
00003E86  6700 0180                beq        +0x182 /* 00004008 */
00003E8A  2F00                     move.l     -[A7], D0
00003E8C  4267                     clr.w      -[A7]
00003E8E  486D D6A0                pea.l      [A5 - 0x2960]
00003E92  486D D6B8                pea.l      [A5 - 0x2948]
00003E96  486D D6E4                pea.l      [A5 - 0x291C]
00003E9A  4EBA F956                jsr        [PC - 0x6AA /* 000037F2 */]
00003E9E  121F                     move.b     D1, [A7]+
00003EA0  201F                     move.l     D0, [A7]+
00003EA2  C001                     and.b      D0, D1
00003EA4  4A00                     tst.b      D0
00003EA6  6700 0160                beq        +0x162 /* 00004008 */
00003EAA  2F00                     move.l     -[A7], D0
00003EAC  4267                     clr.w      -[A7]
00003EAE  486D D6AC                pea.l      [A5 - 0x2954]
00003EB2  486D D6C4                pea.l      [A5 - 0x293C]
00003EB6  486D D70E                pea.l      [A5 - 0x28F2]
00003EBA  4EBA F936                jsr        [PC - 0x6CA /* 000037F2 */]
00003EBE  121F                     move.b     D1, [A7]+
00003EC0  201F                     move.l     D0, [A7]+
00003EC2  C001                     and.b      D0, D1
00003EC4  4A00                     tst.b      D0
00003EC6  6700 0140                beq        +0x142 /* 00004008 */
00003ECA  2F00                     move.l     -[A7], D0
00003ECC  4267                     clr.w      -[A7]
00003ECE  486D D6A8                pea.l      [A5 - 0x2958]
00003ED2  486D D6C0                pea.l      [A5 - 0x2940]
00003ED6  486D D700                pea.l      [A5 - 0x2900]
00003EDA  4EBA F916                jsr        [PC - 0x6EA /* 000037F2 */]
00003EDE  121F                     move.b     D1, [A7]+
00003EE0  201F                     move.l     D0, [A7]+
00003EE2  C001                     and.b      D0, D1
00003EE4  4A00                     tst.b      D0
00003EE6  6700 0120                beq        +0x122 /* 00004008 */
00003EEA  2F00                     move.l     -[A7], D0
00003EEC  4267                     clr.w      -[A7]
00003EEE  4EAD 17D2                jsr        [A5 + 0x17D2 /* export_758, CODE:15 @ 00006A0A */]
00003EF2  121F                     move.b     D1, [A7]+
00003EF4  201F                     move.l     D0, [A7]+
00003EF6  C001                     and.b      D0, D1
00003EF8  6700 010E                beq        +0x110 /* 00004008 */
00003EFC  1B7C 0001 D47B           move.b     [A5 - 0x2B85], 0x1
00003F02  2B6D ECE8 D6B4           move.l     [A5 - 0x294C], [A5 - 0x1318]
00003F08  41ED D6D6                lea.l      A0, [A5 - 0x292A]
00003F0C  43ED ED52                lea.l      A1, [A5 - 0x12AE]
00003F10  20D9                     move.l     [A0]+, [A1]+
00003F12  20D9                     move.l     [A0]+, [A1]+
00003F14  20D9                     move.l     [A0]+, [A1]+
00003F16  3091                     move.w     [A0], [A1]
00003F18  422D E2FC                clr.b      [A5 - 0x1D04]
00003F1C  2B6D ECEC D6B0           move.l     [A5 - 0x2950], [A5 - 0x1314]
00003F22  41ED D6C8                lea.l      A0, [A5 - 0x2938]
00003F26  43ED ED60                lea.l      A1, [A5 - 0x12A0]
00003F2A  20D9                     move.l     [A0]+, [A1]+
00003F2C  20D9                     move.l     [A0]+, [A1]+
00003F2E  20D9                     move.l     [A0]+, [A1]+
00003F30  3091                     move.w     [A0], [A1]
00003F32  206D ED6E                movea.l    A0, [A5 - 0x1292]
00003F36  2050                     movea.l    A0, [A0]
00003F38  317C FFFF 0002           move.w     [A0 + 0x2], 0xFFFF
00003F3E  422D E225                clr.b      [A5 - 0x1DDB]
00003F42  422D EFE0                clr.b      [A5 - 0x1020]
00003F46  2B6D ED7E D688           move.l     [A5 - 0x2978], [A5 - 0x1282]
00003F4C  422D D50E                clr.b      [A5 - 0x2AF2]
00003F50  422D D50D                clr.b      [A5 - 0x2AF3]
00003F54  422D D50C                clr.b      [A5 - 0x2AF4]
00003F58  422D D50B                clr.b      [A5 - 0x2AF5]
00003F5C  422D D50A                clr.b      [A5 - 0x2AF6]
00003F60  422D D509                clr.b      [A5 - 0x2AF7]
00003F64  41ED D500                lea.l      A0, [A5 - 0x2B00]
00003F68  43ED ED8A                lea.l      A1, [A5 - 0x1276]
00003F6C  20D9                     move.l     [A0]+, [A1]+
00003F6E  20D9                     move.l     [A0]+, [A1]+
00003F70  2B6D D688 D4FC           move.l     [A5 - 0x2B04], [A5 - 0x2978]
00003F76  1B6D D50E D4FB           move.b     [A5 - 0x2B05], [A5 - 0x2AF2]
00003F7C  1B6D D50D D4FA           move.b     [A5 - 0x2B06], [A5 - 0x2AF3]
00003F82  1B6D D50C D4F9           move.b     [A5 - 0x2B07], [A5 - 0x2AF4]
00003F88  1B6D D50B D4F8           move.b     [A5 - 0x2B08], [A5 - 0x2AF5]
00003F8E  1B6D D50A D4F7           move.b     [A5 - 0x2B09], [A5 - 0x2AF6]
00003F94  1B6D D509 D4F6           move.b     [A5 - 0x2B0A], [A5 - 0x2AF7]
00003F9A  41ED D4EE                lea.l      A0, [A5 - 0x2B12]
00003F9E  43ED D500                lea.l      A1, [A5 - 0x2B00]
00003FA2  20D9                     move.l     [A0]+, [A1]+
00003FA4  20D9                     move.l     [A0]+, [A1]+
00003FA6  2B6D D4FC D4EA           move.l     [A5 - 0x2B16], [A5 - 0x2B04]
00003FAC  2B6D D688 D4E4           move.l     [A5 - 0x2B1C], [A5 - 0x2978]
00003FB2  3B6D D4E6 D4E2           move.w     [A5 - 0x2B1E], [A5 - 0x2B1A]
00003FB8  2B6D D4E4 D4DE           move.l     [A5 - 0x2B22], [A5 - 0x2B1C]
00003FBE  422D D4DD                clr.b      [A5 - 0x2B23]
00003FC2  7000                     moveq.l    D0, 0x00
00003FC4  2B40 D4D8                move.l     [A5 - 0x2B28], D0
00003FC8  41ED E2F2                lea.l      A0, [A5 - 0x1D0E]
00003FCC  43ED ED82                lea.l      A1, [A5 - 0x127E]
00003FD0  20D9                     move.l     [A0]+, [A1]+
00003FD2  20D9                     move.l     [A0]+, [A1]+
00003FD4  1B7C 0001 D68D           move.b     [A5 - 0x2973], 0x1
00003FDA  41ED D68E                lea.l      A0, [A5 - 0x2972]
00003FDE  43ED ED82                lea.l      A1, [A5 - 0x127E]
00003FE2  20D9                     move.l     [A0]+, [A1]+
00003FE4  20D9                     move.l     [A0]+, [A1]+
00003FE6  41ED E2DA                lea.l      A0, [A5 - 0x1D26]
00003FEA  43ED ED82                lea.l      A1, [A5 - 0x127E]
00003FEE  20D9                     move.l     [A0]+, [A1]+
00003FF0  20D9                     move.l     [A0]+, [A1]+
00003FF2  4EBA CF94                jsr        [PC - 0x306C /* 00000F88 */]
00003FF6  4EBA C008                jsr        [PC - 0x3FF8 /* 00000000 */]
00003FFA  3F2D EFDC                move.w     -[A7], [A5 - 0x1024]
00003FFE  4EBA 031A                jsr        [PC + 0x31A /* 0000431A */]
00004002  422D EF22                clr.b      [A5 - 0x10DE]
00004006  6018                     bra        +0x1A /* 00004020 */
label00004008:
00004008  4EBA 16DE                jsr        [PC + 0x16DE /* 000056E8 */]
0000400C  3F3C 0028                move.w     -[A7], 0x28 /* '(' */
00004010  4EAD 187A                jsr        [A5 + 0x187A /* export_779, CODE:16 @ 00000500 */]
00004014  4EAD 22A2                jsr        [A5 + 0x22A2 /* export_1104, CODE:20 @ 00005D82 */]
00004018  3F3C 0001                move.w     -[A7], 0x1
0000401C  4EAD 2202                jsr        [A5 + 0x2202 /* export_1084, CODE:20 @ 000047F6 */]
label00004020:
00004020  4E5E                     unlink     A6
00004022  4E75                     rts
export_616:
00004024  4E56 FDCA                link       A6, -0x0236
00004028  48E7 0F18                movem.l    -[A7], D4,D5,D6,D7,A3,A4
0000402C  1A2D F4CD                move.b     D5, [A5 - 0xB33]
00004030  0A05 0001                xori.b     D5, 0x1
00004034  2005                     move.l     D0, D5
00004036  802D F015                or.b       D0, [A5 - 0xFEB]
0000403A  1E00                     move.b     D7, D0
0000403C  102D EFED                move.b     D0, [A5 - 0x1013]
00004040  0A00 0001                xori.b     D0, 0x1
00004044  2207                     move.l     D1, D7
00004046  8200                     or.b       D1, D0
00004048  1D41 FFCD                move.b     [A6 - 0x33], D1
0000404C  4EAD 1772                jsr        [A5 + 0x1772 /* export_746, CODE:15 @ 000055D6 */]
00004050  286D EEAC                movea.l    A4, [A5 - 0x1154]
00004054  266D EEDC                movea.l    A3, [A5 - 0x1124]
00004058  2F0C                     move.l     -[A7], A4
0000405A  3F3C 0005                move.w     -[A7], 0x5
0000405E  486E FDCA                pea.l      [A6 - 0x236]
00004062  3F3C 0007                move.w     -[A7], 0x7
00004066  4EAD 209A                jsr        [A5 + 0x209A /* export_1039, CODE:20 @ 00000F60 */]
0000406A  486D E2A6                pea.l      [A5 - 0x1D5A]
0000406E  486E FECA                pea.l      [A6 - 0x136]
00004072  3F3C 0002                move.w     -[A7], 0x2
00004076  4EAD 050A                jsr        [A5 + 0x50A /* export_157, CODE:1 @ 0000531E */]
0000407A  486E FECA                pea.l      [A6 - 0x136]
0000407E  A947                     syscall    SetMenuItemText/SetItem
00004080  2F0B                     move.l     -[A7], A3
00004082  3F3C 0005                move.w     -[A7], 0x5
00004086  487A 028A                pea.l      [PC + 0x28A /* 00004312, value 0x6506173, pstring "Paste " */]
0000408A  486D E292                pea.l      [A5 - 0x1D6E]
0000408E  486E FFB0                pea.l      [A6 - 0x50]
00004092  3F3C 0002                move.w     -[A7], 0x2
00004096  4EAD 050A                jsr        [A5 + 0x50A /* export_157, CODE:1 @ 0000531E */]
0000409A  486E FFB0                pea.l      [A6 - 0x50]
0000409E  A947                     syscall    SetMenuItemText/SetItem
000040A0  422E FFE4                clr.b      [A6 - 0x1C]
000040A4  422E FFD0                clr.b      [A6 - 0x30]
000040A8  102D D50D                move.b     D0, [A5 - 0x2AF3]
000040AC  802D D509                or.b       D0, [A5 - 0x2AF7]
000040B0  802D D50E                or.b       D0, [A5 - 0x2AF2]
000040B4  122D EFED                move.b     D1, [A5 - 0x1013]
000040B8  0A01 0001                xori.b     D1, 0x1
000040BC  8001                     or.b       D0, D1
000040BE  1C00                     move.b     D6, D0
000040C0  C02D EFED                and.b      D0, [A5 - 0x1013]
000040C4  6726                     beq        +0x28 /* 000040EC */
000040C6  486E FDCA                pea.l      [A6 - 0x236]
000040CA  3F3C 000D                move.w     -[A7], 0xD /* '\r' */
000040CE  4EAD 209A                jsr        [A5 + 0x209A /* export_1039, CODE:20 @ 00000F60 */]
000040D2  205F                     movea.l    A0, [A7]+
000040D4  43EE FFE4                lea.l      A1, [A6 - 0x1C]
000040D8  7004                     moveq.l    D0, 0x04
label000040DA:
000040DA  22D8                     move.l     [A1]+, [A0]+
000040DC  51C8 FFFC                dbf        D0, -0x6 /* 000040DA */
000040E0  41EE FFD0                lea.l      A0, [A6 - 0x30]
000040E4  43FA 0224                lea.l      A1, [PC + 0x224 /* 0000430A, value 0x7506963, pstring "Picture" */]
000040E8  20D9                     move.l     [A0]+, [A1]+
000040EA  20D9                     move.l     [A0]+, [A1]+
label000040EC:
000040EC  2F0C                     move.l     -[A7], A4
000040EE  3F3C 0003                move.w     -[A7], 0x3
000040F2  486E FDCA                pea.l      [A6 - 0x236]
000040F6  3F3C 0004                move.w     -[A7], 0x4
000040FA  4EAD 209A                jsr        [A5 + 0x209A /* export_1039, CODE:20 @ 00000F60 */]
000040FE  486E FFE4                pea.l      [A6 - 0x1C]
00004102  486E FECA                pea.l      [A6 - 0x136]
00004106  3F3C 0002                move.w     -[A7], 0x2
0000410A  4EAD 050A                jsr        [A5 + 0x50A /* export_157, CODE:1 @ 0000531E */]
0000410E  486E FECA                pea.l      [A6 - 0x136]
00004112  A947                     syscall    SetMenuItemText/SetItem
00004114  2F0B                     move.l     -[A7], A3
00004116  3F3C 0003                move.w     -[A7], 0x3
0000411A  487A 01E8                pea.l      [PC + 0x1E8 /* 00004304, value 0x4437574, pstring "Cut " */]
0000411E  486E FFD0                pea.l      [A6 - 0x30]
00004122  486E FFB2                pea.l      [A6 - 0x4E]
00004126  3F3C 0002                move.w     -[A7], 0x2
0000412A  4EAD 050A                jsr        [A5 + 0x50A /* export_157, CODE:1 @ 0000531E */]
0000412E  486E FFB2                pea.l      [A6 - 0x4E]
00004132  A947                     syscall    SetMenuItemText/SetItem
00004134  2F0C                     move.l     -[A7], A4
00004136  3F3C 0004                move.w     -[A7], 0x4
0000413A  486E FDCA                pea.l      [A6 - 0x236]
0000413E  3F3C 0005                move.w     -[A7], 0x5
00004142  4EAD 209A                jsr        [A5 + 0x209A /* export_1039, CODE:20 @ 00000F60 */]
00004146  486E FFE4                pea.l      [A6 - 0x1C]
0000414A  486E FECA                pea.l      [A6 - 0x136]
0000414E  3F3C 0002                move.w     -[A7], 0x2
00004152  4EAD 050A                jsr        [A5 + 0x50A /* export_157, CODE:1 @ 0000531E */]
00004156  486E FECA                pea.l      [A6 - 0x136]
0000415A  A947                     syscall    SetMenuItemText/SetItem
0000415C  2F0B                     move.l     -[A7], A3
0000415E  3F3C 0004                move.w     -[A7], 0x4
00004162  487A 019A                pea.l      [PC + 0x19A /* 000042FE, value 0x5436F70, pstring "Copy " */]
00004166  486E FFD0                pea.l      [A6 - 0x30]
0000416A  486E FFB0                pea.l      [A6 - 0x50]
0000416E  3F3C 0002                move.w     -[A7], 0x2
00004172  4EAD 050A                jsr        [A5 + 0x50A /* export_157, CODE:1 @ 0000531E */]
00004176  486E FFB0                pea.l      [A6 - 0x50]
0000417A  A947                     syscall    SetMenuItemText/SetItem
0000417C  2F0C                     move.l     -[A7], A4
0000417E  3F3C 0006                move.w     -[A7], 0x6
00004182  486E FDCA                pea.l      [A6 - 0x236]
00004186  3F3C 0006                move.w     -[A7], 0x6
0000418A  4EAD 209A                jsr        [A5 + 0x209A /* export_1039, CODE:20 @ 00000F60 */]
0000418E  486E FFE4                pea.l      [A6 - 0x1C]
00004192  486E FECA                pea.l      [A6 - 0x136]
00004196  3F3C 0002                move.w     -[A7], 0x2
0000419A  4EAD 050A                jsr        [A5 + 0x50A /* export_157, CODE:1 @ 0000531E */]
0000419E  486E FECA                pea.l      [A6 - 0x136]
000041A2  A947                     syscall    SetMenuItemText/SetItem
000041A4  2F0B                     move.l     -[A7], A3
000041A6  3F3C 0006                move.w     -[A7], 0x6
000041AA  487A 014A                pea.l      [PC + 0x14A /* 000042F6, value 0x6436C65, pstring "Clear " */]
000041AE  486E FFD0                pea.l      [A6 - 0x30]
000041B2  486E FFB0                pea.l      [A6 - 0x50]
000041B6  3F3C 0002                move.w     -[A7], 0x2
000041BA  4EAD 050A                jsr        [A5 + 0x50A /* export_157, CODE:1 @ 0000531E */]
000041BE  486E FFB0                pea.l      [A6 - 0x50]
000041C2  A947                     syscall    SetMenuItemText/SetItem
000041C4  2F0C                     move.l     -[A7], A4
000041C6  3F3C 0003                move.w     -[A7], 0x3
000041CA  2006                     move.l     D0, D6
000041CC  C02E FFCD                and.b      D0, [A6 - 0x33]
000041D0  1F00                     move.b     -[A7], D0
000041D2  4EAD 170A                jsr        [A5 + 0x170A /* export_733, CODE:15 @ 000046EC */]
000041D6  2F0C                     move.l     -[A7], A4
000041D8  3F3C 0004                move.w     -[A7], 0x4
000041DC  1F06                     move.b     -[A7], D6
000041DE  4EAD 170A                jsr        [A5 + 0x170A /* export_733, CODE:15 @ 000046EC */]
000041E2  2F0C                     move.l     -[A7], A4
000041E4  3F3C 0006                move.w     -[A7], 0x6
000041E8  2006                     move.l     D0, D6
000041EA  C02E FFCD                and.b      D0, [A6 - 0x33]
000041EE  1F00                     move.b     -[A7], D0
000041F0  4EAD 170A                jsr        [A5 + 0x170A /* export_733, CODE:15 @ 000046EC */]
000041F4  2F0C                     move.l     -[A7], A4
000041F6  3F3C 0008                move.w     -[A7], 0x8
000041FA  1F05                     move.b     -[A7], D5
000041FC  4EAD 170A                jsr        [A5 + 0x170A /* export_733, CODE:15 @ 000046EC */]
00004200  2F0C                     move.l     -[A7], A4
00004202  3F3C 0009                move.w     -[A7], 0x9 /* '\t' */
00004206  1F05                     move.b     -[A7], D5
00004208  4EAD 170A                jsr        [A5 + 0x170A /* export_733, CODE:15 @ 000046EC */]
0000420C  2F0C                     move.l     -[A7], A4
0000420E  3F3C 000A                move.w     -[A7], 0xA /* '\n' */
00004212  1F05                     move.b     -[A7], D5
00004214  4EAD 170A                jsr        [A5 + 0x170A /* export_733, CODE:15 @ 000046EC */]
00004218  2F0C                     move.l     -[A7], A4
0000421A  3F3C 000D                move.w     -[A7], 0xD /* '\r' */
0000421E  1F07                     move.b     -[A7], D7
00004220  4EAD 170A                jsr        [A5 + 0x170A /* export_733, CODE:15 @ 000046EC */]
00004224  2F0C                     move.l     -[A7], A4
00004226  3F3C 000E                move.w     -[A7], 0xE
0000422A  1F2D EFDF                move.b     -[A7], [A5 - 0x1021]
0000422E  A945                     syscall    CheckItem
00004230  286D EEBC                movea.l    A4, [A5 - 0x1144]
00004234  7804                     moveq.l    D4, 0x04
00004236  6010                     bra        +0x12 /* 00004248 */
label00004238:
00004238  2F0C                     move.l     -[A7], A4
0000423A  3F04                     move.w     -[A7], D4
0000423C  2006                     move.l     D0, D6
0000423E  C007                     and.b      D0, D7
00004240  1F00                     move.b     -[A7], D0
00004242  4EAD 170A                jsr        [A5 + 0x170A /* export_733, CODE:15 @ 000046EC */]
00004246  5244                     addq.w     D4, 1
label00004248:
00004248  700D                     moveq.l    D0, 0x0D
0000424A  B044                     cmp.w      D0, D4
0000424C  6CEA                     bge        -0x14 /* 00004238 */
0000424E  2F0C                     move.l     -[A7], A4
00004250  3F3C 000F                move.w     -[A7], 0xF
00004254  2006                     move.l     D0, D6
00004256  C007                     and.b      D0, D7
00004258  1F00                     move.b     -[A7], D0
0000425A  4EAD 170A                jsr        [A5 + 0x170A /* export_733, CODE:15 @ 000046EC */]
0000425E  2F0C                     move.l     -[A7], A4
00004260  3F3C 0010                move.w     -[A7], 0x10
00004264  2006                     move.l     D0, D6
00004266  C007                     and.b      D0, D7
00004268  1F00                     move.b     -[A7], D0
0000426A  4EAD 170A                jsr        [A5 + 0x170A /* export_733, CODE:15 @ 000046EC */]
0000426E  2F0C                     move.l     -[A7], A4
00004270  3F3C 0012                move.w     -[A7], 0x12
00004274  1F05                     move.b     -[A7], D5
00004276  4EAD 170A                jsr        [A5 + 0x170A /* export_733, CODE:15 @ 000046EC */]
0000427A  2F0C                     move.l     -[A7], A4
0000427C  3F3C 0013                move.w     -[A7], 0x13
00004280  1F07                     move.b     -[A7], D7
00004282  4EAD 170A                jsr        [A5 + 0x170A /* export_733, CODE:15 @ 000046EC */]
00004286  286D EEC0                movea.l    A4, [A5 - 0x1140]
0000428A  2F0C                     move.l     -[A7], A4
0000428C  3F3C 0007                move.w     -[A7], 0x7
00004290  1F05                     move.b     -[A7], D5
00004292  4EAD 170A                jsr        [A5 + 0x170A /* export_733, CODE:15 @ 000046EC */]
00004296  2F0C                     move.l     -[A7], A4
00004298  3F3C 0001                move.w     -[A7], 0x1
0000429C  1F2D EF23                move.b     -[A7], [A5 - 0x10DD]
000042A0  A945                     syscall    CheckItem
000042A2  2F0C                     move.l     -[A7], A4
000042A4  3F3C 0002                move.w     -[A7], 0x2
000042A8  1F2D E225                move.b     -[A7], [A5 - 0x1DDB]
000042AC  A945                     syscall    CheckItem
000042AE  2F0C                     move.l     -[A7], A4
000042B0  3F3C 0003                move.w     -[A7], 0x3
000042B4  1F2D EF4F                move.b     -[A7], [A5 - 0x10B1]
000042B8  A945                     syscall    CheckItem
000042BA  2F0C                     move.l     -[A7], A4
000042BC  3F3C 000A                move.w     -[A7], 0xA /* '\n' */
000042C0  1F2D EF41                move.b     -[A7], [A5 - 0x10BF]
000042C4  A945                     syscall    CheckItem
000042C6  2F0C                     move.l     -[A7], A4
000042C8  3F3C 000B                move.w     -[A7], 0xB
000042CC  1F2D EF1F                move.b     -[A7], [A5 - 0x10E1]
000042D0  A945                     syscall    CheckItem
000042D2  2F0C                     move.l     -[A7], A4
000042D4  3F3C 000C                move.w     -[A7], 0xC
000042D8  1F2D EF22                move.b     -[A7], [A5 - 0x10DE]
000042DC  A945                     syscall    CheckItem
000042DE  286D EED0                movea.l    A4, [A5 - 0x1130]
000042E2  2F0C                     move.l     -[A7], A4
000042E4  3F3C 0005                move.w     -[A7], 0x5
000042E8  1F07                     move.b     -[A7], D7
000042EA  4EAD 170A                jsr        [A5 + 0x170A /* export_733, CODE:15 @ 000046EC */]
000042EE  4CDF 18F0                movem.l    D4,D5,D6,D7,A3,A4, [A7]+
000042F2  4E5E                     unlink     A6
000042F4  4E75                     rts
000042F6  0643 6C65                addi.w     D3, 0x6C65 /* 'le' */
000042FA  6172                     bsr        +0x74 /* 0000436E */
000042FC  2000                     move.l     D0, D0
000042FE  0543                     bchg       D3, D2
00004300  6F70                     ble        +0x72 /* 00004372 */
00004302  7920                     moveq.l    D4, 0x20
00004304  0443 7574                subi.w     D3, 0x7574 /* 'ut' */
00004308  2000                     move.l     D0, D0
0000430A  0750                     bchg       [A0], D3
0000430C  6963                     bvs        +0x65 /* 00004371 */
0000430E  7475                     moveq.l    D2, 0x75
00004310  7265                     moveq.l    D1, 0x65
00004312  0650 6173                addi.w     [A0], 0x6173 /* 'as' */
00004316  7465                     moveq.l    D2, 0x65
00004318  2000                     move.l     D0, D0
export_617:
fn0000431A:
0000431A  4E56 0000                link       A6, 0
0000431E  4EAD 17B2                jsr        [A5 + 0x17B2 /* export_754, CODE:15 @ 000064EE */]
00004322  4EAD 160A                jsr        [A5 + 0x160A /* export_701, CODE:15 @ 00001282 */]
00004326  3F2E 0008                move.w     -[A7], [A6 + 0x8]
0000432A  4EAD 2202                jsr        [A5 + 0x2202 /* export_1084, CODE:20 @ 000047F6 */]
0000432E  7001                     moveq.l    D0, 0x01
00004330  B06E 0008                cmp.w      D0, [A6 + 0x8]
00004334  57C0                     seq        D0
00004336  C02D EFDF                and.b      D0, [A5 - 0x1021]
0000433A  6704                     beq        +0x6 /* 00004340 */
0000433C  4EBA 0E52                jsr        [PC + 0xE52 /* 00005190 */]
label00004340:
00004340  7001                     moveq.l    D0, 0x01
00004342  B06D EFDA                cmp.w      D0, [A5 - 0x1026]
00004346  6630                     bne        +0x32 /* 00004378 */
00004348  3B6D EFDC D71C           move.w     [A5 - 0x28E4], [A5 - 0x1024]
0000434E  7010                     moveq.l    D0, 0x10
00004350  B06D EFDC                cmp.w      D0, [A5 - 0x1024]
00004354  660E                     bne        +0x10 /* 00004364 */
00004356  422D D50D                clr.b      [A5 - 0x2AF3]
0000435A  422D D509                clr.b      [A5 - 0x2AF7]
0000435E  4EBA CC28                jsr        [PC - 0x33D8 /* 00000F88 */]
00004362  6014                     bra        +0x16 /* 00004378 */
label00004364:
00004364  422D D50E                clr.b      [A5 - 0x2AF2]
00004368  4EBA F408                jsr        [PC - 0xBF8 /* 00003772 */]
0000436C  422D D4F6                clr.b      [A5 - 0x2B0A]
// begin alternate branch 0000436E-00004378
fn0000436E:
0000436E  D4F6 422D                add.w      A2, [A6 + D4.w * 2 + 0x2D]
label00004372:
00004372  D4FA 422D                add.w      A2, [PC + 0x422D /* 000085A1 */]
00004376  D50A                     addx.b     -[A2], -[A2]
// end alternate branch 0000436E-00004378
fn0000436E: // (misaligned)
00004370  422D D4FA                clr.b      [A5 - 0x2B06]
label00004372: // (misaligned)
00004374  422D D50A                clr.b      [A5 - 0x2AF6]
label00004378:
00004378  4E5E                     unlink     A6
0000437A  205F                     movea.l    A0, [A7]+
0000437C  544F                     addq.w     A7, 2
0000437E  4ED0                     jmp        [A0]
fn00004380:
00004380  4E56 FFFE                link       A6, -0x0002
00004384  102D EFED                move.b     D0, [A5 - 0x1013]
00004388  6608                     bne        +0xA /* 00004392 */
0000438A  4EAD 1812                jsr        [A5 + 0x1812 /* export_766, CODE:16 @ 00000208 */]
0000438E  6000 0184                bra        +0x186 /* 00004514 */
label00004392:
00004392  4EAD 160A                jsr        [A5 + 0x160A /* export_701, CODE:15 @ 00001282 */]
00004396  4EAD 173A                jsr        [A5 + 0x173A /* export_739, CODE:15 @ 00004FD6 */]
0000439A  486D F022                pea.l      [A5 - 0xFDE]
0000439E  A871                     syscall    GlobalToLocal
000043A0  102D EFE0                move.b     D0, [A5 - 0x1020]
000043A4  670C                     beq        +0xE /* 000043B2 */
000043A6  4EBA 0A0C                jsr        [PC + 0xA0C /* 00004DB4 */]
000043AA  4EBA 1802                jsr        [PC + 0x1802 /* 00005BAE */]
000043AE  6000 0164                bra        +0x166 /* 00004514 */
label000043B2:
000043B2  2F3C FFFF FFFF           move.l     -[A7], 0xFFFFFFFF
000043B8  42A7                     clr.l      -[A7]
000043BA  4EAD 1A32                jsr        [A5 + 0x1A32 /* export_834, CODE:16 @ 0000152E */]
000043BE  102D EFD9                move.b     D0, [A5 - 0x1027]
000043C2  C02D EF23                and.b      D0, [A5 - 0x10DD]
000043C6  6728                     beq        +0x2A /* 000043F0 */
000043C8  7000                     moveq.l    D0, 0x00
000043CA  206D EDC8                movea.l    A0, [A5 - 0x1238]
000043CE  3228 0008                move.w     D1, [A0 + 0x8]
000043D2  4441                     neg.w      D1
000043D4  3001                     move.w     D0, D1
000043D6  C0BC 0000 0007           and.l      D0, 0x7
000043DC  3D40 FFFE                move.w     [A6 - 0x2], D0
000043E0  2F3C FFF8 FFF8           move.l     -[A7], 0xFFF8FFF8
000043E6  4267                     clr.w      -[A7]
000043E8  3F2E FFFE                move.w     -[A7], [A6 - 0x2]
000043EC  4EAD 1A32                jsr        [A5 + 0x1A32 /* export_834, CODE:16 @ 0000152E */]
label000043F0:
000043F0  102D F4CD                move.b     D0, [A5 - 0xB33]
000043F4  C02D F016                and.b      D0, [A5 - 0xFEA]
000043F8  7205                     moveq.l    D1, 0x05
000043FA  B26D EFDC                cmp.w      D1, [A5 - 0x1024]
000043FE  5DC1                     slt        D1
00004400  C001                     and.b      D0, D1
00004402  6708                     beq        +0xA /* 0000440C */
00004404  4EAD 15BA                jsr        [A5 + 0x15BA /* export_691, CODE:15 @ 00000AE6 */]
00004408  6000 010A                bra        +0x10C /* 00004514 */
label0000440C:
0000440C  4267                     clr.w      -[A7]
0000440E  4EBA 0FB2                jsr        [PC + 0xFB2 /* 000053C2 */]
00004412  101F                     move.b     D0, [A7]+
00004414  6704                     beq        +0x6 /* 0000441A */
00004416  6000 00FC                bra        +0xFE /* 00004514 */
label0000441A:
0000441A  422D D50E                clr.b      [A5 - 0x2AF2]
0000441E  102D E225                move.b     D0, [A5 - 0x1DDB]
00004422  6608                     bne        +0xA /* 0000442C */
00004424  486D D688                pea.l      [A5 - 0x2978]
00004428  4EBA EBF2                jsr        [PC - 0x140E /* 0000301C */]
label0000442C:
0000442C  486D EE38                pea.l      [A5 - 0x11C8]
00004430  A873                     syscall    SetPort
00004432  302D EFDC                move.w     D0, [A5 - 0x1024]
00004436  5940                     subq.w     D0, 4
00004438  6B00 00D0                bmi        +0xD2 /* 0000450A */
0000443C  0C40 000E                cmpi.w     D0, 0xE
00004440  6E00 00C8                bgt        +0xCA /* 0000450A */
00004444  D040                     add.w      D0, D0
00004446  303B 0006                move.w     D0, [PC + D0.w + 0x6]
0000444A  4EFB 0000                jmp        [PC + D0.w]
0000444E  0020 0034                ori.b      -[A0], 0x34 /* '4' */
00004452  0046 0058                ori.w      D6, 0x58 /* 'X' */
00004456  0066 006C                ori.w      -[A6], 0x6C /* 'l' */
0000445A  0072 0080 0088           ori.w      [A2 + D0.w - 0x78], 0x80
00004460  0092 0098 00A2           ori.l      [A2], 0x9800A2
00004466  00A8 00B2 00B8 102D      ori.l      [A0 + 0x102D], 0xB200B8
0000446E  D510                     add.b      [A0], D2
00004470  6706                     beq        +0x8 /* 00004478 */
00004472  4EBA E012                jsr        [PC - 0x1FEE /* 00002486 */]
00004476  6004                     bra        +0x6 /* 0000447C */
label00004478:
00004478  4EBA F420                jsr        [PC - 0xBE0 /* 0000389A */]
label0000447C:
0000447C  6000 0090                bra        +0x92 /* 0000450E */
00004480  102D D510                move.b     D0, [A5 - 0x2AF0]
00004484  6706                     beq        +0x8 /* 0000448C */
00004486  4EBA DFFE                jsr        [PC - 0x2002 /* 00002486 */]
0000448A  6004                     bra        +0x6 /* 00004490 */
label0000448C:
0000448C  4EBA 21F6                jsr        [PC + 0x21F6 /* 00006684 */]
label00004490:
00004490  607C                     bra        +0x7E /* 0000450E */
00004492  102D F004                move.b     D0, [A5 - 0xFFC]
00004496  6706                     beq        +0x8 /* 0000449E */
00004498  4EBA 2402                jsr        [PC + 0x2402 /* 0000689C */]
0000449C  6070                     bra        +0x72 /* 0000450E */
label0000449E:
0000449E  4EBA 0DBC                jsr        [PC + 0xDBC /* 0000525C */]
000044A2  606A                     bra        +0x6C /* 0000450E */
000044A4  486D EF94                pea.l      [A5 - 0x106C]
000044A8  486D EF44                pea.l      [A5 - 0x10BC]
000044AC  4EBA BE9E                jsr        [PC - 0x4162 /* 0000034C */]
000044B0  605C                     bra        +0x5E /* 0000450E */
000044B2  4EBA E668                jsr        [PC - 0x1998 /* 00002B1C */]
000044B6  6056                     bra        +0x58 /* 0000450E */
000044B8  4EBA D114                jsr        [PC - 0x2EEC /* 000015CE */]
000044BC  6050                     bra        +0x52 /* 0000450E */
000044BE  486D EF94                pea.l      [A5 - 0x106C]
000044C2  486D EF44                pea.l      [A5 - 0x10BC]
000044C6  4EBA BE84                jsr        [PC - 0x417C /* 0000034C */]
000044CA  6042                     bra        +0x44 /* 0000450E */
000044CC  4267                     clr.w      -[A7]
000044CE  4EBA D7BC                jsr        [PC - 0x2844 /* 00001C8C */]
000044D2  603A                     bra        +0x3C /* 0000450E */
000044D4  1F3C 0001                move.b     -[A7], 0x1
000044D8  4EBA D7B2                jsr        [PC - 0x284E /* 00001C8C */]
000044DC  6030                     bra        +0x32 /* 0000450E */
000044DE  4EBA 1130                jsr        [PC + 0x1130 /* 00005610 */]
000044E2  602A                     bra        +0x2C /* 0000450E */
000044E4  1F3C 0002                move.b     -[A7], 0x2
000044E8  4EBA D7A2                jsr        [PC - 0x285E /* 00001C8C */]
000044EC  6020                     bra        +0x22 /* 0000450E */
000044EE  4EBA CF0C                jsr        [PC - 0x30F4 /* 000013FC */]
000044F2  601A                     bra        +0x1C /* 0000450E */
000044F4  1F3C 0001                move.b     -[A7], 0x1
000044F8  4EBA 0F62                jsr        [PC + 0xF62 /* 0000545C */]
000044FC  6010                     bra        +0x12 /* 0000450E */
000044FE  4EBA D446                jsr        [PC - 0x2BBA /* 00001946 */]
00004502  600A                     bra        +0xC /* 0000450E */
00004504  4EBA D20C                jsr        [PC - 0x2DF4 /* 00001712 */]
00004508  6004                     bra        +0x6 /* 0000450E */
label0000450A:
0000450A  4EAD 1812                jsr        [A5 + 0x1812 /* export_766, CODE:16 @ 00000208 */]
label0000450E:
0000450E  1B7C 0001 EFEE           move.b     [A5 - 0x1012], 0x1
label00004514:
00004514  4E5E                     unlink     A6
00004516  4E75                     rts
fn00004518:
00004518  4E56 FFFA                link       A6, -0x0006
0000451C  48E7 0700                movem.l    -[A7], D5,D6,D7
00004520  7001                     moveq.l    D0, 0x01
00004522  B06D EFF4                cmp.w      D0, [A5 - 0x100C]
00004526  6606                     bne        +0x8 /* 0000452E */
00004528  3B6D EFDC D71E           move.w     [A5 - 0x28E2], [A5 - 0x1024]
label0000452E:
0000452E  486D F022                pea.l      [A5 - 0xFDE]
00004532  A871                     syscall    GlobalToLocal
00004534  302D F024                move.w     D0, [A5 - 0xFDC]
00004538  48C0                     ext.l      D0
0000453A  81FC 0017                divs.w     D0, 0x17
0000453E  3A00                     move.w     D5, D0
00004540  302D F022                move.w     D0, [A5 - 0xFDE]
00004544  5940                     subq.w     D0, 4
00004546  48C0                     ext.l      D0
00004548  81FC 0015                divs.w     D0, 0x15
0000454C  3C00                     move.w     D6, D0
0000454E  3005                     move.w     D0, D5
00004550  5240                     addq.w     D0, 1
00004552  3206                     move.w     D1, D6
00004554  C3FC 0003                muls.w     D1, 0x3
00004558  3E01                     move.w     D7, D1
0000455A  DE40                     add.w      D7, D0
0000455C  3F3C 0005                move.w     -[A7], 0x5
00004560  3F07                     move.w     -[A7], D7
00004562  4EAD 21BA                jsr        [A5 + 0x21BA /* export_1075, CODE:20 @ 00004336 */]
00004566  2F2D EDC4                move.l     -[A7], [A5 - 0x123C]
0000456A  A91F                     syscall    SelectWindow
0000456C  2F2D EDC4                move.l     -[A7], [A5 - 0x123C]
00004570  4EAD 22E2                jsr        [A5 + 0x22E2 /* export_1112, CODE:20 @ 0000633A */]
00004574  7001                     moveq.l    D0, 0x01
00004576  B06D EFF4                cmp.w      D0, [A5 - 0x100C]
0000457A  6C00 00DA                bge        +0xDC /* 00004656 */
0000457E  3007                     move.w     D0, D7
00004580  5940                     subq.w     D0, 4
00004582  6B00 00D2                bmi        +0xD4 /* 00004656 */
00004586  0C40 000E                cmpi.w     D0, 0xE
0000458A  6E00 00CA                bgt        +0xCC /* 00004656 */
0000458E  D040                     add.w      D0, D0
00004590  303B 0006                move.w     D0, [PC + D0.w + 0x6]
00004594  4EFB 0000                jmp        [PC + D0.w]
00004598  0020 0028                ori.b      -[A0], 0x28 /* '(' */
0000459C  0030 0038 0040           ori.b      [A0 + D0.w + 0x40], 0x38 /* '8' */
000045A2  006E 00C0 00B4           ori.w      [A6 + 0xB4], 0xC0
000045A8  00B4 007C 00B4 00B4      ori.l      [A4 + D0.w - 0x4C], 0x7C00B4
000045B0  008E 00AE 00B4           ori.l      A6, 0xAE00B4
000045B6  4EBA 16CE                jsr        [PC + 0x16CE /* 00005C86 */]
000045BA  6000 009A                bra        +0x9C /* 00004656 */
000045BE  4EBA 1838                jsr        [PC + 0x1838 /* 00005DF8 */]
000045C2  6000 0092                bra        +0x94 /* 00004656 */
000045C6  4EBA 22D4                jsr        [PC + 0x22D4 /* 0000689C */]
000045CA  6000 008A                bra        +0x8C /* 00004656 */
000045CE  4EBA C1E0                jsr        [PC - 0x3E20 /* 000007B0 */]
000045D2  6000 0082                bra        +0x84 /* 00004656 */
000045D6  102D F4CD                move.b     D0, [A5 - 0xB33]
000045DA  C02D F016                and.b      D0, [A5 - 0xFEA]
000045DE  4A00                     tst.b      D0
000045E0  6620                     bne        +0x22 /* 00004602 */
000045E2  2F00                     move.l     -[A7], D0
000045E4  4267                     clr.w      -[A7]
000045E6  4EBA 0DDA                jsr        [PC + 0xDDA /* 000053C2 */]
000045EA  121F                     move.b     D1, [A7]+
000045EC  201F                     move.l     D0, [A7]+
000045EE  8001                     or.b       D0, D1
000045F0  6610                     bne        +0x12 /* 00004602 */
000045F2  4EBA 1692                jsr        [PC + 0x1692 /* 00005C86 */]
000045F6  4EBA C81E                jsr        [PC - 0x37E2 /* 00000E16 */]
000045FA  3F2D D71E                move.w     -[A7], [A5 - 0x28E2]
000045FE  4EBA FD1A                jsr        [PC - 0x2E6 /* 0000431A */]
label00004602:
00004602  6052                     bra        +0x54 /* 00004656 */
00004604  4EBA C3A4                jsr        [PC - 0x3C5C /* 000009AA */]
00004608  3F2D D71E                move.w     -[A7], [A5 - 0x28E2]
0000460C  4EBA FD0C                jsr        [PC - 0x2F4 /* 0000431A */]
00004610  6044                     bra        +0x46 /* 00004656 */
00004612  2F2D EDC0                move.l     -[A7], [A5 - 0x1240]
00004616  4EAD 227A                jsr        [A5 + 0x227A /* export_1099, CODE:20 @ 000053BE */]
0000461A  3F2D D71E                move.w     -[A7], [A5 - 0x28E2]
0000461E  4EBA FCFA                jsr        [PC - 0x306 /* 0000431A */]
00004622  6032                     bra        +0x34 /* 00004656 */
00004624  4267                     clr.w      -[A7]
00004626  486D E1E8                pea.l      [A5 - 0x1E18]
0000462A  4EAD 1792                jsr        [A5 + 0x1792 /* export_750, CODE:15 @ 00005DF0 */]
0000462E  101F                     move.b     D0, [A7]+
00004630  6710                     beq        +0x12 /* 00004642 */
00004632  1F3C 0001                move.b     -[A7], 0x1
00004636  4EBA 288A                jsr        [PC + 0x288A /* 00006EC2 */]
0000463A  3F2D E1FE                move.w     -[A7], [A5 - 0x1E02]
0000463E  4EAD 21D2                jsr        [A5 + 0x21D2 /* export_1078, CODE:20 @ 00004516 */]
label00004642:
00004642  6012                     bra        +0x14 /* 00004656 */
00004644  4EBA C4D8                jsr        [PC - 0x3B28 /* 00000B1E */]
00004648  600C                     bra        +0xE /* 00004656 */
0000464A  4EAD 2272                jsr        [A5 + 0x2272 /* export_1098, CODE:20 @ 00005394 */]
0000464E  3F2D D71E                move.w     -[A7], [A5 - 0x28E2]
00004652  4EBA FCC6                jsr        [PC - 0x33A /* 0000431A */]
label00004656:
00004656  4CDF 00E0                movem.l    D5,D6,D7, [A7]+
0000465A  4E5E                     unlink     A6
0000465C  4E75                     rts
export_618:
fn0000465E:
0000465E  4E56 FFEC                link       A6, -0x0014
00004662  48E7 0F00                movem.l    -[A7], D4,D5,D6,D7
00004666  102D FD8D                move.b     D0, [A5 - 0x273]
0000466A  671A                     beq        +0x1C /* 00004686 */
0000466C  2F3C 0000 001E           move.l     -[A7], 0x1E
00004672  201F                     move.l     D0, [A7]+
00004674  A032                     syscall    FlushEvents
00004676  422D FD8D                clr.b      [A5 - 0x273]
0000467A  42A7                     clr.l      -[A7]
0000467C  A975                     syscall    TickCount
0000467E  2B5F FD8E                move.l     [A5 - 0x272], [A7]+
00004682  6000 0362                bra        +0x364 /* 000049E6 */
label00004686:
00004686  102D EFED                move.b     D0, [A5 - 0x1013]
0000468A  6708                     beq        +0xA /* 00004694 */
0000468C  2F2D F022                move.l     -[A7], [A5 - 0xFDE]
00004690  4EBA 24F8                jsr        [PC + 0x24F8 /* 00006B8A */]
label00004694:
00004694  7000                     moveq.l    D0, 0x00
00004696  302D F026                move.w     D0, [A5 - 0xFDA]
0000469A  C0BC 0000 0200           and.l      D0, 0x200
000046A0  4A80                     tst.l      D0
000046A2  56C0                     sne        D0
000046A4  4400                     neg.b      D0
000046A6  1B40 F005                move.b     [A5 - 0xFFB], D0
000046AA  7000                     moveq.l    D0, 0x00
000046AC  302D F026                move.w     D0, [A5 - 0xFDA]
000046B0  C0BC 0000 0100           and.l      D0, 0x100
000046B6  4A80                     tst.l      D0
000046B8  56C0                     sne        D0
000046BA  4400                     neg.b      D0
000046BC  1B40 F004                move.b     [A5 - 0xFFC], D0
000046C0  7000                     moveq.l    D0, 0x00
000046C2  302D F026                move.w     D0, [A5 - 0xFDA]
000046C6  C0BC 0000 0800           and.l      D0, 0x800
000046CC  4A80                     tst.l      D0
000046CE  56C0                     sne        D0
000046D0  4400                     neg.b      D0
000046D2  1B40 F003                move.b     [A5 - 0xFFD], D0
000046D6  7006                     moveq.l    D0, 0x06
000046D8  B06D F018                cmp.w      D0, [A5 - 0xFE8]
000046DC  6604                     bne        +0x6 /* 000046E2 */
000046DE  4EAD 15D2                jsr        [A5 + 0x15D2 /* export_694, CODE:15 @ 00000B4E */]
label000046E2:
000046E2  7002                     moveq.l    D0, 0x02
000046E4  B06D F018                cmp.w      D0, [A5 - 0xFE8]
000046E8  6748                     beq        +0x4A /* 00004732 */
000046EA  102D D4DD                move.b     D0, [A5 - 0x2B23]
000046EE  6704                     beq        +0x6 /* 000046F4 */
000046F0  4EBA EE74                jsr        [PC - 0x118C /* 00003566 */]
label000046F4:
000046F4  4EBA C8B2                jsr        [PC - 0x374E /* 00000FA8 */]
000046F8  422D D50F                clr.b      [A5 - 0x2AF1]
000046FC  102D D50D                move.b     D0, [A5 - 0x2AF3]
00004700  802D D509                or.b       D0, [A5 - 0x2AF7]
00004704  6716                     beq        +0x18 /* 0000471C */
00004706  7001                     moveq.l    D0, 0x01
00004708  B06D F018                cmp.w      D0, [A5 - 0xFE8]
0000470C  57C0                     seq        D0
0000470E  C02D D510                and.b      D0, [A5 - 0x2AF0]
00004712  6608                     bne        +0xA /* 0000471C */
00004714  486D D500                pea.l      [A5 - 0x2B00]
00004718  4EBA 2A54                jsr        [PC + 0x2A54 /* 0000716E */]
label0000471C:
0000471C  302D EF1A                move.w     D0, [A5 - 0x10E6]
00004720  48C0                     ext.l      D0
00004722  81FC 0002                divs.w     D0, 0x2
00004726  3B40 EF18                move.w     [A5 - 0x10E8], D0
0000472A  3F2D EF1A                move.w     -[A7], [A5 - 0x10E6]
0000472E  4EBA 1838                jsr        [PC + 0x1838 /* 00005F68 */]
label00004732:
00004732  302D F018                move.w     D0, [A5 - 0xFE8]
00004736  5340                     subq.w     D0, 1
00004738  6730                     beq        +0x32 /* 0000476A */
0000473A  5340                     subq.w     D0, 1
0000473C  6728                     beq        +0x2A /* 00004766 */
0000473E  5340                     subq.w     D0, 1
00004740  6700 01F0                beq        +0x1F2 /* 00004932 */
00004744  5540                     subq.w     D0, 2
00004746  6700 01EA                beq        +0x1EC /* 00004932 */
0000474A  5340                     subq.w     D0, 1
0000474C  6700 025E                beq        +0x260 /* 000049AC */
00004750  5340                     subq.w     D0, 1
00004752  6700 0268                beq        +0x26A /* 000049BC */
00004756  5340                     subq.w     D0, 1
00004758  6700 0226                beq        +0x228 /* 00004980 */
0000475C  5F40                     subq.w     D0, 7
0000475E  6700 0282                beq        +0x284 /* 000049E2 */
00004762  6000 0282                bra        +0x284 /* 000049E6 */
label00004766:
00004766  6000 027E                bra        +0x280 /* 000049E6 */
label0000476A:
0000476A  4EAD 17B2                jsr        [A5 + 0x17B2 /* export_754, CODE:15 @ 000064EE */]
0000476E  102D F017                move.b     D0, [A5 - 0xFE9]
00004772  0A00 0001                xori.b     D0, 0x1
00004776  122D F015                move.b     D1, [A5 - 0xFEB]
0000477A  0A01 0001                xori.b     D1, 0x1
0000477E  C001                     and.b      D0, D1
00004780  1B40 F016                move.b     [A5 - 0xFEA], D0
00004784  102D F017                move.b     D0, [A5 - 0xFE9]
00004788  6712                     beq        +0x14 /* 0000479C */
0000478A  7E03                     moveq.l    D7, 0x03
0000478C  2D6D EDC8 FFFA           move.l     [A6 - 0x6], [A5 - 0x1238]
00004792  422D EFEE                clr.b      [A5 - 0x1012]
00004796  422D EFEF                clr.b      [A5 - 0x1011]
0000479A  600E                     bra        +0x10 /* 000047AA */
label0000479C:
0000479C  4267                     clr.w      -[A7]
0000479E  2F2D F022                move.l     -[A7], [A5 - 0xFDE]
000047A2  486E FFFA                pea.l      [A6 - 0x6]
000047A6  A92C                     syscall    FindWindow
000047A8  3E1F                     move.w     D7, [A7]+
label000047AA:
000047AA  202D EFF6                move.l     D0, [A5 - 0x100A]
000047AE  721E                     moveq.l    D1, 0x1E
000047B0  D081                     add.l      D0, D1
000047B2  B0AD F01E                cmp.l      D0, [A5 - 0xFE2]
000047B6  5EC0                     sgt        D0
000047B8  2F00                     move.l     -[A7], D0
000047BA  4267                     clr.w      -[A7]
000047BC  2F2D F022                move.l     -[A7], [A5 - 0xFDE]
000047C0  2F2D EFF0                move.l     -[A7], [A5 - 0x1010]
000047C4  3F3C 0004                move.w     -[A7], 0x4
000047C8  4EAD 1A72                jsr        [A5 + 0x1A72 /* export_842, CODE:16 @ 000019A8 */]
000047CC  121F                     move.b     D1, [A7]+
000047CE  201F                     move.l     D0, [A7]+
000047D0  C001                     and.b      D0, D1
000047D2  6706                     beq        +0x8 /* 000047DA */
000047D4  526D EFF4                addq.w     [A5 - 0x100C], 1
000047D8  6006                     bra        +0x8 /* 000047E0 */
label000047DA:
000047DA  3B7C 0001 EFF4           move.w     [A5 - 0x100C], 0x1
label000047E0:
000047E0  2B6D F01E EFF6           move.l     [A5 - 0x100A], [A5 - 0xFE2]
000047E6  2B6D F022 EFF0           move.l     [A5 - 0x1010], [A5 - 0xFDE]
000047EC  7001                     moveq.l    D0, 0x01
000047EE  B06D EFF4                cmp.w      D0, [A5 - 0x100C]
000047F2  5DC0                     slt        D0
000047F4  C02D EFEF                and.b      D0, [A5 - 0x1011]
000047F8  6702                     beq        +0x4 /* 000047FC */
000047FA  7EFF                     moveq.l    D7, 0xFFFFFFFF
label000047FC:
000047FC  422D EFEF                clr.b      [A5 - 0x1011]
00004800  102D EFEE                move.b     D0, [A5 - 0x1012]
00004804  6706                     beq        +0x8 /* 0000480C */
00004806  3B7C 0001 EFF4           move.w     [A5 - 0x100C], 0x1
label0000480C:
0000480C  7001                     moveq.l    D0, 0x01
0000480E  B06D EFF4                cmp.w      D0, [A5 - 0x100C]
00004812  5DC0                     slt        D0
00004814  4400                     neg.b      D0
00004816  1B40 EFEE                move.b     [A5 - 0x1012], D0
0000481A  3007                     move.w     D0, D7
0000481C  5340                     subq.w     D0, 1
0000481E  6718                     beq        +0x1A /* 00004838 */
00004820  5340                     subq.w     D0, 1
00004822  6756                     beq        +0x58 /* 0000487A */
00004824  5340                     subq.w     D0, 1
00004826  6700 00AA                beq        +0xAC /* 000048D2 */
0000482A  5340                     subq.w     D0, 1
0000482C  6700 0084                beq        +0x86 /* 000048B2 */
00004830  5540                     subq.w     D0, 2
00004832  6754                     beq        +0x56 /* 00004888 */
00004834  6000 00F4                bra        +0xF6 /* 0000492A */
label00004838:
00004838  4EAD 1862                jsr        [A5 + 0x1862 /* export_776, CODE:16 @ 00000474 */]
0000483C  4EAD 15CA                jsr        [A5 + 0x15CA /* export_693, CODE:15 @ 00000B34 */]
00004840  42A7                     clr.l      -[A7]
00004842  2F2D F022                move.l     -[A7], [A5 - 0xFDE]
00004846  A93D                     syscall    MenuSelect
00004848  2C1F                     move.l     D6, [A7]+
0000484A  2A06                     move.l     D5, D6
0000484C  4845                     swap.w     D5
0000484E  2806                     move.l     D4, D6
00004850  3F05                     move.w     -[A7], D5
00004852  3F04                     move.w     -[A7], D4
00004854  4EAD 15DA                jsr        [A5 + 0x15DA /* export_695, CODE:15 @ 00000D18 */]
00004858  3F05                     move.w     -[A7], D5
0000485A  3F04                     move.w     -[A7], D4
0000485C  4EAD 21BA                jsr        [A5 + 0x21BA /* export_1075, CODE:20 @ 00004336 */]
00004860  4A6D FD8A                tst.w      [A5 - 0x276]
00004864  5CC0                     sge        D0
00004866  C02D E0E7                and.b      D0, [A5 - 0x1F19]
0000486A  6704                     beq        +0x6 /* 00004870 */
0000486C  4267                     clr.w      -[A7]
0000486E  A938                     syscall    HiliteMenu
label00004870:
00004870  1B7C 0001 EFEE           move.b     [A5 - 0x1012], 0x1
00004876  6000 00B2                bra        +0xB4 /* 0000492A */
label0000487A:
0000487A  486D F018                pea.l      [A5 - 0xFE8]
0000487E  2F2E FFFA                move.l     -[A7], [A6 - 0x6]
00004882  A9B3                     syscall    SystemClick
00004884  6000 00A4                bra        +0xA6 /* 0000492A */
label00004888:
00004888  4267                     clr.w      -[A7]
0000488A  2F2E FFFA                move.l     -[A7], [A6 - 0x6]
0000488E  2F2D F022                move.l     -[A7], [A5 - 0xFDE]
00004892  A91E                     syscall    TrackGoAway
00004894  101F                     move.b     D0, [A7]+
00004896  6718                     beq        +0x1A /* 000048B0 */
00004898  202E FFFA                move.l     D0, [A6 - 0x6]
0000489C  B0AD EDB8                cmp.l      D0, [A5 - 0x1248]
000048A0  6604                     bne        +0x6 /* 000048A6 */
000048A2  4EAD 160A                jsr        [A5 + 0x160A /* export_701, CODE:15 @ 00001282 */]
label000048A6:
000048A6  2F2E FFFA                move.l     -[A7], [A6 - 0x6]
000048AA  A916                     syscall    HideWindow
000048AC  4EAD 22A2                jsr        [A5 + 0x22A2 /* export_1104, CODE:20 @ 00005D82 */]
label000048B0:
000048B0  6078                     bra        +0x7A /* 0000492A */
label000048B2:
000048B2  202E FFFA                move.l     D0, [A6 - 0x6]
000048B6  B0AD EDC8                cmp.l      D0, [A5 - 0x1238]
000048BA  6606                     bne        +0x8 /* 000048C2 */
000048BC  4EAD 167A                jsr        [A5 + 0x167A /* export_715, CODE:15 @ 0000300A */]
000048C0  6068                     bra        +0x6A /* 0000492A */
label000048C2:
000048C2  2F2E FFFA                move.l     -[A7], [A6 - 0x6]
000048C6  2F2D F022                move.l     -[A7], [A5 - 0xFDE]
000048CA  486D FE34                pea.l      [A5 - 0x1CC]
000048CE  A925                     syscall    DragWindow
000048D0  6058                     bra        +0x5A /* 0000492A */
label000048D2:
000048D2  2F2E FFFA                move.l     -[A7], [A6 - 0x6]
000048D6  A873                     syscall    SetPort
000048D8  202E FFFA                move.l     D0, [A6 - 0x6]
000048DC  B0AD EDC8                cmp.l      D0, [A5 - 0x1238]
000048E0  6604                     bne        +0x6 /* 000048E6 */
000048E2  4EBA FA9C                jsr        [PC - 0x564 /* 00004380 */]
label000048E6:
000048E6  202E FFFA                move.l     D0, [A6 - 0x6]
000048EA  B0AD EDB8                cmp.l      D0, [A5 - 0x1248]
000048EE  6604                     bne        +0x6 /* 000048F4 */
000048F0  4EBA C5A4                jsr        [PC - 0x3A5C /* 00000E96 */]
label000048F4:
000048F4  202E FFFA                move.l     D0, [A6 - 0x6]
000048F8  B0AD EDC4                cmp.l      D0, [A5 - 0x123C]
000048FC  6604                     bne        +0x6 /* 00004902 */
000048FE  4EBA FC18                jsr        [PC - 0x3E8 /* 00004518 */]
label00004902:
00004902  202E FFFA                move.l     D0, [A6 - 0x6]
00004906  B0AD EDBC                cmp.l      D0, [A5 - 0x1244]
0000490A  6604                     bne        +0x6 /* 00004910 */
0000490C  4EBA 1F8E                jsr        [PC + 0x1F8E /* 0000689C */]
label00004910:
00004910  202E FFFA                move.l     D0, [A6 - 0x6]
00004914  B0AD EDC0                cmp.l      D0, [A5 - 0x1240]
00004918  6610                     bne        +0x12 /* 0000492A */
0000491A  7001                     moveq.l    D0, 0x01
0000491C  B06D EFF4                cmp.w      D0, [A5 - 0x100C]
00004920  6C04                     bge        +0x6 /* 00004926 */
00004922  4EBA B6DC                jsr        [PC - 0x4924 /* 00000000 */]
label00004926:
00004926  4EAD 15FA                jsr        [A5 + 0x15FA /* export_699, CODE:15 @ 0000110A */]
label0000492A:
0000492A  422D F016                clr.b      [A5 - 0xFEA]
0000492E  6000 00B6                bra        +0xB8 /* 000049E6 */
label00004932:
00004932  102D EFED                move.b     D0, [A5 - 0x1013]
00004936  6746                     beq        +0x48 /* 0000497E */
00004938  4267                     clr.w      -[A7]
0000493A  3F2D F01C                move.w     -[A7], [A5 - 0xFE4]
0000493E  4EAD 200A                jsr        [A5 + 0x200A /* export_1021, CODE:20 @ 0000008A */]
00004942  3B5F F008                move.w     [A5 - 0xFF8], [A7]+
00004946  202D F01A                move.l     D0, [A5 - 0xFE6]
0000494A  C0BC 0000 00FF           and.l      D0, 0xFF
00004950  3B40 F00C                move.w     [A5 - 0xFF4], D0
00004954  102D F017                move.b     D0, [A5 - 0xFE9]
00004958  0A00 0001                xori.b     D0, 0x1
0000495C  122D F015                move.b     D1, [A5 - 0xFEB]
00004960  0A01 0001                xori.b     D1, 0x1
00004964  C001                     and.b      D0, D1
00004966  1B40 F016                move.b     [A5 - 0xFEA], D0
0000496A  102D F004                move.b     D0, [A5 - 0xFFC]
0000496E  6706                     beq        +0x8 /* 00004976 */
00004970  4EBA C794                jsr        [PC - 0x386C /* 00001106 */]
00004974  6004                     bra        +0x6 /* 0000497A */
label00004976:
00004976  4EBA F218                jsr        [PC - 0xDE8 /* 00003B90 */]
label0000497A:
0000497A  422D F016                clr.b      [A5 - 0xFEA]
label0000497E:
0000497E  6066                     bra        +0x68 /* 000049E6 */
label00004980:
00004980  102D F027                move.b     D0, [A5 - 0xFD9]
00004984  0240 0001                andi.w     D0, 0x1
00004988  1B40 EFED                move.b     [A5 - 0x1013], D0
0000498C  7000                     moveq.l    D0, 0x00
0000498E  302D F026                move.w     D0, [A5 - 0xFDA]
00004992  C0BC 0000 0002           and.l      D0, 0x2
00004998  4A80                     tst.l      D0
0000499A  670E                     beq        +0x10 /* 000049AA */
0000499C  4EAD 15D2                jsr        [A5 + 0x15D2 /* export_694, CODE:15 @ 00000B4E */]
000049A0  102D EFED                move.b     D0, [A5 - 0x1013]
000049A4  6604                     bne        +0x6 /* 000049AA */
000049A6  4EBA 040C                jsr        [PC + 0x40C /* 00004DB4 */]
label000049AA:
000049AA  603A                     bra        +0x3C /* 000049E6 */
label000049AC:
000049AC  2D6D F01A FFFA           move.l     [A6 - 0x6], [A5 - 0xFE6]
000049B2  2F2E FFFA                move.l     -[A7], [A6 - 0x6]
000049B6  4EAD 22E2                jsr        [A5 + 0x22E2 /* export_1112, CODE:20 @ 0000633A */]
000049BA  602A                     bra        +0x2C /* 000049E6 */
label000049BC:
000049BC  4A6D F01A                tst.w      [A5 - 0xFE6]
000049C0  6C1E                     bge        +0x20 /* 000049E0 */
000049C2  3D7C 0082 FFF6           move.w     [A6 - 0xA], 0x82
000049C8  3D7C 0064 FFF4           move.w     [A6 - 0xC], 0x64 /* 'd' */
000049CE  4267                     clr.w      -[A7]
000049D0  2F2E FFF4                move.l     -[A7], [A6 - 0xC]
000049D4  2F2D F01A                move.l     -[A7], [A5 - 0xFE6]
000049D8  4EAD 041A                jsr        [A5 + 0x41A /* export_127, CODE:1 @ 00004D30 */]
000049DC  3D5F FFF8                move.w     [A6 - 0x8], [A7]+
label000049E0:
000049E0  6004                     bra        +0x6 /* 000049E6 */
label000049E2:
000049E2  4EAD 166A                jsr        [A5 + 0x166A /* export_713, CODE:15 @ 00002D7C */]
label000049E6:
000049E6  42A7                     clr.l      -[A7]
000049E8  A975                     syscall    TickCount
000049EA  2B5F EFFA                move.l     [A5 - 0x1006], [A7]+
000049EE  4CDF 00F0                movem.l    D4,D5,D6,D7, [A7]+
000049F2  4E5E                     unlink     A6
000049F4  4E75                     rts
export_619:
000049F6  4E56 FEFE                link       A6, -0x0102
000049FA  48E7 0300                movem.l    -[A7], D6,D7
000049FE  3E2E 0008                move.w     D7, [A6 + 0x8]
00004A02  3C2E 000A                move.w     D6, [A6 + 0xA]
00004A06  4A46                     tst.w      D6
00004A08  57C0                     seq        D0
00004A0A  4A47                     tst.w      D7
00004A0C  57C1                     seq        D1
00004A0E  8001                     or.b       D0, D1
00004A10  6704                     beq        +0x6 /* 00004A16 */
00004A12  6000 02FC                bra        +0x2FE /* 00004D10 */
label00004A16:
00004A16  422D EDAA                clr.b      [A5 - 0x1256]
00004A1A  1B7C 0001 F014           move.b     [A5 - 0xFEC], 0x1
00004A20  7003                     moveq.l    D0, 0x03
00004A22  B046                     cmp.w      D0, D6
00004A24  56C0                     sne        D0
00004A26  7201                     moveq.l    D1, 0x01
00004A28  B247                     cmp.w      D1, D7
00004A2A  56C1                     sne        D1
00004A2C  8001                     or.b       D0, D1
00004A2E  6704                     beq        +0x6 /* 00004A34 */
00004A30  4EAD 173A                jsr        [A5 + 0x173A /* export_739, CODE:15 @ 00004FD6 */]
label00004A34:
00004A34  7003                     moveq.l    D0, 0x03
00004A36  B046                     cmp.w      D0, D6
00004A38  56C0                     sne        D0
00004A3A  7206                     moveq.l    D1, 0x06
00004A3C  B247                     cmp.w      D1, D7
00004A3E  5DC1                     slt        D1
00004A40  740D                     moveq.l    D2, 0x0D
00004A42  B447                     cmp.w      D2, D7
00004A44  56C2                     sne        D2
00004A46  C202                     and.b      D1, D2
00004A48  8001                     or.b       D0, D1
00004A4A  6704                     beq        +0x6 /* 00004A50 */
00004A4C  4EAD 160A                jsr        [A5 + 0x160A /* export_701, CODE:15 @ 00001282 */]
label00004A50:
00004A50  3006                     move.w     D0, D6
00004A52  5340                     subq.w     D0, 1
00004A54  6B00 02B2                bmi        +0x2B4 /* 00004D08 */
00004A58  0C40 000B                cmpi.w     D0, 0xB
00004A5C  6E00 02AA                bgt        +0x2AC /* 00004D08 */
00004A60  D040                     add.w      D0, D0
00004A62  303B 0006                move.w     D0, [PC + D0.w + 0x6]
00004A66  4EFB 0000                jmp        [PC + D0.w]
00004A6A  001A 02A0                ori.b      [A2]+, 0xA0
00004A6E  0086 014A 0154           ori.l      D6, 0x14A0154
00004A74  02A0 016C 022C           andi.l     -[A0], 0x16C022C
00004A7A  015E                     bchg       [A6]+, D0
00004A7C  02A0 02A0 0024           andi.l     -[A0], 0x2A00024
00004A82  3F07                     move.w     -[A7], D7
00004A84  4EAD 163A                jsr        [A5 + 0x163A /* export_707, CODE:15 @ 000026F4 */]
00004A88  6000 0282                bra        +0x284 /* 00004D0C */
00004A8C  3007                     move.w     D0, D7
00004A8E  5340                     subq.w     D0, 1
00004A90  6718                     beq        +0x1A /* 00004AAA */
00004A92  5340                     subq.w     D0, 1
00004A94  671A                     beq        +0x1C /* 00004AB0 */
00004A96  5340                     subq.w     D0, 1
00004A98  6732                     beq        +0x34 /* 00004ACC */
00004A9A  5540                     subq.w     D0, 2
00004A9C  6734                     beq        +0x36 /* 00004AD2 */
00004A9E  5340                     subq.w     D0, 1
00004AA0  6736                     beq        +0x38 /* 00004AD8 */
00004AA2  0440 000B                subi.w     D0, 0xB
00004AA6  6736                     beq        +0x38 /* 00004ADE */
00004AA8  603C                     bra        +0x3E /* 00004AE6 */
label00004AAA:
00004AAA  4EAD 162A                jsr        [A5 + 0x162A /* export_705, CODE:15 @ 000016D2 */]
00004AAE  603A                     bra        +0x3C /* 00004AEA */
label00004AB0:
00004AB0  4267                     clr.w      -[A7]
00004AB2  486E FF00                pea.l      [A6 - 0x100]
00004AB6  4EAD 15EA                jsr        [A5 + 0x15EA /* export_697, CODE:15 @ 00000DD2 */]
00004ABA  101F                     move.b     D0, [A7]+
00004ABC  670C                     beq        +0xE /* 00004ACA */
00004ABE  7001                     moveq.l    D0, 0x01
00004AC0  2F00                     move.l     -[A7], D0
00004AC2  486E FF00                pea.l      [A6 - 0x100]
00004AC6  4EAD 20C2                jsr        [A5 + 0x20C2 /* export_1044, CODE:20 @ 0000133E */]
label00004ACA:
00004ACA  601E                     bra        +0x20 /* 00004AEA */
label00004ACC:
00004ACC  4EAD 2192                jsr        [A5 + 0x2192 /* export_1070, CODE:20 @ 00003AC6 */]
00004AD0  6018                     bra        +0x1A /* 00004AEA */
label00004AD2:
00004AD2  4EBA E8EA                jsr        [PC - 0x1716 /* 000033BE */]
00004AD6  6012                     bra        +0x14 /* 00004AEA */
label00004AD8:
00004AD8  4EBA E084                jsr        [PC - 0x1F7C /* 00002B5E */]
00004ADC  600C                     bra        +0xE /* 00004AEA */
label00004ADE:
00004ADE  1B7C 0001 F030           move.b     [A5 - 0xFD0], 0x1
00004AE4  6004                     bra        +0x6 /* 00004AEA */
label00004AE6:
00004AE6  4EAD 1812                jsr        [A5 + 0x1812 /* export_766, CODE:16 @ 00000208 */]
label00004AEA:
00004AEA  6000 0220                bra        +0x222 /* 00004D0C */
00004AEE  7006                     moveq.l    D0, 0x06
00004AF0  B047                     cmp.w      D0, D7
00004AF2  5CC0                     sge        D0
00004AF4  4A00                     tst.b      D0
00004AF6  6716                     beq        +0x18 /* 00004B0E */
00004AF8  2F00                     move.l     -[A7], D0
00004AFA  4267                     clr.w      -[A7]
00004AFC  3207                     move.w     D1, D7
00004AFE  5341                     subq.w     D1, 1
00004B00  3F01                     move.w     -[A7], D1
00004B02  A9C2                     syscall    SysEdit
00004B04  121F                     move.b     D1, [A7]+
00004B06  201F                     move.l     D0, [A7]+
00004B08  C001                     and.b      D0, D1
00004B0A  6600 00A2                bne        +0xA4 /* 00004BAE */
label00004B0E:
00004B0E  3007                     move.w     D0, D7
00004B10  5340                     subq.w     D0, 1
00004B12  6B00 009A                bmi        +0x9C /* 00004BAE */
00004B16  0C40 000D                cmpi.w     D0, 0xD /* '\r' */
00004B1A  6E00 0092                bgt        +0x94 /* 00004BAE */
00004B1E  D040                     add.w      D0, D0
00004B20  303B 0006                move.w     D0, [PC + D0.w + 0x6]
00004B24  4EFB 0000                jmp        [PC + D0.w]
00004B28  001E 0088                ori.b      [A6]+, 0x88
00004B2C  0024 002E                ori.b      -[A4], 0x2E /* '.' */
00004B30  0036 003C 0088           ori.b      [A6 + D0.w - 0x78], 0x3C /* '<' */
00004B36  0042 0048                ori.w      D2, 0x48 /* 'H' */
00004B3A  0052 005C                ori.w      [A2], 0x5C /* '\\' */
00004B3E  0088 0064 0084           ori.l      A0, 0x640084
00004B44  4EBA 2292                jsr        [PC + 0x2292 /* 00006DD8 */]
00004B48  6064                     bra        +0x66 /* 00004BAE */
00004B4A  1F3C 0001                move.b     -[A7], 0x1
00004B4E  4EBA D4C8                jsr        [PC - 0x2B38 /* 00002018 */]
00004B52  605A                     bra        +0x5C /* 00004BAE */
00004B54  4267                     clr.w      -[A7]
00004B56  4EBA D4C0                jsr        [PC - 0x2B40 /* 00002018 */]
00004B5A  6052                     bra        +0x54 /* 00004BAE */
00004B5C  4EBA 0302                jsr        [PC + 0x302 /* 00004E60 */]
00004B60  604C                     bra        +0x4E /* 00004BAE */
00004B62  4EBA C2B2                jsr        [PC - 0x3D4E /* 00000E16 */]
00004B66  6046                     bra        +0x48 /* 00004BAE */
00004B68  4EAD 154A                jsr        [A5 + 0x154A /* export_677, CODE:15 @ 000000EC */]
00004B6C  6040                     bra        +0x42 /* 00004BAE */
00004B6E  4EBA B56A                jsr        [PC - 0x4A96 /* 000000DA */]
00004B72  4EAD 1632                jsr        [A5 + 0x1632 /* export_706, CODE:15 @ 00002416 */]
00004B76  6036                     bra        +0x38 /* 00004BAE */
00004B78  1F3C 0001                move.b     -[A7], 0x1
00004B7C  4EAD 161A                jsr        [A5 + 0x161A /* export_703, CODE:15 @ 00001338 */]
00004B80  602C                     bra        +0x2E /* 00004BAE */
00004B82  4267                     clr.w      -[A7]
00004B84  4EAD 161A                jsr        [A5 + 0x161A /* export_703, CODE:15 @ 00001338 */]
00004B88  6024                     bra        +0x26 /* 00004BAE */
00004B8A  4267                     clr.w      -[A7]
00004B8C  486D E1E8                pea.l      [A5 - 0x1E18]
00004B90  4EAD 1792                jsr        [A5 + 0x1792 /* export_750, CODE:15 @ 00005DF0 */]
00004B94  101F                     move.b     D0, [A7]+
00004B96  6710                     beq        +0x12 /* 00004BA8 */
00004B98  1F3C 0001                move.b     -[A7], 0x1
00004B9C  4EBA 2324                jsr        [PC + 0x2324 /* 00006EC2 */]
00004BA0  3F2D E1FE                move.w     -[A7], [A5 - 0x1E02]
00004BA4  4EAD 21D2                jsr        [A5 + 0x21D2 /* export_1078, CODE:20 @ 00004516 */]
label00004BA8:
00004BA8  6004                     bra        +0x6 /* 00004BAE */
00004BAA  4EBA 05E4                jsr        [PC + 0x5E4 /* 00005190 */]
label00004BAE:
00004BAE  6000 015C                bra        +0x15E /* 00004D0C */
00004BB2  3F07                     move.w     -[A7], D7
00004BB4  4EAD 165A                jsr        [A5 + 0x165A /* export_711, CODE:15 @ 00002C52 */]
00004BB8  6000 0152                bra        +0x154 /* 00004D0C */
00004BBC  3F07                     move.w     -[A7], D7
00004BBE  4EBA F75A                jsr        [PC - 0x8A6 /* 0000431A */]
00004BC2  6000 0148                bra        +0x14A /* 00004D0C */
00004BC6  3F07                     move.w     -[A7], D7
00004BC8  1F3C 0001                move.b     -[A7], 0x1
00004BCC  4EAD 15E2                jsr        [A5 + 0x15E2 /* export_696, CODE:15 @ 00000D72 */]
00004BD0  6000 013A                bra        +0x13C /* 00004D0C */
00004BD4  3007                     move.w     D0, D7
00004BD6  5340                     subq.w     D0, 1
00004BD8  6B00 00B8                bmi        +0xBA /* 00004C92 */
00004BDC  0C40 0012                cmpi.w     D0, 0x12
00004BE0  6E00 00B0                bgt        +0xB2 /* 00004C92 */
00004BE4  D040                     add.w      D0, D0
00004BE6  303B 0006                move.w     D0, [PC + D0.w + 0x6]
00004BEA  4EFB 0000                jmp        [PC + D0.w]
00004BEE  0028 002E 00A6           ori.b      [A0 + 0xA6], 0x2E /* '.' */
00004BF4  0034 003E 0044           ori.b      [A4 + D0.w + 0x44], 0x3E /* '>' */
00004BFA  004A 0054                ori.w      A2, 0x54 /* 'T' */
00004BFE  005C 0062                ori.w      [A4]+, 0x62 /* 'b' */
00004C02  006A 0074 007A           ori.w      [A2 + 0x7A], 0x74 /* 't' */
00004C08  00A6 0080 0086           ori.l      -[A6], 0x800086
00004C0E  00A6 008C 00A2           ori.l      -[A6], 0x8C00A2
00004C14  4EBA 11E2                jsr        [PC + 0x11E2 /* 00005DF8 */]
00004C18  6078                     bra        +0x7A /* 00004C92 */
00004C1A  4EBA 106A                jsr        [PC + 0x106A /* 00005C86 */]
00004C1E  6072                     bra        +0x74 /* 00004C92 */
00004C20  486D EF44                pea.l      [A5 - 0x10BC]
00004C24  4EBA E1DA                jsr        [PC - 0x1E26 /* 00002E00 */]
00004C28  6068                     bra        +0x6A /* 00004C92 */
00004C2A  4EBA EA14                jsr        [PC - 0x15EC /* 00003640 */]
00004C2E  6062                     bra        +0x64 /* 00004C92 */
00004C30  4EBA 0706                jsr        [PC + 0x706 /* 00005338 */]
00004C34  605C                     bra        +0x5E /* 00004C92 */
00004C36  1F3C 0001                move.b     -[A7], 0x1
00004C3A  4EBA 1728                jsr        [PC + 0x1728 /* 00006364 */]
00004C3E  6052                     bra        +0x54 /* 00004C92 */
00004C40  4267                     clr.w      -[A7]
00004C42  4EBA 1720                jsr        [PC + 0x1720 /* 00006364 */]
00004C46  604A                     bra        +0x4C /* 00004C92 */
00004C48  4EBA 1E3C                jsr        [PC + 0x1E3C /* 00006A86 */]
00004C4C  6044                     bra        +0x46 /* 00004C92 */
00004C4E  4267                     clr.w      -[A7]
00004C50  4EBA 0BC6                jsr        [PC + 0xBC6 /* 00005818 */]
00004C54  603C                     bra        +0x3E /* 00004C92 */
00004C56  1F3C 0001                move.b     -[A7], 0x1
00004C5A  4EBA 0BBC                jsr        [PC + 0xBBC /* 00005818 */]
00004C5E  6032                     bra        +0x34 /* 00004C92 */
00004C60  4EBA E2FA                jsr        [PC - 0x1D06 /* 00002F5C */]
00004C64  602C                     bra        +0x2E /* 00004C92 */
00004C66  4EBA E21C                jsr        [PC - 0x1DE4 /* 00002E84 */]
00004C6A  6026                     bra        +0x28 /* 00004C92 */
00004C6C  4EBA F126                jsr        [PC - 0xEDA /* 00003D94 */]
00004C70  6020                     bra        +0x22 /* 00004C92 */
00004C72  4EBA 20FE                jsr        [PC + 0x20FE /* 00006D72 */]
00004C76  601A                     bra        +0x1C /* 00004C92 */
00004C78  102D F4CD                move.b     D0, [A5 - 0xB33]
00004C7C  6706                     beq        +0x8 /* 00004C84 */
00004C7E  4EAD 1812                jsr        [A5 + 0x1812 /* export_766, CODE:16 @ 00000208 */]
00004C82  600E                     bra        +0x10 /* 00004C92 */
label00004C84:
00004C84  1F3C 0001                move.b     -[A7], 0x1
00004C88  4EAD 1542                jsr        [A5 + 0x1542 /* export_676, CODE:15 @ 00000000 */]
00004C8C  607E                     bra        +0x80 /* 00004D0C */
00004C8E  4EBA 0AA0                jsr        [PC + 0xAA0 /* 00005730 */]
label00004C92:
00004C92  6078                     bra        +0x7A /* 00004D0C */
00004C94  3007                     move.w     D0, D7
00004C96  5340                     subq.w     D0, 1
00004C98  6B6C                     bmi        +0x6E /* 00004D06 */
00004C9A  0C40 000B                cmpi.w     D0, 0xB
00004C9E  6E66                     bgt        +0x68 /* 00004D06 */
00004CA0  D040                     add.w      D0, D0
00004CA2  303B 0006                move.w     D0, [PC + D0.w + 0x6]
00004CA6  4EFB 0000                jmp        [PC + D0.w]
00004CAA  001A 0020                ori.b      [A2]+, 0x20 /* ' ' */
00004CAE  0026 005E                ori.b      -[A6], 0x5E /* '^' */
00004CB2  002E 0034 003A           ori.b      [A6 + 0x3A], 0x34 /* '4' */
00004CB8  0044 005E                ori.w      D4, 0x5E /* '^' */
00004CBC  004A 0050                ori.w      A2, 0x50 /* 'P' */
00004CC0  0058 4EBA                ori.w      [A0]+, 0x4EBA
00004CC4  1CC2                     move.b     [A6]+, D2
00004CC6  6044                     bra        +0x46 /* 00004D0C */
00004CC8  4EBA 1BD2                jsr        [PC + 0x1BD2 /* 0000689C */]
00004CCC  603E                     bra        +0x40 /* 00004D0C */
00004CCE  0A2D 0001 EF4F           xori.b     [A5 - 0x10B1], 0x1
00004CD4  6036                     bra        +0x38 /* 00004D0C */
00004CD6  4EBA BCD2                jsr        [PC - 0x432E /* 000009AA */]
00004CDA  6030                     bra        +0x32 /* 00004D0C */
00004CDC  4EBA BAD2                jsr        [PC - 0x452E /* 000007B0 */]
00004CE0  602A                     bra        +0x2C /* 00004D0C */
00004CE2  4EBA B31C                jsr        [PC - 0x4CE4 /* 00000000 */]
00004CE6  4EAD 16FA                jsr        [A5 + 0x16FA /* export_731, CODE:15 @ 00004394 */]
00004CEA  6020                     bra        +0x22 /* 00004D0C */
00004CEC  4EBA BE30                jsr        [PC - 0x41D0 /* 00000B1E */]
00004CF0  601A                     bra        +0x1C /* 00004D0C */
00004CF2  4EAD 2272                jsr        [A5 + 0x2272 /* export_1098, CODE:20 @ 00005394 */]
00004CF6  6014                     bra        +0x16 /* 00004D0C */
00004CF8  0A2D 0001 EF1F           xori.b     [A5 - 0x10E1], 0x1
00004CFE  600C                     bra        +0xE /* 00004D0C */
00004D00  0A2D 0001 EF22           xori.b     [A5 - 0x10DE], 0x1
label00004D06:
00004D06  6004                     bra        +0x6 /* 00004D0C */
label00004D08:
00004D08  4EAD 1812                jsr        [A5 + 0x1812 /* export_766, CODE:16 @ 00000208 */]
label00004D0C:
00004D0C  422D F014                clr.b      [A5 - 0xFEC]
label00004D10:
00004D10  4CDF 00C0                movem.l    D6,D7, [A7]+
00004D14  4E5E                     unlink     A6
00004D16  2E9F                     move.l     [A7], [A7]+
00004D18  4E75                     rts
export_620:
fn00004D1A:
00004D1A  4E56 0000                link       A6, 0
00004D1E  2F2D EDC8                move.l     -[A7], [A5 - 0x1238]
00004D22  A873                     syscall    SetPort
00004D24  4EBA C282                jsr        [PC - 0x3D7E /* 00000FA8 */]
00004D28  486D ED82                pea.l      [A5 - 0x127E]
00004D2C  4EBA 2440                jsr        [PC + 0x2440 /* 0000716E */]
00004D30  4E5E                     unlink     A6
00004D32  4E75                     rts
export_621:
00004D34  4E56 FFFC                link       A6, -0x0004
00004D38  2F0C                     move.l     -[A7], A4
00004D3A  286E 0008                movea.l    A4, [A6 + 0x8]
00004D3E  486E FFFC                pea.l      [A6 - 0x4]
00004D42  A874                     syscall    GetPort
00004D44  2F0C                     move.l     -[A7], A4
00004D46  A873                     syscall    SetPort
00004D48  B9ED EDC4                cmpa.l     A4, [A5 - 0x123C]
00004D4C  6608                     bne        +0xA /* 00004D56 */
00004D4E  486D EF2A                pea.l      [A5 - 0x10D6]
00004D52  4EAD 16DA                jsr        [A5 + 0x16DA /* export_727, CODE:15 @ 00004190 */]
label00004D56:
00004D56  B9ED EDC0                cmpa.l     A4, [A5 - 0x1240]
00004D5A  6608                     bne        +0xA /* 00004D64 */
00004D5C  486D EF38                pea.l      [A5 - 0x10C8]
00004D60  4EAD 16C2                jsr        [A5 + 0x16C2 /* export_724, CODE:15 @ 00003DD2 */]
label00004D64:
00004D64  B9ED EDB8                cmpa.l     A4, [A5 - 0x1248]
00004D68  6604                     bne        +0x6 /* 00004D6E */
00004D6A  4EAD 16B2                jsr        [A5 + 0x16B2 /* export_722, CODE:15 @ 00003B86 */]
label00004D6E:
00004D6E  B9ED EDBC                cmpa.l     A4, [A5 - 0x1244]
00004D72  661E                     bne        +0x20 /* 00004D92 */
00004D74  486D D672                pea.l      [A5 - 0x298E]
00004D78  206D EDBC                movea.l    A0, [A5 - 0x1244]
00004D7C  4868 0002                pea.l      [A0 + 0x2]
00004D80  486D D678                pea.l      [A5 - 0x2988]
00004D84  206D EDBC                movea.l    A0, [A5 - 0x1244]
00004D88  4868 0010                pea.l      [A0 + 0x10]
00004D8C  4267                     clr.w      -[A7]
00004D8E  42A7                     clr.l      -[A7]
00004D90  A8EC                     syscall    CopyBits
label00004D92:
00004D92  B9ED EDC8                cmpa.l     A4, [A5 - 0x1238]
00004D96  6604                     bne        +0x6 /* 00004D9C */
00004D98  4EBA FF80                jsr        [PC - 0x80 /* 00004D1A */]
label00004D9C:
00004D9C  2F0C                     move.l     -[A7], A4
00004D9E  A873                     syscall    SetPort
00004DA0  486C 0010                pea.l      [A4 + 0x10]
00004DA4  A92A                     syscall    ValidRect
00004DA6  2F2E FFFC                move.l     -[A7], [A6 - 0x4]
00004DAA  A873                     syscall    SetPort
00004DAC  285F                     movea.l    A4, [A7]+
00004DAE  4E5E                     unlink     A6
00004DB0  2E9F                     move.l     [A7], [A7]+
00004DB2  4E75                     rts
export_622:
fn00004DB4:
00004DB4  4E56 0000                link       A6, 0
00004DB8  4EAD 160A                jsr        [A5 + 0x160A /* export_701, CODE:15 @ 00001282 */]
00004DBC  4EBA E9B4                jsr        [PC - 0x164C /* 00003772 */]
00004DC0  4E5E                     unlink     A6
00004DC2  4E75                     rts
export_623:
00004DC4  4E56 FFFC                link       A6, -0x0004
00004DC8  A9B4                     syscall    SystemTask
00004DCA  4267                     clr.w      -[A7]
00004DCC  4EAD 17FA                jsr        [A5 + 0x17FA /* export_763, CODE:16 @ 0000009E */]
00004DD0  102D D4E9                move.b     D0, [A5 - 0x2B17]
00004DD4  0A00 0001                xori.b     D0, 0x1
00004DD8  C01F                     and.b      D0, [A7]+
00004DDA  4AAD D482                tst.l      [A5 - 0x2B7E]
00004DDE  57C1                     seq        D1
00004DE0  C001                     and.b      D0, D1
00004DE2  6706                     beq        +0x8 /* 00004DEA */
00004DE4  1B7C 0001 FD8D           move.b     [A5 - 0x273], 0x1
label00004DEA:
00004DEA  2F3C FFFF 0000           move.l     -[A7], 0xFFFF0000
00004DF0  486D F018                pea.l      [A5 - 0xFE8]
00004DF4  4EAD 20E2                jsr        [A5 + 0x20E2 /* export_1048, CODE:20 @ 000014FC */]
00004DF8  101F                     move.b     D0, [A7]+
00004DFA  6706                     beq        +0x8 /* 00004E02 */
00004DFC  4EBA F860                jsr        [PC - 0x7A0 /* 0000465E */]
00004E00  605A                     bra        +0x5C /* 00004E5C */
label00004E02:
00004E02  102D EFED                move.b     D0, [A5 - 0x1013]
00004E06  6726                     beq        +0x28 /* 00004E2E */
00004E08  2F2D EDC8                move.l     -[A7], [A5 - 0x1238]
00004E0C  A873                     syscall    SetPort
00004E0E  486E FFFC                pea.l      [A6 - 0x4]
00004E12  4EAD 20DA                jsr        [A5 + 0x20DA /* export_1047, CODE:20 @ 0000147C */]
00004E16  486E FFFC                pea.l      [A6 - 0x4]
00004E1A  A870                     syscall    LocalToGlobal
00004E1C  2F2E FFFC                move.l     -[A7], [A6 - 0x4]
00004E20  4EBA 1D68                jsr        [PC + 0x1D68 /* 00006B8A */]
00004E24  4EBA E526                jsr        [PC - 0x1ADA /* 0000334C */]
00004E28  2F2D EDAC                move.l     -[A7], [A5 - 0x1254]
00004E2C  A9DA                     syscall    TEIdle
label00004E2E:
00004E2E  4EAD 0A42                jsr        [A5 + 0xA42 /* export_324, CODE:8 @ 00002CEC */]
00004E32  4EAD 17DA                jsr        [A5 + 0x17DA /* export_759, CODE:15 @ 00006AC8 */]
00004E36  4EAD 1F52                jsr        [A5 + 0x1F52 /* export_998, CODE:19 @ 00001392 */]
00004E3A  4EBA BE66                jsr        [PC - 0x419A /* 00000CA2 */]
00004E3E  4267                     clr.w      -[A7]
00004E40  4EAD 17D2                jsr        [A5 + 0x17D2 /* export_758, CODE:15 @ 00006A0A */]
00004E44  101F                     move.b     D0, [A7]+
00004E46  6614                     bne        +0x16 /* 00004E5C */
00004E48  3F3C 0001                move.w     -[A7], 0x1
00004E4C  4EAD 2202                jsr        [A5 + 0x2202 /* export_1084, CODE:20 @ 000047F6 */]
00004E50  3F3C 0028                move.w     -[A7], 0x28 /* '(' */
00004E54  4EAD 187A                jsr        [A5 + 0x187A /* export_779, CODE:16 @ 00000500 */]
00004E58  4EAD 22A2                jsr        [A5 + 0x22A2 /* export_1104, CODE:20 @ 00005D82 */]
label00004E5C:
00004E5C  4E5E                     unlink     A6
00004E5E  4E75                     rts
export_624:
fn00004E60:
00004E60  4E56 FF9A                link       A6, -0x0066
00004E64  48E7 0F18                movem.l    -[A7], D4,D5,D6,D7,A3,A4
00004E68  102D F4CD                move.b     D0, [A5 - 0xB33]
00004E6C  C02D F016                and.b      D0, [A5 - 0xFEA]
00004E70  6708                     beq        +0xA /* 00004E7A */
00004E72  4EAD 15BA                jsr        [A5 + 0x15BA /* export_691, CODE:15 @ 00000AE6 */]
00004E76  6000 0308                bra        +0x30A /* 00005180 */
label00004E7A:
00004E7A  4267                     clr.w      -[A7]
00004E7C  4EBA 0544                jsr        [PC + 0x544 /* 000053C2 */]
00004E80  101F                     move.b     D0, [A7]+
00004E82  6704                     beq        +0x6 /* 00004E88 */
00004E84  6000 02FA                bra        +0x2FC /* 00005180 */
label00004E88:
00004E88  7004                     moveq.l    D0, 0x04
00004E8A  B02D E2BB                cmp.b      D0, [A5 - 0x1D45]
00004E8E  6608                     bne        +0xA /* 00004E98 */
00004E90  4EAD 2152                jsr        [A5 + 0x2152 /* export_1062, CODE:20 @ 00002DFE */]
00004E94  6000 02EA                bra        +0x2EC /* 00005180 */
label00004E98:
00004E98  7002                     moveq.l    D0, 0x02
00004E9A  B02D E2BB                cmp.b      D0, [A5 - 0x1D45]
00004E9E  6608                     bne        +0xA /* 00004EA8 */
00004EA0  3F3C 0002                move.w     -[A7], 0x2
00004EA4  4EBA F474                jsr        [PC - 0xB8C /* 0000431A */]
label00004EA8:
00004EA8  7003                     moveq.l    D0, 0x03
00004EAA  B02D E2BB                cmp.b      D0, [A5 - 0x1D45]
00004EAE  6608                     bne        +0xA /* 00004EB8 */
00004EB0  3F3C 0003                move.w     -[A7], 0x3
00004EB4  4EBA F464                jsr        [PC - 0xB9C /* 0000431A */]
label00004EB8:
00004EB8  4A6D EFDA                tst.w      [A5 - 0x1026]
00004EBC  6608                     bne        +0xA /* 00004EC6 */
00004EBE  4EAD 00A2                jsr        [A5 + 0xA2 /* export_16, CODE:1 @ 000026A2 */]
00004EC2  6000 02BC                bra        +0x2BE /* 00005180 */
label00004EC6:
00004EC6  7001                     moveq.l    D0, 0x01
00004EC8  B02D E2BB                cmp.b      D0, [A5 - 0x1D45]
00004ECC  57C0                     seq        D0
00004ECE  C02D EDAB                and.b      D0, [A5 - 0x1255]
00004ED2  6716                     beq        +0x18 /* 00004EEA */
00004ED4  4EBA B12A                jsr        [PC - 0x4ED6 /* 00000000 */]
00004ED8  4267                     clr.w      -[A7]
00004EDA  4EAD 0472                jsr        [A5 + 0x472 /* export_138, CODE:1 @ 00004DEE */]
00004EDE  381F                     move.w     D4, [A7]+
00004EE0  2F2D EDAC                move.l     -[A7], [A5 - 0x1254]
00004EE4  A9DB                     syscall    TEPaste
00004EE6  6000 0298                bra        +0x29A /* 00005180 */
label00004EEA:
00004EEA  486D EE38                pea.l      [A5 - 0x11C8]
00004EEE  A873                     syscall    SetPort
00004EF0  1A2D D509                move.b     D5, [A5 - 0x2AF7]
00004EF4  4EBA FEBE                jsr        [PC - 0x142 /* 00004DB4 */]
00004EF8  4EBA B106                jsr        [PC - 0x4EFA /* 00000000 */]
00004EFC  422D D50C                clr.b      [A5 - 0x2AF4]
00004F00  422D D511                clr.b      [A5 - 0x2AEF]
00004F04  4206                     clr.b      D6
00004F06  7005                     moveq.l    D0, 0x05
00004F08  B02D E2BB                cmp.b      D0, [A5 - 0x1D45]
00004F0C  6600 0154                bne        +0x156 /* 00005062 */
00004F10  42A7                     clr.l      -[A7]
00004F12  42A7                     clr.l      -[A7]
00004F14  2F3A 0276                move.l     -[A7], [PC + 0x276 /* 0000518C, value 0x50494354 'PICT', cstring "PICTNV" */]
00004F18  486E FFA8                pea.l      [A6 - 0x58]
00004F1C  A9FD                     syscall    GetScrap
00004F1E  2E1F                     move.l     D7, [A7]+
00004F20  6F00 0140                ble        +0x142 /* 00005062 */
00004F24  42A7                     clr.l      -[A7]
00004F26  2F07                     move.l     -[A7], D7
00004F28  4EAD 196A                jsr        [A5 + 0x196A /* export_809, CODE:16 @ 00000DB2 */]
00004F2C  285F                     movea.l    A4, [A7]+
00004F2E  200C                     move.l     D0, A4
00004F30  6700 0130                beq        +0x132 /* 00005062 */
00004F34  42A7                     clr.l      -[A7]
00004F36  2F0C                     move.l     -[A7], A4
00004F38  2F3A 0252                move.l     -[A7], [PC + 0x252 /* 0000518C, value 0x50494354 'PICT', cstring "PICTNV" */]
00004F3C  486E FFA8                pea.l      [A6 - 0x58]
00004F40  A9FD                     syscall    GetScrap
00004F42  2E1F                     move.l     D7, [A7]+
00004F44  264C                     movea.l    A3, A4
00004F46  2053                     movea.l    A0, [A3]
00004F48  43EE FFE8                lea.l      A1, [A6 - 0x18]
00004F4C  5488                     addq.l     A0, 2
00004F4E  22D8                     move.l     [A1]+, [A0]+
00004F50  22D8                     move.l     [A1]+, [A0]+
00004F52  486E FFE8                pea.l      [A6 - 0x18]
00004F56  4EBA B7AA                jsr        [PC - 0x4856 /* 00000702 */]
00004F5A  4267                     clr.w      -[A7]
00004F5C  486E FFE8                pea.l      [A6 - 0x18]
00004F60  486D ED82                pea.l      [A5 - 0x127E]
00004F64  486E FFE0                pea.l      [A6 - 0x20]
00004F68  A8AA                     syscall    SectRect
00004F6A  1D5F FF9F                move.b     [A6 - 0x61], [A7]+
00004F6E  4267                     clr.w      -[A7]
00004F70  486E FFE8                pea.l      [A6 - 0x18]
00004F74  486E FFE0                pea.l      [A6 - 0x20]
00004F78  A8A6                     syscall    EqualRect
00004F7A  101F                     move.b     D0, [A7]+
00004F7C  6608                     bne        +0xA /* 00004F86 */
00004F7E  486E FFE8                pea.l      [A6 - 0x18]
00004F82  4EBA B6E8                jsr        [PC - 0x4918 /* 0000066C */]
label00004F86:
00004F86  486D EE38                pea.l      [A5 - 0x11C8]
00004F8A  A873                     syscall    SetPort
00004F8C  486D ED44                pea.l      [A5 - 0x12BC]
00004F90  A875                     syscall    SetPBits/SetPortBits
00004F92  486E FFAC                pea.l      [A6 - 0x54]
00004F96  A8EA                     syscall    SetStdProcs
00004F98  41FA EBDC                lea.l      A0, [PC - 0x1424 /* 00003B76, value 0x4E560000 'NV\0\0', cstring "NV" */]
00004F9C  2D48 FFD0                move.l     [A6 - 0x30], A0
00004FA0  41EE FFAC                lea.l      A0, [A6 - 0x54]
00004FA4  2B48 EEA0                move.l     [A5 - 0x1160], A0
00004FA8  2F2D ECE4                move.l     -[A7], [A5 - 0x131C]
00004FAC  4EAD 1D12                jsr        [A5 + 0x1D12 /* export_926, CODE:17 @ 00002B38 */]
00004FB0  2F0B                     move.l     -[A7], A3
00004FB2  486E FFE8                pea.l      [A6 - 0x18]
00004FB6  A8F6                     syscall    DrawPicture
00004FB8  2F0C                     move.l     -[A7], A4
00004FBA  4EAD 1952                jsr        [A5 + 0x1952 /* export_806, CODE:16 @ 00000D00 */]
00004FBE  7000                     moveq.l    D0, 0x00
00004FC0  2B40 EEA0                move.l     [A5 - 0x1160], D0
00004FC4  486E FFE8                pea.l      [A6 - 0x18]
00004FC8  4EBA 1054                jsr        [PC + 0x1054 /* 0000601E */]
00004FCC  2F2D D6B4                move.l     -[A7], [A5 - 0x294C]
00004FD0  4EAD 1D12                jsr        [A5 + 0x1D12 /* export_926, CODE:17 @ 00002B38 */]
00004FD4  1B7C 0001 D68D           move.b     [A5 - 0x2973], 0x1
00004FDA  102D D511                move.b     D0, [A5 - 0x2AEF]
00004FDE  6716                     beq        +0x18 /* 00004FF6 */
00004FE0  2F2D ECE4                move.l     -[A7], [A5 - 0x131C]
00004FE4  2F2D D6B4                move.l     -[A7], [A5 - 0x294C]
00004FE8  486D D500                pea.l      [A5 - 0x2B00]
00004FEC  3F3C 0061                move.w     -[A7], 0x61 /* 'a' */
00004FF0  4EAD 1582                jsr        [A5 + 0x1582 /* export_684, CODE:15 @ 000005C0 */]
00004FF4  6016                     bra        +0x18 /* 0000500C */
label00004FF6:
00004FF6  486D EE38                pea.l      [A5 - 0x11C8]
00004FFA  A873                     syscall    SetPort
00004FFC  486D D6D6                pea.l      [A5 - 0x292A]
00005000  A875                     syscall    SetPBits/SetPortBits
00005002  486D D500                pea.l      [A5 - 0x2B00]
00005006  486D FE98                pea.l      [A5 - 0x168]
0000500A  A8A5                     syscall    FillRect
label0000500C:
0000500C  4EBA 21A8                jsr        [PC + 0x21A8 /* 000071B6 */]
00005010  41ED D68E                lea.l      A0, [A5 - 0x2972]
00005014  43ED D500                lea.l      A1, [A5 - 0x2B00]
00005018  20D9                     move.l     [A0]+, [A1]+
0000501A  20D9                     move.l     [A0]+, [A1]+
0000501C  2F2D ECE4                move.l     -[A7], [A5 - 0x131C]
00005020  2F2D D6C0                move.l     -[A7], [A5 - 0x2940]
00005024  486D D500                pea.l      [A5 - 0x2B00]
00005028  4267                     clr.w      -[A7]
0000502A  4EAD 1582                jsr        [A5 + 0x1582 /* export_684, CODE:15 @ 000005C0 */]
0000502E  2F2D D6B4                move.l     -[A7], [A5 - 0x294C]
00005032  2F2D D6C0                move.l     -[A7], [A5 - 0x2940]
00005036  486D D500                pea.l      [A5 - 0x2B00]
0000503A  3F3C 0007                move.w     -[A7], 0x7
0000503E  4EAD 1582                jsr        [A5 + 0x1582 /* export_684, CODE:15 @ 000005C0 */]
00005042  2F2D D6B4                move.l     -[A7], [A5 - 0x294C]
00005046  2F2D D6C4                move.l     -[A7], [A5 - 0x293C]
0000504A  486D D500                pea.l      [A5 - 0x2B00]
0000504E  4267                     clr.w      -[A7]
00005050  4EAD 1582                jsr        [A5 + 0x1582 /* export_684, CODE:15 @ 000005C0 */]
00005054  486D ED82                pea.l      [A5 - 0x127E]
00005058  4EBA E1C8                jsr        [PC - 0x1E38 /* 00003222 */]
0000505C  4EBA D8EA                jsr        [PC - 0x2716 /* 00002948 */]
00005060  7C01                     moveq.l    D6, 0x01
label00005062:
00005062  7001                     moveq.l    D0, 0x01
00005064  B02D E2BB                cmp.b      D0, [A5 - 0x1D45]
00005068  6600 00BC                bne        +0xBE /* 00005126 */
0000506C  42A7                     clr.l      -[A7]
0000506E  42A7                     clr.l      -[A7]
00005070  2F3A 0116                move.l     -[A7], [PC + 0x116 /* 00005188, value 0x54455854 'TEXT', cstring "TEXTPICTNV" */]
00005074  486E FFA8                pea.l      [A6 - 0x58]
00005078  A9FD                     syscall    GetScrap
0000507A  2E1F                     move.l     D7, [A7]+
0000507C  6F00 00A8                ble        +0xAA /* 00005126 */
00005080  42A7                     clr.l      -[A7]
00005082  2F07                     move.l     -[A7], D7
00005084  4EAD 18DA                jsr        [A5 + 0x18DA /* export_791, CODE:16 @ 00000896 */]
00005088  2B5F D482                move.l     [A5 - 0x2B7E], [A7]+
0000508C  6700 0098                beq        +0x9A /* 00005126 */
00005090  42A7                     clr.l      -[A7]
00005092  2F2D D482                move.l     -[A7], [A5 - 0x2B7E]
00005096  2F3A 00F0                move.l     -[A7], [PC + 0xF0 /* 00005188, value 0x54455854 'TEXT', cstring "TEXTPICTNV" */]
0000509A  486E FFA8                pea.l      [A6 - 0x58]
0000509E  A9FD                     syscall    GetScrap
000050A0  2B5F D47E                move.l     [A5 - 0x2B82], [A7]+
000050A4  1005                     move.b     D0, D5
000050A6  6648                     bne        +0x4A /* 000050F0 */
000050A8  41EE FFF0                lea.l      A0, [A6 - 0x10]
000050AC  43ED ED82                lea.l      A1, [A5 - 0x127E]
000050B0  20D9                     move.l     [A0]+, [A1]+
000050B2  20D9                     move.l     [A0]+, [A1]+
000050B4  486E FFF0                pea.l      [A6 - 0x10]
000050B8  2F3C 0000 0032           move.l     -[A7], 0x32 /* '2' */
000050BE  A8A9                     syscall    InsetRect
000050C0  486E FFF0                pea.l      [A6 - 0x10]
000050C4  4EBA D8C6                jsr        [PC - 0x273A /* 0000298C */]
000050C8  2F2D D6C0                move.l     -[A7], [A5 - 0x2940]
000050CC  486E FFF0                pea.l      [A6 - 0x10]
000050D0  4EAD 153A                jsr        [A5 + 0x153A /* export_675, CODE:14 @ 00000C62 */]
000050D4  486E FFF0                pea.l      [A6 - 0x10]
000050D8  4EBA B592                jsr        [PC - 0x4A6E /* 0000066C */]
000050DC  486E FFF0                pea.l      [A6 - 0x10]
000050E0  2F3C FFFC FFFA           move.l     -[A7], 0xFFFCFFFA
000050E6  A8A9                     syscall    InsetRect
000050E8  486E FFF0                pea.l      [A6 - 0x10]
000050EC  4EBA 0F30                jsr        [PC + 0xF30 /* 0000601E */]
label000050F0:
000050F0  486D D500                pea.l      [A5 - 0x2B00]
000050F4  4EBA D896                jsr        [PC - 0x276A /* 0000298C */]
000050F8  486D D500                pea.l      [A5 - 0x2B00]
000050FC  486D D500                pea.l      [A5 - 0x2B00]
00005100  4267                     clr.w      -[A7]
00005102  4EBA 12A2                jsr        [PC + 0x12A2 /* 000063A6 */]
00005106  2F2D D6B4                move.l     -[A7], [A5 - 0x294C]
0000510A  4EAD 1D12                jsr        [A5 + 0x1D12 /* export_926, CODE:17 @ 00002B38 */]
0000510E  1B7C 0001 D68D           move.b     [A5 - 0x2973], 0x1
00005114  486D D6D6                pea.l      [A5 - 0x292A]
00005118  A875                     syscall    SetPBits/SetPortBits
0000511A  486D D500                pea.l      [A5 - 0x2B00]
0000511E  486D FE98                pea.l      [A5 - 0x168]
00005122  A8A5                     syscall    FillRect
00005124  7C01                     moveq.l    D6, 0x01
label00005126:
00005126  1006                     move.b     D0, D6
00005128  6730                     beq        +0x32 /* 0000515A */
0000512A  102D D511                move.b     D0, [A5 - 0x2AEF]
0000512E  671A                     beq        +0x1C /* 0000514A */
00005130  1B7C 0001 D50D           move.b     [A5 - 0x2AF3], 0x1
00005136  4A6D FD8A                tst.w      [A5 - 0x276]
0000513A  6D04                     blt        +0x6 /* 00005140 */
0000513C  4EAD 1862                jsr        [A5 + 0x1862 /* export_776, CODE:16 @ 00000474 */]
label00005140:
00005140  3F3C 0005                move.w     -[A7], 0x5
00005144  4EAD 2202                jsr        [A5 + 0x2202 /* export_1084, CODE:20 @ 000047F6 */]
00005148  6014                     bra        +0x16 /* 0000515E */
label0000514A:
0000514A  1B7C 0001 D509           move.b     [A5 - 0x2AF7], 0x1
00005150  3F3C 0004                move.w     -[A7], 0x4
00005154  4EAD 2202                jsr        [A5 + 0x2202 /* export_1084, CODE:20 @ 000047F6 */]
00005158  6004                     bra        +0x6 /* 0000515E */
label0000515A:
0000515A  4EAD 1812                jsr        [A5 + 0x1812 /* export_766, CODE:16 @ 00000208 */]
label0000515E:
0000515E  486D ED44                pea.l      [A5 - 0x12BC]
00005162  A875                     syscall    SetPBits/SetPortBits
00005164  41ED E2F2                lea.l      A0, [A5 - 0x1D0E]
00005168  43ED ED82                lea.l      A1, [A5 - 0x127E]
0000516C  20D9                     move.l     [A0]+, [A1]+
0000516E  20D9                     move.l     [A0]+, [A1]+
00005170  4EBA BE16                jsr        [PC - 0x41EA /* 00000F88 */]
00005174  1B7C 0001 E2E3           move.b     [A5 - 0x1D1D], 0x1
0000517A  1B7C 0001 E303           move.b     [A5 - 0x1CFD], 0x1
label00005180:
00005180  4CDF 18F0                movem.l    D4,D5,D6,D7,A3,A4, [A7]+
00005184  4E5E                     unlink     A6
00005186  4E75                     rts
00005188  5445 5854 5049 4354      dc.b       "TEXTPICT"
export_625:
fn00005190:
00005190  4E56 0000                link       A6, 0
00005194  4EBA FC1E                jsr        [PC - 0x3E2 /* 00004DB4 */]
00005198  422D E2E2                clr.b      [A5 - 0x1D1E]
0000519C  4267                     clr.w      -[A7]
0000519E  4EAD 1542                jsr        [A5 + 0x1542 /* export_676, CODE:15 @ 00000000 */]
000051A2  1B7C 0001 E2E2           move.b     [A5 - 0x1D1E], 0x1
000051A8  0A2D 0001 EFDF           xori.b     [A5 - 0x1021], 0x1
000051AE  1B7C 0001 E2F0           move.b     [A5 - 0x1D10], 0x1
000051B4  1B7C 0001 E2F1           move.b     [A5 - 0x1D0F], 0x1
000051BA  422D E2FC                clr.b      [A5 - 0x1D04]
000051BE  422D E2FB                clr.b      [A5 - 0x1D05]
000051C2  41ED E2F2                lea.l      A0, [A5 - 0x1D0E]
000051C6  43ED ED82                lea.l      A1, [A5 - 0x127E]
000051CA  20D9                     move.l     [A0]+, [A1]+
000051CC  20D9                     move.l     [A0]+, [A1]+
000051CE  4EBA BDB8                jsr        [PC - 0x4248 /* 00000F88 */]
000051D2  4EAD 2182                jsr        [A5 + 0x2182 /* export_1068, CODE:20 @ 00003930 */]
000051D6  4EBA AE28                jsr        [PC - 0x51D8 /* 00000000 */]
000051DA  4E5E                     unlink     A6
000051DC  4E75                     rts
fn000051DE:
000051DE  4E56 FFE0                link       A6, -0x0020
000051E2  206E 0008                movea.l    A0, [A6 + 0x8]
000051E6  43EE FFF2                lea.l      A1, [A6 - 0xE]
000051EA  22D8                     move.l     [A1]+, [A0]+
000051EC  22D8                     move.l     [A1]+, [A0]+
000051EE  22D8                     move.l     [A1]+, [A0]+
000051F0  3290                     move.w     [A1], [A0]
000051F2  102D E225                move.b     D0, [A5 - 0x1DDB]
000051F6  6720                     beq        +0x22 /* 00005218 */
000051F8  486E FFF2                pea.l      [A6 - 0xE]
000051FC  486D D672                pea.l      [A5 - 0x298E]
00005200  486D D678                pea.l      [A5 - 0x2988]
00005204  486D D678                pea.l      [A5 - 0x2988]
00005208  4267                     clr.w      -[A7]
0000520A  42A7                     clr.l      -[A7]
0000520C  A8EC                     syscall    CopyBits
0000520E  486D D678                pea.l      [A5 - 0x2988]
00005212  4EBA 103A                jsr        [PC + 0x103A /* 0000624E */]
00005216  600C                     bra        +0xE /* 00005224 */
label00005218:
00005218  2F2E FFF2                move.l     -[A7], [A6 - 0xE]
0000521C  486D ED82                pea.l      [A5 - 0x127E]
00005220  4EAD 158A                jsr        [A5 + 0x158A /* export_685, CODE:15 @ 000006FE */]
label00005224:
00005224  202D F01A                move.l     D0, [A5 - 0xFE6]
00005228  E088                     lsr        D0, 8
0000522A  C0BC 0000 00FF           and.l      D0, 0xFF
00005230  3D40 FFE0                move.w     [A6 - 0x20], D0
label00005234:
00005234  486E FFE2                pea.l      [A6 - 0x1E]
00005238  A976                     syscall    GetKeys
0000523A  302E FFE0                move.w     D0, [A6 - 0x20]
0000523E  3200                     move.w     D1, D0
00005240  E641                     asr        D1.w, 3
00005242  0136 10E2                btst       [A6 + D1.w - 0x1E], D0
00005246  66EC                     bne        -0x12 /* 00005234 */
00005248  2F3C 0000 001E           move.l     -[A7], 0x1E
0000524E  201F                     move.l     D0, [A7]+
00005250  A032                     syscall    FlushEvents
00005252  4EBA FAC6                jsr        [PC - 0x53A /* 00004D1A */]
00005256  4E5E                     unlink     A6
00005258  2E9F                     move.l     [A7], [A7]+
0000525A  4E75                     rts
fn0000525C:
0000525C  4E56 FFEA                link       A6, -0x0016
00005260  3D6D EF1A FFF2           move.w     [A6 - 0xE], [A5 - 0x10E6]
00005266  3F3C 0001                move.w     -[A7], 0x1
0000526A  4EBA 0CB2                jsr        [PC + 0xCB2 /* 00005F1E */]
0000526E  486E FFFC                pea.l      [A6 - 0x4]
00005272  4EBA 01CA                jsr        [PC + 0x1CA /* 0000543E */]
00005276  4EBA AEEA                jsr        [PC - 0x5116 /* 00000162 */]
0000527A  41EE FFEA                lea.l      A0, [A6 - 0x16]
0000527E  43ED E2F2                lea.l      A1, [A5 - 0x1D0E]
00005282  20D9                     move.l     [A0]+, [A1]+
00005284  20D9                     move.l     [A0]+, [A1]+
00005286  486D E2F2                pea.l      [A5 - 0x1D0E]
0000528A  2F2E FFFC                move.l     -[A7], [A6 - 0x4]
0000528E  302E FFFE                move.w     D0, [A6 - 0x2]
00005292  5240                     addq.w     D0, 1
00005294  3F00                     move.w     -[A7], D0
00005296  302E FFFC                move.w     D0, [A6 - 0x4]
0000529A  5240                     addq.w     D0, 1
0000529C  3F00                     move.w     -[A7], D0
0000529E  A8A7                     syscall    SetRect
000052A0  4EBA BD06                jsr        [PC - 0x42FA /* 00000FA8 */]
000052A4  41ED E2F2                lea.l      A0, [A5 - 0x1D0E]
000052A8  43EE FFEA                lea.l      A1, [A6 - 0x16]
000052AC  20D9                     move.l     [A0]+, [A1]+
000052AE  20D9                     move.l     [A0]+, [A1]+
000052B0  A89E                     syscall    PenNormal
000052B2  4267                     clr.w      -[A7]
000052B4  2F2E FFFC                move.l     -[A7], [A6 - 0x4]
000052B8  486D ED44                pea.l      [A5 - 0x12BC]
000052BC  4EAD 1502                jsr        [A5 + 0x1502 /* export_668, CODE:14 @ 0000079E */]
000052C0  101F                     move.b     D0, [A7]+
000052C2  6706                     beq        +0x8 /* 000052CA */
000052C4  486D FEA0                pea.l      [A5 - 0x160]
000052C8  A89D                     syscall    PenPat
label000052CA:
000052CA  2F2E FFFC                move.l     -[A7], [A6 - 0x4]
000052CE  2F2E FFFC                move.l     -[A7], [A6 - 0x4]
000052D2  4EBA E3CE                jsr        [PC - 0x1C32 /* 000036A2 */]
000052D6  2F2E FFFC                move.l     -[A7], [A6 - 0x4]
000052DA  4EAD 17E2                jsr        [A5 + 0x17E2 /* export_760, CODE:15 @ 00006D92 */]
000052DE  2D6E FFFC FFF8           move.l     [A6 - 0x8], [A6 - 0x4]
label000052E4:
000052E4  486E FFF4                pea.l      [A6 - 0xC]
000052E8  4EBA 0154                jsr        [PC + 0x154 /* 0000543E */]
000052EC  486E FFF4                pea.l      [A6 - 0xC]
000052F0  4EAD 17CA                jsr        [A5 + 0x17CA /* export_757, CODE:15 @ 00006960 */]
000052F4  4267                     clr.w      -[A7]
000052F6  2F2E FFF8                move.l     -[A7], [A6 - 0x8]
000052FA  2F2E FFF4                move.l     -[A7], [A6 - 0xC]
000052FE  A881                     syscall    EqualPt
00005300  101F                     move.b     D0, [A7]+
00005302  6612                     bne        +0x14 /* 00005316 */
00005304  2F2E FFF8                move.l     -[A7], [A6 - 0x8]
00005308  2F2E FFF4                move.l     -[A7], [A6 - 0xC]
0000530C  4EBA E394                jsr        [PC - 0x1C6C /* 000036A2 */]
00005310  2D6E FFF4 FFF8           move.l     [A6 - 0x8], [A6 - 0xC]
label00005316:
00005316  4267                     clr.w      -[A7]
00005318  4EAD 210A                jsr        [A5 + 0x210A /* export_1053, CODE:20 @ 000016F6 */]
0000531C  101F                     move.b     D0, [A7]+
0000531E  0A00 0001                xori.b     D0, 0x1
00005322  67C0                     beq        -0x3E /* 000052E4 */
00005324  A89E                     syscall    PenNormal
00005326  3F2E FFF2                move.w     -[A7], [A6 - 0xE]
0000532A  4EBA 0BF2                jsr        [PC + 0xBF2 /* 00005F1E */]
0000532E  1B7C 0001 D50E           move.b     [A5 - 0x2AF2], 0x1
00005334  4E5E                     unlink     A6
00005336  4E75                     rts
fn00005338:
00005338  4E56 0000                link       A6, 0
0000533C  4267                     clr.w      -[A7]
0000533E  4EBA ADAA                jsr        [PC - 0x5256 /* 000000EA */]
00005342  101F                     move.b     D0, [A7]+
00005344  6710                     beq        +0x12 /* 00005356 */
00005346  486D ED82                pea.l      [A5 - 0x127E]
0000534A  4EBA DED6                jsr        [PC - 0x212A /* 00003222 */]
0000534E  4EBA 000A                jsr        [PC + 0xA /* 0000535A */]
00005352  4EBA D734                jsr        [PC - 0x28CC /* 00002A88 */]
label00005356:
00005356  4E5E                     unlink     A6
00005358  4E75                     rts
fn0000535A:
0000535A  4E56 0000                link       A6, 0
0000535E  4EBA 1E56                jsr        [PC + 0x1E56 /* 000071B6 */]
00005362  41ED D68E                lea.l      A0, [A5 - 0x2972]
00005366  43ED D500                lea.l      A1, [A5 - 0x2B00]
0000536A  20D9                     move.l     [A0]+, [A1]+
0000536C  20D9                     move.l     [A0]+, [A1]+
0000536E  2F2D ECD4                move.l     -[A7], [A5 - 0x132C]
00005372  2F2D D6C4                move.l     -[A7], [A5 - 0x293C]
00005376  486D D500                pea.l      [A5 - 0x2B00]
0000537A  4267                     clr.w      -[A7]
0000537C  4EAD 1582                jsr        [A5 + 0x1582 /* export_684, CODE:15 @ 000005C0 */]
00005380  2F2D D6B4                move.l     -[A7], [A5 - 0x294C]
00005384  2F2D D6C4                move.l     -[A7], [A5 - 0x293C]
00005388  486D D500                pea.l      [A5 - 0x2B00]
0000538C  3F3C 0007                move.w     -[A7], 0x7
00005390  4EAD 1582                jsr        [A5 + 0x1582 /* export_684, CODE:15 @ 000005C0 */]
00005394  2F2D ECD0                move.l     -[A7], [A5 - 0x1330]
00005398  2F2D D6C0                move.l     -[A7], [A5 - 0x2940]
0000539C  486D D500                pea.l      [A5 - 0x2B00]
000053A0  4267                     clr.w      -[A7]
000053A2  4EAD 1582                jsr        [A5 + 0x1582 /* export_684, CODE:15 @ 000005C0 */]
000053A6  2F2D D6B4                move.l     -[A7], [A5 - 0x294C]
000053AA  2F2D D6C0                move.l     -[A7], [A5 - 0x2940]
000053AE  486D D500                pea.l      [A5 - 0x2B00]
000053B2  3F3C 0007                move.w     -[A7], 0x7
000053B6  4EAD 1582                jsr        [A5 + 0x1582 /* export_684, CODE:15 @ 000005C0 */]
000053BA  4EBA B228                jsr        [PC - 0x4DD8 /* 000005E4 */]
000053BE  4E5E                     unlink     A6
000053C0  4E75                     rts
fn000053C2:
000053C2  4E56 0000                link       A6, 0
000053C6  422E 0008                clr.b      [A6 + 0x8]
000053CA  102D F017                move.b     D0, [A5 - 0xFE9]
000053CE  6702                     beq        +0x4 /* 000053D2 */
000053D0  6068                     bra        +0x6A /* 0000543A */
label000053D2:
000053D2  102D F013                move.b     D0, [A5 - 0xFED]
000053D6  0A00 0001                xori.b     D0, 0x1
000053DA  C02D F014                and.b      D0, [A5 - 0xFEC]
000053DE  6702                     beq        +0x4 /* 000053E2 */
000053E0  6058                     bra        +0x5A /* 0000543A */
label000053E2:
000053E2  102D EFDF                move.b     D0, [A5 - 0x1021]
000053E6  0A00 0001                xori.b     D0, 0x1
000053EA  C02D E2E5                and.b      D0, [A5 - 0x1D1B]
000053EE  6720                     beq        +0x22 /* 00005410 */
000053F0  1D7C 0001 0008           move.b     [A6 + 0x8], 0x1
000053F6  2F3C 002D 0000           move.l     -[A7], 0x2D0000 /* '-\0\0' */
000053FC  4EAD 1852                jsr        [A5 + 0x1852 /* export_774, CODE:16 @ 00000400 */]
00005400  101F                     move.b     D0, [A7]+
00005402  670C                     beq        +0xE /* 00005410 */
00005404  2F2D F62A                move.l     -[A7], [A5 - 0x9D6]
00005408  1F3C 0001                move.b     -[A7], 0x1
0000540C  4EAD 2232                jsr        [A5 + 0x2232 /* export_1090, CODE:20 @ 00004C28 */]
label00005410:
00005410  102D EFDF                move.b     D0, [A5 - 0x1021]
00005414  C02D E2E4                and.b      D0, [A5 - 0x1D1C]
00005418  6720                     beq        +0x22 /* 0000543A */
0000541A  1D7C 0001 0008           move.b     [A6 + 0x8], 0x1
00005420  2F3C 002E 0000           move.l     -[A7], 0x2E0000 /* '.\0\0' */
00005426  4EAD 1852                jsr        [A5 + 0x1852 /* export_774, CODE:16 @ 00000400 */]
0000542A  101F                     move.b     D0, [A7]+
0000542C  670C                     beq        +0xE /* 0000543A */
0000542E  2F2D F622                move.l     -[A7], [A5 - 0x9DE]
00005432  1F3C 0001                move.b     -[A7], 0x1
00005436  4EAD 222A                jsr        [A5 + 0x222A /* export_1089, CODE:20 @ 00004B9A */]
label0000543A:
0000543A  4E5E                     unlink     A6
0000543C  4E75                     rts
fn0000543E:
0000543E  4E56 0000                link       A6, 0
00005442  2F2E 0008                move.l     -[A7], [A6 + 0x8]
00005446  4EBA DC34                jsr        [PC - 0x23CC /* 0000307C */]
0000544A  2F2E 0008                move.l     -[A7], [A6 + 0x8]
0000544E  486D D512                pea.l      [A5 - 0x2AEE]
00005452  4EAD 1A92                jsr        [A5 + 0x1A92 /* export_846, CODE:16 @ 00001A06 */]
00005456  4E5E                     unlink     A6
00005458  2E9F                     move.l     [A7], [A7]+
0000545A  4E75                     rts
fn0000545C:
0000545C  4E56 0000                link       A6, 0
00005460  102E 0008                move.b     D0, [A6 + 0x8]
00005464  6708                     beq        +0xA /* 0000546E */
00005466  486D D4DE                pea.l      [A5 - 0x2B22]
0000546A  4EBA DC10                jsr        [PC - 0x23F0 /* 0000307C */]
label0000546E:
0000546E  4EBA AB90                jsr        [PC - 0x5470 /* 00000000 */]
00005472  4EBA F940                jsr        [PC - 0x6C0 /* 00004DB4 */]
00005476  2B6D D4DE D4E4           move.l     [A5 - 0x2B1C], [A5 - 0x2B22]
0000547C  102E 0008                move.b     D0, [A6 + 0x8]
00005480  6706                     beq        +0x8 /* 00005488 */
00005482  3B6D D4E6 D4E2           move.w     [A5 - 0x2B1E], [A5 - 0x2B1A]
label00005488:
00005488  1B7C 0001 D4E9           move.b     [A5 - 0x2B17], 0x1
0000548E  4A6D FD8A                tst.w      [A5 - 0x276]
00005492  6D02                     blt        +0x4 /* 00005496 */
00005494  A856                     syscall    ObscureCursor
label00005496:
00005496  4EBA 1D1E                jsr        [PC + 0x1D1E /* 000071B6 */]
0000549A  422D D50E                clr.b      [A5 - 0x2AF2]
0000549E  4E5E                     unlink     A6
000054A0  205F                     movea.l    A0, [A7]+
000054A2  544F                     addq.w     A7, 2
000054A4  4ED0                     jmp        [A0]
fn000054A6:
000054A6  4E56 FFC8                link       A6, -0x0038
000054AA  48E7 0F00                movem.l    -[A7], D4,D5,D6,D7
000054AE  3A2D EF1A                move.w     D5, [A5 - 0x10E6]
000054B2  9A6D EF18                sub.w      D5, [A5 - 0x10E8]
000054B6  7C01                     moveq.l    D6, 0x01
label000054B8:
000054B8  486E FFF8                pea.l      [A6 - 0x8]
000054BC  4EBA DBBE                jsr        [PC - 0x2442 /* 0000307C */]
000054C0  2F2E 000C                move.l     -[A7], [A6 + 0xC]
000054C4  486E FFF8                pea.l      [A6 - 0x8]
000054C8  3F3C 0002                move.w     -[A7], 0x2
000054CC  486E FFC8                pea.l      [A6 - 0x38]
000054D0  486E FFCC                pea.l      [A6 - 0x34]
000054D4  486E FFD0                pea.l      [A6 - 0x30]
000054D8  4EBA BDD6                jsr        [PC - 0x422A /* 000012B0 */]
000054DC  4267                     clr.w      -[A7]
000054DE  2F2E FFF8                move.l     -[A7], [A6 - 0x8]
000054E2  2F2E FFFC                move.l     -[A7], [A6 - 0x4]
000054E6  A881                     syscall    EqualPt
000054E8  101F                     move.b     D0, [A7]+
000054EA  0A00 0001                xori.b     D0, 0x1
000054EE  2206                     move.l     D1, D6
000054F0  8200                     or.b       D1, D0
000054F2  6766                     beq        +0x68 /* 0000555A */
000054F4  4EBA BAB2                jsr        [PC - 0x454E /* 00000FA8 */]
000054F8  41ED E2F2                lea.l      A0, [A5 - 0x1D0E]
000054FC  43EE FFD4                lea.l      A1, [A6 - 0x2C]
00005500  20D9                     move.l     [A0]+, [A1]+
00005502  20D9                     move.l     [A0]+, [A1]+
00005504  2F2E 000C                move.l     -[A7], [A6 + 0xC]
00005508  2F2E FFF8                move.l     -[A7], [A6 - 0x8]
0000550C  486E FFD4                pea.l      [A6 - 0x2C]
00005510  A8AC                     syscall    Pt2Rect
00005512  486E FFD4                pea.l      [A6 - 0x2C]
00005516  3005                     move.w     D0, D5
00005518  4440                     neg.w      D0
0000551A  3F00                     move.w     -[A7], D0
0000551C  3005                     move.w     D0, D5
0000551E  4440                     neg.w      D0
00005520  3F00                     move.w     -[A7], D0
00005522  A8A9                     syscall    InsetRect
00005524  486E FFD4                pea.l      [A6 - 0x2C]
00005528  486D E2F2                pea.l      [A5 - 0x1D0E]
0000552C  4EAD 1CEA                jsr        [A5 + 0x1CEA /* export_921, CODE:17 @ 00001DBA */]
00005530  4EBA E150                jsr        [PC - 0x1EB0 /* 00003682 */]
00005534  486D ED44                pea.l      [A5 - 0x12BC]
00005538  A875                     syscall    SetPBits/SetPortBits
0000553A  2F2E 000C                move.l     -[A7], [A6 + 0xC]
0000553E  4EBA E5F0                jsr        [PC - 0x1A10 /* 00003B30 */]
00005542  2F2E FFF8                move.l     -[A7], [A6 - 0x8]
00005546  4EBA E28A                jsr        [PC - 0x1D76 /* 000037D2 */]
0000554A  486D E2F2                pea.l      [A5 - 0x1D0E]
0000554E  4EBA 1C1E                jsr        [PC + 0x1C1E /* 0000716E */]
00005552  2D6E FFF8 FFFC           move.l     [A6 - 0x4], [A6 - 0x8]
00005558  4206                     clr.b      D6
label0000555A:
0000555A  426E FFE8                clr.w      [A6 - 0x18]
0000555E  4207                     clr.b      D7
00005560  2F3C FFFF 0000           move.l     -[A7], 0xFFFF0000
00005566  486E FFE8                pea.l      [A6 - 0x18]
0000556A  4EAD 20E2                jsr        [A5 + 0x20E2 /* export_1048, CODE:20 @ 000014FC */]
0000556E  101F                     move.b     D0, [A7]+
00005570  6748                     beq        +0x4A /* 000055BA */
00005572  7003                     moveq.l    D0, 0x03
00005574  B06E FFE8                cmp.w      D0, [A6 - 0x18]
00005578  6602                     bne        +0x4 /* 0000557C */
0000557A  7E01                     moveq.l    D7, 0x01
label0000557C:
0000557C  7001                     moveq.l    D0, 0x01
0000557E  B06E FFE8                cmp.w      D0, [A6 - 0x18]
00005582  6636                     bne        +0x38 /* 000055BA */
00005584  4267                     clr.w      -[A7]
00005586  2F2E FFF2                move.l     -[A7], [A6 - 0xE]
0000558A  486E FFE2                pea.l      [A6 - 0x1E]
0000558E  A92C                     syscall    FindWindow
00005590  381F                     move.w     D4, [A7]+
00005592  202E FFE2                move.l     D0, [A6 - 0x1E]
00005596  B0AD EDC8                cmp.l      D0, [A5 - 0x1238]
0000559A  56C0                     sne        D0
0000559C  7203                     moveq.l    D1, 0x03
0000559E  B244                     cmp.w      D1, D4
000055A0  56C1                     sne        D1
000055A2  8001                     or.b       D0, D1
000055A4  4400                     neg.b      D0
000055A6  1E00                     move.b     D7, D0
000055A8  2F2D EDC8                move.l     -[A7], [A5 - 0x1238]
000055AC  A873                     syscall    SetPort
000055AE  486E FFF2                pea.l      [A6 - 0xE]
000055B2  A871                     syscall    GlobalToLocal
000055B4  486D EE38                pea.l      [A5 - 0x11C8]
000055B8  A873                     syscall    SetPort
label000055BA:
000055BA  7002                     moveq.l    D0, 0x02
000055BC  B06E FFE8                cmp.w      D0, [A6 - 0x18]
000055C0  57C0                     seq        D0
000055C2  2207                     move.l     D1, D7
000055C4  8200                     or.b       D1, D0
000055C6  0241 0001                andi.w     D1, 0x1
000055CA  6700 FEEC                beq        -0x112 /* 000054B8 */
000055CE  486D ED44                pea.l      [A5 - 0x12BC]
000055D2  A875                     syscall    SetPBits/SetPortBits
000055D4  4EBA E0AC                jsr        [PC - 0x1F54 /* 00003682 */]
000055D8  7002                     moveq.l    D0, 0x02
000055DA  B06E FFE8                cmp.w      D0, [A6 - 0x18]
000055DE  660C                     bne        +0xE /* 000055EC */
000055E0  2B6E FFEE EFF6           move.l     [A5 - 0x100A], [A6 - 0x12]
000055E6  2B6E FFF2 EFF0           move.l     [A5 - 0x1010], [A6 - 0xE]
label000055EC:
000055EC  206E 0008                movea.l    A0, [A6 + 0x8]
000055F0  20AE FFF8                move.l     [A0], [A6 - 0x8]
000055F4  1007                     move.b     D0, D7
000055F6  6708                     beq        +0xA /* 00005600 */
000055F8  206E 0008                movea.l    A0, [A6 + 0x8]
000055FC  20AE 000C                move.l     [A0], [A6 + 0xC]
label00005600:
00005600  1D47 0010                move.b     [A6 + 0x10], D7
00005604  4CDF 00F0                movem.l    D4,D5,D6,D7, [A7]+
00005608  4E5E                     unlink     A6
0000560A  205F                     movea.l    A0, [A7]+
0000560C  504F                     addq.w     A7, 8
0000560E  4ED0                     jmp        [A0]
fn00005610:
00005610  4E56 FFF2                link       A6, -0x000E
00005614  2F07                     move.l     -[A7], D7
00005616  486E FFFC                pea.l      [A6 - 0x4]
0000561A  4EBA DA00                jsr        [PC - 0x2600 /* 0000301C */]
0000561E  4267                     clr.w      -[A7]
00005620  2F2E FFFC                move.l     -[A7], [A6 - 0x4]
00005624  486D ED82                pea.l      [A5 - 0x127E]
00005628  A8AD                     syscall    PtInRect
0000562A  101F                     move.b     D0, [A7]+
0000562C  6700 00B4                beq        +0xB6 /* 000056E2 */
00005630  4EAD 193A                jsr        [A5 + 0x193A /* export_803, CODE:16 @ 00000C72 */]
00005634  4EBA AB2C                jsr        [PC - 0x54D4 /* 00000162 */]
00005638  4267                     clr.w      -[A7]
0000563A  2F2E FFFC                move.l     -[A7], [A6 - 0x4]
0000563E  486D ECFE                pea.l      [A5 - 0x1302]
00005642  4EAD 1502                jsr        [A5 + 0x1502 /* export_668, CODE:14 @ 0000079E */]
00005646  1E1F                     move.b     D7, [A7]+
00005648  1007                     move.b     D0, D7
0000564A  6708                     beq        +0xA /* 00005654 */
0000564C  2F2D ECD0                move.l     -[A7], [A5 - 0x1330]
00005650  4EAD 1C52                jsr        [A5 + 0x1C52 /* export_902, CODE:17 @ 000011DA */]
label00005654:
00005654  2F2D ECD0                move.l     -[A7], [A5 - 0x1330]
00005658  2F2D D6C4                move.l     -[A7], [A5 - 0x293C]
0000565C  2F2E FFFC                move.l     -[A7], [A6 - 0x4]
00005660  4EAD 14FA                jsr        [A5 + 0x14FA /* export_667, CODE:14 @ 0000063E */]
00005664  41ED D68E                lea.l      A0, [A5 - 0x2972]
00005668  43ED ED82                lea.l      A1, [A5 - 0x127E]
0000566C  20D9                     move.l     [A0]+, [A1]+
0000566E  20D9                     move.l     [A0]+, [A1]+
00005670  1007                     move.b     D0, D7
00005672  6708                     beq        +0xA /* 0000567C */
00005674  2F2D ECD0                move.l     -[A7], [A5 - 0x1330]
00005678  4EAD 1C52                jsr        [A5 + 0x1C52 /* export_902, CODE:17 @ 000011DA */]
label0000567C:
0000567C  486D D700                pea.l      [A5 - 0x2900]
00005680  A875                     syscall    SetPBits/SetPortBits
00005682  486D ED82                pea.l      [A5 - 0x127E]
00005686  486D EF44                pea.l      [A5 - 0x10BC]
0000568A  A8A5                     syscall    FillRect
0000568C  2F2D D6C4                move.l     -[A7], [A5 - 0x293C]
00005690  2F2D D6C0                move.l     -[A7], [A5 - 0x2940]
00005694  486D ED82                pea.l      [A5 - 0x127E]
00005698  3F3C 0007                move.w     -[A7], 0x7
0000569C  4EAD 1582                jsr        [A5 + 0x1582 /* export_684, CODE:15 @ 000005C0 */]
000056A0  486D ED82                pea.l      [A5 - 0x127E]
000056A4  486D ED82                pea.l      [A5 - 0x127E]
000056A8  4267                     clr.w      -[A7]
000056AA  4EBA 0CFA                jsr        [PC + 0xCFA /* 000063A6 */]
000056AE  486D ED44                pea.l      [A5 - 0x12BC]
000056B2  A875                     syscall    SetPBits/SetPortBits
000056B4  A89E                     syscall    PenNormal
000056B6  41ED E2F2                lea.l      A0, [A5 - 0x1D0E]
000056BA  43ED ED82                lea.l      A1, [A5 - 0x127E]
000056BE  20D9                     move.l     [A0]+, [A1]+
000056C0  20D9                     move.l     [A0]+, [A1]+
000056C2  4EBA B8C4                jsr        [PC - 0x473C /* 00000F88 */]
000056C6  486D FD92                pea.l      [A5 - 0x26E]
000056CA  4EAD 18E2                jsr        [A5 + 0x18E2 /* export_792, CODE:16 @ 000008AE */]
000056CE  42A7                     clr.l      -[A7]
000056D0  A975                     syscall    TickCount
000056D2  2B5F EFF6                move.l     [A5 - 0x100A], [A7]+
000056D6  1B7C 0001 EFEF           move.b     [A5 - 0x1011], 0x1
000056DC  1B7C 0001 D50E           move.b     [A5 - 0x2AF2], 0x1
label000056E2:
000056E2  2E1F                     move.l     D7, [A7]+
000056E4  4E5E                     unlink     A6
000056E6  4E75                     rts
fn000056E8:
000056E8  4E56 0000                link       A6, 0
000056EC  2F2D D6A4                move.l     -[A7], [A5 - 0x295C]
000056F0  4EAD 022A                jsr        [A5 + 0x22A /* export_65, CODE:1 @ 00004682 */]
000056F4  2F2D D6A4                move.l     -[A7], [A5 - 0x295C]
000056F8  4EAD 0232                jsr        [A5 + 0x232 /* export_66, CODE:1 @ 0000468C */]
000056FC  2F2D D6A0                move.l     -[A7], [A5 - 0x2960]
00005700  4EAD 022A                jsr        [A5 + 0x22A /* export_65, CODE:1 @ 00004682 */]
00005704  2F2D D6A0                move.l     -[A7], [A5 - 0x2960]
00005708  4EAD 0232                jsr        [A5 + 0x232 /* export_66, CODE:1 @ 0000468C */]
0000570C  2F2D D6AC                move.l     -[A7], [A5 - 0x2954]
00005710  4EAD 022A                jsr        [A5 + 0x22A /* export_65, CODE:1 @ 00004682 */]
00005714  2F2D D6AC                move.l     -[A7], [A5 - 0x2954]
00005718  4EAD 0232                jsr        [A5 + 0x232 /* export_66, CODE:1 @ 0000468C */]
0000571C  2F2D D6A8                move.l     -[A7], [A5 - 0x2958]
00005720  4EAD 022A                jsr        [A5 + 0x22A /* export_65, CODE:1 @ 00004682 */]
00005724  2F2D D6A8                move.l     -[A7], [A5 - 0x2958]
00005728  4EAD 0232                jsr        [A5 + 0x232 /* export_66, CODE:1 @ 0000468C */]
0000572C  4E5E                     unlink     A6
0000572E  4E75                     rts
fn00005730:
00005730  4E56 FFF2                link       A6, -0x000E
00005734  102D D50D                move.b     D0, [A5 - 0x2AF3]
00005738  802D D509                or.b       D0, [A5 - 0x2AF7]
0000573C  6604                     bne        +0x6 /* 00005742 */
0000573E  4EBA 0546                jsr        [PC + 0x546 /* 00005C86 */]
label00005742:
00005742  4267                     clr.w      -[A7]
00005744  4EBA A9A4                jsr        [PC - 0x565C /* 000000EA */]
00005748  101F                     move.b     D0, [A7]+
0000574A  6604                     bne        +0x6 /* 00005750 */
0000574C  6000 00C6                bra        +0xC8 /* 00005814 */
label00005750:
00005750  486D D500                pea.l      [A5 - 0x2B00]
00005754  486D E2DA                pea.l      [A5 - 0x1D26]
00005758  4EAD 1CEA                jsr        [A5 + 0x1CEA /* export_921, CODE:17 @ 00001DBA */]
0000575C  42A7                     clr.l      -[A7]
0000575E  4EBA DB50                jsr        [PC - 0x24B0 /* 000032B0 */]
00005762  2F2D ECE4                move.l     -[A7], [A5 - 0x131C]
00005766  42A7                     clr.l      -[A7]
00005768  4EAD 1572                jsr        [A5 + 0x1572 /* export_682, CODE:15 @ 00000408 */]
0000576C  486D ED44                pea.l      [A5 - 0x12BC]
00005770  486D D6D6                pea.l      [A5 - 0x292A]
00005774  486D ED0C                pea.l      [A5 - 0x12F4]
00005778  486D D500                pea.l      [A5 - 0x2B00]
0000577C  486D D500                pea.l      [A5 - 0x2B00]
00005780  486D D500                pea.l      [A5 - 0x2B00]
00005784  A817                     syscall    CopyMask
00005786  4267                     clr.w      -[A7]
00005788  2F2D ECD4                move.l     -[A7], [A5 - 0x132C]
0000578C  2F2D ECE4                move.l     -[A7], [A5 - 0x131C]
00005790  4EAD 14C2                jsr        [A5 + 0x14C2 /* export_660, CODE:14 @ 0000021A */]
00005794  101F                     move.b     D0, [A7]+
00005796  0A00 0001                xori.b     D0, 0x1
0000579A  1D40 FFFE                move.b     [A6 - 0x2], D0
0000579E  42A7                     clr.l      -[A7]
000057A0  4EBA DB0E                jsr        [PC - 0x24F2 /* 000032B0 */]
000057A4  42A7                     clr.l      -[A7]
000057A6  2F2D ECE4                move.l     -[A7], [A5 - 0x131C]
000057AA  4EAD 1572                jsr        [A5 + 0x1572 /* export_682, CODE:15 @ 00000408 */]
000057AE  486D ED44                pea.l      [A5 - 0x12BC]
000057B2  486D D6D6                pea.l      [A5 - 0x292A]
000057B6  486D ECFE                pea.l      [A5 - 0x1302]
000057BA  486D D500                pea.l      [A5 - 0x2B00]
000057BE  486D D500                pea.l      [A5 - 0x2B00]
000057C2  486D D500                pea.l      [A5 - 0x2B00]
000057C6  A817                     syscall    CopyMask
000057C8  4267                     clr.w      -[A7]
000057CA  2F2D ECD0                move.l     -[A7], [A5 - 0x1330]
000057CE  2F2D ECE4                move.l     -[A7], [A5 - 0x131C]
000057D2  4EAD 14C2                jsr        [A5 + 0x14C2 /* export_660, CODE:14 @ 0000021A */]
000057D6  101F                     move.b     D0, [A7]+
000057D8  0A00 0001                xori.b     D0, 0x1
000057DC  1D40 FFFF                move.b     [A6 - 0x1], D0
000057E0  41ED E2F2                lea.l      A0, [A5 - 0x1D0E]
000057E4  43ED ED82                lea.l      A1, [A5 - 0x127E]
000057E8  20D9                     move.l     [A0]+, [A1]+
000057EA  20D9                     move.l     [A0]+, [A1]+
000057EC  4EBA D29A                jsr        [PC - 0x2D66 /* 00002A88 */]
000057F0  422D D509                clr.b      [A5 - 0x2AF7]
000057F4  422D D50D                clr.b      [A5 - 0x2AF3]
000057F8  3F2D D71C                move.w     -[A7], [A5 - 0x28E4]
000057FC  4EBA EB1C                jsr        [PC - 0x14E4 /* 0000431A */]
00005800  102E FFFF                move.b     D0, [A6 - 0x1]
00005804  802E FFFE                or.b       D0, [A6 - 0x2]
00005808  1B40 E2E3                move.b     [A5 - 0x1D1D], D0
0000580C  6706                     beq        +0x8 /* 00005814 */
0000580E  1B7C 0001 E303           move.b     [A5 - 0x1CFD], 0x1
label00005814:
00005814  4E5E                     unlink     A6
00005816  4E75                     rts
fn00005818:
00005818  4E56 FFBC                link       A6, -0x0044
0000581C  48E7 0F00                movem.l    -[A7], D4,D5,D6,D7
00005820  4267                     clr.w      -[A7]
00005822  4EBA A8C6                jsr        [PC - 0x573A /* 000000EA */]
00005826  101F                     move.b     D0, [A7]+
00005828  6604                     bne        +0x6 /* 0000582E */
0000582A  6000 0376                bra        +0x378 /* 00005BA2 */
label0000582E:
0000582E  302D D506                move.w     D0, [A5 - 0x2AFA]
00005832  906D D502                sub.w      D0, [A5 - 0x2AFE]
00005836  322D D504                move.w     D1, [A5 - 0x2AFC]
0000583A  926D D500                sub.w      D1, [A5 - 0x2B00]
0000583E  B240                     cmp.w      D1, D0
00005840  661C                     bne        +0x1E /* 0000585E */
00005842  41EE FFE0                lea.l      A0, [A6 - 0x20]
00005846  43ED D500                lea.l      A1, [A5 - 0x2B00]
0000584A  20D9                     move.l     [A0]+, [A1]+
0000584C  20D9                     move.l     [A0]+, [A1]+
0000584E  41EE FFE8                lea.l      A0, [A6 - 0x18]
00005852  43ED D500                lea.l      A1, [A5 - 0x2B00]
00005856  20D9                     move.l     [A0]+, [A1]+
00005858  20D9                     move.l     [A0]+, [A1]+
0000585A  6000 0108                bra        +0x10A /* 00005964 */
label0000585E:
0000585E  302D D4FC                move.w     D0, [A5 - 0x2B04]
00005862  906D D500                sub.w      D0, [A5 - 0x2B00]
00005866  322D D4FE                move.w     D1, [A5 - 0x2B02]
0000586A  9240                     sub.w      D1, D0
0000586C  3D41 FFE2                move.w     [A6 - 0x1E], D1
00005870  302D D4FC                move.w     D0, [A5 - 0x2B04]
00005874  906D D504                sub.w      D0, [A5 - 0x2AFC]
00005878  322D D4FE                move.w     D1, [A5 - 0x2B02]
0000587C  9240                     sub.w      D1, D0
0000587E  3D41 FFE6                move.w     [A6 - 0x1A], D1
00005882  302D D4FE                move.w     D0, [A5 - 0x2B02]
00005886  906D D506                sub.w      D0, [A5 - 0x2AFA]
0000588A  D06D D4FC                add.w      D0, [A5 - 0x2B04]
0000588E  3D40 FFE0                move.w     [A6 - 0x20], D0
00005892  302D D4FE                move.w     D0, [A5 - 0x2B02]
00005896  906D D502                sub.w      D0, [A5 - 0x2AFE]
0000589A  D06D D4FC                add.w      D0, [A5 - 0x2B04]
0000589E  3D40 FFE4                move.w     [A6 - 0x1C], D0
000058A2  4244                     clr.w      D4
000058A4  3E2D ED84                move.w     D7, [A5 - 0x127C]
000058A8  9E6E FFE2                sub.w      D7, [A6 - 0x1E]
000058AC  4A47                     tst.w      D7
000058AE  6F02                     ble        +0x4 /* 000058B2 */
000058B0  D847                     add.w      D4, D7
label000058B2:
000058B2  3E2D ED88                move.w     D7, [A5 - 0x1278]
000058B6  9E6E FFE6                sub.w      D7, [A6 - 0x1A]
000058BA  4A47                     tst.w      D7
000058BC  6C02                     bge        +0x4 /* 000058C0 */
000058BE  D847                     add.w      D4, D7
label000058C0:
000058C0  426E FFDA                clr.w      [A6 - 0x26]
000058C4  3E2D ED82                move.w     D7, [A5 - 0x127E]
000058C8  9E6E FFE0                sub.w      D7, [A6 - 0x20]
000058CC  4A47                     tst.w      D7
000058CE  6F06                     ble        +0x8 /* 000058D6 */
000058D0  3007                     move.w     D0, D7
000058D2  D16E FFDA                add.w      [A6 - 0x26], D0
label000058D6:
000058D6  3E2D ED86                move.w     D7, [A5 - 0x127A]
000058DA  9E6E FFE4                sub.w      D7, [A6 - 0x1C]
000058DE  4A47                     tst.w      D7
000058E0  6C06                     bge        +0x8 /* 000058E8 */
000058E2  3007                     move.w     D0, D7
000058E4  D16E FFDA                add.w      [A6 - 0x26], D0
label000058E8:
000058E8  486E FFE0                pea.l      [A6 - 0x20]
000058EC  3F04                     move.w     -[A7], D4
000058EE  3F2E FFDA                move.w     -[A7], [A6 - 0x26]
000058F2  A8A8                     syscall    OffsetRect
000058F4  4267                     clr.w      -[A7]
000058F6  486E FFE0                pea.l      [A6 - 0x20]
000058FA  486D ED82                pea.l      [A5 - 0x127E]
000058FE  486E FFE0                pea.l      [A6 - 0x20]
00005902  A8AA                     syscall    SectRect
00005904  1D5F FFDF                move.b     [A6 - 0x21], [A7]+
00005908  486E FFE0                pea.l      [A6 - 0x20]
0000590C  4EBA ADF4                jsr        [PC - 0x520C /* 00000702 */]
00005910  302D D4FC                move.w     D0, [A5 - 0x2B04]
00005914  D06D D4FE                add.w      D0, [A5 - 0x2B02]
00005918  322E FFDA                move.w     D1, [A6 - 0x26]
0000591C  D240                     add.w      D1, D0
0000591E  926E FFE4                sub.w      D1, [A6 - 0x1C]
00005922  3D41 FFEA                move.w     [A6 - 0x16], D1
00005926  302D D4FC                move.w     D0, [A5 - 0x2B04]
0000592A  D06D D4FE                add.w      D0, [A5 - 0x2B02]
0000592E  322E FFDA                move.w     D1, [A6 - 0x26]
00005932  D240                     add.w      D1, D0
00005934  926E FFE0                sub.w      D1, [A6 - 0x20]
00005938  3D41 FFEE                move.w     [A6 - 0x12], D1
0000593C  302D D4FC                move.w     D0, [A5 - 0x2B04]
00005940  906D D4FE                sub.w      D0, [A5 - 0x2B02]
00005944  9044                     sub.w      D0, D4
00005946  322E FFE2                move.w     D1, [A6 - 0x1E]
0000594A  D240                     add.w      D1, D0
0000594C  3D41 FFE8                move.w     [A6 - 0x18], D1
00005950  302D D4FC                move.w     D0, [A5 - 0x2B04]
00005954  906D D4FE                sub.w      D0, [A5 - 0x2B02]
00005958  9044                     sub.w      D0, D4
0000595A  322E FFE6                move.w     D1, [A6 - 0x1A]
0000595E  D240                     add.w      D1, D0
00005960  3D41 FFEC                move.w     [A6 - 0x14], D1
label00005964:
00005964  302E FFEE                move.w     D0, [A6 - 0x12]
00005968  906E FFEA                sub.w      D0, [A6 - 0x16]
0000596C  3D40 FFD2                move.w     [A6 - 0x2E], D0
00005970  3C2E FFEC                move.w     D6, [A6 - 0x14]
00005974  9C6E FFE8                sub.w      D6, [A6 - 0x18]
00005978  7000                     moveq.l    D0, 0x00
0000597A  322E FFD2                move.w     D1, [A6 - 0x2E]
0000597E  D27C 000F                add.w      D1, 0xF
00005982  3001                     move.w     D0, D1
00005984  E888                     lsr        D0, 4
00005986  3A00                     move.w     D5, D0
00005988  302E FFE6                move.w     D0, [A6 - 0x1A]
0000598C  906E FFE2                sub.w      D0, [A6 - 0x1E]
00005990  3D40 FFCE                move.w     [A6 - 0x32], D0
00005994  302E FFE4                move.w     D0, [A6 - 0x1C]
00005998  906E FFE0                sub.w      D0, [A6 - 0x20]
0000599C  3D40 FFD0                move.w     [A6 - 0x30], D0
000059A0  2D6D ECE4 FFC0           move.l     [A6 - 0x40], [A5 - 0x131C]
000059A6  3D7C 002C FFC4           move.w     [A6 - 0x3C], 0x2C /* ',' */
000059AC  486E FFC6                pea.l      [A6 - 0x3A]
000059B0  42A7                     clr.l      -[A7]
000059B2  2F3C 0160 0160           move.l     -[A7], 0x1600160
000059B8  A8A7                     syscall    SetRect
000059BA  102E 0008                move.b     D0, [A6 + 0x8]
000059BE  6730                     beq        +0x32 /* 000059F0 */
000059C0  426E FFF8                clr.w      [A6 - 0x8]
000059C4  3D46 FFFC                move.w     [A6 - 0x4], D6
000059C8  426E FFFA                clr.w      [A6 - 0x6]
000059CC  3D6E FFD2 FFFE           move.w     [A6 - 0x2], [A6 - 0x2E]
000059D2  426E FFF0                clr.w      [A6 - 0x10]
000059D6  3D6E FFD0 FFF4           move.w     [A6 - 0xC], [A6 - 0x30]
000059DC  3D7C 0160 FFF6           move.w     [A6 - 0xA], 0x160
000059E2  303C 0160                move.w     D0, 0x160
000059E6  906E FFCE                sub.w      D0, [A6 - 0x32]
000059EA  3D40 FFF2                move.w     [A6 - 0xE], D0
000059EE  602E                     bra        +0x30 /* 00005A1E */
label000059F0:
000059F0  426E FFF8                clr.w      [A6 - 0x8]
000059F4  3D46 FFFC                move.w     [A6 - 0x4], D6
000059F8  3D7C 0200 FFFE           move.w     [A6 - 0x2], 0x200
000059FE  303C 0200                move.w     D0, 0x200
00005A02  906E FFD2                sub.w      D0, [A6 - 0x2E]
00005A06  3D40 FFFA                move.w     [A6 - 0x6], D0
00005A0A  426E FFF0                clr.w      [A6 - 0x10]
00005A0E  426E FFF2                clr.w      [A6 - 0xE]
00005A12  3D6E FFCE FFF6           move.w     [A6 - 0xA], [A6 - 0x32]
00005A18  3D6E FFD0 FFF4           move.w     [A6 - 0xC], [A6 - 0x30]
label00005A1E:
00005A1E  486D D6D6                pea.l      [A5 - 0x292A]
00005A22  486D D6D6                pea.l      [A5 - 0x292A]
00005A26  486E FFE8                pea.l      [A6 - 0x18]
00005A2A  486E FFF8                pea.l      [A6 - 0x8]
00005A2E  4267                     clr.w      -[A7]
00005A30  42A7                     clr.l      -[A7]
00005A32  A8EC                     syscall    CopyBits
00005A34  1B7C 0001 D68D           move.b     [A5 - 0x2973], 0x1
00005A3A  2F2D ECE4                move.l     -[A7], [A5 - 0x131C]
00005A3E  4EAD 1D12                jsr        [A5 + 0x1D12 /* export_926, CODE:17 @ 00002B38 */]
00005A42  102E 0008                move.b     D0, [A6 + 0x8]
00005A46  6712                     beq        +0x14 /* 00005A5A */
00005A48  2F2D D6B4                move.l     -[A7], [A5 - 0x294C]
00005A4C  2F2D ECE4                move.l     -[A7], [A5 - 0x131C]
00005A50  3F05                     move.w     -[A7], D5
00005A52  3F06                     move.w     -[A7], D6
00005A54  4EAD 1512                jsr        [A5 + 0x1512 /* export_670, CODE:14 @ 000008FA */]
00005A58  6010                     bra        +0x12 /* 00005A6A */
label00005A5A:
00005A5A  2F2D D6B4                move.l     -[A7], [A5 - 0x294C]
00005A5E  2F2D ECE4                move.l     -[A7], [A5 - 0x131C]
00005A62  3F05                     move.w     -[A7], D5
00005A64  3F06                     move.w     -[A7], D6
00005A66  4EAD 150A                jsr        [A5 + 0x150A /* export_669, CODE:14 @ 000007C6 */]
label00005A6A:
00005A6A  2F2D D6B4                move.l     -[A7], [A5 - 0x294C]
00005A6E  4EAD 1D12                jsr        [A5 + 0x1D12 /* export_926, CODE:17 @ 00002B38 */]
00005A72  486E FFC0                pea.l      [A6 - 0x40]
00005A76  486D D6D6                pea.l      [A5 - 0x292A]
00005A7A  486E FFF0                pea.l      [A6 - 0x10]
00005A7E  486E FFE0                pea.l      [A6 - 0x20]
00005A82  4267                     clr.w      -[A7]
00005A84  42A7                     clr.l      -[A7]
00005A86  A8EC                     syscall    CopyBits
00005A88  486D D70E                pea.l      [A5 - 0x28F2]
00005A8C  486D D70E                pea.l      [A5 - 0x28F2]
00005A90  486E FFE8                pea.l      [A6 - 0x18]
00005A94  486E FFF8                pea.l      [A6 - 0x8]
00005A98  4267                     clr.w      -[A7]
00005A9A  42A7                     clr.l      -[A7]
00005A9C  A8EC                     syscall    CopyBits
00005A9E  2F2D ECE4                move.l     -[A7], [A5 - 0x131C]
00005AA2  4EAD 1D12                jsr        [A5 + 0x1D12 /* export_926, CODE:17 @ 00002B38 */]
00005AA6  102E 0008                move.b     D0, [A6 + 0x8]
00005AAA  6712                     beq        +0x14 /* 00005ABE */
00005AAC  2F2D D6C4                move.l     -[A7], [A5 - 0x293C]
00005AB0  2F2D ECE4                move.l     -[A7], [A5 - 0x131C]
00005AB4  3F05                     move.w     -[A7], D5
00005AB6  3F06                     move.w     -[A7], D6
00005AB8  4EAD 1512                jsr        [A5 + 0x1512 /* export_670, CODE:14 @ 000008FA */]
00005ABC  6010                     bra        +0x12 /* 00005ACE */
label00005ABE:
00005ABE  2F2D D6C4                move.l     -[A7], [A5 - 0x293C]
00005AC2  2F2D ECE4                move.l     -[A7], [A5 - 0x131C]
00005AC6  3F05                     move.w     -[A7], D5
00005AC8  3F06                     move.w     -[A7], D6
00005ACA  4EAD 150A                jsr        [A5 + 0x150A /* export_669, CODE:14 @ 000007C6 */]
label00005ACE:
00005ACE  2F2D D6C4                move.l     -[A7], [A5 - 0x293C]
00005AD2  4EAD 1D12                jsr        [A5 + 0x1D12 /* export_926, CODE:17 @ 00002B38 */]
00005AD6  486E FFC0                pea.l      [A6 - 0x40]
00005ADA  486D D70E                pea.l      [A5 - 0x28F2]
00005ADE  486E FFF0                pea.l      [A6 - 0x10]
00005AE2  486E FFE0                pea.l      [A6 - 0x20]
00005AE6  4267                     clr.w      -[A7]
00005AE8  42A7                     clr.l      -[A7]
00005AEA  A8EC                     syscall    CopyBits
00005AEC  486D D700                pea.l      [A5 - 0x2900]
00005AF0  486D D700                pea.l      [A5 - 0x2900]
00005AF4  486E FFE8                pea.l      [A6 - 0x18]
00005AF8  486E FFF8                pea.l      [A6 - 0x8]
00005AFC  4267                     clr.w      -[A7]
00005AFE  42A7                     clr.l      -[A7]
00005B00  A8EC                     syscall    CopyBits
00005B02  2F2D ECE4                move.l     -[A7], [A5 - 0x131C]
00005B06  4EAD 1D12                jsr        [A5 + 0x1D12 /* export_926, CODE:17 @ 00002B38 */]
00005B0A  102E 0008                move.b     D0, [A6 + 0x8]
00005B0E  6712                     beq        +0x14 /* 00005B22 */
00005B10  2F2D D6C0                move.l     -[A7], [A5 - 0x2940]
00005B14  2F2D ECE4                move.l     -[A7], [A5 - 0x131C]
00005B18  3F05                     move.w     -[A7], D5
00005B1A  3F06                     move.w     -[A7], D6
00005B1C  4EAD 1512                jsr        [A5 + 0x1512 /* export_670, CODE:14 @ 000008FA */]
00005B20  6010                     bra        +0x12 /* 00005B32 */
label00005B22:
00005B22  2F2D D6C0                move.l     -[A7], [A5 - 0x2940]
00005B26  2F2D ECE4                move.l     -[A7], [A5 - 0x131C]
00005B2A  3F05                     move.w     -[A7], D5
00005B2C  3F06                     move.w     -[A7], D6
00005B2E  4EAD 150A                jsr        [A5 + 0x150A /* export_669, CODE:14 @ 000007C6 */]
label00005B32:
00005B32  2F2D D6C0                move.l     -[A7], [A5 - 0x2940]
00005B36  4EAD 1D12                jsr        [A5 + 0x1D12 /* export_926, CODE:17 @ 00002B38 */]
00005B3A  486E FFC0                pea.l      [A6 - 0x40]
00005B3E  486D D700                pea.l      [A5 - 0x2900]
00005B42  486E FFF0                pea.l      [A6 - 0x10]
00005B46  486E FFE0                pea.l      [A6 - 0x20]
00005B4A  4267                     clr.w      -[A7]
00005B4C  42A7                     clr.l      -[A7]
00005B4E  A8EC                     syscall    CopyBits
00005B50  41ED D68E                lea.l      A0, [A5 - 0x2972]
00005B54  43EE FFE0                lea.l      A1, [A6 - 0x20]
00005B58  20D9                     move.l     [A0]+, [A1]+
00005B5A  20D9                     move.l     [A0]+, [A1]+
00005B5C  2D6D D4FC FFBC           move.l     [A6 - 0x44], [A5 - 0x2B04]
00005B62  486E FFE0                pea.l      [A6 - 0x20]
00005B66  4EBA 04B6                jsr        [PC + 0x4B6 /* 0000601E */]
00005B6A  4267                     clr.w      -[A7]
00005B6C  2F2D D4FC                move.l     -[A7], [A5 - 0x2B04]
00005B70  2F2E FFBC                move.l     -[A7], [A6 - 0x44]
00005B74  3F3C 0002                move.w     -[A7], 0x2
00005B78  4EAD 1A72                jsr        [A5 + 0x1A72 /* export_842, CODE:16 @ 000019A8 */]
00005B7C  101F                     move.b     D0, [A7]+
00005B7E  6706                     beq        +0x8 /* 00005B86 */
00005B80  2B6E FFBC D4FC           move.l     [A5 - 0x2B04], [A6 - 0x44]
label00005B86:
00005B86  486D ED82                pea.l      [A5 - 0x127E]
00005B8A  4EBA D696                jsr        [PC - 0x296A /* 00003222 */]
00005B8E  4EBA CDB8                jsr        [PC - 0x3248 /* 00002948 */]
00005B92  41ED E2F2                lea.l      A0, [A5 - 0x1D0E]
00005B96  43ED ED82                lea.l      A1, [A5 - 0x127E]
00005B9A  20D9                     move.l     [A0]+, [A1]+
00005B9C  20D9                     move.l     [A0]+, [A1]+
00005B9E  4EBA CEE8                jsr        [PC - 0x3118 /* 00002A88 */]
label00005BA2:
00005BA2  4CDF 00F0                movem.l    D4,D5,D6,D7, [A7]+
00005BA6  4E5E                     unlink     A6
00005BA8  205F                     movea.l    A0, [A7]+
00005BAA  544F                     addq.w     A7, 2
00005BAC  4ED0                     jmp        [A0]
fn00005BAE:
00005BAE  4E56 FFF0                link       A6, -0x0010
00005BB2  2D6D D688 FFF8           move.l     [A6 - 0x8], [A5 - 0x2978]
00005BB8  2D6E FFF8 FFFC           move.l     [A6 - 0x4], [A6 - 0x8]
00005BBE  2F2D EDC8                move.l     -[A7], [A5 - 0x1238]
00005BC2  A873                     syscall    SetPort
00005BC4  486E FFF0                pea.l      [A6 - 0x10]
00005BC8  4EAD 20DA                jsr        [A5 + 0x20DA /* export_1047, CODE:20 @ 0000147C */]
00005BCC  2F2E FFF0                move.l     -[A7], [A6 - 0x10]
00005BD0  4EAD 17E2                jsr        [A5 + 0x17E2 /* export_760, CODE:15 @ 00006D92 */]
00005BD4  4EBA B3D2                jsr        [PC - 0x4C2E /* 00000FA8 */]
label00005BD8:
00005BD8  486E FFF4                pea.l      [A6 - 0xC]
00005BDC  4EAD 20DA                jsr        [A5 + 0x20DA /* export_1047, CODE:20 @ 0000147C */]
00005BE0  486E FFF4                pea.l      [A6 - 0xC]
00005BE4  4EAD 17CA                jsr        [A5 + 0x17CA /* export_757, CODE:15 @ 00006960 */]
00005BE8  302E FFF6                move.w     D0, [A6 - 0xA]
00005BEC  906E FFF2                sub.w      D0, [A6 - 0xE]
00005BF0  48C0                     ext.l      D0
00005BF2  81FC 0002                divs.w     D0, 0x2
00005BF6  322E FFFA                move.w     D1, [A6 - 0x6]
00005BFA  9240                     sub.w      D1, D0
00005BFC  3B41 D68A                move.w     [A5 - 0x2976], D1
00005C00  302E FFF4                move.w     D0, [A6 - 0xC]
00005C04  906E FFF0                sub.w      D0, [A6 - 0x10]
00005C08  48C0                     ext.l      D0
00005C0A  81FC 0002                divs.w     D0, 0x2
00005C0E  322E FFF8                move.w     D1, [A6 - 0x8]
00005C12  9240                     sub.w      D1, D0
00005C14  3B41 D688                move.w     [A5 - 0x2978], D1
00005C18  486D D688                pea.l      [A5 - 0x2978]
00005C1C  486D D680                pea.l      [A5 - 0x2980]
00005C20  4EAD 1A92                jsr        [A5 + 0x1A92 /* export_846, CODE:16 @ 00001A06 */]
00005C24  4267                     clr.w      -[A7]
00005C26  2F2D D688                move.l     -[A7], [A5 - 0x2978]
00005C2A  2F2E FFFC                move.l     -[A7], [A6 - 0x4]
00005C2E  A881                     syscall    EqualPt
00005C30  101F                     move.b     D0, [A7]+
00005C32  663E                     bne        +0x40 /* 00005C72 */
00005C34  302D D68A                move.w     D0, [A5 - 0x2976]
00005C38  907C 0020                sub.w      D0, 0x20 /* ' ' */
00005C3C  3B40 D67A                move.w     [A5 - 0x2986], D0
00005C40  302D D688                move.w     D0, [A5 - 0x2978]
00005C44  907C 0015                sub.w      D0, 0x15
00005C48  3B40 D678                move.w     [A5 - 0x2988], D0
00005C4C  302D D67A                move.w     D0, [A5 - 0x2986]
00005C50  D07C 0040                add.w      D0, 0x40 /* '@' */
00005C54  3B40 D67E                move.w     [A5 - 0x2982], D0
00005C58  302D D678                move.w     D0, [A5 - 0x2988]
00005C5C  D07C 002B                add.w      D0, 0x2B /* '+' */
00005C60  3B40 D67C                move.w     [A5 - 0x2984], D0
00005C64  486D D678                pea.l      [A5 - 0x2988]
00005C68  4EBA 1504                jsr        [PC + 0x1504 /* 0000716E */]
00005C6C  2D6D D688 FFFC           move.l     [A6 - 0x4], [A5 - 0x2978]
label00005C72:
00005C72  4267                     clr.w      -[A7]
00005C74  4EAD 210A                jsr        [A5 + 0x210A /* export_1053, CODE:20 @ 000016F6 */]
00005C78  101F                     move.b     D0, [A7]+
00005C7A  0A00 0001                xori.b     D0, 0x1
00005C7E  6700 FF58                beq        -0xA6 /* 00005BD8 */
00005C82  4E5E                     unlink     A6
00005C84  4E75                     rts
fn00005C86:
00005C86  4E56 FFF8                link       A6, -0x0008
00005C8A  4EAD 160A                jsr        [A5 + 0x160A /* export_701, CODE:15 @ 00001282 */]
00005C8E  4AAD D482                tst.l      [A5 - 0x2B7E]
00005C92  56C0                     sne        D0
00005C94  802D D4E9                or.b       D0, [A5 - 0x2B17]
00005C98  0240 0001                andi.w     D0, 0x1
00005C9C  6704                     beq        +0x6 /* 00005CA2 */
00005C9E  4EBA F114                jsr        [PC - 0xEEC /* 00004DB4 */]
label00005CA2:
00005CA2  41EE FFF8                lea.l      A0, [A6 - 0x8]
00005CA6  43ED ED82                lea.l      A1, [A5 - 0x127E]
00005CAA  20D9                     move.l     [A0]+, [A1]+
00005CAC  20D9                     move.l     [A0]+, [A1]+
00005CAE  102D E225                move.b     D0, [A5 - 0x1DDB]
00005CB2  670C                     beq        +0xE /* 00005CC0 */
00005CB4  41EE FFF8                lea.l      A0, [A6 - 0x8]
00005CB8  43ED D678                lea.l      A1, [A5 - 0x2988]
00005CBC  20D9                     move.l     [A0]+, [A1]+
00005CBE  20D9                     move.l     [A0]+, [A1]+
label00005CC0:
00005CC0  486E FFF8                pea.l      [A6 - 0x8]
00005CC4  4EBA 0358                jsr        [PC + 0x358 /* 0000601E */]
00005CC8  1B7C 0001 D509           move.b     [A5 - 0x2AF7], 0x1
00005CCE  422D D50D                clr.b      [A5 - 0x2AF3]
00005CD2  422D D50E                clr.b      [A5 - 0x2AF2]
00005CD6  1B7C 0001 D50C           move.b     [A5 - 0x2AF4], 0x1
00005CDC  4EBA A906                jsr        [PC - 0x56FA /* 000005E4 */]
00005CE0  1B7C 0001 D50A           move.b     [A5 - 0x2AF6], 0x1
00005CE6  2F2D D6B4                move.l     -[A7], [A5 - 0x294C]
00005CEA  4EAD 1D12                jsr        [A5 + 0x1D12 /* export_926, CODE:17 @ 00002B38 */]
00005CEE  1B7C 0001 D68D           move.b     [A5 - 0x2973], 0x1
00005CF4  4EBA 14C0                jsr        [PC + 0x14C0 /* 000071B6 */]
00005CF8  486D EE38                pea.l      [A5 - 0x11C8]
00005CFC  A873                     syscall    SetPort
00005CFE  486D D6D6                pea.l      [A5 - 0x292A]
00005D02  A875                     syscall    SetPBits/SetPortBits
00005D04  486D D500                pea.l      [A5 - 0x2B00]
00005D08  486D FE98                pea.l      [A5 - 0x168]
00005D0C  A8A5                     syscall    FillRect
00005D0E  486D ED44                pea.l      [A5 - 0x12BC]
00005D12  A875                     syscall    SetPBits/SetPortBits
00005D14  486D ED0C                pea.l      [A5 - 0x12F4]
00005D18  486D D70E                pea.l      [A5 - 0x28F2]
00005D1C  486D D500                pea.l      [A5 - 0x2B00]
00005D20  486D D500                pea.l      [A5 - 0x2B00]
00005D24  4267                     clr.w      -[A7]
00005D26  42A7                     clr.l      -[A7]
00005D28  A8EC                     syscall    CopyBits
00005D2A  486D ECFE                pea.l      [A5 - 0x1302]
00005D2E  486D D700                pea.l      [A5 - 0x2900]
00005D32  486D D500                pea.l      [A5 - 0x2B00]
00005D36  486D D500                pea.l      [A5 - 0x2B00]
00005D3A  4267                     clr.w      -[A7]
00005D3C  42A7                     clr.l      -[A7]
00005D3E  A8EC                     syscall    CopyBits
00005D40  41ED D68E                lea.l      A0, [A5 - 0x2972]
00005D44  43ED D500                lea.l      A1, [A5 - 0x2B00]
00005D48  20D9                     move.l     [A0]+, [A1]+
00005D4A  20D9                     move.l     [A0]+, [A1]+
00005D4C  4A6D FD8A                tst.w      [A5 - 0x276]
00005D50  6D04                     blt        +0x6 /* 00005D56 */
00005D52  4EAD 1862                jsr        [A5 + 0x1862 /* export_776, CODE:16 @ 00000474 */]
label00005D56:
00005D56  3F3C 0004                move.w     -[A7], 0x4
00005D5A  4EAD 2202                jsr        [A5 + 0x2202 /* export_1084, CODE:20 @ 000047F6 */]
00005D5E  4E5E                     unlink     A6
00005D60  4E75                     rts
fn00005D62:
00005D62  4E56 0000                link       A6, 0
00005D66  4EAD 160A                jsr        [A5 + 0x160A /* export_701, CODE:15 @ 00001282 */]
00005D6A  4AAD D482                tst.l      [A5 - 0x2B7E]
00005D6E  56C0                     sne        D0
00005D70  802D D4E9                or.b       D0, [A5 - 0x2B17]
00005D74  0240 0001                andi.w     D0, 0x1
00005D78  6704                     beq        +0x6 /* 00005D7E */
00005D7A  4EBA F038                jsr        [PC - 0xFC8 /* 00004DB4 */]
label00005D7E:
00005D7E  102D D50E                move.b     D0, [A5 - 0x2AF2]
00005D82  6770                     beq        +0x72 /* 00005DF4 */
00005D84  2F2D D6C4                move.l     -[A7], [A5 - 0x293C]
00005D88  2F2D D6B4                move.l     -[A7], [A5 - 0x294C]
00005D8C  486D ED82                pea.l      [A5 - 0x127E]
00005D90  4267                     clr.w      -[A7]
00005D92  4EAD 1582                jsr        [A5 + 0x1582 /* export_684, CODE:15 @ 000005C0 */]
00005D96  1B7C 0001 D68D           move.b     [A5 - 0x2973], 0x1
00005D9C  422D D509                clr.b      [A5 - 0x2AF7]
00005DA0  41ED D500                lea.l      A0, [A5 - 0x2B00]
00005DA4  43ED ED82                lea.l      A1, [A5 - 0x127E]
00005DA8  20D9                     move.l     [A0]+, [A1]+
00005DAA  20D9                     move.l     [A0]+, [A1]+
00005DAC  2F2D D6B4                move.l     -[A7], [A5 - 0x294C]
00005DB0  486D D500                pea.l      [A5 - 0x2B00]
00005DB4  4EAD 153A                jsr        [A5 + 0x153A /* export_675, CODE:14 @ 00000C62 */]
00005DB8  4267                     clr.w      -[A7]
00005DBA  486D D500                pea.l      [A5 - 0x2B00]
00005DBE  A8AE                     syscall    EmptyRect
00005DC0  101F                     move.b     D0, [A7]+
00005DC2  6628                     bne        +0x2A /* 00005DEC */
00005DC4  486D D500                pea.l      [A5 - 0x2B00]
00005DC8  4EBA A938                jsr        [PC - 0x56C8 /* 00000702 */]
00005DCC  486D D500                pea.l      [A5 - 0x2B00]
00005DD0  4EBA 024C                jsr        [PC + 0x24C /* 0000601E */]
00005DD4  1B7C 0001 D50D           move.b     [A5 - 0x2AF3], 0x1
00005DDA  4A6D FD8A                tst.w      [A5 - 0x276]
00005DDE  6D04                     blt        +0x6 /* 00005DE4 */
00005DE0  4EAD 1862                jsr        [A5 + 0x1862 /* export_776, CODE:16 @ 00000474 */]
label00005DE4:
00005DE4  3F3C 0005                move.w     -[A7], 0x5
00005DE8  4EAD 2202                jsr        [A5 + 0x2202 /* export_1084, CODE:20 @ 000047F6 */]
label00005DEC:
00005DEC  422D D50A                clr.b      [A5 - 0x2AF6]
00005DF0  422D D50E                clr.b      [A5 - 0x2AF2]
label00005DF4:
00005DF4  4E5E                     unlink     A6
00005DF6  4E75                     rts
fn00005DF8:
00005DF8  4E56 0000                link       A6, 0
00005DFC  4EAD 160A                jsr        [A5 + 0x160A /* export_701, CODE:15 @ 00001282 */]
00005E00  4AAD D482                tst.l      [A5 - 0x2B7E]
00005E04  56C0                     sne        D0
00005E06  802D D4E9                or.b       D0, [A5 - 0x2B17]
00005E0A  0240 0001                andi.w     D0, 0x1
00005E0E  6704                     beq        +0x6 /* 00005E14 */
00005E10  4EBA EFA2                jsr        [PC - 0x105E /* 00004DB4 */]
label00005E14:
00005E14  102D D50E                move.b     D0, [A5 - 0x2AF2]
00005E18  6708                     beq        +0xA /* 00005E22 */
00005E1A  4EBA FF46                jsr        [PC - 0xBA /* 00005D62 */]
00005E1E  6000 00FA                bra        +0xFC /* 00005F1A */
label00005E22:
00005E22  102D D50D                move.b     D0, [A5 - 0x2AF3]
00005E26  802D D509                or.b       D0, [A5 - 0x2AF7]
00005E2A  6604                     bne        +0x6 /* 00005E30 */
00005E2C  4EBA FE58                jsr        [PC - 0x1A8 /* 00005C86 */]
label00005E30:
00005E30  1B7C 0001 D47A           move.b     [A5 - 0x2B86], 0x1
00005E36  4267                     clr.w      -[A7]
00005E38  4EBA A2B0                jsr        [PC - 0x5D50 /* 000000EA */]
00005E3C  101F                     move.b     D0, [A7]+
00005E3E  6700 00D6                beq        +0xD8 /* 00005F16 */
00005E42  486D D500                pea.l      [A5 - 0x2B00]
00005E46  486D E2F2                pea.l      [A5 - 0x1D0E]
00005E4A  4EAD 1CEA                jsr        [A5 + 0x1CEA /* export_921, CODE:17 @ 00001DBA */]
00005E4E  1B7C 0001 D68D           move.b     [A5 - 0x2973], 0x1
00005E54  102D D50D                move.b     D0, [A5 - 0x2AF3]
00005E58  6728                     beq        +0x2A /* 00005E82 */
00005E5A  2F2D D6B4                move.l     -[A7], [A5 - 0x294C]
00005E5E  2F2D ECE4                move.l     -[A7], [A5 - 0x131C]
00005E62  486D D500                pea.l      [A5 - 0x2B00]
00005E66  3F3C 0061                move.w     -[A7], 0x61 /* 'a' */
00005E6A  4EAD 1582                jsr        [A5 + 0x1582 /* export_684, CODE:15 @ 000005C0 */]
00005E6E  2F2D ECE4                move.l     -[A7], [A5 - 0x131C]
00005E72  2F2D D6B4                move.l     -[A7], [A5 - 0x294C]
00005E76  486D D500                pea.l      [A5 - 0x2B00]
00005E7A  4267                     clr.w      -[A7]
00005E7C  4EAD 1582                jsr        [A5 + 0x1582 /* export_684, CODE:15 @ 000005C0 */]
00005E80  6044                     bra        +0x46 /* 00005EC6 */
label00005E82:
00005E82  2F2D D6B4                move.l     -[A7], [A5 - 0x294C]
00005E86  4EAD 1D12                jsr        [A5 + 0x1D12 /* export_926, CODE:17 @ 00002B38 */]
00005E8A  2F2D D6C0                move.l     -[A7], [A5 - 0x2940]
00005E8E  2F2D D6B4                move.l     -[A7], [A5 - 0x294C]
00005E92  486D D500                pea.l      [A5 - 0x2B00]
00005E96  3F3C 0061                move.w     -[A7], 0x61 /* 'a' */
00005E9A  4EAD 1582                jsr        [A5 + 0x1582 /* export_684, CODE:15 @ 000005C0 */]
00005E9E  2F2D D6B4                move.l     -[A7], [A5 - 0x294C]
00005EA2  2F2D D6C4                move.l     -[A7], [A5 - 0x293C]
00005EA6  486D D500                pea.l      [A5 - 0x2B00]
00005EAA  3F3C 0007                move.w     -[A7], 0x7
00005EAE  4EAD 1582                jsr        [A5 + 0x1582 /* export_684, CODE:15 @ 000005C0 */]
00005EB2  2F2D D6B4                move.l     -[A7], [A5 - 0x294C]
00005EB6  2F2D D6C0                move.l     -[A7], [A5 - 0x2940]
00005EBA  486D D500                pea.l      [A5 - 0x2B00]
00005EBE  3F3C 0007                move.w     -[A7], 0x7
00005EC2  4EAD 1582                jsr        [A5 + 0x1582 /* export_684, CODE:15 @ 000005C0 */]
label00005EC6:
00005EC6  486D ED82                pea.l      [A5 - 0x127E]
00005ECA  4EBA D356                jsr        [PC - 0x2CAA /* 00003222 */]
00005ECE  4EBA CA78                jsr        [PC - 0x3588 /* 00002948 */]
00005ED2  422D D509                clr.b      [A5 - 0x2AF7]
00005ED6  422D D50D                clr.b      [A5 - 0x2AF3]
00005EDA  2F2D D6B4                move.l     -[A7], [A5 - 0x294C]
00005EDE  486D D500                pea.l      [A5 - 0x2B00]
00005EE2  4EAD 153A                jsr        [A5 + 0x153A /* export_675, CODE:14 @ 00000C62 */]
00005EE6  4267                     clr.w      -[A7]
00005EE8  486D D500                pea.l      [A5 - 0x2B00]
00005EEC  A8AE                     syscall    EmptyRect
00005EEE  101F                     move.b     D0, [A7]+
00005EF0  6620                     bne        +0x22 /* 00005F12 */
00005EF2  1B7C 0001 D50D           move.b     [A5 - 0x2AF3], 0x1
00005EF8  486D D500                pea.l      [A5 - 0x2B00]
00005EFC  4EBA 0120                jsr        [PC + 0x120 /* 0000601E */]
00005F00  4A6D FD8A                tst.w      [A5 - 0x276]
00005F04  6D04                     blt        +0x6 /* 00005F0A */
00005F06  4EAD 1862                jsr        [A5 + 0x1862 /* export_776, CODE:16 @ 00000474 */]
label00005F0A:
00005F0A  3F3C 0005                move.w     -[A7], 0x5
00005F0E  4EAD 2202                jsr        [A5 + 0x2202 /* export_1084, CODE:20 @ 000047F6 */]
label00005F12:
00005F12  4EBA CB74                jsr        [PC - 0x348C /* 00002A88 */]
label00005F16:
00005F16  422D D47A                clr.b      [A5 - 0x2B86]
label00005F1A:
00005F1A  4E5E                     unlink     A6
00005F1C  4E75                     rts
export_626:
fn00005F1E:
00005F1E  4E56 FFFC                link       A6, -0x0004
00005F22  2F07                     move.l     -[A7], D7
00005F24  4267                     clr.w      -[A7]
00005F26  3F2E 0008                move.w     -[A7], [A6 + 0x8]
00005F2A  2F3C 0008 0001           move.l     -[A7], 0x80001
00005F30  4EAD 1A8A                jsr        [A5 + 0x1A8A /* export_845, CODE:16 @ 000019F8 */]
00005F34  301F                     move.w     D0, [A7]+
00005F36  48C0                     ext.l      D0
00005F38  2E00                     move.l     D7, D0
00005F3A  7004                     moveq.l    D0, 0x04
00005F3C  B087                     cmp.l      D0, D7
00005F3E  6C04                     bge        +0x6 /* 00005F44 */
00005F40  0887 0000                bclr.b     D7, 0x0
label00005F44:
00005F44  3B47 EF1A                move.w     [A5 - 0x10E6], D7
00005F48  2F07                     move.l     -[A7], D7
00005F4A  7002                     moveq.l    D0, 0x02
00005F4C  2F00                     move.l     -[A7], D0
00005F4E  4EAD 04F2                jsr        [A5 + 0x4F2 /* export_154, CODE:1 @ 00005224 */]
00005F52  201F                     move.l     D0, [A7]+
00005F54  3B40 EF18                move.w     [A5 - 0x10E8], D0
00005F58  3F07                     move.w     -[A7], D7
00005F5A  4EBA 000C                jsr        [PC + 0xC /* 00005F68 */]
00005F5E  2E1F                     move.l     D7, [A7]+
00005F60  4E5E                     unlink     A6
00005F62  205F                     movea.l    A0, [A7]+
00005F64  544F                     addq.w     A7, 2
00005F66  4ED0                     jmp        [A0]
fn00005F68:
00005F68  4E56 FFFE                link       A6, -0x0002
00005F6C  48E7 0300                movem.l    -[A7], D6,D7
00005F70  3C2E 0008                move.w     D6, [A6 + 0x8]
00005F74  3006                     move.w     D0, D6
00005F76  48C0                     ext.l      D0
00005F78  81FC 0002                divs.w     D0, 0x2
00005F7C  3E00                     move.w     D7, D0
00005F7E  41ED D512                lea.l      A0, [A5 - 0x2AEE]
00005F82  43ED ED82                lea.l      A1, [A5 - 0x127E]
00005F86  20D9                     move.l     [A0]+, [A1]+
00005F88  20D9                     move.l     [A0]+, [A1]+
00005F8A  102D E225                move.b     D0, [A5 - 0x1DDB]
00005F8E  670C                     beq        +0xE /* 00005F9C */
00005F90  41ED D512                lea.l      A0, [A5 - 0x2AEE]
00005F94  43ED D678                lea.l      A1, [A5 - 0x2988]
00005F98  20D9                     move.l     [A0]+, [A1]+
00005F9A  20D9                     move.l     [A0]+, [A1]+
label00005F9C:
00005F9C  3007                     move.w     D0, D7
00005F9E  D06D D514                add.w      D0, [A5 - 0x2AEC]
00005FA2  3B40 D514                move.w     [A5 - 0x2AEC], D0
00005FA6  3007                     move.w     D0, D7
00005FA8  D06D D512                add.w      D0, [A5 - 0x2AEE]
00005FAC  3B40 D512                move.w     [A5 - 0x2AEE], D0
00005FB0  302D D518                move.w     D0, [A5 - 0x2AE8]
00005FB4  9046                     sub.w      D0, D6
00005FB6  D047                     add.w      D0, D7
00005FB8  3B40 D518                move.w     [A5 - 0x2AE8], D0
00005FBC  302D D516                move.w     D0, [A5 - 0x2AEA]
00005FC0  9046                     sub.w      D0, D6
00005FC2  D047                     add.w      D0, D7
00005FC4  3B40 D516                move.w     [A5 - 0x2AEA], D0
00005FC8  102D EFD9                move.b     D0, [A5 - 0x1027]
00005FCC  C02D EF23                and.b      D0, [A5 - 0x10DD]
00005FD0  6740                     beq        +0x42 /* 00006012 */
00005FD2  4267                     clr.w      -[A7]
00005FD4  302D D514                move.w     D0, [A5 - 0x2AEC]
00005FD8  5E40                     addq.w     D0, 7
00005FDA  3F00                     move.w     -[A7], D0
00005FDC  4EAD 1B22                jsr        [A5 + 0x1B22 /* export_864, CODE:16 @ 00001E04 */]
00005FE0  3B5F D514                move.w     [A5 - 0x2AEC], [A7]+
00005FE4  4267                     clr.w      -[A7]
00005FE6  302D D512                move.w     D0, [A5 - 0x2AEE]
00005FEA  5E40                     addq.w     D0, 7
00005FEC  3F00                     move.w     -[A7], D0
00005FEE  4EAD 1B22                jsr        [A5 + 0x1B22 /* export_864, CODE:16 @ 00001E04 */]
00005FF2  3B5F D512                move.w     [A5 - 0x2AEE], [A7]+
00005FF6  4267                     clr.w      -[A7]
00005FF8  3F2D D518                move.w     -[A7], [A5 - 0x2AE8]
00005FFC  4EAD 1B22                jsr        [A5 + 0x1B22 /* export_864, CODE:16 @ 00001E04 */]
00006000  3B5F D518                move.w     [A5 - 0x2AE8], [A7]+
00006004  4267                     clr.w      -[A7]
00006006  3F2D D516                move.w     -[A7], [A5 - 0x2AEA]
0000600A  4EAD 1B22                jsr        [A5 + 0x1B22 /* export_864, CODE:16 @ 00001E04 */]
0000600E  3B5F D516                move.w     [A5 - 0x2AEA], [A7]+
label00006012:
00006012  4CDF 00C0                movem.l    D6,D7, [A7]+
00006016  4E5E                     unlink     A6
00006018  205F                     movea.l    A0, [A7]+
0000601A  544F                     addq.w     A7, 2
0000601C  4ED0                     jmp        [A0]
fn0000601E:
0000601E  4E56 FFEA                link       A6, -0x0016
00006022  206E 0008                movea.l    A0, [A6 + 0x8]
00006026  43EE FFF8                lea.l      A1, [A6 - 0x8]
0000602A  22D8                     move.l     [A1]+, [A0]+
0000602C  22D8                     move.l     [A1]+, [A0]+
0000602E  41EE FFEC                lea.l      A0, [A6 - 0x14]
00006032  43ED ED82                lea.l      A1, [A5 - 0x127E]
00006036  20D9                     move.l     [A0]+, [A1]+
00006038  20D9                     move.l     [A0]+, [A1]+
0000603A  102D E225                move.b     D0, [A5 - 0x1DDB]
0000603E  670C                     beq        +0xE /* 0000604C */
00006040  41EE FFEC                lea.l      A0, [A6 - 0x14]
00006044  43ED D678                lea.l      A1, [A5 - 0x2988]
00006048  20D9                     move.l     [A0]+, [A1]+
0000604A  20D9                     move.l     [A0]+, [A1]+
label0000604C:
0000604C  4267                     clr.w      -[A7]
0000604E  486E FFF8                pea.l      [A6 - 0x8]
00006052  486E FFEC                pea.l      [A6 - 0x14]
00006056  486D D500                pea.l      [A5 - 0x2B00]
0000605A  A8AA                     syscall    SectRect
0000605C  1D5F FFEB                move.b     [A6 - 0x15], [A7]+
00006060  302D D506                move.w     D0, [A5 - 0x2AFA]
00006064  D06D D502                add.w      D0, [A5 - 0x2AFE]
00006068  48C0                     ext.l      D0
0000606A  81FC 0002                divs.w     D0, 0x2
0000606E  3D40 FFF6                move.w     [A6 - 0xA], D0
00006072  302D D504                move.w     D0, [A5 - 0x2AFC]
00006076  D06D D500                add.w      D0, [A5 - 0x2B00]
0000607A  48C0                     ext.l      D0
0000607C  81FC 0002                divs.w     D0, 0x2
00006080  3D40 FFF4                move.w     [A6 - 0xC], D0
00006084  2B6E FFF4 D4FC           move.l     [A5 - 0x2B04], [A6 - 0xC]
0000608A  102D E225                move.b     D0, [A5 - 0x1DDB]
0000608E  6606                     bne        +0x8 /* 00006096 */
00006090  2B6E FFF4 D688           move.l     [A5 - 0x2978], [A6 - 0xC]
label00006096:
00006096  4E5E                     unlink     A6
00006098  2E9F                     move.l     [A7], [A7]+
0000609A  4E75                     rts
fn0000609C:
0000609C  4E56 FFCC                link       A6, -0x0034
000060A0  4A6D FD8A                tst.w      [A5 - 0x276]
000060A4  5DC0                     slt        D0
000060A6  122D EFDF                move.b     D1, [A5 - 0x1021]
000060AA  C22D E2E4                and.b      D1, [A5 - 0x1D1C]
000060AE  8001                     or.b       D0, D1
000060B0  122D EFDF                move.b     D1, [A5 - 0x1021]
000060B4  0A01 0001                xori.b     D1, 0x1
000060B8  C22D E2E5                and.b      D1, [A5 - 0x1D1B]
000060BC  8001                     or.b       D0, D1
000060BE  0240 0001                andi.w     D0, 0x1
000060C2  6704                     beq        +0x6 /* 000060C8 */
000060C4  6000 0184                bra        +0x186 /* 0000624A */
label000060C8:
000060C8  486E FFCC                pea.l      [A6 - 0x34]
000060CC  A874                     syscall    GetPort
000060CE  486D EE38                pea.l      [A5 - 0x11C8]
000060D2  A873                     syscall    SetPort
000060D4  3F3C 00F8                move.w     -[A7], 0xF8
000060D8  3F2D E2C8                move.w     -[A7], [A5 - 0x1D38]
000060DC  486E FFD0                pea.l      [A6 - 0x30]
000060E0  4EAD 1C2A                jsr        [A5 + 0x1C2A /* export_897, CODE:17 @ 00000A16 */]
000060E4  102D D509                move.b     D0, [A5 - 0x2AF7]
000060E8  6764                     beq        +0x66 /* 0000614E */
000060EA  102D E225                move.b     D0, [A5 - 0x1DDB]
000060EE  673A                     beq        +0x3C /* 0000612A */
000060F0  A89E                     syscall    PenNormal
000060F2  41ED EE72                lea.l      A0, [A5 - 0x118E]
000060F6  43EE FFD0                lea.l      A1, [A6 - 0x30]
000060FA  20D9                     move.l     [A0]+, [A1]+
000060FC  20D9                     move.l     [A0]+, [A1]+
000060FE  41EE FFF2                lea.l      A0, [A6 - 0xE]
00006102  43ED EE3A                lea.l      A1, [A5 - 0x11C6]
00006106  20D9                     move.l     [A0]+, [A1]+
00006108  20D9                     move.l     [A0]+, [A1]+
0000610A  20D9                     move.l     [A0]+, [A1]+
0000610C  3091                     move.w     [A0], [A1]
0000610E  486D D672                pea.l      [A5 - 0x298E]
00006112  A875                     syscall    SetPBits/SetPortBits
00006114  486D D500                pea.l      [A5 - 0x2B00]
00006118  A8A1                     syscall    FrameRect
0000611A  486D D500                pea.l      [A5 - 0x2B00]
0000611E  4EBA 012E                jsr        [PC + 0x12E /* 0000624E */]
00006122  486E FFF2                pea.l      [A6 - 0xE]
00006126  A875                     syscall    SetPBits/SetPortBits
00006128  601E                     bra        +0x20 /* 00006148 */
label0000612A:
0000612A  2F2D EDC8                move.l     -[A7], [A5 - 0x1238]
0000612E  A873                     syscall    SetPort
00006130  A89E                     syscall    PenNormal
00006132  206D EDC8                movea.l    A0, [A5 - 0x1238]
00006136  41E8 003A                lea.l      A0, [A0 + 0x3A]
0000613A  43EE FFD0                lea.l      A1, [A6 - 0x30]
0000613E  20D9                     move.l     [A0]+, [A1]+
00006140  20D9                     move.l     [A0]+, [A1]+
00006142  486D D500                pea.l      [A5 - 0x2B00]
00006146  A8A1                     syscall    FrameRect
label00006148:
00006148  A89E                     syscall    PenNormal
0000614A  6000 00FE                bra        +0x100 /* 0000624A */
label0000614E:
0000614E  102D D50F                move.b     D0, [A5 - 0x2AF1]
00006152  6626                     bne        +0x28 /* 0000617A */
00006154  2F2D D6B4                move.l     -[A7], [A5 - 0x294C]
00006158  2F2D ECE4                move.l     -[A7], [A5 - 0x131C]
0000615C  486D D500                pea.l      [A5 - 0x2B00]
00006160  3F3C 0063                move.w     -[A7], 0x63 /* 'c' */
00006164  4EAD 1582                jsr        [A5 + 0x1582 /* export_684, CODE:15 @ 000005C0 */]
00006168  486D D500                pea.l      [A5 - 0x2B00]
0000616C  486D E2F2                pea.l      [A5 - 0x1D0E]
00006170  4EAD 1CEA                jsr        [A5 + 0x1CEA /* export_921, CODE:17 @ 00001DBA */]
00006174  1B7C 0001 D50F           move.b     [A5 - 0x2AF1], 0x1
label0000617A:
0000617A  102D E225                move.b     D0, [A5 - 0x1DDB]
0000617E  6750                     beq        +0x52 /* 000061D0 */
00006180  486D D672                pea.l      [A5 - 0x298E]
00006184  A875                     syscall    SetPBits/SetPortBits
00006186  A89E                     syscall    PenNormal
00006188  41ED EE72                lea.l      A0, [A5 - 0x118E]
0000618C  43EE FFD0                lea.l      A1, [A6 - 0x30]
00006190  20D9                     move.l     [A0]+, [A1]+
00006192  20D9                     move.l     [A0]+, [A1]+
00006194  3F3C 000E                move.w     -[A7], 0xE
00006198  A89C                     syscall    PenMode
0000619A  486D D500                pea.l      [A5 - 0x2B00]
0000619E  A8A2                     syscall    PaintRect
000061A0  486D ED44                pea.l      [A5 - 0x12BC]
000061A4  486D D672                pea.l      [A5 - 0x298E]
000061A8  486D D500                pea.l      [A5 - 0x2B00]
000061AC  486D D500                pea.l      [A5 - 0x2B00]
000061B0  3F3C 0001                move.w     -[A7], 0x1
000061B4  42A7                     clr.l      -[A7]
000061B6  A8EC                     syscall    CopyBits
000061B8  486D D500                pea.l      [A5 - 0x2B00]
000061BC  A8A2                     syscall    PaintRect
000061BE  486D D500                pea.l      [A5 - 0x2B00]
000061C2  4EBA 008A                jsr        [PC + 0x8A /* 0000624E */]
000061C6  A89E                     syscall    PenNormal
000061C8  486D ED44                pea.l      [A5 - 0x12BC]
000061CC  A875                     syscall    SetPBits/SetPortBits
000061CE  6074                     bra        +0x76 /* 00006244 */
label000061D0:
000061D0  102D E0DE                move.b     D0, [A5 - 0x1F22]
000061D4  6742                     beq        +0x44 /* 00006218 */
000061D6  2F2D ECCC                move.l     -[A7], [A5 - 0x1334]
000061DA  42A7                     clr.l      -[A7]
000061DC  2F3C F8F8 F8F8           move.l     -[A7], 0xF8F8F8F8
000061E2  3F2D E2C8                move.w     -[A7], [A5 - 0x1D38]
000061E6  4EAD 151A                jsr        [A5 + 0x151A /* export_671, CODE:14 @ 00000A34 */]
000061EA  486D D500                pea.l      [A5 - 0x2B00]
000061EE  4EAD 1722                jsr        [A5 + 0x1722 /* export_736, CODE:15 @ 00004B16 */]
000061F2  2F2D EDC8                move.l     -[A7], [A5 - 0x1238]
000061F6  A873                     syscall    SetPort
000061F8  486D ECF0                pea.l      [A5 - 0x1310]
000061FC  486D ED44                pea.l      [A5 - 0x12BC]
00006200  206D EDC8                movea.l    A0, [A5 - 0x1238]
00006204  4868 0002                pea.l      [A0 + 0x2]
00006208  486D D500                pea.l      [A5 - 0x2B00]
0000620C  486D D500                pea.l      [A5 - 0x2B00]
00006210  486D D500                pea.l      [A5 - 0x2B00]
00006214  A817                     syscall    CopyMask
00006216  602C                     bra        +0x2E /* 00006244 */
label00006218:
00006218  486D D500                pea.l      [A5 - 0x2B00]
0000621C  206D EDC8                movea.l    A0, [A5 - 0x1238]
00006220  2F28 0008                move.l     -[A7], [A0 + 0x8]
00006224  A855                     syscall    ShieldCursor
00006226  2F2D ECE4                move.l     -[A7], [A5 - 0x131C]
0000622A  2F2D ED76                move.l     -[A7], [A5 - 0x128A]
0000622E  486D D500                pea.l      [A5 - 0x2B00]
00006232  3F2D E2C8                move.w     -[A7], [A5 - 0x1D38]
00006236  206D EDC8                movea.l    A0, [A5 - 0x1238]
0000623A  2F28 0018                move.l     -[A7], [A0 + 0x18]
0000623E  4EAD 14AA                jsr        [A5 + 0x14AA /* export_657, CODE:14 @ 00000000 */]
00006242  A853                     syscall    ShowCursor
label00006244:
00006244  2F2E FFCC                move.l     -[A7], [A6 - 0x34]
00006248  A873                     syscall    SetPort
label0000624A:
0000624A  4E5E                     unlink     A6
0000624C  4E75                     rts
fn0000624E:
0000624E  4E56 FFE4                link       A6, -0x001C
00006252  2F0C                     move.l     -[A7], A4
00006254  206E 0008                movea.l    A0, [A6 + 0x8]
00006258  43EE FFF8                lea.l      A1, [A6 - 0x8]
0000625C  22D8                     move.l     [A1]+, [A0]+
0000625E  22D8                     move.l     [A1]+, [A0]+
00006260  4A6D FD8A                tst.w      [A5 - 0x276]
00006264  6C04                     bge        +0x6 /* 0000626A */
00006266  6000 00F4                bra        +0xF6 /* 0000635C */
label0000626A:
0000626A  4267                     clr.w      -[A7]
0000626C  486E FFF8                pea.l      [A6 - 0x8]
00006270  486D D678                pea.l      [A5 - 0x2988]
00006274  486E FFF8                pea.l      [A6 - 0x8]
00006278  A8AA                     syscall    SectRect
0000627A  101F                     move.b     D0, [A7]+
0000627C  6604                     bne        +0x6 /* 00006282 */
0000627E  6000 00DC                bra        +0xDE /* 0000635C */
label00006282:
00006282  486E FFF4                pea.l      [A6 - 0xC]
00006286  A874                     syscall    GetPort
00006288  41EE FFEC                lea.l      A0, [A6 - 0x14]
0000628C  43ED ED82                lea.l      A1, [A5 - 0x127E]
00006290  20D9                     move.l     [A0]+, [A1]+
00006292  20D9                     move.l     [A0]+, [A1]+
00006294  302E FFF8                move.w     D0, [A6 - 0x8]
00006298  906D D678                sub.w      D0, [A5 - 0x2988]
0000629C  E740                     asl        D0.w, 3
0000629E  3D40 FFEC                move.w     [A6 - 0x14], D0
000062A2  302E FFFC                move.w     D0, [A6 - 0x4]
000062A6  906D D678                sub.w      D0, [A5 - 0x2988]
000062AA  E740                     asl        D0.w, 3
000062AC  3D40 FFF0                move.w     [A6 - 0x10], D0
000062B0  0C6E 0156 FFF0           cmpi.w     [A6 - 0x10], 0x156
000062B6  6F06                     ble        +0x8 /* 000062BE */
000062B8  3D7C 0156 FFF0           move.w     [A6 - 0x10], 0x156
label000062BE:
000062BE  41ED D51A                lea.l      A0, [A5 - 0x2AE6]
000062C2  302E FFEC                move.w     D0, [A6 - 0x14]
000062C6  48C0                     ext.l      D0
000062C8  2840                     movea.l    A4, D0
000062CA  D9C8                     add.l      A4, A0
000062CC  102D E0DE                move.b     D0, [A5 - 0x1F22]
000062D0  6730                     beq        +0x32 /* 00006302 */
000062D2  2F0C                     move.l     -[A7], A4
000062D4  2F2D ECCC                move.l     -[A7], [A5 - 0x1334]
000062D8  486E FFEC                pea.l      [A6 - 0x14]
000062DC  4EAD 14D2                jsr        [A5 + 0x14D2 /* export_662, CODE:14 @ 00000260 */]
000062E0  2F2D EDC8                move.l     -[A7], [A5 - 0x1238]
000062E4  A873                     syscall    SetPort
000062E6  486D ECF0                pea.l      [A5 - 0x1310]
000062EA  206D EDC8                movea.l    A0, [A5 - 0x1238]
000062EE  4868 0002                pea.l      [A0 + 0x2]
000062F2  486E FFEC                pea.l      [A6 - 0x14]
000062F6  486E FFEC                pea.l      [A6 - 0x14]
000062FA  4267                     clr.w      -[A7]
000062FC  42A7                     clr.l      -[A7]
000062FE  A8EC                     syscall    CopyBits
00006300  6026                     bra        +0x28 /* 00006328 */
label00006302:
00006302  486E FFEC                pea.l      [A6 - 0x14]
00006306  206D EDC8                movea.l    A0, [A5 - 0x1238]
0000630A  2F28 0008                move.l     -[A7], [A0 + 0x8]
0000630E  A855                     syscall    ShieldCursor
00006310  2F0C                     move.l     -[A7], A4
00006312  2F2D ED76                move.l     -[A7], [A5 - 0x128A]
00006316  486E FFEC                pea.l      [A6 - 0x14]
0000631A  206D EDC8                movea.l    A0, [A5 - 0x1238]
0000631E  2F28 0018                move.l     -[A7], [A0 + 0x18]
00006322  4EAD 14DA                jsr        [A5 + 0x14DA /* export_663, CODE:14 @ 00000352 */]
00006326  A853                     syscall    ShowCursor
label00006328:
00006328  206D ED9E                movea.l    A0, [A5 - 0x1262]
0000632C  1028 006E                move.b     D0, [A0 + 0x6E]
00006330  6724                     beq        +0x26 /* 00006356 */
00006332  2F2D EDBC                move.l     -[A7], [A5 - 0x1244]
00006336  A873                     syscall    SetPort
00006338  486D D672                pea.l      [A5 - 0x298E]
0000633C  206D EDBC                movea.l    A0, [A5 - 0x1244]
00006340  4868 0002                pea.l      [A0 + 0x2]
00006344  486D D678                pea.l      [A5 - 0x2988]
00006348  206D EDBC                movea.l    A0, [A5 - 0x1244]
0000634C  4868 0010                pea.l      [A0 + 0x10]
00006350  4267                     clr.w      -[A7]
00006352  42A7                     clr.l      -[A7]
00006354  A8EC                     syscall    CopyBits
label00006356:
00006356  2F2E FFF4                move.l     -[A7], [A6 - 0xC]
0000635A  A873                     syscall    SetPort
label0000635C:
0000635C  285F                     movea.l    A4, [A7]+
0000635E  4E5E                     unlink     A6
00006360  2E9F                     move.l     [A7], [A7]+
00006362  4E75                     rts
fn00006364:
00006364  4E56 0000                link       A6, 0
00006368  4267                     clr.w      -[A7]
0000636A  4EBA 9D7E                jsr        [PC - 0x6282 /* 000000EA */]
0000636E  101F                     move.b     D0, [A7]+
00006370  672C                     beq        +0x2E /* 0000639E */
00006372  2F2D D6C4                move.l     -[A7], [A5 - 0x293C]
00006376  2F2D D6C0                move.l     -[A7], [A5 - 0x2940]
0000637A  2F2D D6B4                move.l     -[A7], [A5 - 0x294C]
0000637E  486D D500                pea.l      [A5 - 0x2B00]
00006382  1F2E 0008                move.b     -[A7], [A6 + 0x8]
00006386  4EAD 1522                jsr        [A5 + 0x1522 /* export_672, CODE:14 @ 00000A40 */]
0000638A  486D D500                pea.l      [A5 - 0x2B00]
0000638E  486D D68E                pea.l      [A5 - 0x2972]
00006392  4EAD 1CEA                jsr        [A5 + 0x1CEA /* export_921, CODE:17 @ 00001DBA */]
00006396  4EBA C5B0                jsr        [PC - 0x3A50 /* 00002948 */]
0000639A  4EBA C6EC                jsr        [PC - 0x3914 /* 00002A88 */]
label0000639E:
0000639E  4E5E                     unlink     A6
000063A0  205F                     movea.l    A0, [A7]+
000063A2  544F                     addq.w     A7, 2
000063A4  4ED0                     jmp        [A0]
fn000063A6:
000063A6  4E56 FFEC                link       A6, -0x0014
000063AA  206E 000E                movea.l    A0, [A6 + 0xE]
000063AE  43EE FFF8                lea.l      A1, [A6 - 0x8]
000063B2  22D8                     move.l     [A1]+, [A0]+
000063B4  22D8                     move.l     [A1]+, [A0]+
000063B6  206E 000A                movea.l    A0, [A6 + 0xA]
000063BA  43EE FFF0                lea.l      A1, [A6 - 0x10]
000063BE  22D8                     move.l     [A1]+, [A0]+
000063C0  22D8                     move.l     [A1]+, [A0]+
000063C2  302E FFFA                move.w     D0, [A6 - 0x6]
000063C6  906E FFF2                sub.w      D0, [A6 - 0xE]
000063CA  3D40 FFEC                move.w     [A6 - 0x14], D0
000063CE  302E FFF8                move.w     D0, [A6 - 0x8]
000063D2  906E FFF0                sub.w      D0, [A6 - 0x10]
000063D6  3D40 FFEE                move.w     [A6 - 0x12], D0
000063DA  4267                     clr.w      -[A7]
000063DC  486E FFF0                pea.l      [A6 - 0x10]
000063E0  486D ED82                pea.l      [A5 - 0x127E]
000063E4  486E FFF0                pea.l      [A6 - 0x10]
000063E8  A8AA                     syscall    SectRect
000063EA  101F                     move.b     D0, [A7]+
000063EC  6746                     beq        +0x48 /* 00006434 */
000063EE  41EE FFF8                lea.l      A0, [A6 - 0x8]
000063F2  43EE FFF0                lea.l      A1, [A6 - 0x10]
000063F6  20D9                     move.l     [A0]+, [A1]+
000063F8  20D9                     move.l     [A0]+, [A1]+
000063FA  486E FFF8                pea.l      [A6 - 0x8]
000063FE  3F2E FFEC                move.w     -[A7], [A6 - 0x14]
00006402  3F2E FFEE                move.w     -[A7], [A6 - 0x12]
00006406  A8A8                     syscall    OffsetRect
00006408  2F2D D6C4                move.l     -[A7], [A5 - 0x293C]
0000640C  2F2D D6C0                move.l     -[A7], [A5 - 0x2940]
00006410  2F2D ECD4                move.l     -[A7], [A5 - 0x132C]
00006414  2F2D ECD0                move.l     -[A7], [A5 - 0x1330]
00006418  486E FFF8                pea.l      [A6 - 0x8]
0000641C  486E FFF0                pea.l      [A6 - 0x10]
00006420  3F2E 0008                move.w     -[A7], [A6 + 0x8]
00006424  4EAD 152A                jsr        [A5 + 0x152A /* export_673, CODE:14 @ 00000AF8 */]
00006428  486E FFF0                pea.l      [A6 - 0x10]
0000642C  486D E2DA                pea.l      [A5 - 0x1D26]
00006430  4EAD 1CEA                jsr        [A5 + 0x1CEA /* export_921, CODE:17 @ 00001DBA */]
label00006434:
00006434  4E5E                     unlink     A6
00006436  205F                     movea.l    A0, [A7]+
00006438  DEFC 000A                add.w      A7, 0xA /* '\n' */
0000643C  4ED0                     jmp        [A0]
fn0000643E:
0000643E  4E56 FFF0                link       A6, -0x0010
00006442  48E7 0300                movem.l    -[A7], D6,D7
00006446  2D6E 0008 FFFC           move.l     [A6 - 0x4], [A6 + 0x8]
0000644C  2F2D EDC8                move.l     -[A7], [A5 - 0x1238]
00006450  A873                     syscall    SetPort
00006452  486E FFFC                pea.l      [A6 - 0x4]
00006456  A871                     syscall    GlobalToLocal
00006458  102D E225                move.b     D0, [A5 - 0x1DDB]
0000645C  672A                     beq        +0x2C /* 00006488 */
0000645E  7008                     moveq.l    D0, 0x08
00006460  B06D EFDC                cmp.w      D0, [A5 - 0x1024]
00006464  6714                     beq        +0x16 /* 0000647A */
00006466  302E FFFE                move.w     D0, [A6 - 0x2]
0000646A  5940                     subq.w     D0, 4
0000646C  3D40 FFFE                move.w     [A6 - 0x2], D0
00006470  302E FFFC                move.w     D0, [A6 - 0x4]
00006474  5940                     subq.w     D0, 4
00006476  3D40 FFFC                move.w     [A6 - 0x4], D0
label0000647A:
0000647A  486E FFFC                pea.l      [A6 - 0x4]
0000647E  486D ED82                pea.l      [A5 - 0x127E]
00006482  486D D678                pea.l      [A5 - 0x2988]
00006486  A8F9                     syscall    MapPt
label00006488:
00006488  4267                     clr.w      -[A7]
0000648A  2F2E FFFC                move.l     -[A7], [A6 - 0x4]
0000648E  486D D500                pea.l      [A5 - 0x2B00]
00006492  A8AD                     syscall    PtInRect
00006494  101F                     move.b     D0, [A7]+
00006496  C02D D509                and.b      D0, [A5 - 0x2AF7]
0000649A  1B40 D510                move.b     [A5 - 0x2AF0], D0
0000649E  102D D50D                move.b     D0, [A5 - 0x2AF3]
000064A2  6740                     beq        +0x42 /* 000064E4 */
000064A4  1B7C 0001 D510           move.b     [A5 - 0x2AF0], 0x1
000064AA  7EFE                     moveq.l    D7, 0xFFFFFFFE
000064AC  602C                     bra        +0x2E /* 000064DA */
label000064AE:
000064AE  7CFE                     moveq.l    D6, 0xFFFFFFFE
000064B0  6020                     bra        +0x22 /* 000064D2 */
label000064B2:
000064B2  4267                     clr.w      -[A7]
000064B4  3007                     move.w     D0, D7
000064B6  D06E FFFE                add.w      D0, [A6 - 0x2]
000064BA  3F00                     move.w     -[A7], D0
000064BC  3006                     move.w     D0, D6
000064BE  D06E FFFC                add.w      D0, [A6 - 0x4]
000064C2  3F00                     move.w     -[A7], D0
000064C4  486D D6D6                pea.l      [A5 - 0x292A]
000064C8  4EAD 1502                jsr        [A5 + 0x1502 /* export_668, CODE:14 @ 0000079E */]
000064CC  101F                     move.b     D0, [A7]+
000064CE  6614                     bne        +0x16 /* 000064E4 */
000064D0  5246                     addq.w     D6, 1
label000064D2:
000064D2  7002                     moveq.l    D0, 0x02
000064D4  B046                     cmp.w      D0, D6
000064D6  6CDA                     bge        -0x24 /* 000064B2 */
000064D8  5247                     addq.w     D7, 1
label000064DA:
000064DA  7002                     moveq.l    D0, 0x02
000064DC  B047                     cmp.w      D0, D7
000064DE  6CCE                     bge        -0x30 /* 000064AE */
000064E0  422D D510                clr.b      [A5 - 0x2AF0]
label000064E4:
000064E4  102D EFEA                move.b     D0, [A5 - 0x1016]
000064E8  0A00 0001                xori.b     D0, 0x1
000064EC  C02D D510                and.b      D0, [A5 - 0x2AF0]
000064F0  6734                     beq        +0x36 /* 00006526 */
000064F2  41EE FFF0                lea.l      A0, [A6 - 0x10]
000064F6  43ED ED82                lea.l      A1, [A5 - 0x127E]
000064FA  20D9                     move.l     [A0]+, [A1]+
000064FC  20D9                     move.l     [A0]+, [A1]+
000064FE  102D E225                move.b     D0, [A5 - 0x1DDB]
00006502  670C                     beq        +0xE /* 00006510 */
00006504  41EE FFF0                lea.l      A0, [A6 - 0x10]
00006508  43ED D678                lea.l      A1, [A5 - 0x2988]
0000650C  20D9                     move.l     [A0]+, [A1]+
0000650E  20D9                     move.l     [A0]+, [A1]+
label00006510:
00006510  4267                     clr.w      -[A7]
00006512  486D D500                pea.l      [A5 - 0x2B00]
00006516  486E FFF0                pea.l      [A6 - 0x10]
0000651A  A8A6                     syscall    EqualRect
0000651C  101F                     move.b     D0, [A7]+
0000651E  0A00 0001                xori.b     D0, 0x1
00006522  1B40 D510                move.b     [A5 - 0x2AF0], D0
label00006526:
00006526  4CDF 00C0                movem.l    D6,D7, [A7]+
0000652A  4E5E                     unlink     A6
0000652C  2E9F                     move.l     [A7], [A7]+
0000652E  4E75                     rts
fn00006530:
00006530  4E56 FFF0                link       A6, -0x0010
00006534  48E7 0318                movem.l    -[A7], D6,D7,A3,A4
00006538  102D D50A                move.b     D0, [A5 - 0x2AF6]
0000653C  6704                     beq        +0x6 /* 00006542 */
0000653E  4EBA 9AC0                jsr        [PC - 0x6540 /* 00000000 */]
label00006542:
00006542  422D D50C                clr.b      [A5 - 0x2AF4]
00006546  1B7C 0001 E2E3           move.b     [A5 - 0x1D1D], 0x1
0000654C  1B7C 0001 E303           move.b     [A5 - 0x1CFD], 0x1
00006552  7003                     moveq.l    D0, 0x03
00006554  B06D F00C                cmp.w      D0, [A5 - 0xFF4]
00006558  660A                     bne        +0xC /* 00006564 */
0000655A  4267                     clr.w      -[A7]
0000655C  4EBA EEFE                jsr        [PC - 0x1102 /* 0000545C */]
00006560  6000 011A                bra        +0x11C /* 0000667C */
label00006564:
00006564  4A6D D4D6                tst.w      [A5 - 0x2B2A]
00006568  6620                     bne        +0x22 /* 0000658A */
0000656A  42A7                     clr.l      -[A7]
0000656C  7066                     moveq.l    D0, 0x66
0000656E  2F00                     move.l     -[A7], D0
00006570  4EAD 18DA                jsr        [A5 + 0x18DA /* export_791, CODE:16 @ 00000896 */]
00006574  265F                     movea.l    A3, [A7]+
00006576  200B                     move.l     D0, A3
00006578  6700 0102                beq        +0x104 /* 0000667C */
0000657C  2B4B D486                move.l     [A5 - 0x2B7A], A3
00006580  2053                     movea.l    A0, [A3]
00006582  4210                     clr.b      [A0]
00006584  3B7C 0001 D4D6           move.w     [A5 - 0x2B2A], 0x1
label0000658A:
0000658A  700D                     moveq.l    D0, 0x0D
0000658C  B06D F00C                cmp.w      D0, [A5 - 0xFF4]
00006590  6634                     bne        +0x36 /* 000065C6 */
00006592  7014                     moveq.l    D0, 0x14
00006594  B06D D4D6                cmp.w      D0, [A5 - 0x2B2A]
00006598  6700 00E2                beq        +0xE4 /* 0000667C */
0000659C  42A7                     clr.l      -[A7]
0000659E  7066                     moveq.l    D0, 0x66
000065A0  2F00                     move.l     -[A7], D0
000065A2  4EAD 18DA                jsr        [A5 + 0x18DA /* export_791, CODE:16 @ 00000896 */]
000065A6  265F                     movea.l    A3, [A7]+
000065A8  200B                     move.l     D0, A3
000065AA  6700 00D0                beq        +0xD2 /* 0000667C */
000065AE  526D D4D6                addq.w     [A5 - 0x2B2A], 1
000065B2  302D D4D6                move.w     D0, [A5 - 0x2B2A]
000065B6  5340                     subq.w     D0, 1
000065B8  41ED D486                lea.l      A0, [A5 - 0x2B7A]
000065BC  E540                     asl        D0.w, 2
000065BE  218B 0000                move.l     [A0 + D0.w], A3
000065C2  2053                     movea.l    A0, [A3]
000065C4  4210                     clr.b      [A0]
label000065C6:
000065C6  7008                     moveq.l    D0, 0x08
000065C8  B06D F00C                cmp.w      D0, [A5 - 0xFF4]
000065CC  6672                     bne        +0x74 /* 00006640 */
000065CE  302D D4D6                move.w     D0, [A5 - 0x2B2A]
000065D2  5340                     subq.w     D0, 1
000065D4  41ED D486                lea.l      A0, [A5 - 0x2B7A]
000065D8  E540                     asl        D0.w, 2
000065DA  2870 0000                movea.l    A4, [A0 + D0.w]
000065DE  2054                     movea.l    A0, [A4]
000065E0  4247                     clr.w      D7
000065E2  1E10                     move.b     D7, [A0]
000065E4  4A47                     tst.w      D7
000065E6  6612                     bne        +0x14 /* 000065FA */
000065E8  4A6D D4D6                tst.w      [A5 - 0x2B2A]
000065EC  6F0A                     ble        +0xC /* 000065F8 */
000065EE  2F0C                     move.l     -[A7], A4
000065F0  4EAD 18D2                jsr        [A5 + 0x18D2 /* export_790, CODE:16 @ 0000083E */]
000065F4  536D D4D6                subq.w     [A5 - 0x2B2A], 1
label000065F8:
000065F8  6046                     bra        +0x48 /* 00006640 */
label000065FA:
000065FA  102D F2B3                move.b     D0, [A5 - 0xD4D]
000065FE  673A                     beq        +0x3C /* 0000663A */
00006600  486E FFF2                pea.l      [A6 - 0xE]
00006604  A874                     syscall    GetPort
00006606  486D EE38                pea.l      [A5 - 0x11C8]
0000660A  A873                     syscall    SetPort
0000660C  3F2D E1FE                move.w     -[A7], [A5 - 0x1E02]
00006610  A887                     syscall    TextFont
label00006612:
00006612  2054                     movea.l    A0, [A4]
00006614  4247                     clr.w      D7
00006616  1E10                     move.b     D7, [A0]
00006618  4267                     clr.w      -[A7]
0000661A  2F14                     move.l     -[A7], [A4]
0000661C  3F07                     move.w     -[A7], D7
0000661E  2F3C 8206 0010           move.l     -[A7], 0x82060010
00006624  A8B5                     syscall    ScriptUtil
00006626  3C1F                     move.w     D6, [A7]+
00006628  2F14                     move.l     -[A7], [A4]
0000662A  4EAD 19DA                jsr        [A5 + 0x19DA /* export_823, CODE:16 @ 0000122A */]
0000662E  4A46                     tst.w      D6
00006630  6EE0                     bgt        -0x1E /* 00006612 */
00006632  2F2E FFF2                move.l     -[A7], [A6 - 0xE]
00006636  A873                     syscall    SetPort
00006638  6006                     bra        +0x8 /* 00006640 */
label0000663A:
0000663A  2F14                     move.l     -[A7], [A4]
0000663C  4EAD 19DA                jsr        [A5 + 0x19DA /* export_823, CODE:16 @ 0000122A */]
label00006640:
00006640  7020                     moveq.l    D0, 0x20
00006642  B06D F00C                cmp.w      D0, [A5 - 0xFF4]
00006646  6E26                     bgt        +0x28 /* 0000666E */
00006648  302D D4D6                move.w     D0, [A5 - 0x2B2A]
0000664C  5340                     subq.w     D0, 1
0000664E  41ED D486                lea.l      A0, [A5 - 0x2B7A]
00006652  E540                     asl        D0.w, 2
00006654  2870 0000                movea.l    A4, [A0 + D0.w]
00006658  2054                     movea.l    A0, [A4]
0000665A  4247                     clr.w      D7
0000665C  1E10                     move.b     D7, [A0]
0000665E  7064                     moveq.l    D0, 0x64
00006660  B047                     cmp.w      D0, D7
00006662  6F0A                     ble        +0xC /* 0000666E */
00006664  3F2D F00C                move.w     -[A7], [A5 - 0xFF4]
00006668  2F14                     move.l     -[A7], [A4]
0000666A  4EAD 14B2                jsr        [A5 + 0x14B2 /* export_658, CODE:14 @ 000000F4 */]
label0000666E:
0000666E  4A6D FD8A                tst.w      [A5 - 0x276]
00006672  6D02                     blt        +0x4 /* 00006676 */
00006674  A856                     syscall    ObscureCursor
label00006676:
00006676  4267                     clr.w      -[A7]
00006678  4EBA 0848                jsr        [PC + 0x848 /* 00006EC2 */]
label0000667C:
0000667C  4CDF 18C0                movem.l    D6,D7,A3,A4, [A7]+
00006680  4E5E                     unlink     A6
00006682  4E75                     rts
fn00006684:
00006684  4E56 FFEA                link       A6, -0x0016
00006688  48E7 0108                movem.l    -[A7], D7,A4
0000668C  4EBA E726                jsr        [PC - 0x18DA /* 00004DB4 */]
00006690  422D D50C                clr.b      [A5 - 0x2AF4]
00006694  422D D4FA                clr.b      [A5 - 0x2B06]
00006698  1B7C 0001 D68D           move.b     [A5 - 0x2973], 0x1
0000669E  102D F004                move.b     D0, [A5 - 0xFFC]
000066A2  6700 00F8                beq        +0xFA /* 0000679C */
000066A6  4EAD 193A                jsr        [A5 + 0x193A /* export_803, CODE:16 @ 00000C72 */]
000066AA  486E FFF4                pea.l      [A6 - 0xC]
000066AE  4EBA C96C                jsr        [PC - 0x3694 /* 0000301C */]
000066B2  4267                     clr.w      -[A7]
000066B4  2F2E FFF4                move.l     -[A7], [A6 - 0xC]
000066B8  486D ED82                pea.l      [A5 - 0x127E]
000066BC  A8AD                     syscall    PtInRect
000066BE  101F                     move.b     D0, [A7]+
000066C0  6604                     bne        +0x6 /* 000066C6 */
000066C2  6000 01D0                bra        +0x1D2 /* 00006894 */
label000066C6:
000066C6  4267                     clr.w      -[A7]
000066C8  2F2E FFF4                move.l     -[A7], [A6 - 0xC]
000066CC  486D ECFE                pea.l      [A5 - 0x1302]
000066D0  4EAD 1502                jsr        [A5 + 0x1502 /* export_668, CODE:14 @ 0000079E */]
000066D4  1E1F                     move.b     D7, [A7]+
000066D6  1007                     move.b     D0, D7
000066D8  6708                     beq        +0xA /* 000066E2 */
000066DA  2F2D ECD0                move.l     -[A7], [A5 - 0x1330]
000066DE  4EAD 1C52                jsr        [A5 + 0x1C52 /* export_902, CODE:17 @ 000011DA */]
label000066E2:
000066E2  2F2D ECD0                move.l     -[A7], [A5 - 0x1330]
000066E6  2F2D D6B4                move.l     -[A7], [A5 - 0x294C]
000066EA  2F2E FFF4                move.l     -[A7], [A6 - 0xC]
000066EE  4EAD 14FA                jsr        [A5 + 0x14FA /* export_667, CODE:14 @ 0000063E */]
000066F2  1007                     move.b     D0, D7
000066F4  6708                     beq        +0xA /* 000066FE */
000066F6  2F2D ECD0                move.l     -[A7], [A5 - 0x1330]
000066FA  4EAD 1C52                jsr        [A5 + 0x1C52 /* export_902, CODE:17 @ 000011DA */]
label000066FE:
000066FE  2F2D ECD0                move.l     -[A7], [A5 - 0x1330]
00006702  2F2D D6B4                move.l     -[A7], [A5 - 0x294C]
00006706  486D ED82                pea.l      [A5 - 0x127E]
0000670A  3F3C 0001                move.w     -[A7], 0x1
0000670E  4EAD 1582                jsr        [A5 + 0x1582 /* export_684, CODE:15 @ 000005C0 */]
00006712  2F2D D6B4                move.l     -[A7], [A5 - 0x294C]
00006716  4EAD 1C52                jsr        [A5 + 0x1C52 /* export_902, CODE:17 @ 000011DA */]
0000671A  2F2D D6B4                move.l     -[A7], [A5 - 0x294C]
0000671E  2F2D ECE4                move.l     -[A7], [A5 - 0x131C]
00006722  2F2E FFF4                move.l     -[A7], [A6 - 0xC]
00006726  4EAD 14FA                jsr        [A5 + 0x14FA /* export_667, CODE:14 @ 0000063E */]
0000672A  41ED D500                lea.l      A0, [A5 - 0x2B00]
0000672E  43ED ED82                lea.l      A1, [A5 - 0x127E]
00006732  20D9                     move.l     [A0]+, [A1]+
00006734  20D9                     move.l     [A0]+, [A1]+
00006736  2F2D ECE4                move.l     -[A7], [A5 - 0x131C]
0000673A  486D D500                pea.l      [A5 - 0x2B00]
0000673E  4EAD 153A                jsr        [A5 + 0x153A /* export_675, CODE:14 @ 00000C62 */]
00006742  2F2D D6B4                move.l     -[A7], [A5 - 0x294C]
00006746  4EAD 1D12                jsr        [A5 + 0x1D12 /* export_926, CODE:17 @ 00002B38 */]
0000674A  2F2D ECE4                move.l     -[A7], [A5 - 0x131C]
0000674E  2F2D D6B4                move.l     -[A7], [A5 - 0x294C]
00006752  486D D500                pea.l      [A5 - 0x2B00]
00006756  3F3C 0061                move.w     -[A7], 0x61 /* 'a' */
0000675A  4EAD 1582                jsr        [A5 + 0x1582 /* export_684, CODE:15 @ 000005C0 */]
0000675E  2F2D D6B4                move.l     -[A7], [A5 - 0x294C]
00006762  486D D500                pea.l      [A5 - 0x2B00]
00006766  4EAD 153A                jsr        [A5 + 0x153A /* export_675, CODE:14 @ 00000C62 */]
0000676A  4267                     clr.w      -[A7]
0000676C  486D D500                pea.l      [A5 - 0x2B00]
00006770  A8AE                     syscall    EmptyRect
00006772  101F                     move.b     D0, [A7]+
00006774  661A                     bne        +0x1C /* 00006790 */
00006776  486D D500                pea.l      [A5 - 0x2B00]
0000677A  4EBA 9F86                jsr        [PC - 0x607A /* 00000702 */]
0000677E  486D D500                pea.l      [A5 - 0x2B00]
00006782  4EBA F89A                jsr        [PC - 0x766 /* 0000601E */]
00006786  4EBA EBD2                jsr        [PC - 0x142E /* 0000535A */]
0000678A  1B7C 0001 D50D           move.b     [A5 - 0x2AF3], 0x1
label00006790:
00006790  486D FD92                pea.l      [A5 - 0x26E]
00006794  4EAD 18E2                jsr        [A5 + 0x18E2 /* export_792, CODE:16 @ 000008AE */]
00006798  6000 00D4                bra        +0xD6 /* 0000686E */
label0000679C:
0000679C  42A7                     clr.l      -[A7]
0000679E  4EBA C954                jsr        [PC - 0x36AC /* 000030F4 */]
000067A2  285F                     movea.l    A4, [A7]+
000067A4  2054                     movea.l    A0, [A4]
000067A6  43ED D500                lea.l      A1, [A5 - 0x2B00]
000067AA  5488                     addq.l     A0, 2
000067AC  22D8                     move.l     [A1]+, [A0]+
000067AE  22D8                     move.l     [A1]+, [A0]+
000067B0  4267                     clr.w      -[A7]
000067B2  2F0C                     move.l     -[A7], A4
000067B4  A8E2                     syscall    EmptyRgn
000067B6  101F                     move.b     D0, [A7]+
000067B8  6710                     beq        +0x12 /* 000067CA */
000067BA  2F0C                     move.l     -[A7], A4
000067BC  A8D9                     syscall    DisposRgn/DisposeRgn
000067BE  3F2D D71C                move.w     -[A7], [A5 - 0x28E4]
000067C2  4EBA DB56                jsr        [PC - 0x24AA /* 0000431A */]
000067C6  6000 00CC                bra        +0xCE /* 00006894 */
label000067CA:
000067CA  4267                     clr.w      -[A7]
000067CC  4EAD 2142                jsr        [A5 + 0x2142 /* export_1060, CODE:20 @ 000023F6 */]
000067D0  101F                     move.b     D0, [A7]+
000067D2  6732                     beq        +0x34 /* 00006806 */
000067D4  2F2D D6B4                move.l     -[A7], [A5 - 0x294C]
000067D8  4EAD 1D12                jsr        [A5 + 0x1D12 /* export_926, CODE:17 @ 00002B38 */]
000067DC  486D D6D6                pea.l      [A5 - 0x292A]
000067E0  A875                     syscall    SetPBits/SetPortBits
000067E2  2F0C                     move.l     -[A7], A4
000067E4  486D FE98                pea.l      [A5 - 0x168]
000067E8  A8D6                     syscall    FillRgn
000067EA  486D ED44                pea.l      [A5 - 0x12BC]
000067EE  A875                     syscall    SetPBits/SetPortBits
000067F0  2054                     movea.l    A0, [A4]
000067F2  4868 0002                pea.l      [A0 + 0x2]
000067F6  4EBA F826                jsr        [PC - 0x7DA /* 0000601E */]
000067FA  4EBA EB5E                jsr        [PC - 0x14A2 /* 0000535A */]
000067FE  1B7C 0001 D50D           move.b     [A5 - 0x2AF3], 0x1
00006804  6064                     bra        +0x66 /* 0000686A */
label00006806:
00006806  2F2D ECE4                move.l     -[A7], [A5 - 0x131C]
0000680A  4EAD 1D12                jsr        [A5 + 0x1D12 /* export_926, CODE:17 @ 00002B38 */]
0000680E  486D ECFE                pea.l      [A5 - 0x1302]
00006812  486D ED44                pea.l      [A5 - 0x12BC]
00006816  486D D500                pea.l      [A5 - 0x2B00]
0000681A  486D D500                pea.l      [A5 - 0x2B00]
0000681E  4267                     clr.w      -[A7]
00006820  2F0C                     move.l     -[A7], A4
00006822  A8EC                     syscall    CopyBits
00006824  2F2D D6B4                move.l     -[A7], [A5 - 0x294C]
00006828  4EAD 1D12                jsr        [A5 + 0x1D12 /* export_926, CODE:17 @ 00002B38 */]
0000682C  2F2D ECE4                move.l     -[A7], [A5 - 0x131C]
00006830  2F2D D6B4                move.l     -[A7], [A5 - 0x294C]
00006834  486D D500                pea.l      [A5 - 0x2B00]
00006838  3F3C 0061                move.w     -[A7], 0x61 /* 'a' */
0000683C  4EAD 1582                jsr        [A5 + 0x1582 /* export_684, CODE:15 @ 000005C0 */]
00006840  2F2D D6B4                move.l     -[A7], [A5 - 0x294C]
00006844  486D D500                pea.l      [A5 - 0x2B00]
00006848  4EAD 153A                jsr        [A5 + 0x153A /* export_675, CODE:14 @ 00000C62 */]
0000684C  4267                     clr.w      -[A7]
0000684E  486D D500                pea.l      [A5 - 0x2B00]
00006852  A8AE                     syscall    EmptyRect
00006854  101F                     move.b     D0, [A7]+
00006856  6612                     bne        +0x14 /* 0000686A */
00006858  486D D500                pea.l      [A5 - 0x2B00]
0000685C  4EBA F7C0                jsr        [PC - 0x840 /* 0000601E */]
00006860  4EBA EAF8                jsr        [PC - 0x1508 /* 0000535A */]
00006864  1B7C 0001 D50D           move.b     [A5 - 0x2AF3], 0x1
label0000686A:
0000686A  2F0C                     move.l     -[A7], A4
0000686C  A8D9                     syscall    DisposRgn/DisposeRgn
label0000686E:
0000686E  3B7C 0005 D71C           move.w     [A5 - 0x28E4], 0x5
00006874  1B7C 0001 D50C           move.b     [A5 - 0x2AF4], 0x1
0000687A  4EBA 9D68                jsr        [PC - 0x6298 /* 000005E4 */]
0000687E  1B7C 0001 D50A           move.b     [A5 - 0x2AF6], 0x1
00006884  41ED E2F2                lea.l      A0, [A5 - 0x1D0E]
00006888  43ED ED82                lea.l      A1, [A5 - 0x127E]
0000688C  20D9                     move.l     [A0]+, [A1]+
0000688E  20D9                     move.l     [A0]+, [A1]+
00006890  4EBA A6F6                jsr        [PC - 0x590A /* 00000F88 */]
label00006894:
00006894  4CDF 1080                movem.l    D7,A4, [A7]+
00006898  4E5E                     unlink     A6
0000689A  4E75                     rts
fn0000689C:
0000689C  4E56 FFF6                link       A6, -0x000A
000068A0  0A2D 0001 E225           xori.b     [A5 - 0x1DDB], 0x1
000068A6  102D E225                move.b     D0, [A5 - 0x1DDB]
000068AA  6700 00A8                beq        +0xAA /* 00006954 */
000068AE  102D D509                move.b     D0, [A5 - 0x2AF7]
000068B2  802D D50D                or.b       D0, [A5 - 0x2AF3]
000068B6  6724                     beq        +0x26 /* 000068DC */
000068B8  302D D506                move.w     D0, [A5 - 0x2AFA]
000068BC  D06D D502                add.w      D0, [A5 - 0x2AFE]
000068C0  48C0                     ext.l      D0
000068C2  81FC 0002                divs.w     D0, 0x2
000068C6  3B40 D68A                move.w     [A5 - 0x2976], D0
000068CA  302D D504                move.w     D0, [A5 - 0x2AFC]
000068CE  D06D D500                add.w      D0, [A5 - 0x2B00]
000068D2  48C0                     ext.l      D0
000068D4  81FC 0002                divs.w     D0, 0x2
000068D8  3B40 D688                move.w     [A5 - 0x2978], D0
label000068DC:
000068DC  486D D688                pea.l      [A5 - 0x2978]
000068E0  486D D680                pea.l      [A5 - 0x2980]
000068E4  4EAD 1A92                jsr        [A5 + 0x1A92 /* export_846, CODE:16 @ 00001A06 */]
000068E8  302D D68A                move.w     D0, [A5 - 0x2976]
000068EC  907C 0020                sub.w      D0, 0x20 /* ' ' */
000068F0  3B40 D67A                move.w     [A5 - 0x2986], D0
000068F4  302D D688                move.w     D0, [A5 - 0x2978]
000068F8  907C 0015                sub.w      D0, 0x15
000068FC  3B40 D678                move.w     [A5 - 0x2988], D0
00006900  302D D67A                move.w     D0, [A5 - 0x2986]
00006904  D07C 0040                add.w      D0, 0x40 /* '@' */
00006908  3B40 D67E                move.w     [A5 - 0x2982], D0
0000690C  302D D678                move.w     D0, [A5 - 0x2988]
00006910  D07C 002B                add.w      D0, 0x2B /* '+' */
00006914  3B40 D67C                move.w     [A5 - 0x2984], D0
00006918  102D D509                move.b     D0, [A5 - 0x2AF7]
0000691C  802D D50D                or.b       D0, [A5 - 0x2AF3]
00006920  6730                     beq        +0x32 /* 00006952 */
00006922  4267                     clr.w      -[A7]
00006924  486D D500                pea.l      [A5 - 0x2B00]
00006928  486D D678                pea.l      [A5 - 0x2988]
0000692C  486E FFF6                pea.l      [A6 - 0xA]
00006930  A8AA                     syscall    SectRect
00006932  1D5F FFFF                move.b     [A6 - 0x1], [A7]+
00006936  4267                     clr.w      -[A7]
00006938  486D D500                pea.l      [A5 - 0x2B00]
0000693C  486E FFF6                pea.l      [A6 - 0xA]
00006940  A8A6                     syscall    EqualRect
00006942  101F                     move.b     D0, [A7]+
00006944  660C                     bne        +0xE /* 00006952 */
00006946  4EBA E46C                jsr        [PC - 0x1B94 /* 00004DB4 */]
0000694A  422D D4F6                clr.b      [A5 - 0x2B0A]
0000694E  422D D4FA                clr.b      [A5 - 0x2B06]
label00006952:
00006952  6006                     bra        +0x8 /* 0000695A */
label00006954:
00006954  2F2D EDBC                move.l     -[A7], [A5 - 0x1244]
00006958  A916                     syscall    HideWindow
label0000695A:
0000695A  41ED E2F2                lea.l      A0, [A5 - 0x1D0E]
0000695E  43ED ED82                lea.l      A1, [A5 - 0x127E]
00006962  20D9                     move.l     [A0]+, [A1]+
00006964  20D9                     move.l     [A0]+, [A1]+
00006966  4EBA A620                jsr        [PC - 0x59E0 /* 00000F88 */]
0000696A  102D E225                move.b     D0, [A5 - 0x1DDB]
0000696E  670C                     beq        +0xE /* 0000697C */
00006970  2F2D EDBC                move.l     -[A7], [A5 - 0x1244]
00006974  A920                     syscall    BringToFront
00006976  2F2D EDBC                move.l     -[A7], [A5 - 0x1244]
0000697A  A915                     syscall    ShowWindow
label0000697C:
0000697C  1B7C 0001 EFEE           move.b     [A5 - 0x1012], 0x1
00006982  4E5E                     unlink     A6
00006984  4E75                     rts
fn00006986:
00006986  4E56 0000                link       A6, 0
0000698A  0A2D 0001 EF23           xori.b     [A5 - 0x10DD], 0x1
00006990  1B7C 0001 FDD7           move.b     [A5 - 0x229], 0x1
00006996  1F3C 0001                move.b     -[A7], 0x1
0000699A  4EBA 0526                jsr        [PC + 0x526 /* 00006EC2 */]
0000699E  4E5E                     unlink     A6
000069A0  4E75                     rts
fn000069A2:
000069A2  4E56 FFE2                link       A6, -0x001E
000069A6  2F0C                     move.l     -[A7], A4
000069A8  206E 000C                movea.l    A0, [A6 + 0xC]
000069AC  43EE FFF2                lea.l      A1, [A6 - 0xE]
000069B0  22D8                     move.l     [A1]+, [A0]+
000069B2  22D8                     move.l     [A1]+, [A0]+
000069B4  22D8                     move.l     [A1]+, [A0]+
000069B6  3290                     move.w     [A1], [A0]
000069B8  286E 0008                movea.l    A4, [A6 + 0x8]
000069BC  41EE FFE2                lea.l      A0, [A6 - 0x1E]
000069C0  224C                     movea.l    A1, A4
000069C2  5189                     subq.l     A1, 8
000069C4  20D9                     move.l     [A0]+, [A1]+
000069C6  20D9                     move.l     [A0]+, [A1]+
000069C8  41EE FFEA                lea.l      A0, [A6 - 0x16]
000069CC  224C                     movea.l    A1, A4
000069CE  5189                     subq.l     A1, 8
000069D0  20D9                     move.l     [A0]+, [A1]+
000069D2  20D9                     move.l     [A0]+, [A1]+
000069D4  486E FFEA                pea.l      [A6 - 0x16]
000069D8  2F3C 0000 FFFF           move.l     -[A7], 0xFFFF
000069DE  A8A8                     syscall    OffsetRect
000069E0  486E FFF2                pea.l      [A6 - 0xE]
000069E4  486E FFF2                pea.l      [A6 - 0xE]
000069E8  486C FFF8                pea.l      [A4 - 0x8]
000069EC  486E FFEA                pea.l      [A6 - 0x16]
000069F0  3F3C 0001                move.w     -[A7], 0x1
000069F4  42A7                     clr.l      -[A7]
000069F6  A8EC                     syscall    CopyBits
000069F8  3D6E FFEC FFE4           move.w     [A6 - 0x1C], [A6 - 0x14]
000069FE  486E FFEA                pea.l      [A6 - 0x16]
00006A02  3F2C FFF6                move.w     -[A7], [A4 - 0xA]
00006A06  4267                     clr.w      -[A7]
00006A08  A8A8                     syscall    OffsetRect
00006A0A  486E FFF2                pea.l      [A6 - 0xE]
00006A0E  486E FFF2                pea.l      [A6 - 0xE]
00006A12  486C FFF8                pea.l      [A4 - 0x8]
00006A16  486E FFEA                pea.l      [A6 - 0x16]
00006A1A  3F3C 0001                move.w     -[A7], 0x1
00006A1E  42A7                     clr.l      -[A7]
00006A20  A8EC                     syscall    CopyBits
00006A22  3D6E FFF0 FFE8           move.w     [A6 - 0x18], [A6 - 0x10]
00006A28  41EE FFEA                lea.l      A0, [A6 - 0x16]
00006A2C  43EE FFE2                lea.l      A1, [A6 - 0x1E]
00006A30  20D9                     move.l     [A0]+, [A1]+
00006A32  20D9                     move.l     [A0]+, [A1]+
00006A34  486E FFEA                pea.l      [A6 - 0x16]
00006A38  2F3C FFFF 0000           move.l     -[A7], 0xFFFF0000
00006A3E  A8A8                     syscall    OffsetRect
00006A40  486E FFF2                pea.l      [A6 - 0xE]
00006A44  486E FFF2                pea.l      [A6 - 0xE]
00006A48  486E FFE2                pea.l      [A6 - 0x1E]
00006A4C  486E FFEA                pea.l      [A6 - 0x16]
00006A50  3F3C 0001                move.w     -[A7], 0x1
00006A54  42A7                     clr.l      -[A7]
00006A56  A8EC                     syscall    CopyBits
00006A58  486E FFEA                pea.l      [A6 - 0x16]
00006A5C  4267                     clr.w      -[A7]
00006A5E  3F2C FFF6                move.w     -[A7], [A4 - 0xA]
00006A62  A8A8                     syscall    OffsetRect
00006A64  486E FFF2                pea.l      [A6 - 0xE]
00006A68  486E FFF2                pea.l      [A6 - 0xE]
00006A6C  486E FFE2                pea.l      [A6 - 0x1E]
00006A70  486E FFEA                pea.l      [A6 - 0x16]
00006A74  3F3C 0001                move.w     -[A7], 0x1
00006A78  42A7                     clr.l      -[A7]
00006A7A  A8EC                     syscall    CopyBits
00006A7C  285F                     movea.l    A4, [A7]+
00006A7E  4E5E                     unlink     A6
00006A80  205F                     movea.l    A0, [A7]+
00006A82  504F                     addq.w     A7, 8
00006A84  4ED0                     jmp        [A0]
fn00006A86:
00006A86  4E56 FFF6                link       A6, -0x000A
00006A8A  4267                     clr.w      -[A7]
00006A8C  4EBA 965C                jsr        [PC - 0x69A4 /* 000000EA */]
00006A90  101F                     move.b     D0, [A7]+
00006A92  6700 00F2                beq        +0xF4 /* 00006B86 */
00006A96  3D7C 0002 FFF6           move.w     [A6 - 0xA], 0x2
00006A9C  4267                     clr.w      -[A7]
00006A9E  4EAD 221A                jsr        [A5 + 0x221A /* export_1087, CODE:20 @ 00004B46 */]
00006AA2  101F                     move.b     D0, [A7]+
00006AA4  6706                     beq        +0x8 /* 00006AAC */
00006AA6  3D7C 0003 FFF6           move.w     [A6 - 0xA], 0x3
label00006AAC:
00006AAC  302D D502                move.w     D0, [A5 - 0x2AFE]
00006AB0  5340                     subq.w     D0, 1
00006AB2  3B40 D502                move.w     [A5 - 0x2AFE], D0
00006AB6  302D D500                move.w     D0, [A5 - 0x2B00]
00006ABA  5340                     subq.w     D0, 1
00006ABC  3B40 D500                move.w     [A5 - 0x2B00], D0
00006AC0  302E FFF6                move.w     D0, [A6 - 0xA]
00006AC4  D06D D506                add.w      D0, [A5 - 0x2AFA]
00006AC8  5340                     subq.w     D0, 1
00006ACA  3B40 D506                move.w     [A5 - 0x2AFA], D0
00006ACE  302E FFF6                move.w     D0, [A6 - 0xA]
00006AD2  D06D D504                add.w      D0, [A5 - 0x2AFC]
00006AD6  5340                     subq.w     D0, 1
00006AD8  3B40 D504                move.w     [A5 - 0x2AFC], D0
00006ADC  486D D500                pea.l      [A5 - 0x2B00]
00006AE0  4EBA F53C                jsr        [PC - 0xAC4 /* 0000601E */]
00006AE4  41EE FFF8                lea.l      A0, [A6 - 0x8]
00006AE8  43ED D500                lea.l      A1, [A5 - 0x2B00]
00006AEC  20D9                     move.l     [A0]+, [A1]+
00006AEE  20D9                     move.l     [A0]+, [A1]+
00006AF0  302E FFFA                move.w     D0, [A6 - 0x6]
00006AF4  5240                     addq.w     D0, 1
00006AF6  3D40 FFFA                move.w     [A6 - 0x6], D0
00006AFA  302E FFF8                move.w     D0, [A6 - 0x8]
00006AFE  5240                     addq.w     D0, 1
00006B00  3D40 FFF8                move.w     [A6 - 0x8], D0
00006B04  302E FFFE                move.w     D0, [A6 - 0x2]
00006B08  906E FFF6                sub.w      D0, [A6 - 0xA]
00006B0C  5240                     addq.w     D0, 1
00006B0E  3D40 FFFE                move.w     [A6 - 0x2], D0
00006B12  302E FFFC                move.w     D0, [A6 - 0x4]
00006B16  906E FFF6                sub.w      D0, [A6 - 0xA]
00006B1A  5240                     addq.w     D0, 1
00006B1C  3D40 FFFC                move.w     [A6 - 0x4], D0
00006B20  486D D6D6                pea.l      [A5 - 0x292A]
00006B24  2F0E                     move.l     -[A7], A6
00006B26  4EBA FE7A                jsr        [PC - 0x186 /* 000069A2 */]
00006B2A  1B7C 0001 D68D           move.b     [A5 - 0x2973], 0x1
00006B30  486D D70E                pea.l      [A5 - 0x28F2]
00006B34  2F0E                     move.l     -[A7], A6
00006B36  4EBA FE6A                jsr        [PC - 0x196 /* 000069A2 */]
00006B3A  2F2D D6C0                move.l     -[A7], [A5 - 0x2940]
00006B3E  2F2D ECE4                move.l     -[A7], [A5 - 0x131C]
00006B42  486D D500                pea.l      [A5 - 0x2B00]
00006B46  4267                     clr.w      -[A7]
00006B48  4EAD 1582                jsr        [A5 + 0x1582 /* export_684, CODE:15 @ 000005C0 */]
00006B4C  486D D700                pea.l      [A5 - 0x2900]
00006B50  2F0E                     move.l     -[A7], A6
00006B52  4EBA FE4E                jsr        [PC - 0x1B2 /* 000069A2 */]
00006B56  2F2D ECE4                move.l     -[A7], [A5 - 0x131C]
00006B5A  2F2D D6C0                move.l     -[A7], [A5 - 0x2940]
00006B5E  486E FFF8                pea.l      [A6 - 0x8]
00006B62  3F3C 0003                move.w     -[A7], 0x3
00006B66  4EAD 1582                jsr        [A5 + 0x1582 /* export_684, CODE:15 @ 000005C0 */]
00006B6A  486D D68E                pea.l      [A5 - 0x2972]
00006B6E  2F3C FFFE FFFE           move.l     -[A7], 0xFFFEFFFE
00006B74  A8A9                     syscall    InsetRect
00006B76  486D ED82                pea.l      [A5 - 0x127E]
00006B7A  4EBA C6A6                jsr        [PC - 0x395A /* 00003222 */]
00006B7E  4EBA BDC8                jsr        [PC - 0x4238 /* 00002948 */]
00006B82  4EBA BF04                jsr        [PC - 0x40FC /* 00002A88 */]
label00006B86:
00006B86  4E5E                     unlink     A6
00006B88  4E75                     rts
fn00006B8A:
00006B8A  4E56 FFE6                link       A6, -0x001A
00006B8E  48E7 0F08                movem.l    -[A7], D4,D5,D6,D7,A4
00006B92  1C2D EFEC                move.b     D6, [A5 - 0x1014]
00006B96  1D6D EFEB FFF5           move.b     [A6 - 0xB], [A5 - 0x1015]
00006B9C  1D6D EFEA FFF4           move.b     [A6 - 0xC], [A5 - 0x1016]
00006BA2  1D6D EFE9 FFF3           move.b     [A6 - 0xD], [A5 - 0x1017]
00006BA8  1A2D EFE0                move.b     D5, [A5 - 0x1020]
00006BAC  4267                     clr.w      -[A7]
00006BAE  4EAD 221A                jsr        [A5 + 0x221A /* export_1087, CODE:20 @ 00004B46 */]
00006BB2  1B5F EFEC                move.b     [A5 - 0x1014], [A7]+
00006BB6  4267                     clr.w      -[A7]
00006BB8  4EAD 2142                jsr        [A5 + 0x2142 /* export_1060, CODE:20 @ 000023F6 */]
00006BBC  1B5F EFEB                move.b     [A5 - 0x1015], [A7]+
00006BC0  4267                     clr.w      -[A7]
00006BC2  4EAD 1612                jsr        [A5 + 0x1612 /* export_702, CODE:15 @ 00001296 */]
00006BC6  1B5F EFEA                move.b     [A5 - 0x1016], [A7]+
00006BCA  4267                     clr.w      -[A7]
00006BCC  4EAD 15C2                jsr        [A5 + 0x15C2 /* export_692, CODE:15 @ 00000B06 */]
00006BD0  1B5F EFE9                move.b     [A5 - 0x1017], [A7]+
00006BD4  102D EFEB                move.b     D0, [A5 - 0x1015]
00006BD8  C02D E225                and.b      D0, [A5 - 0x1DDB]
00006BDC  122D D510                move.b     D1, [A5 - 0x2AF0]
00006BE0  0A01 0001                xori.b     D1, 0x1
00006BE4  C001                     and.b      D0, D1
00006BE6  1B40 EFE0                move.b     [A5 - 0x1020], D0
00006BEA  BC2D EFEC                cmp.b      D6, [A5 - 0x1014]
00006BEE  6706                     beq        +0x8 /* 00006BF6 */
00006BF0  1B7C 0001 E2BF           move.b     [A5 - 0x1D41], 0x1
label00006BF6:
00006BF6  BC2D EFEC                cmp.b      D6, [A5 - 0x1014]
00006BFA  56C0                     sne        D0
00006BFC  122D EFEB                move.b     D1, [A5 - 0x1015]
00006C00  B22E FFF5                cmp.b      D1, [A6 - 0xB]
00006C04  56C1                     sne        D1
00006C06  8001                     or.b       D0, D1
00006C08  122D EFEA                move.b     D1, [A5 - 0x1016]
00006C0C  B22E FFF4                cmp.b      D1, [A6 - 0xC]
00006C10  56C1                     sne        D1
00006C12  8001                     or.b       D0, D1
00006C14  BA2D EFE0                cmp.b      D5, [A5 - 0x1020]
00006C18  56C1                     sne        D1
00006C1A  8001                     or.b       D0, D1
00006C1C  6704                     beq        +0x6 /* 00006C22 */
00006C1E  4EAD 220A                jsr        [A5 + 0x220A /* export_1085, CODE:20 @ 000048DE */]
label00006C22:
00006C22  182D EFE6                move.b     D4, [A5 - 0x101A]
00006C26  1D6D EFE7 FFF9           move.b     [A6 - 0x7], [A5 - 0x1019]
00006C2C  102D F017                move.b     D0, [A5 - 0xFE9]
00006C30  670A                     beq        +0xC /* 00006C3C */
00006C32  7E03                     moveq.l    D7, 0x03
00006C34  2D6D EDC8 FFFC           move.l     [A6 - 0x4], [A5 - 0x1238]
00006C3A  600E                     bra        +0x10 /* 00006C4A */
label00006C3C:
00006C3C  4267                     clr.w      -[A7]
00006C3E  2F2E 0008                move.l     -[A7], [A6 + 0x8]
00006C42  486E FFFC                pea.l      [A6 - 0x4]
00006C46  A92C                     syscall    FindWindow
00006C48  3E1F                     move.w     D7, [A7]+
label00006C4A:
00006C4A  202E FFFC                move.l     D0, [A6 - 0x4]
00006C4E  B0AD EDB8                cmp.l      D0, [A5 - 0x1248]
00006C52  57C0                     seq        D0
00006C54  7203                     moveq.l    D1, 0x03
00006C56  B247                     cmp.w      D1, D7
00006C58  57C1                     seq        D1
00006C5A  C001                     and.b      D0, D1
00006C5C  4400                     neg.b      D0
00006C5E  1B40 EFE6                move.b     [A5 - 0x101A], D0
00006C62  202E FFFC                move.l     D0, [A6 - 0x4]
00006C66  B0AD EDC8                cmp.l      D0, [A5 - 0x1238]
00006C6A  57C0                     seq        D0
00006C6C  7203                     moveq.l    D1, 0x03
00006C6E  B247                     cmp.w      D1, D7
00006C70  57C1                     seq        D1
00006C72  C001                     and.b      D0, D1
00006C74  4400                     neg.b      D0
00006C76  1B40 EFE7                move.b     [A5 - 0x1019], D0
00006C7A  1D6D EFE5 FFF7           move.b     [A6 - 0x9], [A5 - 0x101B]
00006C80  1B6D EFE6 EFE5           move.b     [A5 - 0x101B], [A5 - 0x101A]
00006C86  102D EFE6                move.b     D0, [A5 - 0x101A]
00006C8A  6722                     beq        +0x24 /* 00006CAE */
00006C8C  2D6E 0008 FFEC           move.l     [A6 - 0x14], [A6 + 0x8]
00006C92  2F2D EDB8                move.l     -[A7], [A5 - 0x1248]
00006C96  A873                     syscall    SetPort
00006C98  486E FFEC                pea.l      [A6 - 0x14]
00006C9C  A871                     syscall    GlobalToLocal
00006C9E  4267                     clr.w      -[A7]
00006CA0  2F2E FFEC                move.l     -[A7], [A6 - 0x14]
00006CA4  486D EDB0                pea.l      [A5 - 0x1250]
00006CA8  A8AD                     syscall    PtInRect
00006CAA  1B5F EFE5                move.b     [A5 - 0x101B], [A7]+
label00006CAE:
00006CAE  1D6D D510 FFF1           move.b     [A6 - 0xF], [A5 - 0x2AF0]
00006CB4  422D D510                clr.b      [A5 - 0x2AF0]
00006CB8  102D EFE7                move.b     D0, [A5 - 0x1019]
00006CBC  6708                     beq        +0xA /* 00006CC6 */
00006CBE  2F2E 0008                move.l     -[A7], [A6 + 0x8]
00006CC2  4EBA F77A                jsr        [PC - 0x886 /* 0000643E */]
label00006CC6:
00006CC6  B82D EFE6                cmp.b      D4, [A5 - 0x101A]
00006CCA  56C0                     sne        D0
00006CCC  802D FDD7                or.b       D0, [A5 - 0x229]
00006CD0  122D EFE7                move.b     D1, [A5 - 0x1019]
00006CD4  B22E FFF9                cmp.b      D1, [A6 - 0x7]
00006CD8  56C1                     sne        D1
00006CDA  8001                     or.b       D0, D1
00006CDC  122D EFE5                move.b     D1, [A5 - 0x101B]
00006CE0  B22E FFF7                cmp.b      D1, [A6 - 0x9]
00006CE4  56C1                     sne        D1
00006CE6  8001                     or.b       D0, D1
00006CE8  122D D510                move.b     D1, [A5 - 0x2AF0]
00006CEC  B22E FFF1                cmp.b      D1, [A6 - 0xF]
00006CF0  56C1                     sne        D1
00006CF2  8001                     or.b       D0, D1
00006CF4  0240 0001                andi.w     D0, 0x1
00006CF8  676E                     beq        +0x70 /* 00006D68 */
00006CFA  2F3C FFFF FFFF           move.l     -[A7], 0xFFFFFFFF
00006D00  42A7                     clr.l      -[A7]
00006D02  4EAD 1A32                jsr        [A5 + 0x1A32 /* export_834, CODE:16 @ 0000152E */]
00006D06  49ED FE3C                lea.l      A4, [A5 - 0x1C4]
00006D0A  102D EFE5                move.b     D0, [A5 - 0x101B]
00006D0E  6706                     beq        +0x8 /* 00006D16 */
00006D10  49ED EF50                lea.l      A4, [A5 - 0x10B0]
00006D14  6048                     bra        +0x4A /* 00006D5E */
label00006D16:
00006D16  102D EFE7                move.b     D0, [A5 - 0x1019]
00006D1A  6742                     beq        +0x44 /* 00006D5E */
00006D1C  102D EFD9                move.b     D0, [A5 - 0x1027]
00006D20  C02D EF23                and.b      D0, [A5 - 0x10DD]
00006D24  6728                     beq        +0x2A /* 00006D4E */
00006D26  7000                     moveq.l    D0, 0x00
00006D28  206D EDC8                movea.l    A0, [A5 - 0x1238]
00006D2C  3228 0008                move.w     D1, [A0 + 0x8]
00006D30  4441                     neg.w      D1
00006D32  3001                     move.w     D0, D1
00006D34  C0BC 0000 0007           and.l      D0, 0x7
00006D3A  3D40 FFEA                move.w     [A6 - 0x16], D0
00006D3E  2F3C FFF8 FFF8           move.l     -[A7], 0xFFF8FFF8
00006D44  4267                     clr.w      -[A7]
00006D46  3F2E FFEA                move.w     -[A7], [A6 - 0x16]
00006D4A  4EAD 1A32                jsr        [A5 + 0x1A32 /* export_834, CODE:16 @ 0000152E */]
label00006D4E:
00006D4E  102D D510                move.b     D0, [A5 - 0x2AF0]
00006D52  6706                     beq        +0x8 /* 00006D5A */
00006D54  49ED FE3C                lea.l      A4, [A5 - 0x1C4]
00006D58  6004                     bra        +0x6 /* 00006D5E */
label00006D5A:
00006D5A  49ED EF94                lea.l      A4, [A5 - 0x106C]
label00006D5E:
00006D5E  2F0C                     move.l     -[A7], A4
00006D60  4EAD 18E2                jsr        [A5 + 0x18E2 /* export_792, CODE:16 @ 000008AE */]
00006D64  422D FDD7                clr.b      [A5 - 0x229]
label00006D68:
00006D68  4CDF 10F0                movem.l    D4,D5,D6,D7,A4, [A7]+
00006D6C  4E5E                     unlink     A6
00006D6E  2E9F                     move.l     [A7], [A7]+
00006D70  4E75                     rts
fn00006D72:
00006D72  4E56 0000                link       A6, 0
00006D76  4267                     clr.w      -[A7]
00006D78  4EBA 9370                jsr        [PC - 0x6C90 /* 000000EA */]
00006D7C  101F                     move.b     D0, [A7]+
00006D7E  6754                     beq        +0x56 /* 00006DD4 */
00006D80  486D ED82                pea.l      [A5 - 0x127E]
00006D84  4EBA C49C                jsr        [PC - 0x3B64 /* 00003222 */]
00006D88  2F2D D6B4                move.l     -[A7], [A5 - 0x294C]
00006D8C  2F2D D6C4                move.l     -[A7], [A5 - 0x293C]
00006D90  486D D500                pea.l      [A5 - 0x2B00]
00006D94  3F3C 0003                move.w     -[A7], 0x3
00006D98  4EAD 1582                jsr        [A5 + 0x1582 /* export_684, CODE:15 @ 000005C0 */]
00006D9C  2F2D D6B4                move.l     -[A7], [A5 - 0x294C]
00006DA0  2F2D ECD4                move.l     -[A7], [A5 - 0x132C]
00006DA4  486D D500                pea.l      [A5 - 0x2B00]
00006DA8  3F3C 0003                move.w     -[A7], 0x3
00006DAC  4EAD 1582                jsr        [A5 + 0x1582 /* export_684, CODE:15 @ 000005C0 */]
00006DB0  2F2D D6C0                move.l     -[A7], [A5 - 0x2940]
00006DB4  2F2D ECD0                move.l     -[A7], [A5 - 0x1330]
00006DB8  486D D500                pea.l      [A5 - 0x2B00]
00006DBC  3F3C 0001                move.w     -[A7], 0x1
00006DC0  4EAD 1582                jsr        [A5 + 0x1582 /* export_684, CODE:15 @ 000005C0 */]
00006DC4  486D D500                pea.l      [A5 - 0x2B00]
00006DC8  486D E2DA                pea.l      [A5 - 0x1D26]
00006DCC  4EAD 1CEA                jsr        [A5 + 0x1CEA /* export_921, CODE:17 @ 00001DBA */]
00006DD0  4EBA BCB6                jsr        [PC - 0x434A /* 00002A88 */]
label00006DD4:
00006DD4  4E5E                     unlink     A6
00006DD6  4E75                     rts
fn00006DD8:
00006DD8  4E56 0000                link       A6, 0
00006DDC  4267                     clr.w      -[A7]
00006DDE  4EAD 228A                jsr        [A5 + 0x228A /* export_1101, CODE:20 @ 000056F6 */]
00006DE2  101F                     move.b     D0, [A7]+
00006DE4  6704                     beq        +0x6 /* 00006DEA */
00006DE6  6000 00D6                bra        +0xD8 /* 00006EBE */
label00006DEA:
00006DEA  4267                     clr.w      -[A7]
00006DEC  486D E2DA                pea.l      [A5 - 0x1D26]
00006DF0  A8AE                     syscall    EmptyRect
00006DF2  101F                     move.b     D0, [A7]+
00006DF4  6618                     bne        +0x1A /* 00006E0E */
00006DF6  2F2D ECD0                move.l     -[A7], [A5 - 0x1330]
00006DFA  2F2D D6B8                move.l     -[A7], [A5 - 0x2948]
00006DFE  4EAD 1532                jsr        [A5 + 0x1532 /* export_674, CODE:14 @ 00000C4A */]
00006E02  2F2D ECD4                move.l     -[A7], [A5 - 0x132C]
00006E06  2F2D D6BC                move.l     -[A7], [A5 - 0x2944]
00006E0A  4EAD 1532                jsr        [A5 + 0x1532 /* export_674, CODE:14 @ 00000C4A */]
label00006E0E:
00006E0E  102D D68D                move.b     D0, [A5 - 0x2973]
00006E12  670C                     beq        +0xE /* 00006E20 */
00006E14  2F2D D6B4                move.l     -[A7], [A5 - 0x294C]
00006E18  2F2D D6B0                move.l     -[A7], [A5 - 0x2950]
00006E1C  4EAD 1532                jsr        [A5 + 0x1532 /* export_674, CODE:14 @ 00000C4A */]
label00006E20:
00006E20  486D E2E3                pea.l      [A5 - 0x1D1D]
00006E24  486D D69F                pea.l      [A5 - 0x2961]
00006E28  4EAD 1B02                jsr        [A5 + 0x1B02 /* export_860, CODE:16 @ 00001D42 */]
00006E2C  4AAD D482                tst.l      [A5 - 0x2B7E]
00006E30  56C0                     sne        D0
00006E32  802D D4E9                or.b       D0, [A5 - 0x2B17]
00006E36  0240 0001                andi.w     D0, 0x1
00006E3A  6704                     beq        +0x6 /* 00006E40 */
00006E3C  4EBA DF76                jsr        [PC - 0x208A /* 00004DB4 */]
label00006E40:
00006E40  486D D50E                pea.l      [A5 - 0x2AF2]
00006E44  486D D4FB                pea.l      [A5 - 0x2B05]
00006E48  4EAD 1B02                jsr        [A5 + 0x1B02 /* export_860, CODE:16 @ 00001D42 */]
00006E4C  486D D50D                pea.l      [A5 - 0x2AF3]
00006E50  486D D4FA                pea.l      [A5 - 0x2B06]
00006E54  4EAD 1B02                jsr        [A5 + 0x1B02 /* export_860, CODE:16 @ 00001D42 */]
00006E58  486D D50A                pea.l      [A5 - 0x2AF6]
00006E5C  486D D4F7                pea.l      [A5 - 0x2B09]
00006E60  4EAD 1B02                jsr        [A5 + 0x1B02 /* export_860, CODE:16 @ 00001D42 */]
00006E64  486D D50C                pea.l      [A5 - 0x2AF4]
00006E68  486D D4F9                pea.l      [A5 - 0x2B07]
00006E6C  4EAD 1B02                jsr        [A5 + 0x1B02 /* export_860, CODE:16 @ 00001D42 */]
00006E70  486D D50B                pea.l      [A5 - 0x2AF5]
00006E74  486D D4F8                pea.l      [A5 - 0x2B08]
00006E78  4EAD 1B02                jsr        [A5 + 0x1B02 /* export_860, CODE:16 @ 00001D42 */]
00006E7C  486D D509                pea.l      [A5 - 0x2AF7]
00006E80  486D D4F6                pea.l      [A5 - 0x2B0A]
00006E84  4EAD 1B02                jsr        [A5 + 0x1B02 /* export_860, CODE:16 @ 00001D42 */]
00006E88  486D D500                pea.l      [A5 - 0x2B00]
00006E8C  486D D4EE                pea.l      [A5 - 0x2B12]
00006E90  4EAD 1B0A                jsr        [A5 + 0x1B0A /* export_861, CODE:16 @ 00001D4E */]
00006E94  486D D4FC                pea.l      [A5 - 0x2B04]
00006E98  486D D4EA                pea.l      [A5 - 0x2B16]
00006E9C  4EAD 1B12                jsr        [A5 + 0x1B12 /* export_862, CODE:16 @ 00001D4A */]
00006EA0  102D D50D                move.b     D0, [A5 - 0x2AF3]
00006EA4  802D D509                or.b       D0, [A5 - 0x2AF7]
00006EA8  6704                     beq        +0x6 /* 00006EAE */
00006EAA  4EBA E4AE                jsr        [PC - 0x1B52 /* 0000535A */]
label00006EAE:
00006EAE  41ED E2F2                lea.l      A0, [A5 - 0x1D0E]
00006EB2  43ED ED82                lea.l      A1, [A5 - 0x127E]
00006EB6  20D9                     move.l     [A0]+, [A1]+
00006EB8  20D9                     move.l     [A0]+, [A1]+
00006EBA  4EBA A0CC                jsr        [PC - 0x5F34 /* 00000F88 */]
label00006EBE:
00006EBE  4E5E                     unlink     A6
00006EC0  4E75                     rts
export_627:
fn00006EC2:
00006EC2  4E56 FFD2                link       A6, -0x002E
00006EC6  48E7 0F08                movem.l    -[A7], D4,D5,D6,D7,A4
00006ECA  7001                     moveq.l    D0, 0x01
00006ECC  B06D EFDA                cmp.w      D0, [A5 - 0x1026]
00006ED0  6704                     beq        +0x6 /* 00006ED6 */
00006ED2  6000 028E                bra        +0x290 /* 00007162 */
label00006ED6:
00006ED6  486E FFD8                pea.l      [A6 - 0x28]
00006EDA  A874                     syscall    GetPort
00006EDC  486D EE38                pea.l      [A5 - 0x11C8]
00006EE0  A873                     syscall    SetPort
00006EE2  4AAD D482                tst.l      [A5 - 0x2B7E]
00006EE6  6732                     beq        +0x34 /* 00006F1A */
00006EE8  486D ED82                pea.l      [A5 - 0x127E]
00006EEC  4EBA C334                jsr        [PC - 0x3CCC /* 00003222 */]
00006EF0  486D D500                pea.l      [A5 - 0x2B00]
00006EF4  4EBA BA96                jsr        [PC - 0x456A /* 0000298C */]
00006EF8  486D D500                pea.l      [A5 - 0x2B00]
00006EFC  486D D500                pea.l      [A5 - 0x2B00]
00006F00  4267                     clr.w      -[A7]
00006F02  4EBA F4A2                jsr        [PC - 0xB5E /* 000063A6 */]
00006F06  486D D500                pea.l      [A5 - 0x2B00]
00006F0A  486D E2F2                pea.l      [A5 - 0x1D0E]
00006F0E  4EAD 1CEA                jsr        [A5 + 0x1CEA /* export_921, CODE:17 @ 00001DBA */]
00006F12  4EBA A074                jsr        [PC - 0x5F8C /* 00000F88 */]
00006F16  6000 0234                bra        +0x236 /* 0000714C */
label00006F1A:
00006F1A  102D D4E9                move.b     D0, [A5 - 0x2B17]
00006F1E  0A00 0001                xori.b     D0, 0x1
00006F22  7201                     moveq.l    D1, 0x01
00006F24  B26D D4D6                cmp.w      D1, [A5 - 0x2B2A]
00006F28  5EC1                     sgt        D1
00006F2A  8001                     or.b       D0, D1
00006F2C  0240 0001                andi.w     D0, 0x1
00006F30  6600 021A                bne        +0x21C /* 0000714C */
00006F34  3F2D E1FE                move.w     -[A7], [A5 - 0x1E02]
00006F38  A887                     syscall    TextFont
00006F3A  3F2D E200                move.w     -[A7], [A5 - 0x1E00]
00006F3E  A88A                     syscall    TextSize
00006F40  4240                     clr.w      D0
00006F42  102D E202                move.b     D0, [A5 - 0x1DFE]
00006F46  3F00                     move.w     -[A7], D0
00006F48  A888                     syscall    TextFace
00006F4A  3F3C 0001                move.w     -[A7], 0x1
00006F4E  A889                     syscall    TextMode
00006F50  3E2D E204                move.w     D7, [A5 - 0x1DFC]
00006F54  102D EF23                move.b     D0, [A5 - 0x10DD]
00006F58  670E                     beq        +0x10 /* 00006F68 */
00006F5A  4267                     clr.w      -[A7]
00006F5C  3007                     move.w     D0, D7
00006F5E  5E40                     addq.w     D0, 7
00006F60  3F00                     move.w     -[A7], D0
00006F62  4EAD 1B22                jsr        [A5 + 0x1B22 /* export_864, CODE:16 @ 00001E04 */]
00006F66  3E1F                     move.w     D7, [A7]+
label00006F68:
00006F68  3007                     move.w     D0, D7
00006F6A  48C0                     ext.l      D0
00006F6C  81FC 0004                divs.w     D0, 0x4
00006F70  3D40 FFF0                move.w     [A6 - 0x10], D0
00006F74  3007                     move.w     D0, D7
00006F76  906E FFF0                sub.w      D0, [A6 - 0x10]
00006F7A  3D40 FFF2                move.w     [A6 - 0xE], D0
00006F7E  3D6D D4D6 FFFE           move.w     [A6 - 0x2], [A5 - 0x2B2A]
00006F84  102E 0008                move.b     D0, [A6 + 0x8]
00006F88  671E                     beq        +0x20 /* 00006FA8 */
00006F8A  3D7C 0001 FFFE           move.w     [A6 - 0x2], 0x1
00006F90  486D ED82                pea.l      [A5 - 0x127E]
00006F94  4EBA C28C                jsr        [PC - 0x3D74 /* 00003222 */]
00006F98  4EBA 021C                jsr        [PC + 0x21C /* 000071B6 */]
00006F9C  41ED E2F2                lea.l      A0, [A5 - 0x1D0E]
00006FA0  43ED ED82                lea.l      A1, [A5 - 0x127E]
00006FA4  20D9                     move.l     [A0]+, [A1]+
00006FA6  20D9                     move.l     [A0]+, [A1]+
label00006FA8:
00006FA8  302E FFFE                move.w     D0, [A6 - 0x2]
00006FAC  5340                     subq.w     D0, 1
00006FAE  C1C7                     muls.w     D0, D7
00006FB0  3C00                     move.w     D6, D0
00006FB2  DC6D D4E4                add.w      D6, [A5 - 0x2B1C]
00006FB6  3D6D D4D6 FFD2           move.w     [A6 - 0x2E], [A5 - 0x2B2A]
00006FBC  3D6E FFFE FFFC           move.w     [A6 - 0x4], [A6 - 0x2]
00006FC2  6000 014E                bra        +0x150 /* 00007112 */
label00006FC6:
00006FC6  102E 0008                move.b     D0, [A6 + 0x8]
00006FCA  664C                     bne        +0x4E /* 00007018 */
00006FCC  486E FFDC                pea.l      [A6 - 0x24]
00006FD0  4267                     clr.w      -[A7]
00006FD2  3006                     move.w     D0, D6
00006FD4  906E FFF2                sub.w      D0, [A6 - 0xE]
00006FD8  3F00                     move.w     -[A7], D0
00006FDA  3F3C 0200                move.w     -[A7], 0x200
00006FDE  302E FFF0                move.w     D0, [A6 - 0x10]
00006FE2  D046                     add.w      D0, D6
00006FE4  3F00                     move.w     -[A7], D0
00006FE6  A8A7                     syscall    SetRect
00006FE8  486E FFDC                pea.l      [A6 - 0x24]
00006FEC  4EBA C234                jsr        [PC - 0x3DCC /* 00003222 */]
00006FF0  2F2D D6C4                move.l     -[A7], [A5 - 0x293C]
00006FF4  42A7                     clr.l      -[A7]
00006FF6  486E FFDC                pea.l      [A6 - 0x24]
00006FFA  4EAD 1722                jsr        [A5 + 0x1722 /* export_736, CODE:15 @ 00004B16 */]
00006FFE  2F2D D6C0                move.l     -[A7], [A5 - 0x2940]
00007002  42A7                     clr.l      -[A7]
00007004  486E FFDC                pea.l      [A6 - 0x24]
00007008  4EAD 1722                jsr        [A5 + 0x1722 /* export_736, CODE:15 @ 00004B16 */]
0000700C  486E FFDC                pea.l      [A6 - 0x24]
00007010  486D E2F2                pea.l      [A5 - 0x1D0E]
00007014  4EAD 1CEA                jsr        [A5 + 0x1CEA /* export_921, CODE:17 @ 00001DBA */]
label00007018:
00007018  302E FFFC                move.w     D0, [A6 - 0x4]
0000701C  5340                     subq.w     D0, 1
0000701E  41ED D486                lea.l      A0, [A5 - 0x2B7A]
00007022  E540                     asl        D0.w, 2
00007024  2870 0000                movea.l    A4, [A0 + D0.w]
00007028  2F0C                     move.l     -[A7], A4
0000702A  4EAD 0222                jsr        [A5 + 0x222 /* export_64, CODE:1 @ 00004678 */]
0000702E  4267                     clr.w      -[A7]
00007030  2F14                     move.l     -[A7], [A4]
00007032  A88C                     syscall    StringWidth
00007034  381F                     move.w     D4, [A7]+
00007036  4267                     clr.w      -[A7]
00007038  486D E202                pea.l      [A5 - 0x1DFE]
0000703C  7006                     moveq.l    D0, 0x06
0000703E  2F00                     move.l     -[A7], D0
00007040  A85D                     syscall    BitTst
00007042  101F                     move.b     D0, [A7]+
00007044  6702                     beq        +0x4 /* 00007048 */
00007046  5A44                     addq.w     D4, 5
label00007048:
00007048  207C 0000 0BAC           movea.l    A0, 0xBAC
0000704E  4A50                     tst.w      [A0]
00007050  56C0                     sne        D0
00007052  4400                     neg.b      D0
00007054  1D40 FFD5                move.b     [A6 - 0x2B], D0
00007058  3A2D D4E2                move.w     D5, [A5 - 0x2B1E]
0000705C  7001                     moveq.l    D0, 0x01
0000705E  B06E FFFC                cmp.w      D0, [A6 - 0x4]
00007062  6604                     bne        +0x6 /* 00007068 */
00007064  3A2D D4E6                move.w     D5, [A5 - 0x2B1A]
label00007068:
00007068  102E FFD5                move.b     D0, [A6 - 0x2B]
0000706C  670A                     beq        +0xC /* 00007078 */
0000706E  4A6D E1FC                tst.w      [A5 - 0x1E04]
00007072  6602                     bne        +0x4 /* 00007076 */
00007074  9A44                     sub.w      D5, D4
label00007076:
00007076  600A                     bra        +0xC /* 00007082 */
label00007078:
00007078  70FF                     moveq.l    D0, 0xFFFFFFFF
0000707A  B06D E1FC                cmp.w      D0, [A5 - 0x1E04]
0000707E  6602                     bne        +0x4 /* 00007082 */
00007080  9A44                     sub.w      D5, D4
label00007082:
00007082  7001                     moveq.l    D0, 0x01
00007084  B06D E1FC                cmp.w      D0, [A5 - 0x1E04]
00007088  660A                     bne        +0xC /* 00007094 */
0000708A  3004                     move.w     D0, D4
0000708C  48C0                     ext.l      D0
0000708E  81FC 0002                divs.w     D0, 0x2
00007092  9A40                     sub.w      D5, D0
label00007094:
00007094  3005                     move.w     D0, D5
00007096  5340                     subq.w     D0, 1
00007098  3D40 FFE6                move.w     [A6 - 0x1A], D0
0000709C  3005                     move.w     D0, D5
0000709E  D044                     add.w      D0, D4
000070A0  5240                     addq.w     D0, 1
000070A2  3D40 FFEA                move.w     [A6 - 0x16], D0
000070A6  3006                     move.w     D0, D6
000070A8  906E FFF2                sub.w      D0, [A6 - 0xE]
000070AC  3D40 FFE4                move.w     [A6 - 0x1C], D0
000070B0  302E FFF0                move.w     D0, [A6 - 0x10]
000070B4  D046                     add.w      D0, D6
000070B6  3D40 FFE8                move.w     [A6 - 0x18], D0
000070BA  2054                     movea.l    A0, [A4]
000070BC  4240                     clr.w      D0
000070BE  1010                     move.b     D0, [A0]
000070C0  4A40                     tst.w      D0
000070C2  6740                     beq        +0x42 /* 00007104 */
000070C4  486D D70E                pea.l      [A5 - 0x28F2]
000070C8  A875                     syscall    SetPBits/SetPortBits
000070CA  486E FFE4                pea.l      [A6 - 0x1C]
000070CE  486D FE98                pea.l      [A5 - 0x168]
000070D2  A8A5                     syscall    FillRect
000070D4  486E FFE4                pea.l      [A6 - 0x1C]
000070D8  486D D68E                pea.l      [A5 - 0x2972]
000070DC  4EAD 1CEA                jsr        [A5 + 0x1CEA /* export_921, CODE:17 @ 00001DBA */]
000070E0  486D D700                pea.l      [A5 - 0x2900]
000070E4  A875                     syscall    SetPBits/SetPortBits
000070E6  486E FFE4                pea.l      [A6 - 0x1C]
000070EA  A8A3                     syscall    EraseRect
000070EC  3F05                     move.w     -[A7], D5
000070EE  3F06                     move.w     -[A7], D6
000070F0  A893                     syscall    MoveTo
000070F2  2F14                     move.l     -[A7], [A4]
000070F4  A884                     syscall    DrawString
000070F6  486E FFE4                pea.l      [A6 - 0x1C]
000070FA  486E FFE4                pea.l      [A6 - 0x1C]
000070FE  4267                     clr.w      -[A7]
00007100  4EBA F2A4                jsr        [PC - 0xD5C /* 000063A6 */]
label00007104:
00007104  2F0C                     move.l     -[A7], A4
00007106  4EAD 022A                jsr        [A5 + 0x22A /* export_65, CODE:1 @ 00004682 */]
0000710A  DC47                     add.w      D6, D7
0000710C  526E FFFC                addq.w     [A6 - 0x4], 1
00007110  690C                     bvs        +0xE /* 0000711E */
label00007112:
00007112  302E FFFC                move.w     D0, [A6 - 0x4]
00007116  B06E FFD2                cmp.w      D0, [A6 - 0x2E]
0000711A  6F00 FEAA                ble        -0x154 /* 00006FC6 */
label0000711E:
0000711E  102E FFD5                move.b     D0, [A6 - 0x2B]
00007122  670C                     beq        +0xE /* 00007130 */
00007124  302E FFE6                move.w     D0, [A6 - 0x1A]
00007128  5240                     addq.w     D0, 1
0000712A  3B40 D4E0                move.w     [A5 - 0x2B20], D0
0000712E  600A                     bra        +0xC /* 0000713A */
label00007130:
00007130  302E FFEA                move.w     D0, [A6 - 0x16]
00007134  5340                     subq.w     D0, 1
00007136  3B40 D4E0                move.w     [A5 - 0x2B20], D0
label0000713A:
0000713A  3006                     move.w     D0, D6
0000713C  9047                     sub.w      D0, D7
0000713E  3B40 D4DE                move.w     [A5 - 0x2B22], D0
00007142  4EBA 9E44                jsr        [PC - 0x61BC /* 00000F88 */]
00007146  1B7C 0001 D50E           move.b     [A5 - 0x2AF2], 0x1
label0000714C:
0000714C  4EAD 2262                jsr        [A5 + 0x2262 /* export_1096, CODE:20 @ 0000535A */]
00007150  486D ED44                pea.l      [A5 - 0x12BC]
00007154  A875                     syscall    SetPBits/SetPortBits
00007156  2F2E FFD8                move.l     -[A7], [A6 - 0x28]
0000715A  A873                     syscall    SetPort
0000715C  7000                     moveq.l    D0, 0x00
0000715E  2B40 D4D8                move.l     [A5 - 0x2B28], D0
label00007162:
00007162  4CDF 10F0                movem.l    D4,D5,D6,D7,A4, [A7]+
00007166  4E5E                     unlink     A6
00007168  205F                     movea.l    A0, [A7]+
0000716A  544F                     addq.w     A7, 2
0000716C  4ED0                     jmp        [A0]
fn0000716E:
0000716E  4E56 FFF8                link       A6, -0x0008
00007172  206E 0008                movea.l    A0, [A6 + 0x8]
00007176  43EE FFF8                lea.l      A1, [A6 - 0x8]
0000717A  22D8                     move.l     [A1]+, [A0]+
0000717C  22D8                     move.l     [A1]+, [A0]+
0000717E  102D E225                move.b     D0, [A5 - 0x1DDB]
00007182  6720                     beq        +0x22 /* 000071A4 */
00007184  486D ED44                pea.l      [A5 - 0x12BC]
00007188  486D D672                pea.l      [A5 - 0x298E]
0000718C  486D D678                pea.l      [A5 - 0x2988]
00007190  486D D678                pea.l      [A5 - 0x2988]
00007194  4267                     clr.w      -[A7]
00007196  42A7                     clr.l      -[A7]
00007198  A8EC                     syscall    CopyBits
0000719A  486E FFF8                pea.l      [A6 - 0x8]
0000719E  4EBA F0AE                jsr        [PC - 0xF52 /* 0000624E */]
000071A2  600C                     bra        +0xE /* 000071B0 */
label000071A4:
000071A4  2F2D ECE4                move.l     -[A7], [A5 - 0x131C]
000071A8  486E FFF8                pea.l      [A6 - 0x8]
000071AC  4EAD 158A                jsr        [A5 + 0x158A /* export_685, CODE:15 @ 000006FE */]
label000071B0:
000071B0  4E5E                     unlink     A6
000071B2  2E9F                     move.l     [A7], [A7]+
000071B4  4E75                     rts
fn000071B6:
000071B6  4E56 0000                link       A6, 0
000071BA  2F2D D6C4                move.l     -[A7], [A5 - 0x293C]
000071BE  42A7                     clr.l      -[A7]
000071C0  486D D68E                pea.l      [A5 - 0x2972]
000071C4  4EAD 1722                jsr        [A5 + 0x1722 /* export_736, CODE:15 @ 00004B16 */]
000071C8  2F2D D6C0                move.l     -[A7], [A5 - 0x2940]
000071CC  42A7                     clr.l      -[A7]
000071CE  486D D68E                pea.l      [A5 - 0x2972]
000071D2  4EAD 1722                jsr        [A5 + 0x1722 /* export_736, CODE:15 @ 00004B16 */]
000071D6  41ED D68E                lea.l      A0, [A5 - 0x2972]
000071DA  43ED ED8A                lea.l      A1, [A5 - 0x1276]
000071DE  20D9                     move.l     [A0]+, [A1]+
000071E0  20D9                     move.l     [A0]+, [A1]+
000071E2  4E5E                     unlink     A6
000071E4  4E75                     rts
