# near model CODE resource
# jump table entries: 2224-2354 (131 of them)
export_278:
00000000  4E56 0000                link       A6, 0
00000004  422D EF23                clr.b      [A5 - 0x10DD]
00000008  3F3C 0001                move.w     -[A7], 0x1
0000000C  4EAD 13B2                jsr        [A5 + 0x13B2 /* export_626, CODE:12 @ 00005F1E */]
00000010  102D EF41                move.b     D0, [A5 - 0x10BF]
00000014  6704                     beq        +0x6 /* 0000001A */
00000016  4EAD 2272                jsr        [A5 + 0x2272 /* export_1098, CODE:20 @ 00005394 */]
label0000001A:
0000001A  422D EF1F                clr.b      [A5 - 0x10E1]
0000001E  422D EF22                clr.b      [A5 - 0x10DE]
00000022  3B7C 0001 EF20           move.w     [A5 - 0x10E0], 0x1
00000028  3F3C 000C                move.w     -[A7], 0xC
0000002C  1F3C 0001                move.b     -[A7], 0x1
00000030  4EAD 15E2                jsr        [A5 + 0x15E2 /* export_696, CODE:15 @ 00000D72 */]
00000034  3B7C 0008 EF4C           move.w     [A5 - 0x10B4], 0x8
0000003A  3B7C 0004 EF1C           move.w     [A5 - 0x10E4], 0x4
00000040  426D E1FC                clr.w      [A5 - 0x1E04]
00000044  102D F2B9                move.b     D0, [A5 - 0xD47]
00000048  6706                     beq        +0x8 /* 00000050 */
0000004A  3B7C FFFF E1FC           move.w     [A5 - 0x1E04], 0xFFFF
label00000050:
00000050  3B6D F2BC E1FE           move.w     [A5 - 0x1E02], [A5 - 0xD44]
00000056  3B6D F2BA E200           move.w     [A5 - 0x1E00], [A5 - 0xD46]
0000005C  422D E202                clr.b      [A5 - 0x1DFE]
00000060  302D E200                move.w     D0, [A5 - 0x1E00]
00000064  E540                     asl        D0.w, 2
00000066  48C0                     ext.l      D0
00000068  81FC 0003                divs.w     D0, 0x3
0000006C  3B40 E204                move.w     [A5 - 0x1DFC], D0
00000070  4EAD 220A                jsr        [A5 + 0x220A /* export_1085, CODE:20 @ 000048DE */]
00000074  1F3C 0001                move.b     -[A7], 0x1
00000078  4EAD 13BA                jsr        [A5 + 0x13BA /* export_627, CODE:12 @ 00006EC2 */]
0000007C  4E5E                     unlink     A6
0000007E  4E75                     rts
export_279:
00000080  4E56 FEFC                link       A6, -0x0104
00000084  2F07                     move.l     -[A7], D7
00000086  206E 000C                movea.l    A0, [A6 + 0xC]
0000008A  43EE FF00                lea.l      A1, [A6 - 0x100]
0000008E  703F                     moveq.l    D0, 0x3F
label00000090:
00000090  22D8                     move.l     [A1]+, [A0]+
00000092  51C8 FFFC                dbf        D0, -0x6 /* 00000090 */
00000096  4240                     clr.w      D0
00000098  102E FF00                move.b     D0, [A6 - 0x100]
0000009C  5240                     addq.w     D0, 1
0000009E  48C0                     ext.l      D0
000000A0  2E00                     move.l     D7, D0
000000A2  2F2E 0008                move.l     -[A7], [A6 + 0x8]
000000A6  2F07                     move.l     -[A7], D7
000000A8  4EAD 020A                jsr        [A5 + 0x20A /* export_61, CODE:1 @ 00004654 */]
000000AC  4267                     clr.w      -[A7]
000000AE  3EB8 0220                move.w     [A7], [0x00000220 /* MemErr */]
000000B2  4A5F                     tst.w      [A7]+
000000B4  670A                     beq        +0xC /* 000000C0 */
000000B6  2F3C 000A 2AE7           move.l     -[A7], 0xA2AE7
000000BC  4EAD 185A                jsr        [A5 + 0x185A /* export_775, CODE:16 @ 0000042E */]
label000000C0:
000000C0  42A7                     clr.l      -[A7]
000000C2  486E FF00                pea.l      [A6 - 0x100]
000000C6  4EAD 1B52                jsr        [A5 + 0x1B52 /* export_870, CODE:16 @ 00001EBC */]
000000CA  206E 0008                movea.l    A0, [A6 + 0x8]
000000CE  2F10                     move.l     -[A7], [A0]
000000D0  2F07                     move.l     -[A7], D7
000000D2  4EAD 19B2                jsr        [A5 + 0x19B2 /* export_818, CODE:16 @ 000010BE */]
000000D6  2E1F                     move.l     D7, [A7]+
000000D8  4E5E                     unlink     A6
000000DA  205F                     movea.l    A0, [A7]+
000000DC  504F                     addq.w     A7, 8
000000DE  4ED0                     jmp        [A0]
export_280:
fn000000E0:
000000E0  4E56 0000                link       A6, 0
000000E4  2F0C                     move.l     -[A7], A4
000000E6  7002                     moveq.l    D0, 0x02
000000E8  B02D D46A                cmp.b      D0, [A5 - 0x2B96]
000000EC  57C0                     seq        D0
000000EE  4A00                     tst.b      D0
000000F0  670E                     beq        +0x10 /* 00000100 */
000000F2  7201                     moveq.l    D1, 0x01
000000F4  B22D D46B                cmp.b      D1, [A5 - 0x2B95]
000000F8  57C1                     seq        D1
000000FA  C001                     and.b      D0, D1
000000FC  6702                     beq        +0x4 /* 00000100 */
000000FE  6036                     bra        +0x38 /* 00000136 */
label00000100:
00000100  286D D470                movea.l    A4, [A5 - 0x2B90]
00000104  302C 0008                move.w     D0, [A4 + 0x8]
00000108  5240                     addq.w     D0, 1
0000010A  3940 0008                move.w     [A4 + 0x8], D0
0000010E  B06C 000A                cmp.w      D0, [A4 + 0xA]
00000112  6F06                     ble        +0x8 /* 0000011A */
00000114  396C 0008 000A           move.w     [A4 + 0xA], [A4 + 0x8]
label0000011A:
0000011A  206C 0004                movea.l    A0, [A4 + 0x4]
0000011E  302C 0008                move.w     D0, [A4 + 0x8]
00000122  5340                     subq.w     D0, 1
00000124  C1FC 0006                muls.w     D0, 0x6
00000128  48C0                     ext.l      D0
0000012A  D090                     add.l      D0, [A0]
0000012C  2040                     movea.l    A0, D0
0000012E  43ED D46A                lea.l      A1, [A5 - 0x2B96]
00000132  22D8                     move.l     [A1]+, [A0]+
00000134  3290                     move.w     [A1], [A0]
label00000136:
00000136  285F                     movea.l    A4, [A7]+
00000138  4E5E                     unlink     A6
0000013A  4E75                     rts
export_281:
0000013C  4E56 FFFE                link       A6, -0x0002
00000140  2F07                     move.l     -[A7], D7
00000142  4267                     clr.w      -[A7]
00000144  2F2D A6FC                move.l     -[A7], [A5 - 0x5904]
00000148  A960                     syscall    GetControlValue/GetCtlValue
0000014A  4267                     clr.w      -[A7]
0000014C  4EBA 2CA6                jsr        [PC + 0x2CA6 /* 00002DF4 */]
00000150  301F                     move.w     D0, [A7]+
00000152  321F                     move.w     D1, [A7]+
00000154  9240                     sub.w      D1, D0
00000156  206D A6F8                movea.l    A0, [A5 - 0x5908]
0000015A  2050                     movea.l    A0, [A0]
0000015C  3E01                     move.w     D7, D1
0000015E  CFE8 0018                muls.w     D7, [A0 + 0x18]
00000162  4A47                     tst.w      D7
00000164  670E                     beq        +0x10 /* 00000174 */
00000166  4267                     clr.w      -[A7]
00000168  3007                     move.w     D0, D7
0000016A  4440                     neg.w      D0
0000016C  3F00                     move.w     -[A7], D0
0000016E  2F2D A6F8                move.l     -[A7], [A5 - 0x5908]
00000172  A812                     syscall    TEPinScroll
label00000174:
00000174  2E1F                     move.l     D7, [A7]+
00000176  4E5E                     unlink     A6
00000178  4E75                     rts
export_282:
fn0000017A:
0000017A  4E56 0000                link       A6, 0
0000017E  206D B66C                movea.l    A0, [A5 - 0x4994]
00000182  202D B674                move.l     D0, [A5 - 0x498C]
00000186  D090                     add.l      D0, [A0]
00000188  322D B978                move.w     D1, [A5 - 0x4688]
0000018C  5341                     subq.w     D1, 1
0000018E  41ED B6F8                lea.l      A0, [A5 - 0x4908]
00000192  E541                     asl        D1.w, 2
00000194  90B0 1000                sub.l      D0, [A0 + D1.w]
00000198  2D40 000A                move.l     [A6 + 0xA], D0
0000019C  4E5E                     unlink     A6
0000019E  205F                     movea.l    A0, [A7]+
000001A0  544F                     addq.w     A7, 2
000001A2  4ED0                     jmp        [A0]
export_283:
fn000001A4:
000001A4  4E56 0000                link       A6, 0
000001A8  302D B978                move.w     D0, [A5 - 0x4688]
000001AC  5340                     subq.w     D0, 1
000001AE  41ED B8F8                lea.l      A0, [A5 - 0x4708]
000001B2  1230 0000                move.b     D1, [A0 + D0.w]
000001B6  4881                     ext.w      D1
000001B8  3D41 0008                move.w     [A6 + 0x8], D1
000001BC  4E5E                     unlink     A6
000001BE  4E75                     rts
export_284:
000001C0  4E56 0000                link       A6, 0
000001C4  206D B66C                movea.l    A0, [A5 - 0x4994]
000001C8  202D B674                move.l     D0, [A5 - 0x498C]
000001CC  D090                     add.l      D0, [A0]
000001CE  322D B978                move.w     D1, [A5 - 0x4688]
000001D2  5341                     subq.w     D1, 1
000001D4  41ED B6F8                lea.l      A0, [A5 - 0x4908]
000001D8  E541                     asl        D1.w, 2
000001DA  90B0 1000                sub.l      D0, [A0 + D1.w]
000001DE  322D B978                move.w     D1, [A5 - 0x4688]
000001E2  5341                     subq.w     D1, 1
000001E4  5341                     subq.w     D1, 1
000001E6  41ED B6F8                lea.l      A0, [A5 - 0x4908]
000001EA  E541                     asl        D1.w, 2
000001EC  90B0 1000                sub.l      D0, [A0 + D1.w]
000001F0  2D40 000A                move.l     [A6 + 0xA], D0
000001F4  4E5E                     unlink     A6
000001F6  205F                     movea.l    A0, [A7]+
000001F8  544F                     addq.w     A7, 2
000001FA  4ED0                     jmp        [A0]
fn000001FC:
000001FC  4E56 FFE6                link       A6, -0x001A
00000200  48E7 0018                movem.l    -[A7], A3,A4
00000204  286E 0008                movea.l    A4, [A6 + 0x8]
00000208  422C FFEF                clr.b      [A4 - 0x11]
0000020C  266D D470                movea.l    A3, [A5 - 0x2B90]
00000210  2F3C 0064 0000           move.l     -[A7], 0x640000 /* 'd\0\0' */
00000216  4EAD 119A                jsr        [A5 + 0x119A /* export_559, CODE:10 @ 00001D8C */]
0000021A  101F                     move.b     D0, [A7]+
0000021C  6700 0082                beq        +0x84 /* 000002A0 */
00000220  4EAD 1192                jsr        [A5 + 0x1192 /* export_558, CODE:10 @ 00001268 */]
00000224  2F2D B66C                move.l     -[A7], [A5 - 0x4994]
00000228  4EAD 0222                jsr        [A5 + 0x222 /* export_64, CODE:1 @ 00004678 */]
0000022C  42A7                     clr.l      -[A7]
0000022E  4267                     clr.w      -[A7]
00000230  4EBA FF48                jsr        [PC - 0xB8 /* 0000017A */]
00000234  302D B978                move.w     D0, [A5 - 0x4688]
00000238  5340                     subq.w     D0, 1
0000023A  41ED B6F8                lea.l      A0, [A5 - 0x4908]
0000023E  E540                     asl        D0.w, 2
00000240  2F30 0000                move.l     -[A7], [A0 + D0.w]
00000244  486E FFE6                pea.l      [A6 - 0x1A]
00000248  4EBA 342C                jsr        [PC + 0x342C /* 00003676 */]
0000024C  2F2D B66C                move.l     -[A7], [A5 - 0x4994]
00000250  4EAD 022A                jsr        [A5 + 0x22A /* export_65, CODE:1 @ 00004682 */]
00000254  4EAD 1432                jsr        [A5 + 0x1432 /* export_642, CODE:13 @ 000010F2 */]
00000258  486E FFE6                pea.l      [A6 - 0x1A]
0000025C  1F3C 0001                move.b     -[A7], 0x1
00000260  4EBA 3FC0                jsr        [PC + 0x3FC0 /* 00004222 */]
00000264  4267                     clr.w      -[A7]
00000266  3F2C FFFE                move.w     -[A7], [A4 - 0x2]
0000026A  4EBA 0046                jsr        [PC + 0x46 /* 000002B2 */]
0000026E  101F                     move.b     D0, [A7]+
00000270  670A                     beq        +0xC /* 0000027C */
00000272  7202                     moveq.l    D1, 0x02
00000274  B22D D46A                cmp.b      D1, [A5 - 0x2B96]
00000278  57C1                     seq        D1
0000027A  C001                     and.b      D0, D1
label0000027C:
0000027C  1940 FFEF                move.b     [A4 - 0x11], D0
00000280  486E FFE6                pea.l      [A6 - 0x1A]
00000284  4EBA 0BDC                jsr        [PC + 0xBDC /* 00000E62 */]
00000288  2F0B                     move.l     -[A7], A3
0000028A  4267                     clr.w      -[A7]
0000028C  4EBA 3F94                jsr        [PC + 0x3F94 /* 00004222 */]
00000290  102C FFEF                move.b     D0, [A4 - 0x11]
00000294  6608                     bne        +0xA /* 0000029E */
00000296  486C FFF0                pea.l      [A4 - 0x10]
0000029A  4EBA 3B22                jsr        [PC + 0x3B22 /* 00003DBE */]
label0000029E:
0000029E  6008                     bra        +0xA /* 000002A8 */
label000002A0:
000002A0  486C FFF0                pea.l      [A4 - 0x10]
000002A4  4EBA 3B18                jsr        [PC + 0x3B18 /* 00003DBE */]
label000002A8:
000002A8  4CDF 1800                movem.l    A3,A4, [A7]+
000002AC  4E5E                     unlink     A6
000002AE  2E9F                     move.l     [A7], [A7]+
000002B0  4E75                     rts
export_285:
fn000002B2:
000002B2  4E56 FFE6                link       A6, -0x001A
000002B6  48E7 0708                movem.l    -[A7], D5,D6,D7,A4
000002BA  3C2E 0008                move.w     D6, [A6 + 0x8]
000002BE  102D AAE3                move.b     D0, [A5 - 0x551D]
000002C2  6708                     beq        +0xA /* 000002CC */
000002C4  422E 000A                clr.b      [A6 + 0xA]
000002C8  6000 0236                bra        +0x238 /* 00000500 */
label000002CC:
000002CC  1D7C 0001 000A           move.b     [A6 + 0xA], 0x1
000002D2  70FF                     moveq.l    D0, 0xFFFFFFFF
000002D4  B046                     cmp.w      D0, D6
000002D6  6700 0228                beq        +0x22A /* 00000500 */
label000002DA:
000002DA  70FF                     moveq.l    D0, 0xFFFFFFFF
000002DC  B046                     cmp.w      D0, D6
000002DE  6700 021C                beq        +0x21E /* 000004FC */
000002E2  206D D448                movea.l    A0, [A5 - 0x2BB8]
000002E6  3006                     move.w     D0, D6
000002E8  5340                     subq.w     D0, 1
000002EA  E740                     asl        D0.w, 3
000002EC  48C0                     ext.l      D0
000002EE  D090                     add.l      D0, [A0]
000002F0  2040                     movea.l    A0, D0
000002F2  43EE FFF8                lea.l      A1, [A6 - 0x8]
000002F6  22D8                     move.l     [A1]+, [A0]+
000002F8  22D8                     move.l     [A1]+, [A0]+
000002FA  486E FFF0                pea.l      [A6 - 0x10]
000002FE  4EBA 3B7E                jsr        [PC + 0x3B7E /* 00003E7E */]
00000302  422E FFEF                clr.b      [A6 - 0x11]
00000306  102E FFFD                move.b     D0, [A6 - 0x3]
0000030A  4880                     ext.w      D0
0000030C  5340                     subq.w     D0, 1
0000030E  671C                     beq        +0x1E /* 0000032C */
00000310  5340                     subq.w     D0, 1
00000312  6700 008E                beq        +0x90 /* 000003A2 */
00000316  5340                     subq.w     D0, 1
00000318  6700 0156                beq        +0x158 /* 00000470 */
0000031C  5340                     subq.w     D0, 1
0000031E  6700 0160                beq        +0x162 /* 00000480 */
00000322  5340                     subq.w     D0, 1
00000324  6700 0176                beq        +0x178 /* 0000049C */
00000328  6000 018E                bra        +0x190 /* 000004B8 */
label0000032C:
0000032C  102E FFFE                move.b     D0, [A6 - 0x2]
00000330  B02D D46A                cmp.b      D0, [A5 - 0x2B96]
00000334  57C0                     seq        D0
00000336  4A00                     tst.b      D0
00000338  6764                     beq        +0x66 /* 0000039E */
0000033A  122E FFFF                move.b     D1, [A6 - 0x1]
0000033E  B22D D46B                cmp.b      D1, [A5 - 0x2B95]
00000342  57C1                     seq        D1
00000344  C001                     and.b      D0, D1
00000346  6756                     beq        +0x58 /* 0000039E */
00000348  1D7C 0001 FFEF           move.b     [A6 - 0x11], 0x1
0000034E  102D 9AD4                move.b     D0, [A5 - 0x652C]
00000352  6720                     beq        +0x22 /* 00000374 */
00000354  486D D46E                pea.l      [A5 - 0x2B92]
00000358  7002                     moveq.l    D0, 0x02
0000035A  2F00                     move.l     -[A7], D0
0000035C  1F3C 0017                move.b     -[A7], 0x17
00000360  4EBA 3370                jsr        [PC + 0x3370 /* 000036D2 */]
00000364  302D B978                move.w     D0, [A5 - 0x4688]
00000368  5340                     subq.w     D0, 1
0000036A  41ED B8F8                lea.l      A0, [A5 - 0x4708]
0000036E  4230 0000                clr.b      [A0 + D0.w]
00000372  6026                     bra        +0x28 /* 0000039A */
label00000374:
00000374  709C                     moveq.l    D0, 0xFFFFFF9C
00000376  B02E FFFC                cmp.b      D0, [A6 - 0x4]
0000037A  671E                     beq        +0x20 /* 0000039A */
0000037C  102E FFFC                move.b     D0, [A6 - 0x4]
00000380  4880                     ext.w      D0
00000382  48C0                     ext.l      D0
00000384  2F00                     move.l     -[A7], D0
00000386  4EBA 36C6                jsr        [PC + 0x36C6 /* 00003A4E */]
0000038A  302D B978                move.w     D0, [A5 - 0x4688]
0000038E  5340                     subq.w     D0, 1
00000390  41ED B8F8                lea.l      A0, [A5 - 0x4708]
00000394  11AE FFFC 0000           move.b     [A0 + D0.w], [A6 - 0x4]
label0000039A:
0000039A  4EBA FD44                jsr        [PC - 0x2BC /* 000000E0 */]
label0000039E:
0000039E  6000 0122                bra        +0x124 /* 000004C2 */
label000003A2:
000003A2  302E FFFE                move.w     D0, [A6 - 0x2]
000003A6  5340                     subq.w     D0, 1
000003A8  41ED CD12                lea.l      A0, [A5 - 0x32EE]
000003AC  E540                     asl        D0.w, 2
000003AE  2870 0000                movea.l    A4, [A0 + D0.w]
000003B2  200C                     move.l     D0, A4
000003B4  57C0                     seq        D0
000003B6  4A00                     tst.b      D0
000003B8  6618                     bne        +0x1A /* 000003D2 */
000003BA  2F00                     move.l     -[A7], D0
000003BC  4267                     clr.w      -[A7]
000003BE  2F0C                     move.l     -[A7], A4
000003C0  205F                     movea.l    A0, [A7]+
000003C2  4E90                     jsr        [A0]
000003C4  121F                     move.b     D1, [A7]+
000003C6  201F                     move.l     D0, [A7]+
000003C8  8001                     or.b       D0, D1
000003CA  0240 0001                andi.w     D0, 0x1
000003CE  6700 009E                beq        +0xA0 /* 0000046E */
label000003D2:
000003D2  206D D450                movea.l    A0, [A5 - 0x2BB0]
000003D6  2050                     movea.l    A0, [A0]
000003D8  302E FFFE                move.w     D0, [A6 - 0x2]
000003DC  D040                     add.w      D0, D0
000003DE  41E8 00EE                lea.l      A0, [A0 + 0xEE]
000003E2  3E30 0000                move.w     D7, [A0 + D0.w]
000003E6  1A2D 9AD4                move.b     D5, [A5 - 0x652C]
000003EA  422D 9AD4                clr.b      [A5 - 0x652C]
000003EE  70FF                     moveq.l    D0, 0xFFFFFFFF
000003F0  B047                     cmp.w      D0, D7
000003F2  57C0                     seq        D0
000003F4  4A00                     tst.b      D0
000003F6  6616                     bne        +0x18 /* 0000040E */
000003F8  2F00                     move.l     -[A7], D0
000003FA  4267                     clr.w      -[A7]
000003FC  3F07                     move.w     -[A7], D7
000003FE  4EBA FEB2                jsr        [PC - 0x14E /* 000002B2 */]
00000402  121F                     move.b     D1, [A7]+
00000404  201F                     move.l     D0, [A7]+
00000406  8001                     or.b       D0, D1
00000408  0240 0001                andi.w     D0, 0x1
0000040C  675C                     beq        +0x5E /* 0000046A */
label0000040E:
0000040E  302E FFFE                move.w     D0, [A6 - 0x2]
00000412  5340                     subq.w     D0, 1
00000414  41ED CE3E                lea.l      A0, [A5 - 0x31C2]
00000418  E540                     asl        D0.w, 2
0000041A  2870 0000                movea.l    A4, [A0 + D0.w]
0000041E  200C                     move.l     D0, A4
00000420  57C0                     seq        D0
00000422  4A00                     tst.b      D0
00000424  6616                     bne        +0x18 /* 0000043C */
00000426  2F00                     move.l     -[A7], D0
00000428  4267                     clr.w      -[A7]
0000042A  2F0C                     move.l     -[A7], A4
0000042C  205F                     movea.l    A0, [A7]+
0000042E  4E90                     jsr        [A0]
00000430  121F                     move.b     D1, [A7]+
00000432  201F                     move.l     D0, [A7]+
00000434  8001                     or.b       D0, D1
00000436  0240 0001                andi.w     D0, 0x1
0000043A  6726                     beq        +0x28 /* 00000462 */
label0000043C:
0000043C  1D7C 0001 FFEF           move.b     [A6 - 0x11], 0x1
00000442  709C                     moveq.l    D0, 0xFFFFFF9C
00000444  B02E FFFC                cmp.b      D0, [A6 - 0x4]
00000448  6606                     bne        +0x8 /* 00000450 */
0000044A  4EAD 1432                jsr        [A5 + 0x1432 /* export_642, CODE:13 @ 000010F2 */]
0000044E  601A                     bra        +0x1C /* 0000046A */
label00000450:
00000450  302D B978                move.w     D0, [A5 - 0x4688]
00000454  5340                     subq.w     D0, 1
00000456  41ED B8F8                lea.l      A0, [A5 - 0x4708]
0000045A  11AE FFFC 0000           move.b     [A0 + D0.w], [A6 - 0x4]
00000460  6008                     bra        +0xA /* 0000046A */
label00000462:
00000462  486E FFF0                pea.l      [A6 - 0x10]
00000466  4EBA 3956                jsr        [PC + 0x3956 /* 00003DBE */]
label0000046A:
0000046A  1B45 9AD4                move.b     [A5 - 0x652C], D5
label0000046E:
0000046E  6052                     bra        +0x54 /* 000004C2 */
label00000470:
00000470  4267                     clr.w      -[A7]
00000472  3F2E FFFE                move.w     -[A7], [A6 - 0x2]
00000476  4EBA FE3A                jsr        [PC - 0x1C6 /* 000002B2 */]
0000047A  1D5F FFEF                move.b     [A6 - 0x11], [A7]+
0000047E  6042                     bra        +0x44 /* 000004C2 */
label00000480:
00000480  2F0E                     move.l     -[A7], A6
00000482  4EBA FD78                jsr        [PC - 0x288 /* 000001FC */]
00000486  102E FFEF                move.b     D0, [A6 - 0x11]
0000048A  660E                     bne        +0x10 /* 0000049A */
0000048C  4267                     clr.w      -[A7]
0000048E  3F2E FFFE                move.w     -[A7], [A6 - 0x2]
00000492  4EBA FE1E                jsr        [PC - 0x1E2 /* 000002B2 */]
00000496  1D5F FFEF                move.b     [A6 - 0x11], [A7]+
label0000049A:
0000049A  6026                     bra        +0x28 /* 000004C2 */
label0000049C:
0000049C  4267                     clr.w      -[A7]
0000049E  3F2E FFFE                move.w     -[A7], [A6 - 0x2]
000004A2  4EBA FE0E                jsr        [PC - 0x1F2 /* 000002B2 */]
000004A6  1D5F FFEF                move.b     [A6 - 0x11], [A7]+
000004AA  102E FFEF                move.b     D0, [A6 - 0x11]
000004AE  6606                     bne        +0x8 /* 000004B6 */
000004B0  2F0E                     move.l     -[A7], A6
000004B2  4EBA FD48                jsr        [PC - 0x2B8 /* 000001FC */]
label000004B6:
000004B6  600A                     bra        +0xC /* 000004C2 */
label000004B8:
000004B8  2F3C 0069 DB9E           move.l     -[A7], 0x69DB9E
000004BE  4EAD 185A                jsr        [A5 + 0x185A /* export_775, CODE:16 @ 0000042E */]
label000004C2:
000004C2  102E FFEF                move.b     D0, [A6 - 0x11]
000004C6  672C                     beq        +0x2E /* 000004F4 */
000004C8  70FF                     moveq.l    D0, 0xFFFFFFFF
000004CA  B06E FFF8                cmp.w      D0, [A6 - 0x8]
000004CE  57C0                     seq        D0
000004D0  4A00                     tst.b      D0
000004D2  662C                     bne        +0x2E /* 00000500 */
000004D4  2F00                     move.l     -[A7], D0
000004D6  4267                     clr.w      -[A7]
000004D8  3F2E FFF8                move.w     -[A7], [A6 - 0x8]
000004DC  4EBA FDD4                jsr        [PC - 0x22C /* 000002B2 */]
000004E0  121F                     move.b     D1, [A7]+
000004E2  201F                     move.l     D0, [A7]+
000004E4  8001                     or.b       D0, D1
000004E6  0240 0001                andi.w     D0, 0x1
000004EA  6614                     bne        +0x16 /* 00000500 */
000004EC  486E FFF0                pea.l      [A6 - 0x10]
000004F0  4EBA 38CC                jsr        [PC + 0x38CC /* 00003DBE */]
label000004F4:
000004F4  3C2E FFFA                move.w     D6, [A6 - 0x6]
000004F8  6000 FDE0                bra        -0x21E /* 000002DA */
label000004FC:
000004FC  422E 000A                clr.b      [A6 + 0xA]
label00000500:
00000500  4CDF 10E0                movem.l    D5,D6,D7,A4, [A7]+
00000504  4E5E                     unlink     A6
00000506  205F                     movea.l    A0, [A7]+
00000508  544F                     addq.w     A7, 2
0000050A  4ED0                     jmp        [A0]
export_286:
0000050C  4E56 FE00                link       A6, -0x0200
00000510  206E 000C                movea.l    A0, [A6 + 0xC]
00000514  43EE FF00                lea.l      A1, [A6 - 0x100]
00000518  703F                     moveq.l    D0, 0x3F
label0000051A:
0000051A  22D8                     move.l     [A1]+, [A0]+
0000051C  51C8 FFFC                dbf        D0, -0x6 /* 0000051A */
00000520  2F2E 0008                move.l     -[A7], [A6 + 0x8]
00000524  486E FE00                pea.l      [A6 - 0x200]
00000528  4EBA 0D30                jsr        [PC + 0xD30 /* 0000125A */]
0000052C  486E FF00                pea.l      [A6 - 0x100]
00000530  486E FE00                pea.l      [A6 - 0x200]
00000534  4EBA 0534                jsr        [PC + 0x534 /* 00000A6A */]
00000538  4E5E                     unlink     A6
0000053A  205F                     movea.l    A0, [A7]+
0000053C  504F                     addq.w     A7, 8
0000053E  4ED0                     jmp        [A0]
export_287:
00000540  4E56 FEE8                link       A6, -0x0118
00000544  48E7 0F18                movem.l    -[A7], D4,D5,D6,D7,A3,A4
00000548  382E 000A                move.w     D4, [A6 + 0xA]
0000054C  7000                     moveq.l    D0, 0x00
0000054E  2840                     movea.l    A4, D0
00000550  4A6E 000C                tst.w      [A6 + 0xC]
00000554  6F00 0092                ble        +0x94 /* 000005E8 */
00000558  70FF                     moveq.l    D0, 0xFFFFFFFF
0000055A  B044                     cmp.w      D0, D4
0000055C  6604                     bne        +0x6 /* 00000562 */
0000055E  6000 0088                bra        +0x8A /* 000005E8 */
label00000562:
00000562  42A7                     clr.l      -[A7]
00000564  7002                     moveq.l    D0, 0x02
00000566  2F00                     move.l     -[A7], D0
00000568  4EAD 18DA                jsr        [A5 + 0x18DA /* export_791, CODE:16 @ 00000896 */]
0000056C  285F                     movea.l    A4, [A7]+
0000056E  2C14                     move.l     D6, [A4]
00000570  2046                     movea.l    A0, D6
00000572  4250                     clr.w      [A0]
00000574  4267                     clr.w      -[A7]
00000576  A99B                     syscall    SetResLoad
00000578  70FF                     moveq.l    D0, 0xFFFFFFFF
0000057A  B044                     cmp.w      D0, D4
0000057C  6602                     bne        +0x4 /* 00000580 */
0000057E  6068                     bra        +0x6A /* 000005E8 */
label00000580:
00000580  4267                     clr.w      -[A7]
00000582  A994                     syscall    CurResFile
00000584  3A1F                     move.w     D5, [A7]+
00000586  3F04                     move.w     -[A7], D4
00000588  A998                     syscall    UseResFile
0000058A  3D6E 000C FEE8           move.w     [A6 - 0x118], [A6 + 0xC]
00000590  7E01                     moveq.l    D7, 0x01
00000592  6044                     bra        +0x46 /* 000005D8 */
label00000594:
00000594  102E 0008                move.b     D0, [A6 + 0x8]
00000598  670E                     beq        +0x10 /* 000005A8 */
0000059A  42A7                     clr.l      -[A7]
0000059C  2F2E 000E                move.l     -[A7], [A6 + 0xE]
000005A0  3F07                     move.w     -[A7], D7
000005A2  A80E                     syscall    Get1IndResource/Get1IxResource
000005A4  265F                     movea.l    A3, [A7]+
000005A6  600C                     bra        +0xE /* 000005B4 */
label000005A8:
000005A8  42A7                     clr.l      -[A7]
000005AA  2F2E 000E                move.l     -[A7], [A6 + 0xE]
000005AE  3F07                     move.w     -[A7], D7
000005B0  A99D                     syscall    GetIndResource
000005B2  265F                     movea.l    A3, [A7]+
label000005B4:
000005B4  200B                     move.l     D0, A3
000005B6  6602                     bne        +0x4 /* 000005BA */
000005B8  601A                     bra        +0x1C /* 000005D4 */
label000005BA:
000005BA  2F0B                     move.l     -[A7], A3
000005BC  486E FEEC                pea.l      [A6 - 0x114]
000005C0  486E FEEE                pea.l      [A6 - 0x112]
000005C4  486E FEF2                pea.l      [A6 - 0x10E]
000005C8  A9A8                     syscall    GetResInfo
000005CA  486E FEF2                pea.l      [A6 - 0x10E]
000005CE  2F0C                     move.l     -[A7], A4
000005D0  4EAD 1992                jsr        [A5 + 0x1992 /* export_814, CODE:16 @ 00001036 */]
label000005D4:
000005D4  5247                     addq.w     D7, 1
000005D6  6906                     bvs        +0x8 /* 000005DE */
label000005D8:
000005D8  BE6E FEE8                cmp.w      D7, [A6 - 0x118]
000005DC  6FB6                     ble        -0x48 /* 00000594 */
label000005DE:
000005DE  3F05                     move.w     -[A7], D5
000005E0  A998                     syscall    UseResFile
000005E2  1F3C 0001                move.b     -[A7], 0x1
000005E6  A99B                     syscall    SetResLoad
label000005E8:
000005E8  2D4C 0012                move.l     [A6 + 0x12], A4
000005EC  4CDF 18F0                movem.l    D4,D5,D6,D7,A3,A4, [A7]+
000005F0  4E5E                     unlink     A6
000005F2  205F                     movea.l    A0, [A7]+
000005F4  DEFC 000A                add.w      A7, 0xA /* '\n' */
000005F8  4ED0                     jmp        [A0]
export_288:
fn000005FA:
000005FA  4E56 0000                link       A6, 0
000005FE  426D B3D6                clr.w      [A5 - 0x4C2A]
00000602  2F2D B42A                move.l     -[A7], [A5 - 0x4BD6]
00000606  4EAD 0222                jsr        [A5 + 0x222 /* export_64, CODE:1 @ 00004678 */]
0000060A  486D B3D4                pea.l      [A5 - 0x4C2C]
0000060E  206D B42A                movea.l    A0, [A5 - 0x4BD6]
00000612  2F10                     move.l     -[A7], [A0]
00000614  205F                     movea.l    A0, [A7]+
00000616  4E90                     jsr        [A0]
00000618  2F2D B42A                move.l     -[A7], [A5 - 0x4BD6]
0000061C  4EAD 022A                jsr        [A5 + 0x22A /* export_65, CODE:1 @ 00004682 */]
00000620  4E5E                     unlink     A6
00000622  4E75                     rts
export_289:
00000624  4E56 FFEC                link       A6, -0x0014
00000628  7000                     moveq.l    D0, 0x00
0000062A  2D40 FFEC                move.l     [A6 - 0x14], D0
0000062E  2F2E 0008                move.l     -[A7], [A6 + 0x8]
00000632  4EBA 344E                jsr        [PC + 0x344E /* 00003A82 */]
00000636  4267                     clr.w      -[A7]
00000638  4EBA 2C5C                jsr        [PC + 0x2C5C /* 00003296 */]
0000063C  101F                     move.b     D0, [A7]+
0000063E  672A                     beq        +0x2C /* 0000066A */
00000640  486E FFF0                pea.l      [A6 - 0x10]
00000644  7010                     moveq.l    D0, 0x10
00000646  2F00                     move.l     -[A7], D0
00000648  1F3C 0006                move.b     -[A7], 0x6
0000064C  4EAD 146A                jsr        [A5 + 0x146A /* export_649, CODE:13 @ 00001620 */]
00000650  102E FFF0                move.b     D0, [A6 - 0x10]
00000654  670E                     beq        +0x10 /* 00000664 */
00000656  486E FFF2                pea.l      [A6 - 0xE]
0000065A  486E FFEC                pea.l      [A6 - 0x14]
0000065E  4EAD 028A                jsr        [A5 + 0x28A /* export_77, CODE:1 @ 00004732 */]
00000662  6006                     bra        +0x8 /* 0000066A */
label00000664:
00000664  2D6E FFF2 FFEC           move.l     [A6 - 0x14], [A6 - 0xE]
label0000066A:
0000066A  2D6E FFEC 000C           move.l     [A6 + 0xC], [A6 - 0x14]
00000670  4E5E                     unlink     A6
00000672  2E9F                     move.l     [A7], [A7]+
00000674  4E75                     rts
export_290:
fn00000676:
00000676  4E56 FFFE                link       A6, -0x0002
0000067A  2F07                     move.l     -[A7], D7
0000067C  7E01                     moveq.l    D7, 0x01
0000067E  6008                     bra        +0xA /* 00000688 */
label00000680:
00000680  3F07                     move.w     -[A7], D7
00000682  4EBA 0010                jsr        [PC + 0x10 /* 00000694 */]
00000686  5247                     addq.w     D7, 1
label00000688:
00000688  7003                     moveq.l    D0, 0x03
0000068A  B047                     cmp.w      D0, D7
0000068C  6CF2                     bge        -0xC /* 00000680 */
0000068E  2E1F                     move.l     D7, [A7]+
00000690  4E5E                     unlink     A6
00000692  4E75                     rts
export_291:
fn00000694:
00000694  4E56 FFAA                link       A6, -0x0056
00000698  48E7 0108                movem.l    -[A7], D7,A4
0000069C  302E 0008                move.w     D0, [A6 + 0x8]
000006A0  5340                     subq.w     D0, 1
000006A2  41ED BF02                lea.l      A0, [A5 - 0x40FE]
000006A6  C1FC 0104                muls.w     D0, 0x104
000006AA  49F0 0000                lea.l      A4, [A0 + D0.w]
000006AE  4A6C 0100                tst.w      [A4 + 0x100]
000006B2  6602                     bne        +0x4 /* 000006B6 */
000006B4  6064                     bra        +0x66 /* 0000071A */
label000006B6:
000006B6  102C 0102                move.b     D0, [A4 + 0x102]
000006BA  6724                     beq        +0x26 /* 000006E0 */
000006BC  4267                     clr.w      -[A7]
000006BE  3F2C 0100                move.w     -[A7], [A4 + 0x100]
000006C2  486E FFFC                pea.l      [A6 - 0x4]
000006C6  4EAD 0362                jsr        [A5 + 0x362 /* export_104, CODE:1 @ 00004ACC */]
000006CA  3E1F                     move.w     D7, [A7]+
000006CC  4A47                     tst.w      D7
000006CE  6610                     bne        +0x12 /* 000006E0 */
000006D0  4267                     clr.w      -[A7]
000006D2  3F2C 0100                move.w     -[A7], [A4 + 0x100]
000006D6  2F2E FFFC                move.l     -[A7], [A6 - 0x4]
000006DA  4EAD 035A                jsr        [A5 + 0x35A /* export_103, CODE:1 @ 00004AAA */]
000006DE  3E1F                     move.w     D7, [A7]+
label000006E0:
000006E0  486E FFAA                pea.l      [A6 - 0x56]
000006E4  7050                     moveq.l    D0, 0x50
000006E6  2F00                     move.l     -[A7], D0
000006E8  4EAD 1B42                jsr        [A5 + 0x1B42 /* export_868, CODE:16 @ 00001E7C */]
000006EC  3D6C 0100 FFC2           move.w     [A6 - 0x3E], [A4 + 0x100]
000006F2  102C 0102                move.b     D0, [A4 + 0x102]
000006F6  670E                     beq        +0x10 /* 00000706 */
000006F8  4267                     clr.w      -[A7]
000006FA  486E FFAA                pea.l      [A6 - 0x56]
000006FE  4267                     clr.w      -[A7]
00000700  4EAD 02E2                jsr        [A5 + 0x2E2 /* export_88, CODE:1 @ 00004820 */]
00000704  3E1F                     move.w     D7, [A7]+
label00000706:
00000706  4267                     clr.w      -[A7]
00000708  486E FFAA                pea.l      [A6 - 0x56]
0000070C  4267                     clr.w      -[A7]
0000070E  4EAD 02B2                jsr        [A5 + 0x2B2 /* export_82, CODE:1 @ 000047B4 */]
00000712  3E1F                     move.w     D7, [A7]+
00000714  426C 0100                clr.w      [A4 + 0x100]
00000718  4214                     clr.b      [A4]
label0000071A:
0000071A  4CDF 1080                movem.l    D7,A4, [A7]+
0000071E  4E5E                     unlink     A6
00000720  205F                     movea.l    A0, [A7]+
00000722  544F                     addq.w     A7, 2
00000724  4ED0                     jmp        [A0]
export_292:
00000726  4E56 FFFE                link       A6, -0x0002
0000072A  102D DC51                move.b     D0, [A5 - 0x23AF]
0000072E  670C                     beq        +0xE /* 0000073C */
00000730  3F3C 0009                move.w     -[A7], 0x9 /* '\t' */
00000734  4EAD 076A                jsr        [A5 + 0x76A /* export_233, CODE:4 @ 00002A1A */]
00000738  4EAD 155A                jsr        [A5 + 0x155A /* export_679, CODE:15 @ 00000242 */]
label0000073C:
0000073C  4EBA FF38                jsr        [PC - 0xC8 /* 00000676 */]
00000740  3F2D F4F8                move.w     -[A7], [A5 - 0xB08]
00000744  4EAD 18CA                jsr        [A5 + 0x18CA /* export_789, CODE:16 @ 00000806 */]
00000748  4EBA 0058                jsr        [PC + 0x58 /* 000007A2 */]
0000074C  4EAD 184A                jsr        [A5 + 0x184A /* export_773, CODE:16 @ 000003F8 */]
00000750  2F2D AAE6                move.l     -[A7], [A5 - 0x551A]
00000754  3F3C A9C8                move.w     -[A7], 0xA9C8
00000758  4EAD 026A                jsr        [A5 + 0x26A /* export_73, CODE:1 @ 000046F6 */]
0000075C  2F2D E20A                move.l     -[A7], [A5 - 0x1DF6]
00000760  3F3C A8EF                move.w     -[A7], 0xA8EF
00000764  4EAD 026A                jsr        [A5 + 0x26A /* export_73, CODE:1 @ 000046F6 */]
00000768  2F2D E20E                move.l     -[A7], [A5 - 0x1DF2]
0000076C  3F3C A937                move.w     -[A7], 0xA937
00000770  4EAD 026A                jsr        [A5 + 0x26A /* export_73, CODE:1 @ 000046F6 */]
00000774  4EAD 1862                jsr        [A5 + 0x1862 /* export_776, CODE:16 @ 00000474 */]
00000778  2F2D EDBC                move.l     -[A7], [A5 - 0x1244]
0000077C  A914                     syscall    DisposeWindow
0000077E  2F2D EDC0                move.l     -[A7], [A5 - 0x1240]
00000782  A914                     syscall    DisposeWindow
00000784  2F2D EDC4                move.l     -[A7], [A5 - 0x123C]
00000788  A914                     syscall    DisposeWindow
0000078A  2F2D EDB8                move.l     -[A7], [A5 - 0x1248]
0000078E  A914                     syscall    DisposeWindow
00000790  2F2D EDC8                move.l     -[A7], [A5 - 0x1238]
00000794  A914                     syscall    DisposeWindow
00000796  4EAD 223A                jsr        [A5 + 0x223A /* export_1091, CODE:20 @ 00004CBC */]
0000079A  A934                     syscall    ClearMenuBar
0000079C  A937                     syscall    DrawMenuBar
0000079E  4E5E                     unlink     A6
000007A0  4E75                     rts
export_293:
fn000007A2:
000007A2  4E56 FFFE                link       A6, -0x0002
000007A6  102D D479                move.b     D0, [A5 - 0x2B87]
000007AA  6602                     bne        +0x4 /* 000007AE */
000007AC  6018                     bra        +0x1A /* 000007C6 */
label000007AE:
000007AE  4EBA 3EC4                jsr        [PC + 0x3EC4 /* 00004674 */]
000007B2  4267                     clr.w      -[A7]
000007B4  2F2D AF14                move.l     -[A7], [A5 - 0x50EC]
000007B8  1F3C 0001                move.b     -[A7], 0x1
000007BC  A801                     syscall    SndDisposeChannel
000007BE  3D5F FFFE                move.w     [A6 - 0x2], [A7]+
000007C2  422D D479                clr.b      [A5 - 0x2B87]
label000007C6:
000007C6  4E5E                     unlink     A6
000007C8  4E75                     rts
export_294:
000007CA  4E56 0000                link       A6, 0
000007CE  426E 0010                clr.w      [A6 + 0x10]
000007D2  206E 000C                movea.l    A0, [A6 + 0xC]
000007D6  226E 0008                movea.l    A1, [A6 + 0x8]
000007DA  2F09                     move.l     -[A7], A1
000007DC  2F08                     move.l     -[A7], A0
000007DE  3F3C 000A                move.w     -[A7], 0xA /* '\n' */
000007E2  A9EB                     syscall    Pack4/FP68K
000007E4  6F08                     ble        +0xA /* 000007EE */
000007E6  3D7C 0001 0010           move.w     [A6 + 0x10], 0x1
000007EC  601A                     bra        +0x1C /* 00000808 */
label000007EE:
000007EE  206E 000C                movea.l    A0, [A6 + 0xC]
000007F2  226E 0008                movea.l    A1, [A6 + 0x8]
000007F6  2F09                     move.l     -[A7], A1
000007F8  2F08                     move.l     -[A7], A0
000007FA  3F3C 000A                move.w     -[A7], 0xA /* '\n' */
000007FE  A9EB                     syscall    Pack4/FP68K
00000800  6406                     bcc        +0x8 /* 00000808 */
00000802  3D7C FFFF 0010           move.w     [A6 + 0x10], 0xFFFF
label00000808:
00000808  4E5E                     unlink     A6
0000080A  205F                     movea.l    A0, [A7]+
0000080C  504F                     addq.w     A7, 8
0000080E  4ED0                     jmp        [A0]
export_295:
00000810  4E56 0000                link       A6, 0
00000814  4267                     clr.w      -[A7]
00000816  202E 000C                move.l     D0, [A6 + 0xC]
0000081A  5480                     addq.l     D0, 2
0000081C  2F00                     move.l     -[A7], D0
0000081E  202E 0008                move.l     D0, [A6 + 0x8]
00000822  5480                     addq.l     D0, 2
00000824  2F00                     move.l     -[A7], D0
00000826  206E 000C                movea.l    A0, [A6 + 0xC]
0000082A  3F10                     move.w     -[A7], [A0]
0000082C  206E 0008                movea.l    A0, [A6 + 0x8]
00000830  3F10                     move.w     -[A7], [A0]
00000832  4EAD 043A                jsr        [A5 + 0x43A /* export_131, CODE:1 @ 00004D52 */]
00000836  3D5F 0010                move.w     [A6 + 0x10], [A7]+
0000083A  4E5E                     unlink     A6
0000083C  205F                     movea.l    A0, [A7]+
0000083E  504F                     addq.w     A7, 8
00000840  4ED0                     jmp        [A0]
export_296:
00000842  4E56 FFEE                link       A6, -0x0012
00000846  48E7 0F18                movem.l    -[A7], D4,D5,D6,D7,A3,A4
0000084A  206E 000C                movea.l    A0, [A6 + 0xC]
0000084E  3A10                     move.w     D5, [A0]
00000850  206E 0008                movea.l    A0, [A6 + 0x8]
00000854  3E10                     move.w     D7, [A0]
00000856  3C05                     move.w     D6, D5
00000858  BC47                     cmp.w      D6, D7
0000085A  6F02                     ble        +0x4 /* 0000085E */
0000085C  3C07                     move.w     D6, D7
label0000085E:
0000085E  286E 000C                movea.l    A4, [A6 + 0xC]
00000862  548C                     addq.l     A4, 2
00000864  266E 0008                movea.l    A3, [A6 + 0x8]
00000868  548B                     addq.l     A3, 2
label0000086A:
0000086A  4A46                     tst.w      D6
0000086C  6F42                     ble        +0x44 /* 000008B0 */
0000086E  4267                     clr.w      -[A7]
00000870  1F14                     move.b     -[A7], [A4]
00000872  4EAD 1A4A                jsr        [A5 + 0x1A4A /* export_837, CODE:16 @ 00001570 */]
00000876  101F                     move.b     D0, [A7]+
00000878  4880                     ext.w      D0
0000087A  3800                     move.w     D4, D0
0000087C  4267                     clr.w      -[A7]
0000087E  1F13                     move.b     -[A7], [A3]
00000880  4EAD 1A4A                jsr        [A5 + 0x1A4A /* export_837, CODE:16 @ 00001570 */]
00000884  101F                     move.b     D0, [A7]+
00000886  4880                     ext.w      D0
00000888  3D40 FFF0                move.w     [A6 - 0x10], D0
0000088C  B86E FFF0                cmp.w      D4, [A6 - 0x10]
00000890  6F08                     ble        +0xA /* 0000089A */
00000892  3D7C 0001 0010           move.w     [A6 + 0x10], 0x1
00000898  602E                     bra        +0x30 /* 000008C8 */
label0000089A:
0000089A  B86E FFF0                cmp.w      D4, [A6 - 0x10]
0000089E  6C08                     bge        +0xA /* 000008A8 */
000008A0  3D7C FFFF 0010           move.w     [A6 + 0x10], 0xFFFF
000008A6  6020                     bra        +0x22 /* 000008C8 */
label000008A8:
000008A8  528C                     addq.l     A4, 1
000008AA  528B                     addq.l     A3, 1
000008AC  5346                     subq.w     D6, 1
000008AE  60BA                     bra        -0x44 /* 0000086A */
label000008B0:
000008B0  426E 0010                clr.w      [A6 + 0x10]
000008B4  BE45                     cmp.w      D7, D5
000008B6  6C06                     bge        +0x8 /* 000008BE */
000008B8  3D7C 0001 0010           move.w     [A6 + 0x10], 0x1
label000008BE:
000008BE  BE45                     cmp.w      D7, D5
000008C0  6F06                     ble        +0x8 /* 000008C8 */
000008C2  3D7C FFFF 0010           move.w     [A6 + 0x10], 0xFFFF
label000008C8:
000008C8  4CDF 18F0                movem.l    D4,D5,D6,D7,A3,A4, [A7]+
000008CC  4E5E                     unlink     A6
000008CE  205F                     movea.l    A0, [A7]+
000008D0  504F                     addq.w     A7, 8
000008D2  4ED0                     jmp        [A0]
export_297:
fn000008D4:
000008D4  4E56 FDEA                link       A6, -0x0216
000008D8  48E7 0108                movem.l    -[A7], D7,A4
000008DC  206E 0008                movea.l    A0, [A6 + 0x8]
000008E0  43EE FF00                lea.l      A1, [A6 - 0x100]
000008E4  703F                     moveq.l    D0, 0x3F
label000008E6:
000008E6  22D8                     move.l     [A1]+, [A0]+
000008E8  51C8 FFFC                dbf        D0, -0x6 /* 000008E6 */
000008EC  102D DC51                move.b     D0, [A5 - 0x23AF]
000008F0  670C                     beq        +0xE /* 000008FE */
000008F2  3F3C 0009                move.w     -[A7], 0x9 /* '\t' */
000008F6  4EAD 076A                jsr        [A5 + 0x76A /* export_233, CODE:4 @ 00002A1A */]
000008FA  4EAD 155A                jsr        [A5 + 0x155A /* export_679, CODE:15 @ 00000242 */]
label000008FE:
000008FE  4267                     clr.w      -[A7]
00000900  4EAD 17FA                jsr        [A5 + 0x17FA /* export_763, CODE:16 @ 0000009E */]
00000904  101F                     move.b     D0, [A7]+
00000906  802D AAE3                or.b       D0, [A5 - 0x551D]
0000090A  1B40 AAE3                move.b     [A5 - 0x551D], D0
0000090E  6704                     beq        +0x6 /* 00000914 */
00000910  6000 014C                bra        +0x14E /* 00000A5E */
label00000914:
00000914  1B7C 0001 AAE3           move.b     [A5 - 0x551D], 0x1
0000091A  4A6D AADC                tst.w      [A5 - 0x5524]
0000091E  6E34                     bgt        +0x36 /* 00000954 */
00000920  102D AAE2                move.b     D0, [A5 - 0x551E]
00000924  672A                     beq        +0x2C /* 00000950 */
00000926  206D AADE                movea.l    A0, [A5 - 0x5522]
0000092A  2050                     movea.l    A0, [A0]
0000092C  4A50                     tst.w      [A0]
0000092E  6614                     bne        +0x16 /* 00000944 */
00000930  487A 0136                pea.l      [PC + 0x136 /* 00000A68, value 0x4E56 'NV', cstring "" */]
00000934  487A 0132                pea.l      [PC + 0x132 /* 00000A68, value 0x4E56 'NV', cstring "" */]
00000938  487A 012E                pea.l      [PC + 0x12E /* 00000A68, value 0x4E56 'NV', cstring "" */]
0000093C  487A 012A                pea.l      [PC + 0x12A /* 00000A68, value 0x4E56 'NV', cstring "" */]
00000940  4EBA 2682                jsr        [PC + 0x2682 /* 00002FC4 */]
label00000944:
00000944  486E FF00                pea.l      [A6 - 0x100]
00000948  2F2D AADE                move.l     -[A7], [A5 - 0x5522]
0000094C  4EAD 1992                jsr        [A5 + 0x1992 /* export_814, CODE:16 @ 00001036 */]
label00000950:
00000950  6000 010C                bra        +0x10E /* 00000A5E */
label00000954:
00000954  4EAD 10BA                jsr        [A5 + 0x10BA /* export_531, CODE:9 @ 000048B6 */]
00000958  2F3C 0000 FFFF           move.l     -[A7], 0xFFFF
0000095E  201F                     move.l     D0, [A7]+
00000960  A032                     syscall    FlushEvents
00000962  426D A892                clr.w      [A5 - 0x576E]
00000966  7E01                     moveq.l    D7, 0x01
00000968  41ED 9A82                lea.l      A0, [A5 - 0x657E]
0000096C  B1ED A80C                cmpa.l     A0, [A5 - 0x57F4]
00000970  57C0                     seq        D0
00000972  4A00                     tst.b      D0
00000974  661A                     bne        +0x1C /* 00000990 */
00000976  7205                     moveq.l    D1, 0x05
00000978  B26D F02C                cmp.w      D1, [A5 - 0xFD4]
0000097C  5EC1                     sgt        D1
0000097E  8001                     or.b       D0, D1
00000980  660E                     bne        +0x10 /* 00000990 */
00000982  206D A80C                movea.l    A0, [A5 - 0x57F4]
00000986  4AA8 003A                tst.l      [A0 + 0x3A]
0000098A  57C1                     seq        D1
0000098C  8001                     or.b       D0, D1
0000098E  6702                     beq        +0x4 /* 00000992 */
label00000990:
00000990  4207                     clr.b      D7
label00000992:
00000992  4EAD 1862                jsr        [A5 + 0x1862 /* export_776, CODE:16 @ 00000474 */]
00000996  42A7                     clr.l      -[A7]
00000998  3F3C 0694                move.w     -[A7], 0x694
0000099C  42A7                     clr.l      -[A7]
0000099E  70FF                     moveq.l    D0, 0xFFFFFFFF
000009A0  2F00                     move.l     -[A7], D0
000009A2  A97C                     syscall    GetNewDialog
000009A4  285F                     movea.l    A4, [A7]+
000009A6  1007                     move.b     D0, D7
000009A8  670A                     beq        +0xC /* 000009B4 */
000009AA  2F0C                     move.l     -[A7], A4
000009AC  3F3C 0002                move.w     -[A7], 0x2
000009B0  A828                     syscall    ShowDialogItem/ShowDItem
000009B2  6008                     bra        +0xA /* 000009BC */
label000009B4:
000009B4  2F0C                     move.l     -[A7], A4
000009B6  3F3C 0002                move.w     -[A7], 0x2
000009BA  A827                     syscall    HideDialogItem/HideDItem
label000009BC:
000009BC  2F0C                     move.l     -[A7], A4
000009BE  3F3C 0003                move.w     -[A7], 0x3
000009C2  486E FEF8                pea.l      [A6 - 0x108]
000009C6  486E FEF4                pea.l      [A6 - 0x10C]
000009CA  486E FEEC                pea.l      [A6 - 0x114]
000009CE  A98D                     syscall    GetDialogItem/GetDItem
000009D0  2F2E FEF4                move.l     -[A7], [A6 - 0x10C]
000009D4  486E FF00                pea.l      [A6 - 0x100]
000009D8  A98F                     syscall    SetDialogItemText/SetIText
000009DA  2F0C                     move.l     -[A7], A4
000009DC  4EAD 182A                jsr        [A5 + 0x182A /* export_769, CODE:16 @ 000002AC */]
000009E0  2F0C                     move.l     -[A7], A4
000009E2  A915                     syscall    ShowWindow
000009E4  2F0C                     move.l     -[A7], A4
000009E6  4EAD 186A                jsr        [A5 + 0x186A /* export_777, CODE:16 @ 00000490 */]
label000009EA:
000009EA  486D 17EA                pea.l      [A5 + 0x17EA /* export_761, CODE:16 @ 00000000 */]
000009EE  486E FEFA                pea.l      [A6 - 0x106]
000009F2  A991                     syscall    ModalDialog
000009F4  7001                     moveq.l    D0, 0x01
000009F6  B06E FEFA                cmp.w      D0, [A6 - 0x106]
000009FA  57C0                     seq        D0
000009FC  7202                     moveq.l    D1, 0x02
000009FE  B26E FEFA                cmp.w      D1, [A6 - 0x106]
00000A02  57C1                     seq        D1
00000A04  8001                     or.b       D0, D1
00000A06  67E2                     beq        -0x1C /* 000009EA */
00000A08  2F0C                     move.l     -[A7], A4
00000A0A  4EAD 201A                jsr        [A5 + 0x201A /* export_1023, CODE:20 @ 000002FA */]
00000A0E  4EAD 22A2                jsr        [A5 + 0x22A2 /* export_1104, CODE:20 @ 00005D82 */]
00000A12  7002                     moveq.l    D0, 0x02
00000A14  B06E FEFA                cmp.w      D0, [A6 - 0x106]
00000A18  6638                     bne        +0x3A /* 00000A52 */
00000A1A  4267                     clr.w      -[A7]
00000A1C  206D A80C                movea.l    A0, [A5 - 0x57F4]
00000A20  4868 0020                pea.l      [A0 + 0x20]
00000A24  1F3C 0001                move.b     -[A7], 0x1
00000A28  4EAD 0E8A                jsr        [A5 + 0xE8A /* export_461, CODE:9 @ 00002B04 */]
00000A2C  101F                     move.b     D0, [A7]+
00000A2E  6622                     bne        +0x24 /* 00000A52 */
00000A30  486E FDEA                pea.l      [A6 - 0x216]
00000A34  3F3C 0064                move.w     -[A7], 0x64 /* 'd' */
00000A38  4EBA 05B6                jsr        [PC + 0x5B6 /* 00000FF0 */]
00000A3C  487A 002A                pea.l      [PC + 0x2A /* 00000A68, value 0x4E56 'NV', cstring "" */]
00000A40  487A 0026                pea.l      [PC + 0x26 /* 00000A68, value 0x4E56 'NV', cstring "" */]
00000A44  487A 0022                pea.l      [PC + 0x22 /* 00000A68, value 0x4E56 'NV', cstring "" */]
00000A48  A98B                     syscall    ParamText
00000A4A  3F3C 0C1C                move.w     -[A7], 0xC1C
00000A4E  4EAD 1942                jsr        [A5 + 0x1942 /* export_804, CODE:16 @ 00000C94 */]
label00000A52:
00000A52  4EAD 192A                jsr        [A5 + 0x192A /* export_801, CODE:16 @ 00000C2C */]
00000A56  42A7                     clr.l      -[A7]
00000A58  A975                     syscall    TickCount
00000A5A  2B5F FD8E                move.l     [A5 - 0x272], [A7]+
label00000A5E:
00000A5E  4CDF 1080                movem.l    D7,A4, [A7]+
00000A62  4E5E                     unlink     A6
00000A64  2E9F                     move.l     [A7], [A7]+
00000A66  4E75                     rts
00000A68  0000 4E56                ori.b      D0, 0x56 /* 'V' */
// begin alternate branch 00000A6A-00000A6E
export_298:
fn00000A6A:
00000A6A  4E56 FD00                link       A6, -0x0300
// end alternate branch 00000A6A-00000A6E
export_298: // at 00000A6A (misaligned)
fn00000A6A: // (misaligned)
00000A6C  FD00                     .extension 0xD00 <<F/4-5/6>> // unimplemented
00000A6E  206E 000C                movea.l    A0, [A6 + 0xC]
00000A72  43EE FF00                lea.l      A1, [A6 - 0x100]
00000A76  703F                     moveq.l    D0, 0x3F
label00000A78:
00000A78  22D8                     move.l     [A1]+, [A0]+
00000A7A  51C8 FFFC                dbf        D0, -0x6 /* 00000A78 */
00000A7E  206E 0008                movea.l    A0, [A6 + 0x8]
00000A82  43EE FE00                lea.l      A1, [A6 - 0x200]
00000A86  703F                     moveq.l    D0, 0x3F
label00000A88:
00000A88  22D8                     move.l     [A1]+, [A0]+
00000A8A  51C8 FFFC                dbf        D0, -0x6 /* 00000A88 */
00000A8E  486E FF00                pea.l      [A6 - 0x100]
00000A92  486E FE00                pea.l      [A6 - 0x200]
00000A96  486E FD00                pea.l      [A6 - 0x300]
00000A9A  3F3C 0002                move.w     -[A7], 0x2
00000A9E  4EAD 050A                jsr        [A5 + 0x50A /* export_157, CODE:1 @ 0000531E */]
00000AA2  486E FD00                pea.l      [A6 - 0x300]
00000AA6  4EBA FE2C                jsr        [PC - 0x1D4 /* 000008D4 */]
00000AAA  4E5E                     unlink     A6
00000AAC  205F                     movea.l    A0, [A7]+
00000AAE  504F                     addq.w     A7, 8
00000AB0  4ED0                     jmp        [A0]
export_299:
fn00000AB2:
00000AB2  4E56 FE00                link       A6, -0x0200
00000AB6  206E 0008                movea.l    A0, [A6 + 0x8]
00000ABA  43EE FF00                lea.l      A1, [A6 - 0x100]
00000ABE  703F                     moveq.l    D0, 0x3F
label00000AC0:
00000AC0  22D8                     move.l     [A1]+, [A0]+
00000AC2  51C8 FFFC                dbf        D0, -0x6 /* 00000AC0 */
00000AC6  486E FE00                pea.l      [A6 - 0x200]
00000ACA  3F3C 03EA                move.w     -[A7], 0x3EA
00000ACE  3F2E 000C                move.w     -[A7], [A6 + 0xC]
00000AD2  4EAD 048A                jsr        [A5 + 0x48A /* export_141, CODE:1 @ 00004E6C */]
00000AD6  486E FF00                pea.l      [A6 - 0x100]
00000ADA  487A 001E                pea.l      [PC + 0x1E /* 00000AFA, value 0x4E56 'NV', cstring "" */]
00000ADE  487A 001A                pea.l      [PC + 0x1A /* 00000AFA, value 0x4E56 'NV', cstring "" */]
00000AE2  487A 0016                pea.l      [PC + 0x16 /* 00000AFA, value 0x4E56 'NV', cstring "" */]
00000AE6  4EBA 24DC                jsr        [PC + 0x24DC /* 00002FC4 */]
00000AEA  486E FE00                pea.l      [A6 - 0x200]
00000AEE  4EBA FDE4                jsr        [PC - 0x21C /* 000008D4 */]
00000AF2  4E5E                     unlink     A6
00000AF4  205F                     movea.l    A0, [A7]+
00000AF6  5C4F                     addq.w     A7, 6
00000AF8  4ED0                     jmp        [A0]
00000AFA  0000 4E56                ori.b      D0, 0x56 /* 'V' */
// begin alternate branch 00000AFC-00000B00
export_300:
00000AFC  4E56 FD00                link       A6, -0x0300
// end alternate branch 00000AFC-00000B00
export_300: // at 00000AFC (misaligned)
00000AFE  FD00                     .extension 0xD00 <<F/4-5/6>> // unimplemented
00000B00  206E 000C                movea.l    A0, [A6 + 0xC]
00000B04  43EE FF00                lea.l      A1, [A6 - 0x100]
00000B08  703F                     moveq.l    D0, 0x3F
label00000B0A:
00000B0A  22D8                     move.l     [A1]+, [A0]+
00000B0C  51C8 FFFC                dbf        D0, -0x6 /* 00000B0A */
00000B10  206E 0008                movea.l    A0, [A6 + 0x8]
00000B14  43EE FE00                lea.l      A1, [A6 - 0x200]
00000B18  703F                     moveq.l    D0, 0x3F
label00000B1A:
00000B1A  22D8                     move.l     [A1]+, [A0]+
00000B1C  51C8 FFFC                dbf        D0, -0x6 /* 00000B1A */
00000B20  486E FD00                pea.l      [A6 - 0x300]
00000B24  3F3C 03EA                move.w     -[A7], 0x3EA
00000B28  3F2E 0010                move.w     -[A7], [A6 + 0x10]
00000B2C  4EAD 048A                jsr        [A5 + 0x48A /* export_141, CODE:1 @ 00004E6C */]
00000B30  486E FF00                pea.l      [A6 - 0x100]
00000B34  486E FE00                pea.l      [A6 - 0x200]
00000B38  487A 001C                pea.l      [PC + 0x1C /* 00000B56, value 0x4E56 'NV', cstring "" */]
00000B3C  487A 0018                pea.l      [PC + 0x18 /* 00000B56, value 0x4E56 'NV', cstring "" */]
00000B40  4EBA 2482                jsr        [PC + 0x2482 /* 00002FC4 */]
00000B44  486E FD00                pea.l      [A6 - 0x300]
00000B48  4EBA FD8A                jsr        [PC - 0x276 /* 000008D4 */]
00000B4C  4E5E                     unlink     A6
00000B4E  205F                     movea.l    A0, [A7]+
00000B50  DEFC 000A                add.w      A7, 0xA /* '\n' */
00000B54  4ED0                     jmp        [A0]
00000B56  0000 4E56                ori.b      D0, 0x56 /* 'V' */
// begin alternate branch 00000B58-00000B5C
export_301:
fn00000B58:
00000B58  4E56 FF00                link       A6, -0x0100
// end alternate branch 00000B58-00000B5C
export_301: // at 00000B58 (misaligned)
fn00000B58: // (misaligned)
00000B5A  FF00                     .extension 0xF00 <<F/4-5/7>> // unimplemented
00000B5C  486E FF00                pea.l      [A6 - 0x100]
00000B60  3F2E 0008                move.w     -[A7], [A6 + 0x8]
00000B64  4EBA 048A                jsr        [PC + 0x48A /* 00000FF0 */]
00000B68  4EBA FD6A                jsr        [PC - 0x296 /* 000008D4 */]
00000B6C  4E5E                     unlink     A6
00000B6E  205F                     movea.l    A0, [A7]+
00000B70  544F                     addq.w     A7, 2
00000B72  4ED0                     jmp        [A0]
export_302:
00000B74  4E56 FFFA                link       A6, -0x0006
00000B78  48E7 0308                movem.l    -[A7], D6,D7,A4
00000B7C  286E 000C                movea.l    A4, [A6 + 0xC]
00000B80  102D F2B3                move.b     D0, [A5 - 0xD4D]
00000B84  674A                     beq        +0x4C /* 00000BD0 */
00000B86  206D FEA8                movea.l    A0, [A5 - 0x158]
00000B8A  3C28 0044                move.w     D6, [A0 + 0x44]
00000B8E  206D FEA8                movea.l    A0, [A5 - 0x158]
00000B92  2F08                     move.l     -[A7], A0
00000B94  4267                     clr.w      -[A7]
00000B96  3EB8 0BA6                move.w     [A7], [0x00000BA6 /* SysFontFam */]
00000B9A  301F                     move.w     D0, [A7]+
00000B9C  205F                     movea.l    A0, [A7]+
00000B9E  3140 0044                move.w     [A0 + 0x44], D0
00000BA2  7E00                     moveq.l    D7, 0x00
label00000BA4:
00000BA4  B9EE 0008                cmpa.l     A4, [A6 + 0x8]
00000BA8  6C1C                     bge        +0x1E /* 00000BC6 */
00000BAA  5287                     addq.l     D7, 1
00000BAC  4267                     clr.w      -[A7]
00000BAE  2F0C                     move.l     -[A7], A4
00000BB0  4267                     clr.w      -[A7]
00000BB2  2F3C 8206 0010           move.l     -[A7], 0x82060010
00000BB8  A8B5                     syscall    ScriptUtil
00000BBA  4A5F                     tst.w      [A7]+
00000BBC  6604                     bne        +0x6 /* 00000BC2 */
00000BBE  528C                     addq.l     A4, 1
00000BC0  6002                     bra        +0x4 /* 00000BC4 */
label00000BC2:
00000BC2  548C                     addq.l     A4, 2
label00000BC4:
00000BC4  60DE                     bra        -0x20 /* 00000BA4 */
label00000BC6:
00000BC6  206D FEA8                movea.l    A0, [A5 - 0x158]
00000BCA  3146 0044                move.w     [A0 + 0x44], D6
00000BCE  6006                     bra        +0x8 /* 00000BD6 */
label00000BD0:
00000BD0  2E2E 0008                move.l     D7, [A6 + 0x8]
00000BD4  9E8C                     sub.l      D7, A4
label00000BD6:
00000BD6  2D47 0010                move.l     [A6 + 0x10], D7
00000BDA  4CDF 10C0                movem.l    D6,D7,A4, [A7]+
00000BDE  4E5E                     unlink     A6
00000BE0  205F                     movea.l    A0, [A7]+
00000BE2  504F                     addq.w     A7, 8
00000BE4  4ED0                     jmp        [A0]
export_303:
00000BE6  4E56 FFFC                link       A6, -0x0004
00000BEA  2F07                     move.l     -[A7], D7
00000BEC  7E00                     moveq.l    D7, 0x00
00000BEE  486E 000C                pea.l      [A6 + 0xC]
00000BF2  4EBA 39F0                jsr        [PC + 0x39F0 /* 000045E4 */]
label00000BF6:
00000BF6  202E 000C                move.l     D0, [A6 + 0xC]
00000BFA  B0AE 0008                cmp.l      D0, [A6 + 0x8]
00000BFE  6C14                     bge        +0x16 /* 00000C14 */
00000C00  5287                     addq.l     D7, 1
00000C02  486E 000C                pea.l      [A6 + 0xC]
00000C06  4EBA 3986                jsr        [PC + 0x3986 /* 0000458E */]
00000C0A  486E 000C                pea.l      [A6 + 0xC]
00000C0E  4EBA 39D4                jsr        [PC + 0x39D4 /* 000045E4 */]
00000C12  60E2                     bra        -0x1C /* 00000BF6 */
label00000C14:
00000C14  2D47 0010                move.l     [A6 + 0x10], D7
00000C18  2E1F                     move.l     D7, [A7]+
00000C1A  4E5E                     unlink     A6
00000C1C  205F                     movea.l    A0, [A7]+
00000C1E  504F                     addq.w     A7, 8
00000C20  4ED0                     jmp        [A0]
export_304:
00000C22  4E56 FFFC                link       A6, -0x0004
00000C26  2F07                     move.l     -[A7], D7
00000C28  7E00                     moveq.l    D7, 0x00
label00000C2A:
00000C2A  202E 000C                move.l     D0, [A6 + 0xC]
00000C2E  B0AE 0008                cmp.l      D0, [A6 + 0x8]
00000C32  6C10                     bge        +0x12 /* 00000C44 */
00000C34  5287                     addq.l     D7, 1
00000C36  486E 000C                pea.l      [A6 + 0xC]
00000C3A  4EAD 1AA2                jsr        [A5 + 0x1AA2 /* export_848, CODE:16 @ 00001A3E */]
00000C3E  52AE 000C                addq.l     [A6 + 0xC], 1
00000C42  60E6                     bra        -0x18 /* 00000C2A */
label00000C44:
00000C44  2D47 0010                move.l     [A6 + 0x10], D7
00000C48  2E1F                     move.l     D7, [A7]+
00000C4A  4E5E                     unlink     A6
00000C4C  205F                     movea.l    A0, [A7]+
00000C4E  504F                     addq.w     A7, 8
00000C50  4ED0                     jmp        [A0]
export_305:
00000C52  4E56 FEEE                link       A6, -0x0112
00000C56  48E7 0308                movem.l    -[A7], D6,D7,A4
00000C5A  286E 0008                movea.l    A4, [A6 + 0x8]
00000C5E  7E00                     moveq.l    D7, 0x00
00000C60  486E 000C                pea.l      [A6 + 0xC]
00000C64  4EBA 397E                jsr        [PC + 0x397E /* 000045E4 */]
00000C68  102D F2B3                move.b     D0, [A5 - 0xD4D]
00000C6C  6762                     beq        +0x64 /* 00000CD0 */
00000C6E  206D FEA8                movea.l    A0, [A5 - 0x158]
00000C72  3C28 0044                move.w     D6, [A0 + 0x44]
00000C76  206D FEA8                movea.l    A0, [A5 - 0x158]
00000C7A  2F08                     move.l     -[A7], A0
00000C7C  4267                     clr.w      -[A7]
00000C7E  3EB8 0BA6                move.w     [A7], [0x00000BA6 /* SysFontFam */]
00000C82  301F                     move.w     D0, [A7]+
00000C84  205F                     movea.l    A0, [A7]+
00000C86  3140 0044                move.w     [A0 + 0x44], D0
label00000C8A:
00000C8A  B9EE 000C                cmpa.l     A4, [A6 + 0xC]
00000C8E  6F36                     ble        +0x38 /* 00000CC6 */
00000C90  5287                     addq.l     D7, 1
00000C92  2F2E 000C                move.l     -[A7], [A6 + 0xC]
00000C96  200C                     move.l     D0, A4
00000C98  90AE 000C                sub.l      D0, [A6 + 0xC]
00000C9C  3F00                     move.w     -[A7], D0
00000C9E  4267                     clr.w      -[A7]
00000CA0  1F3C 0001                move.b     -[A7], 0x1
00000CA4  42A7                     clr.l      -[A7]
00000CA6  486E FEF0                pea.l      [A6 - 0x110]
00000CAA  2F3C 8012 001A           move.l     -[A7], 0x8012001A
00000CB0  A8B5                     syscall    ScriptUtil
00000CB2  302E FEF2                move.w     D0, [A6 - 0x10E]
00000CB6  48C0                     ext.l      D0
00000CB8  D1AE 000C                add.l      [A6 + 0xC], D0
00000CBC  486E 000C                pea.l      [A6 + 0xC]
00000CC0  4EBA 3922                jsr        [PC + 0x3922 /* 000045E4 */]
00000CC4  60C4                     bra        -0x3A /* 00000C8A */
label00000CC6:
00000CC6  206D FEA8                movea.l    A0, [A5 - 0x158]
00000CCA  3146 0044                move.w     [A0 + 0x44], D6
00000CCE  601E                     bra        +0x20 /* 00000CEE */
label00000CD0:
00000CD0  B9EE 000C                cmpa.l     A4, [A6 + 0xC]
00000CD4  6F18                     ble        +0x1A /* 00000CEE */
00000CD6  5287                     addq.l     D7, 1
00000CD8  486E 000C                pea.l      [A6 + 0xC]
00000CDC  486E FEFC                pea.l      [A6 - 0x104]
00000CE0  4EAD 1A2A                jsr        [A5 + 0x1A2A /* export_833, CODE:16 @ 000014AE */]
00000CE4  486E 000C                pea.l      [A6 + 0xC]
00000CE8  4EBA 38FA                jsr        [PC + 0x38FA /* 000045E4 */]
00000CEC  60E2                     bra        -0x1C /* 00000CD0 */
label00000CEE:
00000CEE  2D47 0010                move.l     [A6 + 0x10], D7
00000CF2  4CDF 10C0                movem.l    D6,D7,A4, [A7]+
00000CF6  4E5E                     unlink     A6
00000CF8  205F                     movea.l    A0, [A7]+
00000CFA  504F                     addq.w     A7, 8
00000CFC  4ED0                     jmp        [A0]
export_306:
fn00000CFE:
00000CFE  4E56 0000                link       A6, 0
00000D02  2F0C                     move.l     -[A7], A4
00000D04  286E 0008                movea.l    A4, [A6 + 0x8]
00000D08  296D F4E0 0002           move.l     [A4 + 0x2], [A5 - 0xB20]
00000D0E  18BC 0002                move.b     [A4], 0x2
00000D12  296D F62A 000A           move.l     [A4 + 0xA], [A5 - 0x9D6]
00000D18  296D F622 0006           move.l     [A4 + 0x6], [A5 - 0x9DE]
00000D1E  426C 000E                clr.w      [A4 + 0xE]
00000D22  7000                     moveq.l    D0, 0x00
00000D24  2940 0010                move.l     [A4 + 0x10], D0
00000D28  396D FC40 0014           move.w     [A4 + 0x14], [A5 - 0x3C0]
00000D2E  396D FC3E 0016           move.w     [A4 + 0x16], [A5 - 0x3C2]
00000D34  285F                     movea.l    A4, [A7]+
00000D36  4E5E                     unlink     A6
00000D38  2E9F                     move.l     [A7], [A7]+
00000D3A  4E75                     rts
export_307:
00000D3C  4E56 0000                link       A6, 0
00000D40  2F0C                     move.l     -[A7], A4
00000D42  286E 0008                movea.l    A4, [A6 + 0x8]
00000D46  28AD F62A                move.l     [A4], [A5 - 0x9D6]
00000D4A  296D F622 0004           move.l     [A4 + 0x4], [A5 - 0x9DE]
00000D50  296D F4E0 0008           move.l     [A4 + 0x8], [A5 - 0xB20]
00000D56  285F                     movea.l    A4, [A7]+
00000D58  4E5E                     unlink     A6
00000D5A  2E9F                     move.l     [A7], [A7]+
00000D5C  4E75                     rts
export_308:
00000D5E  4E56 0000                link       A6, 0
00000D62  4AAD B42A                tst.l      [A5 - 0x4BD6]
00000D66  57C0                     seq        D0
00000D68  222D B3E2                move.l     D1, [A5 - 0x4C1E]
00000D6C  C2BC 0000 0001           and.l      D1, 0x1
00000D72  4A81                     tst.l      D1
00000D74  57C1                     seq        D1
00000D76  8001                     or.b       D0, D1
00000D78  6716                     beq        +0x18 /* 00000D90 */
00000D7A  2F2E 0012                move.l     -[A7], [A6 + 0x12]
00000D7E  2F2E 000E                move.l     -[A7], [A6 + 0xE]
00000D82  2F2E 000A                move.l     -[A7], [A6 + 0xA]
00000D86  1F2E 0008                move.b     -[A7], [A6 + 0x8]
00000D8A  4EAD 13CA                jsr        [A5 + 0x13CA /* export_629, CODE:13 @ 000009EA */]
00000D8E  6034                     bra        +0x36 /* 00000DC4 */
label00000D90:
00000D90  3B7C 0004 B3D4           move.w     [A5 - 0x4C2C], 0x4
00000D96  2B6E 0012 B3D8           move.l     [A5 - 0x4C28], [A6 + 0x12]
00000D9C  2B6E 000E B3DC           move.l     [A5 - 0x4C24], [A6 + 0xE]
00000DA2  206E 000A                movea.l    A0, [A6 + 0xA]
00000DA6  3B50 B3E0                move.w     [A5 - 0x4C20], [A0]
00000DAA  4EBA F84E                jsr        [PC - 0x7B2 /* 000005FA */]
00000DAE  206E 000A                movea.l    A0, [A6 + 0xA]
00000DB2  30AD B3E0                move.w     [A0], [A5 - 0x4C20]
00000DB6  4A6D B3D6                tst.w      [A5 - 0x4C2A]
00000DBA  6708                     beq        +0xA /* 00000DC4 */
00000DBC  3F3C 0027                move.w     -[A7], 0x27 /* '\'' */
00000DC0  4EBA FD96                jsr        [PC - 0x26A /* 00000B58 */]
label00000DC4:
00000DC4  4E5E                     unlink     A6
00000DC6  205F                     movea.l    A0, [A7]+
00000DC8  DEFC 000E                add.w      A7, 0xE
00000DCC  4ED0                     jmp        [A0]
export_309:
00000DCE  4E56 0000                link       A6, 0
00000DD2  2F2E 0008                move.l     -[A7], [A6 + 0x8]
00000DD6  3F3C 0001                move.w     -[A7], 0x1
00000DDA  4EBA 0008                jsr        [PC + 0x8 /* 00000DE4 */]
00000DDE  4E5E                     unlink     A6
00000DE0  2E9F                     move.l     [A7], [A7]+
00000DE2  4E75                     rts
fn00000DE4:
00000DE4  4E56 FFF8                link       A6, -0x0008
00000DE8  48E7 0118                movem.l    -[A7], D7,A3,A4
00000DEC  286E 000A                movea.l    A4, [A6 + 0xA]
00000DF0  3D6E 0008 FFF8           move.w     [A6 - 0x8], [A6 + 0x8]
00000DF6  3E14                     move.w     D7, [A4]
00000DF8  6024                     bra        +0x26 /* 00000E1E */
label00000DFA:
00000DFA  206C 000A                movea.l    A0, [A4 + 0xA]
00000DFE  3007                     move.w     D0, D7
00000E00  5340                     subq.w     D0, 1
00000E02  C1FC 000E                muls.w     D0, 0xE
00000E06  48C0                     ext.l      D0
00000E08  2640                     movea.l    A3, D0
00000E0A  D7D0                     add.l      A3, [A0]
00000E0C  4AAB 000A                tst.l      [A3 + 0xA]
00000E10  6708                     beq        +0xA /* 00000E1A */
00000E12  2F2B 000A                move.l     -[A7], [A3 + 0xA]
00000E16  4EAD 18D2                jsr        [A5 + 0x18D2 /* export_790, CODE:16 @ 0000083E */]
label00000E1A:
00000E1A  5347                     subq.w     D7, 1
00000E1C  6906                     bvs        +0x8 /* 00000E24 */
label00000E1E:
00000E1E  BE6E FFF8                cmp.w      D7, [A6 - 0x8]
00000E22  6CD6                     bge        -0x28 /* 00000DFA */
label00000E24:
00000E24  7001                     moveq.l    D0, 0x01
00000E26  B06E 0008                cmp.w      D0, [A6 + 0x8]
00000E2A  6C02                     bge        +0x4 /* 00000E2E */
00000E2C  6028                     bra        +0x2A /* 00000E56 */
label00000E2E:
00000E2E  4AAC 0006                tst.l      [A4 + 0x6]
00000E32  6708                     beq        +0xA /* 00000E3C */
00000E34  2F2C 0006                move.l     -[A7], [A4 + 0x6]
00000E38  4EAD 18D2                jsr        [A5 + 0x18D2 /* export_790, CODE:16 @ 0000083E */]
label00000E3C:
00000E3C  4AAC 000A                tst.l      [A4 + 0xA]
00000E40  6708                     beq        +0xA /* 00000E4A */
00000E42  2F2C 000A                move.l     -[A7], [A4 + 0xA]
00000E46  4EAD 18D2                jsr        [A5 + 0x18D2 /* export_790, CODE:16 @ 0000083E */]
label00000E4A:
00000E4A  2F2E 000A                move.l     -[A7], [A6 + 0xA]
00000E4E  700E                     moveq.l    D0, 0x0E
00000E50  2F00                     move.l     -[A7], D0
00000E52  4EAD 1B42                jsr        [A5 + 0x1B42 /* export_868, CODE:16 @ 00001E7C */]
label00000E56:
00000E56  4CDF 1880                movem.l    D7,A3,A4, [A7]+
00000E5A  4E5E                     unlink     A6
00000E5C  205F                     movea.l    A0, [A7]+
00000E5E  5C4F                     addq.w     A7, 6
00000E60  4ED0                     jmp        [A0]
export_310:
fn00000E62:
00000E62  4E56 FFFC                link       A6, -0x0004
00000E66  48E7 0018                movem.l    -[A7], A3,A4
00000E6A  202E 0008                move.l     D0, [A6 + 0x8]
00000E6E  B0AD D470                cmp.l      D0, [A5 - 0x2B90]
00000E72  6612                     bne        +0x14 /* 00000E86 */
00000E74  7000                     moveq.l    D0, 0x00
00000E76  2B40 D470                move.l     [A5 - 0x2B90], D0
00000E7A  41ED D46A                lea.l      A0, [A5 - 0x2B96]
00000E7E  43ED A2EA                lea.l      A1, [A5 - 0x5D16]
00000E82  20D9                     move.l     [A0]+, [A1]+
00000E84  3091                     move.w     [A0], [A1]
label00000E86:
00000E86  206E 0008                movea.l    A0, [A6 + 0x8]
00000E8A  4A68 000C                tst.w      [A0 + 0xC]
00000E8E  57C0                     seq        D0
00000E90  206E 0008                movea.l    A0, [A6 + 0x8]
00000E94  4A68 000E                tst.w      [A0 + 0xE]
00000E98  57C1                     seq        D1
00000E9A  C001                     and.b      D0, D1
00000E9C  6722                     beq        +0x24 /* 00000EC0 */
00000E9E  206E 0008                movea.l    A0, [A6 + 0x8]
00000EA2  1028 0010                move.b     D0, [A0 + 0x10]
00000EA6  670A                     beq        +0xC /* 00000EB2 */
00000EA8  206E 0008                movea.l    A0, [A6 + 0x8]
00000EAC  2F10                     move.l     -[A7], [A0]
00000EAE  4EAD 18D2                jsr        [A5 + 0x18D2 /* export_790, CODE:16 @ 0000083E */]
label00000EB2:
00000EB2  206E 0008                movea.l    A0, [A6 + 0x8]
00000EB6  2F28 0004                move.l     -[A7], [A0 + 0x4]
00000EBA  4EAD 18D2                jsr        [A5 + 0x18D2 /* export_790, CODE:16 @ 0000083E */]
00000EBE  6072                     bra        +0x74 /* 00000F32 */
label00000EC0:
00000EC0  206E 0008                movea.l    A0, [A6 + 0x8]
00000EC4  3028 000C                move.w     D0, [A0 + 0xC]
00000EC8  5340                     subq.w     D0, 1
00000ECA  41ED C212                lea.l      A0, [A5 - 0x3DEE]
00000ECE  C1FC 002C                muls.w     D0, 0x2C /* ',' */
00000ED2  49F0 0000                lea.l      A4, [A0 + D0.w]
00000ED6  302C 001C                move.w     D0, [A4 + 0x1C]
00000EDA  5340                     subq.w     D0, 1
00000EDC  3940 001C                move.w     [A4 + 0x1C], D0
00000EE0  206C 001E                movea.l    A0, [A4 + 0x1E]
00000EE4  2650                     movea.l    A3, [A0]
00000EE6  206E 0008                movea.l    A0, [A6 + 0x8]
00000EEA  3028 000E                move.w     D0, [A0 + 0xE]
00000EEE  5340                     subq.w     D0, 1
00000EF0  C1FC 000E                muls.w     D0, 0xE
00000EF4  48C0                     ext.l      D0
00000EF6  D7C0                     add.l      A3, D0
00000EF8  302B 000C                move.w     D0, [A3 + 0xC]
00000EFC  5340                     subq.w     D0, 1
00000EFE  3740 000C                move.w     [A3 + 0xC], D0
00000F02  4A6B 000C                tst.w      [A3 + 0xC]
00000F06  6608                     bne        +0xA /* 00000F10 */
00000F08  2F2B 0008                move.l     -[A7], [A3 + 0x8]
00000F0C  4EAD 0232                jsr        [A5 + 0x232 /* export_66, CODE:1 @ 0000468C */]
label00000F10:
00000F10  4A6C 001C                tst.w      [A4 + 0x1C]
00000F14  661C                     bne        +0x1E /* 00000F32 */
00000F16  102C 0022                move.b     D0, [A4 + 0x22]
00000F1A  670E                     beq        +0x10 /* 00000F2A */
00000F1C  206E 0008                movea.l    A0, [A6 + 0x8]
00000F20  3F28 000C                move.w     -[A7], [A0 + 0xC]
00000F24  4EAD 10B2                jsr        [A5 + 0x10B2 /* export_530, CODE:9 @ 00004812 */]
00000F28  6008                     bra        +0xA /* 00000F32 */
label00000F2A:
00000F2A  2F2C 0018                move.l     -[A7], [A4 + 0x18]
00000F2E  4EAD 0232                jsr        [A5 + 0x232 /* export_66, CODE:1 @ 0000468C */]
label00000F32:
00000F32  4CDF 1800                movem.l    A3,A4, [A7]+
00000F36  4E5E                     unlink     A6
00000F38  2E9F                     move.l     [A7], [A7]+
00000F3A  4E75                     rts
export_311:
00000F3C  4E56 0000                link       A6, 0
00000F40  48E7 0018                movem.l    -[A7], A3,A4
00000F44  286E 000C                movea.l    A4, [A6 + 0xC]
00000F48  266E 0008                movea.l    A3, [A6 + 0x8]
00000F4C  422E 0010                clr.b      [A6 + 0x10]
00000F50  1014                     move.b     D0, [A4]
00000F52  B013                     cmp.b      D0, [A3]
00000F54  6704                     beq        +0x6 /* 00000F5A */
00000F56  6000 008C                bra        +0x8E /* 00000FE4 */
label00000F5A:
00000F5A  202C 0002                move.l     D0, [A4 + 0x2]
00000F5E  B0AB 0002                cmp.l      D0, [A3 + 0x2]
00000F62  6702                     beq        +0x4 /* 00000F66 */
00000F64  607E                     bra        +0x80 /* 00000FE4 */
label00000F66:
00000F66  1014                     move.b     D0, [A4]
00000F68  4880                     ext.w      D0
00000F6A  5340                     subq.w     D0, 1
00000F6C  6712                     beq        +0x14 /* 00000F80 */
00000F6E  5340                     subq.w     D0, 1
00000F70  6730                     beq        +0x32 /* 00000FA2 */
00000F72  5340                     subq.w     D0, 1
00000F74  673E                     beq        +0x40 /* 00000FB4 */
00000F76  5340                     subq.w     D0, 1
00000F78  674C                     beq        +0x4E /* 00000FC6 */
00000F7A  5340                     subq.w     D0, 1
00000F7C  6750                     beq        +0x52 /* 00000FCE */
00000F7E  605A                     bra        +0x5C /* 00000FDA */
label00000F80:
00000F80  202C 0010                move.l     D0, [A4 + 0x10]
00000F84  B0AB 0010                cmp.l      D0, [A3 + 0x10]
00000F88  57C0                     seq        D0
00000F8A  4A00                     tst.b      D0
00000F8C  670C                     beq        +0xE /* 00000F9A */
00000F8E  322C 000E                move.w     D1, [A4 + 0xE]
00000F92  B26B 000E                cmp.w      D1, [A3 + 0xE]
00000F96  57C1                     seq        D1
00000F98  C001                     and.b      D0, D1
label00000F9A:
00000F9A  4400                     neg.b      D0
00000F9C  1D40 0010                move.b     [A6 + 0x10], D0
00000FA0  6042                     bra        +0x44 /* 00000FE4 */
label00000FA2:
00000FA2  202C 000A                move.l     D0, [A4 + 0xA]
00000FA6  B0AB 000A                cmp.l      D0, [A3 + 0xA]
00000FAA  57C0                     seq        D0
00000FAC  4400                     neg.b      D0
00000FAE  1D40 0010                move.b     [A6 + 0x10], D0
00000FB2  6030                     bra        +0x32 /* 00000FE4 */
label00000FB4:
00000FB4  202C 0006                move.l     D0, [A4 + 0x6]
00000FB8  B0AB 0006                cmp.l      D0, [A3 + 0x6]
00000FBC  57C0                     seq        D0
00000FBE  4400                     neg.b      D0
00000FC0  1D40 0010                move.b     [A6 + 0x10], D0
00000FC4  601E                     bra        +0x20 /* 00000FE4 */
label00000FC6:
00000FC6  1D7C 0001 0010           move.b     [A6 + 0x10], 0x1
00000FCC  6016                     bra        +0x18 /* 00000FE4 */
label00000FCE:
00000FCE  2F3C 006A 8E7E           move.l     -[A7], 0x6A8E7E
00000FD4  4EAD 185A                jsr        [A5 + 0x185A /* export_775, CODE:16 @ 0000042E */]
00000FD8  600A                     bra        +0xC /* 00000FE4 */
label00000FDA:
00000FDA  2F3C 0066 B202           move.l     -[A7], 0x66B202
00000FE0  4EAD 185A                jsr        [A5 + 0x185A /* export_775, CODE:16 @ 0000042E */]
label00000FE4:
00000FE4  4CDF 1800                movem.l    A3,A4, [A7]+
00000FE8  4E5E                     unlink     A6
00000FEA  205F                     movea.l    A0, [A7]+
00000FEC  504F                     addq.w     A7, 8
00000FEE  4ED0                     jmp        [A0]
export_312:
fn00000FF0:
00000FF0  4E56 FF00                link       A6, -0x0100
00000FF4  486E FF00                pea.l      [A6 - 0x100]
00000FF8  3F3C 03EA                move.w     -[A7], 0x3EA
00000FFC  3F2E 0008                move.w     -[A7], [A6 + 0x8]
00001000  4EAD 048A                jsr        [A5 + 0x48A /* export_141, CODE:1 @ 00004E6C */]
00001004  206E 000A                movea.l    A0, [A6 + 0xA]
00001008  43EE FF00                lea.l      A1, [A6 - 0x100]
0000100C  703F                     moveq.l    D0, 0x3F
label0000100E:
0000100E  20D9                     move.l     [A0]+, [A1]+
00001010  51C8 FFFC                dbf        D0, -0x6 /* 0000100E */
00001014  4E5E                     unlink     A6
00001016  205F                     movea.l    A0, [A7]+
00001018  544F                     addq.w     A7, 2
0000101A  4ED0                     jmp        [A0]
export_313:
fn0000101C:
0000101C  4E56 FFCC                link       A6, -0x0034
00001020  48E7 0F00                movem.l    -[A7], D4,D5,D6,D7
00001024  206E 000C                movea.l    A0, [A6 + 0xC]
00001028  43EE FFF6                lea.l      A1, [A6 - 0xA]
0000102C  22D8                     move.l     [A1]+, [A0]+
0000102E  22D8                     move.l     [A1]+, [A0]+
00001030  3290                     move.w     [A1], [A0]
00001032  1D7C 0001 FFF2           move.b     [A6 - 0xE], 0x1
00001038  3D6D B3B2 FFF4           move.w     [A6 - 0xC], [A5 - 0x4C4E]
0000103E  2F2E FFF2                move.l     -[A7], [A6 - 0xE]
00001042  486E FFF6                pea.l      [A6 - 0xA]
00001046  2F2E 0008                move.l     -[A7], [A6 + 0x8]
0000104A  4EAD 05B2                jsr        [A5 + 0x5B2 /* export_178, CODE:2 @ 000002D2 */]
0000104E  487A 014E                pea.l      [PC + 0x14E /* 0000119E, value 0x12E0000 */]
00001052  2F2E 0008                move.l     -[A7], [A6 + 0x8]
00001056  4EAD 0502                jsr        [A5 + 0x502 /* export_156, CODE:1 @ 000052D2 */]
0000105A  3E1F                     move.w     D7, [A7]+
0000105C  4A47                     tst.w      D7
0000105E  6700 0114                beq        +0x116 /* 00001174 */
00001062  206E 0008                movea.l    A0, [A6 + 0x8]
00001066  4246                     clr.w      D6
00001068  1C10                     move.b     D6, [A0]
label0000106A:
0000106A  3006                     move.w     D0, D6
0000106C  9047                     sub.w      D0, D7
0000106E  B06D B3B0                cmp.w      D0, [A5 - 0x4C50]
00001072  5EC0                     sgt        D0
00001074  206E 0008                movea.l    A0, [A6 + 0x8]
00001078  4241                     clr.w      D1
0000107A  1230 6000                move.b     D1, [A0 + D6.w]
0000107E  7430                     moveq.l    D2, 0x30
00001080  B441                     cmp.w      D2, D1
00001082  57C1                     seq        D1
00001084  C001                     and.b      D0, D1
00001086  6704                     beq        +0x6 /* 0000108C */
00001088  5346                     subq.w     D6, 1
0000108A  60DE                     bra        -0x20 /* 0000106A */
label0000108C:
0000108C  BE46                     cmp.w      D7, D6
0000108E  57C0                     seq        D0
00001090  7201                     moveq.l    D1, 0x01
00001092  B246                     cmp.w      D1, D6
00001094  5DC1                     slt        D1
00001096  C001                     and.b      D0, D1
00001098  6702                     beq        +0x4 /* 0000109C */
0000109A  5346                     subq.w     D6, 1
label0000109C:
0000109C  206E 0008                movea.l    A0, [A6 + 0x8]
000010A0  1086                     move.b     [A0], D6
000010A2  206E 0008                movea.l    A0, [A6 + 0x8]
000010A6  2F08                     move.l     -[A7], A0
000010A8  487A 00F6                pea.l      [PC + 0xF6 /* 000011A0, value 0x4E56 'NV', cstring "" */]
000010AC  4EAD 0532                jsr        [A5 + 0x532 /* export_162, CODE:1 @ 00005444 */]
000010B0  101F                     move.b     D0, [A7]+
000010B2  670C                     beq        +0xE /* 000010C0 */
000010B4  206E 0008                movea.l    A0, [A6 + 0x8]
000010B8  30BC 0130                move.w     [A0], 0x130
000010BC  6000 00B6                bra        +0xB8 /* 00001174 */
label000010C0:
000010C0  487A 00DC                pea.l      [PC + 0xDC /* 0000119E, value 0x12E0000 */]
000010C4  2F2E 0008                move.l     -[A7], [A6 + 0x8]
000010C8  4EAD 0502                jsr        [A5 + 0x502 /* export_156, CODE:1 @ 000052D2 */]
000010CC  3E1F                     move.w     D7, [A7]+
000010CE  4A47                     tst.w      D7
000010D0  660C                     bne        +0xE /* 000010DE */
000010D2  206E 0008                movea.l    A0, [A6 + 0x8]
000010D6  4240                     clr.w      D0
000010D8  1010                     move.b     D0, [A0]
000010DA  3E00                     move.w     D7, D0
000010DC  5247                     addq.w     D7, 1
label000010DE:
000010DE  BE6D B3AE                cmp.w      D7, [A5 - 0x4C52]
000010E2  6E2C                     bgt        +0x2E /* 00001110 */
000010E4  302D B3AE                move.w     D0, [A5 - 0x4C52]
000010E8  9047                     sub.w      D0, D7
000010EA  5240                     addq.w     D0, 1
000010EC  3D40 FFCE                move.w     [A6 - 0x32], D0
000010F0  7A01                     moveq.l    D5, 0x01
000010F2  6014                     bra        +0x16 /* 00001108 */
label000010F4:
000010F4  487A 00A6                pea.l      [PC + 0xA6 /* 0000119C, value 0x130012E */]
000010F8  2F2E 0008                move.l     -[A7], [A6 + 0x8]
000010FC  3F3C 0001                move.w     -[A7], 0x1
00001100  4EAD 0522                jsr        [A5 + 0x522 /* export_160, CODE:1 @ 000053F6 */]
00001104  5245                     addq.w     D5, 1
00001106  6906                     bvs        +0x8 /* 0000110E */
label00001108:
00001108  BA6E FFCE                cmp.w      D5, [A6 - 0x32]
0000110C  6FE6                     ble        -0x18 /* 000010F4 */
label0000110E:
0000110E  6064                     bra        +0x66 /* 00001174 */
label00001110:
00001110  487A 0088                pea.l      [PC + 0x88 /* 0000119A, value 0x12D0130 */]
00001114  2F2E 0008                move.l     -[A7], [A6 + 0x8]
00001118  4EAD 0502                jsr        [A5 + 0x502 /* export_156, CODE:1 @ 000052D2 */]
0000111C  381F                     move.w     D4, [A7]+
0000111E  5244                     addq.w     D4, 1
00001120  3007                     move.w     D0, D7
00001122  906D B3AE                sub.w      D0, [A5 - 0x4C52]
00001126  5340                     subq.w     D0, 1
00001128  3D40 FFCC                move.w     [A6 - 0x34], D0
0000112C  7A01                     moveq.l    D5, 0x01
0000112E  603E                     bra        +0x40 /* 0000116E */
label00001130:
00001130  206E 0008                movea.l    A0, [A6 + 0x8]
00001134  4240                     clr.w      D0
00001136  1030 4000                move.b     D0, [A0 + D4.w]
0000113A  7230                     moveq.l    D1, 0x30
0000113C  B240                     cmp.w      D1, D0
0000113E  57C0                     seq        D0
00001140  4A00                     tst.b      D0
00001142  6614                     bne        +0x16 /* 00001158 */
00001144  206E 0008                movea.l    A0, [A6 + 0x8]
00001148  4241                     clr.w      D1
0000114A  1230 4000                move.b     D1, [A0 + D4.w]
0000114E  742E                     moveq.l    D2, 0x2E
00001150  B441                     cmp.w      D2, D1
00001152  57C1                     seq        D1
00001154  8001                     or.b       D0, D1
00001156  6710                     beq        +0x12 /* 00001168 */
label00001158:
00001158  2F2E 0008                move.l     -[A7], [A6 + 0x8]
0000115C  3F04                     move.w     -[A7], D4
0000115E  3F3C 0001                move.w     -[A7], 0x1
00001162  4EAD 051A                jsr        [A5 + 0x51A /* export_159, CODE:1 @ 000053C0 */]
00001166  6002                     bra        +0x4 /* 0000116A */
label00001168:
00001168  600A                     bra        +0xC /* 00001174 */
label0000116A:
0000116A  5245                     addq.w     D5, 1
0000116C  6906                     bvs        +0x8 /* 00001174 */
label0000116E:
0000116E  BA6E FFCC                cmp.w      D5, [A6 - 0x34]
00001172  6FBC                     ble        -0x42 /* 00001130 */
label00001174:
00001174  4267                     clr.w      -[A7]
00001176  2F2E 0008                move.l     -[A7], [A6 + 0x8]
0000117A  487A 001E                pea.l      [PC + 0x1E /* 0000119A, value 0x12D0130 */]
0000117E  4EAD 1AC2                jsr        [A5 + 0x1AC2 /* export_852, CODE:16 @ 00001B82 */]
00001182  101F                     move.b     D0, [A7]+
00001184  6708                     beq        +0xA /* 0000118E */
00001186  206E 0008                movea.l    A0, [A6 + 0x8]
0000118A  30BC 0130                move.w     [A0], 0x130
label0000118E:
0000118E  4CDF 00F0                movem.l    D4,D5,D6,D7, [A7]+
00001192  4E5E                     unlink     A6
00001194  205F                     movea.l    A0, [A7]+
00001196  504F                     addq.w     A7, 8
00001198  4ED0                     jmp        [A0]
0000119A  012D 0130                btst       [A5 + 0x130], D0
0000119E  012E 0000                btst       [A6 + 0x0], D0
export_314:
fn000011A2:
000011A2  4E56 FFDC                link       A6, -0x0024
000011A6  48E7 0700                movem.l    -[A7], D5,D6,D7
000011AA  206E 0008                movea.l    A0, [A6 + 0x8]
000011AE  1010                     move.b     D0, [A0]
000011B0  6600 009E                bne        +0xA0 /* 00001250 */
000011B4  2F2E 0008                move.l     -[A7], [A6 + 0x8]
000011B8  486E FFFC                pea.l      [A6 - 0x4]
000011BC  486E FFF0                pea.l      [A6 - 0x10]
000011C0  486E FFF4                pea.l      [A6 - 0xC]
000011C4  486E FFF8                pea.l      [A6 - 0x8]
000011C8  486E FFDC                pea.l      [A6 - 0x24]
000011CC  486E FFE0                pea.l      [A6 - 0x20]
000011D0  4EAD 1072                jsr        [A5 + 0x1072 /* export_522, CODE:9 @ 00004428 */]
000011D4  4AAE FFDC                tst.l      [A6 - 0x24]
000011D8  5EC0                     sgt        D0
000011DA  4AAE FFE0                tst.l      [A6 - 0x20]
000011DE  5EC1                     sgt        D1
000011E0  8001                     or.b       D0, D1
000011E2  670A                     beq        +0xC /* 000011EE */
000011E4  4EAD 1432                jsr        [A5 + 0x1432 /* export_642, CODE:13 @ 000010F2 */]
000011E8  4EBA 27DA                jsr        [PC + 0x27DA /* 000039C4 */]
000011EC  6062                     bra        +0x64 /* 00001250 */
label000011EE:
000011EE  2C2E FFF4                move.l     D6, [A6 - 0xC]
000011F2  9CAE FFF0                sub.l      D6, [A6 - 0x10]
000011F6  2F2E FFF0                move.l     -[A7], [A6 - 0x10]
000011FA  2F2E FFFC                move.l     -[A7], [A6 - 0x4]
000011FE  2F06                     move.l     -[A7], D6
00001200  4EBA 3410                jsr        [PC + 0x3410 /* 00004612 */]
00001204  2006                     move.l     D0, D6
00001206  D0AE FFFC                add.l      D0, [A6 - 0x4]
0000120A  2D40 FFF8                move.l     [A6 - 0x8], D0
0000120E  206E FFF8                movea.l    A0, [A6 - 0x8]
00001212  4210                     clr.b      [A0]
00001214  2E06                     move.l     D7, D6
00001216  5287                     addq.l     D7, 1
00001218  1007                     move.b     D0, D7
0000121A  0240 0001                andi.w     D0, 0x1
0000121E  6702                     beq        +0x4 /* 00001222 */
00001220  5287                     addq.l     D7, 1
label00001222:
00001222  302D B978                move.w     D0, [A5 - 0x4688]
00001226  5340                     subq.w     D0, 1
00001228  41ED B6F8                lea.l      A0, [A5 - 0x4908]
0000122C  E540                     asl        D0.w, 2
0000122E  2A07                     move.l     D5, D7
00001230  9AB0 0000                sub.l      D5, [A0 + D0.w]
00001234  302D B978                move.w     D0, [A5 - 0x4688]
00001238  5340                     subq.w     D0, 1
0000123A  41ED B6F8                lea.l      A0, [A5 - 0x4908]
0000123E  E540                     asl        D0.w, 2
00001240  2187 0000                move.l     [A0 + D0.w], D7
00001244  2005                     move.l     D0, D5
00001246  D1AD B674                add.l      [A5 - 0x498C], D0
0000124A  2005                     move.l     D0, D5
0000124C  91AD B670                sub.l      [A5 - 0x4990], D0
label00001250:
00001250  4CDF 00E0                movem.l    D5,D6,D7, [A7]+
00001254  4E5E                     unlink     A6
00001256  2E9F                     move.l     [A7], [A7]+
00001258  4E75                     rts
export_315:
fn0000125A:
0000125A  4E56 FFF8                link       A6, -0x0008
0000125E  48E7 0018                movem.l    -[A7], A3,A4
00001262  4A6E 000E                tst.w      [A6 + 0xE]
00001266  6C24                     bge        +0x26 /* 0000128C */
00001268  206D D44C                movea.l    A0, [A5 - 0x2BB4]
0000126C  302E 000E                move.w     D0, [A6 + 0xE]
00001270  48C0                     ext.l      D0
00001272  2850                     movea.l    A4, [A0]
00001274  99C0                     sub.l      A4, D0
00001276  2F0C                     move.l     -[A7], A4
00001278  2F2E 0008                move.l     -[A7], [A6 + 0x8]
0000127C  1014                     move.b     D0, [A4]
0000127E  4880                     ext.w      D0
00001280  5240                     addq.w     D0, 1
00001282  48C0                     ext.l      D0
00001284  2F00                     move.l     -[A7], D0
00001286  4EAD 19B2                jsr        [A5 + 0x19B2 /* export_818, CODE:16 @ 000010BE */]
0000128A  6038                     bra        +0x3A /* 000012C4 */
label0000128C:
0000128C  0C6E 00FF 000E           cmpi.w     [A6 + 0xE], 0xFF
00001292  6F06                     ble        +0x8 /* 0000129A */
00001294  3D7C 00FF 000E           move.w     [A6 + 0xE], 0xFF
label0000129A:
0000129A  206E 0008                movea.l    A0, [A6 + 0x8]
0000129E  10AE 000F                move.b     [A0], [A6 + 0xF]
000012A2  42A7                     clr.l      -[A7]
000012A4  3F2E 000C                move.w     -[A7], [A6 + 0xC]
000012A8  4EBA 1F64                jsr        [PC + 0x1F64 /* 0000320E */]
000012AC  265F                     movea.l    A3, [A7]+
000012AE  2F0B                     move.l     -[A7], A3
000012B0  202E 0008                move.l     D0, [A6 + 0x8]
000012B4  5280                     addq.l     D0, 1
000012B6  2F00                     move.l     -[A7], D0
000012B8  302E 000E                move.w     D0, [A6 + 0xE]
000012BC  48C0                     ext.l      D0
000012BE  2F00                     move.l     -[A7], D0
000012C0  4EAD 19B2                jsr        [A5 + 0x19B2 /* export_818, CODE:16 @ 000010BE */]
label000012C4:
000012C4  4CDF 1800                movem.l    A3,A4, [A7]+
000012C8  4E5E                     unlink     A6
000012CA  205F                     movea.l    A0, [A7]+
000012CC  504F                     addq.w     A7, 8
000012CE  4ED0                     jmp        [A0]
export_316:
000012D0  4E56 FFFE                link       A6, -0x0002
000012D4  48E7 0108                movem.l    -[A7], D7,A4
000012D8  426E 000E                clr.w      [A6 + 0xE]
000012DC  7E01                     moveq.l    D7, 0x01
000012DE  6046                     bra        +0x48 /* 00001326 */
label000012E0:
000012E0  3007                     move.w     D0, D7
000012E2  5340                     subq.w     D0, 1
000012E4  41ED BF02                lea.l      A0, [A5 - 0x40FE]
000012E8  C1FC 0104                muls.w     D0, 0x104
000012EC  49F0 0000                lea.l      A4, [A0 + D0.w]
000012F0  4A6C 0100                tst.w      [A4 + 0x100]
000012F4  56C0                     sne        D0
000012F6  4A00                     tst.b      D0
000012F8  672A                     beq        +0x2C /* 00001324 */
000012FA  2F00                     move.l     -[A7], D0
000012FC  4267                     clr.w      -[A7]
000012FE  2F0C                     move.l     -[A7], A4
00001300  2F2E 000A                move.l     -[A7], [A6 + 0xA]
00001304  4EAD 1AC2                jsr        [A5 + 0x1AC2 /* export_852, CODE:16 @ 00001B82 */]
00001308  121F                     move.b     D1, [A7]+
0000130A  201F                     move.l     D0, [A7]+
0000130C  C001                     and.b      D0, D1
0000130E  6714                     beq        +0x16 /* 00001324 */
00001310  3D6C 0100 000E           move.w     [A6 + 0xE], [A4 + 0x100]
00001316  102E 0008                move.b     D0, [A6 + 0x8]
0000131A  6706                     beq        +0x8 /* 00001322 */
0000131C  197C 0001 0102           move.b     [A4 + 0x102], 0x1
label00001322:
00001322  6014                     bra        +0x16 /* 00001338 */
label00001324:
00001324  5247                     addq.w     D7, 1
label00001326:
00001326  7003                     moveq.l    D0, 0x03
00001328  B047                     cmp.w      D0, D7
0000132A  6CB4                     bge        -0x4A /* 000012E0 */
0000132C  3F3C 003D                move.w     -[A7], 0x3D /* '=' */
00001330  2F2E 000A                move.l     -[A7], [A6 + 0xA]
00001334  4EBA F77C                jsr        [PC - 0x884 /* 00000AB2 */]
label00001338:
00001338  4CDF 1080                movem.l    D7,A4, [A7]+
0000133C  4E5E                     unlink     A6
0000133E  205F                     movea.l    A0, [A7]+
00001340  5C4F                     addq.w     A7, 6
00001342  4ED0                     jmp        [A0]
fn00001344:
00001344  4E56 0000                link       A6, 0
00001348  48E7 0018                movem.l    -[A7], A3,A4
0000134C  266E 0008                movea.l    A3, [A6 + 0x8]
00001350  286E 000C                movea.l    A4, [A6 + 0xC]
00001354  288B                     move.l     [A4], A3
00001356  102C 0010                move.b     D0, [A4 + 0x10]
0000135A  6706                     beq        +0x8 /* 00001362 */
0000135C  2F0B                     move.l     -[A7], A3
0000135E  4EAD 0222                jsr        [A5 + 0x222 /* export_64, CODE:1 @ 00004678 */]
label00001362:
00001362  42A7                     clr.l      -[A7]
00001364  2F13                     move.l     -[A7], [A3]
00001366  4267                     clr.w      -[A7]
00001368  4EAD 10C2                jsr        [A5 + 0x10C2 /* export_532, CODE:9 @ 00004D58 */]
0000136C  295F 0004                move.l     [A4 + 0x4], [A7]+
00001370  102C 0010                move.b     D0, [A4 + 0x10]
00001374  6706                     beq        +0x8 /* 0000137C */
00001376  2F0B                     move.l     -[A7], A3
00001378  4EAD 022A                jsr        [A5 + 0x22A /* export_65, CODE:1 @ 00004682 */]
label0000137C:
0000137C  397C 0001 0008           move.w     [A4 + 0x8], 0x1
00001382  426C 000A                clr.w      [A4 + 0xA]
00001386  426C 000C                clr.w      [A4 + 0xC]
0000138A  426C 000E                clr.w      [A4 + 0xE]
0000138E  4CDF 1800                movem.l    A3,A4, [A7]+
00001392  4E5E                     unlink     A6
00001394  205F                     movea.l    A0, [A7]+
00001396  504F                     addq.w     A7, 8
00001398  4ED0                     jmp        [A0]
export_317:
fn0000139A:
0000139A  4E56 FFDA                link       A6, -0x0026
0000139E  48E7 0108                movem.l    -[A7], D7,A4
000013A2  206E 0008                movea.l    A0, [A6 + 0x8]
000013A6  43EE FFE0                lea.l      A1, [A6 - 0x20]
000013AA  7007                     moveq.l    D0, 0x07
label000013AC:
000013AC  22D8                     move.l     [A1]+, [A0]+
000013AE  51C8 FFFC                dbf        D0, -0x6 /* 000013AC */
000013B2  4267                     clr.w      -[A7]
000013B4  486D D458                pea.l      [A5 - 0x2BA8]
000013B8  486E FFE0                pea.l      [A6 - 0x20]
000013BC  4EAD 1082                jsr        [A5 + 0x1082 /* export_524, CODE:9 @ 00004558 */]
000013C0  3E1F                     move.w     D7, [A7]+
000013C2  4A47                     tst.w      D7
000013C4  6714                     beq        +0x16 /* 000013DA */
000013C6  486D D458                pea.l      [A5 - 0x2BA8]
000013CA  3F07                     move.w     -[A7], D7
000013CC  4EBA 3C94                jsr        [PC + 0x3C94 /* 00005062 */]
000013D0  42A7                     clr.l      -[A7]
000013D2  4EAD 145A                jsr        [A5 + 0x145A /* export_647, CODE:13 @ 0000157E */]
000013D6  285F                     movea.l    A4, [A7]+
000013D8  6010                     bra        +0x12 /* 000013EA */
label000013DA:
000013DA  42A7                     clr.l      -[A7]
000013DC  7001                     moveq.l    D0, 0x01
000013DE  2F00                     move.l     -[A7], D0
000013E0  4EAD 18DA                jsr        [A5 + 0x18DA /* export_791, CODE:16 @ 00000896 */]
000013E4  285F                     movea.l    A4, [A7]+
000013E6  2054                     movea.l    A0, [A4]
000013E8  4210                     clr.b      [A0]
label000013EA:
000013EA  2D4C 000C                move.l     [A6 + 0xC], A4
000013EE  4CDF 1080                movem.l    D7,A4, [A7]+
000013F2  4E5E                     unlink     A6
000013F4  2E9F                     move.l     [A7], [A7]+
000013F6  4E75                     rts
fn000013F8:
000013F8  4E56 FFEE                link       A6, -0x0012
000013FC  48E7 0018                movem.l    -[A7], A3,A4
00001400  7000                     moveq.l    D0, 0x00
00001402  2D40 000C                move.l     [A6 + 0xC], D0
00001406  42A7                     clr.l      -[A7]
00001408  2F2D B662                move.l     -[A7], [A5 - 0x499E]
0000140C  4EAD 1F9A                jsr        [A5 + 0x1F9A /* export_1007, CODE:19 @ 00001B6A */]
00001410  285F                     movea.l    A4, [A7]+
00001412  200C                     move.l     D0, A4
00001414  6700 009A                beq        +0x9C /* 000014B0 */
00001418  2F0C                     move.l     -[A7], A4
0000141A  486E FFF3                pea.l      [A6 - 0xD]
0000141E  4EAD 1922                jsr        [A5 + 0x1922 /* export_800, CODE:16 @ 00000C02 */]
00001422  42A7                     clr.l      -[A7]
00001424  2F0C                     move.l     -[A7], A4
00001426  3F2D B660                move.w     -[A7], [A5 - 0x49A0]
0000142A  4EAD 1DD2                jsr        [A5 + 0x1DD2 /* export_950, CODE:18 @ 00000F1E */]
0000142E  265F                     movea.l    A3, [A7]+
00001430  200B                     move.l     D0, A3
00001432  6768                     beq        +0x6A /* 0000149C */
00001434  200B                     move.l     D0, A3
00001436  721E                     moveq.l    D1, 0x1E
00001438  D081                     add.l      D0, D1
0000143A  2D40 FFF4                move.l     [A6 - 0xC], D0
0000143E  486E FFF4                pea.l      [A6 - 0xC]
00001442  4EAD 1932                jsr        [A5 + 0x1932 /* export_802, CODE:16 @ 00000C5A */]
00001446  486E FFF4                pea.l      [A6 - 0xC]
0000144A  4EAD 1932                jsr        [A5 + 0x1932 /* export_802, CODE:16 @ 00000C5A */]
0000144E  206E FFF4                movea.l    A0, [A6 - 0xC]
00001452  4A10                     tst.b      [A0]
00001454  6746                     beq        +0x48 /* 0000149C */
00001456  4267                     clr.w      -[A7]
00001458  2F2E FFF4                move.l     -[A7], [A6 - 0xC]
0000145C  486E FFEE                pea.l      [A6 - 0x12]
00001460  42A7                     clr.l      -[A7]
00001462  2F2E FFF4                move.l     -[A7], [A6 - 0xC]
00001466  4EAD 1ADA                jsr        [A5 + 0x1ADA /* export_855, CODE:16 @ 00001C66 */]
0000146A  201F                     move.l     D0, [A7]+
0000146C  5280                     addq.l     D0, 1
0000146E  2F00                     move.l     -[A7], D0
00001470  4EAD 046A                jsr        [A5 + 0x46A /* export_137, CODE:1 @ 00004DD2 */]
00001474  4A5F                     tst.w      [A7]+
00001476  671E                     beq        +0x20 /* 00001496 */
00001478  3F3C 002D                move.w     -[A7], 0x2D /* '-' */
0000147C  4EBA F6DA                jsr        [PC - 0x926 /* 00000B58 */]
00001480  42A7                     clr.l      -[A7]
00001482  7001                     moveq.l    D0, 0x01
00001484  2F00                     move.l     -[A7], D0
00001486  4EAD 18DA                jsr        [A5 + 0x18DA /* export_791, CODE:16 @ 00000896 */]
0000148A  2D5F FFEE                move.l     [A6 - 0x12], [A7]+
0000148E  206E FFEE                movea.l    A0, [A6 - 0x12]
00001492  2050                     movea.l    A0, [A0]
00001494  4210                     clr.b      [A0]
label00001496:
00001496  2D6E FFEE 000C           move.l     [A6 + 0xC], [A6 - 0x12]
label0000149C:
0000149C  2F0C                     move.l     -[A7], A4
0000149E  1F2E FFF3                move.b     -[A7], [A6 - 0xD]
000014A2  4EAD 03F2                jsr        [A5 + 0x3F2 /* export_122, CODE:1 @ 00004D00 */]
000014A6  2F2D B662                move.l     -[A7], [A5 - 0x499E]
000014AA  4267                     clr.w      -[A7]
000014AC  4EAD 1F1A                jsr        [A5 + 0x1F1A /* export_991, CODE:19 @ 000006D4 */]
label000014B0:
000014B0  4CDF 1800                movem.l    A3,A4, [A7]+
000014B4  4E5E                     unlink     A6
000014B6  2E9F                     move.l     [A7], [A7]+
000014B8  4E75                     rts
fn000014BA:
000014BA  4E56 FFEE                link       A6, -0x0012
000014BE  48E7 0108                movem.l    -[A7], D7,A4
000014C2  7000                     moveq.l    D0, 0x00
000014C4  2D40 000C                move.l     [A6 + 0xC], D0
000014C8  42A7                     clr.l      -[A7]
000014CA  2F2D B65C                move.l     -[A7], [A5 - 0x49A4]
000014CE  4EAD 1F7A                jsr        [A5 + 0x1F7A /* export_1003, CODE:19 @ 00001744 */]
000014D2  285F                     movea.l    A4, [A7]+
000014D4  200C                     move.l     D0, A4
000014D6  6700 0090                beq        +0x92 /* 00001568 */
000014DA  2F0C                     move.l     -[A7], A4
000014DC  486E FFEF                pea.l      [A6 - 0x11]
000014E0  4EAD 1922                jsr        [A5 + 0x1922 /* export_800, CODE:16 @ 00000C02 */]
000014E4  2054                     movea.l    A0, [A4]
000014E6  2028 0028                move.l     D0, [A0 + 0x28]
000014EA  7232                     moveq.l    D1, 0x32
000014EC  D081                     add.l      D0, D1
000014EE  2054                     movea.l    A0, [A4]
000014F0  2E28 002E                move.l     D7, [A0 + 0x2E]
000014F4  DE80                     add.l      D7, D0
000014F6  2007                     move.l     D0, D7
000014F8  D094                     add.l      D0, [A4]
000014FA  2D40 FFF4                move.l     [A6 - 0xC], D0
000014FE  486E FFF4                pea.l      [A6 - 0xC]
00001502  4EAD 1932                jsr        [A5 + 0x1932 /* export_802, CODE:16 @ 00000C5A */]
00001506  206E FFF4                movea.l    A0, [A6 - 0xC]
0000150A  4A10                     tst.b      [A0]
0000150C  6746                     beq        +0x48 /* 00001554 */
0000150E  4267                     clr.w      -[A7]
00001510  2F2E FFF4                move.l     -[A7], [A6 - 0xC]
00001514  486E FFF0                pea.l      [A6 - 0x10]
00001518  42A7                     clr.l      -[A7]
0000151A  2F2E FFF4                move.l     -[A7], [A6 - 0xC]
0000151E  4EAD 1ADA                jsr        [A5 + 0x1ADA /* export_855, CODE:16 @ 00001C66 */]
00001522  201F                     move.l     D0, [A7]+
00001524  5280                     addq.l     D0, 1
00001526  2F00                     move.l     -[A7], D0
00001528  4EAD 046A                jsr        [A5 + 0x46A /* export_137, CODE:1 @ 00004DD2 */]
0000152C  4A5F                     tst.w      [A7]+
0000152E  671E                     beq        +0x20 /* 0000154E */
00001530  3F3C 002D                move.w     -[A7], 0x2D /* '-' */
00001534  4EBA F622                jsr        [PC - 0x9DE /* 00000B58 */]
00001538  42A7                     clr.l      -[A7]
0000153A  7001                     moveq.l    D0, 0x01
0000153C  2F00                     move.l     -[A7], D0
0000153E  4EAD 18DA                jsr        [A5 + 0x18DA /* export_791, CODE:16 @ 00000896 */]
00001542  2D5F FFF0                move.l     [A6 - 0x10], [A7]+
00001546  206E FFF0                movea.l    A0, [A6 - 0x10]
0000154A  2050                     movea.l    A0, [A0]
0000154C  4210                     clr.b      [A0]
label0000154E:
0000154E  2D6E FFF0 000C           move.l     [A6 + 0xC], [A6 - 0x10]
label00001554:
00001554  2F0C                     move.l     -[A7], A4
00001556  1F2E FFEF                move.b     -[A7], [A6 - 0x11]
0000155A  4EAD 03F2                jsr        [A5 + 0x3F2 /* export_122, CODE:1 @ 00004D00 */]
0000155E  2F2D B65C                move.l     -[A7], [A5 - 0x49A4]
00001562  4267                     clr.w      -[A7]
00001564  4EAD 1EF2                jsr        [A5 + 0x1EF2 /* export_986, CODE:19 @ 00000450 */]
label00001568:
00001568  4CDF 1080                movem.l    D7,A4, [A7]+
0000156C  4E5E                     unlink     A6
0000156E  2E9F                     move.l     [A7], [A7]+
00001570  4E75                     rts
fn00001572:
00001572  4E56 FFEE                link       A6, -0x0012
00001576  48E7 0108                movem.l    -[A7], D7,A4
0000157A  7000                     moveq.l    D0, 0x00
0000157C  2D40 000C                move.l     [A6 + 0xC], D0
00001580  42A7                     clr.l      -[A7]
00001582  2F2D B658                move.l     -[A7], [A5 - 0x49A8]
00001586  4EAD 1F6A                jsr        [A5 + 0x1F6A /* export_1001, CODE:19 @ 000016EC */]
0000158A  285F                     movea.l    A4, [A7]+
0000158C  200C                     move.l     D0, A4
0000158E  6700 0090                beq        +0x92 /* 00001620 */
00001592  2F0C                     move.l     -[A7], A4
00001594  486E FFEF                pea.l      [A6 - 0x11]
00001598  4EAD 1922                jsr        [A5 + 0x1922 /* export_800, CODE:16 @ 00000C02 */]
0000159C  2054                     movea.l    A0, [A4]
0000159E  2028 0024                move.l     D0, [A0 + 0x24]
000015A2  722E                     moveq.l    D1, 0x2E
000015A4  D081                     add.l      D0, D1
000015A6  2054                     movea.l    A0, [A4]
000015A8  2E28 002A                move.l     D7, [A0 + 0x2A]
000015AC  DE80                     add.l      D7, D0
000015AE  2007                     move.l     D0, D7
000015B0  D094                     add.l      D0, [A4]
000015B2  2D40 FFF4                move.l     [A6 - 0xC], D0
000015B6  486E FFF4                pea.l      [A6 - 0xC]
000015BA  4EAD 1932                jsr        [A5 + 0x1932 /* export_802, CODE:16 @ 00000C5A */]
000015BE  206E FFF4                movea.l    A0, [A6 - 0xC]
000015C2  4A10                     tst.b      [A0]
000015C4  6746                     beq        +0x48 /* 0000160C */
000015C6  4267                     clr.w      -[A7]
000015C8  2F2E FFF4                move.l     -[A7], [A6 - 0xC]
000015CC  486E FFF0                pea.l      [A6 - 0x10]
000015D0  42A7                     clr.l      -[A7]
000015D2  2F2E FFF4                move.l     -[A7], [A6 - 0xC]
000015D6  4EAD 1ADA                jsr        [A5 + 0x1ADA /* export_855, CODE:16 @ 00001C66 */]
000015DA  201F                     move.l     D0, [A7]+
000015DC  5280                     addq.l     D0, 1
000015DE  2F00                     move.l     -[A7], D0
000015E0  4EAD 046A                jsr        [A5 + 0x46A /* export_137, CODE:1 @ 00004DD2 */]
000015E4  4A5F                     tst.w      [A7]+
000015E6  671E                     beq        +0x20 /* 00001606 */
000015E8  3F3C 002D                move.w     -[A7], 0x2D /* '-' */
000015EC  4EBA F56A                jsr        [PC - 0xA96 /* 00000B58 */]
000015F0  42A7                     clr.l      -[A7]
000015F2  7001                     moveq.l    D0, 0x01
000015F4  2F00                     move.l     -[A7], D0
000015F6  4EAD 18DA                jsr        [A5 + 0x18DA /* export_791, CODE:16 @ 00000896 */]
000015FA  2D5F FFF0                move.l     [A6 - 0x10], [A7]+
000015FE  206E FFF0                movea.l    A0, [A6 - 0x10]
00001602  2050                     movea.l    A0, [A0]
00001604  4210                     clr.b      [A0]
label00001606:
00001606  2D6E FFF0 000C           move.l     [A6 + 0xC], [A6 - 0x10]
label0000160C:
0000160C  2F0C                     move.l     -[A7], A4
0000160E  1F2E FFEF                move.b     -[A7], [A6 - 0x11]
00001612  4EAD 03F2                jsr        [A5 + 0x3F2 /* export_122, CODE:1 @ 00004D00 */]
00001616  2F2D B658                move.l     -[A7], [A5 - 0x49A8]
0000161A  4267                     clr.w      -[A7]
0000161C  4EAD 1EE2                jsr        [A5 + 0x1EE2 /* export_984, CODE:19 @ 00000414 */]
label00001620:
00001620  4CDF 1080                movem.l    D7,A4, [A7]+
00001624  4E5E                     unlink     A6
00001626  2E9F                     move.l     [A7], [A7]+
00001628  4E75                     rts
fn0000162A:
0000162A  4E56 FFFC                link       A6, -0x0004
0000162E  7000                     moveq.l    D0, 0x00
00001630  2D40 000C                move.l     [A6 + 0xC], D0
00001634  4AAD F636                tst.l      [A5 - 0x9CA]
00001638  6742                     beq        +0x44 /* 0000167C */
0000163A  206D F636                movea.l    A0, [A5 - 0x9CA]
0000163E  2050                     movea.l    A0, [A0]
00001640  4A10                     tst.b      [A0]
00001642  6738                     beq        +0x3A /* 0000167C */
00001644  2D6D F636 FFFC           move.l     [A6 - 0x4], [A5 - 0x9CA]
0000164A  4267                     clr.w      -[A7]
0000164C  486E FFFC                pea.l      [A6 - 0x4]
00001650  4EAD 0462                jsr        [A5 + 0x462 /* export_136, CODE:1 @ 00004DBC */]
00001654  4A5F                     tst.w      [A7]+
00001656  671E                     beq        +0x20 /* 00001676 */
00001658  3F3C 002D                move.w     -[A7], 0x2D /* '-' */
0000165C  4EBA F4FA                jsr        [PC - 0xB06 /* 00000B58 */]
00001660  42A7                     clr.l      -[A7]
00001662  7001                     moveq.l    D0, 0x01
00001664  2F00                     move.l     -[A7], D0
00001666  4EAD 18DA                jsr        [A5 + 0x18DA /* export_791, CODE:16 @ 00000896 */]
0000166A  2D5F FFFC                move.l     [A6 - 0x4], [A7]+
0000166E  206E FFFC                movea.l    A0, [A6 - 0x4]
00001672  2050                     movea.l    A0, [A0]
00001674  4210                     clr.b      [A0]
label00001676:
00001676  2D6E FFFC 000C           move.l     [A6 + 0xC], [A6 - 0x4]
label0000167C:
0000167C  4E5E                     unlink     A6
0000167E  2E9F                     move.l     [A7], [A7]+
00001680  4E75                     rts
export_318:
00001682  4E56 FFFA                link       A6, -0x0006
00001686  7000                     moveq.l    D0, 0x00
00001688  2D40 0008                move.l     [A6 + 0x8], D0
0000168C  202D B654                move.l     D0, [A5 - 0x49AC]
00001690  B0AD F4F0                cmp.l      D0, [A5 - 0xB10]
00001694  57C0                     seq        D0
00001696  7204                     moveq.l    D1, 0x04
00001698  B22D B652                cmp.b      D1, [A5 - 0x49AE]
0000169C  57C1                     seq        D1
0000169E  C001                     and.b      D0, D1
000016A0  673A                     beq        +0x3C /* 000016DC */
000016A2  2D6D F4F4 FFFC           move.l     [A6 - 0x4], [A5 - 0xB0C]
000016A8  4267                     clr.w      -[A7]
000016AA  486E FFFC                pea.l      [A6 - 0x4]
000016AE  4EAD 0462                jsr        [A5 + 0x462 /* export_136, CODE:1 @ 00004DBC */]
000016B2  4A5F                     tst.w      [A7]+
000016B4  671E                     beq        +0x20 /* 000016D4 */
000016B6  3F3C 002D                move.w     -[A7], 0x2D /* '-' */
000016BA  4EBA F49C                jsr        [PC - 0xB64 /* 00000B58 */]
000016BE  42A7                     clr.l      -[A7]
000016C0  7001                     moveq.l    D0, 0x01
000016C2  2F00                     move.l     -[A7], D0
000016C4  4EAD 18DA                jsr        [A5 + 0x18DA /* export_791, CODE:16 @ 00000896 */]
000016C8  2D5F FFFC                move.l     [A6 - 0x4], [A7]+
000016CC  206E FFFC                movea.l    A0, [A6 - 0x4]
000016D0  2050                     movea.l    A0, [A0]
000016D2  4210                     clr.b      [A0]
label000016D4:
000016D4  2D6E FFFC 0008           move.l     [A6 + 0x8], [A6 - 0x4]
000016DA  606C                     bra        +0x6E /* 00001748 */
label000016DC:
000016DC  4267                     clr.w      -[A7]
000016DE  2F2D B654                move.l     -[A7], [A5 - 0x49AC]
000016E2  4EBA 1F30                jsr        [PC + 0x1F30 /* 00003614 */]
000016E6  101F                     move.b     D0, [A7]+
000016E8  675E                     beq        +0x60 /* 00001748 */
000016EA  102D B652                move.b     D0, [A5 - 0x49AE]
000016EE  4880                     ext.w      D0
000016F0  5340                     subq.w     D0, 1
000016F2  670E                     beq        +0x10 /* 00001702 */
000016F4  5340                     subq.w     D0, 1
000016F6  6718                     beq        +0x1A /* 00001710 */
000016F8  5340                     subq.w     D0, 1
000016FA  6722                     beq        +0x24 /* 0000171E */
000016FC  5340                     subq.w     D0, 1
000016FE  672C                     beq        +0x2E /* 0000172C */
00001700  6038                     bra        +0x3A /* 0000173A */
label00001702:
00001702  42A7                     clr.l      -[A7]
00001704  2F0E                     move.l     -[A7], A6
00001706  4EBA FCF0                jsr        [PC - 0x310 /* 000013F8 */]
0000170A  2D5F 0008                move.l     [A6 + 0x8], [A7]+
0000170E  6034                     bra        +0x36 /* 00001744 */
label00001710:
00001710  42A7                     clr.l      -[A7]
00001712  2F0E                     move.l     -[A7], A6
00001714  4EBA FDA4                jsr        [PC - 0x25C /* 000014BA */]
00001718  2D5F 0008                move.l     [A6 + 0x8], [A7]+
0000171C  6026                     bra        +0x28 /* 00001744 */
label0000171E:
0000171E  42A7                     clr.l      -[A7]
00001720  2F0E                     move.l     -[A7], A6
00001722  4EBA FE4E                jsr        [PC - 0x1B2 /* 00001572 */]
00001726  2D5F 0008                move.l     [A6 + 0x8], [A7]+
0000172A  6018                     bra        +0x1A /* 00001744 */
label0000172C:
0000172C  42A7                     clr.l      -[A7]
0000172E  2F0E                     move.l     -[A7], A6
00001730  4EBA FEF8                jsr        [PC - 0x108 /* 0000162A */]
00001734  2D5F 0008                move.l     [A6 + 0x8], [A7]+
00001738  600A                     bra        +0xC /* 00001744 */
label0000173A:
0000173A  2F3C 0421 BEBE           move.l     -[A7], 0x421BEBE
00001740  4EAD 185A                jsr        [A5 + 0x185A /* export_775, CODE:16 @ 0000042E */]
label00001744:
00001744  4EBA 36E8                jsr        [PC + 0x36E8 /* 00004E2E */]
label00001748:
00001748  4E5E                     unlink     A6
0000174A  4E75                     rts
export_319:
0000174C  4E56 FFFE                link       A6, -0x0002
00001750  41ED AAF0                lea.l      A0, [A5 - 0x5510]
00001754  2B48 AF14                move.l     [A5 - 0x50EC], A0
00001758  486D AAF0                pea.l      [A5 - 0x5510]
0000175C  2F3C 0000 0424           move.l     -[A7], 0x424
00001762  4EAD 1B42                jsr        [A5 + 0x1B42 /* export_868, CODE:16 @ 00001E7C */]
00001766  3B7C 0080 AB0E           move.w     [A5 - 0x54F2], 0x80
0000176C  4267                     clr.w      -[A7]
0000176E  486D AF14                pea.l      [A5 - 0x50EC]
00001772  3F3C 0005                move.w     -[A7], 0x5
00001776  42A7                     clr.l      -[A7]
00001778  486D 1C12                pea.l      [A5 + 0x1C12 /* export_894, CODE:17 @ 00000914 */]
0000177C  A807                     syscall    SndNewChannel
0000177E  3D5F FFFE                move.w     [A6 - 0x2], [A7]+
00001782  4A6E FFFE                tst.w      [A6 - 0x2]
00001786  57C0                     seq        D0
00001788  4400                     neg.b      D0
0000178A  1B40 D479                move.b     [A5 - 0x2B87], D0
0000178E  4E5E                     unlink     A6
00001790  4E75                     rts
export_320:
00001792  4E56 FFF2                link       A6, -0x000E
00001796  48E7 0F18                movem.l    -[A7], D4,D5,D6,D7,A3,A4
0000179A  282E 0014                move.l     D4, [A6 + 0x14]
0000179E  42A7                     clr.l      -[A7]
000017A0  206D D454                movea.l    A0, [A5 - 0x2BAC]
000017A4  2F10                     move.l     -[A7], [A0]
000017A6  3F3C 0281                move.w     -[A7], 0x281
000017AA  2F04                     move.l     -[A7], D4
000017AC  4EBA 40F8                jsr        [PC + 0x40F8 /* 000058A6 */]
000017B0  265F                     movea.l    A3, [A7]+
000017B2  206D D454                movea.l    A0, [A5 - 0x2BAC]
000017B6  2E10                     move.l     D7, [A0]
000017B8  DEBC 0000 0A04           add.l      D7, 0xA04
000017BE  2044                     movea.l    A0, D4
000017C0  4240                     clr.w      D0
000017C2  1010                     move.b     D0, [A0]
000017C4  E540                     asl        D0.w, 2
000017C6  3C00                     move.w     D6, D0
000017C8  DC7C 0050                add.w      D6, 0x50 /* 'P' */
label000017CC:
000017CC  4A6B 0002                tst.w      [A3 + 0x2]
000017D0  675C                     beq        +0x5E /* 0000182E */
000017D2  70FF                     moveq.l    D0, 0xFFFFFFFF
000017D4  B06B 0002                cmp.w      D0, [A3 + 0x2]
000017D8  6744                     beq        +0x46 /* 0000181E */
000017DA  206D D44C                movea.l    A0, [A5 - 0x2BB4]
000017DE  302B 0002                move.w     D0, [A3 + 0x2]
000017E2  48C0                     ext.l      D0
000017E4  2A00                     move.l     D5, D0
000017E6  DA90                     add.l      D5, [A0]
000017E8  4267                     clr.w      -[A7]
000017EA  2F04                     move.l     -[A7], D4
000017EC  2F05                     move.l     -[A7], D5
000017EE  4EAD 1AC2                jsr        [A5 + 0x1AC2 /* export_852, CODE:16 @ 00001B82 */]
000017F2  101F                     move.b     D0, [A7]+
000017F4  6728                     beq        +0x2A /* 0000181E */
000017F6  284B                     movea.l    A4, A3
000017F8  206E 0010                movea.l    A0, [A6 + 0x10]
000017FC  1094                     move.b     [A0], [A4]
000017FE  302C 0002                move.w     D0, [A4 + 0x2]
00001802  4440                     neg.w      D0
00001804  206E 0008                movea.l    A0, [A6 + 0x8]
00001808  3080                     move.w     [A0], D0
0000180A  102C 0001                move.b     D0, [A4 + 0x1]
0000180E  4880                     ext.w      D0
00001810  206E 000C                movea.l    A0, [A6 + 0xC]
00001814  3080                     move.w     [A0], D0
00001816  1D7C 0001 0018           move.b     [A6 + 0x18], 0x1
0000181C  6022                     bra        +0x24 /* 00001840 */
label0000181E:
0000181E  3006                     move.w     D0, D6
00001820  48C0                     ext.l      D0
00001822  D7C0                     add.l      A3, D0
00001824  BE8B                     cmp.l      D7, A3
00001826  6E04                     bgt        +0x6 /* 0000182C */
00001828  96FC 0A04                sub.w      A3, 0xA04
label0000182C:
0000182C  609E                     bra        -0x60 /* 000017CC */
label0000182E:
0000182E  422E 0018                clr.b      [A6 + 0x18]
00001832  206E 0010                movea.l    A0, [A6 + 0x10]
00001836  10BC 0015                move.b     [A0], 0x15
0000183A  206E 000C                movea.l    A0, [A6 + 0xC]
0000183E  4250                     clr.w      [A0]
label00001840:
00001840  4CDF 18F0                movem.l    D4,D5,D6,D7,A3,A4, [A7]+
00001844  4E5E                     unlink     A6
00001846  205F                     movea.l    A0, [A7]+
00001848  DEFC 0010                add.w      A7, 0x10
0000184C  4ED0                     jmp        [A0]
fn0000184E:
0000184E  4E56 FFFA                link       A6, -0x0006
00001852  48E7 0018                movem.l    -[A7], A3,A4
00001856  266E 000C                movea.l    A3, [A6 + 0xC]
0000185A  200B                     move.l     D0, A3
0000185C  6606                     bne        +0x8 /* 00001864 */
0000185E  4EBA 2164                jsr        [PC + 0x2164 /* 000039C4 */]
00001862  6036                     bra        +0x38 /* 0000189A */
label00001864:
00001864  426E FFFA                clr.w      [A6 - 0x6]
00001868  42A7                     clr.l      -[A7]
0000186A  42A7                     clr.l      -[A7]
0000186C  4EAD 18DA                jsr        [A5 + 0x18DA /* export_791, CODE:16 @ 00000896 */]
00001870  285F                     movea.l    A4, [A7]+
00001872  2F0B                     move.l     -[A7], A3
00001874  2F0C                     move.l     -[A7], A4
00001876  486E FFFA                pea.l      [A6 - 0x6]
0000187A  1F3C 0001                move.b     -[A7], 0x1
0000187E  4EAD 13CA                jsr        [A5 + 0x13CA /* export_629, CODE:13 @ 000009EA */]
00001882  2F0B                     move.l     -[A7], A3
00001884  4EAD 18D2                jsr        [A5 + 0x18D2 /* export_790, CODE:16 @ 0000083E */]
00001888  2F0C                     move.l     -[A7], A4
0000188A  4EAD 0222                jsr        [A5 + 0x222 /* export_64, CODE:1 @ 00004678 */]
0000188E  2F14                     move.l     -[A7], [A4]
00001890  4EBA 23CC                jsr        [PC + 0x23CC /* 00003C5E */]
00001894  2F0C                     move.l     -[A7], A4
00001896  4EAD 18D2                jsr        [A5 + 0x18D2 /* export_790, CODE:16 @ 0000083E */]
label0000189A:
0000189A  4CDF 1800                movem.l    A3,A4, [A7]+
0000189E  4E5E                     unlink     A6
000018A0  205F                     movea.l    A0, [A7]+
000018A2  504F                     addq.w     A7, 8
000018A4  4ED0                     jmp        [A0]
fn000018A6:
000018A6  4E56 FAEC                link       A6, -0x0514
000018AA  7002                     moveq.l    D0, 0x02
000018AC  B0AE 0018                cmp.l      D0, [A6 + 0x18]
000018B0  660E                     bne        +0x10 /* 000018C0 */
000018B2  41EE FE00                lea.l      A0, [A6 - 0x200]
000018B6  43FA 020E                lea.l      A1, [PC + 0x20E /* 00001AC6, value 0x6666965, pstring "field " */]
000018BA  20D9                     move.l     [A0]+, [A1]+
000018BC  20D9                     move.l     [A0]+, [A1]+
000018BE  600C                     bra        +0xE /* 000018CC */
label000018C0:
000018C0  41EE FE00                lea.l      A0, [A6 - 0x200]
000018C4  43FA 01F8                lea.l      A1, [PC + 0x1F8 /* 00001ABE, value 0x7627574, pstring "button " */]
000018C8  20D9                     move.l     [A0]+, [A1]+
000018CA  20D9                     move.l     [A0]+, [A1]+
label000018CC:
000018CC  202E 0014                move.l     D0, [A6 + 0x14]
000018D0  B0AE 000C                cmp.l      D0, [A6 + 0xC]
000018D4  6726                     beq        +0x28 /* 000018FC */
000018D6  487A 01DE                pea.l      [PC + 0x1DE /* 00001AB6, value 0x6626B67, pstring "bkgnd " */]
000018DA  486E FE00                pea.l      [A6 - 0x200]
000018DE  486E FC00                pea.l      [A6 - 0x400]
000018E2  3F3C 0002                move.w     -[A7], 0x2
000018E6  4EAD 050A                jsr        [A5 + 0x50A /* export_157, CODE:1 @ 0000531E */]
000018EA  41EE FE00                lea.l      A0, [A6 - 0x200]
000018EE  43EE FC00                lea.l      A1, [A6 - 0x400]
000018F2  703F                     moveq.l    D0, 0x3F
label000018F4:
000018F4  20D9                     move.l     [A0]+, [A1]+
000018F6  51C8 FFFC                dbf        D0, -0x6 /* 000018F4 */
000018FA  6024                     bra        +0x26 /* 00001920 */
label000018FC:
000018FC  487A 01B2                pea.l      [PC + 0x1B2 /* 00001AB0, value 0x5636172, pstring "card " */]
00001900  486E FE00                pea.l      [A6 - 0x200]
00001904  486E FC00                pea.l      [A6 - 0x400]
00001908  3F3C 0002                move.w     -[A7], 0x2
0000190C  4EAD 050A                jsr        [A5 + 0x50A /* export_157, CODE:1 @ 0000531E */]
00001910  41EE FE00                lea.l      A0, [A6 - 0x200]
00001914  43EE FC00                lea.l      A1, [A6 - 0x400]
00001918  703F                     moveq.l    D0, 0x3F
label0000191A:
0000191A  20D9                     move.l     [A0]+, [A1]+
0000191C  51C8 FFFC                dbf        D0, -0x6 /* 0000191A */
label00001920:
00001920  486E FB00                pea.l      [A6 - 0x500]
00001924  2F2E 0014                move.l     -[A7], [A6 + 0x14]
00001928  3F2E 0012                move.w     -[A7], [A6 + 0x12]
0000192C  4EAD 1DC2                jsr        [A5 + 0x1DC2 /* export_948, CODE:18 @ 00000E24 */]
00001930  205F                     movea.l    A0, [A7]+
00001932  43EE FD00                lea.l      A1, [A6 - 0x300]
00001936  703F                     moveq.l    D0, 0x3F
label00001938:
00001938  22D8                     move.l     [A1]+, [A0]+
0000193A  51C8 FFFC                dbf        D0, -0x6 /* 00001938 */
0000193E  4240                     clr.w      D0
00001940  102E FD00                move.b     D0, [A6 - 0x300]
00001944  4A40                     tst.w      D0
00001946  6632                     bne        +0x34 /* 0000197A */
00001948  486E FE00                pea.l      [A6 - 0x200]
0000194C  487A 015E                pea.l      [PC + 0x15E /* 00001AAC, value 0x3696420, pstring "id " */]
00001950  486E FAEC                pea.l      [A6 - 0x514]
00001954  2F2E 0010                move.l     -[A7], [A6 + 0x10]
00001958  4EAD 1902                jsr        [A5 + 0x1902 /* export_796, CODE:16 @ 000009D4 */]
0000195C  486E FC00                pea.l      [A6 - 0x400]
00001960  3F3C 0003                move.w     -[A7], 0x3
00001964  4EAD 050A                jsr        [A5 + 0x50A /* export_157, CODE:1 @ 0000531E */]
00001968  41EE FD00                lea.l      A0, [A6 - 0x300]
0000196C  43EE FC00                lea.l      A1, [A6 - 0x400]
00001970  703F                     moveq.l    D0, 0x3F
label00001972:
00001972  20D9                     move.l     [A0]+, [A1]+
00001974  51C8 FFFC                dbf        D0, -0x6 /* 00001972 */
00001978  6034                     bra        +0x36 /* 000019AE */
label0000197A:
0000197A  7002                     moveq.l    D0, 0x02
0000197C  B02D B66B                cmp.b      D0, [A5 - 0x4995]
00001980  672C                     beq        +0x2E /* 000019AE */
00001982  486E FE00                pea.l      [A6 - 0x200]
00001986  487A 00FC                pea.l      [PC + 0xFC /* 00001A84, value 0x1220B20 */]
0000198A  486E FD00                pea.l      [A6 - 0x300]
0000198E  487A 00F4                pea.l      [PC + 0xF4 /* 00001A84, value 0x1220B20 */]
00001992  486E FC00                pea.l      [A6 - 0x400]
00001996  3F3C 0004                move.w     -[A7], 0x4
0000199A  4EAD 050A                jsr        [A5 + 0x50A /* export_157, CODE:1 @ 0000531E */]
0000199E  41EE FD00                lea.l      A0, [A6 - 0x300]
000019A2  43EE FC00                lea.l      A1, [A6 - 0x400]
000019A6  703F                     moveq.l    D0, 0x3F
label000019A8:
000019A8  20D9                     move.l     [A0]+, [A1]+
000019AA  51C8 FFFC                dbf        D0, -0x6 /* 000019A8 */
label000019AE:
000019AE  7001                     moveq.l    D0, 0x01
000019B0  B02D B66B                cmp.b      D0, [A5 - 0x4995]
000019B4  6600 00B4                bne        +0xB6 /* 00001A6A */
000019B8  486E FB00                pea.l      [A6 - 0x500]
000019BC  2F2E 000C                move.l     -[A7], [A6 + 0xC]
000019C0  4EAD 1D8A                jsr        [A5 + 0x1D8A /* export_941, CODE:18 @ 00000AA4 */]
000019C4  205F                     movea.l    A0, [A7]+
000019C6  43EE FF00                lea.l      A1, [A6 - 0x100]
000019CA  703F                     moveq.l    D0, 0x3F
label000019CC:
000019CC  22D8                     move.l     [A1]+, [A0]+
000019CE  51C8 FFFC                dbf        D0, -0x6 /* 000019CC */
000019D2  4240                     clr.w      D0
000019D4  102E FF00                move.b     D0, [A6 - 0x100]
000019D8  4A40                     tst.w      D0
000019DA  6F2E                     ble        +0x30 /* 00001A0A */
000019DC  486E FD00                pea.l      [A6 - 0x300]
000019E0  487A 00BE                pea.l      [PC + 0xBE /* 00001AA0, value 0xA206F66 '\n of', pstring " of card \"" */]
000019E4  486E FF00                pea.l      [A6 - 0x100]
000019E8  487A 009A                pea.l      [PC + 0x9A /* 00001A84, value 0x1220B20 */]
000019EC  486E FC00                pea.l      [A6 - 0x400]
000019F0  3F3C 0004                move.w     -[A7], 0x4
000019F4  4EAD 050A                jsr        [A5 + 0x50A /* export_157, CODE:1 @ 0000531E */]
000019F8  41EE FD00                lea.l      A0, [A6 - 0x300]
000019FC  43EE FC00                lea.l      A1, [A6 - 0x400]
00001A00  703F                     moveq.l    D0, 0x3F
label00001A02:
00001A02  20D9                     move.l     [A0]+, [A1]+
00001A04  51C8 FFFC                dbf        D0, -0x6 /* 00001A02 */
00001A08  6030                     bra        +0x32 /* 00001A3A */
label00001A0A:
00001A0A  486E FD00                pea.l      [A6 - 0x300]
00001A0E  487A 0082                pea.l      [PC + 0x82 /* 00001A92, value 0xC206F66, pstring " of card id " */]
00001A12  486E FAEC                pea.l      [A6 - 0x514]
00001A16  2F2E 000C                move.l     -[A7], [A6 + 0xC]
00001A1A  4EAD 18B2                jsr        [A5 + 0x18B2 /* export_786, CODE:16 @ 00000738 */]
00001A1E  486E FC00                pea.l      [A6 - 0x400]
00001A22  3F3C 0003                move.w     -[A7], 0x3
00001A26  4EAD 050A                jsr        [A5 + 0x50A /* export_157, CODE:1 @ 0000531E */]
00001A2A  41EE FD00                lea.l      A0, [A6 - 0x300]
00001A2E  43EE FC00                lea.l      A1, [A6 - 0x400]
00001A32  703F                     moveq.l    D0, 0x3F
label00001A34:
00001A34  20D9                     move.l     [A0]+, [A1]+
00001A36  51C8 FFFC                dbf        D0, -0x6 /* 00001A34 */
label00001A3A:
00001A3A  486E FD00                pea.l      [A6 - 0x300]
00001A3E  487A 0046                pea.l      [PC + 0x46 /* 00001A86, value 0xB206F66, pstring " of stack \"" */]
00001A42  486D FC48                pea.l      [A5 - 0x3B8]
00001A46  486D FD48                pea.l      [A5 - 0x2B8]
00001A4A  487A 0038                pea.l      [PC + 0x38 /* 00001A84, value 0x1220B20 */]
00001A4E  486E FC00                pea.l      [A6 - 0x400]
00001A52  3F3C 0005                move.w     -[A7], 0x5
00001A56  4EAD 050A                jsr        [A5 + 0x50A /* export_157, CODE:1 @ 0000531E */]
00001A5A  41EE FD00                lea.l      A0, [A6 - 0x300]
00001A5E  43EE FC00                lea.l      A1, [A6 - 0x400]
00001A62  703F                     moveq.l    D0, 0x3F
label00001A64:
00001A64  20D9                     move.l     [A0]+, [A1]+
00001A66  51C8 FFFC                dbf        D0, -0x6 /* 00001A64 */
label00001A6A:
00001A6A  206E 001C                movea.l    A0, [A6 + 0x1C]
00001A6E  43EE FD00                lea.l      A1, [A6 - 0x300]
00001A72  703F                     moveq.l    D0, 0x3F
label00001A74:
00001A74  20D9                     move.l     [A0]+, [A1]+
00001A76  51C8 FFFC                dbf        D0, -0x6 /* 00001A74 */
00001A7A  4E5E                     unlink     A6
00001A7C  205F                     movea.l    A0, [A7]+
00001A7E  DEFC 0014                add.w      A7, 0x14
00001A82  4ED0                     jmp        [A0]
00001A84  0122                     btst       -[A2], D0
00001A86  0B20                     btst       -[A0], D5
00001A88  6F66                     ble        +0x68 /* 00001AF0 */
00001A8A  2073 7461                movea.l    A0, [A3 + D7.w * 4 + 0x61]
00001A8E  636B                     bls        +0x6D /* 00001AFB */
00001A90  2022                     move.l     D0, -[A2]
00001A92  0C20 6F66                cmpi.b     -[A0], 0x66 /* 'f' */
00001A96  2063                     movea.l    A0, -[A3]
00001A98  6172                     bsr        +0x74 /* 00001B0C */
00001A9A  6420                     bcc        +0x22 /* 00001ABC */
00001A9C  6964                     bvs        +0x66 /* 00001B02 */
00001A9E  2000                     move.l     D0, D0
00001AA0  0A20 6F66                xori.b     -[A0], 0x66 /* 'f' */
00001AA4  2063                     movea.l    A0, -[A3]
00001AA6  6172                     bsr        +0x74 /* 00001B1A */
00001AA8  6420                     bcc        +0x22 /* 00001ACA */
00001AAA  2200                     move.l     D1, D0
00001AAC  0369 6420                bchg       [A1 + 0x6420], D1
00001AB0  0563                     bchg       -[A3], D2
00001AB2  6172                     bsr        +0x74 /* 00001B26 */
00001AB4  6420                     bcc        +0x22 /* 00001AD6 */
00001AB6  0662 6B67                addi.w     -[A2], 0x6B67 /* 'kg' */
00001ABA  6E64                     bgt        +0x66 /* 00001B20 */
label00001ABC:
00001ABC  2000                     move.l     D0, D0
00001ABE  0762                     bchg       -[A2], D3
00001AC0  7574                     moveq.l    D2, 0x74
00001AC2  746F                     moveq.l    D2, 0x6F
00001AC4  6E20                     bgt        +0x22 /* 00001AE6 */
00001AC6  0666 6965                addi.w     -[A6], 0x6965 /* 'ie' */
label00001ACA:
00001ACA  6C64                     bge        +0x66 /* 00001B30 */
00001ACC  2000                     move.l     D0, D0
fn00001ACE:
00001ACE  4E56 FDE0                link       A6, -0x0220
00001AD2  48E7 0108                movem.l    -[A7], D7,A4
label00001AD6:
00001AD6  286E 0008                movea.l    A4, [A6 + 0x8]
00001ADA  4267                     clr.w      -[A7]
00001ADC  206C 000A                movea.l    A0, [A4 + 0xA]
00001AE0  2F28 0010                move.l     -[A7], [A0 + 0x10]
00001AE4  206C 000A                movea.l    A0, [A4 + 0xA]
// begin alternate branch 00001AE6-00001AF0
label00001AE6:
00001AE6  000A 3F28                ori.b      A2, 0x28 /* '(' */
00001AEA  000E 486E                ori.b      A6, 0x6E /* 'n' */
00001AEE  FFE2                     .invalid   <<F/7/7>>
// end alternate branch 00001AE6-00001AF0
label00001AE6: // (misaligned)
00001AE8  3F28 000E                move.w     -[A7], [A0 + 0xE]
00001AEC  486E FFE2                pea.l      [A6 - 0x1E]
label00001AF0:
00001AF0  4EAD 1DB2                jsr        [A5 + 0x1DB2 /* export_946, CODE:18 @ 00000D08 */]
00001AF4  101F                     move.b     D0, [A7]+
00001AF6  6700 058C                beq        +0x58E /* 00002084 */
00001AFA  102C 0008                move.b     D0, [A4 + 0x8]
00001AFE  4880                     ext.w      D0
00001B00  6B00 0578                bmi        +0x57A /* 0000207A */
// begin alternate branch 00001B02-00001B0C
label00001B02:
00001B02  0578 0C40                bchg       [0x00000C40], D2
00001B06  0038 6E00 0570           ori.b      [0x00000570], 0x0
// end alternate branch 00001B02-00001B0C
label00001B02: // (misaligned)
00001B04  0C40 0038                cmpi.w     D0, 0x38 /* '8' */
00001B08  6E00 0570                bgt        +0x572 /* 0000207A */
fn00001B0C:
00001B0C  D040                     add.w      D0, D0
00001B0E  303B 0006                move.w     D0, [PC + D0.w + 0x6]
00001B12  4EFB 0000                jmp        [PC + D0.w]
00001B16  0092 00C6 00D6           ori.l      [A2], 0xC600D6
// begin alternate branch 00001B1A-00001B1C
fn00001B1A:
00001B1A  00D6                     .incomplete
// end alternate branch 00001B1A-00001B1C
fn00001B1A: // (misaligned)
00001B1C  016A 016A                bchg       [A2 + 0x16A], D0
label00001B20:
00001B20  0342                     bchg       D2, D1
00001B22  0382                     bclr       D2, D1
00001B24  03B0 03C0                bclr       [ + <<invalid base displacement size>>], D1
// begin alternate branch 00001B26-00001B28
fn00001B26:
00001B26  03C0                     .incomplete
// end alternate branch 00001B26-00001B28
fn00001B26: // (misaligned)
00001B28  0558                     bchg       [A0]+, D2
00001B2A  0566                     bchg       -[A6], D2
00001B2C  017C 019E                bchg       0x19E, D0
label00001B30:
00001B30  02DE                     .incomplete
00001B32  0228 0256 0284           andi.b     [A0 + 0x284], 0x56 /* 'V' */
00001B38  0330 0566                btst       <<invalid full ext with IS == 1 and I/IS == 6>>, D1
00001B3C  0074 0566 0566           ori.w      <<invalid full ext with IS == 1 and I/IS == 6>>, 0x566
00001B42  0566                     bchg       -[A6], D2
00001B44  0566                     bchg       -[A6], D2
00001B46  0566                     bchg       -[A6], D2
00001B48  0566                     bchg       -[A6], D2
00001B4A  0566                     bchg       -[A6], D2
00001B4C  0566                     bchg       -[A6], D2
00001B4E  0566                     bchg       -[A6], D2
00001B50  0566                     bchg       -[A6], D2
00001B52  0566                     bchg       -[A6], D2
00001B54  0566                     bchg       -[A6], D2
00001B56  01CC                     .incomplete
00001B58  0566                     bchg       -[A6], D2
00001B5A  0566                     bchg       -[A6], D2
00001B5C  0566                     bchg       -[A6], D2
00001B5E  01FA                     .incomplete
00001B60  0566                     bchg       -[A6], D2
00001B62  0566                     bchg       -[A6], D2
00001B64  0566                     bchg       -[A6], D2
00001B66  0566                     bchg       -[A6], D2
00001B68  0566                     bchg       -[A6], D2
00001B6A  0566                     bchg       -[A6], D2
00001B6C  0566                     bchg       -[A6], D2
00001B6E  0566                     bchg       -[A6], D2
00001B70  0566                     bchg       -[A6], D2
00001B72  0302                     btst       D2, D1
00001B74  0566                     bchg       -[A6], D2
00001B76  0566                     bchg       -[A6], D2
00001B78  016A 016A                bchg       [A2 + 0x16A], D0
00001B7C  016A 016A                bchg       [A2 + 0x16A], D0
00001B80  016A 016A                bchg       [A2 + 0x16A], D0
00001B84  016A 016A                bchg       [A2 + 0x16A], D0
00001B88  42A7                     clr.l      -[A7]
00001B8A  206C 000A                movea.l    A0, [A4 + 0xA]
00001B8E  2F28 0010                move.l     -[A7], [A0 + 0x10]
00001B92  3F2E FFE4                move.w     -[A7], [A6 - 0x1C]
00001B96  4EAD 1DDA                jsr        [A5 + 0x1DDA /* export_951, CODE:18 @ 00000FB4 */]
00001B9A  2F2E 0008                move.l     -[A7], [A6 + 0x8]
00001B9E  4EBA FCAE                jsr        [PC - 0x352 /* 0000184E */]
00001BA2  6000 04E8                bra        +0x4EA /* 0000208C */
00001BA6  486E FDE0                pea.l      [A6 - 0x220]
00001BAA  102E FFE6                move.b     D0, [A6 - 0x1A]
00001BAE  4880                     ext.w      D0
00001BB0  48C0                     ext.l      D0
00001BB2  2F00                     move.l     -[A7], D0
00001BB4  206C 000A                movea.l    A0, [A4 + 0xA]
00001BB8  2F28 0010                move.l     -[A7], [A0 + 0x10]
00001BBC  302E FFE4                move.w     D0, [A6 - 0x1C]
00001BC0  48C0                     ext.l      D0
00001BC2  2F00                     move.l     -[A7], D0
00001BC4  206C 000A                movea.l    A0, [A4 + 0xA]
00001BC8  2F28 000A                move.l     -[A7], [A0 + 0xA]
00001BCC  2F0E                     move.l     -[A7], A6
00001BCE  4EBA FCD6                jsr        [PC - 0x32A /* 000018A6 */]
00001BD2  4EBA 1EF8                jsr        [PC + 0x1EF8 /* 00003ACC */]
00001BD6  6000 04B4                bra        +0x4B6 /* 0000208C */
00001BDA  302E FFE4                move.w     D0, [A6 - 0x1C]
00001BDE  48C0                     ext.l      D0
00001BE0  2F00                     move.l     -[A7], D0
00001BE2  4EBA 1E84                jsr        [PC + 0x1E84 /* 00003A68 */]
00001BE6  6000 04A4                bra        +0x4A6 /* 0000208C */
00001BEA  7000                     moveq.l    D0, 0x00
00001BEC  302E FFF0                move.w     D0, [A6 - 0x10]
00001BF0  C0BC 0000 000F           and.l      D0, 0xF
00001BF6  6B70                     bmi        +0x72 /* 00001C68 */
00001BF8  0C40 0007                cmpi.w     D0, 0x7
00001BFC  6E6A                     bgt        +0x6C /* 00001C68 */
00001BFE  D040                     add.w      D0, D0
00001C00  303B 0006                move.w     D0, [PC + D0.w + 0x6]
00001C04  4EFB 0000                jmp        [PC + D0.w]
00001C08  0012 001C                ori.b      [A2], 0x1C
00001C0C  0026 0030                ori.b      -[A6], 0x30 /* '0' */
00001C10  003A 0044 004E           ori.b      [PC + 0x4E /* 00001C60, value 0x4 */], 0x44 /* 'D' */
00001C16  0058 487A                ori.w      [A0]+, 0x487A /* 'Hz' */
00001C1A  0518                     btst       [A0]+, D2
00001C1C  4EBA 1EAE                jsr        [PC + 0x1EAE /* 00003ACC */]
00001C20  6058                     bra        +0x5A /* 00001C7A */
00001C22  487A 0506                pea.l      [PC + 0x506 /* 0000212A, value 0x66F7061, pstring "opaque" */]
00001C26  4EBA 1EA4                jsr        [PC + 0x1EA4 /* 00003ACC */]
00001C2A  604E                     bra        +0x50 /* 00001C7A */
00001C2C  487A 04F2                pea.l      [PC + 0x4F2 /* 00002120, value 0x9726563 '\trec', pstring "rectangle" */]
00001C30  4EBA 1E9A                jsr        [PC + 0x1E9A /* 00003ACC */]
00001C34  6044                     bra        +0x46 /* 00001C7A */
00001C36  487A 04DE                pea.l      [PC + 0x4DE /* 00002116, value 0x9726F75 '\trou', pstring "roundRect" */]
00001C3A  4EBA 1E90                jsr        [PC + 0x1E90 /* 00003ACC */]
00001C3E  603A                     bra        +0x3C /* 00001C7A */
00001C40  487A 04CC                pea.l      [PC + 0x4CC /* 0000210E, value 0x6736861, pstring "shadow" */]
00001C44  4EBA 1E86                jsr        [PC + 0x1E86 /* 00003ACC */]
00001C48  6030                     bra        +0x32 /* 00001C7A */
00001C4A  487A 04B8                pea.l      [PC + 0x4B8 /* 00002104, value 0x8636865, pstring "checkBox" */]
00001C4E  4EBA 1E7C                jsr        [PC + 0x1E7C /* 00003ACC */]
00001C52  6026                     bra        +0x28 /* 00001C7A */
00001C54  487A 04A2                pea.l      [PC + 0x4A2 /* 000020F8, value 0xB726164, pstring "radioButton" */]
00001C58  4EBA 1E72                jsr        [PC + 0x1E72 /* 00003ACC */]
00001C5C  601C                     bra        +0x1E /* 00001C7A */
00001C5E  487A 048E                pea.l      [PC + 0x48E /* 000020EE, value 0x9736372 '\tscr', pstring "scrolling" */]
00001C62  4EBA 1E68                jsr        [PC + 0x1E68 /* 00003ACC */]
00001C66  6012                     bra        +0x14 /* 00001C7A */
label00001C68:
00001C68  7000                     moveq.l    D0, 0x00
00001C6A  302E FFF0                move.w     D0, [A6 - 0x10]
00001C6E  C0BC 0000 000F           and.l      D0, 0xF
00001C74  2F00                     move.l     -[A7], D0
00001C76  4EBA 1DF0                jsr        [PC + 0x1DF0 /* 00003A68 */]
label00001C7A:
00001C7A  6000 0410                bra        +0x412 /* 0000208C */
00001C7E  486E FFE8                pea.l      [A6 - 0x18]
00001C82  1F2C 0008                move.b     -[A7], [A4 + 0x8]
00001C86  4267                     clr.w      -[A7]
00001C88  4EBA 1E78                jsr        [PC + 0x1E78 /* 00003B02 */]
00001C8C  6000 03FE                bra        +0x400 /* 0000208C */
00001C90  7002                     moveq.l    D0, 0x02
00001C92  B02E FFE6                cmp.b      D0, [A6 - 0x1A]
00001C96  660A                     bne        +0xC /* 00001CA2 */
00001C98  3F3C 003E                move.w     -[A7], 0x3E /* '>' */
00001C9C  4EBA EEBA                jsr        [PC - 0x1146 /* 00000B58 */]
00001CA0  600C                     bra        +0xE /* 00001CAE */
label00001CA2:
00001CA2  302E FFF4                move.w     D0, [A6 - 0xC]
00001CA6  48C0                     ext.l      D0
00001CA8  2F00                     move.l     -[A7], D0
00001CAA  4EBA 1DA2                jsr        [PC + 0x1DA2 /* 00003A4E */]
label00001CAE:
00001CAE  6000 03DC                bra        +0x3DE /* 0000208C */
00001CB2  7002                     moveq.l    D0, 0x02
00001CB4  B02E FFE6                cmp.b      D0, [A6 - 0x1A]
00001CB8  660A                     bne        +0xC /* 00001CC4 */
00001CBA  3F3C 003E                move.w     -[A7], 0x3E /* '>' */
00001CBE  4EBA EE98                jsr        [PC - 0x1168 /* 00000B58 */]
00001CC2  6018                     bra        +0x1A /* 00001CDC */
label00001CC4:
00001CC4  7000                     moveq.l    D0, 0x00
00001CC6  302E FFF0                move.w     D0, [A6 - 0x10]
00001CCA  C0BC FFFF 8000           and.l      D0, 0xFFFF8000
00001CD0  4A80                     tst.l      D0
00001CD2  56C0                     sne        D0
00001CD4  4400                     neg.b      D0
00001CD6  1F00                     move.b     -[A7], D0
00001CD8  4EBA 1D2C                jsr        [PC + 0x1D2C /* 00003A06 */]
label00001CDC:
00001CDC  6000 03AE                bra        +0x3B0 /* 0000208C */
00001CE0  7001                     moveq.l    D0, 0x01
00001CE2  B02E FFE6                cmp.b      D0, [A6 - 0x1A]
00001CE6  670A                     beq        +0xC /* 00001CF2 */
00001CE8  3F3C 003E                move.w     -[A7], 0x3E /* '>' */
00001CEC  4EBA EE6A                jsr        [PC - 0x1196 /* 00000B58 */]
00001CF0  6018                     bra        +0x1A /* 00001D0A */
label00001CF2:
00001CF2  7000                     moveq.l    D0, 0x00
00001CF4  302E FFF0                move.w     D0, [A6 - 0x10]
00001CF8  C0BC 0000 4000           and.l      D0, 0x4000 /* '@\0' */
00001CFE  4A80                     tst.l      D0
00001D00  56C0                     sne        D0
00001D02  4400                     neg.b      D0
00001D04  1F00                     move.b     -[A7], D0
00001D06  4EBA 1CFE                jsr        [PC + 0x1CFE /* 00003A06 */]
label00001D0A:
00001D0A  6000 0380                bra        +0x382 /* 0000208C */
00001D0E  7001                     moveq.l    D0, 0x01
00001D10  B02E FFE6                cmp.b      D0, [A6 - 0x1A]
00001D14  670A                     beq        +0xC /* 00001D20 */
00001D16  3F3C 003E                move.w     -[A7], 0x3E /* '>' */
00001D1A  4EBA EE3C                jsr        [PC - 0x11C4 /* 00000B58 */]
00001D1E  6018                     bra        +0x1A /* 00001D38 */
label00001D20:
00001D20  7000                     moveq.l    D0, 0x00
00001D22  302E FFF0                move.w     D0, [A6 - 0x10]
00001D26  C0BC 0000 2000           and.l      D0, 0x2000 /* ' \0' */
00001D2C  4A80                     tst.l      D0
00001D2E  56C0                     sne        D0
00001D30  4400                     neg.b      D0
00001D32  1F00                     move.b     -[A7], D0
00001D34  4EBA 1CD0                jsr        [PC + 0x1CD0 /* 00003A06 */]
label00001D38:
00001D38  6000 0352                bra        +0x354 /* 0000208C */
00001D3C  7001                     moveq.l    D0, 0x01
00001D3E  B02E FFE6                cmp.b      D0, [A6 - 0x1A]
00001D42  660A                     bne        +0xC /* 00001D4E */
00001D44  3F3C 003E                move.w     -[A7], 0x3E /* '>' */
00001D48  4EBA EE0E                jsr        [PC - 0x11F2 /* 00000B58 */]
00001D4C  6018                     bra        +0x1A /* 00001D66 */
label00001D4E:
00001D4E  7000                     moveq.l    D0, 0x00
00001D50  302E FFF0                move.w     D0, [A6 - 0x10]
00001D54  C0BC 0000 4000           and.l      D0, 0x4000 /* '@\0' */
00001D5A  4A80                     tst.l      D0
00001D5C  56C0                     sne        D0
00001D5E  4400                     neg.b      D0
00001D60  1F00                     move.b     -[A7], D0
00001D62  4EBA 1CA2                jsr        [PC + 0x1CA2 /* 00003A06 */]
label00001D66:
00001D66  6000 0324                bra        +0x326 /* 0000208C */
00001D6A  7001                     moveq.l    D0, 0x01
00001D6C  B02E FFE6                cmp.b      D0, [A6 - 0x1A]
00001D70  660A                     bne        +0xC /* 00001D7C */
00001D72  3F3C 003E                move.w     -[A7], 0x3E /* '>' */
00001D76  4EBA EDE0                jsr        [PC - 0x1220 /* 00000B58 */]
00001D7A  6018                     bra        +0x1A /* 00001D94 */
label00001D7C:
00001D7C  7000                     moveq.l    D0, 0x00
00001D7E  302E FFF0                move.w     D0, [A6 - 0x10]
00001D82  C0BC 0000 2000           and.l      D0, 0x2000 /* ' \0' */
00001D88  4A80                     tst.l      D0
00001D8A  56C0                     sne        D0
00001D8C  4400                     neg.b      D0
00001D8E  1F00                     move.b     -[A7], D0
00001D90  4EBA 1C74                jsr        [PC + 0x1C74 /* 00003A06 */]
label00001D94:
00001D94  6000 02F6                bra        +0x2F8 /* 0000208C */
00001D98  3E2E FFE4                move.w     D7, [A6 - 0x1C]
00001D9C  206C 000A                movea.l    A0, [A4 + 0xA]
00001DA0  226C 000A                movea.l    A1, [A4 + 0xA]
00001DA4  2028 0010                move.l     D0, [A0 + 0x10]
00001DA8  B0A9 000A                cmp.l      D0, [A1 + 0xA]
00001DAC  6606                     bne        +0x8 /* 00001DB4 */
00001DAE  3007                     move.w     D0, D7
00001DB0  4440                     neg.w      D0
00001DB2  3E00                     move.w     D7, D0
label00001DB4:
00001DB4  7000                     moveq.l    D0, 0x00
00001DB6  302E FFF0                move.w     D0, [A6 - 0x10]
00001DBA  C0BC 0000 000F           and.l      D0, 0xF
00001DC0  7207                     moveq.l    D1, 0x07
00001DC2  B280                     cmp.l      D1, D0
00001DC4  56C0                     sne        D0
00001DC6  7201                     moveq.l    D1, 0x01
00001DC8  B22E FFE6                cmp.b      D1, [A6 - 0x1A]
00001DCC  57C1                     seq        D1
00001DCE  8001                     or.b       D0, D1
00001DD0  670A                     beq        +0xC /* 00001DDC */
00001DD2  3F3C 0021                move.w     -[A7], 0x21 /* '!' */
00001DD6  4EBA ED80                jsr        [PC - 0x1280 /* 00000B58 */]
00001DDA  6012                     bra        +0x14 /* 00001DEE */
label00001DDC:
00001DDC  4267                     clr.w      -[A7]
00001DDE  3F07                     move.w     -[A7], D7
00001DE0  4EAD 177A                jsr        [A5 + 0x177A /* export_747, CODE:15 @ 00005780 */]
00001DE4  301F                     move.w     D0, [A7]+
00001DE6  48C0                     ext.l      D0
00001DE8  2F00                     move.l     -[A7], D0
00001DEA  4EBA 1C62                jsr        [PC + 0x1C62 /* 00003A4E */]
label00001DEE:
00001DEE  6000 029C                bra        +0x29E /* 0000208C */
00001DF2  7001                     moveq.l    D0, 0x01
00001DF4  B02E FFE6                cmp.b      D0, [A6 - 0x1A]
00001DF8  660A                     bne        +0xC /* 00001E04 */
00001DFA  3F3C 003E                move.w     -[A7], 0x3E /* '>' */
00001DFE  4EBA ED58                jsr        [PC - 0x12A8 /* 00000B58 */]
00001E02  600E                     bra        +0x10 /* 00001E12 */
label00001E04:
00001E04  102E FFE7                move.b     D0, [A6 - 0x19]
00001E08  0240 0001                andi.w     D0, 0x1
00001E0C  1F00                     move.b     -[A7], D0
00001E0E  4EBA 1BF6                jsr        [PC + 0x1BF6 /* 00003A06 */]
label00001E12:
00001E12  6000 0278                bra        +0x27A /* 0000208C */
00001E16  7001                     moveq.l    D0, 0x01
00001E18  B02E FFE6                cmp.b      D0, [A6 - 0x1A]
00001E1C  660A                     bne        +0xC /* 00001E28 */
00001E1E  3F3C 003E                move.w     -[A7], 0x3E /* '>' */
00001E22  4EBA ED34                jsr        [PC - 0x12CC /* 00000B58 */]
00001E26  6018                     bra        +0x1A /* 00001E40 */
label00001E28:
00001E28  7000                     moveq.l    D0, 0x00
00001E2A  102E FFE7                move.b     D0, [A6 - 0x19]
00001E2E  C0BC 0000 0002           and.l      D0, 0x2
00001E34  4A80                     tst.l      D0
00001E36  56C0                     sne        D0
00001E38  4400                     neg.b      D0
00001E3A  1F00                     move.b     -[A7], D0
00001E3C  4EBA 1BC8                jsr        [PC + 0x1BC8 /* 00003A06 */]
label00001E40:
00001E40  6000 024A                bra        +0x24C /* 0000208C */
00001E44  4A2E FFE7                tst.b      [A6 - 0x19]
00001E48  5CC0                     sge        D0
00001E4A  4400                     neg.b      D0
00001E4C  1F00                     move.b     -[A7], D0
00001E4E  4EBA 1BB6                jsr        [PC + 0x1BB6 /* 00003A06 */]
00001E52  6000 0238                bra        +0x23A /* 0000208C */
00001E56  302E FFF6                move.w     D0, [A6 - 0xA]
00001E5A  5240                     addq.w     D0, 1
00001E5C  671E                     beq        +0x20 /* 00001E7C */
00001E5E  5340                     subq.w     D0, 1
00001E60  6706                     beq        +0x8 /* 00001E68 */
00001E62  5340                     subq.w     D0, 1
00001E64  670C                     beq        +0xE /* 00001E72 */
00001E66  601E                     bra        +0x20 /* 00001E86 */
label00001E68:
00001E68  487A 027E                pea.l      [PC + 0x27E /* 000020E8, value 0x46C6566, pstring "left" */]
00001E6C  4EBA 1C5E                jsr        [PC + 0x1C5E /* 00003ACC */]
00001E70  6020                     bra        +0x22 /* 00001E92 */
label00001E72:
00001E72  487A 026C                pea.l      [PC + 0x26C /* 000020E0, value 0x663656E, pstring "center" */]
00001E76  4EBA 1C54                jsr        [PC + 0x1C54 /* 00003ACC */]
00001E7A  6016                     bra        +0x18 /* 00001E92 */
label00001E7C:
00001E7C  487A 025C                pea.l      [PC + 0x25C /* 000020DA, value 0x5726967, pstring "right" */]
00001E80  4EBA 1C4A                jsr        [PC + 0x1C4A /* 00003ACC */]
00001E84  600C                     bra        +0xE /* 00001E92 */
label00001E86:
00001E86  302E FFF6                move.w     D0, [A6 - 0xA]
00001E8A  48C0                     ext.l      D0
00001E8C  2F00                     move.l     -[A7], D0
00001E8E  4EBA 1BD8                jsr        [PC + 0x1BD8 /* 00003A68 */]
label00001E92:
00001E92  6000 01F8                bra        +0x1FA /* 0000208C */
00001E96  3F2E FFF8                move.w     -[A7], [A6 - 0x8]
00001E9A  486C FF00                pea.l      [A4 - 0x100]
00001E9E  A8FF                     syscall    GetFName/GetFontName
00001EA0  4240                     clr.w      D0
00001EA2  102C FF00                move.b     D0, [A4 - 0x100]
00001EA6  4A40                     tst.w      D0
00001EA8  660E                     bne        +0x10 /* 00001EB8 */
00001EAA  302E FFF8                move.w     D0, [A6 - 0x8]
00001EAE  48C0                     ext.l      D0
00001EB0  2F00                     move.l     -[A7], D0
00001EB2  4EBA 1BB4                jsr        [PC + 0x1BB4 /* 00003A68 */]
00001EB6  6008                     bra        +0xA /* 00001EC0 */
label00001EB8:
00001EB8  486C FF00                pea.l      [A4 - 0x100]
00001EBC  4EBA 1BC4                jsr        [PC + 0x1BC4 /* 00003A82 */]
label00001EC0:
00001EC0  6000 01CA                bra        +0x1CC /* 0000208C */
00001EC4  302E FFFA                move.w     D0, [A6 - 0x6]
00001EC8  48C0                     ext.l      D0
00001ECA  2F00                     move.l     -[A7], D0
00001ECC  4EBA 1B80                jsr        [PC + 0x1B80 /* 00003A4E */]
00001ED0  6000 01BA                bra        +0x1BC /* 0000208C */
00001ED4  102E FFFC                move.b     D0, [A6 - 0x4]
00001ED8  7200                     moveq.l    D1, 0x00
00001EDA  B001                     cmp.b      D0, D1
00001EDC  6610                     bne        +0x12 /* 00001EEE */
00001EDE  41EC FF00                lea.l      A0, [A4 - 0x100]
00001EE2  43FA 01F0                lea.l      A1, [PC + 0x1F0 /* 000020D4, value 0x5706C61, pstring "plain" */]
00001EE6  20D9                     move.l     [A0]+, [A1]+
00001EE8  3091                     move.w     [A0], [A1]
00001EEA  6000 0176                bra        +0x178 /* 00002062 */
label00001EEE:
00001EEE  422C FF00                clr.b      [A4 - 0x100]
00001EF2  4267                     clr.w      -[A7]
00001EF4  486E FFFC                pea.l      [A6 - 0x4]
00001EF8  7007                     moveq.l    D0, 0x07
00001EFA  2F00                     move.l     -[A7], D0
00001EFC  A85D                     syscall    BitTst
00001EFE  101F                     move.b     D0, [A7]+
00001F00  6724                     beq        +0x26 /* 00001F26 */
00001F02  486C FF00                pea.l      [A4 - 0x100]
00001F06  487A 01C6                pea.l      [PC + 0x1C6 /* 000020CE, value 0x5626F6C, pstring "bold," */]
00001F0A  486E FEE0                pea.l      [A6 - 0x120]
00001F0E  3F3C 0002                move.w     -[A7], 0x2
00001F12  4EAD 050A                jsr        [A5 + 0x50A /* export_157, CODE:1 @ 0000531E */]
00001F16  41EC FF00                lea.l      A0, [A4 - 0x100]
00001F1A  43EE FEE0                lea.l      A1, [A6 - 0x120]
00001F1E  703F                     moveq.l    D0, 0x3F
label00001F20:
00001F20  20D9                     move.l     [A0]+, [A1]+
00001F22  51C8 FFFC                dbf        D0, -0x6 /* 00001F20 */
label00001F26:
00001F26  4267                     clr.w      -[A7]
00001F28  486E FFFC                pea.l      [A6 - 0x4]
00001F2C  7006                     moveq.l    D0, 0x06
00001F2E  2F00                     move.l     -[A7], D0
00001F30  A85D                     syscall    BitTst
00001F32  101F                     move.b     D0, [A7]+
00001F34  6724                     beq        +0x26 /* 00001F5A */
00001F36  486C FF00                pea.l      [A4 - 0x100]
00001F3A  487A 018A                pea.l      [PC + 0x18A /* 000020C6, value 0x7697461, pstring "italic," */]
00001F3E  486E FEE0                pea.l      [A6 - 0x120]
00001F42  3F3C 0002                move.w     -[A7], 0x2
00001F46  4EAD 050A                jsr        [A5 + 0x50A /* export_157, CODE:1 @ 0000531E */]
00001F4A  41EC FF00                lea.l      A0, [A4 - 0x100]
00001F4E  43EE FEE0                lea.l      A1, [A6 - 0x120]
00001F52  703F                     moveq.l    D0, 0x3F
label00001F54:
00001F54  20D9                     move.l     [A0]+, [A1]+
00001F56  51C8 FFFC                dbf        D0, -0x6 /* 00001F54 */
label00001F5A:
00001F5A  4267                     clr.w      -[A7]
00001F5C  486E FFFC                pea.l      [A6 - 0x4]
00001F60  7005                     moveq.l    D0, 0x05
00001F62  2F00                     move.l     -[A7], D0
00001F64  A85D                     syscall    BitTst
00001F66  101F                     move.b     D0, [A7]+
00001F68  6724                     beq        +0x26 /* 00001F8E */
00001F6A  486C FF00                pea.l      [A4 - 0x100]
00001F6E  487A 014A                pea.l      [PC + 0x14A /* 000020BA, value 0xA756E64 '\nund', pstring "underline," */]
00001F72  486E FEE0                pea.l      [A6 - 0x120]
00001F76  3F3C 0002                move.w     -[A7], 0x2
00001F7A  4EAD 050A                jsr        [A5 + 0x50A /* export_157, CODE:1 @ 0000531E */]
00001F7E  41EC FF00                lea.l      A0, [A4 - 0x100]
00001F82  43EE FEE0                lea.l      A1, [A6 - 0x120]
00001F86  703F                     moveq.l    D0, 0x3F
label00001F88:
00001F88  20D9                     move.l     [A0]+, [A1]+
00001F8A  51C8 FFFC                dbf        D0, -0x6 /* 00001F88 */
label00001F8E:
00001F8E  4267                     clr.w      -[A7]
00001F90  486E FFFC                pea.l      [A6 - 0x4]
00001F94  7004                     moveq.l    D0, 0x04
00001F96  2F00                     move.l     -[A7], D0
00001F98  A85D                     syscall    BitTst
00001F9A  101F                     move.b     D0, [A7]+
00001F9C  6724                     beq        +0x26 /* 00001FC2 */
00001F9E  486C FF00                pea.l      [A4 - 0x100]
00001FA2  487A 010C                pea.l      [PC + 0x10C /* 000020B0, value 0x86F7574, pstring "outline," */]
00001FA6  486E FEE0                pea.l      [A6 - 0x120]
00001FAA  3F3C 0002                move.w     -[A7], 0x2
00001FAE  4EAD 050A                jsr        [A5 + 0x50A /* export_157, CODE:1 @ 0000531E */]
00001FB2  41EC FF00                lea.l      A0, [A4 - 0x100]
00001FB6  43EE FEE0                lea.l      A1, [A6 - 0x120]
00001FBA  703F                     moveq.l    D0, 0x3F
label00001FBC:
00001FBC  20D9                     move.l     [A0]+, [A1]+
00001FBE  51C8 FFFC                dbf        D0, -0x6 /* 00001FBC */
label00001FC2:
00001FC2  4267                     clr.w      -[A7]
00001FC4  486E FFFC                pea.l      [A6 - 0x4]
00001FC8  7003                     moveq.l    D0, 0x03
00001FCA  2F00                     move.l     -[A7], D0
00001FCC  A85D                     syscall    BitTst
00001FCE  101F                     move.b     D0, [A7]+
00001FD0  6724                     beq        +0x26 /* 00001FF6 */
00001FD2  486C FF00                pea.l      [A4 - 0x100]
00001FD6  487A 00D0                pea.l      [PC + 0xD0 /* 000020A8, value 0x7736861, pstring "shadow," */]
00001FDA  486E FEE0                pea.l      [A6 - 0x120]
00001FDE  3F3C 0002                move.w     -[A7], 0x2
00001FE2  4EAD 050A                jsr        [A5 + 0x50A /* export_157, CODE:1 @ 0000531E */]
00001FE6  41EC FF00                lea.l      A0, [A4 - 0x100]
00001FEA  43EE FEE0                lea.l      A1, [A6 - 0x120]
00001FEE  703F                     moveq.l    D0, 0x3F
label00001FF0:
00001FF0  20D9                     move.l     [A0]+, [A1]+
00001FF2  51C8 FFFC                dbf        D0, -0x6 /* 00001FF0 */
label00001FF6:
00001FF6  4267                     clr.w      -[A7]
00001FF8  486E FFFC                pea.l      [A6 - 0x4]
00001FFC  7002                     moveq.l    D0, 0x02
00001FFE  2F00                     move.l     -[A7], D0
00002000  A85D                     syscall    BitTst
00002002  101F                     move.b     D0, [A7]+
00002004  6724                     beq        +0x26 /* 0000202A */
00002006  486C FF00                pea.l      [A4 - 0x100]
0000200A  487A 0092                pea.l      [PC + 0x92 /* 0000209E, value 0x9636F6E '\tcon', pstring "condense," */]
0000200E  486E FEE0                pea.l      [A6 - 0x120]
00002012  3F3C 0002                move.w     -[A7], 0x2
00002016  4EAD 050A                jsr        [A5 + 0x50A /* export_157, CODE:1 @ 0000531E */]
0000201A  41EC FF00                lea.l      A0, [A4 - 0x100]
0000201E  43EE FEE0                lea.l      A1, [A6 - 0x120]
00002022  703F                     moveq.l    D0, 0x3F
label00002024:
00002024  20D9                     move.l     [A0]+, [A1]+
00002026  51C8 FFFC                dbf        D0, -0x6 /* 00002024 */
label0000202A:
0000202A  4267                     clr.w      -[A7]
0000202C  486E FFFC                pea.l      [A6 - 0x4]
00002030  7001                     moveq.l    D0, 0x01
00002032  2F00                     move.l     -[A7], D0
00002034  A85D                     syscall    BitTst
00002036  101F                     move.b     D0, [A7]+
00002038  6724                     beq        +0x26 /* 0000205E */
0000203A  486C FF00                pea.l      [A4 - 0x100]
0000203E  487A 0056                pea.l      [PC + 0x56 /* 00002096, value 0x7657874, pstring "extend," */]
00002042  486E FEE0                pea.l      [A6 - 0x120]
00002046  3F3C 0002                move.w     -[A7], 0x2
0000204A  4EAD 050A                jsr        [A5 + 0x50A /* export_157, CODE:1 @ 0000531E */]
0000204E  41EC FF00                lea.l      A0, [A4 - 0x100]
00002052  43EE FEE0                lea.l      A1, [A6 - 0x120]
00002056  703F                     moveq.l    D0, 0x3F
label00002058:
00002058  20D9                     move.l     [A0]+, [A1]+
0000205A  51C8 FFFC                dbf        D0, -0x6 /* 00002058 */
label0000205E:
0000205E  532C FF00                subq.b     [A4 - 0x100], 1
label00002062:
00002062  486C FF00                pea.l      [A4 - 0x100]
00002066  4EBA 1A1A                jsr        [PC + 0x1A1A /* 00003A82 */]
0000206A  6020                     bra        +0x22 /* 0000208C */
0000206C  302E FFFE                move.w     D0, [A6 - 0x2]
00002070  48C0                     ext.l      D0
00002072  2F00                     move.l     -[A7], D0
00002074  4EBA 19F2                jsr        [PC + 0x19F2 /* 00003A68 */]
00002078  6012                     bra        +0x14 /* 0000208C */
label0000207A:
0000207A  3F3C 003E                move.w     -[A7], 0x3E /* '>' */
0000207E  4EBA EAD8                jsr        [PC - 0x1528 /* 00000B58 */]
00002082  6008                     bra        +0xA /* 0000208C */
label00002084:
00002084  3F3C 003F                move.w     -[A7], 0x3F /* '?' */
00002088  4EBA EACE                jsr        [PC - 0x1532 /* 00000B58 */]
label0000208C:
0000208C  4CDF 1080                movem.l    D7,A4, [A7]+
00002090  4E5E                     unlink     A6
00002092  2E9F                     move.l     [A7], [A7]+
00002094  4E75                     rts
00002096  0765                     bchg       -[A5], D3
00002098  7874                     moveq.l    D4, 0x74
0000209A  656E                     bcs        +0x70 /* 0000210A */
0000209C  642C                     bcc        +0x2E /* 000020CA */
0000209E  0963                     bchg       -[A3], D4
000020A0  6F6E                     ble        +0x70 /* 00002110 */
000020A2  6465                     bcc        +0x67 /* 00002109 */
000020A4  6E73                     bgt        +0x75 /* 00002119 */
000020A6  652C                     bcs        +0x2E /* 000020D4 */
000020A8  0773 6861                bchg       [A3 + D6 + 0x61], D3
000020AC  646F                     bcc        +0x71 /* 0000211D */
000020AE  772C                     moveq.l    D3, 0x2C
000020B0  086F 7574 6C69           bchg.b     [A7 + 0x6C69], 0x74 /* 't' */
000020B6  6E65                     bgt        +0x67 /* 0000211D */
000020B8  2C00                     move.l     D6, D0
000020BA  0A75 6E64 6572 6C69 6... xori.w     [[A5 + 0x6C696E65] + 0x2C00], 0x6E64 /* 'nd' */
000020C6  0769 7461                bchg       [A1 + 0x7461], D3
label000020CA:
000020CA  6C69                     bge        +0x6B /* 00002135 */
000020CC  632C                     bls        +0x2E /* 000020FA */
000020CE  0562                     bchg       -[A2], D2
000020D0  6F6C                     ble        +0x6E /* 0000213E */
000020D2  642C                     bcc        +0x2E /* 00002100 */
label000020D4:
000020D4  0570 6C61                bchg       [A0 + D6 * 4 + 0x61], D2
000020D8  696E                     bvs        +0x70 /* 00002148 */
000020DA  0572 6967                bchg       <<invalid full ext with IS == 1 and I/IS == 7>>, D2
000020DE  6874                     bvc        +0x76 /* 00002154 */
000020E0  0663 656E                addi.w     -[A3], 0x656E /* 'en' */
000020E4  7465                     moveq.l    D2, 0x65
000020E6  7200                     moveq.l    D1, 0x00
000020E8  046C 6566 7400           subi.w     [A4 + 0x7400], 0x6566 /* 'ef' */
000020EE  0973 6372 6F6C 6C69 6E67 bchg       [[A3 + 0x6F6C6C69] + 0x6E67], D4
000020F8  0B72 6164                bchg       <<invalid full ext with I/IS == 4>>, D5
// begin alternate branch 000020FA-000020FC
label000020FA:
000020FA  6164                     bsr        +0x66 /* 00002160 */
// end alternate branch 000020FA-000020FC
label000020FA: // (misaligned)
000020FC  696F                     bvs        +0x71 /* 0000216D */
000020FE  4275 7474                clr.w      [A5 + D7.w * 4 + 0x74]
// begin alternate branch 00002100-00002102
label00002100:
00002100  7474                     moveq.l    D2, 0x74
// end alternate branch 00002100-00002102
label00002100: // (misaligned)
00002102  6F6E                     ble        +0x70 /* 00002172 */
00002104  0863 6865                bchg.b     -[A3], 0x65 /* 'e' */
00002108  636B                     bls        +0x6D /* 00002175 */
label0000210A:
0000210A  426F 7800                clr.w      [A7 + 0x7800]
0000210E  0673 6861 646F           addi.w     [A3 + D6.w * 4 + 0x6F], 0x6861 /* 'ha' */
// begin alternate branch 00002110-00002114
label00002110:
00002110  6861                     bvc        +0x63 /* 00002173 */
00002112  646F                     bcc        +0x71 /* 00002183 */
// end alternate branch 00002110-00002114
label00002110: // (misaligned)
00002114  7700                     moveq.l    D3, 0x00
00002116  0972 6F75                bchg       <<invalid full ext with IS == 1 and I/IS == 5>>, D4
0000211A  6E64                     bgt        +0x66 /* 00002180 */
0000211C  5265                     addq.w     -[A5], 1
0000211E  6374                     bls        +0x76 /* 00002194 */
00002120  0972 6563 7461 6E67 6C65 bchg       [[A2 + 0x7461] + 0x6E676C65], D4
0000212A  066F 7061 7175           addi.w     [A7 + 0x7175], 0x7061 /* 'pa' */
00002130  6500 0B74                bcs        +0xB76 /* 00002CA6 */
00002134  7261                     moveq.l    D1, 0x61
00002136  6E73                     bgt        +0x75 /* 000021AB */
00002138  7061                     moveq.l    D0, 0x61
0000213A  7265                     moveq.l    D1, 0x65
0000213C  6E74                     bgt        +0x76 /* 000021B2 */
fn0000213E:
0000213E  4E56 FDE6                link       A6, -0x021A
00002142  48E7 0118                movem.l    -[A7], D7,A3,A4
00002146  286E 0008                movea.l    A4, [A6 + 0x8]
// begin alternate branch 00002148-00002150
label00002148:
00002148  0008 102C                ori.b      A0, 0x2C /* ',' */
0000214C  0008 4880                ori.b      A0, 0x80
// end alternate branch 00002148-00002150
label00002148: // (misaligned)
0000214A  102C 0008                move.b     D0, [A4 + 0x8]
0000214E  4880                     ext.w      D0
00002150  673E                     beq        +0x40 /* 00002190 */
00002152  5340                     subq.w     D0, 1
label00002154:
00002154  6700 0110                beq        +0x112 /* 00002266 */
00002158  0440 0012                subi.w     D0, 0x12
0000215C  6718                     beq        +0x1A /* 00002176 */
0000215E  0440 0018                subi.w     D0, 0x18
// begin alternate branch 00002160-00002166
fn00002160:
00002160  0018 6700                ori.b      [A0]+, 0x0
00002164  0196                     bclr       [A6], D0
// end alternate branch 00002160-00002166
fn00002160: // (misaligned)
00002162  6700 0196                beq        +0x198 /* 000022FA */
00002166  5340                     subq.w     D0, 1
00002168  6700 0190                beq        +0x192 /* 000022FA */
0000216C  5340                     subq.w     D0, 1
0000216E  6700 018A                beq        +0x18C /* 000022FA */
label00002172:
00002172  6000 01F0                bra        +0x1F2 /* 00002364 */
label00002176:
00002176  42A7                     clr.l      -[A7]
00002178  206C 000A                movea.l    A0, [A4 + 0xA]
0000217C  2F28 000A                move.l     -[A7], [A0 + 0xA]
label00002180:
00002180  4EAD 1D92                jsr        [A5 + 0x1D92 /* export_942, CODE:18 @ 00000B06 */]
00002184  2F2E 0008                move.l     -[A7], [A6 + 0x8]
00002188  4EBA F6C4                jsr        [PC - 0x93C /* 0000184E */]
0000218C  6000 01DE                bra        +0x1E0 /* 0000236C */
label00002190:
00002190  486E FDFA                pea.l      [A6 - 0x206]
label00002194:
00002194  206C 000A                movea.l    A0, [A4 + 0xA]
00002198  2F28 000A                move.l     -[A7], [A0 + 0xA]
0000219C  4EAD 1D8A                jsr        [A5 + 0x1D8A /* export_941, CODE:18 @ 00000AA4 */]
000021A0  205F                     movea.l    A0, [A7]+
000021A2  43EC FF00                lea.l      A1, [A4 - 0x100]
000021A6  703F                     moveq.l    D0, 0x3F
label000021A8:
000021A8  22D8                     move.l     [A1]+, [A0]+
000021AA  51C8 FFFC                dbf        D0, -0x6 /* 000021A8 */
000021AE  4240                     clr.w      D0
000021B0  102C FF00                move.b     D0, [A4 - 0x100]
// begin alternate branch 000021B2-000021B4
label000021B2:
000021B2  FF00                     .extension 0xF00 <<F/4-5/7>> // unimplemented
// end alternate branch 000021B2-000021B4
label000021B2: // (misaligned)
000021B4  4A40                     tst.w      D0
000021B6  6632                     bne        +0x34 /* 000021EA */
000021B8  487A 01CA                pea.l      [PC + 0x1CA /* 00002384, value 0x8636172, pstring "card id " */]
000021BC  486E FDE6                pea.l      [A6 - 0x21A]
000021C0  206C 000A                movea.l    A0, [A4 + 0xA]
000021C4  2F28 000A                move.l     -[A7], [A0 + 0xA]
000021C8  4EAD 18B2                jsr        [A5 + 0x18B2 /* export_786, CODE:16 @ 00000738 */]
000021CC  486E FFDE                pea.l      [A6 - 0x22]
000021D0  3F3C 0002                move.w     -[A7], 0x2
000021D4  4EAD 050A                jsr        [A5 + 0x50A /* export_157, CODE:1 @ 0000531E */]
000021D8  41EC FF00                lea.l      A0, [A4 - 0x100]
000021DC  43EE FFDE                lea.l      A1, [A6 - 0x22]
000021E0  7006                     moveq.l    D0, 0x06
label000021E2:
000021E2  20D9                     move.l     [A0]+, [A1]+
000021E4  51C8 FFFC                dbf        D0, -0x6 /* 000021E2 */
000021E8  6030                     bra        +0x32 /* 0000221A */
label000021EA:
000021EA  7002                     moveq.l    D0, 0x02
000021EC  B02D B66B                cmp.b      D0, [A5 - 0x4995]
000021F0  6728                     beq        +0x2A /* 0000221A */
000021F2  487A 019A                pea.l      [PC + 0x19A /* 0000238E, value 0x6636172, pstring "card \"" */]
000021F6  486C FF00                pea.l      [A4 - 0x100]
000021FA  487A 017A                pea.l      [PC + 0x17A /* 00002376, value 0x1220B20 */]
000021FE  486E FEFA                pea.l      [A6 - 0x106]
00002202  3F3C 0003                move.w     -[A7], 0x3
00002206  4EAD 050A                jsr        [A5 + 0x50A /* export_157, CODE:1 @ 0000531E */]
0000220A  41EC FF00                lea.l      A0, [A4 - 0x100]
0000220E  43EE FEFA                lea.l      A1, [A6 - 0x106]
00002212  703F                     moveq.l    D0, 0x3F
label00002214:
00002214  20D9                     move.l     [A0]+, [A1]+
00002216  51C8 FFFC                dbf        D0, -0x6 /* 00002214 */
label0000221A:
0000221A  7001                     moveq.l    D0, 0x01
0000221C  B02D B66B                cmp.b      D0, [A5 - 0x4995]
00002220  6638                     bne        +0x3A /* 0000225A */
00002222  486C FF00                pea.l      [A4 - 0x100]
00002226  487A 0150                pea.l      [PC + 0x150 /* 00002378, value 0xB206F66, pstring " of stack \"" */]
0000222A  486E FDFA                pea.l      [A6 - 0x206]
0000222E  206C 000A                movea.l    A0, [A4 + 0xA]
00002232  2F28 0002                move.l     -[A7], [A0 + 0x2]
00002236  4EAD 1FEA                jsr        [A5 + 0x1FEA /* export_1017, CODE:19 @ 0000235A */]
0000223A  487A 013A                pea.l      [PC + 0x13A /* 00002376, value 0x1220B20 */]
0000223E  486E FEFA                pea.l      [A6 - 0x106]
00002242  3F3C 0004                move.w     -[A7], 0x4
00002246  4EAD 050A                jsr        [A5 + 0x50A /* export_157, CODE:1 @ 0000531E */]
0000224A  41EC FF00                lea.l      A0, [A4 - 0x100]
0000224E  43EE FEFA                lea.l      A1, [A6 - 0x106]
00002252  703F                     moveq.l    D0, 0x3F
label00002254:
00002254  20D9                     move.l     [A0]+, [A1]+
00002256  51C8 FFFC                dbf        D0, -0x6 /* 00002254 */
label0000225A:
0000225A  486C FF00                pea.l      [A4 - 0x100]
0000225E  4EBA 1822                jsr        [PC + 0x1822 /* 00003A82 */]
00002262  6000 0108                bra        +0x10A /* 0000236C */
label00002266:
00002266  486E FDE6                pea.l      [A6 - 0x21A]
0000226A  206C 000A                movea.l    A0, [A4 + 0xA]
0000226E  2F28 000A                move.l     -[A7], [A0 + 0xA]
00002272  4EAD 18B2                jsr        [A5 + 0x18B2 /* export_786, CODE:16 @ 00000738 */]
00002276  205F                     movea.l    A0, [A7]+
00002278  43EC FF00                lea.l      A1, [A4 - 0x100]
0000227C  7004                     moveq.l    D0, 0x04
label0000227E:
0000227E  22D8                     move.l     [A1]+, [A0]+
00002280  51C8 FFFC                dbf        D0, -0x6 /* 0000227E */
00002284  7002                     moveq.l    D0, 0x02
00002286  B02D B66B                cmp.b      D0, [A5 - 0x4995]
0000228A  6724                     beq        +0x26 /* 000022B0 */
0000228C  487A 00F6                pea.l      [PC + 0xF6 /* 00002384, value 0x8636172, pstring "card id " */]
00002290  486C FF00                pea.l      [A4 - 0x100]
00002294  486E FEFA                pea.l      [A6 - 0x106]
00002298  3F3C 0002                move.w     -[A7], 0x2
0000229C  4EAD 050A                jsr        [A5 + 0x50A /* export_157, CODE:1 @ 0000531E */]
000022A0  41EC FF00                lea.l      A0, [A4 - 0x100]
000022A4  43EE FEFA                lea.l      A1, [A6 - 0x106]
000022A8  703F                     moveq.l    D0, 0x3F
label000022AA:
000022AA  20D9                     move.l     [A0]+, [A1]+
000022AC  51C8 FFFC                dbf        D0, -0x6 /* 000022AA */
label000022B0:
000022B0  7001                     moveq.l    D0, 0x01
000022B2  B02D B66B                cmp.b      D0, [A5 - 0x4995]
000022B6  6638                     bne        +0x3A /* 000022F0 */
000022B8  486C FF00                pea.l      [A4 - 0x100]
000022BC  487A 00BA                pea.l      [PC + 0xBA /* 00002378, value 0xB206F66, pstring " of stack \"" */]
000022C0  486E FDFA                pea.l      [A6 - 0x206]
000022C4  206C 000A                movea.l    A0, [A4 + 0xA]
000022C8  2F28 0002                move.l     -[A7], [A0 + 0x2]
000022CC  4EAD 1FEA                jsr        [A5 + 0x1FEA /* export_1017, CODE:19 @ 0000235A */]
000022D0  487A 00A4                pea.l      [PC + 0xA4 /* 00002376, value 0x1220B20 */]
000022D4  486E FEFA                pea.l      [A6 - 0x106]
000022D8  3F3C 0004                move.w     -[A7], 0x4
000022DC  4EAD 050A                jsr        [A5 + 0x50A /* export_157, CODE:1 @ 0000531E */]
000022E0  41EC FF00                lea.l      A0, [A4 - 0x100]
000022E4  43EE FEFA                lea.l      A1, [A6 - 0x106]
000022E8  703F                     moveq.l    D0, 0x3F
label000022EA:
000022EA  20D9                     move.l     [A0]+, [A1]+
000022EC  51C8 FFFC                dbf        D0, -0x6 /* 000022EA */
label000022F0:
000022F0  486C FF00                pea.l      [A4 - 0x100]
000022F4  4EBA 178C                jsr        [PC + 0x178C /* 00003A82 */]
000022F8  6072                     bra        +0x74 /* 0000236C */
label000022FA:
000022FA  42A7                     clr.l      -[A7]
000022FC  206C 000A                movea.l    A0, [A4 + 0xA]
00002300  2F28 000A                move.l     -[A7], [A0 + 0xA]
00002304  4EAD 1F7A                jsr        [A5 + 0x1F7A /* export_1003, CODE:19 @ 00001744 */]
00002308  265F                     movea.l    A3, [A7]+
0000230A  200B                     move.l     D0, A3
0000230C  6608                     bne        +0xA /* 00002316 */
0000230E  4267                     clr.w      -[A7]
00002310  4EBA 16F4                jsr        [PC + 0x16F4 /* 00003A06 */]
00002314  6056                     bra        +0x58 /* 0000236C */
label00002316:
00002316  702B                     moveq.l    D0, 0x2B
00002318  B02C 0008                cmp.b      D0, [A4 + 0x8]
0000231C  6614                     bne        +0x16 /* 00002332 */
0000231E  2053                     movea.l    A0, [A3]
00002320  0828 0005 0010           btst.b     [A0 + 0x10], 0x5
00002326  57C0                     seq        D0
00002328  4400                     neg.b      D0
0000232A  1F00                     move.b     -[A7], D0
0000232C  4EBA 16D8                jsr        [PC + 0x16D8 /* 00003A06 */]
00002330  6022                     bra        +0x24 /* 00002354 */
label00002332:
00002332  702C                     moveq.l    D0, 0x2C
00002334  B02C 0008                cmp.b      D0, [A4 + 0x8]
00002338  6604                     bne        +0x6 /* 0000233E */
0000233A  7E1F                     moveq.l    D7, 0x1F
0000233C  6002                     bra        +0x4 /* 00002340 */
label0000233E:
0000233E  7E1E                     moveq.l    D7, 0x1E
label00002340:
00002340  2053                     movea.l    A0, [A3]
00002342  2028 0010                move.l     D0, [A0 + 0x10]
00002346  3207                     move.w     D1, D7
00002348  0300                     btst       D0, D1
0000234A  56C0                     sne        D0
0000234C  4400                     neg.b      D0
0000234E  1F00                     move.b     -[A7], D0
00002350  4EBA 16B4                jsr        [PC + 0x16B4 /* 00003A06 */]
label00002354:
00002354  206C 000A                movea.l    A0, [A4 + 0xA]
00002358  2F28 000A                move.l     -[A7], [A0 + 0xA]
0000235C  4267                     clr.w      -[A7]
0000235E  4EAD 1EF2                jsr        [A5 + 0x1EF2 /* export_986, CODE:19 @ 00000450 */]
00002362  6008                     bra        +0xA /* 0000236C */
label00002364:
00002364  3F3C 003E                move.w     -[A7], 0x3E /* '>' */
00002368  4EBA E7EE                jsr        [PC - 0x1812 /* 00000B58 */]
label0000236C:
0000236C  4CDF 1880                movem.l    D7,A3,A4, [A7]+
00002370  4E5E                     unlink     A6
00002372  2E9F                     move.l     [A7], [A7]+
00002374  4E75                     rts
00002376  0122                     btst       -[A2], D0
00002378  0B20                     btst       -[A0], D5
0000237A  6F66                     ble        +0x68 /* 000023E2 */
0000237C  2073 7461                movea.l    A0, [A3 + D7.w * 4 + 0x61]
00002380  636B                     bls        +0x6D /* 000023ED */
00002382  2022                     move.l     D0, -[A2]
00002384  0863 6172                bchg.b     -[A3], 0x72 /* 'r' */
00002388  6420                     bcc        +0x22 /* 000023AA */
0000238A  6964                     bvs        +0x66 /* 000023F0 */
0000238C  2000                     move.l     D0, D0
0000238E  0663 6172                addi.w     -[A3], 0x6172 /* 'ar' */
00002392  6420                     bcc        +0x22 /* 000023B4 */
00002394  2200                     move.l     D1, D0
fn00002396:
00002396  4E56 FDE6                link       A6, -0x021A
0000239A  48E7 0118                movem.l    -[A7], D7,A3,A4
0000239E  286E 0008                movea.l    A4, [A6 + 0x8]
000023A2  102C 0008                move.b     D0, [A4 + 0x8]
000023A6  4880                     ext.w      D0
000023A8  673E                     beq        +0x40 /* 000023E8 */
label000023AA:
000023AA  5340                     subq.w     D0, 1
000023AC  6700 0112                beq        +0x114 /* 000024C0 */
000023B0  0440 0012                subi.w     D0, 0x12
label000023B4:
000023B4  6718                     beq        +0x1A /* 000023CE */
000023B6  0440 0018                subi.w     D0, 0x18
000023BA  6700 0112                beq        +0x114 /* 000024CE */
000023BE  5340                     subq.w     D0, 1
000023C0  6700 010C                beq        +0x10E /* 000024CE */
000023C4  5340                     subq.w     D0, 1
000023C6  6700 0106                beq        +0x108 /* 000024CE */
000023CA  6000 016C                bra        +0x16E /* 00002538 */
label000023CE:
000023CE  42A7                     clr.l      -[A7]
000023D0  206C 000A                movea.l    A0, [A4 + 0xA]
000023D4  2F28 0006                move.l     -[A7], [A0 + 0x6]
000023D8  4EAD 1D82                jsr        [A5 + 0x1D82 /* export_940, CODE:18 @ 00000A0C */]
000023DC  2F2E 0008                move.l     -[A7], [A6 + 0x8]
000023E0  4EBA F46C                jsr        [PC - 0xB94 /* 0000184E */]
// begin alternate branch 000023E2-000023E4
label000023E2:
000023E2  F46C                     cpushl     DATA, [A4]
// end alternate branch 000023E2-000023E4
label000023E2: // (misaligned)
000023E4  6000 015A                bra        +0x15C /* 00002540 */
label000023E8:
000023E8  486E FDFA                pea.l      [A6 - 0x206]
000023EC  206C 000A                movea.l    A0, [A4 + 0xA]
label000023F0:
000023F0  2F28 0006                move.l     -[A7], [A0 + 0x6]
000023F4  4EAD 1D72                jsr        [A5 + 0x1D72 /* export_938, CODE:18 @ 00000950 */]
000023F8  205F                     movea.l    A0, [A7]+
000023FA  43EC FF00                lea.l      A1, [A4 - 0x100]
000023FE  703F                     moveq.l    D0, 0x3F
label00002400:
00002400  22D8                     move.l     [A1]+, [A0]+
00002402  51C8 FFFC                dbf        D0, -0x6 /* 00002400 */
00002406  4240                     clr.w      D0
00002408  102C FF00                move.b     D0, [A4 - 0x100]
0000240C  4A40                     tst.w      D0
0000240E  6634                     bne        +0x36 /* 00002444 */
00002410  487A 014E                pea.l      [PC + 0x14E /* 00002560, value 0x9626B67 '\tbkg', pstring "bkgnd id " */]
00002414  486E FDE6                pea.l      [A6 - 0x21A]
00002418  206C 000A                movea.l    A0, [A4 + 0xA]
0000241C  2F28 0006                move.l     -[A7], [A0 + 0x6]
00002420  4EAD 18B2                jsr        [A5 + 0x18B2 /* export_786, CODE:16 @ 00000738 */]
00002424  486E FFDC                pea.l      [A6 - 0x24]
00002428  3F3C 0002                move.w     -[A7], 0x2
0000242C  4EAD 050A                jsr        [A5 + 0x50A /* export_157, CODE:1 @ 0000531E */]
00002430  41EC FF00                lea.l      A0, [A4 - 0x100]
00002434  43EE FFDC                lea.l      A1, [A6 - 0x24]
00002438  7006                     moveq.l    D0, 0x06
label0000243A:
0000243A  20D9                     move.l     [A0]+, [A1]+
0000243C  51C8 FFFC                dbf        D0, -0x6 /* 0000243A */
00002440  3091                     move.w     [A0], [A1]
00002442  6030                     bra        +0x32 /* 00002474 */
label00002444:
00002444  7002                     moveq.l    D0, 0x02
00002446  B02D B66B                cmp.b      D0, [A5 - 0x4995]
0000244A  6728                     beq        +0x2A /* 00002474 */
0000244C  487A 010A                pea.l      [PC + 0x10A /* 00002558, value 0x7626B67, pstring "bkgnd \"" */]
00002450  486C FF00                pea.l      [A4 - 0x100]
00002454  487A 00F4                pea.l      [PC + 0xF4 /* 0000254A, value 0x1220B20 */]
00002458  486E FEFA                pea.l      [A6 - 0x106]
0000245C  3F3C 0003                move.w     -[A7], 0x3
00002460  4EAD 050A                jsr        [A5 + 0x50A /* export_157, CODE:1 @ 0000531E */]
00002464  41EC FF00                lea.l      A0, [A4 - 0x100]
00002468  43EE FEFA                lea.l      A1, [A6 - 0x106]
0000246C  703F                     moveq.l    D0, 0x3F
label0000246E:
0000246E  20D9                     move.l     [A0]+, [A1]+
00002470  51C8 FFFC                dbf        D0, -0x6 /* 0000246E */
label00002474:
00002474  7001                     moveq.l    D0, 0x01
00002476  B02D B66B                cmp.b      D0, [A5 - 0x4995]
0000247A  6638                     bne        +0x3A /* 000024B4 */
0000247C  486C FF00                pea.l      [A4 - 0x100]
00002480  487A 00CA                pea.l      [PC + 0xCA /* 0000254C, value 0xB206F66, pstring " of stack \"" */]
00002484  486E FDFA                pea.l      [A6 - 0x206]
00002488  206C 000A                movea.l    A0, [A4 + 0xA]
0000248C  2F28 0002                move.l     -[A7], [A0 + 0x2]
00002490  4EAD 1FEA                jsr        [A5 + 0x1FEA /* export_1017, CODE:19 @ 0000235A */]
00002494  487A 00B4                pea.l      [PC + 0xB4 /* 0000254A, value 0x1220B20 */]
00002498  486E FEFA                pea.l      [A6 - 0x106]
0000249C  3F3C 0004                move.w     -[A7], 0x4
000024A0  4EAD 050A                jsr        [A5 + 0x50A /* export_157, CODE:1 @ 0000531E */]
000024A4  41EC FF00                lea.l      A0, [A4 - 0x100]
000024A8  43EE FEFA                lea.l      A1, [A6 - 0x106]
000024AC  703F                     moveq.l    D0, 0x3F
label000024AE:
000024AE  20D9                     move.l     [A0]+, [A1]+
000024B0  51C8 FFFC                dbf        D0, -0x6 /* 000024AE */
label000024B4:
000024B4  486C FF00                pea.l      [A4 - 0x100]
000024B8  4EBA 15C8                jsr        [PC + 0x15C8 /* 00003A82 */]
000024BC  6000 0082                bra        +0x84 /* 00002540 */
label000024C0:
000024C0  206C 000A                movea.l    A0, [A4 + 0xA]
000024C4  2F28 0006                move.l     -[A7], [A0 + 0x6]
000024C8  4EBA 159E                jsr        [PC + 0x159E /* 00003A68 */]
000024CC  6072                     bra        +0x74 /* 00002540 */
label000024CE:
000024CE  42A7                     clr.l      -[A7]
000024D0  206C 000A                movea.l    A0, [A4 + 0xA]
000024D4  2F28 0006                move.l     -[A7], [A0 + 0x6]
000024D8  4EAD 1F6A                jsr        [A5 + 0x1F6A /* export_1001, CODE:19 @ 000016EC */]
000024DC  265F                     movea.l    A3, [A7]+
000024DE  200B                     move.l     D0, A3
000024E0  6608                     bne        +0xA /* 000024EA */
000024E2  4267                     clr.w      -[A7]
000024E4  4EBA 1520                jsr        [PC + 0x1520 /* 00003A06 */]
000024E8  6056                     bra        +0x58 /* 00002540 */
label000024EA:
000024EA  702B                     moveq.l    D0, 0x2B
000024EC  B02C 0008                cmp.b      D0, [A4 + 0x8]
000024F0  6614                     bne        +0x16 /* 00002506 */
000024F2  2053                     movea.l    A0, [A3]
000024F4  0828 0005 0010           btst.b     [A0 + 0x10], 0x5
000024FA  57C0                     seq        D0
000024FC  4400                     neg.b      D0
000024FE  1F00                     move.b     -[A7], D0
00002500  4EBA 1504                jsr        [PC + 0x1504 /* 00003A06 */]
00002504  6022                     bra        +0x24 /* 00002528 */
label00002506:
00002506  702C                     moveq.l    D0, 0x2C
00002508  B02C 0008                cmp.b      D0, [A4 + 0x8]
0000250C  6604                     bne        +0x6 /* 00002512 */
0000250E  7E1F                     moveq.l    D7, 0x1F
00002510  6002                     bra        +0x4 /* 00002514 */
label00002512:
00002512  7E1E                     moveq.l    D7, 0x1E
label00002514:
00002514  2053                     movea.l    A0, [A3]
00002516  2028 0010                move.l     D0, [A0 + 0x10]
0000251A  3207                     move.w     D1, D7
0000251C  0300                     btst       D0, D1
0000251E  56C0                     sne        D0
00002520  4400                     neg.b      D0
00002522  1F00                     move.b     -[A7], D0
00002524  4EBA 14E0                jsr        [PC + 0x14E0 /* 00003A06 */]
label00002528:
00002528  206C 000A                movea.l    A0, [A4 + 0xA]
0000252C  2F28 0006                move.l     -[A7], [A0 + 0x6]
00002530  4267                     clr.w      -[A7]
00002532  4EAD 1EE2                jsr        [A5 + 0x1EE2 /* export_984, CODE:19 @ 00000414 */]
00002536  6008                     bra        +0xA /* 00002540 */
label00002538:
00002538  3F3C 003E                move.w     -[A7], 0x3E /* '>' */
0000253C  4EBA E61A                jsr        [PC - 0x19E6 /* 00000B58 */]
label00002540:
00002540  4CDF 1880                movem.l    D7,A3,A4, [A7]+
00002544  4E5E                     unlink     A6
00002546  2E9F                     move.l     [A7], [A7]+
00002548  4E75                     rts
0000254A  0122                     btst       -[A2], D0
0000254C  0B20                     btst       -[A0], D5
0000254E  6F66                     ble        +0x68 /* 000025B6 */
00002550  2073 7461                movea.l    A0, [A3 + D7.w * 4 + 0x61]
00002554  636B                     bls        +0x6D /* 000025C1 */
00002556  2022                     move.l     D0, -[A2]
00002558  0762                     bchg       -[A2], D3
0000255A  6B67                     bmi        +0x69 /* 000025C3 */
0000255C  6E64                     bgt        +0x66 /* 000025C2 */
0000255E  2022                     move.l     D0, -[A2]
00002560  0962                     bchg       -[A2], D4
00002562  6B67                     bmi        +0x69 /* 000025CB */
00002564  6E64                     bgt        +0x66 /* 000025CA */
00002566  2069 6420                movea.l    A0, [A1 + 0x6420]
fn0000256A:
0000256A  4E56 FE96                link       A6, -0x016A
0000256E  48E7 0108                movem.l    -[A7], D7,A4
00002572  286E 0008                movea.l    A4, [A6 + 0x8]
00002576  102C 0008                move.b     D0, [A4 + 0x8]
0000257A  4880                     ext.w      D0
0000257C  673C                     beq        +0x3E /* 000025BA */
0000257E  0440 000A                subi.w     D0, 0xA /* '\n' */
00002582  6700 00AE                beq        +0xB0 /* 00002632 */
00002586  5140                     subq.w     D0, 8
00002588  6700 00D8                beq        +0xDA /* 00002662 */
0000258C  5340                     subq.w     D0, 1
0000258E  6718                     beq        +0x1A /* 000025A8 */
00002590  0440 0019                subi.w     D0, 0x19
00002594  6700 00D8                beq        +0xDA /* 0000266E */
00002598  5340                     subq.w     D0, 1
0000259A  6700 00DE                beq        +0xE0 /* 0000267A */
0000259E  5740                     subq.w     D0, 3
000025A0  6700 00EA                beq        +0xEC /* 0000268C */
000025A4  6000 0158                bra        +0x15A /* 000026FE */
label000025A8:
000025A8  42A7                     clr.l      -[A7]
000025AA  4EAD 1DE2                jsr        [A5 + 0x1DE2 /* export_952, CODE:18 @ 00000FEA */]
000025AE  2F2E 0008                move.l     -[A7], [A6 + 0x8]
000025B2  4EBA F29A                jsr        [PC - 0xD66 /* 0000184E */]
label000025B6:
000025B6  6000 014E                bra        +0x150 /* 00002706 */
label000025BA:
000025BA  41EC FF00                lea.l      A0, [A4 - 0x100]
000025BE  43ED FD48                lea.l      A1, [A5 - 0x2B8]
label000025C2:
000025C2  7007                     moveq.l    D0, 0x07
label000025C4:
000025C4  20D9                     move.l     [A0]+, [A1]+
000025C6  51C8 FFFC                dbf        D0, -0x6 /* 000025C4 */
label000025CA:
000025CA  7001                     moveq.l    D0, 0x01
000025CC  B02D B66B                cmp.b      D0, [A5 - 0x4995]
000025D0  6624                     bne        +0x26 /* 000025F6 */
000025D2  486D FC48                pea.l      [A5 - 0x3B8]
000025D6  486C FF00                pea.l      [A4 - 0x100]
000025DA  486E FEFA                pea.l      [A6 - 0x106]
000025DE  3F3C 0002                move.w     -[A7], 0x2
000025E2  4EAD 050A                jsr        [A5 + 0x50A /* export_157, CODE:1 @ 0000531E */]
000025E6  41EC FF00                lea.l      A0, [A4 - 0x100]
000025EA  43EE FEFA                lea.l      A1, [A6 - 0x106]
000025EE  703F                     moveq.l    D0, 0x3F
label000025F0:
000025F0  20D9                     move.l     [A0]+, [A1]+
000025F2  51C8 FFFC                dbf        D0, -0x6 /* 000025F0 */
label000025F6:
000025F6  7002                     moveq.l    D0, 0x02
000025F8  B02D B66B                cmp.b      D0, [A5 - 0x4995]
000025FC  6728                     beq        +0x2A /* 00002626 */
000025FE  487A 0114                pea.l      [PC + 0x114 /* 00002714, value 0x7737461, pstring "stack \"" */]
00002602  486C FF00                pea.l      [A4 - 0x100]
00002606  487A 010A                pea.l      [PC + 0x10A /* 00002712, value 0x1220773 */]
0000260A  486E FEFA                pea.l      [A6 - 0x106]
0000260E  3F3C 0003                move.w     -[A7], 0x3
00002612  4EAD 050A                jsr        [A5 + 0x50A /* export_157, CODE:1 @ 0000531E */]
00002616  41EC FF00                lea.l      A0, [A4 - 0x100]
0000261A  43EE FEFA                lea.l      A1, [A6 - 0x106]
0000261E  703F                     moveq.l    D0, 0x3F
label00002620:
00002620  20D9                     move.l     [A0]+, [A1]+
00002622  51C8 FFFC                dbf        D0, -0x6 /* 00002620 */
label00002626:
00002626  486C FF00                pea.l      [A4 - 0x100]
0000262A  4EBA 1456                jsr        [PC + 0x1456 /* 00003A82 */]
0000262E  6000 00D6                bra        +0xD8 /* 00002706 */
label00002632:
00002632  7000                     moveq.l    D0, 0x00
00002634  2D40 FFFC                move.l     [A6 - 0x4], D0
00002638  70FF                     moveq.l    D0, 0xFFFFFFFF
0000263A  B06D FC42                cmp.w      D0, [A5 - 0x3BE]
0000263E  6710                     beq        +0x12 /* 00002650 */
00002640  4267                     clr.w      -[A7]
00002642  3F2D FC42                move.w     -[A7], [A5 - 0x3BE]
00002646  486E FFFC                pea.l      [A6 - 0x4]
0000264A  4EAD 0352                jsr        [A5 + 0x352 /* export_102, CODE:1 @ 00004A86 */]
0000264E  3E1F                     move.w     D7, [A7]+
label00002650:
00002650  202E FFFC                move.l     D0, [A6 - 0x4]
00002654  D0AD F650                add.l      D0, [A5 - 0x9B0]
00002658  2F00                     move.l     -[A7], D0
0000265A  4EBA 140C                jsr        [PC + 0x140C /* 00003A68 */]
0000265E  6000 00A6                bra        +0xA8 /* 00002706 */
label00002662:
00002662  2F2D F678                move.l     -[A7], [A5 - 0x988]
00002666  4EBA 1400                jsr        [PC + 0x1400 /* 00003A68 */]
0000266A  6000 009A                bra        +0x9C /* 00002706 */
label0000266E:
0000266E  1F2D F4CD                move.b     -[A7], [A5 - 0xB33]
00002672  4EBA 1392                jsr        [PC + 0x1392 /* 00003A06 */]
00002676  6000 008E                bra        +0x90 /* 00002706 */
label0000267A:
0000267A  082D 0006 F688           btst.b     [A5 - 0x978], 0x6
00002680  56C0                     sne        D0
00002682  4400                     neg.b      D0
00002684  1F00                     move.b     -[A7], D0
00002686  4EBA 137E                jsr        [PC + 0x137E /* 00003A06 */]
0000268A  607A                     bra        +0x7C /* 00002706 */
label0000268C:
0000268C  486E FEE6                pea.l      [A6 - 0x11A]
00002690  2F2D F69C                move.l     -[A7], [A5 - 0x964]
00002694  3F3C 0008                move.w     -[A7], 0x8
00002698  4EAD 18FA                jsr        [A5 + 0x18FA /* export_795, CODE:16 @ 00000938 */]
0000269C  487A 0072                pea.l      [PC + 0x72 /* 00002710, value 0x12C0122 */]
000026A0  486E FED2                pea.l      [A6 - 0x12E]
000026A4  2F2D F6A0                move.l     -[A7], [A5 - 0x960]
000026A8  3F3C 0008                move.w     -[A7], 0x8
000026AC  4EAD 18FA                jsr        [A5 + 0x18FA /* export_795, CODE:16 @ 00000938 */]
000026B0  487A 005E                pea.l      [PC + 0x5E /* 00002710, value 0x12C0122 */]
000026B4  486E FEBE                pea.l      [A6 - 0x142]
000026B8  2F2D F6A4                move.l     -[A7], [A5 - 0x95C]
000026BC  3F3C 0008                move.w     -[A7], 0x8
000026C0  4EAD 18FA                jsr        [A5 + 0x18FA /* export_795, CODE:16 @ 00000938 */]
000026C4  487A 004A                pea.l      [PC + 0x4A /* 00002710, value 0x12C0122 */]
000026C8  486E FEAA                pea.l      [A6 - 0x156]
000026CC  2F2D F6A8                move.l     -[A7], [A5 - 0x958]
000026D0  3F3C 0008                move.w     -[A7], 0x8
000026D4  4EAD 18FA                jsr        [A5 + 0x18FA /* export_795, CODE:16 @ 00000938 */]
000026D8  487A 0036                pea.l      [PC + 0x36 /* 00002710, value 0x12C0122 */]
000026DC  486E FE96                pea.l      [A6 - 0x16A]
000026E0  2F2D F62E                move.l     -[A7], [A5 - 0x9D2]
000026E4  4EAD 18B2                jsr        [A5 + 0x18B2 /* export_786, CODE:16 @ 00000738 */]
000026E8  486E FF96                pea.l      [A6 - 0x6A]
000026EC  3F3C 0009                move.w     -[A7], 0x9 /* '\t' */
000026F0  4EAD 050A                jsr        [A5 + 0x50A /* export_157, CODE:1 @ 0000531E */]
000026F4  486E FF96                pea.l      [A6 - 0x6A]
000026F8  4EBA 13D2                jsr        [PC + 0x13D2 /* 00003ACC */]
000026FC  6008                     bra        +0xA /* 00002706 */
label000026FE:
000026FE  3F3C 003E                move.w     -[A7], 0x3E /* '>' */
00002702  4EBA E454                jsr        [PC - 0x1BAC /* 00000B58 */]
label00002706:
00002706  4CDF 1080                movem.l    D7,A4, [A7]+
0000270A  4E5E                     unlink     A6
0000270C  2E9F                     move.l     [A7], [A7]+
0000270E  4E75                     rts
00002710  012C 0122                btst       [A4 + 0x122], D0
00002714  0773 7461                bchg       [A3 + D7.w * 4 + 0x61], D3
00002718  636B                     bls        +0x6D /* 00002785 */
0000271A  2022                     move.l     D0, -[A2]
fn0000271C:
0000271C  4E56 FF00                link       A6, -0x0100
00002720  2F0C                     move.l     -[A7], A4
00002722  286E 0008                movea.l    A4, [A6 + 0x8]
00002726  102C 0008                move.b     D0, [A4 + 0x8]
0000272A  4880                     ext.w      D0
0000272C  5B40                     subq.w     D0, 5
0000272E  6B00 02F8                bmi        +0x2FA /* 00002A28 */
00002732  0C40 0019                cmpi.w     D0, 0x19
00002736  6E00 02F0                bgt        +0x2F2 /* 00002A28 */
0000273A  D040                     add.w      D0, D0
0000273C  303B 0006                move.w     D0, [PC + D0.w + 0x6]
00002740  4EFB 0000                jmp        [PC + D0.w]
00002744  00B6 00F6 0124 0134      ori.l      <<invalid full ext with I/IS == 4>>, 0xF60124
0000274C  02DA                     .incomplete
0000274E  02E6                     .incomplete
00002750  02E6                     .incomplete
00002752  02E6                     .incomplete
00002754  02E6                     .incomplete
00002756  02E6                     .incomplete
00002758  02E6                     .incomplete
0000275A  02E6                     .incomplete
0000275C  02E6                     .incomplete
0000275E  02E6                     .incomplete
00002760  02E6                     .incomplete
00002762  02E6                     .incomplete
00002764  02E6                     .incomplete
00002766  0036 0042 0052           ori.b      [A6 + D0.w + 0x52], 0x42 /* 'B' */
0000276C  005E 006A                ori.w      [A6]+, 0x6A /* 'j' */
00002770  0076 0086 0096           ori.w      [A6 + D0.w - 0x6A], 0x86
00002776  00A6 1F2D EF23           ori.l      -[A6], 0x1F2DEF23
0000277C  4EBA 1288                jsr        [PC + 0x1288 /* 00003A06 */]
00002780  6000 02A6                bra        +0x2A8 /* 00002A28 */
00002784  302D EF1A                move.w     D0, [A5 - 0x10E6]
00002788  48C0                     ext.l      D0
0000278A  2F00                     move.l     -[A7], D0
0000278C  4EBA 12C0                jsr        [PC + 0x12C0 /* 00003A4E */]
00002790  6000 0296                bra        +0x298 /* 00002A28 */
00002794  1F2D EF41                move.b     -[A7], [A5 - 0x10BF]
00002798  4EBA 126C                jsr        [PC + 0x126C /* 00003A06 */]
0000279C  6000 028A                bra        +0x28C /* 00002A28 */
000027A0  1F2D EF1F                move.b     -[A7], [A5 - 0x10E1]
000027A4  4EBA 1260                jsr        [PC + 0x1260 /* 00003A06 */]
000027A8  6000 027E                bra        +0x280 /* 00002A28 */
000027AC  1F2D EF22                move.b     -[A7], [A5 - 0x10DE]
000027B0  4EBA 1254                jsr        [PC + 0x1254 /* 00003A06 */]
000027B4  6000 0272                bra        +0x274 /* 00002A28 */
000027B8  302D EF20                move.w     D0, [A5 - 0x10E0]
000027BC  48C0                     ext.l      D0
000027BE  2F00                     move.l     -[A7], D0
000027C0  4EBA 128C                jsr        [PC + 0x128C /* 00003A4E */]
000027C4  6000 0262                bra        +0x264 /* 00002A28 */
000027C8  302D EF42                move.w     D0, [A5 - 0x10BE]
000027CC  48C0                     ext.l      D0
000027CE  2F00                     move.l     -[A7], D0
000027D0  4EBA 127C                jsr        [PC + 0x127C /* 00003A4E */]
000027D4  6000 0252                bra        +0x254 /* 00002A28 */
000027D8  302D EF4C                move.w     D0, [A5 - 0x10B4]
000027DC  48C0                     ext.l      D0
000027DE  2F00                     move.l     -[A7], D0
000027E0  4EBA 126C                jsr        [PC + 0x126C /* 00003A4E */]
000027E4  6000 0242                bra        +0x244 /* 00002A28 */
000027E8  302D EF1C                move.w     D0, [A5 - 0x10E4]
000027EC  48C0                     ext.l      D0
000027EE  2F00                     move.l     -[A7], D0
000027F0  4EBA 125C                jsr        [PC + 0x125C /* 00003A4E */]
000027F4  6000 0232                bra        +0x234 /* 00002A28 */
000027F8  302D E1FC                move.w     D0, [A5 - 0x1E04]
000027FC  5240                     addq.w     D0, 1
000027FE  671E                     beq        +0x20 /* 0000281E */
00002800  5340                     subq.w     D0, 1
00002802  6706                     beq        +0x8 /* 0000280A */
00002804  5340                     subq.w     D0, 1
00002806  670C                     beq        +0xE /* 00002814 */
00002808  601E                     bra        +0x20 /* 00002828 */
label0000280A:
0000280A  487A 0276                pea.l      [PC + 0x276 /* 00002A82, value 0x46C6566, pstring "left" */]
0000280E  4EBA 12BC                jsr        [PC + 0x12BC /* 00003ACC */]
00002812  6020                     bra        +0x22 /* 00002834 */
label00002814:
00002814  487A 0264                pea.l      [PC + 0x264 /* 00002A7A, value 0x663656E, pstring "center" */]
00002818  4EBA 12B2                jsr        [PC + 0x12B2 /* 00003ACC */]
0000281C  6016                     bra        +0x18 /* 00002834 */
label0000281E:
0000281E  487A 0254                pea.l      [PC + 0x254 /* 00002A74, value 0x5726967, pstring "right" */]
00002822  4EBA 12A8                jsr        [PC + 0x12A8 /* 00003ACC */]
00002826  600C                     bra        +0xE /* 00002834 */
label00002828:
00002828  302D E1FC                move.w     D0, [A5 - 0x1E04]
0000282C  48C0                     ext.l      D0
0000282E  2F00                     move.l     -[A7], D0
00002830  4EBA 1236                jsr        [PC + 0x1236 /* 00003A68 */]
label00002834:
00002834  6000 01F2                bra        +0x1F4 /* 00002A28 */
00002838  3F2D E1FE                move.w     -[A7], [A5 - 0x1E02]
0000283C  486C FF00                pea.l      [A4 - 0x100]
00002840  A8FF                     syscall    GetFName/GetFontName
00002842  4240                     clr.w      D0
00002844  102C FF00                move.b     D0, [A4 - 0x100]
00002848  4A40                     tst.w      D0
0000284A  660E                     bne        +0x10 /* 0000285A */
0000284C  302D E1FE                move.w     D0, [A5 - 0x1E02]
00002850  48C0                     ext.l      D0
00002852  2F00                     move.l     -[A7], D0
00002854  4EBA 1212                jsr        [PC + 0x1212 /* 00003A68 */]
00002858  6008                     bra        +0xA /* 00002862 */
label0000285A:
0000285A  486C FF00                pea.l      [A4 - 0x100]
0000285E  4EBA 1222                jsr        [PC + 0x1222 /* 00003A82 */]
label00002862:
00002862  6000 01C4                bra        +0x1C6 /* 00002A28 */
00002866  302D E200                move.w     D0, [A5 - 0x1E00]
0000286A  48C0                     ext.l      D0
0000286C  2F00                     move.l     -[A7], D0
0000286E  4EBA 11DE                jsr        [PC + 0x11DE /* 00003A4E */]
00002872  6000 01B4                bra        +0x1B6 /* 00002A28 */
00002876  102D E202                move.b     D0, [A5 - 0x1DFE]
0000287A  7200                     moveq.l    D1, 0x00
0000287C  B001                     cmp.b      D0, D1
0000287E  660C                     bne        +0xE /* 0000288C */
00002880  41EC FF00                lea.l      A0, [A4 - 0x100]
00002884  43FA 01E8                lea.l      A1, [PC + 0x1E8 /* 00002A6E, value 0x5706C61, pstring "plain" */]
00002888  20D9                     move.l     [A0]+, [A1]+
0000288A  3091                     move.w     [A0], [A1]
label0000288C:
0000288C  4267                     clr.w      -[A7]
0000288E  486D E202                pea.l      [A5 - 0x1DFE]
00002892  7007                     moveq.l    D0, 0x07
00002894  2F00                     move.l     -[A7], D0
00002896  A85D                     syscall    BitTst
00002898  101F                     move.b     D0, [A7]+
0000289A  6724                     beq        +0x26 /* 000028C0 */
0000289C  486C FF00                pea.l      [A4 - 0x100]
000028A0  487A 01C6                pea.l      [PC + 0x1C6 /* 00002A68, value 0x5626F6C, pstring "bold," */]
000028A4  486E FF00                pea.l      [A6 - 0x100]
000028A8  3F3C 0002                move.w     -[A7], 0x2
000028AC  4EAD 050A                jsr        [A5 + 0x50A /* export_157, CODE:1 @ 0000531E */]
000028B0  41EC FF00                lea.l      A0, [A4 - 0x100]
000028B4  43EE FF00                lea.l      A1, [A6 - 0x100]
000028B8  703F                     moveq.l    D0, 0x3F
label000028BA:
000028BA  20D9                     move.l     [A0]+, [A1]+
000028BC  51C8 FFFC                dbf        D0, -0x6 /* 000028BA */
label000028C0:
000028C0  4267                     clr.w      -[A7]
000028C2  486D E202                pea.l      [A5 - 0x1DFE]
000028C6  7006                     moveq.l    D0, 0x06
000028C8  2F00                     move.l     -[A7], D0
000028CA  A85D                     syscall    BitTst
000028CC  101F                     move.b     D0, [A7]+
000028CE  6724                     beq        +0x26 /* 000028F4 */
000028D0  486C FF00                pea.l      [A4 - 0x100]
000028D4  487A 018A                pea.l      [PC + 0x18A /* 00002A60, value 0x7697461, pstring "italic," */]
000028D8  486E FF00                pea.l      [A6 - 0x100]
000028DC  3F3C 0002                move.w     -[A7], 0x2
000028E0  4EAD 050A                jsr        [A5 + 0x50A /* export_157, CODE:1 @ 0000531E */]
000028E4  41EC FF00                lea.l      A0, [A4 - 0x100]
000028E8  43EE FF00                lea.l      A1, [A6 - 0x100]
000028EC  703F                     moveq.l    D0, 0x3F
label000028EE:
000028EE  20D9                     move.l     [A0]+, [A1]+
000028F0  51C8 FFFC                dbf        D0, -0x6 /* 000028EE */
label000028F4:
000028F4  4267                     clr.w      -[A7]
000028F6  486D E202                pea.l      [A5 - 0x1DFE]
000028FA  7005                     moveq.l    D0, 0x05
000028FC  2F00                     move.l     -[A7], D0
000028FE  A85D                     syscall    BitTst
00002900  101F                     move.b     D0, [A7]+
00002902  6724                     beq        +0x26 /* 00002928 */
00002904  486C FF00                pea.l      [A4 - 0x100]
00002908  487A 014A                pea.l      [PC + 0x14A /* 00002A54, value 0xA756E64 '\nund', pstring "underline," */]
0000290C  486E FF00                pea.l      [A6 - 0x100]
00002910  3F3C 0002                move.w     -[A7], 0x2
00002914  4EAD 050A                jsr        [A5 + 0x50A /* export_157, CODE:1 @ 0000531E */]
00002918  41EC FF00                lea.l      A0, [A4 - 0x100]
0000291C  43EE FF00                lea.l      A1, [A6 - 0x100]
00002920  703F                     moveq.l    D0, 0x3F
label00002922:
00002922  20D9                     move.l     [A0]+, [A1]+
00002924  51C8 FFFC                dbf        D0, -0x6 /* 00002922 */
label00002928:
00002928  4267                     clr.w      -[A7]
0000292A  486D E202                pea.l      [A5 - 0x1DFE]
0000292E  7004                     moveq.l    D0, 0x04
00002930  2F00                     move.l     -[A7], D0
00002932  A85D                     syscall    BitTst
00002934  101F                     move.b     D0, [A7]+
00002936  6724                     beq        +0x26 /* 0000295C */
00002938  486C FF00                pea.l      [A4 - 0x100]
0000293C  487A 010C                pea.l      [PC + 0x10C /* 00002A4A, value 0x86F7574, pstring "outline," */]
00002940  486E FF00                pea.l      [A6 - 0x100]
00002944  3F3C 0002                move.w     -[A7], 0x2
00002948  4EAD 050A                jsr        [A5 + 0x50A /* export_157, CODE:1 @ 0000531E */]
0000294C  41EC FF00                lea.l      A0, [A4 - 0x100]
00002950  43EE FF00                lea.l      A1, [A6 - 0x100]
00002954  703F                     moveq.l    D0, 0x3F
label00002956:
00002956  20D9                     move.l     [A0]+, [A1]+
00002958  51C8 FFFC                dbf        D0, -0x6 /* 00002956 */
label0000295C:
0000295C  4267                     clr.w      -[A7]
0000295E  486D E202                pea.l      [A5 - 0x1DFE]
00002962  7003                     moveq.l    D0, 0x03
00002964  2F00                     move.l     -[A7], D0
00002966  A85D                     syscall    BitTst
00002968  101F                     move.b     D0, [A7]+
0000296A  6724                     beq        +0x26 /* 00002990 */
0000296C  486C FF00                pea.l      [A4 - 0x100]
00002970  487A 00D0                pea.l      [PC + 0xD0 /* 00002A42, value 0x7736861, pstring "shadow," */]
00002974  486E FF00                pea.l      [A6 - 0x100]
00002978  3F3C 0002                move.w     -[A7], 0x2
0000297C  4EAD 050A                jsr        [A5 + 0x50A /* export_157, CODE:1 @ 0000531E */]
00002980  41EC FF00                lea.l      A0, [A4 - 0x100]
00002984  43EE FF00                lea.l      A1, [A6 - 0x100]
00002988  703F                     moveq.l    D0, 0x3F
label0000298A:
0000298A  20D9                     move.l     [A0]+, [A1]+
0000298C  51C8 FFFC                dbf        D0, -0x6 /* 0000298A */
label00002990:
00002990  4267                     clr.w      -[A7]
00002992  486D E202                pea.l      [A5 - 0x1DFE]
00002996  7002                     moveq.l    D0, 0x02
00002998  2F00                     move.l     -[A7], D0
0000299A  A85D                     syscall    BitTst
0000299C  101F                     move.b     D0, [A7]+
0000299E  6724                     beq        +0x26 /* 000029C4 */
000029A0  486C FF00                pea.l      [A4 - 0x100]
000029A4  487A 0092                pea.l      [PC + 0x92 /* 00002A38, value 0x9636F6E '\tcon', pstring "condense," */]
000029A8  486E FF00                pea.l      [A6 - 0x100]
000029AC  3F3C 0002                move.w     -[A7], 0x2
000029B0  4EAD 050A                jsr        [A5 + 0x50A /* export_157, CODE:1 @ 0000531E */]
000029B4  41EC FF00                lea.l      A0, [A4 - 0x100]
000029B8  43EE FF00                lea.l      A1, [A6 - 0x100]
000029BC  703F                     moveq.l    D0, 0x3F
label000029BE:
000029BE  20D9                     move.l     [A0]+, [A1]+
000029C0  51C8 FFFC                dbf        D0, -0x6 /* 000029BE */
label000029C4:
000029C4  4267                     clr.w      -[A7]
000029C6  486D E202                pea.l      [A5 - 0x1DFE]
000029CA  7001                     moveq.l    D0, 0x01
000029CC  2F00                     move.l     -[A7], D0
000029CE  A85D                     syscall    BitTst
000029D0  101F                     move.b     D0, [A7]+
000029D2  6724                     beq        +0x26 /* 000029F8 */
000029D4  486C FF00                pea.l      [A4 - 0x100]
000029D8  487A 0056                pea.l      [PC + 0x56 /* 00002A30, value 0x7657874, pstring "extend," */]
000029DC  486E FF00                pea.l      [A6 - 0x100]
000029E0  3F3C 0002                move.w     -[A7], 0x2
000029E4  4EAD 050A                jsr        [A5 + 0x50A /* export_157, CODE:1 @ 0000531E */]
000029E8  41EC FF00                lea.l      A0, [A4 - 0x100]
000029EC  43EE FF00                lea.l      A1, [A6 - 0x100]
000029F0  703F                     moveq.l    D0, 0x3F
label000029F2:
000029F2  20D9                     move.l     [A0]+, [A1]+
000029F4  51C8 FFFC                dbf        D0, -0x6 /* 000029F2 */
label000029F8:
000029F8  4240                     clr.w      D0
000029FA  102C FF00                move.b     D0, [A4 - 0x100]
000029FE  4241                     clr.w      D1
00002A00  41EC FF00                lea.l      A0, [A4 - 0x100]
00002A04  1230 0000                move.b     D1, [A0 + D0.w]
00002A08  702C                     moveq.l    D0, 0x2C
00002A0A  B041                     cmp.w      D0, D1
00002A0C  6604                     bne        +0x6 /* 00002A12 */
00002A0E  532C FF00                subq.b     [A4 - 0x100], 1
label00002A12:
00002A12  486C FF00                pea.l      [A4 - 0x100]
00002A16  4EBA 106A                jsr        [PC + 0x106A /* 00003A82 */]
00002A1A  600C                     bra        +0xE /* 00002A28 */
00002A1C  302D E204                move.w     D0, [A5 - 0x1DFC]
00002A20  48C0                     ext.l      D0
00002A22  2F00                     move.l     -[A7], D0
00002A24  4EBA 1028                jsr        [PC + 0x1028 /* 00003A4E */]
label00002A28:
00002A28  285F                     movea.l    A4, [A7]+
00002A2A  4E5E                     unlink     A6
00002A2C  2E9F                     move.l     [A7], [A7]+
00002A2E  4E75                     rts
00002A30  0765                     bchg       -[A5], D3
00002A32  7874                     moveq.l    D4, 0x74
00002A34  656E                     bcs        +0x70 /* 00002AA4 */
00002A36  642C                     bcc        +0x2E /* 00002A64 */
00002A38  0963                     bchg       -[A3], D4
00002A3A  6F6E                     ble        +0x70 /* 00002AAA */
00002A3C  6465                     bcc        +0x67 /* 00002AA3 */
00002A3E  6E73                     bgt        +0x75 /* 00002AB3 */
00002A40  652C                     bcs        +0x2E /* 00002A6E */
00002A42  0773 6861                bchg       [A3 + D6 + 0x61], D3
00002A46  646F                     bcc        +0x71 /* 00002AB7 */
00002A48  772C                     moveq.l    D3, 0x2C
00002A4A  086F 7574 6C69           bchg.b     [A7 + 0x6C69], 0x74 /* 't' */
00002A50  6E65                     bgt        +0x67 /* 00002AB7 */
00002A52  2C00                     move.l     D6, D0
00002A54  0A75 6E64 6572 6C69 6... xori.w     [[A5 + 0x6C696E65] + 0x2C00], 0x6E64 /* 'nd' */
00002A60  0769 7461                bchg       [A1 + 0x7461], D3
label00002A64:
00002A64  6C69                     bge        +0x6B /* 00002ACF */
00002A66  632C                     bls        +0x2E /* 00002A94 */
00002A68  0562                     bchg       -[A2], D2
00002A6A  6F6C                     ble        +0x6E /* 00002AD8 */
00002A6C  642C                     bcc        +0x2E /* 00002A9A */
label00002A6E:
00002A6E  0570 6C61                bchg       [A0 + D6 * 4 + 0x61], D2
00002A72  696E                     bvs        +0x70 /* 00002AE2 */
00002A74  0572 6967                bchg       <<invalid full ext with IS == 1 and I/IS == 7>>, D2
00002A78  6874                     bvc        +0x76 /* 00002AEE */
00002A7A  0663 656E                addi.w     -[A3], 0x656E /* 'en' */
00002A7E  7465                     moveq.l    D2, 0x65
00002A80  7200                     moveq.l    D1, 0x00
00002A82  046C 6566 7400           subi.w     [A4 + 0x7400], 0x6566 /* 'ef' */
fn00002A88:
00002A88  4E56 FFEC                link       A6, -0x0014
00002A8C  206E 0008                movea.l    A0, [A6 + 0x8]
00002A90  1028 0008                move.b     D0, [A0 + 0x8]
label00002A94:
00002A94  4880                     ext.w      D0
00002A96  6B00 0144                bmi        +0x146 /* 00002BDC */
label00002A9A:
00002A9A  0C40 0030                cmpi.w     D0, 0x30 /* '0' */
00002A9E  6E00 013C                bgt        +0x13E /* 00002BDC */
00002AA2  D040                     add.w      D0, D0
label00002AA4:
00002AA4  303B 0006                move.w     D0, [PC + D0.w + 0x6]
00002AA8  4EFB 0000                jmp        [PC + D0.w]
// begin alternate branch 00002AAA-00002AF0
label00002AAA:
00002AAA  0000 0064                ori.b      D0, 0x64 /* 'd' */
00002AAE  0132 0132 0132 0132 0128 btst       [[A2 + 0x1320132 + D0] + 0x128], D0
00002AB8  0128 0128                btst       [A0 + 0x128], D0
00002ABC  0128 0128                btst       [A0 + 0x128], D0
00002AC0  0132 0132 0132 0132 0132 btst       [[A2 + 0x1320132 + D0] + 0x132], D0
00002ACA  0132 0132 0132 0132 0132 btst       [[A2 + 0x1320132 + D0] + 0x132], D0
00002AD4  0088 00B4 0128           ori.l      A0, 0xB40128
label00002AD8: // (misaligned)
00002ADA  0128 0128                btst       [A0 + 0x128], D0
00002ADE  0128 0128                btst       [A0 + 0x128], D0
label00002AE2:
00002AE2  0128 0128                btst       [A0 + 0x128], D0
00002AE6  0128 0128                btst       [A0 + 0x128], D0
00002AEA  00BE 0132 0070           ori.l      <<invalid special address>>, 0x1320070
// end alternate branch 00002AAA-00002AF0
label00002AAA: // (misaligned)
00002AAC  0064 0132                ori.w      -[A4], 0x132
00002AB0  0132 0132 0132 0128 0128 btst       [[A2 + 0x1320128 + D0] + 0x128], D0
00002ABA  0128 0128                btst       [A0 + 0x128], D0
00002ABE  0128 0132                btst       [A0 + 0x132], D0
00002AC2  0132 0132 0132 0132 0132 btst       [[A2 + 0x1320132 + D0] + 0x132], D0
00002ACC  0132 0132 0132 0132 0088 btst       [[A2 + 0x1320132 + D0] + 0x88], D0
00002AD6  00B4 0128 0128 0128 0128 ori.l      [A4 + 0x128 + D0], 0x1280128
// begin alternate branch 00002AD8-00002AE0
label00002AD8:
00002AD8  0128 0128                btst       [A0 + 0x128], D0
00002ADC  0128 0128                btst       [A0 + 0x128], D0
// end alternate branch 00002AD8-00002AE0
label00002AD8: // (misaligned)
00002AE0  0128 0128                btst       [A0 + 0x128], D0
label00002AE2: // (misaligned)
00002AE4  0128 0128                btst       [A0 + 0x128], D0
00002AE8  0128 00BE                btst       [A0 + 0xBE], D0
00002AEC  0132 0070                btst       [A2 + D0.w + 0x70], D0
// begin alternate branch 00002AEE-00002AF4
label00002AEE:
00002AEE  0070 00C8 00D8           ori.w      [A0 + D0.w - 0x28], 0xC8
// end alternate branch 00002AEE-00002AF4
label00002AEE: // (misaligned)
00002AF0  00C8                     .incomplete
00002AF2  00D8                     .incomplete
00002AF4  0132 0132 00A4 007C 00E2 btst       [[A2 + 0xA4007C + D0] + 0xE2], D0
00002AFE  00F6                     .incomplete
00002B00  00EC                     .incomplete
00002B02  0132 0132 0132 0132 0098 btst       [[A2 + 0x1320132 + D0] + 0x98], D0
00002B0C  0100                     btst       D0, D0
00002B0E  487A 00DE                pea.l      [PC + 0xDE /* 00002BEE, value 0x9487970 '\tHyp', pstring "HyperCard" */]
00002B12  4EBA 0FB8                jsr        [PC + 0xFB8 /* 00003ACC */]
00002B16  6000 00CC                bra        +0xCE /* 00002BE4 */
00002B1A  486D B42E                pea.l      [A5 - 0x4BD2]
00002B1E  4EBA 0FAC                jsr        [PC + 0xFAC /* 00003ACC */]
00002B22  6000 00C0                bra        +0xC2 /* 00002BE4 */
00002B26  486D B3B4                pea.l      [A5 - 0x4C4C]
00002B2A  4EBA 0FA0                jsr        [PC + 0xFA0 /* 00003ACC */]
00002B2E  6000 00B4                bra        +0xB6 /* 00002BE4 */
00002B32  302D F02C                move.w     D0, [A5 - 0xFD4]
00002B36  48C0                     ext.l      D0
00002B38  2F00                     move.l     -[A7], D0
00002B3A  4EBA 0F2C                jsr        [PC + 0xF2C /* 00003A68 */]
00002B3E  6000 00A4                bra        +0xA6 /* 00002BE4 */
00002B42  1F2D F015                move.b     -[A7], [A5 - 0xFEB]
00002B46  4EBA 0EBE                jsr        [PC + 0xEBE /* 00003A06 */]
00002B4A  6000 0098                bra        +0x9A /* 00002BE4 */
00002B4E  302D F010                move.w     D0, [A5 - 0xFF0]
00002B52  48C0                     ext.l      D0
00002B54  2F00                     move.l     -[A7], D0
00002B56  4EBA 0F10                jsr        [PC + 0xF10 /* 00003A68 */]
00002B5A  6000 0088                bra        +0x8A /* 00002BE4 */
00002B5E  1F2D EF4F                move.b     -[A7], [A5 - 0x10B1]
00002B62  4EBA 0EA2                jsr        [PC + 0xEA2 /* 00003A06 */]
00002B66  607C                     bra        +0x7E /* 00002BE4 */
00002B68  1F2D EFDF                move.b     -[A7], [A5 - 0x1021]
00002B6C  4EBA 0E98                jsr        [PC + 0xE98 /* 00003A06 */]
00002B70  6072                     bra        +0x74 /* 00002BE4 */
00002B72  4A6D FD8A                tst.w      [A5 - 0x276]
00002B76  5DC0                     slt        D0
00002B78  4400                     neg.b      D0
00002B7A  1F00                     move.b     -[A7], D0
00002B7C  4EBA 0E88                jsr        [PC + 0xE88 /* 00003A06 */]
00002B80  6062                     bra        +0x64 /* 00002BE4 */
00002B82  1F2D E302                move.b     -[A7], [A5 - 0x1CFE]
00002B86  4EBA 0E7E                jsr        [PC + 0xE7E /* 00003A06 */]
00002B8A  6058                     bra        +0x5A /* 00002BE4 */
00002B8C  1F2D F007                move.b     -[A7], [A5 - 0xFF9]
00002B90  4EBA 0E74                jsr        [PC + 0xE74 /* 00003A06 */]
00002B94  604E                     bra        +0x50 /* 00002BE4 */
00002B96  1F2D F006                move.b     -[A7], [A5 - 0xFFA]
00002B9A  4EBA 0E6A                jsr        [PC + 0xE6A /* 00003A06 */]
00002B9E  6044                     bra        +0x46 /* 00002BE4 */
00002BA0  1F2D E301                move.b     -[A7], [A5 - 0x1CFF]
00002BA4  4EBA 0E60                jsr        [PC + 0xE60 /* 00003A06 */]
00002BA8  603A                     bra        +0x3C /* 00002BE4 */
00002BAA  7001                     moveq.l    D0, 0x01
00002BAC  B02D B66B                cmp.b      D0, [A5 - 0x4995]
00002BB0  6616                     bne        +0x18 /* 00002BC8 */
00002BB2  486E FFEC                pea.l      [A6 - 0x14]
00002BB6  2F2D F4BE                move.l     -[A7], [A5 - 0xB42]
00002BBA  3F3C 0008                move.w     -[A7], 0x8
00002BBE  4EAD 18FA                jsr        [A5 + 0x18FA /* export_795, CODE:16 @ 00000938 */]
00002BC2  4EBA 0F08                jsr        [PC + 0xF08 /* 00003ACC */]
00002BC6  601C                     bra        +0x1E /* 00002BE4 */
label00002BC8:
00002BC8  487A 0020                pea.l      [PC + 0x20 /* 00002BEA, value 0x3312E32, pstring "1.2" */]
00002BCC  4EBA 0EFE                jsr        [PC + 0xEFE /* 00003ACC */]
00002BD0  6012                     bra        +0x14 /* 00002BE4 */
00002BD2  2F2E 0008                move.l     -[A7], [A6 + 0x8]
00002BD6  4EBA FB44                jsr        [PC - 0x4BC /* 0000271C */]
00002BDA  6008                     bra        +0xA /* 00002BE4 */
label00002BDC:
00002BDC  3F3C 003E                move.w     -[A7], 0x3E /* '>' */
00002BE0  4EBA DF76                jsr        [PC - 0x208A /* 00000B58 */]
label00002BE4:
00002BE4  4E5E                     unlink     A6
00002BE6  2E9F                     move.l     [A7], [A7]+
00002BE8  4E75                     rts
00002BEA  0331 2E32                btst       [A1 + D2 * 8 + 0x32], D1
00002BEE  0948                     bchg       A0, D4
00002BF0  7970                     moveq.l    D4, 0x70
00002BF2  6572                     bcs        +0x74 /* 00002C66 */
00002BF4  4361                     chk.w      D1, -[A1]
00002BF6  7264                     moveq.l    D1, 0x64
export_321:
00002BF8  4E56 FCFE                link       A6, -0x0302
00002BFC  3D6D B978 FCFE           move.w     [A6 - 0x302], [A5 - 0x4688]
00002C02  4267                     clr.w      -[A7]
00002C04  206E 000A                movea.l    A0, [A6 + 0xA]
00002C08  2F28 0002                move.l     -[A7], [A0 + 0x2]
00002C0C  4EBA 0A06                jsr        [PC + 0xA06 /* 00003614 */]
00002C10  101F                     move.b     D0, [A7]+
00002C12  6754                     beq        +0x56 /* 00002C68 */
00002C14  206E 000A                movea.l    A0, [A6 + 0xA]
00002C18  1010                     move.b     D0, [A0]
00002C1A  4880                     ext.w      D0
00002C1C  5340                     subq.w     D0, 1
00002C1E  6712                     beq        +0x14 /* 00002C32 */
00002C20  5340                     subq.w     D0, 1
00002C22  6716                     beq        +0x18 /* 00002C3A */
00002C24  5340                     subq.w     D0, 1
00002C26  671A                     beq        +0x1C /* 00002C42 */
00002C28  5340                     subq.w     D0, 1
00002C2A  671E                     beq        +0x20 /* 00002C4A */
00002C2C  5340                     subq.w     D0, 1
00002C2E  6722                     beq        +0x24 /* 00002C52 */
00002C30  6028                     bra        +0x2A /* 00002C5A */
label00002C32:
00002C32  2F0E                     move.l     -[A7], A6
00002C34  4EBA EE98                jsr        [PC - 0x1168 /* 00001ACE */]
00002C38  6028                     bra        +0x2A /* 00002C62 */
label00002C3A:
00002C3A  2F0E                     move.l     -[A7], A6
00002C3C  4EBA F500                jsr        [PC - 0xB00 /* 0000213E */]
00002C40  6020                     bra        +0x22 /* 00002C62 */
label00002C42:
00002C42  2F0E                     move.l     -[A7], A6
00002C44  4EBA F750                jsr        [PC - 0x8B0 /* 00002396 */]
00002C48  6018                     bra        +0x1A /* 00002C62 */
label00002C4A:
00002C4A  2F0E                     move.l     -[A7], A6
00002C4C  4EBA F91C                jsr        [PC - 0x6E4 /* 0000256A */]
00002C50  6010                     bra        +0x12 /* 00002C62 */
label00002C52:
00002C52  2F0E                     move.l     -[A7], A6
00002C54  4EBA FE32                jsr        [PC - 0x1CE /* 00002A88 */]
00002C58  6008                     bra        +0xA /* 00002C62 */
label00002C5A:
00002C5A  3F3C 003E                move.w     -[A7], 0x3E /* '>' */
00002C5E  4EBA DEF8                jsr        [PC - 0x2108 /* 00000B58 */]
label00002C62:
00002C62  4EBA 21CA                jsr        [PC + 0x21CA /* 00004E2E */]
label00002C66:
00002C66  6004                     bra        +0x6 /* 00002C6C */
label00002C68:
00002C68  4EAD 1812                jsr        [A5 + 0x1812 /* export_766, CODE:16 @ 00000208 */]
label00002C6C:
00002C6C  302E FCFE                move.w     D0, [A6 - 0x302]
00002C70  B06D B978                cmp.w      D0, [A5 - 0x4688]
00002C74  6604                     bne        +0x6 /* 00002C7A */
00002C76  4EBA 0D4C                jsr        [PC + 0xD4C /* 000039C4 */]
label00002C7A:
00002C7A  4E5E                     unlink     A6
00002C7C  205F                     movea.l    A0, [A7]+
00002C7E  5C4F                     addq.w     A7, 6
00002C80  4ED0                     jmp        [A0]
export_322:
00002C82  4E56 0000                link       A6, 0
00002C86  48E7 0018                movem.l    -[A7], A3,A4
00002C8A  286E 0008                movea.l    A4, [A6 + 0x8]
00002C8E  266E 000C                movea.l    A3, [A6 + 0xC]
00002C92  2F0B                     move.l     -[A7], A3
00002C94  A873                     syscall    SetPort
00002C96  41EB 0010                lea.l      A0, [A3 + 0x10]
00002C9A  224C                     movea.l    A1, A4
00002C9C  22D8                     move.l     [A1]+, [A0]+
00002C9E  22D8                     move.l     [A1]+, [A0]+
00002CA0  2F0C                     move.l     -[A7], A4
00002CA2  A870                     syscall    LocalToGlobal
00002CA4  486C 0004                pea.l      [A4 + 0x4]
// begin alternate branch 00002CA6-00002CAA
label00002CA6:
00002CA6  0004 A870                ori.b      D4, 0x70 /* 'p' */
// end alternate branch 00002CA6-00002CAA
label00002CA6: // (misaligned)
00002CA8  A870                     syscall    LocalToGlobal
00002CAA  2F2D EDC8                move.l     -[A7], [A5 - 0x1238]
00002CAE  A873                     syscall    SetPort
00002CB0  B7ED EDC8                cmpa.l     A3, [A5 - 0x1238]
00002CB4  670A                     beq        +0xC /* 00002CC0 */
00002CB6  2F0C                     move.l     -[A7], A4
00002CB8  A871                     syscall    GlobalToLocal
00002CBA  486C 0004                pea.l      [A4 + 0x4]
00002CBE  A871                     syscall    GlobalToLocal
label00002CC0:
00002CC0  4CDF 1800                movem.l    A3,A4, [A7]+
00002CC4  4E5E                     unlink     A6
00002CC6  205F                     movea.l    A0, [A7]+
00002CC8  504F                     addq.w     A7, 8
00002CCA  4ED0                     jmp        [A0]
export_323:
fn00002CCC:
00002CCC  4E56 0000                link       A6, 0
00002CD0  206E 0008                movea.l    A0, [A6 + 0x8]
00002CD4  4228 0010                clr.b      [A0 + 0x10]
00002CD8  2F2E 0008                move.l     -[A7], [A6 + 0x8]
00002CDC  2F2E 000C                move.l     -[A7], [A6 + 0xC]
00002CE0  4EBA E662                jsr        [PC - 0x199E /* 00001344 */]
00002CE4  4E5E                     unlink     A6
00002CE6  205F                     movea.l    A0, [A7]+
00002CE8  504F                     addq.w     A7, 8
00002CEA  4ED0                     jmp        [A0]
export_324:
00002CEC  4E56 0000                link       A6, 0
00002CF0  487A 008C                pea.l      [PC + 0x8C /* 00002D7E, value 0x8302E23, pstring "0.######" */]
00002CF4  4EBA 17C0                jsr        [PC + 0x17C0 /* 000044B6 */]
00002CF8  3B7C 0001 AADC           move.w     [A5 - 0x5524], 0x1
00002CFE  422D AAE3                clr.b      [A5 - 0x551D]
00002D02  102D DC51                move.b     D0, [A5 - 0x23AF]
00002D06  6708                     beq        +0xA /* 00002D10 */
00002D08  3F3C 000A                move.w     -[A7], 0xA /* '\n' */
00002D0C  4EAD 076A                jsr        [A5 + 0x76A /* export_233, CODE:4 @ 00002A1A */]
label00002D10:
00002D10  4AAD B674                tst.l      [A5 - 0x498C]
00002D14  56C0                     sne        D0
00002D16  4A6D B978                tst.w      [A5 - 0x4688]
00002D1A  56C1                     sne        D1
00002D1C  8001                     or.b       D0, D1
00002D1E  2F00                     move.l     -[A7], D0
00002D20  42A7                     clr.l      -[A7]
00002D22  2F2D B66C                move.l     -[A7], [A5 - 0x4994]
00002D26  4EAD 0202                jsr        [A5 + 0x202 /* export_60, CODE:1 @ 00004640 */]
00002D2A  221F                     move.l     D1, [A7]+
00002D2C  201F                     move.l     D0, [A7]+
00002D2E  B2AD B670                cmp.l      D1, [A5 - 0x4990]
00002D32  56C1                     sne        D1
00002D34  8001                     or.b       D0, D1
00002D36  6718                     beq        +0x1A /* 00002D50 */
00002D38  7000                     moveq.l    D0, 0x00
00002D3A  2B40 B674                move.l     [A5 - 0x498C], D0
00002D3E  426D B978                clr.w      [A5 - 0x4688]
00002D42  42A7                     clr.l      -[A7]
00002D44  2F2D B66C                move.l     -[A7], [A5 - 0x4994]
00002D48  4EAD 0202                jsr        [A5 + 0x202 /* export_60, CODE:1 @ 00004640 */]
00002D4C  2B5F B670                move.l     [A5 - 0x4990], [A7]+
label00002D50:
00002D50  4AAD D470                tst.l      [A5 - 0x2B90]
00002D54  6706                     beq        +0x8 /* 00002D5C */
00002D56  7000                     moveq.l    D0, 0x00
00002D58  2B40 D470                move.l     [A5 - 0x2B90], D0
label00002D5C:
00002D5C  4A6D AAD4                tst.w      [A5 - 0x552C]
00002D60  6704                     beq        +0x6 /* 00002D66 */
00002D62  426D AAD4                clr.w      [A5 - 0x552C]
label00002D66:
00002D66  4A6D A892                tst.w      [A5 - 0x576E]
00002D6A  6704                     beq        +0x6 /* 00002D70 */
00002D6C  426D A892                clr.w      [A5 - 0x576E]
label00002D70:
00002D70  102D 9AD4                move.b     D0, [A5 - 0x652C]
00002D74  6704                     beq        +0x6 /* 00002D7A */
00002D76  422D 9AD4                clr.b      [A5 - 0x652C]
label00002D7A:
00002D7A  4E5E                     unlink     A6
00002D7C  4E75                     rts
00002D7E  0830 2E23 2323 2323 2... btst.b     [[A0 + 0x2323 + D2 * 2] + 0x23004E56], 0x23 /* '#' */
// begin alternate branch 00002D88-00002D90
export_325:
00002D88  4E56 0000                link       A6, 0
00002D8C  426D 9A82                clr.w      [A5 - 0x657E]
// end alternate branch 00002D88-00002D90
export_325: // at 00002D88 (misaligned)
00002D8A  0000 426D                ori.b      D0, 0x6D /* 'm' */
00002D8E  9A82                     sub.l      D5, D2
00002D90  426D 9A84                clr.w      [A5 - 0x657C]
00002D94  426D 9A86                clr.w      [A5 - 0x657A]
00002D98  426D 9A88                clr.w      [A5 - 0x6578]
00002D9C  41ED 9A82                lea.l      A0, [A5 - 0x657E]
00002DA0  2B48 9A8A                move.l     [A5 - 0x6576], A0
00002DA4  41ED D458                lea.l      A0, [A5 - 0x2BA8]
00002DA8  2B48 9A8E                move.l     [A5 - 0x6572], A0
00002DAC  3B7C FFFF 9A92           move.w     [A5 - 0x656E], 0xFFFF
00002DB2  3B7C FFFF 9A94           move.w     [A5 - 0x656C], 0xFFFF
00002DB8  3B7C FFFF 9A96           move.w     [A5 - 0x656A], 0xFFFF
00002DBE  7000                     moveq.l    D0, 0x00
00002DC0  2B40 9A98                move.l     [A5 - 0x6568], D0
00002DC4  7000                     moveq.l    D0, 0x00
00002DC6  2B40 9A9C                move.l     [A5 - 0x6564], D0
00002DCA  426D 9AA0                clr.w      [A5 - 0x6560]
00002DCE  1B7C 0005 9AA2           move.b     [A5 - 0x655E], 0x5
00002DD4  2B6D F4E0 9AA4           move.l     [A5 - 0x655C], [A5 - 0xB20]
00002DDA  4E5E                     unlink     A6
00002DDC  4E75                     rts
export_326:
00002DDE  4E56 0000                link       A6, 0
00002DE2  2F2E 0008                move.l     -[A7], [A6 + 0x8]
00002DE6  700E                     moveq.l    D0, 0x0E
00002DE8  2F00                     move.l     -[A7], D0
00002DEA  4EAD 1B42                jsr        [A5 + 0x1B42 /* export_868, CODE:16 @ 00001E7C */]
00002DEE  4E5E                     unlink     A6
00002DF0  2E9F                     move.l     [A7], [A7]+
00002DF2  4E75                     rts
export_327:
fn00002DF4:
00002DF4  4E56 0000                link       A6, 0
00002DF8  2F0C                     move.l     -[A7], A4
00002DFA  206D A6F8                movea.l    A0, [A5 - 0x5908]
00002DFE  2850                     movea.l    A4, [A0]
00002E00  302C 0008                move.w     D0, [A4 + 0x8]
00002E04  9054                     sub.w      D0, [A4]
00002E06  48C0                     ext.l      D0
00002E08  81EC 0018                divs.w     D0, [A4 + 0x18]
00002E0C  3D40 0008                move.w     [A6 + 0x8], D0
00002E10  285F                     movea.l    A4, [A7]+
00002E12  4E5E                     unlink     A6
00002E14  4E75                     rts
export_328:
00002E16  4E56 FFEE                link       A6, -0x0012
00002E1A  48E7 0308                movem.l    -[A7], D6,D7,A4
00002E1E  102D D479                move.b     D0, [A5 - 0x2B87]
00002E22  6700 0094                beq        +0x96 /* 00002EB8 */
00002E26  4EBA 184C                jsr        [PC + 0x184C /* 00004674 */]
00002E2A  3D7C 0065 FFF6           move.w     [A6 - 0xA], 0x65 /* 'e' */
00002E30  426E FFF8                clr.w      [A6 - 0x8]
00002E34  7000                     moveq.l    D0, 0x00
00002E36  2D40 FFFA                move.l     [A6 - 0x6], D0
00002E3A  4267                     clr.w      -[A7]
00002E3C  2F2D AF14                move.l     -[A7], [A5 - 0x50EC]
00002E40  486E FFF6                pea.l      [A6 - 0xA]
00002E44  A804                     syscall    SndDoImmediate
00002E46  3E1F                     move.w     D7, [A7]+
00002E48  2878 0CC0                movea.l    A4, [0x00000CC0 /* ASCBase */]
00002E4C  D9FC 0000 0801           add.l      A4, 0x801
label00002E52:
00002E52  4267                     clr.w      -[A7]
00002E54  4EAD 17FA                jsr        [A5 + 0x17FA /* export_763, CODE:16 @ 0000009E */]
00002E58  4A14                     tst.b      [A4]
00002E5A  57C0                     seq        D0
00002E5C  801F                     or.b       D0, [A7]+
00002E5E  0240 0001                andi.w     D0, 0x1
00002E62  67EE                     beq        -0x10 /* 00002E52 */
00002E64  3F3C 0001                move.w     -[A7], 0x1
00002E68  2F2D AAE6                move.l     -[A7], [A5 - 0x551A]
00002E6C  205F                     movea.l    A0, [A7]+
00002E6E  4E90                     jsr        [A0]
00002E70  42A7                     clr.l      -[A7]
00002E72  A975                     syscall    TickCount
00002E74  2C1F                     move.l     D6, [A7]+
00002E76  5C86                     addq.l     D6, 6
label00002E78:
00002E78  4267                     clr.w      -[A7]
00002E7A  4EAD 17FA                jsr        [A5 + 0x17FA /* export_763, CODE:16 @ 0000009E */]
00002E7E  42A7                     clr.l      -[A7]
00002E80  A975                     syscall    TickCount
00002E82  BC9F                     cmp.l      D6, [A7]+
00002E84  5FC0                     sle        D0
00002E86  801F                     or.b       D0, [A7]+
00002E88  0240 0001                andi.w     D0, 0x1
00002E8C  67EA                     beq        -0x14 /* 00002E78 */
label00002E8E:
00002E8E  4267                     clr.w      -[A7]
00002E90  4EAD 17FA                jsr        [A5 + 0x17FA /* export_763, CODE:16 @ 0000009E */]
00002E94  4A14                     tst.b      [A4]
00002E96  57C0                     seq        D0
00002E98  801F                     or.b       D0, [A7]+
00002E9A  0240 0001                andi.w     D0, 0x1
00002E9E  67EE                     beq        -0x10 /* 00002E8E */
00002EA0  3D7C 0064 FFF6           move.w     [A6 - 0xA], 0x64 /* 'd' */
00002EA6  4267                     clr.w      -[A7]
00002EA8  2F2D AF14                move.l     -[A7], [A5 - 0x50EC]
00002EAC  486E FFF6                pea.l      [A6 - 0xA]
00002EB0  4267                     clr.w      -[A7]
00002EB2  A803                     syscall    SndDoCommand
00002EB4  3E1F                     move.w     D7, [A7]+
00002EB6  600C                     bra        +0xE /* 00002EC4 */
label00002EB8:
00002EB8  3F3C 0001                move.w     -[A7], 0x1
00002EBC  2F2D AAE6                move.l     -[A7], [A5 - 0x551A]
00002EC0  205F                     movea.l    A0, [A7]+
00002EC2  4E90                     jsr        [A0]
label00002EC4:
00002EC4  4CDF 10C0                movem.l    D6,D7,A4, [A7]+
00002EC8  4E5E                     unlink     A6
00002ECA  4E75                     rts
export_329:
fn00002ECC:
00002ECC  4E56 FFFA                link       A6, -0x0006
00002ED0  48E7 0318                movem.l    -[A7], D6,D7,A3,A4
00002ED4  3C2E 0008                move.w     D6, [A6 + 0x8]
00002ED8  286E 000A                movea.l    A4, [A6 + 0xA]
00002EDC  3006                     move.w     D0, D6
00002EDE  D054                     add.w      D0, [A4]
00002EE0  3880                     move.w     [A4], D0
00002EE2  B06C 0002                cmp.w      D0, [A4 + 0x2]
00002EE6  6F00 00AE                ble        +0xB0 /* 00002F96 */
00002EEA  7008                     moveq.l    D0, 0x08
00002EEC  B046                     cmp.w      D0, D6
00002EEE  6C04                     bge        +0x6 /* 00002EF4 */
00002EF0  3E06                     move.w     D7, D6
00002EF2  6002                     bra        +0x4 /* 00002EF6 */
label00002EF4:
00002EF4  7E08                     moveq.l    D7, 0x08
label00002EF6:
00002EF6  4A6C 0002                tst.w      [A4 + 0x2]
00002EFA  664E                     bne        +0x50 /* 00002F4A */
00002EFC  42A7                     clr.l      -[A7]
00002EFE  7002                     moveq.l    D0, 0x02
00002F00  2F00                     move.l     -[A7], D0
00002F02  4EAD 18DA                jsr        [A5 + 0x18DA /* export_791, CODE:16 @ 00000896 */]
00002F06  295F 0006                move.l     [A4 + 0x6], [A7]+
00002F0A  206C 0006                movea.l    A0, [A4 + 0x6]
00002F0E  2050                     movea.l    A0, [A0]
00002F10  4250                     clr.w      [A0]
00002F12  3947 0002                move.w     [A4 + 0x2], D7
00002F16  42A7                     clr.l      -[A7]
00002F18  700E                     moveq.l    D0, 0x0E
00002F1A  C1EC 0002                muls.w     D0, [A4 + 0x2]
00002F1E  48C0                     ext.l      D0
00002F20  2F00                     move.l     -[A7], D0
00002F22  4EAD 18DA                jsr        [A5 + 0x18DA /* export_791, CODE:16 @ 00000896 */]
00002F26  295F 000A                move.l     [A4 + 0xA], [A7]+
00002F2A  661C                     bne        +0x1E /* 00002F48 */
00002F2C  3F3C 002D                move.w     -[A7], 0x2D /* '-' */
00002F30  4EBA DC26                jsr        [PC - 0x23DA /* 00000B58 */]
00002F34  397C 0001 0002           move.w     [A4 + 0x2], 0x1
00002F3A  42A7                     clr.l      -[A7]
00002F3C  700E                     moveq.l    D0, 0x0E
00002F3E  2F00                     move.l     -[A7], D0
00002F40  4EAD 18DA                jsr        [A5 + 0x18DA /* export_791, CODE:16 @ 00000896 */]
00002F44  295F 000A                move.l     [A4 + 0xA], [A7]+
label00002F48:
00002F48  604C                     bra        +0x4E /* 00002F96 */
label00002F4A:
00002F4A  3007                     move.w     D0, D7
00002F4C  D06C 0002                add.w      D0, [A4 + 0x2]
00002F50  3940 0002                move.w     [A4 + 0x2], D0
00002F54  2F2C 000A                move.l     -[A7], [A4 + 0xA]
00002F58  700E                     moveq.l    D0, 0x0E
00002F5A  C1EC 0002                muls.w     D0, [A4 + 0x2]
00002F5E  48C0                     ext.l      D0
00002F60  2F00                     move.l     -[A7], D0
00002F62  4EAD 1982                jsr        [A5 + 0x1982 /* export_812, CODE:16 @ 00000EAC */]
00002F66  4267                     clr.w      -[A7]
00002F68  3EB8 0220                move.w     [A7], [0x00000220 /* MemErr */]
00002F6C  4A5F                     tst.w      [A7]+
00002F6E  6726                     beq        +0x28 /* 00002F96 */
00002F70  3F3C 002D                move.w     -[A7], 0x2D /* '-' */
00002F74  4EBA DBE2                jsr        [PC - 0x241E /* 00000B58 */]
00002F78  302C 0002                move.w     D0, [A4 + 0x2]
00002F7C  9047                     sub.w      D0, D7
00002F7E  5240                     addq.w     D0, 1
00002F80  3940 0002                move.w     [A4 + 0x2], D0
00002F84  2F2C 000A                move.l     -[A7], [A4 + 0xA]
00002F88  700E                     moveq.l    D0, 0x0E
00002F8A  C1EC 0002                muls.w     D0, [A4 + 0x2]
00002F8E  48C0                     ext.l      D0
00002F90  2F00                     move.l     -[A7], D0
00002F92  4EAD 020A                jsr        [A5 + 0x20A /* export_61, CODE:1 @ 00004654 */]
label00002F96:
00002F96  206C 000A                movea.l    A0, [A4 + 0xA]
00002F9A  3014                     move.w     D0, [A4]
00002F9C  9046                     sub.w      D0, D6
00002F9E  C1FC 000E                muls.w     D0, 0xE
00002FA2  48C0                     ext.l      D0
00002FA4  2640                     movea.l    A3, D0
00002FA6  D7D0                     add.l      A3, [A0]
00002FA8  2F0B                     move.l     -[A7], A3
00002FAA  3006                     move.w     D0, D6
00002FAC  C1FC 000E                muls.w     D0, 0xE
00002FB0  48C0                     ext.l      D0
00002FB2  2F00                     move.l     -[A7], D0
00002FB4  4EAD 1B42                jsr        [A5 + 0x1B42 /* export_868, CODE:16 @ 00001E7C */]
00002FB8  4CDF 18C0                movem.l    D6,D7,A3,A4, [A7]+
00002FBC  4E5E                     unlink     A6
00002FBE  205F                     movea.l    A0, [A7]+
00002FC0  5C4F                     addq.w     A7, 6
00002FC2  4ED0                     jmp        [A0]
fn00002FC4:
00002FC4  4E56 FC00                link       A6, -0x0400
00002FC8  206E 0014                movea.l    A0, [A6 + 0x14]
00002FCC  43EE FF00                lea.l      A1, [A6 - 0x100]
00002FD0  703F                     moveq.l    D0, 0x3F
label00002FD2:
00002FD2  22D8                     move.l     [A1]+, [A0]+
00002FD4  51C8 FFFC                dbf        D0, -0x6 /* 00002FD2 */
00002FD8  206E 0010                movea.l    A0, [A6 + 0x10]
00002FDC  43EE FE00                lea.l      A1, [A6 - 0x200]
00002FE0  703F                     moveq.l    D0, 0x3F
label00002FE2:
00002FE2  22D8                     move.l     [A1]+, [A0]+
00002FE4  51C8 FFFC                dbf        D0, -0x6 /* 00002FE2 */
00002FE8  206E 000C                movea.l    A0, [A6 + 0xC]
00002FEC  43EE FD00                lea.l      A1, [A6 - 0x300]
00002FF0  703F                     moveq.l    D0, 0x3F
label00002FF2:
00002FF2  22D8                     move.l     [A1]+, [A0]+
00002FF4  51C8 FFFC                dbf        D0, -0x6 /* 00002FF2 */
00002FF8  206E 0008                movea.l    A0, [A6 + 0x8]
00002FFC  43EE FC00                lea.l      A1, [A6 - 0x400]
00003000  703F                     moveq.l    D0, 0x3F
label00003002:
00003002  22D8                     move.l     [A1]+, [A0]+
00003004  51C8 FFFC                dbf        D0, -0x6 /* 00003002 */
00003008  4EAD 10BA                jsr        [A5 + 0x10BA /* export_531, CODE:9 @ 000048B6 */]
0000300C  486E FF00                pea.l      [A6 - 0x100]
00003010  2F2D AADE                move.l     -[A7], [A5 - 0x5522]
00003014  4EAD 1992                jsr        [A5 + 0x1992 /* export_814, CODE:16 @ 00001036 */]
00003018  486E FE00                pea.l      [A6 - 0x200]
0000301C  2F2D AADE                move.l     -[A7], [A5 - 0x5522]
00003020  4EAD 1992                jsr        [A5 + 0x1992 /* export_814, CODE:16 @ 00001036 */]
00003024  486E FD00                pea.l      [A6 - 0x300]
00003028  2F2D AADE                move.l     -[A7], [A5 - 0x5522]
0000302C  4EAD 1992                jsr        [A5 + 0x1992 /* export_814, CODE:16 @ 00001036 */]
00003030  486E FC00                pea.l      [A6 - 0x400]
00003034  2F2D AADE                move.l     -[A7], [A5 - 0x5522]
00003038  4EAD 1992                jsr        [A5 + 0x1992 /* export_814, CODE:16 @ 00001036 */]
0000303C  486E FF00                pea.l      [A6 - 0x100]
00003040  486E FE00                pea.l      [A6 - 0x200]
00003044  486E FD00                pea.l      [A6 - 0x300]
00003048  486E FC00                pea.l      [A6 - 0x400]
0000304C  A98B                     syscall    ParamText
0000304E  4E5E                     unlink     A6
00003050  205F                     movea.l    A0, [A7]+
00003052  DEFC 0010                add.w      A7, 0x10
00003056  4ED0                     jmp        [A0]
export_330:
00003058  4E56 FFEA                link       A6, -0x0016
0000305C  486E FFF4                pea.l      [A6 - 0xC]
00003060  4EAD 1442                jsr        [A5 + 0x1442 /* export_644, CODE:13 @ 00001164 */]
00003064  102E FFF4                move.b     D0, [A6 - 0xC]
00003068  6714                     beq        +0x16 /* 0000307E */
0000306A  202E FFF6                move.l     D0, [A6 - 0xA]
0000306E  4480                     neg.l      D0
00003070  2D40 FFF6                move.l     [A6 - 0xA], D0
00003074  2F2E FFF6                move.l     -[A7], [A6 - 0xA]
00003078  4EBA 09D4                jsr        [PC + 0x9D4 /* 00003A4E */]
0000307C  602A                     bra        +0x2C /* 000030A8 */
label0000307E:
0000307E  41EE FFEA                lea.l      A0, [A6 - 0x16]
00003082  43EE FFF6                lea.l      A1, [A6 - 0xA]
00003086  20D9                     move.l     [A0]+, [A1]+
00003088  20D9                     move.l     [A0]+, [A1]+
0000308A  3091                     move.w     [A0], [A1]
0000308C  0A2E 0080 FFEA           xori.b     [A6 - 0x16], 0x80
00003092  41EE FFF6                lea.l      A0, [A6 - 0xA]
00003096  43EE FFEA                lea.l      A1, [A6 - 0x16]
0000309A  20D9                     move.l     [A0]+, [A1]+
0000309C  20D9                     move.l     [A0]+, [A1]+
0000309E  3091                     move.w     [A0], [A1]
000030A0  486E FFF6                pea.l      [A6 - 0xA]
000030A4  4EBA 0938                jsr        [PC + 0x938 /* 000039DE */]
label000030A8:
000030A8  4E5E                     unlink     A6
000030AA  4E75                     rts
export_331:
000030AC  4E56 0000                link       A6, 0
000030B0  4267                     clr.w      -[A7]
000030B2  4EAD 1472                jsr        [A5 + 0x1472 /* export_650, CODE:13 @ 000016BC */]
000030B6  101F                     move.b     D0, [A7]+
000030B8  0A00 0001                xori.b     D0, 0x1
000030BC  1F00                     move.b     -[A7], D0
000030BE  4EBA 0946                jsr        [PC + 0x946 /* 00003A06 */]
000030C2  4E5E                     unlink     A6
000030C4  4E75                     rts
export_332:
000030C6  4E56 FFFE                link       A6, -0x0002
000030CA  48E7 1108                movem.l    -[A7], D3,D7,A4
000030CE  7040                     moveq.l    D0, 0x40
000030D0  B06D C210                cmp.w      D0, [A5 - 0x3DF0]
000030D4  6F0E                     ble        +0x10 /* 000030E4 */
000030D6  526D C210                addq.w     [A5 - 0x3DF0], 1
000030DA  3D6D C210 0008           move.w     [A6 + 0x8], [A5 - 0x3DF0]
000030E0  6000 00C2                bra        +0xC4 /* 000031A4 */
label000030E4:
000030E4  7E01                     moveq.l    D7, 0x01
000030E6  601C                     bra        +0x1E /* 00003104 */
label000030E8:
000030E8  3007                     move.w     D0, D7
000030EA  5340                     subq.w     D0, 1
000030EC  41ED C212                lea.l      A0, [A5 - 0x3DEE]
000030F0  C1FC 002C                muls.w     D0, 0x2C /* ',' */
000030F4  4A30 0000                tst.b      [A0 + D0.w]
000030F8  6608                     bne        +0xA /* 00003102 */
000030FA  3D47 0008                move.w     [A6 + 0x8], D7
000030FE  6000 00A4                bra        +0xA6 /* 000031A4 */
label00003102:
00003102  5247                     addq.w     D7, 1
label00003104:
00003104  7040                     moveq.l    D0, 0x40
00003106  B047                     cmp.w      D0, D7
00003108  6CDE                     bge        -0x20 /* 000030E8 */
0000310A  4267                     clr.w      -[A7]
0000310C  A861                     syscall    Random
0000310E  301F                     move.w     D0, [A7]+
00003110  6A02                     bpl        +0x4 /* 00003114 */
00003112  4440                     neg.w      D0
label00003114:
00003114  48C0                     ext.l      D0
00003116  81FC 0040                divs.w     D0, 0x40 /* '@' */
0000311A  4840                     swap.w     D0
0000311C  4A40                     tst.w      D0
0000311E  5240                     addq.w     D0, 1
00003120  3B40 C20E                move.w     [A5 - 0x3DF2], D0
00003124  7E01                     moveq.l    D7, 0x01
00003126  606A                     bra        +0x6C /* 00003192 */
label00003128:
00003128  526D C20E                addq.w     [A5 - 0x3DF2], 1
0000312C  7040                     moveq.l    D0, 0x40
0000312E  B06D C20E                cmp.w      D0, [A5 - 0x3DF2]
00003132  6C06                     bge        +0x8 /* 0000313A */
00003134  3B7C 0001 C20E           move.w     [A5 - 0x3DF2], 0x1
label0000313A:
0000313A  302D C20E                move.w     D0, [A5 - 0x3DF2]
0000313E  5340                     subq.w     D0, 1
00003140  41ED C212                lea.l      A0, [A5 - 0x3DEE]
00003144  C1FC 002C                muls.w     D0, 0x2C /* ',' */
00003148  49F0 0000                lea.l      A4, [A0 + D0.w]
0000314C  4A6C 001C                tst.w      [A4 + 0x1C]
00003150  57C0                     seq        D0
00003152  4A00                     tst.b      D0
00003154  673A                     beq        +0x3C /* 00003190 */
00003156  7204                     moveq.l    D1, 0x04
00003158  B214                     cmp.b      D1, [A4]
0000315A  56C1                     sne        D1
0000315C  4A01                     tst.b      D1
0000315E  6620                     bne        +0x22 /* 00003180 */
00003160  242C 0002                move.l     D2, [A4 + 0x2]
00003164  B4AD F4F0                cmp.l      D2, [A5 - 0xB10]
00003168  56C2                     sne        D2
0000316A  4A02                     tst.b      D2
0000316C  6722                     beq        +0x24 /* 00003190 */
0000316E  262C 0002                move.l     D3, [A4 + 0x2]
00003172  B6AD F4E0                cmp.l      D3, [A5 - 0xB20]
00003176  56C3                     sne        D3
00003178  C403                     and.b      D2, D3
0000317A  8202                     or.b       D1, D2
0000317C  C001                     and.b      D0, D1
0000317E  6710                     beq        +0x12 /* 00003190 */
label00003180:
00003180  3F2D C20E                move.w     -[A7], [A5 - 0x3DF2]
00003184  4EAD 10B2                jsr        [A5 + 0x10B2 /* export_530, CODE:9 @ 00004812 */]
00003188  3D6D C20E 0008           move.w     [A6 + 0x8], [A5 - 0x3DF2]
0000318E  6014                     bra        +0x16 /* 000031A4 */
label00003190:
00003190  5247                     addq.w     D7, 1
label00003192:
00003192  7040                     moveq.l    D0, 0x40
00003194  B047                     cmp.w      D0, D7
00003196  6C90                     bge        -0x6E /* 00003128 */
00003198  426E 0008                clr.w      [A6 + 0x8]
0000319C  3F3C 004B                move.w     -[A7], 0x4B /* 'K' */
000031A0  4EBA D9B6                jsr        [PC - 0x264A /* 00000B58 */]
label000031A4:
000031A4  4CDF 1088                movem.l    D3,D7,A4, [A7]+
000031A8  4E5E                     unlink     A6
000031AA  4E75                     rts
export_333:
fn000031AC:
000031AC  4E56 FFDE                link       A6, -0x0022
000031B0  48E7 0118                movem.l    -[A7], D7,A3,A4
000031B4  206E 0008                movea.l    A0, [A6 + 0x8]
000031B8  43EE FFE0                lea.l      A1, [A6 - 0x20]
000031BC  7007                     moveq.l    D0, 0x07
label000031BE:
000031BE  22D8                     move.l     [A1]+, [A0]+
000031C0  51C8 FFFC                dbf        D0, -0x6 /* 000031BE */
000031C4  266E 000C                movea.l    A3, [A6 + 0xC]
000031C8  284B                     movea.l    A4, A3
000031CA  4A6C 0002                tst.w      [A4 + 0x2]
000031CE  6F18                     ble        +0x1A /* 000031E8 */
000031D0  4267                     clr.w      -[A7]
000031D2  2F0B                     move.l     -[A7], A3
000031D4  486E FFE0                pea.l      [A6 - 0x20]
000031D8  4EAD 1082                jsr        [A5 + 0x1082 /* export_524, CODE:9 @ 00004558 */]
000031DC  3E1F                     move.w     D7, [A7]+
000031DE  4A47                     tst.w      D7
000031E0  6706                     beq        +0x8 /* 000031E8 */
000031E2  3D47 0010                move.w     [A6 + 0x10], D7
000031E6  601A                     bra        +0x1C /* 00003202 */
label000031E8:
000031E8  2F0B                     move.l     -[A7], A3
000031EA  3F3C 0001                move.w     -[A7], 0x1
000031EE  4EBA FCDC                jsr        [PC - 0x324 /* 00002ECC */]
000031F2  3D54 0010                move.w     [A6 + 0x10], [A4]
000031F6  2F0B                     move.l     -[A7], A3
000031F8  3F14                     move.w     -[A7], [A4]
000031FA  486E FFE0                pea.l      [A6 - 0x20]
000031FE  4EBA 205C                jsr        [PC + 0x205C /* 0000525C */]
label00003202:
00003202  4CDF 1880                movem.l    D7,A3,A4, [A7]+
00003206  4E5E                     unlink     A6
00003208  205F                     movea.l    A0, [A7]+
0000320A  504F                     addq.w     A7, 8
0000320C  4ED0                     jmp        [A0]
fn0000320E:
0000320E  4E56 0000                link       A6, 0
00003212  206D D470                movea.l    A0, [A5 - 0x2B90]
00003216  2050                     movea.l    A0, [A0]
00003218  302E 0008                move.w     D0, [A6 + 0x8]
0000321C  48C0                     ext.l      D0
0000321E  D090                     add.l      D0, [A0]
00003220  2D40 000A                move.l     [A6 + 0xA], D0
00003224  4E5E                     unlink     A6
00003226  205F                     movea.l    A0, [A7]+
00003228  544F                     addq.w     A7, 2
0000322A  4ED0                     jmp        [A0]
export_334:
0000322C  4E56 FDCC                link       A6, -0x0234
00003230  486E FDCC                pea.l      [A6 - 0x234]
00003234  2F2E 0008                move.l     -[A7], [A6 + 0x8]
00003238  4EAD 1FEA                jsr        [A5 + 0x1FEA /* export_1017, CODE:19 @ 0000235A */]
0000323C  205F                     movea.l    A0, [A7]+
0000323E  43EE FF00                lea.l      A1, [A6 - 0x100]
00003242  703F                     moveq.l    D0, 0x3F
label00003244:
00003244  22D8                     move.l     [A1]+, [A0]+
00003246  51C8 FFFC                dbf        D0, -0x6 /* 00003244 */
0000324A  486E FECC                pea.l      [A6 - 0x134]
0000324E  7034                     moveq.l    D0, 0x34
00003250  2F00                     move.l     -[A7], D0
00003252  4EAD 1B42                jsr        [A5 + 0x1B42 /* export_868, CODE:16 @ 00001E7C */]
00003256  2D7C 4552 494B FEE8      move.l     [A6 - 0x118], 0x4552494B /* 'ERIK' */
0000325E  7002                     moveq.l    D0, 0x02
00003260  2D40 FEFC                move.l     [A6 - 0x104], D0
00003264  4267                     clr.w      -[A7]
00003266  486E FECC                pea.l      [A6 - 0x134]
0000326A  4267                     clr.w      -[A7]
0000326C  4EAD 0372                jsr        [A5 + 0x372 /* export_106, CODE:1 @ 00004B18 */]
00003270  4A5F                     tst.w      [A7]+
00003272  6616                     bne        +0x18 /* 0000328A */
00003274  4267                     clr.w      -[A7]
00003276  486E FF00                pea.l      [A6 - 0x100]
0000327A  3F2E FEE2                move.w     -[A7], [A6 - 0x11E]
0000327E  1F3C 0001                move.b     -[A7], 0x1
00003282  A9C4                     syscall    OpenRFPerm
00003284  3D5F 000C                move.w     [A6 + 0xC], [A7]+
00003288  6006                     bra        +0x8 /* 00003290 */
label0000328A:
0000328A  3D7C FFFF 000C           move.w     [A6 + 0xC], 0xFFFF
label00003290:
00003290  4E5E                     unlink     A6
00003292  2E9F                     move.l     [A7], [A7]+
00003294  4E75                     rts
export_335:
fn00003296:
00003296  4E56 FFE4                link       A6, -0x001C
0000329A  48E7 0108                movem.l    -[A7], D7,A4
0000329E  422E 0008                clr.b      [A6 + 0x8]
000032A2  286D D470                movea.l    A4, [A5 - 0x2B90]
000032A6  4EAD 1192                jsr        [A5 + 0x1192 /* export_558, CODE:10 @ 00001268 */]
000032AA  2F2D B66C                move.l     -[A7], [A5 - 0x4994]
000032AE  4EAD 0222                jsr        [A5 + 0x222 /* export_64, CODE:1 @ 00004678 */]
000032B2  42A7                     clr.l      -[A7]
000032B4  4267                     clr.w      -[A7]
000032B6  4EBA CEC2                jsr        [PC - 0x313E /* 0000017A */]
000032BA  302D B978                move.w     D0, [A5 - 0x4688]
000032BE  5340                     subq.w     D0, 1
000032C0  41ED B6F8                lea.l      A0, [A5 - 0x4908]
000032C4  E540                     asl        D0.w, 2
000032C6  2F30 0000                move.l     -[A7], [A0 + D0.w]
000032CA  486E FFEA                pea.l      [A6 - 0x16]
000032CE  4EBA 03A6                jsr        [PC + 0x3A6 /* 00003676 */]
000032D2  2F2D B66C                move.l     -[A7], [A5 - 0x4994]
000032D6  4EAD 022A                jsr        [A5 + 0x22A /* export_65, CODE:1 @ 00004682 */]
000032DA  486E FFEA                pea.l      [A6 - 0x16]
000032DE  1F3C 0001                move.b     -[A7], 0x1
000032E2  4EBA 0F3E                jsr        [PC + 0xF3E /* 00004222 */]
000032E6  4EAD 1432                jsr        [A5 + 0x1432 /* export_642, CODE:13 @ 000010F2 */]
000032EA  102D B10D                move.b     D0, [A5 - 0x4EF3]
000032EE  6714                     beq        +0x16 /* 00003304 */
000032F0  4267                     clr.w      -[A7]
000032F2  206D D450                movea.l    A0, [A5 - 0x2BB0]
000032F6  2050                     movea.l    A0, [A0]
000032F8  3F28 01A2                move.w     -[A7], [A0 + 0x1A2]
000032FC  4EBA CFB4                jsr        [PC - 0x304C /* 000002B2 */]
00003300  1E1F                     move.b     D7, [A7]+
00003302  6012                     bra        +0x14 /* 00003316 */
label00003304:
00003304  4267                     clr.w      -[A7]
00003306  206D D450                movea.l    A0, [A5 - 0x2BB0]
0000330A  2050                     movea.l    A0, [A0]
0000330C  3F28 01A0                move.w     -[A7], [A0 + 0x1A0]
00003310  4EBA CFA0                jsr        [PC - 0x3060 /* 000002B2 */]
00003314  1E1F                     move.b     D7, [A7]+
label00003316:
00003316  1007                     move.b     D0, D7
00003318  6714                     beq        +0x16 /* 0000332E */
0000331A  7002                     moveq.l    D0, 0x02
0000331C  B02D D46A                cmp.b      D0, [A5 - 0x2B96]
00003320  6608                     bne        +0xA /* 0000332A */
00003322  1D7C 0001 0008           move.b     [A6 + 0x8], 0x1
00003328  6004                     bra        +0x6 /* 0000332E */
label0000332A:
0000332A  4EAD 1432                jsr        [A5 + 0x1432 /* export_642, CODE:13 @ 000010F2 */]
label0000332E:
0000332E  486E FFEA                pea.l      [A6 - 0x16]
00003332  4EBA DB2E                jsr        [PC - 0x24D2 /* 00000E62 */]
00003336  2F0C                     move.l     -[A7], A4
00003338  4267                     clr.w      -[A7]
0000333A  4EBA 0EE6                jsr        [PC + 0xEE6 /* 00004222 */]
0000333E  4CDF 1080                movem.l    D7,A4, [A7]+
00003342  4E5E                     unlink     A6
00003344  4E75                     rts
fn00003346:
00003346  4E56 FE00                link       A6, -0x0200
0000334A  206E 0008                movea.l    A0, [A6 + 0x8]
0000334E  3F28 FFFA                move.w     -[A7], [A0 - 0x6]
00003352  4EBA 0F4E                jsr        [PC + 0xF4E /* 000042A2 */]
00003356  486E FE00                pea.l      [A6 - 0x200]
0000335A  4EBA 1A7C                jsr        [PC + 0x1A7C /* 00004DD8 */]
0000335E  205F                     movea.l    A0, [A7]+
00003360  43EE FF00                lea.l      A1, [A6 - 0x100]
00003364  703F                     moveq.l    D0, 0x3F
label00003366:
00003366  22D8                     move.l     [A1]+, [A0]+
00003368  51C8 FFFC                dbf        D0, -0x6 /* 00003366 */
0000336C  4EBA CD72                jsr        [PC - 0x328E /* 000000E0 */]
00003370  102E 000C                move.b     D0, [A6 + 0xC]
00003374  670E                     beq        +0x10 /* 00003384 */
00003376  3F3C 004E                move.w     -[A7], 0x4E /* 'N' */
0000337A  486E FF00                pea.l      [A6 - 0x100]
0000337E  4EBA D732                jsr        [PC - 0x28CE /* 00000AB2 */]
00003382  600C                     bra        +0xE /* 00003390 */
label00003384:
00003384  3F3C 0035                move.w     -[A7], 0x35 /* '5' */
00003388  486E FF00                pea.l      [A6 - 0x100]
0000338C  4EBA D724                jsr        [PC - 0x28DC /* 00000AB2 */]
label00003390:
00003390  4E5E                     unlink     A6
00003392  205F                     movea.l    A0, [A7]+
00003394  5C4F                     addq.w     A7, 6
00003396  4ED0                     jmp        [A0]
export_336:
fn00003398:
00003398  4E56 FFFA                link       A6, -0x0006
0000339C  422E 0008                clr.b      [A6 + 0x8]
000033A0  102D D46B                move.b     D0, [A5 - 0x2B95]
000033A4  4880                     ext.w      D0
000033A6  3D40 FFFE                move.w     [A6 - 0x2], D0
000033AA  206D D470                movea.l    A0, [A5 - 0x2B90]
000033AE  3D68 0008 FFFA           move.w     [A6 - 0x6], [A0 + 0x8]
000033B4  206D D470                movea.l    A0, [A5 - 0x2B90]
000033B8  4268 000A                clr.w      [A0 + 0xA]
000033BC  4EBA CD22                jsr        [PC - 0x32DE /* 000000E0 */]
000033C0  206D D450                movea.l    A0, [A5 - 0x2BB0]
000033C4  2050                     movea.l    A0, [A0]
000033C6  302E FFFE                move.w     D0, [A6 - 0x2]
000033CA  D040                     add.w      D0, D0
000033CC  3D70 00FE FFFC           move.w     [A6 - 0x4], [A0 + D0.w - 0x2]
000033D2  4267                     clr.w      -[A7]
000033D4  3F2E FFFC                move.w     -[A7], [A6 - 0x4]
000033D8  4EBA CED8                jsr        [PC - 0x3128 /* 000002B2 */]
000033DC  101F                     move.b     D0, [A7]+
000033DE  6728                     beq        +0x2A /* 00003408 */
000033E0  122D AAE3                move.b     D1, [A5 - 0x551D]
000033E4  0A01 0001                xori.b     D1, 0x1
000033E8  C001                     and.b      D0, D1
000033EA  671C                     beq        +0x1E /* 00003408 */
000033EC  7002                     moveq.l    D0, 0x02
000033EE  B02D D46A                cmp.b      D0, [A5 - 0x2B96]
000033F2  6608                     bne        +0xA /* 000033FC */
000033F4  1D7C 0001 0008           move.b     [A6 + 0x8], 0x1
000033FA  6014                     bra        +0x16 /* 00003410 */
label000033FC:
000033FC  1F3C 0001                move.b     -[A7], 0x1
00003400  2F0E                     move.l     -[A7], A6
00003402  4EBA FF42                jsr        [PC - 0xBE /* 00003346 */]
00003406  6008                     bra        +0xA /* 00003410 */
label00003408:
00003408  4267                     clr.w      -[A7]
0000340A  2F0E                     move.l     -[A7], A6
0000340C  4EBA FF38                jsr        [PC - 0xC8 /* 00003346 */]
label00003410:
00003410  4E5E                     unlink     A6
00003412  4E75                     rts
fn00003414:
00003414  4E56 FE8C                link       A6, -0x0174
00003418  48E7 0018                movem.l    -[A7], A3,A4
0000341C  266E 0008                movea.l    A3, [A6 + 0x8]
00003420  286B 000A                movea.l    A4, [A3 + 0xA]
00003424  202C 0002                move.l     D0, [A4 + 0x2]
00003428  B0AD F62A                cmp.l      D0, [A5 - 0x9D6]
0000342C  661C                     bne        +0x1E /* 0000344A */
0000342E  486E FEA0                pea.l      [A6 - 0x160]
00003432  3F3C 001C                move.w     -[A7], 0x1C
00003436  4EBA DBB8                jsr        [PC - 0x2448 /* 00000FF0 */]
0000343A  205F                     movea.l    A0, [A7]+
0000343C  43EE FFE0                lea.l      A1, [A6 - 0x20]
00003440  7007                     moveq.l    D0, 0x07
label00003442:
00003442  22D8                     move.l     [A1]+, [A0]+
00003444  51C8 FFFC                dbf        D0, -0x6 /* 00003442 */
00003448  602A                     bra        +0x2C /* 00003474 */
label0000344A:
0000344A  202C 0002                move.l     D0, [A4 + 0x2]
0000344E  B0AD F622                cmp.l      D0, [A5 - 0x9DE]
00003452  661C                     bne        +0x1E /* 00003470 */
00003454  486E FEA0                pea.l      [A6 - 0x160]
00003458  3F3C 001D                move.w     -[A7], 0x1D
0000345C  4EBA DB92                jsr        [PC - 0x246E /* 00000FF0 */]
00003460  205F                     movea.l    A0, [A7]+
00003462  43EE FFE0                lea.l      A1, [A6 - 0x20]
00003466  7007                     moveq.l    D0, 0x07
label00003468:
00003468  22D8                     move.l     [A1]+, [A0]+
0000346A  51C8 FFFC                dbf        D0, -0x6 /* 00003468 */
0000346E  6004                     bra        +0x6 /* 00003474 */
label00003470:
00003470  422E FFE0                clr.b      [A6 - 0x20]
label00003474:
00003474  7002                     moveq.l    D0, 0x02
00003476  B054                     cmp.w      D0, [A4]
00003478  661C                     bne        +0x1E /* 00003496 */
0000347A  486E FEA0                pea.l      [A6 - 0x160]
0000347E  3F3C 001B                move.w     -[A7], 0x1B
00003482  4EBA DB6C                jsr        [PC - 0x2494 /* 00000FF0 */]
00003486  205F                     movea.l    A0, [A7]+
00003488  43EE FFA0                lea.l      A1, [A6 - 0x60]
0000348C  7007                     moveq.l    D0, 0x07
label0000348E:
0000348E  22D8                     move.l     [A1]+, [A0]+
00003490  51C8 FFFC                dbf        D0, -0x6 /* 0000348E */
00003494  6020                     bra        +0x22 /* 000034B6 */
label00003496:
00003496  7001                     moveq.l    D0, 0x01
00003498  B054                     cmp.w      D0, [A4]
0000349A  661A                     bne        +0x1C /* 000034B6 */
0000349C  486E FEA0                pea.l      [A6 - 0x160]
000034A0  3F3C 001A                move.w     -[A7], 0x1A
000034A4  4EBA DB4A                jsr        [PC - 0x24B6 /* 00000FF0 */]
000034A8  205F                     movea.l    A0, [A7]+
000034AA  43EE FFA0                lea.l      A1, [A6 - 0x60]
000034AE  7007                     moveq.l    D0, 0x07
label000034B0:
000034B0  22D8                     move.l     [A1]+, [A0]+
000034B2  51C8 FFFC                dbf        D0, -0x6 /* 000034B0 */
label000034B6:
000034B6  7001                     moveq.l    D0, 0x01
000034B8  B02C 000E                cmp.b      D0, [A4 + 0xE]
000034BC  6622                     bne        +0x24 /* 000034E0 */
000034BE  377C 0014 FFFE           move.w     [A3 - 0x2], 0x14
000034C4  486E FE8C                pea.l      [A6 - 0x174]
000034C8  2F2C 0010                move.l     -[A7], [A4 + 0x10]
000034CC  4EAD 1902                jsr        [A5 + 0x1902 /* export_796, CODE:16 @ 000009D4 */]
000034D0  205F                     movea.l    A0, [A7]+
000034D2  43EE FFC0                lea.l      A1, [A6 - 0x40]
000034D6  7004                     moveq.l    D0, 0x04
label000034D8:
000034D8  22D8                     move.l     [A1]+, [A0]+
000034DA  51C8 FFFC                dbf        D0, -0x6 /* 000034D8 */
000034DE  604A                     bra        +0x4C /* 0000352A */
label000034E0:
000034E0  4A2C 000E                tst.b      [A4 + 0xE]
000034E4  6618                     bne        +0x1A /* 000034FE */
000034E6  377C 004F FFFE           move.w     [A3 - 0x2], 0x4F /* 'O' */
000034EC  41EE FFC0                lea.l      A0, [A6 - 0x40]
000034F0  43EC 0010                lea.l      A1, [A4 + 0x10]
000034F4  7007                     moveq.l    D0, 0x07
label000034F6:
000034F6  20D9                     move.l     [A0]+, [A1]+
000034F8  51C8 FFFC                dbf        D0, -0x6 /* 000034F6 */
000034FC  602C                     bra        +0x2E /* 0000352A */
label000034FE:
000034FE  7002                     moveq.l    D0, 0x02
00003500  B02C 000E                cmp.b      D0, [A4 + 0xE]
00003504  6624                     bne        +0x26 /* 0000352A */
00003506  377C 0019 FFFE           move.w     [A3 - 0x2], 0x19
0000350C  486E FE8C                pea.l      [A6 - 0x174]
00003510  302C 0010                move.w     D0, [A4 + 0x10]
00003514  48C0                     ext.l      D0
00003516  2F00                     move.l     -[A7], D0
00003518  4EAD 18B2                jsr        [A5 + 0x18B2 /* export_786, CODE:16 @ 00000738 */]
0000351C  205F                     movea.l    A0, [A7]+
0000351E  43EE FFC0                lea.l      A1, [A6 - 0x40]
00003522  7004                     moveq.l    D0, 0x04
label00003524:
00003524  22D8                     move.l     [A1]+, [A0]+
00003526  51C8 FFFC                dbf        D0, -0x6 /* 00003524 */
label0000352A:
0000352A  486E FFE0                pea.l      [A6 - 0x20]
0000352E  486E FFA0                pea.l      [A6 - 0x60]
00003532  486E FFC0                pea.l      [A6 - 0x40]
00003536  487A 0018                pea.l      [PC + 0x18 /* 00003550, value 0x4E56 'NV', cstring "" */]
0000353A  4EBA FA88                jsr        [PC - 0x578 /* 00002FC4 */]
0000353E  3F2B FFFE                move.w     -[A7], [A3 - 0x2]
00003542  4EBA D614                jsr        [PC - 0x29EC /* 00000B58 */]
00003546  4CDF 1800                movem.l    A3,A4, [A7]+
0000354A  4E5E                     unlink     A6
0000354C  2E9F                     move.l     [A7], [A7]+
0000354E  4E75                     rts
00003550  0000 4E56                ori.b      D0, 0x56 /* 'V' */
// begin alternate branch 00003552-00003556
export_337:
fn00003552:
00003552  4E56 FFDA                link       A6, -0x0026
// end alternate branch 00003552-00003556
export_337: // at 00003552 (misaligned)
fn00003552: // (misaligned)
00003554  FFDA                     .invalid   <<F/7/7>>
00003556  48E7 0308                movem.l    -[A7], D6,D7,A4
0000355A  286E 000A                movea.l    A4, [A6 + 0xA]
0000355E  4247                     clr.w      D7
00003560  102C 000E                move.b     D0, [A4 + 0xE]
00003564  4880                     ext.w      D0
00003566  676C                     beq        +0x6E /* 000035D4 */
00003568  5340                     subq.w     D0, 1
0000356A  6730                     beq        +0x32 /* 0000359C */
0000356C  5340                     subq.w     D0, 1
0000356E  6702                     beq        +0x4 /* 00003572 */
00003570  6076                     bra        +0x78 /* 000035E8 */
label00003572:
00003572  4267                     clr.w      -[A7]
00003574  2F2C 0002                move.l     -[A7], [A4 + 0x2]
00003578  3F2C 0010                move.w     -[A7], [A4 + 0x10]
0000357C  486E FFDA                pea.l      [A6 - 0x26]
00003580  4EAD 1DB2                jsr        [A5 + 0x1DB2 /* export_946, CODE:18 @ 00000D08 */]
00003584  101F                     move.b     D0, [A7]+
00003586  6712                     beq        +0x14 /* 0000359A */
00003588  122E FFDE                move.b     D1, [A6 - 0x22]
0000358C  4881                     ext.w      D1
0000358E  B254                     cmp.w      D1, [A4]
00003590  57C1                     seq        D1
00003592  C001                     and.b      D0, D1
00003594  6704                     beq        +0x6 /* 0000359A */
00003596  3E2C 0010                move.w     D7, [A4 + 0x10]
label0000359A:
0000359A  6056                     bra        +0x58 /* 000035F2 */
label0000359C:
0000359C  2C2C 0010                move.l     D6, [A4 + 0x10]
000035A0  70FF                     moveq.l    D0, 0xFFFFFFFF
000035A2  B086                     cmp.l      D0, D6
000035A4  6F1C                     ble        +0x1E /* 000035C2 */
000035A6  42A7                     clr.l      -[A7]
000035A8  2F06                     move.l     -[A7], D6
000035AA  4267                     clr.w      -[A7]
000035AC  2F2C 0002                move.l     -[A7], [A4 + 0x2]
000035B0  3F14                     move.w     -[A7], [A4]
000035B2  4EAD 1D32                jsr        [A5 + 0x1D32 /* export_930, CODE:18 @ 0000012E */]
000035B6  301F                     move.w     D0, [A7]+
000035B8  48C0                     ext.l      D0
000035BA  2F00                     move.l     -[A7], D0
000035BC  4EAD 205A                jsr        [A5 + 0x205A /* export_1031, CODE:20 @ 00000BA4 */]
000035C0  2C1F                     move.l     D6, [A7]+
label000035C2:
000035C2  4267                     clr.w      -[A7]
000035C4  2F2C 0002                move.l     -[A7], [A4 + 0x2]
000035C8  3F06                     move.w     -[A7], D6
000035CA  3F14                     move.w     -[A7], [A4]
000035CC  4EAD 1DBA                jsr        [A5 + 0x1DBA /* export_947, CODE:18 @ 00000D64 */]
000035D0  3E1F                     move.w     D7, [A7]+
000035D2  601E                     bra        +0x20 /* 000035F2 */
label000035D4:
000035D4  4267                     clr.w      -[A7]
000035D6  2F2C 0002                move.l     -[A7], [A4 + 0x2]
000035DA  3F14                     move.w     -[A7], [A4]
000035DC  486C 0010                pea.l      [A4 + 0x10]
000035E0  4EAD 1E2A                jsr        [A5 + 0x1E2A /* export_961, CODE:18 @ 0000215E */]
000035E4  3E1F                     move.w     D7, [A7]+
000035E6  600A                     bra        +0xC /* 000035F2 */
label000035E8:
000035E8  2F3C 0000 178E           move.l     -[A7], 0x178E
000035EE  4EAD 185A                jsr        [A5 + 0x185A /* export_775, CODE:16 @ 0000042E */]
label000035F2:
000035F2  3D47 000E                move.w     [A6 + 0xE], D7
000035F6  102E 0008                move.b     D0, [A6 + 0x8]
000035FA  6702                     beq        +0x4 /* 000035FE */
000035FC  600A                     bra        +0xC /* 00003608 */
label000035FE:
000035FE  4A47                     tst.w      D7
00003600  6606                     bne        +0x8 /* 00003608 */
00003602  2F0E                     move.l     -[A7], A6
00003604  4EBA FE0E                jsr        [PC - 0x1F2 /* 00003414 */]
label00003608:
00003608  4CDF 10C0                movem.l    D6,D7,A4, [A7]+
0000360C  4E5E                     unlink     A6
0000360E  205F                     movea.l    A0, [A7]+
00003610  5C4F                     addq.w     A7, 6
00003612  4ED0                     jmp        [A0]
export_338:
fn00003614:
00003614  4E56 FFA4                link       A6, -0x005C
00003618  422D A377                clr.b      [A5 - 0x5C89]
0000361C  1D7C 0001 000C           move.b     [A6 + 0xC], 0x1
00003622  202E 0008                move.l     D0, [A6 + 0x8]
00003626  B0AD F4E0                cmp.l      D0, [A5 - 0xB20]
0000362A  6602                     bne        +0x4 /* 0000362E */
0000362C  6042                     bra        +0x44 /* 00003670 */
label0000362E:
0000362E  486D A31A                pea.l      [A5 - 0x5CE6]
00003632  4EAD 179A                jsr        [A5 + 0x179A /* export_751, CODE:15 @ 000063EC */]
00003636  1D7C 0001 FFA4           move.b     [A6 - 0x5C], 0x1
0000363C  7001                     moveq.l    D0, 0x01
0000363E  2D40 FFAA                move.l     [A6 - 0x56], D0
00003642  1D7C 0005 FFD0           move.b     [A6 - 0x30], 0x5
00003648  2D6E 0008 FFFC           move.l     [A6 - 0x4], [A6 + 0x8]
0000364E  4267                     clr.w      -[A7]
00003650  486E FFA4                pea.l      [A6 - 0x5C]
00003654  4EAD 2042                jsr        [A5 + 0x2042 /* export_1028, CODE:20 @ 00000472 */]
00003658  101F                     move.b     D0, [A7]+
0000365A  6708                     beq        +0xA /* 00003664 */
0000365C  1B7C 0001 A377           move.b     [A5 - 0x5C89], 0x1
00003662  600C                     bra        +0xE /* 00003670 */
label00003664:
00003664  422E 000C                clr.b      [A6 + 0xC]
00003668  4EAD 1812                jsr        [A5 + 0x1812 /* export_766, CODE:16 @ 00000208 */]
0000366C  4EAD 192A                jsr        [A5 + 0x192A /* export_801, CODE:16 @ 00000C2C */]
label00003670:
00003670  4E5E                     unlink     A6
00003672  2E9F                     move.l     [A7], [A7]+
00003674  4E75                     rts
export_339:
fn00003676:
00003676  4E56 FFFC                link       A6, -0x0004
0000367A  206E 0008                movea.l    A0, [A6 + 0x8]
0000367E  117C 0001 0010           move.b     [A0 + 0x10], 0x1
00003684  4267                     clr.w      -[A7]
00003686  2F2E 0010                move.l     -[A7], [A6 + 0x10]
0000368A  486E FFFC                pea.l      [A6 - 0x4]
0000368E  202E 000C                move.l     D0, [A6 + 0xC]
00003692  5280                     addq.l     D0, 1
00003694  2F00                     move.l     -[A7], D0
00003696  4EAD 046A                jsr        [A5 + 0x46A /* export_137, CODE:1 @ 00004DD2 */]
0000369A  4A5F                     tst.w      [A7]+
0000369C  671E                     beq        +0x20 /* 000036BC */
0000369E  3F3C 002D                move.w     -[A7], 0x2D /* '-' */
000036A2  4EBA D4B4                jsr        [PC - 0x2B4C /* 00000B58 */]
000036A6  42A7                     clr.l      -[A7]
000036A8  7001                     moveq.l    D0, 0x01
000036AA  2F00                     move.l     -[A7], D0
000036AC  4EAD 18DA                jsr        [A5 + 0x18DA /* export_791, CODE:16 @ 00000896 */]
000036B0  2D5F FFFC                move.l     [A6 - 0x4], [A7]+
000036B4  206E FFFC                movea.l    A0, [A6 - 0x4]
000036B8  2050                     movea.l    A0, [A0]
000036BA  4210                     clr.b      [A0]
label000036BC:
000036BC  2F2E 0008                move.l     -[A7], [A6 + 0x8]
000036C0  2F2E FFFC                move.l     -[A7], [A6 - 0x4]
000036C4  4EBA DC7E                jsr        [PC - 0x2382 /* 00001344 */]
000036C8  4E5E                     unlink     A6
000036CA  205F                     movea.l    A0, [A7]+
000036CC  DEFC 000C                add.w      A7, 0xC
000036D0  4ED0                     jmp        [A0]
export_340:
fn000036D2:
000036D2  4E56 FFF8                link       A6, -0x0008
000036D6  48E7 0308                movem.l    -[A7], D6,D7,A4
000036DA  2E2E 000A                move.l     D7, [A6 + 0xA]
000036DE  0C6D 0080 B978           cmpi.w     [A5 - 0x4688], 0x80
000036E4  6D0C                     blt        +0xE /* 000036F2 */
000036E6  3F3C 0051                move.w     -[A7], 0x51 /* 'Q' */
000036EA  4EBA D46C                jsr        [PC - 0x2B94 /* 00000B58 */]
000036EE  6000 00AA                bra        +0xAC /* 0000379A */
label000036F2:
000036F2  526D B978                addq.w     [A5 - 0x4688], 1
000036F6  1007                     move.b     D0, D7
000036F8  0240 0001                andi.w     D0, 0x1
000036FC  6702                     beq        +0x4 /* 00003700 */
000036FE  5287                     addq.l     D7, 1
label00003700:
00003700  BEAD B670                cmp.l      D7, [A5 - 0x4990]
00003704  6F42                     ble        +0x44 /* 00003748 */
00003706  2C07                     move.l     D6, D7
00003708  DCBC 0000 07D0           add.l      D6, 0x7D0
0000370E  2F2D B66C                move.l     -[A7], [A5 - 0x4994]
00003712  2006                     move.l     D0, D6
00003714  D0AD B674                add.l      D0, [A5 - 0x498C]
00003718  2F00                     move.l     -[A7], D0
0000371A  4EAD 1982                jsr        [A5 + 0x1982 /* export_812, CODE:16 @ 00000EAC */]
0000371E  4267                     clr.w      -[A7]
00003720  3EB8 0220                move.w     [A7], [0x00000220 /* MemErr */]
00003724  4A5F                     tst.w      [A7]+
00003726  671C                     beq        +0x1E /* 00003744 */
00003728  3F3C 002D                move.w     -[A7], 0x2D /* '-' */
0000372C  4EBA D42A                jsr        [PC - 0x2BD6 /* 00000B58 */]
00003730  302D B978                move.w     D0, [A5 - 0x4688]
00003734  5340                     subq.w     D0, 1
00003736  41ED B6F8                lea.l      A0, [A5 - 0x4908]
0000373A  E540                     asl        D0.w, 2
0000373C  7200                     moveq.l    D1, 0x00
0000373E  2181 0000                move.l     [A0 + D0.w], D1
00003742  6056                     bra        +0x58 /* 0000379A */
label00003744:
00003744  2B46 B670                move.l     [A5 - 0x4990], D6
label00003748:
00003748  302D B978                move.w     D0, [A5 - 0x4688]
0000374C  5340                     subq.w     D0, 1
0000374E  41ED B6F8                lea.l      A0, [A5 - 0x4908]
00003752  E540                     asl        D0.w, 2
00003754  2187 0000                move.l     [A0 + D0.w], D7
00003758  302D B978                move.w     D0, [A5 - 0x4688]
0000375C  5340                     subq.w     D0, 1
0000375E  41ED B678                lea.l      A0, [A5 - 0x4988]
00003762  11AE 0008 0000           move.b     [A0 + D0.w], [A6 + 0x8]
00003768  302D B978                move.w     D0, [A5 - 0x4688]
0000376C  5340                     subq.w     D0, 1
0000376E  41ED B8F8                lea.l      A0, [A5 - 0x4708]
00003772  11BC FF9C 0000           move.b     [A0 + D0.w], 0x9C
00003778  206D B66C                movea.l    A0, [A5 - 0x4994]
0000377C  286D B674                movea.l    A4, [A5 - 0x498C]
00003780  D9D0                     add.l      A4, [A0]
00003782  2F2E 000E                move.l     -[A7], [A6 + 0xE]
00003786  2F0C                     move.l     -[A7], A4
00003788  2F07                     move.l     -[A7], D7
0000378A  4EBA 0E86                jsr        [PC + 0xE86 /* 00004612 */]
0000378E  2007                     move.l     D0, D7
00003790  D1AD B674                add.l      [A5 - 0x498C], D0
00003794  2007                     move.l     D0, D7
00003796  91AD B670                sub.l      [A5 - 0x4990], D0
label0000379A:
0000379A  4CDF 10C0                movem.l    D6,D7,A4, [A7]+
0000379E  4E5E                     unlink     A6
000037A0  205F                     movea.l    A0, [A7]+
000037A2  DEFC 000A                add.w      A7, 0xA /* '\n' */
000037A6  4ED0                     jmp        [A0]
export_341:
000037A8  4E56 0000                link       A6, 0
000037AC  206E 0008                movea.l    A0, [A6 + 0x8]
000037B0  1010                     move.b     D0, [A0]
000037B2  670E                     beq        +0x10 /* 000037C2 */
000037B4  206E 0008                movea.l    A0, [A6 + 0x8]
000037B8  2F28 0002                move.l     -[A7], [A0 + 0x2]
000037BC  4EBA 0290                jsr        [PC + 0x290 /* 00003A4E */]
000037C0  600C                     bra        +0xE /* 000037CE */
label000037C2:
000037C2  206E 0008                movea.l    A0, [A6 + 0x8]
000037C6  4868 0002                pea.l      [A0 + 0x2]
000037CA  4EBA 0212                jsr        [PC + 0x212 /* 000039DE */]
label000037CE:
000037CE  4E5E                     unlink     A6
000037D0  2E9F                     move.l     [A7], [A7]+
000037D2  4E75                     rts
export_342:
000037D4  4E56 0000                link       A6, 0
000037D8  0C6D 0080 A892           cmpi.w     [A5 - 0x576E], 0x80
000037DE  6D0A                     blt        +0xC /* 000037EA */
000037E0  3F3C 0052                move.w     -[A7], 0x52 /* 'R' */
000037E4  4EBA D372                jsr        [PC - 0x2C8E /* 00000B58 */]
000037E8  601A                     bra        +0x1C /* 00003804 */
label000037EA:
000037EA  526D A892                addq.w     [A5 - 0x576E], 1
000037EE  302D A892                move.w     D0, [A5 - 0x576E]
000037F2  5340                     subq.w     D0, 1
000037F4  41ED A812                lea.l      A0, [A5 - 0x57EE]
000037F8  11AE 0008 0000           move.b     [A0 + D0.w], [A6 + 0x8]
000037FE  1B6E 0008 A811           move.b     [A5 - 0x57EF], [A6 + 0x8]
label00003804:
00003804  4E5E                     unlink     A6
00003806  205F                     movea.l    A0, [A7]+
00003808  544F                     addq.w     A7, 2
0000380A  4ED0                     jmp        [A0]
export_343:
fn0000380C:
0000380C  4E56 FDEA                link       A6, -0x0216
00003810  48E7 0F18                movem.l    -[A7], D4,D5,D6,D7,A3,A4
00003814  286E 000A                movea.l    A4, [A6 + 0xA]
00003818  102C 0022                move.b     D0, [A4 + 0x22]
0000381C  4880                     ext.w      D0
0000381E  6724                     beq        +0x26 /* 00003844 */
00003820  5340                     subq.w     D0, 1
00003822  6710                     beq        +0x12 /* 00003834 */
00003824  5340                     subq.w     D0, 1
00003826  6700 011C                beq        +0x11E /* 00003944 */
0000382A  5340                     subq.w     D0, 1
0000382C  6700 0124                beq        +0x126 /* 00003952 */
00003830  6000 0126                bra        +0x128 /* 00003958 */
label00003834:
00003834  2F2D D466                move.l     -[A7], [A5 - 0x2B9A]
00003838  3F2C 0024                move.w     -[A7], [A4 + 0x24]
0000383C  4EBA 1824                jsr        [PC + 0x1824 /* 00005062 */]
00003840  6000 0120                bra        +0x122 /* 00003962 */
label00003844:
00003844  4267                     clr.w      -[A7]
00003846  486C 0024                pea.l      [A4 + 0x24]
0000384A  4267                     clr.w      -[A7]
0000384C  4EBA FD04                jsr        [PC - 0x2FC /* 00003552 */]
00003850  3C1F                     move.w     D6, [A7]+
00003852  4A46                     tst.w      D6
00003854  6608                     bne        +0xA /* 0000385E */
00003856  4EBA 016C                jsr        [PC + 0x16C /* 000039C4 */]
0000385A  6000 0106                bra        +0x108 /* 00003962 */
label0000385E:
0000385E  BC6D E254                cmp.w      D6, [A5 - 0x1DAC]
00003862  57C0                     seq        D0
00003864  222C 0026                move.l     D1, [A4 + 0x26]
00003868  B2AD E24E                cmp.l      D1, [A5 - 0x1DB2]
0000386C  57C1                     seq        D1
0000386E  C001                     and.b      D0, D1
00003870  222C 002E                move.l     D1, [A4 + 0x2E]
00003874  B2AD E24A                cmp.l      D1, [A5 - 0x1DB6]
00003878  57C1                     seq        D1
0000387A  C001                     and.b      D0, D1
0000387C  6772                     beq        +0x74 /* 000038F0 */
0000387E  206D E246                movea.l    A0, [A5 - 0x1DBA]
00003882  2050                     movea.l    A0, [A0]
00003884  3E28 003C                move.w     D7, [A0 + 0x3C]
00003888  42A7                     clr.l      -[A7]
0000388A  3007                     move.w     D0, D7
0000388C  5240                     addq.w     D0, 1
0000388E  48C0                     ext.l      D0
00003890  2F00                     move.l     -[A7], D0
00003892  4EAD 18DA                jsr        [A5 + 0x18DA /* export_791, CODE:16 @ 00000896 */]
00003896  265F                     movea.l    A3, [A7]+
00003898  200B                     move.l     D0, A3
0000389A  660E                     bne        +0x10 /* 000038AA */
0000389C  3F3C 002D                move.w     -[A7], 0x2D /* '-' */
000038A0  4EBA D2B6                jsr        [PC - 0x2D4A /* 00000B58 */]
000038A4  4EBA 011E                jsr        [PC + 0x11E /* 000039C4 */]
000038A8  6044                     bra        +0x46 /* 000038EE */
label000038AA:
000038AA  206D E246                movea.l    A0, [A5 - 0x1DBA]
000038AE  2050                     movea.l    A0, [A0]
000038B0  2068 003E                movea.l    A0, [A0 + 0x3E]
000038B4  2F10                     move.l     -[A7], [A0]
000038B6  2F13                     move.l     -[A7], [A3]
000038B8  3007                     move.w     D0, D7
000038BA  48C0                     ext.l      D0
000038BC  2F00                     move.l     -[A7], D0
000038BE  4EBA 0D52                jsr        [PC + 0xD52 /* 00004612 */]
000038C2  3007                     move.w     D0, D7
000038C4  48C0                     ext.l      D0
000038C6  D093                     add.l      D0, [A3]
000038C8  2D40 FEEA                move.l     [A6 - 0x116], D0
000038CC  206E FEEA                movea.l    A0, [A6 - 0x116]
000038D0  4210                     clr.b      [A0]
000038D2  2F0B                     move.l     -[A7], A3
000038D4  4EAD 0222                jsr        [A5 + 0x222 /* export_64, CODE:1 @ 00004678 */]
000038D8  2F13                     move.l     -[A7], [A3]
000038DA  3007                     move.w     D0, D7
000038DC  5240                     addq.w     D0, 1
000038DE  48C0                     ext.l      D0
000038E0  2F00                     move.l     -[A7], D0
000038E2  4267                     clr.w      -[A7]
000038E4  4EBA FDEC                jsr        [PC - 0x214 /* 000036D2 */]
000038E8  2F0B                     move.l     -[A7], A3
000038EA  4EAD 18D2                jsr        [A5 + 0x18D2 /* export_790, CODE:16 @ 0000083E */]
label000038EE:
000038EE  6072                     bra        +0x74 /* 00003962 */
label000038F0:
000038F0  3A06                     move.w     D5, D6
000038F2  202C 0026                move.l     D0, [A4 + 0x26]
000038F6  B0AC 002E                cmp.l      D0, [A4 + 0x2E]
000038FA  6606                     bne        +0x8 /* 00003902 */
000038FC  3005                     move.w     D0, D5
000038FE  4440                     neg.w      D0
00003900  3A00                     move.w     D5, D0
label00003902:
00003902  42A7                     clr.l      -[A7]
00003904  2F2C 002E                move.l     -[A7], [A4 + 0x2E]
00003908  4EAD 1F7A                jsr        [A5 + 0x1F7A /* export_1003, CODE:19 @ 00001744 */]
0000390C  281F                     move.l     D4, [A7]+
0000390E  2F04                     move.l     -[A7], D4
00003910  4EAD 0222                jsr        [A5 + 0x222 /* export_64, CODE:1 @ 00004678 */]
00003914  42A7                     clr.l      -[A7]
00003916  2F04                     move.l     -[A7], D4
00003918  3F05                     move.w     -[A7], D5
0000391A  4EAD 1C32                jsr        [A5 + 0x1C32 /* export_898, CODE:17 @ 00000A32 */]
0000391E  2D5F FFF0                move.l     [A6 - 0x10], [A7]+
00003922  6606                     bne        +0x8 /* 0000392A */
00003924  4EBA 009E                jsr        [PC + 0x9E /* 000039C4 */]
00003928  6008                     bra        +0xA /* 00003932 */
label0000392A:
0000392A  2F2E FFF0                move.l     -[A7], [A6 - 0x10]
0000392E  4EBA 032E                jsr        [PC + 0x32E /* 00003C5E */]
label00003932:
00003932  2F04                     move.l     -[A7], D4
00003934  4EAD 022A                jsr        [A5 + 0x22A /* export_65, CODE:1 @ 00004682 */]
00003938  2F2C 002E                move.l     -[A7], [A4 + 0x2E]
0000393C  4267                     clr.w      -[A7]
0000393E  4EAD 1EF2                jsr        [A5 + 0x1EF2 /* export_986, CODE:19 @ 00000450 */]
00003942  601E                     bra        +0x20 /* 00003962 */
label00003944:
00003944  486E FDEA                pea.l      [A6 - 0x216]
00003948  4EAD 17A2                jsr        [A5 + 0x17A2 /* export_752, CODE:15 @ 00006424 */]
0000394C  4EBA 017E                jsr        [PC + 0x17E /* 00003ACC */]
00003950  6010                     bra        +0x12 /* 00003962 */
label00003952:
00003952  4EBA 03C8                jsr        [PC + 0x3C8 /* 00003D1C */]
00003956  600A                     bra        +0xC /* 00003962 */
label00003958:
00003958  2F3C 0000 1798           move.l     -[A7], 0x1798
0000395E  4EAD 185A                jsr        [A5 + 0x185A /* export_775, CODE:16 @ 0000042E */]
label00003962:
00003962  102E 0008                move.b     D0, [A6 + 0x8]
00003966  670A                     beq        +0xC /* 00003972 */
00003968  206E 000A                movea.l    A0, [A6 + 0xA]
0000396C  2F08                     move.l     -[A7], A0
0000396E  4EBA D832                jsr        [PC - 0x27CE /* 000011A2 */]
label00003972:
00003972  4CDF 18F0                movem.l    D4,D5,D6,D7,A3,A4, [A7]+
00003976  4E5E                     unlink     A6
00003978  205F                     movea.l    A0, [A7]+
0000397A  5C4F                     addq.w     A7, 6
0000397C  4ED0                     jmp        [A0]
export_344:
fn0000397E:
0000397E  4E56 0000                link       A6, 0
00003982  2F2E 0008                move.l     -[A7], [A6 + 0x8]
00003986  1F3C 0001                move.b     -[A7], 0x1
0000398A  4EBA FE80                jsr        [PC - 0x180 /* 0000380C */]
0000398E  4E5E                     unlink     A6
00003990  2E9F                     move.l     [A7], [A7]+
00003992  4E75                     rts
export_345:
00003994  4E56 0000                link       A6, 0
00003998  102E 0008                move.b     D0, [A6 + 0x8]
0000399C  6710                     beq        +0x12 /* 000039AE */
0000399E  2F2D A42E                move.l     -[A7], [A5 - 0x5BD2]
000039A2  7005                     moveq.l    D0, 0x05
000039A4  2F00                     move.l     -[A7], D0
000039A6  4267                     clr.w      -[A7]
000039A8  4EBA FD28                jsr        [PC - 0x2D8 /* 000036D2 */]
000039AC  600E                     bra        +0x10 /* 000039BC */
label000039AE:
000039AE  2F2D A42A                move.l     -[A7], [A5 - 0x5BD6]
000039B2  7003                     moveq.l    D0, 0x03
000039B4  2F00                     move.l     -[A7], D0
000039B6  4267                     clr.w      -[A7]
000039B8  4EBA FD18                jsr        [PC - 0x2E8 /* 000036D2 */]
label000039BC:
000039BC  4E5E                     unlink     A6
000039BE  205F                     movea.l    A0, [A7]+
000039C0  544F                     addq.w     A7, 2
000039C2  4ED0                     jmp        [A0]
export_346:
fn000039C4:
000039C4  4E56 FFFE                link       A6, -0x0002
000039C8  426E FFFE                clr.w      [A6 - 0x2]
000039CC  486E FFFE                pea.l      [A6 - 0x2]
000039D0  7002                     moveq.l    D0, 0x02
000039D2  2F00                     move.l     -[A7], D0
000039D4  4267                     clr.w      -[A7]
000039D6  4EBA FCFA                jsr        [PC - 0x306 /* 000036D2 */]
000039DA  4E5E                     unlink     A6
000039DC  4E75                     rts
export_347:
fn000039DE:
000039DE  4E56 FFF6                link       A6, -0x000A
000039E2  206E 0008                movea.l    A0, [A6 + 0x8]
000039E6  43EE FFF6                lea.l      A1, [A6 - 0xA]
000039EA  22D8                     move.l     [A1]+, [A0]+
000039EC  22D8                     move.l     [A1]+, [A0]+
000039EE  3290                     move.w     [A1], [A0]
000039F0  486E FFF6                pea.l      [A6 - 0xA]
000039F4  700A                     moveq.l    D0, 0x0A
000039F6  2F00                     move.l     -[A7], D0
000039F8  1F3C 0011                move.b     -[A7], 0x11
000039FC  4EBA FCD4                jsr        [PC - 0x32C /* 000036D2 */]
00003A00  4E5E                     unlink     A6
00003A02  2E9F                     move.l     [A7], [A7]+
00003A04  4E75                     rts
export_348:
fn00003A06:
00003A06  4E56 0000                link       A6, 0
00003A0A  486E 0008                pea.l      [A6 + 0x8]
00003A0E  7001                     moveq.l    D0, 0x01
00003A10  2F00                     move.l     -[A7], D0
00003A12  1F3C 000E                move.b     -[A7], 0xE
00003A16  4EBA FCBA                jsr        [PC - 0x346 /* 000036D2 */]
00003A1A  4E5E                     unlink     A6
00003A1C  205F                     movea.l    A0, [A7]+
00003A1E  544F                     addq.w     A7, 2
00003A20  4ED0                     jmp        [A0]
export_349:
fn00003A22:
00003A22  4E56 FFFE                link       A6, -0x0002
00003A26  2F2E 0008                move.l     -[A7], [A6 + 0x8]
00003A2A  486E FFFF                pea.l      [A6 - 0x1]
00003A2E  4EAD 1922                jsr        [A5 + 0x1922 /* export_800, CODE:16 @ 00000C02 */]
00003A32  206E 0008                movea.l    A0, [A6 + 0x8]
00003A36  2F10                     move.l     -[A7], [A0]
00003A38  4EBA 0224                jsr        [PC + 0x224 /* 00003C5E */]
00003A3C  2F2E 0008                move.l     -[A7], [A6 + 0x8]
00003A40  1F2E FFFF                move.b     -[A7], [A6 - 0x1]
00003A44  4EAD 03F2                jsr        [A5 + 0x3F2 /* export_122, CODE:1 @ 00004D00 */]
00003A48  4E5E                     unlink     A6
00003A4A  2E9F                     move.l     [A7], [A7]+
00003A4C  4E75                     rts
export_350:
fn00003A4E:
00003A4E  4E56 0000                link       A6, 0
00003A52  486E 0008                pea.l      [A6 + 0x8]
00003A56  7004                     moveq.l    D0, 0x04
00003A58  2F00                     move.l     -[A7], D0
00003A5A  1F3C 0013                move.b     -[A7], 0x13
00003A5E  4EBA FC72                jsr        [PC - 0x38E /* 000036D2 */]
00003A62  4E5E                     unlink     A6
00003A64  2E9F                     move.l     [A7], [A7]+
00003A66  4E75                     rts
export_351:
fn00003A68:
00003A68  4E56 0000                link       A6, 0
00003A6C  486E 0008                pea.l      [A6 + 0x8]
00003A70  7004                     moveq.l    D0, 0x04
00003A72  2F00                     move.l     -[A7], D0
00003A74  1F3C 0012                move.b     -[A7], 0x12
00003A78  4EBA FC58                jsr        [PC - 0x3A8 /* 000036D2 */]
00003A7C  4E5E                     unlink     A6
00003A7E  2E9F                     move.l     [A7], [A7]+
00003A80  4E75                     rts
export_352:
fn00003A82:
00003A82  4E56 FFFA                link       A6, -0x0006
00003A86  48E7 0108                movem.l    -[A7], D7,A4
00003A8A  206E 0008                movea.l    A0, [A6 + 0x8]
00003A8E  4240                     clr.w      D0
00003A90  1010                     move.b     D0, [A0]
00003A92  48C0                     ext.l      D0
00003A94  D0AE 0008                add.l      D0, [A6 + 0x8]
00003A98  2840                     movea.l    A4, D0
00003A9A  528C                     addq.l     A4, 1
00003A9C  1014                     move.b     D0, [A4]
00003A9E  4880                     ext.w      D0
00003AA0  3E00                     move.w     D7, D0
00003AA2  4214                     clr.b      [A4]
00003AA4  202E 0008                move.l     D0, [A6 + 0x8]
00003AA8  5280                     addq.l     D0, 1
00003AAA  2F00                     move.l     -[A7], D0
00003AAC  206E 0008                movea.l    A0, [A6 + 0x8]
00003AB0  4240                     clr.w      D0
00003AB2  1010                     move.b     D0, [A0]
00003AB4  5240                     addq.w     D0, 1
00003AB6  48C0                     ext.l      D0
00003AB8  2F00                     move.l     -[A7], D0
00003ABA  4267                     clr.w      -[A7]
00003ABC  4EBA FC14                jsr        [PC - 0x3EC /* 000036D2 */]
00003AC0  1887                     move.b     [A4], D7
00003AC2  4CDF 1080                movem.l    D7,A4, [A7]+
00003AC6  4E5E                     unlink     A6
00003AC8  2E9F                     move.l     [A7], [A7]+
00003ACA  4E75                     rts
export_353:
fn00003ACC:
00003ACC  4E56 FF00                link       A6, -0x0100
00003AD0  206E 0008                movea.l    A0, [A6 + 0x8]
00003AD4  43EE FF00                lea.l      A1, [A6 - 0x100]
00003AD8  703F                     moveq.l    D0, 0x3F
label00003ADA:
00003ADA  22D8                     move.l     [A1]+, [A0]+
00003ADC  51C8 FFFC                dbf        D0, -0x6 /* 00003ADA */
00003AE0  42A7                     clr.l      -[A7]
00003AE2  486E FF00                pea.l      [A6 - 0x100]
00003AE6  4EAD 1B52                jsr        [A5 + 0x1B52 /* export_870, CODE:16 @ 00001EBC */]
00003AEA  4240                     clr.w      D0
00003AEC  102E FF00                move.b     D0, [A6 - 0x100]
00003AF0  5240                     addq.w     D0, 1
00003AF2  48C0                     ext.l      D0
00003AF4  2F00                     move.l     -[A7], D0
00003AF6  4267                     clr.w      -[A7]
00003AF8  4EBA FBD8                jsr        [PC - 0x428 /* 000036D2 */]
00003AFC  4E5E                     unlink     A6
00003AFE  2E9F                     move.l     [A7], [A7]+
00003B00  4E75                     rts
export_354:
fn00003B02:
00003B02  4E56 FFF4                link       A6, -0x000C
00003B06  206E 000C                movea.l    A0, [A6 + 0xC]
00003B0A  43EE FFF8                lea.l      A1, [A6 - 0x8]
00003B0E  22D8                     move.l     [A1]+, [A0]+
00003B10  22D8                     move.l     [A1]+, [A0]+
00003B12  102E 000A                move.b     D0, [A6 + 0xA]
00003B16  4880                     ext.w      D0
00003B18  5740                     subq.w     D0, 3
00003B1A  673A                     beq        +0x3C /* 00003B56 */
00003B1C  5340                     subq.w     D0, 1
00003B1E  674A                     beq        +0x4C /* 00003B6A */
00003B20  0440 002D                subi.w     D0, 0x2D /* '-' */
00003B24  6700 008A                beq        +0x8C /* 00003BB0 */
00003B28  5340                     subq.w     D0, 1
00003B2A  6700 0094                beq        +0x96 /* 00003BC0 */
00003B2E  5340                     subq.w     D0, 1
00003B30  6700 009E                beq        +0xA0 /* 00003BD0 */
00003B34  5340                     subq.w     D0, 1
00003B36  6700 00A6                beq        +0xA8 /* 00003BDE */
00003B3A  5340                     subq.w     D0, 1
00003B3C  6700 00F6                beq        +0xF8 /* 00003C34 */
00003B40  5340                     subq.w     D0, 1
00003B42  6700 0102                beq        +0x104 /* 00003C46 */
00003B46  5340                     subq.w     D0, 1
00003B48  6700 00A2                beq        +0xA4 /* 00003BEC */
00003B4C  5340                     subq.w     D0, 1
00003B4E  6700 00C0                beq        +0xC2 /* 00003C10 */
00003B52  6000 0102                bra        +0x104 /* 00003C56 */
label00003B56:
00003B56  486E FFF8                pea.l      [A6 - 0x8]
00003B5A  7008                     moveq.l    D0, 0x08
00003B5C  2F00                     move.l     -[A7], D0
00003B5E  1F3C 000C                move.b     -[A7], 0xC
00003B62  4EBA FB6E                jsr        [PC - 0x492 /* 000036D2 */]
00003B66  6000 00EE                bra        +0xF0 /* 00003C56 */
label00003B6A:
00003B6A  102E 0008                move.b     D0, [A6 + 0x8]
00003B6E  6708                     beq        +0xA /* 00003B78 */
00003B70  2D6E FFF8 FFF4           move.l     [A6 - 0xC], [A6 - 0x8]
00003B76  6024                     bra        +0x26 /* 00003B9C */
label00003B78:
00003B78  302E FFFE                move.w     D0, [A6 - 0x2]
00003B7C  D06E FFFA                add.w      D0, [A6 - 0x6]
00003B80  48C0                     ext.l      D0
00003B82  81FC 0002                divs.w     D0, 0x2
00003B86  3D40 FFF6                move.w     [A6 - 0xA], D0
00003B8A  302E FFFC                move.w     D0, [A6 - 0x4]
00003B8E  D06E FFF8                add.w      D0, [A6 - 0x8]
00003B92  48C0                     ext.l      D0
00003B94  81FC 0002                divs.w     D0, 0x2
00003B98  3D40 FFF4                move.w     [A6 - 0xC], D0
label00003B9C:
00003B9C  486E FFF4                pea.l      [A6 - 0xC]
00003BA0  7004                     moveq.l    D0, 0x04
00003BA2  2F00                     move.l     -[A7], D0
00003BA4  1F3C 000B                move.b     -[A7], 0xB
00003BA8  4EBA FB28                jsr        [PC - 0x4D8 /* 000036D2 */]
00003BAC  6000 00A8                bra        +0xAA /* 00003C56 */
label00003BB0:
00003BB0  302E FFF8                move.w     D0, [A6 - 0x8]
00003BB4  48C0                     ext.l      D0
00003BB6  2F00                     move.l     -[A7], D0
00003BB8  4EBA FE94                jsr        [PC - 0x16C /* 00003A4E */]
00003BBC  6000 0098                bra        +0x9A /* 00003C56 */
label00003BC0:
00003BC0  302E FFFA                move.w     D0, [A6 - 0x6]
00003BC4  48C0                     ext.l      D0
00003BC6  2F00                     move.l     -[A7], D0
00003BC8  4EBA FE84                jsr        [PC - 0x17C /* 00003A4E */]
00003BCC  6000 0088                bra        +0x8A /* 00003C56 */
label00003BD0:
00003BD0  302E FFFC                move.w     D0, [A6 - 0x4]
00003BD4  48C0                     ext.l      D0
00003BD6  2F00                     move.l     -[A7], D0
00003BD8  4EBA FE74                jsr        [PC - 0x18C /* 00003A4E */]
00003BDC  6078                     bra        +0x7A /* 00003C56 */
label00003BDE:
00003BDE  302E FFFE                move.w     D0, [A6 - 0x2]
00003BE2  48C0                     ext.l      D0
00003BE4  2F00                     move.l     -[A7], D0
00003BE6  4EBA FE66                jsr        [PC - 0x19A /* 00003A4E */]
00003BEA  606A                     bra        +0x6C /* 00003C56 */
label00003BEC:
00003BEC  302E FFFA                move.w     D0, [A6 - 0x6]
00003BF0  B06E FFFE                cmp.w      D0, [A6 - 0x2]
00003BF4  6D08                     blt        +0xA /* 00003BFE */
00003BF6  42A7                     clr.l      -[A7]
00003BF8  4EBA FE54                jsr        [PC - 0x1AC /* 00003A4E */]
00003BFC  6058                     bra        +0x5A /* 00003C56 */
label00003BFE:
00003BFE  302E FFFE                move.w     D0, [A6 - 0x2]
00003C02  906E FFFA                sub.w      D0, [A6 - 0x6]
00003C06  48C0                     ext.l      D0
00003C08  2F00                     move.l     -[A7], D0
00003C0A  4EBA FE42                jsr        [PC - 0x1BE /* 00003A4E */]
00003C0E  6046                     bra        +0x48 /* 00003C56 */
label00003C10:
00003C10  302E FFF8                move.w     D0, [A6 - 0x8]
00003C14  B06E FFFC                cmp.w      D0, [A6 - 0x4]
00003C18  6D08                     blt        +0xA /* 00003C22 */
00003C1A  42A7                     clr.l      -[A7]
00003C1C  4EBA FE30                jsr        [PC - 0x1D0 /* 00003A4E */]
00003C20  6034                     bra        +0x36 /* 00003C56 */
label00003C22:
00003C22  302E FFFC                move.w     D0, [A6 - 0x4]
00003C26  906E FFF8                sub.w      D0, [A6 - 0x8]
00003C2A  48C0                     ext.l      D0
00003C2C  2F00                     move.l     -[A7], D0
00003C2E  4EBA FE1E                jsr        [PC - 0x1E2 /* 00003A4E */]
00003C32  6022                     bra        +0x24 /* 00003C56 */
label00003C34:
00003C34  486E FFF8                pea.l      [A6 - 0x8]
00003C38  7004                     moveq.l    D0, 0x04
00003C3A  2F00                     move.l     -[A7], D0
00003C3C  1F3C 000B                move.b     -[A7], 0xB
00003C40  4EBA FA90                jsr        [PC - 0x570 /* 000036D2 */]
00003C44  6010                     bra        +0x12 /* 00003C56 */
label00003C46:
00003C46  486E FFFC                pea.l      [A6 - 0x4]
00003C4A  7004                     moveq.l    D0, 0x04
00003C4C  2F00                     move.l     -[A7], D0
00003C4E  1F3C 000B                move.b     -[A7], 0xB
00003C52  4EBA FA7E                jsr        [PC - 0x582 /* 000036D2 */]
label00003C56:
00003C56  4E5E                     unlink     A6
00003C58  205F                     movea.l    A0, [A7]+
00003C5A  504F                     addq.w     A7, 8
00003C5C  4ED0                     jmp        [A0]
export_355:
fn00003C5E:
00003C5E  4E56 0000                link       A6, 0
00003C62  2F2E 0008                move.l     -[A7], [A6 + 0x8]
00003C66  42A7                     clr.l      -[A7]
00003C68  2F2E 0008                move.l     -[A7], [A6 + 0x8]
00003C6C  4EAD 1ADA                jsr        [A5 + 0x1ADA /* export_855, CODE:16 @ 00001C66 */]
00003C70  201F                     move.l     D0, [A7]+
00003C72  5280                     addq.l     D0, 1
00003C74  2F00                     move.l     -[A7], D0
00003C76  4267                     clr.w      -[A7]
00003C78  4EBA FA58                jsr        [PC - 0x5A8 /* 000036D2 */]
00003C7C  4E5E                     unlink     A6
00003C7E  2E9F                     move.l     [A7], [A7]+
00003C80  4E75                     rts
export_356:
00003C82  4E56 FFF0                link       A6, -0x0010
00003C86  48E7 0718                movem.l    -[A7], D5,D6,D7,A3,A4
00003C8A  206D D470                movea.l    A0, [A5 - 0x2B90]
00003C8E  1028 0010                move.b     D0, [A0 + 0x10]
00003C92  670A                     beq        +0xC /* 00003C9E */
00003C94  206D D470                movea.l    A0, [A5 - 0x2B90]
00003C98  2F10                     move.l     -[A7], [A0]
00003C9A  4EAD 0222                jsr        [A5 + 0x222 /* export_64, CODE:1 @ 00004678 */]
label00003C9E:
00003C9E  42A7                     clr.l      -[A7]
00003CA0  3F2D D46C                move.w     -[A7], [A5 - 0x2B94]
00003CA4  4EBA F568                jsr        [PC - 0xA98 /* 0000320E */]
00003CA8  2C1F                     move.l     D6, [A7]+
label00003CAA:
00003CAA  7002                     moveq.l    D0, 0x02
00003CAC  B02D D46A                cmp.b      D0, [A5 - 0x2B96]
00003CB0  6732                     beq        +0x34 /* 00003CE4 */
00003CB2  3E2D D46E                move.w     D7, [A5 - 0x2B92]
00003CB6  4A47                     tst.w      D7
00003CB8  6C12                     bge        +0x14 /* 00003CCC */
00003CBA  206D D44C                movea.l    A0, [A5 - 0x2BB4]
00003CBE  3007                     move.w     D0, D7
00003CC0  48C0                     ext.l      D0
00003CC2  2650                     movea.l    A3, [A0]
00003CC4  97C0                     sub.l      A3, D0
00003CC6  1013                     move.b     D0, [A3]
00003CC8  4880                     ext.w      D0
00003CCA  3E00                     move.w     D7, D0
label00003CCC:
00003CCC  42A7                     clr.l      -[A7]
00003CCE  3F2D D46C                move.w     -[A7], [A5 - 0x2B94]
00003CD2  4EBA F53A                jsr        [PC - 0xAC6 /* 0000320E */]
00003CD6  3007                     move.w     D0, D7
00003CD8  48C0                     ext.l      D0
00003CDA  2840                     movea.l    A4, D0
00003CDC  D9DF                     add.l      A4, [A7]+
00003CDE  4EBA C400                jsr        [PC - 0x3C00 /* 000000E0 */]
00003CE2  60C6                     bra        -0x38 /* 00003CAA */
label00003CE4:
00003CE4  1014                     move.b     D0, [A4]
00003CE6  4880                     ext.w      D0
00003CE8  7222                     moveq.l    D1, 0x22
00003CEA  B240                     cmp.w      D1, D0
00003CEC  6602                     bne        +0x4 /* 00003CF0 */
00003CEE  528C                     addq.l     A4, 1
label00003CF0:
00003CF0  1014                     move.b     D0, [A4]
00003CF2  4880                     ext.w      D0
00003CF4  3A00                     move.w     D5, D0
00003CF6  4214                     clr.b      [A4]
00003CF8  2F06                     move.l     -[A7], D6
00003CFA  4EBA FF62                jsr        [PC - 0x9E /* 00003C5E */]
00003CFE  1885                     move.b     [A4], D5
00003D00  206D D470                movea.l    A0, [A5 - 0x2B90]
00003D04  1028 0010                move.b     D0, [A0 + 0x10]
00003D08  670A                     beq        +0xC /* 00003D14 */
00003D0A  206D D470                movea.l    A0, [A5 - 0x2B90]
00003D0E  2F10                     move.l     -[A7], [A0]
00003D10  4EAD 022A                jsr        [A5 + 0x22A /* export_65, CODE:1 @ 00004682 */]
label00003D14:
00003D14  4CDF 18E0                movem.l    D5,D6,D7,A3,A4, [A7]+
00003D18  4E5E                     unlink     A6
00003D1A  4E75                     rts
fn00003D1C:
00003D1C  4E56 FFFC                link       A6, -0x0004
00003D20  2F0C                     move.l     -[A7], A4
00003D22  42A7                     clr.l      -[A7]
00003D24  4EAD 178A                jsr        [A5 + 0x178A /* export_749, CODE:15 @ 000059A6 */]
00003D28  285F                     movea.l    A4, [A7]+
00003D2A  2F0C                     move.l     -[A7], A4
00003D2C  4EAD 0222                jsr        [A5 + 0x222 /* export_64, CODE:1 @ 00004678 */]
00003D30  2F14                     move.l     -[A7], [A4]
00003D32  4EBA FF2A                jsr        [PC - 0xD6 /* 00003C5E */]
00003D36  2F0C                     move.l     -[A7], A4
00003D38  4EAD 18D2                jsr        [A5 + 0x18D2 /* export_790, CODE:16 @ 0000083E */]
00003D3C  285F                     movea.l    A4, [A7]+
00003D3E  4E5E                     unlink     A6
00003D40  4E75                     rts
export_357:
00003D42  4E56 FF00                link       A6, -0x0100
00003D46  486E FF00                pea.l      [A6 - 0x100]
00003D4A  4EBA 108C                jsr        [PC + 0x108C /* 00004DD8 */]
00003D4E  4EBA FD7C                jsr        [PC - 0x284 /* 00003ACC */]
00003D52  4EBA C38C                jsr        [PC - 0x3C74 /* 000000E0 */]
00003D56  4E5E                     unlink     A6
00003D58  4E75                     rts
export_358:
00003D5A  4E56 0000                link       A6, 0
00003D5E  2F0C                     move.l     -[A7], A4
00003D60  286D D470                movea.l    A4, [A5 - 0x2B90]
00003D64  302C 0008                move.w     D0, [A4 + 0x8]
00003D68  5340                     subq.w     D0, 1
00003D6A  3940 0008                move.w     [A4 + 0x8], D0
00003D6E  206C 0004                movea.l    A0, [A4 + 0x4]
00003D72  302C 0008                move.w     D0, [A4 + 0x8]
00003D76  5340                     subq.w     D0, 1
00003D78  C1FC 0006                muls.w     D0, 0x6
00003D7C  48C0                     ext.l      D0
00003D7E  D090                     add.l      D0, [A0]
00003D80  2040                     movea.l    A0, D0
00003D82  43ED D46A                lea.l      A1, [A5 - 0x2B96]
00003D86  22D8                     move.l     [A1]+, [A0]+
00003D88  3290                     move.w     [A1], [A0]
00003D8A  285F                     movea.l    A4, [A7]+
00003D8C  4E5E                     unlink     A6
00003D8E  4E75                     rts
export_359:
00003D90  4E56 0000                link       A6, 0
00003D94  2F0C                     move.l     -[A7], A4
00003D96  286D A80C                movea.l    A4, [A5 - 0x57F4]
00003D9A  3B6C 0004 AAD4           move.w     [A5 - 0x552C], [A4 + 0x4]
00003DA0  302D A892                move.w     D0, [A5 - 0x576E]
00003DA4  B06C 0006                cmp.w      D0, [A4 + 0x6]
00003DA8  6708                     beq        +0xA /* 00003DB2 */
00003DAA  3F2C 0006                move.w     -[A7], [A4 + 0x6]
00003DAE  4EBA 031A                jsr        [PC + 0x31A /* 000040CA */]
label00003DB2:
00003DB2  3B7C 8001 AAD8           move.w     [A5 - 0x5528], 0x8001
00003DB8  285F                     movea.l    A4, [A7]+
00003DBA  4E5E                     unlink     A6
00003DBC  4E75                     rts
export_360:
fn00003DBE:
00003DBE  4E56 0000                link       A6, 0
00003DC2  48E7 0018                movem.l    -[A7], A3,A4
00003DC6  286E 0008                movea.l    A4, [A6 + 0x8]
00003DCA  206D D470                movea.l    A0, [A5 - 0x2B90]
00003DCE  3028 0008                move.w     D0, [A0 + 0x8]
00003DD2  B054                     cmp.w      D0, [A4]
00003DD4  6706                     beq        +0x8 /* 00003DDC */
00003DD6  3F14                     move.w     -[A7], [A4]
00003DD8  4EBA 04C8                jsr        [PC + 0x4C8 /* 000042A2 */]
label00003DDC:
00003DDC  47EC 0002                lea.l      A3, [A4 + 0x2]
00003DE0  3B53 B978                move.w     [A5 - 0x4688], [A3]
00003DE4  202D B674                move.l     D0, [A5 - 0x498C]
00003DE8  90AB 0002                sub.l      D0, [A3 + 0x2]
00003DEC  D1AD B670                add.l      [A5 - 0x4990], D0
00003DF0  2B6B 0002 B674           move.l     [A5 - 0x498C], [A3 + 0x2]
00003DF6  4CDF 1800                movem.l    A3,A4, [A7]+
00003DFA  4E5E                     unlink     A6
00003DFC  2E9F                     move.l     [A7], [A7]+
00003DFE  4E75                     rts
export_361:
00003E00  4E56 FFF8                link       A6, -0x0008
00003E04  486E FFF8                pea.l      [A6 - 0x8]
00003E08  4EBA 0074                jsr        [PC + 0x74 /* 00003E7E */]
00003E0C  1D7C 0001 000A           move.b     [A6 + 0xA], 0x1
00003E12  4267                     clr.w      -[A7]
00003E14  3F2E 0008                move.w     -[A7], [A6 + 0x8]
00003E18  4EAD 119A                jsr        [A5 + 0x119A /* export_559, CODE:10 @ 00001D8C */]
00003E1C  101F                     move.b     D0, [A7]+
00003E1E  660C                     bne        +0xE /* 00003E2C */
00003E20  422E 000A                clr.b      [A6 + 0xA]
00003E24  486E FFF8                pea.l      [A6 - 0x8]
00003E28  4EBA FF94                jsr        [PC - 0x6C /* 00003DBE */]
label00003E2C:
00003E2C  4E5E                     unlink     A6
00003E2E  205F                     movea.l    A0, [A7]+
00003E30  544F                     addq.w     A7, 2
00003E32  4ED0                     jmp        [A0]
export_362:
00003E34  4E56 FFF8                link       A6, -0x0008
00003E38  486E FFF8                pea.l      [A6 - 0x8]
00003E3C  4EBA 0040                jsr        [PC + 0x40 /* 00003E7E */]
00003E40  1D7C 0001 000A           move.b     [A6 + 0xA], 0x1
00003E46  4267                     clr.w      -[A7]
00003E48  3F2E 0008                move.w     -[A7], [A6 + 0x8]
00003E4C  4EAD 119A                jsr        [A5 + 0x119A /* export_559, CODE:10 @ 00001D8C */]
00003E50  101F                     move.b     D0, [A7]+
00003E52  0A00 0001                xori.b     D0, 0x1
00003E56  4A00                     tst.b      D0
00003E58  6610                     bne        +0x12 /* 00003E6A */
00003E5A  7202                     moveq.l    D1, 0x02
00003E5C  B22D D46A                cmp.b      D1, [A5 - 0x2B96]
00003E60  56C1                     sne        D1
00003E62  8001                     or.b       D0, D1
00003E64  0240 0001                andi.w     D0, 0x1
00003E68  670C                     beq        +0xE /* 00003E76 */
label00003E6A:
00003E6A  422E 000A                clr.b      [A6 + 0xA]
00003E6E  486E FFF8                pea.l      [A6 - 0x8]
00003E72  4EBA FF4A                jsr        [PC - 0xB6 /* 00003DBE */]
label00003E76:
00003E76  4E5E                     unlink     A6
00003E78  205F                     movea.l    A0, [A7]+
00003E7A  544F                     addq.w     A7, 2
00003E7C  4ED0                     jmp        [A0]
export_363:
fn00003E7E:
00003E7E  4E56 0000                link       A6, 0
00003E82  2F0C                     move.l     -[A7], A4
00003E84  286E 0008                movea.l    A4, [A6 + 0x8]
00003E88  206D D470                movea.l    A0, [A5 - 0x2B90]
00003E8C  38A8 0008                move.w     [A4], [A0 + 0x8]
00003E90  396D B978 0002           move.w     [A4 + 0x2], [A5 - 0x4688]
00003E96  296D B674 0004           move.l     [A4 + 0x4], [A5 - 0x498C]
00003E9C  285F                     movea.l    A4, [A7]+
00003E9E  4E5E                     unlink     A6
00003EA0  2E9F                     move.l     [A7], [A7]+
00003EA2  4E75                     rts
export_364:
00003EA4  4E56 FF00                link       A6, -0x0100
00003EA8  206E 0008                movea.l    A0, [A6 + 0x8]
00003EAC  43EE FF00                lea.l      A1, [A6 - 0x100]
00003EB0  703F                     moveq.l    D0, 0x3F
label00003EB2:
00003EB2  22D8                     move.l     [A1]+, [A0]+
00003EB4  51C8 FFFC                dbf        D0, -0x6 /* 00003EB2 */
00003EB8  41ED E0E8                lea.l      A0, [A5 - 0x1F18]
00003EBC  43FA 0068                lea.l      A1, [PC + 0x68 /* 00003F26, value 0x9636C6F '\tclo', pstring "closeCard" */]
00003EC0  20D9                     move.l     [A0]+, [A1]+
00003EC2  20D9                     move.l     [A0]+, [A1]+
00003EC4  3091                     move.w     [A0], [A1]
00003EC6  4EBA 0068                jsr        [PC + 0x68 /* 00003F30 */]
00003ECA  41ED E0E8                lea.l      A0, [A5 - 0x1F18]
00003ECE  43FA 0046                lea.l      A1, [PC + 0x46 /* 00003F16, value 0xF636C6F, pstring "closeBackground" */]
00003ED2  20D9                     move.l     [A0]+, [A1]+
00003ED4  20D9                     move.l     [A0]+, [A1]+
00003ED6  20D9                     move.l     [A0]+, [A1]+
00003ED8  20D9                     move.l     [A0]+, [A1]+
00003EDA  4EBA 0054                jsr        [PC + 0x54 /* 00003F30 */]
00003EDE  41ED E0E8                lea.l      A0, [A5 - 0x1F18]
00003EE2  43FA 0026                lea.l      A1, [PC + 0x26 /* 00003F0A, value 0xA636C6F '\nclo', pstring "closeStack" */]
00003EE6  20D9                     move.l     [A0]+, [A1]+
00003EE8  20D9                     move.l     [A0]+, [A1]+
00003EEA  20D9                     move.l     [A0]+, [A1]+
00003EEC  4EBA 0042                jsr        [PC + 0x42 /* 00003F30 */]
00003EF0  41ED E0E8                lea.l      A0, [A5 - 0x1F18]
00003EF4  43EE FF00                lea.l      A1, [A6 - 0x100]
00003EF8  703F                     moveq.l    D0, 0x3F
label00003EFA:
00003EFA  20D9                     move.l     [A0]+, [A1]+
00003EFC  51C8 FFFC                dbf        D0, -0x6 /* 00003EFA */
00003F00  4EBA 002E                jsr        [PC + 0x2E /* 00003F30 */]
00003F04  4E5E                     unlink     A6
00003F06  2E9F                     move.l     [A7], [A7]+
00003F08  4E75                     rts
00003F0A  0A63 6C6F                xori.w     -[A3], 0x6C6F /* 'lo' */
00003F0E  7365                     moveq.l    D1, 0x65
00003F10  5374 6163 6B00 0F63 6C6F subq.w     [[A4 + 0x6B00] + 0xF636C6F], 1
00003F1A  7365                     moveq.l    D1, 0x65
00003F1C  4261                     clr.w      -[A1]
00003F1E  636B                     bls        +0x6D /* 00003F8B */
00003F20  6772                     beq        +0x74 /* 00003F94 */
00003F22  6F75                     ble        +0x77 /* 00003F99 */
00003F24  6E64                     bgt        +0x66 /* 00003F8A */
00003F26  0963                     bchg       -[A3], D4
00003F28  6C6F                     bge        +0x71 /* 00003F99 */
00003F2A  7365                     moveq.l    D1, 0x65
00003F2C  4361                     chk.w      D1, -[A1]
00003F2E  7264                     moveq.l    D1, 0x64
export_365:
fn00003F30:
00003F30  4E56 FFFC                link       A6, -0x0004
00003F34  2D6D A80C FFFC           move.l     [A6 - 0x4], [A5 - 0x57F4]
00003F3A  41ED 9A82                lea.l      A0, [A5 - 0x657E]
00003F3E  2B48 A80C                move.l     [A5 - 0x57F4], A0
00003F42  486D B652                pea.l      [A5 - 0x49AE]
00003F46  4EBA CDB6                jsr        [PC - 0x324A /* 00000CFE */]
00003F4A  4267                     clr.w      -[A7]
00003F4C  4EBA 0010                jsr        [PC + 0x10 /* 00003F5E */]
00003F50  1B5F A4F7                move.b     [A5 - 0x5B09], [A7]+
00003F54  2B6E FFFC A80C           move.l     [A5 - 0x57F4], [A6 - 0x4]
00003F5A  4E5E                     unlink     A6
00003F5C  4E75                     rts
export_366:
fn00003F5E:
00003F5E  4E56 FECA                link       A6, -0x0136
00003F62  102D F013                move.b     D0, [A5 - 0xFED]
00003F66  802D F012                or.b       D0, [A5 - 0xFEE]
00003F6A  122D F015                move.b     D1, [A5 - 0xFEB]
00003F6E  0A01 0001                xori.b     D1, 0x1
00003F72  C001                     and.b      D0, D1
00003F74  1B40 F016                move.b     [A5 - 0xFEA], D0
00003F78  41EE FFCA                lea.l      A0, [A6 - 0x36]
00003F7C  43ED B63A                lea.l      A1, [A5 - 0x49C6]
00003F80  7005                     moveq.l    D0, 0x05
label00003F82:
00003F82  20D9                     move.l     [A0]+, [A1]+
00003F84  51C8 FFFC                dbf        D0, -0x6 /* 00003F82 */
00003F88  41ED B63A                lea.l      A0, [A5 - 0x49C6]
// begin alternate branch 00003F8A-00003F90
label00003F8A:
00003F8A  B63A 43ED                cmp.b      D3, [PC + 0x43ED /* 00008379 */]
00003F8E  B652                     cmp.w      D3, [A2]
// end alternate branch 00003F8A-00003F90
label00003F8A: // (misaligned)
00003F8C  43ED B652                lea.l      A1, [A5 - 0x49AE]
00003F90  7005                     moveq.l    D0, 0x05
label00003F92:
00003F92  20D9                     move.l     [A0]+, [A1]+
label00003F94:
00003F94  51C8 FFFC                dbf        D0, -0x6 /* 00003F92 */
00003F98  422D AAE3                clr.b      [A5 - 0x551D]
00003F9C  2D6D D470 FFE6           move.l     [A6 - 0x1A], [A5 - 0x2B90]
00003FA2  42A7                     clr.l      -[A7]
00003FA4  486D E0E8                pea.l      [A5 - 0x1F18]
00003FA8  4EAD 1B52                jsr        [A5 + 0x1B52 /* export_870, CODE:16 @ 00001EBC */]
00003FAC  486E FECA                pea.l      [A6 - 0x136]
00003FB0  4240                     clr.w      D0
00003FB2  102D E0E8                move.b     D0, [A5 - 0x1F18]
00003FB6  5240                     addq.w     D0, 1
00003FB8  48C0                     ext.l      D0
00003FBA  2F00                     move.l     -[A7], D0
00003FBC  4EAD 19B2                jsr        [A5 + 0x19B2 /* export_818, CODE:16 @ 000010BE */]
00003FC0  41EE FECA                lea.l      A0, [A6 - 0x136]
00003FC4  2D48 FFE2                move.l     [A6 - 0x1E], A0
00003FC8  486E FFE2                pea.l      [A6 - 0x1E]
00003FCC  486E FFEA                pea.l      [A6 - 0x16]
00003FD0  4EBA ECFA                jsr        [PC - 0x1306 /* 00002CCC */]
00003FD4  486E FFEA                pea.l      [A6 - 0x16]
00003FD8  1F3C 0001                move.b     -[A7], 0x1
00003FDC  4EBA 0244                jsr        [PC + 0x244 /* 00004222 */]
00003FE0  42A7                     clr.l      -[A7]
00003FE2  4EAD 14A2                jsr        [A5 + 0x14A2 /* export_656, CODE:13 @ 0000298E */]
00003FE6  1D5F 0008                move.b     [A6 + 0x8], [A7]+
00003FEA  486E FFEA                pea.l      [A6 - 0x16]
00003FEE  4EBA CE72                jsr        [PC - 0x318E /* 00000E62 */]
00003FF2  2F2E FFE6                move.l     -[A7], [A6 - 0x1A]
00003FF6  4267                     clr.w      -[A7]
00003FF8  4EBA 0228                jsr        [PC + 0x228 /* 00004222 */]
00003FFC  41ED B63A                lea.l      A0, [A5 - 0x49C6]
00004000  43EE FFCA                lea.l      A1, [A6 - 0x36]
00004004  7005                     moveq.l    D0, 0x05
label00004006:
00004006  20D9                     move.l     [A0]+, [A1]+
00004008  51C8 FFFC                dbf        D0, -0x6 /* 00004006 */
0000400C  4E5E                     unlink     A6
0000400E  4E75                     rts
export_367:
00004010  4E56 FFFC                link       A6, -0x0004
00004014  4A6E 0010                tst.w      [A6 + 0x10]
00004018  6602                     bne        +0x4 /* 0000401C */
0000401A  6044                     bra        +0x46 /* 00004060 */
label0000401C:
0000401C  2D6D A80C FFFC           move.l     [A6 - 0x4], [A5 - 0x57F4]
00004022  41ED 9A82                lea.l      A0, [A5 - 0x657E]
00004026  2B48 A80C                move.l     [A5 - 0x57F4], A0
0000402A  486D B652                pea.l      [A5 - 0x49AE]
0000402E  4EBA CCCE                jsr        [PC - 0x3332 /* 00000CFE */]
00004032  1B7C 0001 B652           move.b     [A5 - 0x49AE], 0x1
00004038  2B6E 0008 B658           move.l     [A5 - 0x49A8], [A6 + 0x8]
0000403E  2B6E 000C B65C           move.l     [A5 - 0x49A4], [A6 + 0xC]
00004044  2B6E 0012 B662           move.l     [A5 - 0x499E], [A6 + 0x12]
0000404A  3B6E 0010 B660           move.w     [A5 - 0x49A0], [A6 + 0x10]
00004050  4267                     clr.w      -[A7]
00004052  4EBA FF0A                jsr        [PC - 0xF6 /* 00003F5E */]
00004056  1B5F A4F7                move.b     [A5 - 0x5B09], [A7]+
0000405A  2B6E FFFC A80C           move.l     [A5 - 0x57F4], [A6 - 0x4]
label00004060:
00004060  4E5E                     unlink     A6
00004062  205F                     movea.l    A0, [A7]+
00004064  DEFC 000E                add.w      A7, 0xE
00004068  4ED0                     jmp        [A0]
export_368:
0000406A  4E56 0000                link       A6, 0
0000406E  486D E0E8                pea.l      [A5 - 0x1F18]
00004072  4EAD 1482                jsr        [A5 + 0x1482 /* export_652, CODE:13 @ 00001714 */]
00004076  7005                     moveq.l    D0, 0x05
00004078  B02D B652                cmp.b      D0, [A5 - 0x49AE]
0000407C  6608                     bne        +0xA /* 00004086 */
0000407E  486D B652                pea.l      [A5 - 0x49AE]
00004082  4EBA CC7A                jsr        [PC - 0x3386 /* 00000CFE */]
label00004086:
00004086  4267                     clr.w      -[A7]
00004088  4EBA FED4                jsr        [PC - 0x12C /* 00003F5E */]
0000408C  1B5F A4F7                move.b     [A5 - 0x5B09], [A7]+
00004090  206D A80C                movea.l    A0, [A5 - 0x57F4]
00004094  43ED B652                lea.l      A1, [A5 - 0x49AE]
00004098  41E8 0020                lea.l      A0, [A0 + 0x20]
0000409C  7005                     moveq.l    D0, 0x05
label0000409E:
0000409E  22D8                     move.l     [A1]+, [A0]+
000040A0  51C8 FFFC                dbf        D0, -0x6 /* 0000409E */
000040A4  4E5E                     unlink     A6
000040A6  4E75                     rts
export_369:
000040A8  4E56 0000                link       A6, 0
000040AC  302D A892                move.w     D0, [A5 - 0x576E]
000040B0  5340                     subq.w     D0, 1
000040B2  41ED A812                lea.l      A0, [A5 - 0x57EE]
000040B6  11AE 0008 0000           move.b     [A0 + D0.w], [A6 + 0x8]
000040BC  1B6E 0008 A811           move.b     [A5 - 0x57EF], [A6 + 0x8]
000040C2  4E5E                     unlink     A6
000040C4  205F                     movea.l    A0, [A7]+
000040C6  544F                     addq.w     A7, 2
000040C8  4ED0                     jmp        [A0]
export_370:
fn000040CA:
000040CA  4E56 0000                link       A6, 0
000040CE  3B6E 0008 A892           move.w     [A5 - 0x576E], [A6 + 0x8]
000040D4  4A6E 0008                tst.w      [A6 + 0x8]
000040D8  6F12                     ble        +0x14 /* 000040EC */
000040DA  302D A892                move.w     D0, [A5 - 0x576E]
000040DE  5340                     subq.w     D0, 1
000040E0  41ED A812                lea.l      A0, [A5 - 0x57EE]
000040E4  1B70 0000 A811           move.b     [A5 - 0x57EF], [A0 + D0.w]
000040EA  6004                     bra        +0x6 /* 000040F0 */
label000040EC:
000040EC  422D A811                clr.b      [A5 - 0x57EF]
label000040F0:
000040F0  4E5E                     unlink     A6
000040F2  205F                     movea.l    A0, [A7]+
000040F4  544F                     addq.w     A7, 2
000040F6  4ED0                     jmp        [A0]
export_371:
fn000040F8:
000040F8  4E56 FFDA                link       A6, -0x0026
000040FC  2F07                     move.l     -[A7], D7
000040FE  206E 000C                movea.l    A0, [A6 + 0xC]
00004102  43EE FFE0                lea.l      A1, [A6 - 0x20]
00004106  7007                     moveq.l    D0, 0x07
label00004108:
00004108  22D8                     move.l     [A1]+, [A0]+
0000410A  51C8 FFFC                dbf        D0, -0x6 /* 00004108 */
0000410E  4267                     clr.w      -[A7]
00004110  486D D458                pea.l      [A5 - 0x2BA8]
00004114  486E FFE0                pea.l      [A6 - 0x20]
00004118  4EAD 1082                jsr        [A5 + 0x1082 /* export_524, CODE:9 @ 00004558 */]
0000411C  3E1F                     move.w     D7, [A7]+
0000411E  4A47                     tst.w      D7
00004120  6610                     bne        +0x12 /* 00004132 */
00004122  4267                     clr.w      -[A7]
00004124  486D D458                pea.l      [A5 - 0x2BA8]
00004128  486E FFE0                pea.l      [A6 - 0x20]
0000412C  4EBA F07E                jsr        [PC - 0xF82 /* 000031AC */]
00004130  3E1F                     move.w     D7, [A7]+
label00004132:
00004132  2F2E 0008                move.l     -[A7], [A6 + 0x8]
00004136  4EBA F8EA                jsr        [PC - 0x716 /* 00003A22 */]
0000413A  486D D458                pea.l      [A5 - 0x2BA8]
0000413E  3F07                     move.w     -[A7], D7
00004140  4EBA 109E                jsr        [PC + 0x109E /* 000051E0 */]
00004144  2E1F                     move.l     D7, [A7]+
00004146  4E5E                     unlink     A6
00004148  205F                     movea.l    A0, [A7]+
0000414A  504F                     addq.w     A7, 8
0000414C  4ED0                     jmp        [A0]
fn0000414E:
0000414E  4E56 FF00                link       A6, -0x0100
00004152  206E 000C                movea.l    A0, [A6 + 0xC]
00004156  4210                     clr.b      [A0]
00004158  206E 0008                movea.l    A0, [A6 + 0x8]
0000415C  4868 0008                pea.l      [A0 + 0x8]
00004160  486E FF00                pea.l      [A6 - 0x100]
00004164  4EAD 1A2A                jsr        [A5 + 0x1A2A /* export_833, CODE:16 @ 000014AE */]
00004168  4240                     clr.w      D0
0000416A  102E FF00                move.b     D0, [A6 - 0x100]
0000416E  721F                     moveq.l    D1, 0x1F
00004170  B240                     cmp.w      D1, D0
00004172  6C02                     bge        +0x4 /* 00004176 */
00004174  6018                     bra        +0x1A /* 0000418E */
label00004176:
00004176  486E FF00                pea.l      [A6 - 0x100]
0000417A  2F2E 000C                move.l     -[A7], [A6 + 0xC]
0000417E  4240                     clr.w      D0
00004180  102E FF00                move.b     D0, [A6 - 0x100]
00004184  5240                     addq.w     D0, 1
00004186  48C0                     ext.l      D0
00004188  2F00                     move.l     -[A7], D0
0000418A  4EAD 19B2                jsr        [A5 + 0x19B2 /* export_818, CODE:16 @ 000010BE */]
label0000418E:
0000418E  4E5E                     unlink     A6
00004190  205F                     movea.l    A0, [A7]+
00004192  504F                     addq.w     A7, 8
00004194  4ED0                     jmp        [A0]
export_372:
fn00004196:
00004196  4E56 0000                link       A6, 0
0000419A  486D B20E                pea.l      [A5 - 0x4DF2]
0000419E  2F0E                     move.l     -[A7], A6
000041A0  4EBA FFAC                jsr        [PC - 0x54 /* 0000414E */]
000041A4  486D B22E                pea.l      [A5 - 0x4DD2]
000041A8  2F0E                     move.l     -[A7], A6
000041AA  4EBA FFA2                jsr        [PC - 0x5E /* 0000414E */]
000041AE  486D B24E                pea.l      [A5 - 0x4DB2]
000041B2  2F0E                     move.l     -[A7], A6
000041B4  4EBA FF98                jsr        [PC - 0x68 /* 0000414E */]
000041B8  486D B26E                pea.l      [A5 - 0x4D92]
000041BC  2F0E                     move.l     -[A7], A6
000041BE  4EBA FF8E                jsr        [PC - 0x72 /* 0000414E */]
000041C2  486D B30E                pea.l      [A5 - 0x4CF2]
000041C6  2F0E                     move.l     -[A7], A6
000041C8  4EBA FF84                jsr        [PC - 0x7C /* 0000414E */]
000041CC  486D B28E                pea.l      [A5 - 0x4D72]
000041D0  2F0E                     move.l     -[A7], A6
000041D2  4EBA FF7A                jsr        [PC - 0x86 /* 0000414E */]
000041D6  486D B2AE                pea.l      [A5 - 0x4D52]
000041DA  2F0E                     move.l     -[A7], A6
000041DC  4EBA FF70                jsr        [PC - 0x90 /* 0000414E */]
000041E0  486D B2CE                pea.l      [A5 - 0x4D32]
000041E4  2F0E                     move.l     -[A7], A6
000041E6  4EBA FF66                jsr        [PC - 0x9A /* 0000414E */]
000041EA  486D B2EE                pea.l      [A5 - 0x4D12]
000041EE  2F0E                     move.l     -[A7], A6
000041F0  4EBA FF5C                jsr        [PC - 0xA4 /* 0000414E */]
000041F4  486D B32E                pea.l      [A5 - 0x4CD2]
000041F8  2F0E                     move.l     -[A7], A6
000041FA  4EBA FF52                jsr        [PC - 0xAE /* 0000414E */]
000041FE  486D B34E                pea.l      [A5 - 0x4CB2]
00004202  2F0E                     move.l     -[A7], A6
00004204  4EBA FF48                jsr        [PC - 0xB8 /* 0000414E */]
00004208  486D B36E                pea.l      [A5 - 0x4C92]
0000420C  2F0E                     move.l     -[A7], A6
0000420E  4EBA FF3E                jsr        [PC - 0xC2 /* 0000414E */]
00004212  486D B38E                pea.l      [A5 - 0x4C72]
00004216  2F0E                     move.l     -[A7], A6
00004218  4EBA FF34                jsr        [PC - 0xCC /* 0000414E */]
0000421C  4E5E                     unlink     A6
0000421E  2E9F                     move.l     [A7], [A7]+
00004220  4E75                     rts
export_373:
fn00004222:
00004222  4E56 0000                link       A6, 0
00004226  48E7 0018                movem.l    -[A7], A3,A4
0000422A  266E 000A                movea.l    A3, [A6 + 0xA]
0000422E  200B                     move.l     D0, A3
00004230  6614                     bne        +0x16 /* 00004246 */
00004232  7000                     moveq.l    D0, 0x00
00004234  2B40 D470                move.l     [A5 - 0x2B90], D0
00004238  41ED D46A                lea.l      A0, [A5 - 0x2B96]
0000423C  43ED A2E4                lea.l      A1, [A5 - 0x5D1C]
00004240  20D9                     move.l     [A0]+, [A1]+
00004242  3091                     move.w     [A0], [A1]
00004244  6050                     bra        +0x52 /* 00004296 */
label00004246:
00004246  102E 0008                move.b     D0, [A6 + 0x8]
0000424A  6726                     beq        +0x28 /* 00004272 */
0000424C  426B 0014                clr.w      [A3 + 0x14]
00004250  4AAD D470                tst.l      [A5 - 0x2B90]
00004254  6608                     bne        +0xA /* 0000425E */
00004256  377C 0001 0012           move.w     [A3 + 0x12], 0x1
0000425C  6014                     bra        +0x16 /* 00004272 */
label0000425E:
0000425E  206D D470                movea.l    A0, [A5 - 0x2B90]
00004262  226D D470                movea.l    A1, [A5 - 0x2B90]
00004266  3029 0014                move.w     D0, [A1 + 0x14]
0000426A  D068 0012                add.w      D0, [A0 + 0x12]
0000426E  3740 0012                move.w     [A3 + 0x12], D0
label00004272:
00004272  2B4B D470                move.l     [A5 - 0x2B90], A3
00004276  286D D470                movea.l    A4, [A5 - 0x2B90]
0000427A  206C 0004                movea.l    A0, [A4 + 0x4]
0000427E  302C 0008                move.w     D0, [A4 + 0x8]
00004282  5340                     subq.w     D0, 1
00004284  C1FC 0006                muls.w     D0, 0x6
00004288  48C0                     ext.l      D0
0000428A  D090                     add.l      D0, [A0]
0000428C  2040                     movea.l    A0, D0
0000428E  43ED D46A                lea.l      A1, [A5 - 0x2B96]
00004292  22D8                     move.l     [A1]+, [A0]+
00004294  3290                     move.w     [A1], [A0]
label00004296:
00004296  4CDF 1800                movem.l    A3,A4, [A7]+
0000429A  4E5E                     unlink     A6
0000429C  205F                     movea.l    A0, [A7]+
0000429E  5C4F                     addq.w     A7, 6
000042A0  4ED0                     jmp        [A0]
export_374:
fn000042A2:
000042A2  4E56 0000                link       A6, 0
000042A6  2F0C                     move.l     -[A7], A4
000042A8  286D D470                movea.l    A4, [A5 - 0x2B90]
000042AC  396E 0008 0008           move.w     [A4 + 0x8], [A6 + 0x8]
000042B2  206C 0004                movea.l    A0, [A4 + 0x4]
000042B6  302C 0008                move.w     D0, [A4 + 0x8]
000042BA  5340                     subq.w     D0, 1
000042BC  C1FC 0006                muls.w     D0, 0x6
000042C0  48C0                     ext.l      D0
000042C2  D090                     add.l      D0, [A0]
000042C4  2040                     movea.l    A0, D0
000042C6  43ED D46A                lea.l      A1, [A5 - 0x2B96]
000042CA  22D8                     move.l     [A1]+, [A0]+
000042CC  3290                     move.w     [A1], [A0]
000042CE  285F                     movea.l    A4, [A7]+
000042D0  4E5E                     unlink     A6
000042D2  205F                     movea.l    A0, [A7]+
000042D4  544F                     addq.w     A7, 2
000042D6  4ED0                     jmp        [A0]
fn000042D8:
000042D8  4E56 0000                link       A6, 0
000042DC  7000                     moveq.l    D0, 0x00
000042DE  2B40 B42A                move.l     [A5 - 0x4BD6], D0
000042E2  41ED B42E                lea.l      A0, [A5 - 0x4BD2]
000042E6  43FA 0026                lea.l      A1, [PC + 0x26 /* 0000430E, value 0x7456E67, pstring "English" */]
000042EA  20D9                     move.l     [A0]+, [A1]+
000042EC  20D9                     move.l     [A0]+, [A1]+
000042EE  42A7                     clr.l      -[A7]
000042F0  486D B10E                pea.l      [A5 - 0x4EF2]
000042F4  4EAD 1B52                jsr        [A5 + 0x1B52 /* export_870, CODE:16 @ 00001EBC */]
000042F8  4EBA FE9C                jsr        [PC - 0x164 /* 00004196 */]
000042FC  486D B3D4                pea.l      [A5 - 0x4C2C]
00004300  7056                     moveq.l    D0, 0x56
00004302  2F00                     move.l     -[A7], D0
00004304  4EAD 1B42                jsr        [A5 + 0x1B42 /* export_868, CODE:16 @ 00001E7C */]
00004308  4E5E                     unlink     A6
0000430A  2E9F                     move.l     [A7], [A7]+
0000430C  4E75                     rts
0000430E  0745                     bchg       D5, D3
00004310  6E67                     bgt        +0x69 /* 00004379 */
00004312  6C69                     bge        +0x6B /* 0000437D */
00004314  7368                     moveq.l    D1, 0x68
fn00004316:
00004316  4E56 FF00                link       A6, -0x0100
0000431A  206E 000C                movea.l    A0, [A6 + 0xC]
0000431E  43EE FF00                lea.l      A1, [A6 - 0x100]
00004322  703F                     moveq.l    D0, 0x3F
label00004324:
00004324  22D8                     move.l     [A1]+, [A0]+
00004326  51C8 FFFC                dbf        D0, -0x6 /* 00004324 */
0000432A  2F2E 0008                move.l     -[A7], [A6 + 0x8]
0000432E  4EBA FFA8                jsr        [PC - 0x58 /* 000042D8 */]
00004332  486E FF00                pea.l      [A6 - 0x100]
00004336  4EBA C59C                jsr        [PC - 0x3A64 /* 000008D4 */]
0000433A  206E 0008                movea.l    A0, [A6 + 0x8]
0000433E  2C48                     movea.l    A6, A0
00004340  4EFA 015A                jmp        [PC + 0x15A /* 0000449C */]
00004344  0000 4E5E                ori.b      D0, 0x5E /* '^' */
00004348  205F                     movea.l    A0, [A7]+
0000434A  504F                     addq.w     A7, 8
0000434C  4ED0                     jmp        [A0]
export_375:
0000434E  4E56 FF00                link       A6, -0x0100
00004352  48E7 1F38                movem.l    -[A7], D3,D4,D5,D6,D7,A2,A3,A4
00004356  4267                     clr.w      -[A7]
00004358  2F2E 0008                move.l     -[A7], [A6 + 0x8]
0000435C  486D B42E                pea.l      [A5 - 0x4BD2]
00004360  4EAD 1AC2                jsr        [A5 + 0x1AC2 /* export_852, CODE:16 @ 00001B82 */]
00004364  101F                     move.b     D0, [A7]+
00004366  6704                     beq        +0x6 /* 0000436C */
00004368  6000 0132                bra        +0x134 /* 0000449C */
label0000436C:
0000436C  4AAD B42A                tst.l      [A5 - 0x4BD6]
00004370  6730                     beq        +0x32 /* 000043A2 */
00004372  3B7C 0001 B3D4           move.w     [A5 - 0x4C2C], 0x1
00004378  4EBA C280                jsr        [PC - 0x3D80 /* 000005FA */]
0000437C  2F2D B42A                move.l     -[A7], [A5 - 0x4BD6]
00004380  4EAD 0232                jsr        [A5 + 0x232 /* export_66, CODE:1 @ 0000468C */]
00004384  2F0E                     move.l     -[A7], A6
00004386  4EBA FF50                jsr        [PC - 0xB0 /* 000042D8 */]
0000438A  4A6D B3D6                tst.w      [A5 - 0x4C2A]
0000438E  6712                     beq        +0x14 /* 000043A2 */
00004390  486E FF00                pea.l      [A6 - 0x100]
00004394  3F3C 005C                move.w     -[A7], 0x5C /* '\\' */
00004398  4EBA CC56                jsr        [PC - 0x33AA /* 00000FF0 */]
0000439C  2F0E                     move.l     -[A7], A6
0000439E  4EBA FF76                jsr        [PC - 0x8A /* 00004316 */]
label000043A2:
000043A2  4267                     clr.w      -[A7]
000043A4  2F2E 0008                move.l     -[A7], [A6 + 0x8]
000043A8  487A 0104                pea.l      [PC + 0x104 /* 000044AE, value 0x7456E67, pstring "English" */]
000043AC  4EAD 1AC2                jsr        [A5 + 0x1AC2 /* export_852, CODE:16 @ 00001B82 */]
000043B0  101F                     move.b     D0, [A7]+
000043B2  6704                     beq        +0x6 /* 000043B8 */
000043B4  6000 00E6                bra        +0xE8 /* 0000449C */
label000043B8:
000043B8  42A7                     clr.l      -[A7]
000043BA  2F3A 00EE                move.l     -[A7], [PC + 0xEE /* 000044AA, value 0x5754524E 'WTRN' */]
000043BE  2F2E 0008                move.l     -[A7], [A6 + 0x8]
000043C2  A9A1                     syscall    GetNamedResource
000043C4  2B5F B42A                move.l     [A5 - 0x4BD6], [A7]+
000043C8  57C0                     seq        D0
000043CA  2F00                     move.l     -[A7], D0
000043CC  4267                     clr.w      -[A7]
000043CE  A9AF                     syscall    ResError
000043D0  321F                     move.w     D1, [A7]+
000043D2  201F                     move.l     D0, [A7]+
000043D4  4A41                     tst.w      D1
000043D6  56C1                     sne        D1
000043D8  8001                     or.b       D0, D1
000043DA  6712                     beq        +0x14 /* 000043EE */
000043DC  486E FF00                pea.l      [A6 - 0x100]
000043E0  3F3C 005B                move.w     -[A7], 0x5B /* '[' */
000043E4  4EBA CC0A                jsr        [PC - 0x33F6 /* 00000FF0 */]
000043E8  2F0E                     move.l     -[A7], A6
000043EA  4EBA FF2A                jsr        [PC - 0xD6 /* 00004316 */]
label000043EE:
000043EE  2F2D B42A                move.l     -[A7], [A5 - 0x4BD6]
000043F2  A9A2                     syscall    LoadResource
000043F4  4267                     clr.w      -[A7]
000043F6  A9AF                     syscall    ResError
000043F8  4A5F                     tst.w      [A7]+
000043FA  6712                     beq        +0x14 /* 0000440E */
000043FC  486E FF00                pea.l      [A6 - 0x100]
00004400  3F3C 005A                move.w     -[A7], 0x5A /* 'Z' */
00004404  4EBA CBEA                jsr        [PC - 0x3416 /* 00000FF0 */]
00004408  2F0E                     move.l     -[A7], A6
0000440A  4EBA FF0A                jsr        [PC - 0xF6 /* 00004316 */]
label0000440E:
0000440E  206E 0008                movea.l    A0, [A6 + 0x8]
00004412  43ED B42E                lea.l      A1, [A5 - 0x4BD2]
00004416  703F                     moveq.l    D0, 0x3F
label00004418:
00004418  22D8                     move.l     [A1]+, [A0]+
0000441A  51C8 FFFC                dbf        D0, -0x6 /* 00004418 */
0000441E  426D B3D4                clr.w      [A5 - 0x4C2C]
00004422  4EBA C1D6                jsr        [PC - 0x3E2A /* 000005FA */]
00004426  4A6D B3D6                tst.w      [A5 - 0x4C2A]
0000442A  6712                     beq        +0x14 /* 0000443E */
0000442C  486E FF00                pea.l      [A6 - 0x100]
00004430  3F3C 0059                move.w     -[A7], 0x59 /* 'Y' */
00004434  4EBA CBBA                jsr        [PC - 0x3446 /* 00000FF0 */]
00004438  2F0E                     move.l     -[A7], A6
0000443A  4EBA FEDA                jsr        [PC - 0x126 /* 00004316 */]
label0000443E:
0000443E  3B7C 0003 B3D4           move.w     [A5 - 0x4C2C], 0x3
00004444  42A7                     clr.l      -[A7]
00004446  486D B10E                pea.l      [A5 - 0x4EF2]
0000444A  4EAD 190A                jsr        [A5 + 0x190A /* export_797, CODE:16 @ 00000A44 */]
0000444E  2B5F B3D8                move.l     [A5 - 0x4C28], [A7]+
00004452  42A7                     clr.l      -[A7]
00004454  42A7                     clr.l      -[A7]
00004456  4EAD 18DA                jsr        [A5 + 0x18DA /* export_791, CODE:16 @ 00000896 */]
0000445A  2B5F B3DC                move.l     [A5 - 0x4C24], [A7]+
0000445E  4EBA C19A                jsr        [PC - 0x3E66 /* 000005FA */]
00004462  4A6D B3D6                tst.w      [A5 - 0x4C2A]
00004466  6712                     beq        +0x14 /* 0000447A */
00004468  486E FF00                pea.l      [A6 - 0x100]
0000446C  3F3C 0058                move.w     -[A7], 0x58 /* 'X' */
00004470  4EBA CB7E                jsr        [PC - 0x3482 /* 00000FF0 */]
00004474  2F0E                     move.l     -[A7], A6
00004476  4EBA FE9E                jsr        [PC - 0x162 /* 00004316 */]
label0000447A:
0000447A  2F2D B3DC                move.l     -[A7], [A5 - 0x4C24]
0000447E  4EAD 0222                jsr        [A5 + 0x222 /* export_64, CODE:1 @ 00004678 */]
00004482  206D B3DC                movea.l    A0, [A5 - 0x4C24]
00004486  2F10                     move.l     -[A7], [A0]
00004488  4EBA FD0C                jsr        [PC - 0x2F4 /* 00004196 */]
0000448C  2F2D B3DC                move.l     -[A7], [A5 - 0x4C24]
00004490  4EAD 18D2                jsr        [A5 + 0x18D2 /* export_790, CODE:16 @ 0000083E */]
00004494  2F2D B3D8                move.l     -[A7], [A5 - 0x4C28]
00004498  4EAD 18D2                jsr        [A5 + 0x18D2 /* export_790, CODE:16 @ 0000083E */]
label0000449C:
0000449C  4FEE FEE0                lea.l      A7, [A6 - 0x120]
000044A0  4CDF 1CF8                movem.l    D3,D4,D5,D6,D7,A2,A3,A4, [A7]+
000044A4  4E5E                     unlink     A6
000044A6  2E9F                     move.l     [A7], [A7]+
000044A8  4E75                     rts
000044AA  5754                     subq.w     [A4], 3
000044AC  524E                     addq.w     A6, 1
000044AE  0745                     bchg       D5, D3
000044B0  6E67                     bgt        +0x69 /* 00004519 */
000044B2  6C69                     bge        +0x6B /* 0000451D */
000044B4  7368                     moveq.l    D1, 0x68
export_376:
fn000044B6:
000044B6  4E56 FFD2                link       A6, -0x002E
000044BA  48E7 0F00                movem.l    -[A7], D4,D5,D6,D7
000044BE  206E 0008                movea.l    A0, [A6 + 0x8]
000044C2  43EE FFE0                lea.l      A1, [A6 - 0x20]
000044C6  7007                     moveq.l    D0, 0x07
label000044C8:
000044C8  22D8                     move.l     [A1]+, [A0]+
000044CA  51C8 FFFC                dbf        D0, -0x6 /* 000044C8 */
000044CE  426E FFD8                clr.w      [A6 - 0x28]
000044D2  426E FFDA                clr.w      [A6 - 0x26]
000044D6  4247                     clr.w      D7
000044D8  4206                     clr.b      D6
000044DA  4240                     clr.w      D0
000044DC  102E FFE0                move.b     D0, [A6 - 0x20]
000044E0  3D40 FFD2                move.w     [A6 - 0x2E], D0
000044E4  7A01                     moveq.l    D5, 0x01
000044E6  603A                     bra        +0x3C /* 00004522 */
label000044E8:
000044E8  4240                     clr.w      D0
000044EA  1036 50E0                move.b     D0, [A6 + D5.w - 0x20]
000044EE  3800                     move.w     D4, D0
000044F0  702E                     moveq.l    D0, 0x2E
000044F2  B044                     cmp.w      D0, D4
000044F4  6604                     bne        +0x6 /* 000044FA */
000044F6  7C01                     moveq.l    D6, 0x01
000044F8  6024                     bra        +0x26 /* 0000451E */
label000044FA:
000044FA  7023                     moveq.l    D0, 0x23
000044FC  B044                     cmp.w      D0, D4
000044FE  57C0                     seq        D0
00004500  C006                     and.b      D0, D6
00004502  6704                     beq        +0x6 /* 00004508 */
00004504  5247                     addq.w     D7, 1
00004506  6016                     bra        +0x18 /* 0000451E */
label00004508:
00004508  7030                     moveq.l    D0, 0x30
0000450A  B044                     cmp.w      D0, D4
0000450C  6610                     bne        +0x12 /* 0000451E */
0000450E  1006                     move.b     D0, D6
00004510  6708                     beq        +0xA /* 0000451A */
00004512  526E FFDA                addq.w     [A6 - 0x26], 1
00004516  5247                     addq.w     D7, 1
00004518  6004                     bra        +0x6 /* 0000451E */
label0000451A:
0000451A  526E FFD8                addq.w     [A6 - 0x28], 1
label0000451E:
0000451E  5245                     addq.w     D5, 1
00004520  6906                     bvs        +0x8 /* 00004528 */
label00004522:
00004522  BA6E FFD2                cmp.w      D5, [A6 - 0x2E]
00004526  6FC0                     ble        -0x3E /* 000044E8 */
label00004528:
00004528  3B6E FFD8 B3AE           move.w     [A5 - 0x4C52], [A6 - 0x28]
0000452E  3B6E FFDA B3B0           move.w     [A5 - 0x4C50], [A6 - 0x26]
00004534  3B47 B3B2                move.w     [A5 - 0x4C4E], D7
00004538  41ED B3B4                lea.l      A0, [A5 - 0x4C4C]
0000453C  43EE FFE0                lea.l      A1, [A6 - 0x20]
00004540  7007                     moveq.l    D0, 0x07
label00004542:
00004542  20D9                     move.l     [A0]+, [A1]+
00004544  51C8 FFFC                dbf        D0, -0x6 /* 00004542 */
00004548  4CDF 00F0                movem.l    D4,D5,D6,D7, [A7]+
0000454C  4E5E                     unlink     A6
0000454E  2E9F                     move.l     [A7], [A7]+
00004550  4E75                     rts
export_377:
00004552  4E56 FF00                link       A6, -0x0100
00004556  486E FF00                pea.l      [A6 - 0x100]
0000455A  4EAD 1482                jsr        [A5 + 0x1482 /* export_652, CODE:13 @ 00001714 */]
0000455E  486E FF00                pea.l      [A6 - 0x100]
00004562  4EAD 217A                jsr        [A5 + 0x217A /* export_1067, CODE:20 @ 000038A2 */]
00004566  4E5E                     unlink     A6
00004568  4E75                     rts
export_378:
0000456A  4E56 0000                link       A6, 0
0000456E  2F2D B66C                move.l     -[A7], [A5 - 0x4994]
00004572  202D B674                move.l     D0, [A5 - 0x498C]
00004576  D0BC 0000 07D0           add.l      D0, 0x7D0
0000457C  2F00                     move.l     -[A7], D0
0000457E  4EAD 020A                jsr        [A5 + 0x20A /* export_61, CODE:1 @ 00004654 */]
00004582  2B7C 0000 07D0 B670      move.l     [A5 - 0x4990], 0x7D0
0000458A  4E5E                     unlink     A6
0000458C  4E75                     rts
export_379:
fn0000458E:
0000458E  4E56 0000                link       A6, 0
00004592  2F2E 0008                move.l     -[A7], [A6 + 0x8]
00004596  4EBA 004C                jsr        [PC + 0x4C /* 000045E4 */]
0000459A  206E 0008                movea.l    A0, [A6 + 0x8]
0000459E  2050                     movea.l    A0, [A0]
000045A0  4A10                     tst.b      [A0]
000045A2  6602                     bne        +0x4 /* 000045A6 */
000045A4  6038                     bra        +0x3A /* 000045DE */
label000045A6:
000045A6  206E 0008                movea.l    A0, [A6 + 0x8]
000045AA  2050                     movea.l    A0, [A0]
000045AC  1010                     move.b     D0, [A0]
000045AE  4880                     ext.w      D0
000045B0  722C                     moveq.l    D1, 0x2C
000045B2  B240                     cmp.w      D1, D0
000045B4  56C0                     sne        D0
000045B6  206E 0008                movea.l    A0, [A6 + 0x8]
000045BA  2050                     movea.l    A0, [A0]
000045BC  4A10                     tst.b      [A0]
000045BE  56C1                     sne        D1
000045C0  C001                     and.b      D0, D1
000045C2  6708                     beq        +0xA /* 000045CC */
000045C4  206E 0008                movea.l    A0, [A6 + 0x8]
000045C8  5290                     addq.l     [A0], 1
000045CA  60DA                     bra        -0x24 /* 000045A6 */
label000045CC:
000045CC  206E 0008                movea.l    A0, [A6 + 0x8]
000045D0  2050                     movea.l    A0, [A0]
000045D2  4A10                     tst.b      [A0]
000045D4  6602                     bne        +0x4 /* 000045D8 */
000045D6  6006                     bra        +0x8 /* 000045DE */
label000045D8:
000045D8  206E 0008                movea.l    A0, [A6 + 0x8]
000045DC  5290                     addq.l     [A0], 1
label000045DE:
000045DE  4E5E                     unlink     A6
000045E0  2E9F                     move.l     [A7], [A7]+
000045E2  4E75                     rts
export_380:
fn000045E4:
000045E4  4E56 0000                link       A6, 0
000045E8  2F2E 0008                move.l     -[A7], [A6 + 0x8]
000045EC  4EAD 1ABA                jsr        [A5 + 0x1ABA /* export_851, CODE:16 @ 00001B6E */]
label000045F0:
000045F0  206E 0008                movea.l    A0, [A6 + 0x8]
000045F4  2050                     movea.l    A0, [A0]
000045F6  700D                     moveq.l    D0, 0x0D
000045F8  B010                     cmp.b      D0, [A0]
000045FA  6610                     bne        +0x12 /* 0000460C */
000045FC  206E 0008                movea.l    A0, [A6 + 0x8]
00004600  5290                     addq.l     [A0], 1
00004602  2F2E 0008                move.l     -[A7], [A6 + 0x8]
00004606  4EAD 1ABA                jsr        [A5 + 0x1ABA /* export_851, CODE:16 @ 00001B6E */]
0000460A  60E4                     bra        -0x1A /* 000045F0 */
label0000460C:
0000460C  4E5E                     unlink     A6
0000460E  2E9F                     move.l     [A7], [A7]+
00004610  4E75                     rts
export_381:
fn00004612:
00004612  4E56 0000                link       A6, 0
00004616  0CAE 0000 0400 0008      cmpi.l     [A6 + 0x8], 0x400
0000461E  6F12                     ble        +0x14 /* 00004632 */
00004620  2F2E 0010                move.l     -[A7], [A6 + 0x10]
00004624  2F2E 000C                move.l     -[A7], [A6 + 0xC]
00004628  2F2E 0008                move.l     -[A7], [A6 + 0x8]
0000462C  4EAD 024A                jsr        [A5 + 0x24A /* export_69, CODE:1 @ 000046A6 */]
00004630  6010                     bra        +0x12 /* 00004642 */
label00004632:
00004632  2F2E 0010                move.l     -[A7], [A6 + 0x10]
00004636  2F2E 000C                move.l     -[A7], [A6 + 0xC]
0000463A  2F2E 0008                move.l     -[A7], [A6 + 0x8]
0000463E  4EAD 19B2                jsr        [A5 + 0x19B2 /* export_818, CODE:16 @ 000010BE */]
label00004642:
00004642  4E5E                     unlink     A6
00004644  205F                     movea.l    A0, [A7]+
00004646  DEFC 000C                add.w      A7, 0xC
0000464A  4ED0                     jmp        [A0]
export_382:
0000464C  4E56 FFFC                link       A6, -0x0004
00004650  2F0C                     move.l     -[A7], A4
00004652  206E 0008                movea.l    A0, [A6 + 0x8]
00004656  2850                     movea.l    A4, [A0]
00004658  588C                     addq.l     A4, 4
0000465A  200C                     move.l     D0, A4
0000465C  5480                     addq.l     D0, 2
0000465E  3214                     move.w     D1, [A4]
00004660  E741                     asl        D1.w, 3
00004662  48C1                     ext.l      D1
00004664  2841                     movea.l    A4, D1
00004666  D9C0                     add.l      A4, D0
00004668  2D4C 000C                move.l     [A6 + 0xC], A4
0000466C  285F                     movea.l    A4, [A7]+
0000466E  4E5E                     unlink     A6
00004670  2E9F                     move.l     [A7], [A7]+
00004672  4E75                     rts
export_383:
fn00004674:
00004674  4E56 FFF4                link       A6, -0x000C
00004678  48E7 0308                movem.l    -[A7], D6,D7,A4
0000467C  102D D479                move.b     D0, [A5 - 0x2B87]
00004680  6774                     beq        +0x76 /* 000046F6 */
00004682  3D7C 0066 FFF6           move.w     [A6 - 0xA], 0x66 /* 'f' */
00004688  426E FFF8                clr.w      [A6 - 0x8]
0000468C  7000                     moveq.l    D0, 0x00
0000468E  2D40 FFFA                move.l     [A6 - 0x6], D0
00004692  4267                     clr.w      -[A7]
00004694  2F2D AF14                move.l     -[A7], [A5 - 0x50EC]
00004698  486E FFF6                pea.l      [A6 - 0xA]
0000469C  A804                     syscall    SndDoImmediate
0000469E  3E1F                     move.w     D7, [A7]+
000046A0  3D7C 0003 FFF6           move.w     [A6 - 0xA], 0x3
000046A6  4267                     clr.w      -[A7]
000046A8  2F2D AF14                move.l     -[A7], [A5 - 0x50EC]
000046AC  486E FFF6                pea.l      [A6 - 0xA]
000046B0  4267                     clr.w      -[A7]
000046B2  A803                     syscall    SndDoCommand
000046B4  3E1F                     move.w     D7, [A7]+
000046B6  286D AF14                movea.l    A4, [A5 - 0x50EC]
label000046BA:
000046BA  7000                     moveq.l    D0, 0x00
000046BC  302C 001C                move.w     D0, [A4 + 0x1C]
000046C0  C0BC 0000 0004           and.l      D0, 0x4
000046C6  4A80                     tst.l      D0
000046C8  57C0                     seq        D0
000046CA  4A00                     tst.b      D0
000046CC  671E                     beq        +0x20 /* 000046EC */
000046CE  7200                     moveq.l    D1, 0x00
000046D0  322C 001C                move.w     D1, [A4 + 0x1C]
000046D4  C2BC 0000 0008           and.l      D1, 0x8
000046DA  4A81                     tst.l      D1
000046DC  57C1                     seq        D1
000046DE  C001                     and.b      D0, D1
000046E0  670A                     beq        +0xC /* 000046EC */
000046E2  72FF                     moveq.l    D1, 0xFFFFFFFF
000046E4  B26C 0020                cmp.w      D1, [A4 + 0x20]
000046E8  57C1                     seq        D1
000046EA  C001                     and.b      D0, D1
label000046EC:
000046EC  4400                     neg.b      D0
000046EE  1C00                     move.b     D6, D0
000046F0  7001                     moveq.l    D0, 0x01
000046F2  B006                     cmp.b      D0, D6
000046F4  66C4                     bne        -0x3A /* 000046BA */
label000046F6:
000046F6  4CDF 10C0                movem.l    D6,D7,A4, [A7]+
000046FA  4E5E                     unlink     A6
000046FC  4E75                     rts
export_384:
000046FE  4E56 FFF6                link       A6, -0x000A
00004702  102D D479                move.b     D0, [A5 - 0x2B87]
00004706  6602                     bne        +0x4 /* 0000470A */
00004708  6022                     bra        +0x24 /* 0000472C */
label0000470A:
0000470A  3D7C 0064 FFF6           move.w     [A6 - 0xA], 0x64 /* 'd' */
00004710  426E FFF8                clr.w      [A6 - 0x8]
00004714  7000                     moveq.l    D0, 0x00
00004716  2D40 FFFA                move.l     [A6 - 0x6], D0
0000471A  4267                     clr.w      -[A7]
0000471C  2F2D AF14                move.l     -[A7], [A5 - 0x50EC]
00004720  486E FFF6                pea.l      [A6 - 0xA]
00004724  4267                     clr.w      -[A7]
00004726  A803                     syscall    SndDoCommand
00004728  3D5F FFFE                move.w     [A6 - 0x2], [A7]+
label0000472C:
0000472C  4E5E                     unlink     A6
0000472E  4E75                     rts
export_385:
00004730  4E56 FFF6                link       A6, -0x000A
00004734  102D D479                move.b     D0, [A5 - 0x2B87]
00004738  6602                     bne        +0x4 /* 0000473C */
0000473A  6024                     bra        +0x26 /* 00004760 */
label0000473C:
0000473C  4EBA FF36                jsr        [PC - 0xCA /* 00004674 */]
00004740  3D7C 0065 FFF6           move.w     [A6 - 0xA], 0x65 /* 'e' */
00004746  426E FFF8                clr.w      [A6 - 0x8]
0000474A  7000                     moveq.l    D0, 0x00
0000474C  2D40 FFFA                move.l     [A6 - 0x6], D0
00004750  4267                     clr.w      -[A7]
00004752  2F2D AF14                move.l     -[A7], [A5 - 0x50EC]
00004756  486E FFF6                pea.l      [A6 - 0xA]
0000475A  A804                     syscall    SndDoImmediate
0000475C  3D5F FFFE                move.w     [A6 - 0x2], [A7]+
label00004760:
00004760  4E5E                     unlink     A6
00004762  4E75                     rts
export_386:
00004764  4E56 0000                link       A6, 0
00004768  2F0C                     move.l     -[A7], A4
0000476A  1D7C 0001 0008           move.b     [A6 + 0x8], 0x1
00004770  4267                     clr.w      -[A7]
00004772  4EAD 17FA                jsr        [A5 + 0x17FA /* export_763, CODE:16 @ 0000009E */]
00004776  102D D479                move.b     D0, [A5 - 0x2B87]
0000477A  0A00 0001                xori.b     D0, 0x1
0000477E  801F                     or.b       D0, [A7]+
00004780  6702                     beq        +0x4 /* 00004784 */
00004782  603C                     bra        +0x3E /* 000047C0 */
label00004784:
00004784  286D AF14                movea.l    A4, [A5 - 0x50EC]
00004788  7000                     moveq.l    D0, 0x00
0000478A  302C 001C                move.w     D0, [A4 + 0x1C]
0000478E  C0BC 0000 0004           and.l      D0, 0x4
00004794  4A80                     tst.l      D0
00004796  57C0                     seq        D0
00004798  4A00                     tst.b      D0
0000479A  671E                     beq        +0x20 /* 000047BA */
0000479C  7200                     moveq.l    D1, 0x00
0000479E  322C 001C                move.w     D1, [A4 + 0x1C]
000047A2  C2BC 0000 0008           and.l      D1, 0x8
000047A8  4A81                     tst.l      D1
000047AA  57C1                     seq        D1
000047AC  C001                     and.b      D0, D1
000047AE  670A                     beq        +0xC /* 000047BA */
000047B0  72FF                     moveq.l    D1, 0xFFFFFFFF
000047B2  B26C 0020                cmp.w      D1, [A4 + 0x20]
000047B6  57C1                     seq        D1
000047B8  C001                     and.b      D0, D1
label000047BA:
000047BA  4400                     neg.b      D0
000047BC  1D40 0008                move.b     [A6 + 0x8], D0
label000047C0:
000047C0  285F                     movea.l    A4, [A7]+
000047C2  4E5E                     unlink     A6
000047C4  4E75                     rts
export_387:
000047C6  4E56 FFF6                link       A6, -0x000A
000047CA  48E7 0308                movem.l    -[A7], D6,D7,A4
000047CE  422E 000C                clr.b      [A6 + 0xC]
000047D2  206E 0008                movea.l    A0, [A6 + 0x8]
000047D6  2850                     movea.l    A4, [A0]
000047D8  588C                     addq.l     A4, 4
000047DA  3C14                     move.w     D6, [A4]
000047DC  548C                     addq.l     A4, 2
000047DE  3D46 FFF6                move.w     [A6 - 0xA], D6
000047E2  7E01                     moveq.l    D7, 0x01
000047E4  601E                     bra        +0x20 /* 00004804 */
label000047E6:
000047E6  7028                     moveq.l    D0, 0x28
000047E8  B054                     cmp.w      D0, [A4]
000047EA  57C0                     seq        D0
000047EC  722A                     moveq.l    D1, 0x2A
000047EE  B254                     cmp.w      D1, [A4]
000047F0  57C1                     seq        D1
000047F2  8001                     or.b       D0, D1
000047F4  6708                     beq        +0xA /* 000047FE */
000047F6  1D7C 0001 000C           move.b     [A6 + 0xC], 0x1
000047FC  600C                     bra        +0xE /* 0000480A */
label000047FE:
000047FE  508C                     addq.l     A4, 8
00004800  5247                     addq.w     D7, 1
00004802  6906                     bvs        +0x8 /* 0000480A */
label00004804:
00004804  BE6E FFF6                cmp.w      D7, [A6 - 0xA]
00004808  6FDC                     ble        -0x22 /* 000047E6 */
label0000480A:
0000480A  4CDF 10C0                movem.l    D6,D7,A4, [A7]+
0000480E  4E5E                     unlink     A6
00004810  2E9F                     move.l     [A7], [A7]+
00004812  4E75                     rts
export_388:
00004814  4E56 FEF6                link       A6, -0x010A
00004818  48E7 0118                movem.l    -[A7], D7,A3,A4
0000481C  206E 0008                movea.l    A0, [A6 + 0x8]
00004820  43EE FF00                lea.l      A1, [A6 - 0x100]
00004824  703F                     moveq.l    D0, 0x3F
label00004826:
00004826  22D8                     move.l     [A1]+, [A0]+
00004828  51C8 FFFC                dbf        D0, -0x6 /* 00004826 */
0000482C  7000                     moveq.l    D0, 0x00
0000482E  2D40 000C                move.l     [A6 + 0xC], D0
00004832  42A7                     clr.l      -[A7]
00004834  2F3A 0056                move.l     -[A7], [PC + 0x56 /* 0000488C, value 0x736E6420 'snd ' */]
00004838  486E FF00                pea.l      [A6 - 0x100]
0000483C  A9A1                     syscall    GetNamedResource
0000483E  285F                     movea.l    A4, [A7]+
00004840  200C                     move.l     D0, A4
00004842  6602                     bne        +0x4 /* 00004846 */
00004844  603C                     bra        +0x3E /* 00004882 */
label00004846:
00004846  2654                     movea.l    A3, [A4]
00004848  7002                     moveq.l    D0, 0x02
0000484A  B053                     cmp.w      D0, [A3]
0000484C  57C7                     seq        D7
0000484E  4407                     neg.b      D7
00004850  7001                     moveq.l    D0, 0x01
00004852  B053                     cmp.w      D0, [A3]
00004854  6612                     bne        +0x14 /* 00004868 */
00004856  548B                     addq.l     A3, 2
00004858  4A53                     tst.w      [A3]
0000485A  57C0                     seq        D0
0000485C  0C53 0100                cmpi.w     [A3], 0x100
00004860  5EC1                     sgt        D1
00004862  8001                     or.b       D0, D1
00004864  4400                     neg.b      D0
00004866  1E00                     move.b     D7, D0
label00004868:
00004868  1007                     move.b     D0, D7
0000486A  6716                     beq        +0x18 /* 00004882 */
0000486C  2F0C                     move.l     -[A7], A4
0000486E  4EAD 01DA                jsr        [A5 + 0x1DA /* export_55, CODE:1 @ 000043FE */]
00004872  2F0C                     move.l     -[A7], A4
00004874  4EAD 0222                jsr        [A5 + 0x222 /* export_64, CODE:1 @ 00004678 */]
00004878  2F0C                     move.l     -[A7], A4
0000487A  4EAD 023A                jsr        [A5 + 0x23A /* export_67, CODE:1 @ 00004696 */]
0000487E  2D4C 000C                move.l     [A6 + 0xC], A4
label00004882:
00004882  4CDF 1880                movem.l    D7,A3,A4, [A7]+
00004886  4E5E                     unlink     A6
00004888  2E9F                     move.l     [A7], [A7]+
0000488A  4E75                     rts
0000488C  736E                     moveq.l    D1, 0x6E
0000488E  6420                     bcc        +0x22 /* 000048B0 */
export_389:
00004890  4E56 FFF0                link       A6, -0x0010
00004894  48E7 0108                movem.l    -[A7], D7,A4
00004898  206E 0008                movea.l    A0, [A6 + 0x8]
0000489C  2850                     movea.l    A4, [A0]
0000489E  548C                     addq.l     A4, 2
000048A0  4A54                     tst.w      [A4]
000048A2  6606                     bne        +0x8 /* 000048AA */
000048A4  38BC 0101                move.w     [A4], 0x101
000048A8  6002                     bra        +0x4 /* 000048AC */
label000048AA:
000048AA  5254                     addq.w     [A4], 1
label000048AC:
000048AC  4267                     clr.w      -[A7]
000048AE  2F2D AAEA                move.l     -[A7], [A5 - 0x5516]
// begin alternate branch 000048B0-000048B2
label000048B0:
000048B0  AAEA                     syscall    0xAEA
// end alternate branch 000048B0-000048B2
label000048B0: // (misaligned)
000048B2  4EAD 1912                jsr        [A5 + 0x1912 /* export_798, CODE:16 @ 00000BA6 */]
000048B6  101F                     move.b     D0, [A7]+
000048B8  670A                     beq        +0xC /* 000048C4 */
000048BA  2F3C 0000 0D94           move.l     -[A7], 0xD94
000048C0  4EAD 185A                jsr        [A5 + 0x185A /* export_775, CODE:16 @ 0000042E */]
label000048C4:
000048C4  4267                     clr.w      -[A7]
000048C6  2F2D AF14                move.l     -[A7], [A5 - 0x50EC]
000048CA  2F2D AAEA                move.l     -[A7], [A5 - 0x5516]
000048CE  1F3C 0001                move.b     -[A7], 0x1
000048D2  4EBA 0040                jsr        [PC + 0x40 /* 00004914 */]
000048D6  3E1F                     move.w     D7, [A7]+
000048D8  2F2D AAEA                move.l     -[A7], [A5 - 0x5516]
000048DC  4EAD 0222                jsr        [A5 + 0x222 /* export_64, CODE:1 @ 00004678 */]
000048E0  2F2D AAEA                move.l     -[A7], [A5 - 0x5516]
000048E4  4EAD 023A                jsr        [A5 + 0x23A /* export_67, CODE:1 @ 00004696 */]
000048E8  3D7C 000D FFF6           move.w     [A6 - 0xA], 0xD /* '\r' */
000048EE  426E FFF8                clr.w      [A6 - 0x8]
000048F2  2D6E 0008 FFFA           move.l     [A6 - 0x6], [A6 + 0x8]
000048F8  4267                     clr.w      -[A7]
000048FA  2F2E 000C                move.l     -[A7], [A6 + 0xC]
000048FE  486E FFF6                pea.l      [A6 - 0xA]
00004902  4267                     clr.w      -[A7]
00004904  A803                     syscall    SndDoCommand
00004906  3E1F                     move.w     D7, [A7]+
00004908  4CDF 1080                movem.l    D7,A4, [A7]+
0000490C  4E5E                     unlink     A6
0000490E  205F                     movea.l    A0, [A7]+
00004910  504F                     addq.w     A7, 8
00004912  4ED0                     jmp        [A0]
export_390:
fn00004914:
00004914  4E56 FFEC                link       A6, -0x0014
00004918  48E7 0308                movem.l    -[A7], D6,D7,A4
0000491C  426E 0012                clr.w      [A6 + 0x12]
00004920  102E 0008                move.b     D0, [A6 + 0x8]
00004924  660A                     bne        +0xC /* 00004930 */
00004926  2F3C 0001 2C3F           move.l     -[A7], 0x12C3F
0000492C  4EAD 185A                jsr        [A5 + 0x185A /* export_775, CODE:16 @ 0000042E */]
label00004930:
00004930  206E 000A                movea.l    A0, [A6 + 0xA]
00004934  2850                     movea.l    A4, [A0]
00004936  588C                     addq.l     A4, 4
00004938  3C14                     move.w     D6, [A4]
0000493A  548C                     addq.l     A4, 2
0000493C  3D46 FFEC                move.w     [A6 - 0x14], D6
00004940  7E01                     moveq.l    D7, 0x01
00004942  6052                     bra        +0x54 /* 00004996 */
label00004944:
00004944  3D54 FFEE                move.w     [A6 - 0x12], [A4]
00004948  548C                     addq.l     A4, 2
0000494A  3D54 FFF0                move.w     [A6 - 0x10], [A4]
0000494E  548C                     addq.l     A4, 2
00004950  7000                     moveq.l    D0, 0x00
00004952  302E FFEE                move.w     D0, [A6 - 0x12]
00004956  C0BC FFFF 8000           and.l      D0, 0xFFFF8000
0000495C  4A80                     tst.l      D0
0000495E  6606                     bne        +0x8 /* 00004966 */
00004960  2D54 FFF2                move.l     [A6 - 0xE], [A4]
00004964  6018                     bra        +0x1A /* 0000497E */
label00004966:
00004966  206E 000A                movea.l    A0, [A6 + 0xA]
0000496A  2014                     move.l     D0, [A4]
0000496C  D090                     add.l      D0, [A0]
0000496E  2D40 FFF2                move.l     [A6 - 0xE], D0
00004972  302E FFEE                move.w     D0, [A6 - 0x12]
00004976  907C 8000                sub.w      D0, 0x8000
0000497A  3D40 FFEE                move.w     [A6 - 0x12], D0
label0000497E:
0000497E  4267                     clr.w      -[A7]
00004980  2F2E 000E                move.l     -[A7], [A6 + 0xE]
00004984  486E FFEE                pea.l      [A6 - 0x12]
00004988  4267                     clr.w      -[A7]
0000498A  A803                     syscall    SndDoCommand
0000498C  3D5F 0012                move.w     [A6 + 0x12], [A7]+
00004990  588C                     addq.l     A4, 4
00004992  5247                     addq.w     D7, 1
00004994  6906                     bvs        +0x8 /* 0000499C */
label00004996:
00004996  BE6E FFEC                cmp.w      D7, [A6 - 0x14]
0000499A  6FA8                     ble        -0x56 /* 00004944 */
label0000499C:
0000499C  4CDF 10C0                movem.l    D6,D7,A4, [A7]+
000049A0  4E5E                     unlink     A6
000049A2  205F                     movea.l    A0, [A7]+
000049A4  DEFC 000A                add.w      A7, 0xA /* '\n' */
000049A8  4ED0                     jmp        [A0]
export_391:
000049AA  4E56 FEF0                link       A6, -0x0110
000049AE  2F2E 0008                move.l     -[A7], [A6 + 0x8]
000049B2  486E FFF4                pea.l      [A6 - 0xC]
000049B6  486E FFF0                pea.l      [A6 - 0x10]
000049BA  486E FEF0                pea.l      [A6 - 0x110]
000049BE  A9A8                     syscall    GetResInfo
000049C0  3D7C 000D FFF6           move.w     [A6 - 0xA], 0xD /* '\r' */
000049C6  3D7C 0001 FFF8           move.w     [A6 - 0x8], 0x1
000049CC  302E FFF4                move.w     D0, [A6 - 0xC]
000049D0  48C0                     ext.l      D0
000049D2  2D40 FFFA                move.l     [A6 - 0x6], D0
000049D6  4267                     clr.w      -[A7]
000049D8  2F2E 000C                move.l     -[A7], [A6 + 0xC]
000049DC  486E FFF6                pea.l      [A6 - 0xA]
000049E0  4267                     clr.w      -[A7]
000049E2  A803                     syscall    SndDoCommand
000049E4  3D5F FFFE                move.w     [A6 - 0x2], [A7]+
000049E8  4E5E                     unlink     A6
000049EA  205F                     movea.l    A0, [A7]+
000049EC  504F                     addq.w     A7, 8
000049EE  4ED0                     jmp        [A0]
export_392:
000049F0  4E56 FFEC                link       A6, -0x0014
000049F4  48E7 0118                movem.l    -[A7], D7,A3,A4
000049F8  2E2E 000C                move.l     D7, [A6 + 0xC]
000049FC  206E 0008                movea.l    A0, [A6 + 0x8]
00004A00  43EE FFEC                lea.l      A1, [A6 - 0x14]
00004A04  22D8                     move.l     [A1]+, [A0]+
00004A06  22D8                     move.l     [A1]+, [A0]+
00004A08  4A6E FFEE                tst.w      [A6 - 0x12]
00004A0C  6630                     bne        +0x32 /* 00004A3E */
00004A0E  266E FFF0                movea.l    A3, [A6 - 0x10]
00004A12  B7ED AAEA                cmpa.l     A3, [A5 - 0x5516]
00004A16  6602                     bne        +0x4 /* 00004A1A */
00004A18  602A                     bra        +0x2C /* 00004A44 */
label00004A1A:
00004A1A  2853                     movea.l    A4, [A3]
00004A1C  548C                     addq.l     A4, 2
00004A1E  0C54 0100                cmpi.w     [A4], 0x100
00004A22  6E02                     bgt        +0x4 /* 00004A26 */
00004A24  601E                     bra        +0x20 /* 00004A44 */
label00004A26:
00004A26  5354                     subq.w     [A4], 1
00004A28  0C54 0100                cmpi.w     [A4], 0x100
00004A2C  660E                     bne        +0x10 /* 00004A3C */
00004A2E  4254                     clr.w      [A4]
00004A30  2F0B                     move.l     -[A7], A3
00004A32  4EAD 1C62                jsr        [A5 + 0x1C62 /* export_904, CODE:17 @ 00001226 */]
00004A36  2F0B                     move.l     -[A7], A3
00004A38  4EAD 1C6A                jsr        [A5 + 0x1C6A /* export_905, CODE:17 @ 00001230 */]
label00004A3C:
00004A3C  6006                     bra        +0x8 /* 00004A44 */
label00004A3E:
00004A3E  3B6E FFF2 AAEE           move.w     [A5 - 0x5512], [A6 - 0xE]
label00004A44:
00004A44  4CDF 1880                movem.l    D7,A3,A4, [A7]+
00004A48  4E5E                     unlink     A6
00004A4A  205F                     movea.l    A0, [A7]+
00004A4C  504F                     addq.w     A7, 8
00004A4E  4ED0                     jmp        [A0]
export_393:
00004A50  4E56 FF48                link       A6, -0x00B8
00004A54  422E 0010                clr.b      [A6 + 0x10]
00004A58  486E FFA4                pea.l      [A6 - 0x5C]
00004A5C  4EAD 179A                jsr        [A5 + 0x179A /* export_751, CODE:15 @ 000063EC */]
00004A60  42A7                     clr.l      -[A7]
00004A62  2F2E 000C                move.l     -[A7], [A6 + 0xC]
00004A66  4EAD 1FE2                jsr        [A5 + 0x1FE2 /* export_1016, CODE:19 @ 0000227C */]
00004A6A  2D5F FFA0                move.l     [A6 - 0x60], [A7]+
00004A6E  1D7C 0001 FF48           move.b     [A6 - 0xB8], 0x1
00004A74  7001                     moveq.l    D0, 0x01
00004A76  2D40 FF4E                move.l     [A6 - 0xB2], D0
00004A7A  1D7C 0005 FF74           move.b     [A6 - 0x8C], 0x5
00004A80  4267                     clr.w      -[A7]
00004A82  486E FF48                pea.l      [A6 - 0xB8]
00004A86  4EAD 2042                jsr        [A5 + 0x2042 /* export_1028, CODE:20 @ 00000472 */]
00004A8A  101F                     move.b     D0, [A7]+
00004A8C  6602                     bne        +0x4 /* 00004A90 */
00004A8E  602A                     bra        +0x2C /* 00004ABA */
label00004A90:
00004A90  2F2E 0008                move.l     -[A7], [A6 + 0x8]
00004A94  4EBA C268                jsr        [PC - 0x3D98 /* 00000CFE */]
00004A98  206E 0008                movea.l    A0, [A6 + 0x8]
00004A9C  10BC 0004                move.b     [A0], 0x4
00004AA0  4267                     clr.w      -[A7]
00004AA2  486E FFA4                pea.l      [A6 - 0x5C]
00004AA6  4EAD 2042                jsr        [A5 + 0x2042 /* export_1028, CODE:20 @ 00000472 */]
00004AAA  101F                     move.b     D0, [A7]+
00004AAC  6708                     beq        +0xA /* 00004AB6 */
00004AAE  1D7C 0001 0010           move.b     [A6 + 0x10], 0x1
00004AB4  6004                     bra        +0x6 /* 00004ABA */
label00004AB6:
00004AB6  4EAD 1812                jsr        [A5 + 0x1812 /* export_766, CODE:16 @ 00000208 */]
label00004ABA:
00004ABA  4E5E                     unlink     A6
00004ABC  205F                     movea.l    A0, [A7]+
00004ABE  504F                     addq.w     A7, 8
00004AC0  4ED0                     jmp        [A0]
export_394:
00004AC2  4E56 FEE6                link       A6, -0x011A
00004AC6  48E7 0F18                movem.l    -[A7], D4,D5,D6,D7,A3,A4
00004ACA  266E 0008                movea.l    A3, [A6 + 0x8]
00004ACE  7000                     moveq.l    D0, 0x00
00004AD0  2680                     move.l     [A3], D0
00004AD2  7000                     moveq.l    D0, 0x00
00004AD4  2840                     movea.l    A4, D0
00004AD6  2D6E 000C FFF0           move.l     [A6 - 0x10], [A6 + 0xC]
00004ADC  486E FFF0                pea.l      [A6 - 0x10]
00004AE0  486E FEEF                pea.l      [A6 - 0x111]
00004AE4  4EBA 0CFA                jsr        [PC + 0xCFA /* 000057E0 */]
label00004AE8:
00004AE8  206E FFF0                movea.l    A0, [A6 - 0x10]
00004AEC  4A10                     tst.b      [A0]
00004AEE  6700 0102                beq        +0x104 /* 00004BF2 */
00004AF2  4A93                     tst.l      [A3]
00004AF4  6622                     bne        +0x24 /* 00004B18 */
00004AF6  4245                     clr.w      D5
00004AF8  4246                     clr.w      D6
00004AFA  7E14                     moveq.l    D7, 0x14
00004AFC  42A7                     clr.l      -[A7]
00004AFE  2F3C 0000 0118           move.l     -[A7], 0x118
00004B04  4EAD 18DA                jsr        [A5 + 0x18DA /* export_791, CODE:16 @ 00000896 */]
00004B08  269F                     move.l     [A3], [A7]+
00004B0A  660C                     bne        +0xE /* 00004B18 */
00004B0C  3F3C 002D                move.w     -[A7], 0x2D /* '-' */
00004B10  4EBA C046                jsr        [PC - 0x3FBA /* 00000B58 */]
00004B14  6000 012C                bra        +0x12E /* 00004C42 */
label00004B18:
00004B18  BE45                     cmp.w      D7, D5
00004B1A  6634                     bne        +0x36 /* 00004B50 */
00004B1C  DE7C 0014                add.w      D7, 0x14
00004B20  2F13                     move.l     -[A7], [A3]
00004B22  3007                     move.w     D0, D7
00004B24  C1FC 000E                muls.w     D0, 0xE
00004B28  48C0                     ext.l      D0
00004B2A  2F00                     move.l     -[A7], D0
00004B2C  4EAD 1982                jsr        [A5 + 0x1982 /* export_812, CODE:16 @ 00000EAC */]
00004B30  4267                     clr.w      -[A7]
00004B32  3EB8 0220                move.w     [A7], [0x00000220 /* MemErr */]
00004B36  4A5F                     tst.w      [A7]+
00004B38  6716                     beq        +0x18 /* 00004B50 */
00004B3A  3F3C 002D                move.w     -[A7], 0x2D /* '-' */
00004B3E  4EBA C018                jsr        [PC - 0x3FE8 /* 00000B58 */]
00004B42  2F13                     move.l     -[A7], [A3]
00004B44  4EAD 18D2                jsr        [A5 + 0x18D2 /* export_790, CODE:16 @ 0000083E */]
00004B48  7000                     moveq.l    D0, 0x00
00004B4A  2680                     move.l     [A3], D0
00004B4C  6000 00F4                bra        +0xF6 /* 00004C42 */
label00004B50:
00004B50  280C                     move.l     D4, A4
00004B52  2053                     movea.l    A0, [A3]
00004B54  3006                     move.w     D0, D6
00004B56  48C0                     ext.l      D0
00004B58  2840                     movea.l    A4, D0
00004B5A  D9D0                     add.l      A4, [A0]
00004B5C  202E FFF0                move.l     D0, [A6 - 0x10]
00004B60  90AE 000C                sub.l      D0, [A6 + 0xC]
00004B64  3940 0004                move.w     [A4 + 0x4], D0
00004B68  4A84                     tst.l      D4
00004B6A  6710                     beq        +0x12 /* 00004B7C */
00004B6C  2044                     movea.l    A0, D4
00004B6E  302C 0004                move.w     D0, [A4 + 0x4]
00004B72  9068 0004                sub.w      D0, [A0 + 0x4]
00004B76  2044                     movea.l    A0, D4
00004B78  3140 0006                move.w     [A0 + 0x6], D0
label00004B7C:
00004B7C  486E FFF0                pea.l      [A6 - 0x10]
00004B80  486E FEF0                pea.l      [A6 - 0x110]
00004B84  4EAD 1A2A                jsr        [A5 + 0x1A2A /* export_833, CODE:16 @ 000014AE */]
00004B88  202E FFF0                move.l     D0, [A6 - 0x10]
00004B8C  90AE 000C                sub.l      D0, [A6 + 0xC]
00004B90  3940 0002                move.w     [A4 + 0x2], D0
00004B94  486E FFF0                pea.l      [A6 - 0x10]
00004B98  486E FEF0                pea.l      [A6 - 0x110]
00004B9C  4EAD 1A2A                jsr        [A5 + 0x1A2A /* export_833, CODE:16 @ 000014AE */]
00004BA0  4267                     clr.w      -[A7]
00004BA2  486E FEF0                pea.l      [A6 - 0x110]
00004BA6  4EAD 1ACA                jsr        [A5 + 0x1ACA /* export_853, CODE:16 @ 00001BBE */]
00004BAA  3D5F FEEC                move.w     [A6 - 0x114], [A7]+
00004BAE  102E FEEF                move.b     D0, [A6 - 0x111]
00004BB2  670A                     beq        +0xC /* 00004BBE */
00004BB4  302E FEEC                move.w     D0, [A6 - 0x114]
00004BB8  4440                     neg.w      D0
00004BBA  3D40 FEEC                move.w     [A6 - 0x114], D0
label00004BBE:
00004BBE  2D4C FEE6                move.l     [A6 - 0x11A], A4
00004BC2  206E FEE6                movea.l    A0, [A6 - 0x11A]
00004BC6  30AE FEEC                move.w     [A0], [A6 - 0x114]
00004BCA  206E FEE6                movea.l    A0, [A6 - 0x11A]
00004BCE  7000                     moveq.l    D0, 0x00
00004BD0  2140 0008                move.l     [A0 + 0x8], D0
00004BD4  206E FEE6                movea.l    A0, [A6 - 0x11A]
00004BD8  4268 000C                clr.w      [A0 + 0xC]
00004BDC  5245                     addq.w     D5, 1
00004BDE  DC7C 000E                add.w      D6, 0xE
00004BE2  486E FFF0                pea.l      [A6 - 0x10]
00004BE6  486E FEEF                pea.l      [A6 - 0x111]
00004BEA  4EBA 0BF4                jsr        [PC + 0xBF4 /* 000057E0 */]
00004BEE  6000 FEF8                bra        -0x106 /* 00004AE8 */
label00004BF2:
00004BF2  200C                     move.l     D0, A4
00004BF4  674C                     beq        +0x4E /* 00004C42 */
00004BF6  202E FFF0                move.l     D0, [A6 - 0x10]
00004BFA  90AE 000C                sub.l      D0, [A6 + 0xC]
00004BFE  322C 0004                move.w     D1, [A4 + 0x4]
00004C02  48C1                     ext.l      D1
00004C04  9081                     sub.l      D0, D1
00004C06  3940 0006                move.w     [A4 + 0x6], D0
00004C0A  BE45                     cmp.w      D7, D5
00004C0C  6E28                     bgt        +0x2A /* 00004C36 */
00004C0E  2F13                     move.l     -[A7], [A3]
00004C10  3007                     move.w     D0, D7
00004C12  5240                     addq.w     D0, 1
00004C14  C1FC 000E                muls.w     D0, 0xE
00004C18  48C0                     ext.l      D0
00004C1A  2F00                     move.l     -[A7], D0
00004C1C  4EAD 1982                jsr        [A5 + 0x1982 /* export_812, CODE:16 @ 00000EAC */]
00004C20  4267                     clr.w      -[A7]
00004C22  3EB8 0220                move.w     [A7], [0x00000220 /* MemErr */]
00004C26  4A5F                     tst.w      [A7]+
00004C28  670C                     beq        +0xE /* 00004C36 */
00004C2A  3F3C 002D                move.w     -[A7], 0x2D /* '-' */
00004C2E  4EBA BF28                jsr        [PC - 0x40D8 /* 00000B58 */]
00004C32  9C7C 000E                sub.w      D6, 0xE
label00004C36:
00004C36  2053                     movea.l    A0, [A3]
00004C38  3006                     move.w     D0, D6
00004C3A  48C0                     ext.l      D0
00004C3C  2840                     movea.l    A4, D0
00004C3E  D9D0                     add.l      A4, [A0]
00004C40  4254                     clr.w      [A4]
label00004C42:
00004C42  4CDF 18F0                movem.l    D4,D5,D6,D7,A3,A4, [A7]+
00004C46  4E5E                     unlink     A6
00004C48  205F                     movea.l    A0, [A7]+
00004C4A  504F                     addq.w     A7, 8
00004C4C  4ED0                     jmp        [A0]
export_395:
fn00004C4E:
00004C4E  4E56 FEFE                link       A6, -0x0102
00004C52  2F07                     move.l     -[A7], D7
00004C54  206E 000C                movea.l    A0, [A6 + 0xC]
00004C58  43EE FF00                lea.l      A1, [A6 - 0x100]
00004C5C  703F                     moveq.l    D0, 0x3F
label00004C5E:
00004C5E  22D8                     move.l     [A1]+, [A0]+
00004C60  51C8 FFFC                dbf        D0, -0x6 /* 00004C5E */
label00004C64:
00004C64  4240                     clr.w      D0
00004C66  102E FF00                move.b     D0, [A6 - 0x100]
00004C6A  4241                     clr.w      D1
00004C6C  41EE FF00                lea.l      A0, [A6 - 0x100]
00004C70  1230 0000                move.b     D1, [A0 + D0.w]
00004C74  3E01                     move.w     D7, D1
00004C76  7020                     moveq.l    D0, 0x20
00004C78  B047                     cmp.w      D0, D7
00004C7A  57C0                     seq        D0
00004C7C  4A00                     tst.b      D0
00004C7E  660A                     bne        +0xC /* 00004C8A */
00004C80  720D                     moveq.l    D1, 0x0D
00004C82  B247                     cmp.w      D1, D7
00004C84  57C1                     seq        D1
00004C86  8001                     or.b       D0, D1
00004C88  6706                     beq        +0x8 /* 00004C90 */
label00004C8A:
00004C8A  532E FF00                subq.b     [A6 - 0x100], 1
00004C8E  60D4                     bra        -0x2A /* 00004C64 */
label00004C90:
00004C90  4267                     clr.w      -[A7]
00004C92  486E FF00                pea.l      [A6 - 0x100]
00004C96  486D A436                pea.l      [A5 - 0x5BCA]
00004C9A  4EAD 1AC2                jsr        [A5 + 0x1AC2 /* export_852, CODE:16 @ 00001B82 */]
00004C9E  101F                     move.b     D0, [A7]+
00004CA0  6710                     beq        +0x12 /* 00004CB2 */
00004CA2  1D7C 0001 0010           move.b     [A6 + 0x10], 0x1
00004CA8  206E 0008                movea.l    A0, [A6 + 0x8]
00004CAC  10BC 0001                move.b     [A0], 0x1
00004CB0  6024                     bra        +0x26 /* 00004CD6 */
label00004CB2:
00004CB2  4267                     clr.w      -[A7]
00004CB4  486E FF00                pea.l      [A6 - 0x100]
00004CB8  486D A456                pea.l      [A5 - 0x5BAA]
00004CBC  4EAD 1AC2                jsr        [A5 + 0x1AC2 /* export_852, CODE:16 @ 00001B82 */]
00004CC0  101F                     move.b     D0, [A7]+
00004CC2  670E                     beq        +0x10 /* 00004CD2 */
00004CC4  1D7C 0001 0010           move.b     [A6 + 0x10], 0x1
00004CCA  206E 0008                movea.l    A0, [A6 + 0x8]
00004CCE  4210                     clr.b      [A0]
00004CD0  6004                     bra        +0x6 /* 00004CD6 */
label00004CD2:
00004CD2  422E 0010                clr.b      [A6 + 0x10]
label00004CD6:
00004CD6  2E1F                     move.l     D7, [A7]+
00004CD8  4E5E                     unlink     A6
00004CDA  205F                     movea.l    A0, [A7]+
00004CDC  504F                     addq.w     A7, 8
00004CDE  4ED0                     jmp        [A0]
export_396:
00004CE0  4E56 FFEE                link       A6, -0x0012
00004CE4  48E7 0318                movem.l    -[A7], D6,D7,A3,A4
00004CE8  302D B978                move.w     D0, [A5 - 0x4688]
00004CEC  5340                     subq.w     D0, 1
00004CEE  41ED B6F8                lea.l      A0, [A5 - 0x4908]
00004CF2  E540                     asl        D0.w, 2
00004CF4  2E30 0000                move.l     D7, [A0 + D0.w]
00004CF8  302D B978                move.w     D0, [A5 - 0x4688]
00004CFC  5340                     subq.w     D0, 1
00004CFE  5340                     subq.w     D0, 1
00004D00  41ED B6F8                lea.l      A0, [A5 - 0x4908]
00004D04  E540                     asl        D0.w, 2
00004D06  2C30 0000                move.l     D6, [A0 + D0.w]
00004D0A  206D B66C                movea.l    A0, [A5 - 0x4994]
00004D0E  202D B674                move.l     D0, [A5 - 0x498C]
00004D12  D090                     add.l      D0, [A0]
00004D14  2840                     movea.l    A4, D0
00004D16  99C7                     sub.l      A4, D7
00004D18  264C                     movea.l    A3, A4
00004D1A  97C6                     sub.l      A3, D6
00004D1C  4AAE 000E                tst.l      [A6 + 0xE]
00004D20  670E                     beq        +0x10 /* 00004D30 */
00004D22  2F0B                     move.l     -[A7], A3
00004D24  2F2E 000E                move.l     -[A7], [A6 + 0xE]
00004D28  2F2E 000A                move.l     -[A7], [A6 + 0xA]
00004D2C  4EBA F8E4                jsr        [PC - 0x71C /* 00004612 */]
label00004D30:
00004D30  2F0C                     move.l     -[A7], A4
00004D32  2F0B                     move.l     -[A7], A3
00004D34  2F07                     move.l     -[A7], D7
00004D36  4EBA F8DA                jsr        [PC - 0x726 /* 00004612 */]
00004D3A  302D B978                move.w     D0, [A5 - 0x4688]
00004D3E  5340                     subq.w     D0, 1
00004D40  5340                     subq.w     D0, 1
00004D42  41ED B6F8                lea.l      A0, [A5 - 0x4908]
00004D46  E540                     asl        D0.w, 2
00004D48  2187 0000                move.l     [A0 + D0.w], D7
00004D4C  302D B978                move.w     D0, [A5 - 0x4688]
00004D50  5340                     subq.w     D0, 1
00004D52  41ED B8F8                lea.l      A0, [A5 - 0x4708]
00004D56  322D B978                move.w     D1, [A5 - 0x4688]
00004D5A  5341                     subq.w     D1, 1
00004D5C  5341                     subq.w     D1, 1
00004D5E  43ED B8F8                lea.l      A1, [A5 - 0x4708]
00004D62  13B0 0000 1000           move.b     [A1 + D1.w], [A0 + D0.w]
00004D68  302D B978                move.w     D0, [A5 - 0x4688]
00004D6C  5340                     subq.w     D0, 1
00004D6E  41ED B678                lea.l      A0, [A5 - 0x4988]
00004D72  322D B978                move.w     D1, [A5 - 0x4688]
00004D76  5341                     subq.w     D1, 1
00004D78  5341                     subq.w     D1, 1
00004D7A  43ED B678                lea.l      A1, [A5 - 0x4988]
00004D7E  13B0 0000 1000           move.b     [A1 + D1.w], [A0 + D0.w]
00004D84  536D B978                subq.w     [A5 - 0x4688], 1
00004D88  2006                     move.l     D0, D6
00004D8A  91AD B674                sub.l      [A5 - 0x498C], D0
00004D8E  2006                     move.l     D0, D6
00004D90  D1AD B670                add.l      [A5 - 0x4990], D0
00004D94  4CDF 18C0                movem.l    D6,D7,A3,A4, [A7]+
00004D98  4E5E                     unlink     A6
00004D9A  205F                     movea.l    A0, [A7]+
00004D9C  DEFC 000A                add.w      A7, 0xA /* '\n' */
00004DA0  4ED0                     jmp        [A0]
export_397:
00004DA2  4E56 FFFC                link       A6, -0x0004
00004DA6  2F07                     move.l     -[A7], D7
00004DA8  1D7C 0001 0008           move.b     [A6 + 0x8], 0x1
00004DAE  4267                     clr.w      -[A7]
00004DB0  4EBA B3F2                jsr        [PC - 0x4C0E /* 000001A4 */]
00004DB4  301F                     move.w     D0, [A7]+
00004DB6  48C0                     ext.l      D0
00004DB8  2E00                     move.l     D7, D0
00004DBA  4EAD 1432                jsr        [A5 + 0x1432 /* export_642, CODE:13 @ 000010F2 */]
00004DBE  2F07                     move.l     -[A7], D7
00004DC0  4EBA EC8C                jsr        [PC - 0x1374 /* 00003A4E */]
00004DC4  302D B978                move.w     D0, [A5 - 0x4688]
00004DC8  5340                     subq.w     D0, 1
00004DCA  41ED B8F8                lea.l      A0, [A5 - 0x4708]
00004DCE  1187 0000                move.b     [A0 + D0.w], D7
00004DD2  2E1F                     move.l     D7, [A7]+
00004DD4  4E5E                     unlink     A6
00004DD6  4E75                     rts
export_398:
fn00004DD8:
00004DD8  4E56 FE00                link       A6, -0x0200
00004DDC  7003                     moveq.l    D0, 0x03
00004DDE  B02D D46A                cmp.b      D0, [A5 - 0x2B96]
00004DE2  6C0E                     bge        +0x10 /* 00004DF2 */
00004DE4  2F2D D46C                move.l     -[A7], [A5 - 0x2B94]
00004DE8  486E FF00                pea.l      [A6 - 0x100]
00004DEC  4EBA C46C                jsr        [PC - 0x3B94 /* 0000125A */]
00004DF0  6028                     bra        +0x2A /* 00004E1A */
label00004DF2:
00004DF2  7002                     moveq.l    D0, 0x02
00004DF4  B02D D46A                cmp.b      D0, [A5 - 0x2B96]
00004DF8  661C                     bne        +0x1E /* 00004E16 */
00004DFA  486E FE00                pea.l      [A6 - 0x200]
00004DFE  3F3C 0056                move.w     -[A7], 0x56 /* 'V' */
00004E02  4EBA C1EC                jsr        [PC - 0x3E14 /* 00000FF0 */]
00004E06  205F                     movea.l    A0, [A7]+
00004E08  43EE FF00                lea.l      A1, [A6 - 0x100]
00004E0C  703F                     moveq.l    D0, 0x3F
label00004E0E:
00004E0E  22D8                     move.l     [A1]+, [A0]+
00004E10  51C8 FFFC                dbf        D0, -0x6 /* 00004E0E */
00004E14  6004                     bra        +0x6 /* 00004E1A */
label00004E16:
00004E16  422E FF00                clr.b      [A6 - 0x100]
label00004E1A:
00004E1A  206E 0008                movea.l    A0, [A6 + 0x8]
00004E1E  43EE FF00                lea.l      A1, [A6 - 0x100]
00004E22  703F                     moveq.l    D0, 0x3F
label00004E24:
00004E24  20D9                     move.l     [A0]+, [A1]+
00004E26  51C8 FFFC                dbf        D0, -0x6 /* 00004E24 */
00004E2A  4E5E                     unlink     A6
00004E2C  4E75                     rts
export_399:
fn00004E2E:
00004E2E  4E56 FFFE                link       A6, -0x0002
00004E32  102D A377                move.b     D0, [A5 - 0x5C89]
00004E36  670E                     beq        +0x10 /* 00004E46 */
00004E38  4267                     clr.w      -[A7]
00004E3A  486D A31A                pea.l      [A5 - 0x5CE6]
00004E3E  4EAD 204A                jsr        [A5 + 0x204A /* export_1029, CODE:20 @ 000004A6 */]
00004E42  1D5F FFFF                move.b     [A6 - 0x1], [A7]+
label00004E46:
00004E46  4E5E                     unlink     A6
00004E48  4E75                     rts
export_400:
00004E4A  4E56 FEF6                link       A6, -0x010A
00004E4E  48E7 0118                movem.l    -[A7], D7,A3,A4
00004E52  206D D454                movea.l    A0, [A5 - 0x2BAC]
00004E56  2850                     movea.l    A4, [A0]
00004E58  7E01                     moveq.l    D7, 0x01
00004E5A  6054                     bra        +0x56 /* 00004EB0 */
label00004E5C:
00004E5C  1014                     move.b     D0, [A4]
00004E5E  B02E 000A                cmp.b      D0, [A6 + 0xA]
00004E62  57C0                     seq        D0
00004E64  4A00                     tst.b      D0
00004E66  6744                     beq        +0x46 /* 00004EAC */
00004E68  122C 0001                move.b     D1, [A4 + 0x1]
00004E6C  4881                     ext.w      D1
00004E6E  B26E 0008                cmp.w      D1, [A6 + 0x8]
00004E72  57C1                     seq        D1
00004E74  C001                     and.b      D0, D1
00004E76  6734                     beq        +0x36 /* 00004EAC */
00004E78  206D D44C                movea.l    A0, [A5 - 0x2BB4]
00004E7C  302C 0002                move.w     D0, [A4 + 0x2]
00004E80  48C0                     ext.l      D0
00004E82  2640                     movea.l    A3, D0
00004E84  D7D0                     add.l      A3, [A0]
00004E86  2F0B                     move.l     -[A7], A3
00004E88  486E FEF6                pea.l      [A6 - 0x10A]
00004E8C  1013                     move.b     D0, [A3]
00004E8E  4880                     ext.w      D0
00004E90  5240                     addq.w     D0, 1
00004E92  48C0                     ext.l      D0
00004E94  2F00                     move.l     -[A7], D0
00004E96  4EAD 19B2                jsr        [A5 + 0x19B2 /* export_818, CODE:16 @ 000010BE */]
00004E9A  206E 000C                movea.l    A0, [A6 + 0xC]
00004E9E  43EE FEF6                lea.l      A1, [A6 - 0x10A]
00004EA2  703F                     moveq.l    D0, 0x3F
label00004EA4:
00004EA4  20D9                     move.l     [A0]+, [A1]+
00004EA6  51C8 FFFC                dbf        D0, -0x6 /* 00004EA4 */
00004EAA  6014                     bra        +0x16 /* 00004EC0 */
label00004EAC:
00004EAC  588C                     addq.l     A4, 4
00004EAE  5247                     addq.w     D7, 1
label00004EB0:
00004EB0  0C47 0281                cmpi.w     D7, 0x281
00004EB4  6FA6                     ble        -0x58 /* 00004E5C */
00004EB6  206E 000C                movea.l    A0, [A6 + 0xC]
00004EBA  4210                     clr.b      [A0]
00004EBC  4EAD 1812                jsr        [A5 + 0x1812 /* export_766, CODE:16 @ 00000208 */]
label00004EC0:
00004EC0  4CDF 1880                movem.l    D7,A3,A4, [A7]+
00004EC4  4E5E                     unlink     A6
00004EC6  2E9F                     move.l     [A7], [A7]+
00004EC8  4E75                     rts
export_401:
00004ECA  4E56 FFEA                link       A6, -0x0016
00004ECE  48E7 0718                movem.l    -[A7], D5,D6,D7,A3,A4
00004ED2  2C2E 0008                move.l     D6, [A6 + 0x8]
00004ED6  2046                     movea.l    A0, D6
00004ED8  2D50 FFEC                move.l     [A6 - 0x14], [A0]
00004EDC  2046                     movea.l    A0, D6
00004EDE  2D50 FFF0                move.l     [A6 - 0x10], [A0]
label00004EE2:
00004EE2  206E FFEC                movea.l    A0, [A6 - 0x14]
00004EE6  4A10                     tst.b      [A0]
00004EE8  6750                     beq        +0x52 /* 00004F3A */
00004EEA  486E FFEC                pea.l      [A6 - 0x14]
00004EEE  4EAD 1ABA                jsr        [A5 + 0x1ABA /* export_851, CODE:16 @ 00001B6E */]
00004EF2  266E FFEC                movea.l    A3, [A6 - 0x14]
00004EF6  486E FFEC                pea.l      [A6 - 0x14]
00004EFA  486E FFF0                pea.l      [A6 - 0x10]
00004EFE  4EAD 19C2                jsr        [A5 + 0x19C2 /* export_820, CODE:16 @ 00001132 */]
00004F02  B7EE FFEC                cmpa.l     A3, [A6 - 0x14]
00004F06  6720                     beq        +0x22 /* 00004F28 */
00004F08  206E FFF0                movea.l    A0, [A6 - 0x10]
00004F0C  1E10                     move.b     D7, [A0]
00004F0E  286E FFF0                movea.l    A4, [A6 - 0x10]
label00004F12:
00004F12  538C                     subq.l     A4, 1
00004F14  7020                     moveq.l    D0, 0x20
00004F16  B014                     cmp.b      D0, [A4]
00004F18  67F8                     beq        -0x6 /* 00004F12 */
00004F1A  200C                     move.l     D0, A4
00004F1C  5280                     addq.l     D0, 1
00004F1E  2D40 FFF0                move.l     [A6 - 0x10], D0
00004F22  206E FFF0                movea.l    A0, [A6 - 0x10]
00004F26  1087                     move.b     [A0], D7
label00004F28:
00004F28  206E FFEC                movea.l    A0, [A6 - 0x14]
00004F2C  4A10                     tst.b      [A0]
00004F2E  6708                     beq        +0xA /* 00004F38 */
00004F30  52AE FFEC                addq.l     [A6 - 0x14], 1
00004F34  52AE FFF0                addq.l     [A6 - 0x10], 1
label00004F38:
00004F38  60A8                     bra        -0x56 /* 00004EE2 */
label00004F3A:
00004F3A  206E FFF0                movea.l    A0, [A6 - 0x10]
00004F3E  4210                     clr.b      [A0]
00004F40  2046                     movea.l    A0, D6
00004F42  202E FFF0                move.l     D0, [A6 - 0x10]
00004F46  9090                     sub.l      D0, [A0]
00004F48  2A00                     move.l     D5, D0
00004F4A  5285                     addq.l     D5, 1
00004F4C  2F06                     move.l     -[A7], D6
00004F4E  2F05                     move.l     -[A7], D5
00004F50  4EAD 020A                jsr        [A5 + 0x20A /* export_61, CODE:1 @ 00004654 */]
00004F54  4CDF 18E0                movem.l    D5,D6,D7,A3,A4, [A7]+
00004F58  4E5E                     unlink     A6
00004F5A  2E9F                     move.l     [A7], [A7]+
00004F5C  4E75                     rts
export_402:
00004F5E  4E56 FFFE                link       A6, -0x0002
00004F62  48E7 0108                movem.l    -[A7], D7,A4
00004F66  422E 0008                clr.b      [A6 + 0x8]
00004F6A  302D AAD4                move.w     D0, [A5 - 0x552C]
00004F6E  5340                     subq.w     D0, 1
00004F70  41ED A894                lea.l      A0, [A5 - 0x576C]
00004F74  C1FC 0012                muls.w     D0, 0x12
00004F78  49F0 0000                lea.l      A4, [A0 + D0.w]
00004F7C  102C 0004                move.b     D0, [A4 + 0x4]
00004F80  4880                     ext.w      D0
00004F82  6744                     beq        +0x46 /* 00004FC8 */
00004F84  5340                     subq.w     D0, 1
00004F86  670C                     beq        +0xE /* 00004F94 */
00004F88  5340                     subq.w     D0, 1
00004F8A  6760                     beq        +0x62 /* 00004FEC */
00004F8C  5340                     subq.w     D0, 1
00004F8E  6754                     beq        +0x56 /* 00004FE4 */
00004F90  6000 0084                bra        +0x86 /* 00005016 */
label00004F94:
00004F94  202C 000A                move.l     D0, [A4 + 0xA]
00004F98  B0AC 000E                cmp.l      D0, [A4 + 0xE]
00004F9C  6728                     beq        +0x2A /* 00004FC6 */
00004F9E  1D7C 0001 0008           move.b     [A6 + 0x8], 0x1
00004FA4  302C 0008                move.w     D0, [A4 + 0x8]
00004FA8  48C0                     ext.l      D0
00004FAA  D0AC 000A                add.l      D0, [A4 + 0xA]
00004FAE  2940 000A                move.l     [A4 + 0xA], D0
00004FB2  2F2C 000A                move.l     -[A7], [A4 + 0xA]
00004FB6  4EBA EA96                jsr        [PC - 0x156A /* 00003A4E */]
00004FBA  2F2D D466                move.l     -[A7], [A5 - 0x2B9A]
00004FBE  3F2C 0006                move.w     -[A7], [A4 + 0x6]
00004FC2  4EBA 021C                jsr        [PC + 0x21C /* 000051E0 */]
label00004FC6:
00004FC6  604E                     bra        +0x50 /* 00005016 */
label00004FC8:
00004FC8  202C 0006                move.l     D0, [A4 + 0x6]
00004FCC  B0AC 000A                cmp.l      D0, [A4 + 0xA]
00004FD0  6C10                     bge        +0x12 /* 00004FE2 */
00004FD2  1D7C 0001 0008           move.b     [A6 + 0x8], 0x1
00004FD8  202C 0006                move.l     D0, [A4 + 0x6]
00004FDC  5280                     addq.l     D0, 1
00004FDE  2940 0006                move.l     [A4 + 0x6], D0
label00004FE2:
00004FE2  6032                     bra        +0x34 /* 00005016 */
label00004FE4:
00004FE4  1D7C 0001 0008           move.b     [A6 + 0x8], 0x1
00004FEA  602A                     bra        +0x2C /* 00005016 */
label00004FEC:
00004FEC  206D D470                movea.l    A0, [A5 - 0x2B90]
00004FF0  3E28 0008                move.w     D7, [A0 + 0x8]
00004FF4  3F2C 0006                move.w     -[A7], [A4 + 0x6]
00004FF8  4EBA F2A8                jsr        [PC - 0xD58 /* 000042A2 */]
00004FFC  4267                     clr.w      -[A7]
00004FFE  4EBA E398                jsr        [PC - 0x1C68 /* 00003398 */]
00005002  101F                     move.b     D0, [A7]+
00005004  670A                     beq        +0xC /* 00005010 */
00005006  4267                     clr.w      -[A7]
00005008  4EAD 1472                jsr        [A5 + 0x1472 /* export_650, CODE:13 @ 000016BC */]
0000500C  1D5F 0008                move.b     [A6 + 0x8], [A7]+
label00005010:
00005010  3F07                     move.w     -[A7], D7
00005012  4EBA F28E                jsr        [PC - 0xD72 /* 000042A2 */]
label00005016:
00005016  4CDF 1080                movem.l    D7,A4, [A7]+
0000501A  4E5E                     unlink     A6
0000501C  4E75                     rts
fn0000501E:
0000501E  4E56 0000                link       A6, 0
00005022  2F0C                     move.l     -[A7], A4
00005024  206E 0008                movea.l    A0, [A6 + 0x8]
00005028  2868 FFFC                movea.l    A4, [A0 - 0x4]
0000502C  4AAC 000A                tst.l      [A4 + 0xA]
00005030  6606                     bne        +0x8 /* 00005038 */
00005032  4EBA E990                jsr        [PC - 0x1670 /* 000039C4 */]
00005036  6022                     bra        +0x24 /* 0000505A */
label00005038:
00005038  2F2C 000A                move.l     -[A7], [A4 + 0xA]
0000503C  4EAD 0222                jsr        [A5 + 0x222 /* export_64, CODE:1 @ 00004678 */]
00005040  206C 000A                movea.l    A0, [A4 + 0xA]
00005044  2F10                     move.l     -[A7], [A0]
00005046  2F2C 0006                move.l     -[A7], [A4 + 0x6]
0000504A  1F2C 0004                move.b     -[A7], [A4 + 0x4]
0000504E  4EBA E682                jsr        [PC - 0x197E /* 000036D2 */]
00005052  2F2C 000A                move.l     -[A7], [A4 + 0xA]
00005056  4EAD 022A                jsr        [A5 + 0x22A /* export_65, CODE:1 @ 00004682 */]
label0000505A:
0000505A  285F                     movea.l    A4, [A7]+
0000505C  4E5E                     unlink     A6
0000505E  2E9F                     move.l     [A7], [A7]+
00005060  4E75                     rts
export_403:
fn00005062:
00005062  4E56 FFFC                link       A6, -0x0004
00005066  2F0C                     move.l     -[A7], A4
00005068  286E 000A                movea.l    A4, [A6 + 0xA]
0000506C  206C 000A                movea.l    A0, [A4 + 0xA]
00005070  302E 0008                move.w     D0, [A6 + 0x8]
00005074  5340                     subq.w     D0, 1
00005076  C1FC 000E                muls.w     D0, 0xE
0000507A  48C0                     ext.l      D0
0000507C  D090                     add.l      D0, [A0]
0000507E  2D40 FFFC                move.l     [A6 - 0x4], D0
00005082  206E FFFC                movea.l    A0, [A6 - 0x4]
00005086  4A68 0002                tst.w      [A0 + 0x2]
0000508A  6618                     bne        +0x1A /* 000050A4 */
0000508C  2F2C 000A                move.l     -[A7], [A4 + 0xA]
00005090  4EAD 0222                jsr        [A5 + 0x222 /* export_64, CODE:1 @ 00004678 */]
00005094  2F0E                     move.l     -[A7], A6
00005096  4EBA FF86                jsr        [PC - 0x7A /* 0000501E */]
0000509A  2F2C 000A                move.l     -[A7], [A4 + 0xA]
0000509E  4EAD 022A                jsr        [A5 + 0x22A /* export_65, CODE:1 @ 00004682 */]
000050A2  6030                     bra        +0x32 /* 000050D4 */
label000050A4:
000050A4  206D D462                movea.l    A0, [A5 - 0x2B9E]
000050A8  226E FFFC                movea.l    A1, [A6 - 0x4]
000050AC  3029 0002                move.w     D0, [A1 + 0x2]
000050B0  5340                     subq.w     D0, 1
000050B2  C1FC 000E                muls.w     D0, 0xE
000050B6  48C0                     ext.l      D0
000050B8  D090                     add.l      D0, [A0]
000050BA  2D40 FFFC                move.l     [A6 - 0x4], D0
000050BE  2F2D D462                move.l     -[A7], [A5 - 0x2B9E]
000050C2  4EAD 0222                jsr        [A5 + 0x222 /* export_64, CODE:1 @ 00004678 */]
000050C6  2F0E                     move.l     -[A7], A6
000050C8  4EBA FF54                jsr        [PC - 0xAC /* 0000501E */]
000050CC  2F2D D462                move.l     -[A7], [A5 - 0x2B9E]
000050D0  4EAD 022A                jsr        [A5 + 0x22A /* export_65, CODE:1 @ 00004682 */]
label000050D4:
000050D4  285F                     movea.l    A4, [A7]+
000050D6  4E5E                     unlink     A6
000050D8  205F                     movea.l    A0, [A7]+
000050DA  5C4F                     addq.w     A7, 6
000050DC  4ED0                     jmp        [A0]
fn000050DE:
000050DE  4E56 0000                link       A6, 0
000050E2  2F0C                     move.l     -[A7], A4
000050E4  206E 0008                movea.l    A0, [A6 + 0x8]
000050E8  2868 FFFC                movea.l    A4, [A0 - 0x4]
000050EC  302D B978                move.w     D0, [A5 - 0x4688]
000050F0  5340                     subq.w     D0, 1
000050F2  41ED B678                lea.l      A0, [A5 - 0x4988]
000050F6  1970 0000 0004           move.b     [A4 + 0x4], [A0 + D0.w]
000050FC  302D B978                move.w     D0, [A5 - 0x4688]
00005100  5340                     subq.w     D0, 1
00005102  41ED B6F8                lea.l      A0, [A5 - 0x4908]
00005106  E540                     asl        D0.w, 2
00005108  2970 0000 0006           move.l     [A4 + 0x6], [A0 + D0.w]
0000510E  4AAC 000A                tst.l      [A4 + 0xA]
00005112  6614                     bne        +0x16 /* 00005128 */
00005114  42A7                     clr.l      -[A7]
00005116  2F2C 0006                move.l     -[A7], [A4 + 0x6]
0000511A  4EAD 18DA                jsr        [A5 + 0x18DA /* export_791, CODE:16 @ 00000896 */]
0000511E  295F 000A                move.l     [A4 + 0xA], [A7]+
00005122  6700 0082                beq        +0x84 /* 000051A6 */
00005126  605A                     bra        +0x5C /* 00005182 */
label00005128:
00005128  42A7                     clr.l      -[A7]
0000512A  2F2C 000A                move.l     -[A7], [A4 + 0xA]
0000512E  4EAD 0202                jsr        [A5 + 0x202 /* export_60, CODE:1 @ 00004640 */]
00005132  202C 0006                move.l     D0, [A4 + 0x6]
00005136  B09F                     cmp.l      D0, [A7]+
00005138  5EC0                     sgt        D0
0000513A  4A00                     tst.b      D0
0000513C  6626                     bne        +0x28 /* 00005164 */
0000513E  222C 0006                move.l     D1, [A4 + 0x6]
00005142  D2BC 0000 0100           add.l      D1, 0x100
00005148  48E7 C000                movem.l    -[A7], D0,D1
0000514C  42A7                     clr.l      -[A7]
0000514E  2F2C 000A                move.l     -[A7], [A4 + 0xA]
00005152  4EAD 0202                jsr        [A5 + 0x202 /* export_60, CODE:1 @ 00004640 */]
00005156  241F                     move.l     D2, [A7]+
00005158  4CDF 0003                movem.l    D0,D1, [A7]+
0000515C  B481                     cmp.l      D2, D1
0000515E  5EC1                     sgt        D1
00005160  8001                     or.b       D0, D1
00005162  671E                     beq        +0x20 /* 00005182 */
label00005164:
00005164  2F2C 000A                move.l     -[A7], [A4 + 0xA]
00005168  202C 0006                move.l     D0, [A4 + 0x6]
0000516C  D0BC 0000 0080           add.l      D0, 0x80
00005172  2F00                     move.l     -[A7], D0
00005174  4EAD 1982                jsr        [A5 + 0x1982 /* export_812, CODE:16 @ 00000EAC */]
00005178  4267                     clr.w      -[A7]
0000517A  3EB8 0220                move.w     [A7], [0x00000220 /* MemErr */]
0000517E  4A5F                     tst.w      [A7]+
00005180  6624                     bne        +0x26 /* 000051A6 */
label00005182:
00005182  2F2C 000A                move.l     -[A7], [A4 + 0xA]
00005186  4EAD 0222                jsr        [A5 + 0x222 /* export_64, CODE:1 @ 00004678 */]
0000518A  206C 000A                movea.l    A0, [A4 + 0xA]
0000518E  2F10                     move.l     -[A7], [A0]
00005190  2F2C 0006                move.l     -[A7], [A4 + 0x6]
00005194  1F2C 0004                move.b     -[A7], [A4 + 0x4]
00005198  4EAD 146A                jsr        [A5 + 0x146A /* export_649, CODE:13 @ 00001620 */]
0000519C  2F2C 000A                move.l     -[A7], [A4 + 0xA]
000051A0  4EAD 022A                jsr        [A5 + 0x22A /* export_65, CODE:1 @ 00004682 */]
000051A4  6032                     bra        +0x34 /* 000051D8 */
label000051A6:
000051A6  4AAC 000A                tst.l      [A4 + 0xA]
000051AA  6610                     bne        +0x12 /* 000051BC */
000051AC  42A7                     clr.l      -[A7]
000051AE  7001                     moveq.l    D0, 0x01
000051B0  2F00                     move.l     -[A7], D0
000051B2  4EAD 18DA                jsr        [A5 + 0x18DA /* export_791, CODE:16 @ 00000896 */]
000051B6  295F 000A                move.l     [A4 + 0xA], [A7]+
000051BA  600C                     bra        +0xE /* 000051C8 */
label000051BC:
000051BC  2F2C 000A                move.l     -[A7], [A4 + 0xA]
000051C0  7001                     moveq.l    D0, 0x01
000051C2  2F00                     move.l     -[A7], D0
000051C4  4EAD 020A                jsr        [A5 + 0x20A /* export_61, CODE:1 @ 00004654 */]
label000051C8:
000051C8  206C 000A                movea.l    A0, [A4 + 0xA]
000051CC  2050                     movea.l    A0, [A0]
000051CE  4210                     clr.b      [A0]
000051D0  3F3C 002D                move.w     -[A7], 0x2D /* '-' */
000051D4  4EBA B982                jsr        [PC - 0x467E /* 00000B58 */]
label000051D8:
000051D8  285F                     movea.l    A4, [A7]+
000051DA  4E5E                     unlink     A6
000051DC  2E9F                     move.l     [A7], [A7]+
000051DE  4E75                     rts
export_404:
fn000051E0:
000051E0  4E56 FFFC                link       A6, -0x0004
000051E4  2F0C                     move.l     -[A7], A4
000051E6  286E 000A                movea.l    A4, [A6 + 0xA]
000051EA  206C 000A                movea.l    A0, [A4 + 0xA]
000051EE  302E 0008                move.w     D0, [A6 + 0x8]
000051F2  5340                     subq.w     D0, 1
000051F4  C1FC 000E                muls.w     D0, 0xE
000051F8  48C0                     ext.l      D0
000051FA  D090                     add.l      D0, [A0]
000051FC  2D40 FFFC                move.l     [A6 - 0x4], D0
00005200  206E FFFC                movea.l    A0, [A6 - 0x4]
00005204  4A68 0002                tst.w      [A0 + 0x2]
00005208  6618                     bne        +0x1A /* 00005222 */
0000520A  2F2C 000A                move.l     -[A7], [A4 + 0xA]
0000520E  4EAD 0222                jsr        [A5 + 0x222 /* export_64, CODE:1 @ 00004678 */]
00005212  2F0E                     move.l     -[A7], A6
00005214  4EBA FEC8                jsr        [PC - 0x138 /* 000050DE */]
00005218  2F2C 000A                move.l     -[A7], [A4 + 0xA]
0000521C  4EAD 022A                jsr        [A5 + 0x22A /* export_65, CODE:1 @ 00004682 */]
00005220  6030                     bra        +0x32 /* 00005252 */
label00005222:
00005222  206D D462                movea.l    A0, [A5 - 0x2B9E]
00005226  226E FFFC                movea.l    A1, [A6 - 0x4]
0000522A  3029 0002                move.w     D0, [A1 + 0x2]
0000522E  5340                     subq.w     D0, 1
00005230  C1FC 000E                muls.w     D0, 0xE
00005234  48C0                     ext.l      D0
00005236  D090                     add.l      D0, [A0]
00005238  2D40 FFFC                move.l     [A6 - 0x4], D0
0000523C  2F2D D462                move.l     -[A7], [A5 - 0x2B9E]
00005240  4EAD 0222                jsr        [A5 + 0x222 /* export_64, CODE:1 @ 00004678 */]
00005244  2F0E                     move.l     -[A7], A6
00005246  4EBA FE96                jsr        [PC - 0x16A /* 000050DE */]
0000524A  2F2D D462                move.l     -[A7], [A5 - 0x2B9E]
0000524E  4EAD 022A                jsr        [A5 + 0x22A /* export_65, CODE:1 @ 00004682 */]
label00005252:
00005252  285F                     movea.l    A4, [A7]+
00005254  4E5E                     unlink     A6
00005256  205F                     movea.l    A0, [A7]+
00005258  5C4F                     addq.w     A7, 6
0000525A  4ED0                     jmp        [A0]
export_405:
fn0000525C:
0000525C  4E56 FFDA                link       A6, -0x0026
00005260  48E7 0318                movem.l    -[A7], D6,D7,A3,A4
00005264  206E 0008                movea.l    A0, [A6 + 0x8]
00005268  43EE FFE0                lea.l      A1, [A6 - 0x20]
0000526C  7007                     moveq.l    D0, 0x07
label0000526E:
0000526E  22D8                     move.l     [A1]+, [A0]+
00005270  51C8 FFFC                dbf        D0, -0x6 /* 0000526E */
00005274  3E2E 000C                move.w     D7, [A6 + 0xC]
00005278  286E 000E                movea.l    A4, [A6 + 0xE]
0000527C  4AAC 0006                tst.l      [A4 + 0x6]
00005280  660A                     bne        +0xC /* 0000528C */
00005282  2F3C 006A 071E           move.l     -[A7], 0x6A071E
00005288  4EAD 185A                jsr        [A5 + 0x185A /* export_775, CODE:16 @ 0000042E */]
label0000528C:
0000528C  7001                     moveq.l    D0, 0x01
0000528E  B047                     cmp.w      D0, D7
00005290  5EC0                     sgt        D0
00005292  BE54                     cmp.w      D7, [A4]
00005294  5EC1                     sgt        D1
00005296  8001                     or.b       D0, D1
00005298  670A                     beq        +0xC /* 000052A4 */
0000529A  2F3C 0069 DEE8           move.l     -[A7], 0x69DEE8
000052A0  4EAD 185A                jsr        [A5 + 0x185A /* export_775, CODE:16 @ 0000042E */]
label000052A4:
000052A4  42A7                     clr.l      -[A7]
000052A6  2F2C 0006                move.l     -[A7], [A4 + 0x6]
000052AA  4EAD 0202                jsr        [A5 + 0x202 /* export_60, CODE:1 @ 00004640 */]
000052AE  201F                     move.l     D0, [A7]+
000052B0  3C00                     move.w     D6, D0
000052B2  486E FFE0                pea.l      [A6 - 0x20]
000052B6  2F2C 0006                move.l     -[A7], [A4 + 0x6]
000052BA  4EAD 1992                jsr        [A5 + 0x1992 /* export_814, CODE:16 @ 00001036 */]
000052BE  206C 000A                movea.l    A0, [A4 + 0xA]
000052C2  3007                     move.w     D0, D7
000052C4  5340                     subq.w     D0, 1
000052C6  C1FC 000E                muls.w     D0, 0xE
000052CA  48C0                     ext.l      D0
000052CC  2640                     movea.l    A3, D0
000052CE  D7D0                     add.l      A3, [A0]
000052D0  3686                     move.w     [A3], D6
000052D2  4267                     clr.w      -[A7]
000052D4  486E FFE0                pea.l      [A6 - 0x20]
000052D8  487A 001C                pea.l      [PC + 0x1C /* 000052F6, value 0x2697400, pstring "it" */]
000052DC  4EAD 1AC2                jsr        [A5 + 0x1AC2 /* export_852, CODE:16 @ 00001B82 */]
000052E0  101F                     move.b     D0, [A7]+
000052E2  6704                     beq        +0x6 /* 000052E8 */
000052E4  3947 0004                move.w     [A4 + 0x4], D7
label000052E8:
000052E8  4CDF 18C0                movem.l    D6,D7,A3,A4, [A7]+
000052EC  4E5E                     unlink     A6
000052EE  205F                     movea.l    A0, [A7]+
000052F0  DEFC 000A                add.w      A7, 0xA /* '\n' */
000052F4  4ED0                     jmp        [A0]
000052F6  0269 7400 4E56           andi.w     [A1 + 0x4E56], 0x7400 /* 't\0' */
// begin alternate branch 000052FA-000052FE
export_406:
000052FA  4E56 FFB4                link       A6, -0x004C
// end alternate branch 000052FA-000052FE
export_406: // at 000052FA (misaligned)
000052FC  FFB4                     .invalid   <<F/6/7>>
000052FE  48E7 0F18                movem.l    -[A7], D4,D5,D6,D7,A3,A4
00005302  486E FFD2                pea.l      [A6 - 0x2E]
00005306  A874                     syscall    GetPort
00005308  536D AADC                subq.w     [A5 - 0x5524], 1
0000530C  382D B978                move.w     D4, [A5 - 0x4688]
00005310  2C2D A80C                move.l     D6, [A5 - 0x57F4]
00005314  41EE FFE2                lea.l      A0, [A6 - 0x1E]
00005318  43ED B652                lea.l      A1, [A5 - 0x49AE]
0000531C  7005                     moveq.l    D0, 0x05
label0000531E:
0000531E  20D9                     move.l     [A0]+, [A1]+
00005320  51C8 FFFC                dbf        D0, -0x6 /* 0000531E */
00005324  3D6D B978 FFDC           move.w     [A6 - 0x24], [A5 - 0x4688]
0000532A  2D6D B674 FFDE           move.l     [A6 - 0x22], [A5 - 0x498C]
00005330  286D B52E                movea.l    A4, [A5 - 0x4AD2]
00005334  7000                     moveq.l    D0, 0x00
00005336  2940 0070                move.l     [A4 + 0x70], D0
0000533A  426C 004E                clr.w      [A4 + 0x4E]
0000533E  302C 004C                move.w     D0, [A4 + 0x4C]
00005342  5340                     subq.w     D0, 1
00005344  6B00 03F4                bmi        +0x3F6 /* 0000573A */
00005348  0C40 0026                cmpi.w     D0, 0x26 /* '&' */
0000534C  6E00 03EC                bgt        +0x3EE /* 0000573A */
00005350  D040                     add.w      D0, D0
00005352  303B 0006                move.w     D0, [PC + D0.w + 0x6]
00005356  4EFB 0000                jmp        [PC + D0.w]
0000535A  02B4 0306 0150 0050      andi.l     [A4 + D0.w + 0x50], 0x3060150
00005362  02DA                     .incomplete
00005364  0370 0066                bchg       [A0 + D0.w + 0x66], D1
00005368  0078 0088 009A           ori.w      [0x0000009A], 0x88
0000536E  025C 00AC                andi.w     [A4]+, 0xAC
00005372  00D0                     .incomplete
00005374  00F4                     .incomplete
00005376  0118                     btst       [A0]+, D0
00005378  0288 0140 0162           andi.l     A0, 0x1400162
0000537E  0174 0184                bchg       <<invalid full ext with I/IS == 4>>, D0
00005382  0184                     bclr       D4, D0
00005384  0184                     bclr       D4, D0
00005386  0184                     bclr       D4, D0
00005388  0184                     bclr       D4, D0
0000538A  0184                     bclr       D4, D0
0000538C  032E 034A                btst       [A6 + 0x34A], D1
00005390  035A                     bchg       [A2]+, D1
00005392  037E                     bchg       <<invalid special address>>, D1
00005394  03C0                     .incomplete
00005396  03E2                     .incomplete
00005398  03E2                     .incomplete
0000539A  03E2                     .incomplete
0000539C  03E2                     .incomplete
0000539E  03E2                     .incomplete
000053A0  03E2                     .incomplete
000053A2  03E2                     .incomplete
000053A4  03E2                     .incomplete
000053A6  0366                     bchg       -[A6], D1
000053A8  42A7                     clr.l      -[A7]
000053AA  2F2C 0050                move.l     -[A7], [A4 + 0x50]
000053AE  2F2C 0054                move.l     -[A7], [A4 + 0x54]
000053B2  4EAD 1AE2                jsr        [A5 + 0x1AE2 /* export_856, CODE:16 @ 00001C78 */]
000053B6  295F 0070                move.l     [A4 + 0x70], [A7]+
000053BA  6000 0384                bra        +0x386 /* 00005740 */
000053BE  42A7                     clr.l      -[A7]
000053C0  2F2C 0050                move.l     -[A7], [A4 + 0x50]
000053C4  4EAD 190A                jsr        [A5 + 0x190A /* export_797, CODE:16 @ 00000A44 */]
000053C8  295F 0070                move.l     [A4 + 0x70], [A7]+
000053CC  6000 0372                bra        +0x374 /* 00005740 */
000053D0  2F2C 0050                move.l     -[A7], [A4 + 0x50]
000053D4  2F2C 0054                move.l     -[A7], [A4 + 0x54]
000053D8  4EAD 1B5A                jsr        [A5 + 0x1B5A /* export_871, CODE:16 @ 00001ECC */]
000053DC  6000 0362                bra        +0x364 /* 00005740 */
000053E0  42A7                     clr.l      -[A7]
000053E2  2F2C 0050                move.l     -[A7], [A4 + 0x50]
000053E6  4EAD 1AF2                jsr        [A5 + 0x1AF2 /* export_858, CODE:16 @ 00001CF0 */]
000053EA  295F 0070                move.l     [A4 + 0x70], [A7]+
000053EE  6000 0350                bra        +0x352 /* 00005740 */
000053F2  42A7                     clr.l      -[A7]
000053F4  2F2C 0050                move.l     -[A7], [A4 + 0x50]
000053F8  4EAD 194A                jsr        [A5 + 0x194A /* export_805, CODE:16 @ 00000CB2 */]
000053FC  295F 0070                move.l     [A4 + 0x70], [A7]+
00005400  6000 033E                bra        +0x340 /* 00005740 */
00005404  206C 0054                movea.l    A0, [A4 + 0x54]
00005408  2F08                     move.l     -[A7], A0
0000540A  486E FFC8                pea.l      [A6 - 0x38]
0000540E  2F2C 0050                move.l     -[A7], [A4 + 0x50]
00005412  4EAD 05AA                jsr        [A5 + 0x5AA /* export_177, CODE:2 @ 0000029E */]
00005416  588F                     addq.l     A7, 4
00005418  205F                     movea.l    A0, [A7]+
0000541A  43EE FFC8                lea.l      A1, [A6 - 0x38]
0000541E  20D9                     move.l     [A0]+, [A1]+
00005420  20D9                     move.l     [A0]+, [A1]+
00005422  3091                     move.w     [A0], [A1]
00005424  6000 031A                bra        +0x31C /* 00005740 */
00005428  206C 0054                movea.l    A0, [A4 + 0x54]
0000542C  2F08                     move.l     -[A7], A0
0000542E  486E FFB4                pea.l      [A6 - 0x4C]
00005432  2F2C 0050                move.l     -[A7], [A4 + 0x50]
00005436  4EAD 18B2                jsr        [A5 + 0x18B2 /* export_786, CODE:16 @ 00000738 */]
0000543A  201F                     move.l     D0, [A7]+
0000543C  205F                     movea.l    A0, [A7]+
0000543E  2240                     movea.l    A1, D0
00005440  7004                     moveq.l    D0, 0x04
label00005442:
00005442  20D9                     move.l     [A0]+, [A1]+
00005444  51C8 FFFC                dbf        D0, -0x6 /* 00005442 */
00005448  6000 02F6                bra        +0x2F8 /* 00005740 */
0000544C  206C 0054                movea.l    A0, [A4 + 0x54]
00005450  2F08                     move.l     -[A7], A0
00005452  486E FFB4                pea.l      [A6 - 0x4C]
00005456  2F2C 0050                move.l     -[A7], [A4 + 0x50]
0000545A  4EAD 1902                jsr        [A5 + 0x1902 /* export_796, CODE:16 @ 000009D4 */]
0000545E  201F                     move.l     D0, [A7]+
00005460  205F                     movea.l    A0, [A7]+
00005462  2240                     movea.l    A1, D0
00005464  7004                     moveq.l    D0, 0x04
label00005466:
00005466  20D9                     move.l     [A0]+, [A1]+
00005468  51C8 FFFC                dbf        D0, -0x6 /* 00005466 */
0000546C  6000 02D2                bra        +0x2D4 /* 00005740 */
00005470  206C 0058                movea.l    A0, [A4 + 0x58]
00005474  2F08                     move.l     -[A7], A0
00005476  486E FFB4                pea.l      [A6 - 0x4C]
0000547A  2F2C 0050                move.l     -[A7], [A4 + 0x50]
0000547E  3F2C 0056                move.w     -[A7], [A4 + 0x56]
00005482  4EAD 18FA                jsr        [A5 + 0x18FA /* export_795, CODE:16 @ 00000938 */]
00005486  201F                     move.l     D0, [A7]+
00005488  205F                     movea.l    A0, [A7]+
0000548A  2240                     movea.l    A1, D0
0000548C  7004                     moveq.l    D0, 0x04
label0000548E:
0000548E  20D9                     move.l     [A0]+, [A1]+
00005490  51C8 FFFC                dbf        D0, -0x6 /* 0000548E */
00005494  6000 02AA                bra        +0x2AC /* 00005740 */
00005498  2F2C 0050                move.l     -[A7], [A4 + 0x50]
0000549C  2F2C 0054                move.l     -[A7], [A4 + 0x54]
000054A0  4EBA BB7A                jsr        [PC - 0x4486 /* 0000101C */]
000054A4  6000 029A                bra        +0x29C /* 00005740 */
000054A8  42A7                     clr.l      -[A7]
000054AA  2F2C 0050                move.l     -[A7], [A4 + 0x50]
000054AE  4EAD 1ADA                jsr        [A5 + 0x1ADA /* export_855, CODE:16 @ 00001C66 */]
000054B2  295F 0070                move.l     [A4 + 0x70], [A7]+
000054B6  6000 0288                bra        +0x28A /* 00005740 */
000054BA  42A7                     clr.l      -[A7]
000054BC  2F2C 0050                move.l     -[A7], [A4 + 0x50]
000054C0  4EBA BED8                jsr        [PC - 0x4128 /* 0000139A */]
000054C4  295F 0070                move.l     [A4 + 0x70], [A7]+
000054C8  6000 0276                bra        +0x278 /* 00005740 */
000054CC  2F2C 0050                move.l     -[A7], [A4 + 0x50]
000054D0  2F2C 0054                move.l     -[A7], [A4 + 0x54]
000054D4  4EBA EC22                jsr        [PC - 0x13DE /* 000040F8 */]
000054D8  6000 0266                bra        +0x268 /* 00005740 */
000054DC  1B7C 0001 A3CE           move.b     [A5 - 0x5C32], 0x1
000054E2  422D A3F0                clr.b      [A5 - 0x5C10]
000054E6  47ED A3F2                lea.l      A3, [A5 - 0x5C0E]
000054EA  36BC 0002                move.w     [A3], 0x2
000054EE  4AAC 0050                tst.l      [A4 + 0x50]
000054F2  6708                     beq        +0xA /* 000054FC */
000054F4  276D F62A 0002           move.l     [A3 + 0x2], [A5 - 0x9D6]
000054FA  6006                     bra        +0x8 /* 00005502 */
label000054FC:
000054FC  276D F622 0002           move.l     [A3 + 0x2], [A5 - 0x9DE]
label00005502:
00005502  276D F62A 000A           move.l     [A3 + 0xA], [A5 - 0x9D6]
00005508  276D F622 0006           move.l     [A3 + 0x6], [A5 - 0x9DE]
0000550E  302C 004C                move.w     D0, [A4 + 0x4C]
00005512  0440 0014                subi.w     D0, 0x14
00005516  6B4C                     bmi        +0x4E /* 00005564 */
00005518  0C40 0005                cmpi.w     D0, 0x5
0000551C  6E46                     bgt        +0x48 /* 00005564 */
0000551E  D040                     add.w      D0, D0
00005520  303B 0006                move.w     D0, [PC + D0.w + 0x6]
00005524  4EFB 0000                jmp        [PC + D0.w]
00005528  000E 0024                ori.b      A6, 0x24 /* '$' */
0000552C  0032 000E 0024           ori.b      [A2 + D0.w + 0x24], 0xE
00005532  0032 422B 000E           ori.b      [A2 + D0.w + 0xE], 0x2B /* '+' */
00005538  206C 0054                movea.l    A0, [A4 + 0x54]
0000553C  43EB 0010                lea.l      A1, [A3 + 0x10]
00005540  7007                     moveq.l    D0, 0x07
label00005542:
00005542  22D8                     move.l     [A1]+, [A0]+
00005544  51C8 FFFC                dbf        D0, -0x6 /* 00005542 */
00005548  601A                     bra        +0x1C /* 00005564 */
0000554A  177C 0001 000E           move.b     [A3 + 0xE], 0x1
00005550  276C 0054 0010           move.l     [A3 + 0x10], [A4 + 0x54]
00005556  600C                     bra        +0xE /* 00005564 */
00005558  177C 0002 000E           move.b     [A3 + 0xE], 0x2
0000555E  376C 0056 0010           move.w     [A3 + 0x10], [A4 + 0x56]
label00005564:
00005564  7014                     moveq.l    D0, 0x14
00005566  B06C 004C                cmp.w      D0, [A4 + 0x4C]
0000556A  57C0                     seq        D0
0000556C  4A00                     tst.b      D0
0000556E  6618                     bne        +0x1A /* 00005588 */
00005570  7215                     moveq.l    D1, 0x15
00005572  B26C 004C                cmp.w      D1, [A4 + 0x4C]
00005576  57C1                     seq        D1
00005578  8001                     or.b       D0, D1
0000557A  660C                     bne        +0xE /* 00005588 */
0000557C  7216                     moveq.l    D1, 0x16
0000557E  B26C 004C                cmp.w      D1, [A4 + 0x4C]
00005582  57C1                     seq        D1
00005584  8001                     or.b       D0, D1
00005586  6714                     beq        +0x16 /* 0000559C */
label00005588:
00005588  486D A3CE                pea.l      [A5 - 0x5C32]
0000558C  4EBA E3F0                jsr        [PC - 0x1C10 /* 0000397E */]
00005590  42A7                     clr.l      -[A7]
00005592  4EAD 145A                jsr        [A5 + 0x145A /* export_647, CODE:13 @ 0000157E */]
00005596  295F 0070                move.l     [A4 + 0x70], [A7]+
0000559A  6014                     bra        +0x16 /* 000055B0 */
label0000559C:
0000559C  2F2C 0058                move.l     -[A7], [A4 + 0x58]
000055A0  4EBA E480                jsr        [PC - 0x1B80 /* 00003A22 */]
000055A4  486D A3CE                pea.l      [A5 - 0x5C32]
000055A8  1F3C 0002                move.b     -[A7], 0x2
000055AC  4EAD 144A                jsr        [A5 + 0x144A /* export_645, CODE:13 @ 000011FC */]
label000055B0:
000055B0  6000 018E                bra        +0x190 /* 00005740 */
000055B4  4267                     clr.w      -[A7]
000055B6  2F2C 0050                move.l     -[A7], [A4 + 0x50]
000055BA  486E FFFF                pea.l      [A6 - 0x1]
000055BE  4EBA F68E                jsr        [PC - 0x972 /* 00004C4E */]
000055C2  1A1F                     move.b     D5, [A7]+
000055C4  1005                     move.b     D0, D5
000055C6  670E                     beq        +0x10 /* 000055D6 */
000055C8  102E FFFF                move.b     D0, [A6 - 0x1]
000055CC  4880                     ext.w      D0
000055CE  48C0                     ext.l      D0
000055D0  2940 0070                move.l     [A4 + 0x70], D0
000055D4  6006                     bra        +0x8 /* 000055DC */
label000055D6:
000055D6  397C 0001 004E           move.w     [A4 + 0x4E], 0x1
label000055DC:
000055DC  6000 0162                bra        +0x164 /* 00005740 */
000055E0  4A2C 0053                tst.b      [A4 + 0x53]
000055E4  6712                     beq        +0x14 /* 000055F8 */
000055E6  206C 0054                movea.l    A0, [A4 + 0x54]
000055EA  43ED A436                lea.l      A1, [A5 - 0x5BCA]
000055EE  7007                     moveq.l    D0, 0x07
label000055F0:
000055F0  20D9                     move.l     [A0]+, [A1]+
000055F2  51C8 FFFC                dbf        D0, -0x6 /* 000055F0 */
000055F6  6010                     bra        +0x12 /* 00005608 */
label000055F8:
000055F8  206C 0054                movea.l    A0, [A4 + 0x54]
000055FC  43ED A456                lea.l      A1, [A5 - 0x5BAA]
00005600  7007                     moveq.l    D0, 0x07
label00005602:
00005602  20D9                     move.l     [A0]+, [A1]+
00005604  51C8 FFFC                dbf        D0, -0x6 /* 00005602 */
label00005608:
00005608  6000 0136                bra        +0x138 /* 00005740 */
0000560C  486D B652                pea.l      [A5 - 0x49AE]
00005610  4EBA B6EC                jsr        [PC - 0x4914 /* 00000CFE */]
00005614  206C 0050                movea.l    A0, [A4 + 0x50]
00005618  43ED E0E8                lea.l      A1, [A5 - 0x1F18]
0000561C  703F                     moveq.l    D0, 0x3F
label0000561E:
0000561E  22D8                     move.l     [A1]+, [A0]+
00005620  51C8 FFFC                dbf        D0, -0x6 /* 0000561E */
00005624  4267                     clr.w      -[A7]
00005626  4EBA E936                jsr        [PC - 0x16CA /* 00003F5E */]
0000562A  1B5F A4F7                move.b     [A5 - 0x5B09], [A7]+
0000562E  6000 0110                bra        +0x112 /* 00005740 */
00005632  486D B652                pea.l      [A5 - 0x49AE]
00005636  4EBA B6C6                jsr        [PC - 0x493A /* 00000CFE */]
0000563A  1B7C 0005 B652           move.b     [A5 - 0x49AE], 0x5
00005640  206C 0050                movea.l    A0, [A4 + 0x50]
00005644  43ED E0E8                lea.l      A1, [A5 - 0x1F18]
00005648  703F                     moveq.l    D0, 0x3F
label0000564A:
0000564A  22D8                     move.l     [A1]+, [A0]+
0000564C  51C8 FFFC                dbf        D0, -0x6 /* 0000564A */
00005650  4267                     clr.w      -[A7]
00005652  4EBA E90A                jsr        [PC - 0x16F6 /* 00003F5E */]
00005656  1B5F A4F7                move.b     [A5 - 0x5B09], [A7]+
0000565A  6000 00E4                bra        +0xE6 /* 00005740 */
0000565E  2F2C 0050                move.l     -[A7], [A4 + 0x50]
00005662  4EBA E41E                jsr        [PC - 0x1BE2 /* 00003A82 */]
00005666  4267                     clr.w      -[A7]
00005668  4EAD 11A2                jsr        [A5 + 0x11A2 /* export_560, CODE:10 @ 00002012 */]
0000566C  101F                     move.b     D0, [A7]+
0000566E  670C                     beq        +0xE /* 0000567C */
00005670  42A7                     clr.l      -[A7]
00005672  4EAD 145A                jsr        [A5 + 0x145A /* export_647, CODE:13 @ 0000157E */]
00005676  295F 0070                move.l     [A4 + 0x70], [A7]+
0000567A  6006                     bra        +0x8 /* 00005682 */
label0000567C:
0000567C  397C 0001 004E           move.w     [A4 + 0x4E], 0x1
label00005682:
00005682  6000 00BC                bra        +0xBE /* 00005740 */
00005686  4267                     clr.w      -[A7]
00005688  2F2C 0050                move.l     -[A7], [A4 + 0x50]
0000568C  2F2C 0054                move.l     -[A7], [A4 + 0x54]
00005690  4EAD 1AC2                jsr        [A5 + 0x1AC2 /* export_852, CODE:16 @ 00001B82 */]
00005694  101F                     move.b     D0, [A7]+
00005696  4880                     ext.w      D0
00005698  48C0                     ext.l      D0
0000569A  2940 0070                move.l     [A4 + 0x70], D0
0000569E  6000 00A0                bra        +0xA2 /* 00005740 */
000056A2  2F2C 0050                move.l     -[A7], [A4 + 0x50]
000056A6  2F2C 0054                move.l     -[A7], [A4 + 0x54]
000056AA  4EAD 191A                jsr        [A5 + 0x191A /* export_799, CODE:16 @ 00000BC6 */]
000056AE  6000 0090                bra        +0x92 /* 00005740 */
000056B2  2F2C 0050                move.l     -[A7], [A4 + 0x50]
000056B6  4EAD 1AA2                jsr        [A5 + 0x1AA2 /* export_848, CODE:16 @ 00001A3E */]
000056BA  6000 0084                bra        +0x86 /* 00005740 */
000056BE  2F2C 0050                move.l     -[A7], [A4 + 0x50]
000056C2  4EAD 1AB2                jsr        [A5 + 0x1AB2 /* export_850, CODE:16 @ 00001A82 */]
000056C6  6078                     bra        +0x7A /* 00005740 */
000056C8  2F2C 0050                move.l     -[A7], [A4 + 0x50]
000056CC  2F2C 0054                move.l     -[A7], [A4 + 0x54]
000056D0  4EAD 1B42                jsr        [A5 + 0x1B42 /* export_868, CODE:16 @ 00001E7C */]
000056D4  606A                     bra        +0x6C /* 00005740 */
000056D6  102D E2FB                move.b     D0, [A5 - 0x1D05]
000056DA  6616                     bne        +0x18 /* 000056F2 */
000056DC  2F2D E2EA                move.l     -[A7], [A5 - 0x1D16]
000056E0  2F2D ECD4                move.l     -[A7], [A5 - 0x132C]
000056E4  2F2D ECD0                move.l     -[A7], [A5 - 0x1330]
000056E8  4EAD 1572                jsr        [A5 + 0x1572 /* export_682, CODE:15 @ 00000408 */]
000056EC  1B7C 0001 E2FB           move.b     [A5 - 0x1D05], 0x1
label000056F2:
000056F2  2E2C 0050                move.l     D7, [A4 + 0x50]
000056F6  2047                     movea.l    A0, D7
000056F8  43ED ED0C                lea.l      A1, [A5 - 0x12F4]
000056FC  20D9                     move.l     [A0]+, [A1]+
000056FE  20D9                     move.l     [A0]+, [A1]+
00005700  20D9                     move.l     [A0]+, [A1]+
00005702  3091                     move.w     [A0], [A1]
00005704  2E2C 0054                move.l     D7, [A4 + 0x54]
00005708  2047                     movea.l    A0, D7
0000570A  43ED ECFE                lea.l      A1, [A5 - 0x1302]
0000570E  20D9                     move.l     [A0]+, [A1]+
00005710  20D9                     move.l     [A0]+, [A1]+
00005712  20D9                     move.l     [A0]+, [A1]+
00005714  3091                     move.w     [A0], [A1]
00005716  6028                     bra        +0x2A /* 00005740 */
00005718  1B7C 0001 E2E3           move.b     [A5 - 0x1D1D], 0x1
0000571E  1B7C 0001 E303           move.b     [A5 - 0x1CFD], 0x1
00005724  41ED E2DA                lea.l      A0, [A5 - 0x1D26]
00005728  43ED ED82                lea.l      A1, [A5 - 0x127E]
0000572C  20D9                     move.l     [A0]+, [A1]+
0000572E  20D9                     move.l     [A0]+, [A1]+
00005730  4EAD 2052                jsr        [A5 + 0x2052 /* export_1030, CODE:20 @ 00000B98 */]
00005734  4EAD 2292                jsr        [A5 + 0x2292 /* export_1102, CODE:20 @ 00005886 */]
00005738  6006                     bra        +0x8 /* 00005740 */
label0000573A:
0000573A  397C 0002 004E           move.w     [A4 + 0x4E], 0x2
label00005740:
00005740  2B46 A80C                move.l     [A5 - 0x57F4], D6
00005744  41ED B652                lea.l      A0, [A5 - 0x49AE]
00005748  43EE FFE2                lea.l      A1, [A6 - 0x1E]
0000574C  7005                     moveq.l    D0, 0x05
label0000574E:
0000574E  20D9                     move.l     [A0]+, [A1]+
00005750  51C8 FFFC                dbf        D0, -0x6 /* 0000574E */
00005754  3B6E FFDC B978           move.w     [A5 - 0x4688], [A6 - 0x24]
0000575A  202D B674                move.l     D0, [A5 - 0x498C]
0000575E  90AE FFDE                sub.l      D0, [A6 - 0x22]
00005762  D1AD B670                add.l      [A5 - 0x4990], D0
00005766  2B6E FFDE B674           move.l     [A5 - 0x498C], [A6 - 0x22]
0000576C  526D AADC                addq.w     [A5 - 0x5524], 1
00005770  4267                     clr.w      -[A7]
00005772  4EAD 17FA                jsr        [A5 + 0x17FA /* export_763, CODE:16 @ 0000009E */]
00005776  101F                     move.b     D0, [A7]+
00005778  802D AAE3                or.b       D0, [A5 - 0x551D]
0000577C  670A                     beq        +0xC /* 00005788 */
0000577E  206D B52E                movea.l    A0, [A5 - 0x4AD2]
00005782  317C 0001 004E           move.w     [A0 + 0x4E], 0x1
label00005788:
00005788  422D AAE3                clr.b      [A5 - 0x551D]
0000578C  4267                     clr.w      -[A7]
0000578E  4EAD 17FA                jsr        [A5 + 0x17FA /* export_763, CODE:16 @ 0000009E */]
00005792  101F                     move.b     D0, [A7]+
00005794  670A                     beq        +0xC /* 000057A0 */
00005796  2F3C 0000 000A           move.l     -[A7], 0xA /* '\n' */
0000579C  201F                     move.l     D0, [A7]+
0000579E  A032                     syscall    FlushEvents
label000057A0:
000057A0  422D FD8D                clr.b      [A5 - 0x273]
label000057A4:
000057A4  B86D B978                cmp.w      D4, [A5 - 0x4688]
000057A8  6C06                     bge        +0x8 /* 000057B0 */
000057AA  4EAD 1432                jsr        [A5 + 0x1432 /* export_642, CODE:13 @ 000010F2 */]
000057AE  60F4                     bra        -0xA /* 000057A4 */
label000057B0:
000057B0  2F2E FFD2                move.l     -[A7], [A6 - 0x2E]
000057B4  A873                     syscall    SetPort
000057B6  4CDF 18F0                movem.l    D4,D5,D6,D7,A3,A4, [A7]+
000057BA  4E5E                     unlink     A6
000057BC  4E75                     rts
export_407:
000057BE  205F                     movea.l    A0, [A7]+
000057C0  341F                     move.w     D2, [A7]+
000057C2  321F                     move.w     D1, [A7]+
000057C4  301F                     move.w     D0, [A7]+
000057C6  225F                     movea.l    A1, [A7]+
000057C8  2F03                     move.l     -[A7], D3
label000057CA:
000057CA  1619                     move.b     D3, [A1]+
000057CC  670E                     beq        +0x10 /* 000057DC */
000057CE  B003                     cmp.b      D0, D3
000057D0  66F8                     bne        -0x6 /* 000057CA */
000057D2  B211                     cmp.b      D1, [A1]
000057D4  66F4                     bne        -0xA /* 000057CA */
000057D6  1342 FFFF                move.b     [A1 - 0x1], D2
000057DA  60EE                     bra        -0x10 /* 000057CA */
label000057DC:
000057DC  261F                     move.l     D3, [A7]+
000057DE  4ED0                     jmp        [A0]
export_408:
fn000057E0:
000057E0  4EAD 1A5A                jsr        [A5 + 0x1A5A /* export_839, CODE:16 @ 000015A8 */]
000057E4  2248                     movea.l    A1, A0
000057E6  206F 0008                movea.l    A0, [A7 + 0x8]
000057EA  2050                     movea.l    A0, [A0]
000057EC  7000                     moveq.l    D0, 0x00
label000057EE:
000057EE  0C18 0020                cmpi.b     [A0]+, 0x20 /* ' ' */
000057F2  67FA                     beq        -0x4 /* 000057EE */
000057F4  5348                     subq.w     A0, 1
000057F6  0C28 0020 0002           cmpi.b     [A0 + 0x2], 0x20 /* ' ' */
000057FC  6616                     bne        +0x18 /* 00005814 */
000057FE  1010                     move.b     D0, [A0]
00005800  0C31 006F 0000           cmpi.b     [A1 + D0.w], 0x6F /* 'o' */
00005806  660C                     bne        +0xE /* 00005814 */
00005808  1028 0001                move.b     D0, [A0 + 0x1]
0000580C  0C31 006E 0000           cmpi.b     [A1 + D0.w], 0x6E /* 'n' */
00005812  677E                     beq        +0x80 /* 00005892 */
label00005814:
00005814  0C28 0020 0008           cmpi.b     [A0 + 0x8], 0x20 /* ' ' */
0000581A  6600 0064                bne        +0x66 /* 00005880 */
0000581E  1010                     move.b     D0, [A0]
00005820  0C31 0066 0000           cmpi.b     [A1 + D0.w], 0x66 /* 'f' */
00005826  6658                     bne        +0x5A /* 00005880 */
00005828  1028 0001                move.b     D0, [A0 + 0x1]
0000582C  0C31 0075 0000           cmpi.b     [A1 + D0.w], 0x75 /* 'u' */
00005832  664C                     bne        +0x4E /* 00005880 */
00005834  1028 0002                move.b     D0, [A0 + 0x2]
00005838  0C31 006E 0000           cmpi.b     [A1 + D0.w], 0x6E /* 'n' */
0000583E  6640                     bne        +0x42 /* 00005880 */
00005840  1028 0003                move.b     D0, [A0 + 0x3]
00005844  0C31 0063 0000           cmpi.b     [A1 + D0.w], 0x63 /* 'c' */
0000584A  6634                     bne        +0x36 /* 00005880 */
0000584C  1028 0004                move.b     D0, [A0 + 0x4]
00005850  0C31 0074 0000           cmpi.b     [A1 + D0.w], 0x74 /* 't' */
00005856  6628                     bne        +0x2A /* 00005880 */
00005858  1028 0005                move.b     D0, [A0 + 0x5]
0000585C  0C31 0069 0000           cmpi.b     [A1 + D0.w], 0x69 /* 'i' */
00005862  661C                     bne        +0x1E /* 00005880 */
00005864  1028 0006                move.b     D0, [A0 + 0x6]
00005868  0C31 006F 0000           cmpi.b     [A1 + D0.w], 0x6F /* 'o' */
0000586E  6610                     bne        +0x12 /* 00005880 */
00005870  1028 0007                move.b     D0, [A0 + 0x7]
00005874  0C31 006E 0000           cmpi.b     [A1 + D0.w], 0x6E /* 'n' */
0000587A  6604                     bne        +0x6 /* 00005880 */
0000587C  7001                     moveq.l    D0, 0x01
0000587E  6014                     bra        +0x16 /* 00005894 */
label00005880:
00005880  0C18 000D                cmpi.b     [A0]+, 0xD /* '\r' */
00005884  62FA                     bhi        -0x4 /* 00005880 */
00005886  6700 FF66                beq        -0x98 /* 000057EE */
0000588A  4A28 FFFF                tst.b      [A0 - 0x1]
0000588E  66F0                     bne        -0xE /* 00005880 */
00005890  5348                     subq.w     A0, 1
label00005892:
00005892  7000                     moveq.l    D0, 0x00
label00005894:
00005894  226F 0008                movea.l    A1, [A7 + 0x8]
00005898  2288                     move.l     [A1], A0
0000589A  226F 0004                movea.l    A1, [A7 + 0x4]
0000589E  1280                     move.b     [A1], D0
000058A0  205F                     movea.l    A0, [A7]+
000058A2  504F                     addq.w     A7, 8
000058A4  4ED0                     jmp        [A0]
fn000058A6:
000058A6  4EAD 1A5A                jsr        [A5 + 0x1A5A /* export_839, CODE:16 @ 000015A8 */]
000058AA  2248                     movea.l    A1, A0
000058AC  206F 0004                movea.l    A0, [A7 + 0x4]
000058B0  7000                     moveq.l    D0, 0x00
000058B2  7400                     moveq.l    D2, 0x00
000058B4  1418                     move.b     D2, [A0]+
000058B6  3202                     move.w     D1, D2
000058B8  EF4A                     lsl        D2.w, 7
000058BA  600A                     bra        +0xC /* 000058C6 */
label000058BC:
000058BC  E35A                     rol        D2.w, 1
000058BE  1018                     move.b     D0, [A0]+
000058C0  1031 0000                move.b     D0, [A1 + D0.w]
000058C4  B102                     xor.b      D2, D0
label000058C6:
000058C6  51C9 FFF4                dbf        D1, -0xE /* 000058BC */
000058CA  84EF 0008                divu.w     D2, [A7 + 0x8]
000058CE  4242                     clr.w      D2
000058D0  4842                     swap.w     D2
000058D2  E58A                     lsl        D2, 2
000058D4  D4AF 000A                add.l      D2, [A7 + 0xA]
000058D8  205F                     movea.l    A0, [A7]+
000058DA  DEFC 000A                add.w      A7, 0xA /* '\n' */
000058DE  2E82                     move.l     [A7], D2
000058E0  4ED0                     jmp        [A0]
