# near model CODE resource
# jump table entries: 2056-2059 (4 of them)
fn00000000:
00000000  4E56 FFFE                link       A6, -0x0002
00000004  48E7 0108                movem.l    -[A7], D7,A4
00000008  206D DBFC                movea.l    A0, [A5 - 0x2404]
0000000C  2050                     movea.l    A0, [A0]
0000000E  49E8 0010                lea.l      A4, [A0 + 0x10]
00000012  302C 0006                move.w     D0, [A4 + 0x6]
00000016  906C 0002                sub.w      D0, [A4 + 0x2]
0000001A  3B40 DC3A                move.w     [A5 - 0x23C6], D0
0000001E  302C 0004                move.w     D0, [A4 + 0x4]
00000022  9054                     sub.w      D0, [A4]
00000024  3B40 DC3C                move.w     [A5 - 0x23C4], D0
00000028  4267                     clr.w      -[A7]
0000002A  4EAD 081A                jsr        [A5 + 0x81A /* export_255, CODE:4 @ 00004AF6 */]
0000002E  4267                     clr.w      -[A7]
00000030  4EAD 0812                jsr        [A5 + 0x812 /* export_254, CODE:4 @ 00004AD4 */]
00000034  101F                     move.b     D0, [A7]+
00000036  0A00 0001                xori.b     D0, 0x1
0000003A  C01F                     and.b      D0, [A7]+
0000003C  6742                     beq        +0x44 /* 00000080 */
0000003E  3E2D DC3C                move.w     D7, [A5 - 0x23C4]
00000042  3B6D DC3A DC3C           move.w     [A5 - 0x23C4], [A5 - 0x23C6]
00000048  3B47 DC3A                move.w     [A5 - 0x23C6], D7
0000004C  4267                     clr.w      -[A7]
0000004E  3014                     move.w     D0, [A4]
00000050  48C0                     ext.l      D0
00000052  2F00                     move.l     -[A7], D0
00000054  4EBA 3F0E                jsr        [PC + 0x3F0E /* 00003F64 */]
00000058  302D DC1E                move.w     D0, [A5 - 0x23E2]
0000005C  905F                     sub.w      D0, [A7]+
0000005E  5240                     addq.w     D0, 1
00000060  3B40 DC36                move.w     [A5 - 0x23CA], D0
00000064  4267                     clr.w      -[A7]
00000066  302C 0002                move.w     D0, [A4 + 0x2]
0000006A  48C0                     ext.l      D0
0000006C  2F00                     move.l     -[A7], D0
0000006E  4EBA 3F24                jsr        [PC + 0x3F24 /* 00003F94 */]
00000072  302D DC1C                move.w     D0, [A5 - 0x23E4]
00000076  905F                     sub.w      D0, [A7]+
00000078  5240                     addq.w     D0, 1
0000007A  3B40 DC38                move.w     [A5 - 0x23C8], D0
0000007E  6032                     bra        +0x34 /* 000000B2 */
label00000080:
00000080  4267                     clr.w      -[A7]
00000082  302C 0002                move.w     D0, [A4 + 0x2]
00000086  48C0                     ext.l      D0
00000088  2F00                     move.l     -[A7], D0
0000008A  4EBA 3ED8                jsr        [PC + 0x3ED8 /* 00003F64 */]
0000008E  302D DC1E                move.w     D0, [A5 - 0x23E2]
00000092  905F                     sub.w      D0, [A7]+
00000094  5240                     addq.w     D0, 1
00000096  3B40 DC36                move.w     [A5 - 0x23CA], D0
0000009A  4267                     clr.w      -[A7]
0000009C  3014                     move.w     D0, [A4]
0000009E  48C0                     ext.l      D0
000000A0  2F00                     move.l     -[A7], D0
000000A2  4EBA 3EF0                jsr        [PC + 0x3EF0 /* 00003F94 */]
000000A6  302D DC1C                move.w     D0, [A5 - 0x23E4]
000000AA  905F                     sub.w      D0, [A7]+
000000AC  5240                     addq.w     D0, 1
000000AE  3B40 DC38                move.w     [A5 - 0x23C8], D0
label000000B2:
000000B2  4CDF 1080                movem.l    D7,A4, [A7]+
000000B6  4E5E                     unlink     A6
000000B8  4E75                     rts
export_257:
000000BA  4E56 FFF8                link       A6, -0x0008
000000BE  48E7 0300                movem.l    -[A7], D6,D7
000000C2  4EAD 1862                jsr        [A5 + 0x1862 /* export_776, CODE:16 @ 00000474 */]
000000C6  4267                     clr.w      -[A7]
000000C8  4EAD 06A2                jsr        [A5 + 0x6A2 /* export_208, CODE:4 @ 000018E2 */]
000000CC  101F                     move.b     D0, [A7]+
000000CE  670E                     beq        +0x10 /* 000000DE */
000000D0  1F2D DC2C                move.b     -[A7], [A5 - 0x23D4]
000000D4  4EAD 07E2                jsr        [A5 + 0x7E2 /* export_248, CODE:4 @ 00004440 */]
000000D8  4267                     clr.w      -[A7]
000000DA  4EAD 07BA                jsr        [A5 + 0x7BA /* export_243, CODE:4 @ 000041E2 */]
label000000DE:
000000DE  4267                     clr.w      -[A7]
000000E0  4EAD 06C2                jsr        [A5 + 0x6C2 /* export_212, CODE:4 @ 00001CFA */]
000000E4  101F                     move.b     D0, [A7]+
000000E6  661C                     bne        +0x1E /* 00000104 */
000000E8  4267                     clr.w      -[A7]
000000EA  4EAD 080A                jsr        [A5 + 0x80A /* export_253, CODE:4 @ 00004A6C */]
000000EE  101F                     move.b     D0, [A7]+
000000F0  6706                     beq        +0x8 /* 000000F8 */
000000F2  3E3C 012C                move.w     D7, 0x12C
000000F6  6002                     bra        +0x4 /* 000000FA */
label000000F8:
000000F8  7E48                     moveq.l    D7, 0x48
label000000FA:
000000FA  3F07                     move.w     -[A7], D7
000000FC  2F2D DBFC                move.l     -[A7], [A5 - 0x2404]
00000100  4EAD 07EA                jsr        [A5 + 0x7EA /* export_249, CODE:4 @ 000044A4 */]
label00000104:
00000104  4267                     clr.w      -[A7]
00000106  2F2D DBFC                move.l     -[A7], [A5 - 0x2404]
0000010A  4EAD 015A                jsr        [A5 + 0x15A /* export_39, CODE:1 @ 00003E00 */]
0000010E  1C1F                     move.b     D6, [A7]+
00000110  4267                     clr.w      -[A7]
00000112  2F2D DBFC                move.l     -[A7], [A5 - 0x2404]
00000116  4EAD 0152                jsr        [A5 + 0x152 /* export_38, CODE:1 @ 00003DF2 */]
0000011A  1C1F                     move.b     D6, [A7]+
0000011C  41ED E2F2                lea.l      A0, [A5 - 0x1D0E]
00000120  43ED ED82                lea.l      A1, [A5 - 0x127E]
00000124  20D9                     move.l     [A0]+, [A1]+
00000126  20D9                     move.l     [A0]+, [A1]+
00000128  4EAD 0732                jsr        [A5 + 0x732 /* export_226, CODE:4 @ 0000248E */]
0000012C  4267                     clr.w      -[A7]
0000012E  4EAD 069A                jsr        [A5 + 0x69A /* export_207, CODE:4 @ 000018BE */]
00000132  101F                     move.b     D0, [A7]+
00000134  672C                     beq        +0x2E /* 00000162 */
00000136  4267                     clr.w      -[A7]
00000138  206D DBFC                movea.l    A0, [A5 - 0x2404]
0000013C  2050                     movea.l    A0, [A0]
0000013E  4868 0018                pea.l      [A0 + 0x18]
00000142  700E                     moveq.l    D0, 0x0E
00000144  2F00                     move.l     -[A7], D0
00000146  A85D                     syscall    BitTst
00000148  101F                     move.b     D0, [A7]+
0000014A  0A00 0001                xori.b     D0, 0x1
0000014E  1B40 DC2C                move.b     [A5 - 0x23D4], D0
00000152  206D DBFC                movea.l    A0, [A5 - 0x2404]
00000156  2050                     movea.l    A0, [A0]
00000158  4868 0018                pea.l      [A0 + 0x18]
0000015C  700E                     moveq.l    D0, 0x0E
0000015E  2F00                     move.l     -[A7], D0
00000160  A85E                     syscall    BitSet
label00000162:
00000162  4267                     clr.w      -[A7]
00000164  4EAD 05E2                jsr        [A5 + 0x5E2 /* export_184, CODE:4 @ 00000096 */]
00000168  101F                     move.b     D0, [A7]+
0000016A  672C                     beq        +0x2E /* 00000198 */
0000016C  4267                     clr.w      -[A7]
0000016E  206D DBFC                movea.l    A0, [A5 - 0x2404]
00000172  2050                     movea.l    A0, [A0]
00000174  4868 0054                pea.l      [A0 + 0x54]
00000178  700E                     moveq.l    D0, 0x0E
0000017A  2F00                     move.l     -[A7], D0
0000017C  A85D                     syscall    BitTst
0000017E  101F                     move.b     D0, [A7]+
00000180  0A00 0001                xori.b     D0, 0x1
00000184  1B40 DC2C                move.b     [A5 - 0x23D4], D0
00000188  206D DBFC                movea.l    A0, [A5 - 0x2404]
0000018C  2050                     movea.l    A0, [A0]
0000018E  4868 0054                pea.l      [A0 + 0x54]
00000192  700E                     moveq.l    D0, 0x0E
00000194  2F00                     move.l     -[A7], D0
00000196  A85E                     syscall    BitSet
label00000198:
00000198  4267                     clr.w      -[A7]
0000019A  4EAD 06C2                jsr        [A5 + 0x6C2 /* export_212, CODE:4 @ 00001CFA */]
0000019E  101F                     move.b     D0, [A7]+
000001A0  670C                     beq        +0xE /* 000001AE */
000001A2  206D DBFC                movea.l    A0, [A5 - 0x2404]
000001A6  2050                     movea.l    A0, [A0]
000001A8  317C 0064 0032           move.w     [A0 + 0x32], 0x64 /* 'd' */
label000001AE:
000001AE  3F2D DC34                move.w     -[A7], [A5 - 0x23CC]
000001B2  2F2D DBFC                move.l     -[A7], [A5 - 0x2404]
000001B6  4EAD 07EA                jsr        [A5 + 0x7EA /* export_249, CODE:4 @ 000044A4 */]
000001BA  4CDF 00C0                movem.l    D6,D7, [A7]+
000001BE  4E5E                     unlink     A6
000001C0  4E75                     rts
fn000001C2:
000001C2  4E56 FFF0                link       A6, -0x0010
000001C6  206E 0008                movea.l    A0, [A6 + 0x8]
000001CA  43EE FFF8                lea.l      A1, [A6 - 0x8]
000001CE  22D8                     move.l     [A1]+, [A0]+
000001D0  22D8                     move.l     [A1]+, [A0]+
000001D2  41EE FFF0                lea.l      A0, [A6 - 0x10]
000001D6  43EE FFF8                lea.l      A1, [A6 - 0x8]
000001DA  20D9                     move.l     [A0]+, [A1]+
000001DC  20D9                     move.l     [A0]+, [A1]+
000001DE  486E FFF0                pea.l      [A6 - 0x10]
000001E2  2F3C FFFE FFFE           move.l     -[A7], 0xFFFEFFFE
000001E8  A8A9                     syscall    InsetRect
000001EA  2F3C 0002 0002           move.l     -[A7], 0x20002
000001F0  A89B                     syscall    PenSize
000001F2  486E FFF0                pea.l      [A6 - 0x10]
000001F6  A8A1                     syscall    FrameRect
000001F8  2F3C 0001 0001           move.l     -[A7], 0x10001
000001FE  A89B                     syscall    PenSize
00000200  4E5E                     unlink     A6
00000202  2E9F                     move.l     [A7], [A7]+
00000204  4E75                     rts
fn00000206:
00000206  4E56 FDE6                link       A6, -0x021A
0000020A  48E7 0F08                movem.l    -[A7], D4,D5,D6,D7,A4
0000020E  206E 0008                movea.l    A0, [A6 + 0x8]
00000212  43EE FF00                lea.l      A1, [A6 - 0x100]
00000216  703F                     moveq.l    D0, 0x3F
label00000218:
00000218  22D8                     move.l     [A1]+, [A0]+
0000021A  51C8 FFFC                dbf        D0, -0x6 /* 00000218 */
0000021E  4240                     clr.w      D0
00000220  102E FF00                move.b     D0, [A6 - 0x100]
00000224  4A40                     tst.w      D0
00000226  6700 018A                beq        +0x18C /* 000003B2 */
0000022A  42A7                     clr.l      -[A7]
0000022C  A8D8                     syscall    NewRgn
0000022E  285F                     movea.l    A4, [A7]+
00000230  486E FDF4                pea.l      [A6 - 0x20C]
00000234  A874                     syscall    GetPort
00000236  206E FDF4                movea.l    A0, [A6 - 0x20C]
0000023A  3828 0044                move.w     D4, [A0 + 0x44]
0000023E  206E FDF4                movea.l    A0, [A6 - 0x20C]
00000242  3C28 004A                move.w     D6, [A0 + 0x4A]
00000246  2F0C                     move.l     -[A7], A4
00000248  A87A                     syscall    GetClip
0000024A  3F3C 0003                move.w     -[A7], 0x3
0000024E  A887                     syscall    TextFont
00000250  102D F2B3                move.b     D0, [A5 - 0xD4D]
00000254  670E                     beq        +0x10 /* 00000264 */
00000256  3F2D F2BC                move.w     -[A7], [A5 - 0xD44]
0000025A  A887                     syscall    TextFont
0000025C  3F2D F2BC                move.w     -[A7], [A5 - 0xD44]
00000260  4EAD 21D2                jsr        [A5 + 0x21D2 /* export_1078, CODE:20 @ 00004516 */]
label00000264:
00000264  42A7                     clr.l      -[A7]
00000266  42A7                     clr.l      -[A7]
00000268  4EAD 067A                jsr        [A5 + 0x67A /* export_203, CODE:4 @ 000016BA */]
0000026C  301F                     move.w     D0, [A7]+
0000026E  48C0                     ext.l      D0
00000270  2F00                     move.l     -[A7], D0
00000272  4EAD 079A                jsr        [A5 + 0x79A /* export_239, CODE:4 @ 00004026 */]
00000276  4EBA 3C8C                jsr        [PC + 0x3C8C /* 00003F04 */]
0000027A  A88A                     syscall    TextSize
0000027C  486E FDEC                pea.l      [A6 - 0x214]
00000280  4267                     clr.w      -[A7]
00000282  302D DC0E                move.w     D0, [A5 - 0x23F2]
00000286  48C0                     ext.l      D0
00000288  2F00                     move.l     -[A7], D0
0000028A  4EBA 3CD8                jsr        [PC + 0x3CD8 /* 00003F64 */]
0000028E  302D DC36                move.w     D0, [A5 - 0x23CA]
00000292  D05F                     add.w      D0, [A7]+
00000294  3F00                     move.w     -[A7], D0
00000296  3F2D DC1C                move.w     -[A7], [A5 - 0x23E4]
0000029A  4267                     clr.w      -[A7]
0000029C  302D DC12                move.w     D0, [A5 - 0x23EE]
000002A0  48C0                     ext.l      D0
000002A2  2F00                     move.l     -[A7], D0
000002A4  4EBA 3CBE                jsr        [PC + 0x3CBE /* 00003F64 */]
000002A8  302D DC36                move.w     D0, [A5 - 0x23CA]
000002AC  D05F                     add.w      D0, [A7]+
000002AE  3F00                     move.w     -[A7], D0
000002B0  3F2D DC20                move.w     -[A7], [A5 - 0x23E0]
000002B4  A8A7                     syscall    SetRect
000002B6  486E FDEC                pea.l      [A6 - 0x214]
000002BA  A87B                     syscall    ClipRect
000002BC  42A7                     clr.l      -[A7]
000002BE  4EAD 068A                jsr        [A5 + 0x68A /* export_205, CODE:4 @ 0000184A */]
000002C2  301F                     move.w     D0, [A7]+
000002C4  D06D DC0E                add.w      D0, [A5 - 0x23F2]
000002C8  3F00                     move.w     -[A7], D0
000002CA  302D DC06                move.w     D0, [A5 - 0x23FA]
000002CE  D06D DC0E                add.w      D0, [A5 - 0x23F2]
000002D2  48C0                     ext.l      D0
000002D4  81FC 0002                divs.w     D0, 0x2
000002D8  3F00                     move.w     -[A7], D0
000002DA  4EAD 18C2                jsr        [A5 + 0x18C2 /* export_788, CODE:16 @ 000007E6 */]
000002DE  3A1F                     move.w     D5, [A7]+
000002E0  4267                     clr.w      -[A7]
000002E2  3F05                     move.w     -[A7], D5
000002E4  4EBA 3C1E                jsr        [PC + 0x3C1E /* 00003F04 */]
000002E8  302D DC36                move.w     D0, [A5 - 0x23CA]
000002EC  D05F                     add.w      D0, [A7]+
000002EE  3F00                     move.w     -[A7], D0
000002F0  42A7                     clr.l      -[A7]
000002F2  7016                     moveq.l    D0, 0x16
000002F4  2F00                     move.l     -[A7], D0
000002F6  4EAD 079A                jsr        [A5 + 0x79A /* export_239, CODE:4 @ 00004026 */]
000002FA  7003                     moveq.l    D0, 0x03
000002FC  C1DF                     muls.w     D0, [A7]+
000002FE  48C0                     ext.l      D0
00000300  81FC 0004                divs.w     D0, 0x4
00000304  D06D DC0C                add.w      D0, [A5 - 0x23F4]
00000308  48C0                     ext.l      D0
0000030A  2F00                     move.l     -[A7], D0
0000030C  4EBA 3C86                jsr        [PC + 0x3C86 /* 00003F94 */]
00000310  302D DC38                move.w     D0, [A5 - 0x23C8]
00000314  5340                     subq.w     D0, 1
00000316  D05F                     add.w      D0, [A7]+
00000318  3F00                     move.w     -[A7], D0
0000031A  A893                     syscall    MoveTo
0000031C  486E FF00                pea.l      [A6 - 0x100]
00000320  486E FE00                pea.l      [A6 - 0x200]
00000324  4EAD 06AA                jsr        [A5 + 0x6AA /* export_209, CODE:4 @ 00001906 */]
00000328  4240                     clr.w      D0
0000032A  102E FE00                move.b     D0, [A6 - 0x200]
0000032E  3D40 FDE6                move.w     [A6 - 0x21A], D0
00000332  7E01                     moveq.l    D7, 0x01
00000334  6060                     bra        +0x62 /* 00000396 */
label00000336:
00000336  4240                     clr.w      D0
00000338  41EE FE00                lea.l      A0, [A6 - 0x200]
0000033C  1030 7000                move.b     D0, [A0 + D7.w]
00000340  7201                     moveq.l    D1, 0x01
00000342  B240                     cmp.w      D1, D0
00000344  664C                     bne        +0x4E /* 00000392 */
00000346  102D F2B3                move.b     D0, [A5 - 0xD4D]
0000034A  0A00 0001                xori.b     D0, 0x1
0000034E  4A00                     tst.b      D0
00000350  6622                     bne        +0x24 /* 00000374 */
00000352  2F00                     move.l     -[A7], D0
00000354  4267                     clr.w      -[A7]
00000356  486E FE00                pea.l      [A6 - 0x200]
0000035A  3F07                     move.w     -[A7], D7
0000035C  2F3C 8206 0010           move.l     -[A7], 0x82060010
00000362  A8B5                     syscall    ScriptUtil
00000364  321F                     move.w     D1, [A7]+
00000366  201F                     move.l     D0, [A7]+
00000368  4A41                     tst.w      D1
0000036A  57C1                     seq        D1
0000036C  8001                     or.b       D0, D1
0000036E  0240 0001                andi.w     D0, 0x1
00000372  671E                     beq        +0x20 /* 00000392 */
label00000374:
00000374  486E FE00                pea.l      [A6 - 0x200]
00000378  3F07                     move.w     -[A7], D7
0000037A  3F3C 0001                move.w     -[A7], 0x1
0000037E  4EAD 051A                jsr        [A5 + 0x51A /* export_159, CODE:1 @ 000053C0 */]
00000382  487A 0038                pea.l      [PC + 0x38 /* 000003BC, value 0x2313800, pstring "18" */]
00000386  486E FE00                pea.l      [A6 - 0x200]
0000038A  3F07                     move.w     -[A7], D7
0000038C  4EAD 0522                jsr        [A5 + 0x522 /* export_160, CODE:1 @ 000053F6 */]
00000390  600A                     bra        +0xC /* 0000039C */
label00000392:
00000392  5247                     addq.w     D7, 1
00000394  6906                     bvs        +0x8 /* 0000039C */
label00000396:
00000396  BE6E FDE6                cmp.w      D7, [A6 - 0x21A]
0000039A  6F9A                     ble        -0x64 /* 00000336 */
label0000039C:
0000039C  486E FE00                pea.l      [A6 - 0x200]
000003A0  A884                     syscall    DrawString
000003A2  3F06                     move.w     -[A7], D6
000003A4  A88A                     syscall    TextSize
000003A6  3F04                     move.w     -[A7], D4
000003A8  A887                     syscall    TextFont
000003AA  2F0C                     move.l     -[A7], A4
000003AC  A879                     syscall    SetClip
000003AE  2F0C                     move.l     -[A7], A4
000003B0  A8D9                     syscall    DisposRgn/DisposeRgn
label000003B2:
000003B2  4CDF 10F0                movem.l    D4,D5,D6,D7,A4, [A7]+
000003B6  4E5E                     unlink     A6
000003B8  2E9F                     move.l     [A7], [A7]+
000003BA  4E75                     rts
000003BC  0231 3800 4E56           andi.b     [A1 + D4 * 8 + 0x56], 0x0
// begin alternate branch 000003C0-000003C4
fn000003C0:
000003C0  4E56 FFCE                link       A6, -0x0032
// end alternate branch 000003C0-000003C4
fn000003C0: // (misaligned)
000003C2  FFCE                     .invalid   <<F/7/7>>
000003C4  48E7 0018                movem.l    -[A7], A3,A4
000003C8  206E 0008                movea.l    A0, [A6 + 0x8]
000003CC  43EE FFF8                lea.l      A1, [A6 - 0x8]
000003D0  22D8                     move.l     [A1]+, [A0]+
000003D2  22D8                     move.l     [A1]+, [A0]+
000003D4  486E FFF4                pea.l      [A6 - 0xC]
000003D8  A874                     syscall    GetPort
000003DA  42A7                     clr.l      -[A7]
000003DC  3F3C 0066                move.w     -[A7], 0x66 /* 'f' */
000003E0  42A7                     clr.l      -[A7]
000003E2  70FF                     moveq.l    D0, 0xFFFFFFFF
000003E4  2F00                     move.l     -[A7], D0
000003E6  A97C                     syscall    GetNewDialog
000003E8  2B5F D732                move.l     [A5 - 0x28CE], [A7]+
000003EC  2F2D D732                move.l     -[A7], [A5 - 0x28CE]
000003F0  4EAD 182A                jsr        [A5 + 0x182A /* export_769, CODE:16 @ 000002AC */]
000003F4  3F3C 0003                move.w     -[A7], 0x3
000003F8  4EAD 0652                jsr        [A5 + 0x652 /* export_198, CODE:4 @ 00001462 */]
000003FC  2F2D D732                move.l     -[A7], [A5 - 0x28CE]
00000400  A915                     syscall    ShowWindow
00000402  2F2D D732                move.l     -[A7], [A5 - 0x28CE]
00000406  A981                     syscall    DrawDialog
00000408  4EAD 181A                jsr        [A5 + 0x181A /* export_767, CODE:16 @ 00000216 */]
0000040C  486E FFF0                pea.l      [A6 - 0x10]
00000410  A874                     syscall    GetPort
00000412  2F2D D732                move.l     -[A7], [A5 - 0x28CE]
00000416  A873                     syscall    SetPort
00000418  206D D732                movea.l    A0, [A5 - 0x28CE]
0000041C  4868 0010                pea.l      [A0 + 0x10]
00000420  A92A                     syscall    ValidRect
00000422  2F2E FFF0                move.l     -[A7], [A6 - 0x10]
00000426  A873                     syscall    SetPort
00000428  2F2D DBFC                move.l     -[A7], [A5 - 0x2404]
0000042C  4267                     clr.w      -[A7]
0000042E  4EAD 07DA                jsr        [A5 + 0x7DA /* export_247, CODE:4 @ 000043CC */]
00000432  4EAD 07B2                jsr        [A5 + 0x7B2 /* export_242, CODE:4 @ 0000417C */]
00000436  42A7                     clr.l      -[A7]
00000438  2F2D DBFC                move.l     -[A7], [A5 - 0x2404]
0000043C  42A7                     clr.l      -[A7]
0000043E  42A7                     clr.l      -[A7]
00000440  4EAD 012A                jsr        [A5 + 0x12A /* export_33, CODE:1 @ 00003DAC */]
00000444  2B5F D736                move.l     [A5 - 0x28CA], [A7]+
00000448  4267                     clr.w      -[A7]
0000044A  4EAD 0722                jsr        [A5 + 0x722 /* export_224, CODE:4 @ 00002452 */]
0000044E  4A5F                     tst.w      [A7]+
00000450  6600 00D4                bne        +0xD6 /* 00000526 */
00000454  2F2D D736                move.l     -[A7], [A5 - 0x28CA]
00000458  42A7                     clr.l      -[A7]
0000045A  4EAD 013A                jsr        [A5 + 0x13A /* export_35, CODE:1 @ 00003DC8 */]
0000045E  4EAD 181A                jsr        [A5 + 0x181A /* export_767, CODE:16 @ 00000216 */]
00000462  4267                     clr.w      -[A7]
00000464  1F3C 0001                move.b     -[A7], 0x1
00000468  4EAD 078A                jsr        [A5 + 0x78A /* export_237, CODE:4 @ 00003E5A */]
0000046C  101F                     move.b     D0, [A7]+
0000046E  6706                     beq        +0x8 /* 00000476 */
00000470  1B7C 0001 DC2A           move.b     [A5 - 0x23D6], 0x1
label00000476:
00000476  4267                     clr.w      -[A7]
00000478  4EAD 073A                jsr        [A5 + 0x73A /* export_227, CODE:4 @ 000024A8 */]
0000047C  4267                     clr.w      -[A7]
0000047E  4EAD 0722                jsr        [A5 + 0x722 /* export_224, CODE:4 @ 00002452 */]
00000482  4A5F                     tst.w      [A7]+
00000484  6600 0098                bne        +0x9A /* 0000051E */
00000488  4267                     clr.w      -[A7]
0000048A  4EAD 075A                jsr        [A5 + 0x75A /* export_231, CODE:4 @ 00002712 */]
0000048E  101F                     move.b     D0, [A7]+
00000490  671A                     beq        +0x1C /* 000004AC */
00000492  486D ED44                pea.l      [A5 - 0x12BC]
00000496  206D D736                movea.l    A0, [A5 - 0x28CA]
0000049A  4868 0002                pea.l      [A0 + 0x2]
0000049E  486D ED82                pea.l      [A5 - 0x127E]
000004A2  486E FFF8                pea.l      [A6 - 0x8]
000004A6  4EAD 060A                jsr        [A5 + 0x60A /* export_189, CODE:4 @ 00000B50 */]
000004AA  601C                     bra        +0x1E /* 000004C8 */
label000004AC:
000004AC  486D ED44                pea.l      [A5 - 0x12BC]
000004B0  206D D736                movea.l    A0, [A5 - 0x28CA]
000004B4  4868 0002                pea.l      [A0 + 0x2]
000004B8  486D ED82                pea.l      [A5 - 0x127E]
000004BC  486E FFF8                pea.l      [A6 - 0x8]
000004C0  3F3C 0001                move.w     -[A7], 0x1
000004C4  42A7                     clr.l      -[A7]
000004C6  A8EC                     syscall    CopyBits
label000004C8:
000004C8  102D DC2A                move.b     D0, [A5 - 0x23D6]
000004CC  6750                     beq        +0x52 /* 0000051E */
000004CE  42A7                     clr.l      -[A7]
000004D0  2F2D F62A                move.l     -[A7], [A5 - 0x9D6]
000004D4  4EAD 1F7A                jsr        [A5 + 0x1F7A /* export_1003, CODE:19 @ 00001744 */]
000004D8  285F                     movea.l    A4, [A7]+
000004DA  200C                     move.l     D0, A4
000004DC  6606                     bne        +0x8 /* 000004E4 */
000004DE  4EAD 0752                jsr        [A5 + 0x752 /* export_230, CODE:4 @ 00002702 */]
000004E2  603A                     bra        +0x3C /* 0000051E */
label000004E4:
000004E4  42A7                     clr.l      -[A7]
000004E6  2054                     movea.l    A0, [A4]
000004E8  2F28 0020                move.l     -[A7], [A0 + 0x20]
000004EC  4EAD 1F6A                jsr        [A5 + 0x1F6A /* export_1001, CODE:19 @ 000016EC */]
000004F0  265F                     movea.l    A3, [A7]+
000004F2  200B                     move.l     D0, A3
000004F4  6606                     bne        +0x8 /* 000004FC */
000004F6  4EAD 0752                jsr        [A5 + 0x752 /* export_230, CODE:4 @ 00002702 */]
000004FA  6018                     bra        +0x1A /* 00000514 */
label000004FC:
000004FC  2F0C                     move.l     -[A7], A4
000004FE  2F0B                     move.l     -[A7], A3
00000500  2F2E FFF8                move.l     -[A7], [A6 - 0x8]
00000504  4EAD 0762                jsr        [A5 + 0x762 /* export_232, CODE:4 @ 00002724 */]
00000508  2054                     movea.l    A0, [A4]
0000050A  2F28 0020                move.l     -[A7], [A0 + 0x20]
0000050E  4267                     clr.w      -[A7]
00000510  4EAD 1EE2                jsr        [A5 + 0x1EE2 /* export_984, CODE:19 @ 00000414 */]
label00000514:
00000514  2F2D F62A                move.l     -[A7], [A5 - 0x9D6]
00000518  4267                     clr.w      -[A7]
0000051A  4EAD 1EF2                jsr        [A5 + 0x1EF2 /* export_986, CODE:19 @ 00000450 */]
label0000051E:
0000051E  2F2D D736                move.l     -[A7], [A5 - 0x28CA]
00000522  4EAD 0142                jsr        [A5 + 0x142 /* export_36, CODE:1 @ 00003DD6 */]
label00000526:
00000526  2F2D D736                move.l     -[A7], [A5 - 0x28CA]
0000052A  4EAD 0132                jsr        [A5 + 0x132 /* export_34, CODE:1 @ 00003DBA */]
0000052E  206D DBFC                movea.l    A0, [A5 - 0x2404]
00000532  2050                     movea.l    A0, [A0]
00000534  7001                     moveq.l    D0, 0x01
00000536  B028 0044                cmp.b      D0, [A0 + 0x44]
0000053A  57C0                     seq        D0
0000053C  2F00                     move.l     -[A7], D0
0000053E  4267                     clr.w      -[A7]
00000540  4EAD 0722                jsr        [A5 + 0x722 /* export_224, CODE:4 @ 00002452 */]
00000544  321F                     move.w     D1, [A7]+
00000546  201F                     move.l     D0, [A7]+
00000548  4A41                     tst.w      D1
0000054A  57C1                     seq        D1
0000054C  C001                     and.b      D0, D1
0000054E  6712                     beq        +0x14 /* 00000562 */
00000550  2F2D DBFC                move.l     -[A7], [A5 - 0x2404]
00000554  42A7                     clr.l      -[A7]
00000556  42A7                     clr.l      -[A7]
00000558  42A7                     clr.l      -[A7]
0000055A  486E FFD6                pea.l      [A6 - 0x2A]
0000055E  4EAD 0162                jsr        [A5 + 0x162 /* export_40, CODE:1 @ 00003E0E */]
label00000562:
00000562  102D DC2A                move.b     D0, [A5 - 0x23D6]
00000566  6704                     beq        +0x6 /* 0000056C */
00000568  4EAD 0702                jsr        [A5 + 0x702 /* export_220, CODE:4 @ 0000230A */]
label0000056C:
0000056C  4EAD 0612                jsr        [A5 + 0x612 /* export_190, CODE:4 @ 00000FDE */]
00000570  2F2D D732                move.l     -[A7], [A5 - 0x28CE]
00000574  4EAD 201A                jsr        [A5 + 0x201A /* export_1023, CODE:20 @ 000002FA */]
00000578  2F2E FFF4                move.l     -[A7], [A6 - 0xC]
0000057C  A873                     syscall    SetPort
0000057E  4EAD 0792                jsr        [A5 + 0x792 /* export_238, CODE:4 @ 00003EEE */]
00000582  41ED E2F2                lea.l      A0, [A5 - 0x1D0E]
00000586  43ED ED82                lea.l      A1, [A5 - 0x127E]
0000058A  20D9                     move.l     [A0]+, [A1]+
0000058C  20D9                     move.l     [A0]+, [A1]+
0000058E  4EAD 0732                jsr        [A5 + 0x732 /* export_226, CODE:4 @ 0000248E */]
00000592  4EAD 1862                jsr        [A5 + 0x1862 /* export_776, CODE:16 @ 00000474 */]
00000596  4CDF 1800                movem.l    A3,A4, [A7]+
0000059A  4E5E                     unlink     A6
0000059C  2E9F                     move.l     [A7], [A7]+
0000059E  4E75                     rts
fn000005A0:
000005A0  4E56 FEDE                link       A6, -0x0122
000005A4  48E7 0F18                movem.l    -[A7], D4,D5,D6,D7,A3,A4
000005A8  486E FFEE                pea.l      [A6 - 0x12]
000005AC  A972                     syscall    GetMouse
000005AE  2F2E 000E                move.l     -[A7], [A6 + 0xE]
000005B2  3F2E 000C                move.w     -[A7], [A6 + 0xC]
000005B6  486E FFF8                pea.l      [A6 - 0x8]
000005BA  486E FEEA                pea.l      [A6 - 0x116]
000005BE  486E FEE2                pea.l      [A6 - 0x11E]
000005C2  A98D                     syscall    GetDialogItem/GetDItem
000005C4  302E FEE4                move.w     D0, [A6 - 0x11C]
000005C8  D07C 0010                add.w      D0, 0x10
000005CC  B06E FFF0                cmp.w      D0, [A6 - 0x10]
000005D0  6D04                     blt        +0x6 /* 000005D6 */
000005D2  7C02                     moveq.l    D6, 0x02
000005D4  6026                     bra        +0x28 /* 000005FC */
label000005D6:
000005D6  302E FEE4                move.w     D0, [A6 - 0x11C]
000005DA  D07C 0024                add.w      D0, 0x24 /* '$' */
000005DE  B06E FFF0                cmp.w      D0, [A6 - 0x10]
000005E2  6D04                     blt        +0x6 /* 000005E8 */
000005E4  7C04                     moveq.l    D6, 0x04
000005E6  6014                     bra        +0x16 /* 000005FC */
label000005E8:
000005E8  302E FEE4                move.w     D0, [A6 - 0x11C]
000005EC  D07C 0033                add.w      D0, 0x33 /* '3' */
000005F0  B06E FFF0                cmp.w      D0, [A6 - 0x10]
000005F4  6D04                     blt        +0x6 /* 000005FA */
000005F6  7C01                     moveq.l    D6, 0x01
000005F8  6002                     bra        +0x4 /* 000005FC */
label000005FA:
000005FA  7C05                     moveq.l    D6, 0x05
label000005FC:
000005FC  2F2E 000E                move.l     -[A7], [A6 + 0xE]
00000600  3F2E 000A                move.w     -[A7], [A6 + 0xA]
00000604  486E FFF8                pea.l      [A6 - 0x8]
00000608  486E FEEA                pea.l      [A6 - 0x116]
0000060C  486E FEE2                pea.l      [A6 - 0x11E]
00000610  A98D                     syscall    GetDialogItem/GetDItem
00000612  2F2E FEEA                move.l     -[A7], [A6 - 0x116]
00000616  486E FEEE                pea.l      [A6 - 0x112]
0000061A  A990                     syscall    GetDialogItemText/GetIText
0000061C  266E 000E                movea.l    A3, [A6 + 0xE]
00000620  206B 00A0                movea.l    A0, [A3 + 0xA0]
00000624  2850                     movea.l    A4, [A0]
00000626  3A2C 0020                move.w     D5, [A4 + 0x20]
0000062A  382C 0022                move.w     D4, [A4 + 0x22]
0000062E  7E01                     moveq.l    D7, 0x01
00000630  4240                     clr.w      D0
00000632  102E FEEE                move.b     D0, [A6 - 0x112]
00000636  3D40 FFF6                move.w     [A6 - 0xA], D0
label0000063A:
0000063A  BE6E FFF6                cmp.w      D7, [A6 - 0xA]
0000063E  6E5A                     bgt        +0x5C /* 0000069A */
00000640  4240                     clr.w      D0
00000642  41EE FEEE                lea.l      A0, [A6 - 0x112]
00000646  1030 7000                move.b     D0, [A0 + D7.w]
0000064A  BC40                     cmp.w      D6, D0
0000064C  6648                     bne        +0x4A /* 00000696 */
0000064E  102D F2B3                move.b     D0, [A5 - 0xD4D]
00000652  0A00 0001                xori.b     D0, 0x1
00000656  4A00                     tst.b      D0
00000658  6622                     bne        +0x24 /* 0000067C */
0000065A  2F00                     move.l     -[A7], D0
0000065C  4267                     clr.w      -[A7]
0000065E  486E FEEE                pea.l      [A6 - 0x112]
00000662  3F07                     move.w     -[A7], D7
00000664  2F3C 8206 0010           move.l     -[A7], 0x82060010
0000066A  A8B5                     syscall    ScriptUtil
0000066C  321F                     move.w     D1, [A7]+
0000066E  201F                     move.l     D0, [A7]+
00000670  4A41                     tst.w      D1
00000672  57C1                     seq        D1
00000674  8001                     or.b       D0, D1
00000676  0240 0001                andi.w     D0, 0x1
0000067A  671A                     beq        +0x1C /* 00000696 */
label0000067C:
0000067C  486E FEEE                pea.l      [A6 - 0x112]
00000680  3F07                     move.w     -[A7], D7
00000682  3F3C 0001                move.w     -[A7], 0x1
00000686  4EAD 051A                jsr        [A5 + 0x51A /* export_159, CODE:1 @ 000053C0 */]
0000068A  2F2E FEEA                move.l     -[A7], [A6 - 0x116]
0000068E  486E FEEE                pea.l      [A6 - 0x112]
00000692  A98F                     syscall    SetDialogItemText/SetIText
00000694  6004                     bra        +0x6 /* 0000069A */
label00000696:
00000696  5247                     addq.w     D7, 1
00000698  60A0                     bra        -0x5E /* 0000063A */
label0000069A:
0000069A  102E 0008                move.b     D0, [A6 + 0x8]
0000069E  670E                     beq        +0x10 /* 000006AE */
000006A0  BA47                     cmp.w      D5, D7
000006A2  6D02                     blt        +0x4 /* 000006A6 */
000006A4  5345                     subq.w     D5, 1
label000006A6:
000006A6  B847                     cmp.w      D4, D7
000006A8  6D02                     blt        +0x4 /* 000006AC */
000006AA  5344                     subq.w     D4, 1
label000006AC:
000006AC  6006                     bra        +0x8 /* 000006B4 */
label000006AE:
000006AE  3A3C 0100                move.w     D5, 0x100
000006B2  3805                     move.w     D4, D5
label000006B4:
000006B4  2F2E 000E                move.l     -[A7], [A6 + 0xE]
000006B8  3F2E 000A                move.w     -[A7], [A6 + 0xA]
000006BC  3F05                     move.w     -[A7], D5
000006BE  3F04                     move.w     -[A7], D4
000006C0  A97E                     syscall    SelectDialogItemText/SelIText
000006C2  2F3C 0003 0000           move.l     -[A7], 0x30000
000006C8  3006                     move.w     D0, D6
000006CA  48C0                     ext.l      D0
000006CC  2F00                     move.l     -[A7], D0
000006CE  4EAD 039A                jsr        [A5 + 0x39A /* export_111, CODE:1 @ 00004B8E */]
000006D2  3D5F FFFA                move.w     [A6 - 0x6], [A7]+
000006D6  2F3C 0000 0002           move.l     -[A7], 0x2
000006DC  201F                     move.l     D0, [A7]+
000006DE  A032                     syscall    FlushEvents
000006E0  4CDF 18F0                movem.l    D4,D5,D6,D7,A3,A4, [A7]+
000006E4  4E5E                     unlink     A6
000006E6  205F                     movea.l    A0, [A7]+
000006E8  DEFC 000A                add.w      A7, 0xA /* '\n' */
000006EC  4ED0                     jmp        [A0]
export_258:
000006EE  4E56 FFF0                link       A6, -0x0010
000006F2  48E7 0F08                movem.l    -[A7], D4,D5,D6,D7,A4
000006F6  4267                     clr.w      -[A7]
000006F8  4EAD 06F2                jsr        [A5 + 0x6F2 /* export_218, CODE:4 @ 00002174 */]
000006FC  101F                     move.b     D0, [A7]+
000006FE  6700 01AA                beq        +0x1AC /* 000008AA */
00000702  206D DBFC                movea.l    A0, [A5 - 0x2404]
00000706  2050                     movea.l    A0, [A0]
00000708  43ED DC04                lea.l      A1, [A5 - 0x23FC]
0000070C  5088                     addq.l     A0, 8
0000070E  22D8                     move.l     [A1]+, [A0]+
00000710  22D8                     move.l     [A1]+, [A0]+
00000712  486D D9D8                pea.l      [A5 - 0x2628]
00000716  4EAD 05EA                jsr        [A5 + 0x5EA /* export_185, CODE:4 @ 000000BA */]
0000071A  4267                     clr.w      -[A7]
0000071C  4EAD 06C2                jsr        [A5 + 0x6C2 /* export_212, CODE:4 @ 00001CFA */]
00000720  4267                     clr.w      -[A7]
00000722  4EAD 081A                jsr        [A5 + 0x81A /* export_255, CODE:4 @ 00004AF6 */]
00000726  101F                     move.b     D0, [A7]+
00000728  C01F                     and.b      D0, [A7]+
0000072A  670A                     beq        +0xC /* 00000736 */
0000072C  1D6D D9ED FFF2           move.b     [A6 - 0xE], [A5 - 0x2613]
00000732  422D D9ED                clr.b      [A5 - 0x2613]
label00000736:
00000736  1C2D D9F6                move.b     D6, [A5 - 0x260A]
0000073A  1B7C 0001 D9F6           move.b     [A5 - 0x260A], 0x1
00000740  1F3C 0001                move.b     -[A7], 0x1
00000744  2F2D DBFC                move.l     -[A7], [A5 - 0x2404]
00000748  4EAD 07A2                jsr        [A5 + 0x7A2 /* export_240, CODE:4 @ 00004094 */]
0000074C  4267                     clr.w      -[A7]
0000074E  4EAD 07BA                jsr        [A5 + 0x7BA /* export_243, CODE:4 @ 000041E2 */]
00000752  2F2D DBFC                move.l     -[A7], [A5 - 0x2404]
00000756  3F3C 0001                move.w     -[A7], 0x1
0000075A  4EAD 07AA                jsr        [A5 + 0x7AA /* export_241, CODE:4 @ 0000414E */]
0000075E  4267                     clr.w      -[A7]
00000760  4EAD 06A2                jsr        [A5 + 0x6A2 /* export_208, CODE:4 @ 000018E2 */]
00000764  101F                     move.b     D0, [A7]+
00000766  6758                     beq        +0x5A /* 000007C0 */
00000768  4267                     clr.w      -[A7]
0000076A  4EAD 069A                jsr        [A5 + 0x69A /* export_207, CODE:4 @ 000018BE */]
0000076E  101F                     move.b     D0, [A7]+
00000770  673A                     beq        +0x3C /* 000007AC */
00000772  4267                     clr.w      -[A7]
00000774  1F3C 0001                move.b     -[A7], 0x1
00000778  4EAD 078A                jsr        [A5 + 0x78A /* export_237, CODE:4 @ 00003E5A */]
0000077C  101F                     move.b     D0, [A7]+
0000077E  6720                     beq        +0x22 /* 000007A0 */
00000780  206D DBFC                movea.l    A0, [A5 - 0x2404]
00000784  2050                     movea.l    A0, [A0]
00000786  41E8 0018                lea.l      A0, [A0 + 0x18]
0000078A  0250 FFFE                andi.w     [A0], 0xFFFE
0000078E  0050 0001                ori.w      [A0], 0x1
00000792  206D DBFC                movea.l    A0, [A5 - 0x2404]
00000796  2050                     movea.l    A0, [A0]
00000798  0268 FFDF 0018           andi.w     [A0 + 0x18], 0xFFDF
0000079E  600C                     bra        +0xE /* 000007AC */
label000007A0:
000007A0  206D DBFC                movea.l    A0, [A5 - 0x2404]
000007A4  2050                     movea.l    A0, [A0]
000007A6  0268 FFFE 0018           andi.w     [A0 + 0x18], 0xFFFE
label000007AC:
000007AC  1F2D DC2C                move.b     -[A7], [A5 - 0x23D4]
000007B0  4EAD 07E2                jsr        [A5 + 0x7E2 /* export_248, CODE:4 @ 00004440 */]
000007B4  4267                     clr.w      -[A7]
000007B6  2F2D DBFC                move.l     -[A7], [A5 - 0x2404]
000007BA  4EAD 015A                jsr        [A5 + 0x15A /* export_39, CODE:1 @ 00003E00 */]
000007BE  1A1F                     move.b     D5, [A7]+
label000007C0:
000007C0  41EE FFF8                lea.l      A0, [A6 - 0x8]
000007C4  43ED ED82                lea.l      A1, [A5 - 0x127E]
000007C8  20D9                     move.l     [A0]+, [A1]+
000007CA  20D9                     move.l     [A0]+, [A1]+
000007CC  4267                     clr.w      -[A7]
000007CE  4EAD 080A                jsr        [A5 + 0x80A /* export_253, CODE:4 @ 00004A6C */]
000007D2  101F                     move.b     D0, [A7]+
000007D4  6728                     beq        +0x2A /* 000007FE */
000007D6  302E FFF8                move.w     D0, [A6 - 0x8]
000007DA  E540                     asl        D0.w, 2
000007DC  3D40 FFF8                move.w     [A6 - 0x8], D0
000007E0  302E FFFA                move.w     D0, [A6 - 0x6]
000007E4  E540                     asl        D0.w, 2
000007E6  3D40 FFFA                move.w     [A6 - 0x6], D0
000007EA  302E FFFC                move.w     D0, [A6 - 0x4]
000007EE  E540                     asl        D0.w, 2
000007F0  3D40 FFFC                move.w     [A6 - 0x4], D0
000007F4  302E FFFE                move.w     D0, [A6 - 0x2]
000007F8  E540                     asl        D0.w, 2
000007FA  3D40 FFFE                move.w     [A6 - 0x2], D0
label000007FE:
000007FE  206D DBFC                movea.l    A0, [A5 - 0x2404]
00000802  2050                     movea.l    A0, [A0]
00000804  49E8 0008                lea.l      A4, [A0 + 0x8]
00000808  302C 0006                move.w     D0, [A4 + 0x6]
0000080C  906C 0002                sub.w      D0, [A4 + 0x2]
00000810  322E FFFE                move.w     D1, [A6 - 0x2]
00000814  926E FFFA                sub.w      D1, [A6 - 0x6]
00000818  9041                     sub.w      D0, D1
0000081A  48C0                     ext.l      D0
0000081C  81FC 0002                divs.w     D0, 0x2
00000820  3800                     move.w     D4, D0
00000822  4267                     clr.w      -[A7]
00000824  4EAD 081A                jsr        [A5 + 0x81A /* export_255, CODE:4 @ 00004AF6 */]
00000828  101F                     move.b     D0, [A7]+
0000082A  6704                     beq        +0x6 /* 00000830 */
0000082C  4247                     clr.w      D7
0000082E  6010                     bra        +0x12 /* 00000840 */
label00000830:
00000830  4267                     clr.w      -[A7]
00000832  4EAD 068A                jsr        [A5 + 0x68A /* export_205, CODE:4 @ 0000184A */]
00000836  301F                     move.w     D0, [A7]+
00000838  48C0                     ext.l      D0
0000083A  81FC 0002                divs.w     D0, 0x2
0000083E  3E00                     move.w     D7, D0
label00000840:
00000840  486E FFF8                pea.l      [A6 - 0x8]
00000844  3F04                     move.w     -[A7], D4
00000846  3F07                     move.w     -[A7], D7
00000848  A8A8                     syscall    OffsetRect
0000084A  1B7C 0001 EFE2           move.b     [A5 - 0x101E], 0x1
00000850  486E FFF8                pea.l      [A6 - 0x8]
00000854  4EBA FB6A                jsr        [PC - 0x496 /* 000003C0 */]
00000858  4EAD 0682                jsr        [A5 + 0x682 /* export_204, CODE:4 @ 00001782 */]
0000085C  4267                     clr.w      -[A7]
0000085E  4EAD 06C2                jsr        [A5 + 0x6C2 /* export_212, CODE:4 @ 00001CFA */]
00000862  4267                     clr.w      -[A7]
00000864  4EAD 081A                jsr        [A5 + 0x81A /* export_255, CODE:4 @ 00004AF6 */]
00000868  101F                     move.b     D0, [A7]+
0000086A  C01F                     and.b      D0, [A7]+
0000086C  6706                     beq        +0x8 /* 00000874 */
0000086E  1B6E FFF2 D9ED           move.b     [A5 - 0x2613], [A6 - 0xE]
label00000874:
00000874  1B46 D9F6                move.b     [A5 - 0x260A], D6
00000878  1F2D D9F6                move.b     -[A7], [A5 - 0x260A]
0000087C  2F2D DBFC                move.l     -[A7], [A5 - 0x2404]
00000880  4EAD 07A2                jsr        [A5 + 0x7A2 /* export_240, CODE:4 @ 00004094 */]
00000884  4267                     clr.w      -[A7]
00000886  4EAD 06A2                jsr        [A5 + 0x6A2 /* export_208, CODE:4 @ 000018E2 */]
0000088A  102D DC2C                move.b     D0, [A5 - 0x23D4]
0000088E  C01F                     and.b      D0, [A7]+
00000890  6712                     beq        +0x14 /* 000008A4 */
00000892  4267                     clr.w      -[A7]
00000894  4EAD 07E2                jsr        [A5 + 0x7E2 /* export_248, CODE:4 @ 00004440 */]
00000898  4267                     clr.w      -[A7]
0000089A  2F2D DBFC                move.l     -[A7], [A5 - 0x2404]
0000089E  4EAD 015A                jsr        [A5 + 0x15A /* export_39, CODE:1 @ 00003E00 */]
000008A2  1A1F                     move.b     D5, [A7]+
label000008A4:
000008A4  4267                     clr.w      -[A7]
000008A6  4EAD 072A                jsr        [A5 + 0x72A /* export_225, CODE:4 @ 00002474 */]
label000008AA:
000008AA  4CDF 10F0                movem.l    D4,D5,D6,D7,A4, [A7]+
000008AE  4E5E                     unlink     A6
000008B0  4E75                     rts
fn000008B2:
000008B2  4E56 0000                link       A6, 0
000008B6  486D DC0C                pea.l      [A5 - 0x23F4]
000008BA  1F3C 0001                move.b     -[A7], 0x1
000008BE  4EAD 06DA                jsr        [A5 + 0x6DA /* export_215, CODE:4 @ 00001E26 */]
000008C2  486D DC0C                pea.l      [A5 - 0x23F4]
000008C6  2F2D DBFC                move.l     -[A7], [A5 - 0x2404]
000008CA  1F3C 0001                move.b     -[A7], 0x1
000008CE  206E 0008                movea.l    A0, [A6 + 0x8]
000008D2  4868 FD36                pea.l      [A0 - 0x2CA]
000008D6  4EAD 06EA                jsr        [A5 + 0x6EA /* export_217, CODE:4 @ 0000203E */]
000008DA  41ED DC04                lea.l      A0, [A5 - 0x23FC]
000008DE  43ED DC0C                lea.l      A1, [A5 - 0x23F4]
000008E2  20D9                     move.l     [A0]+, [A1]+
000008E4  20D9                     move.l     [A0]+, [A1]+
000008E6  486D DC04                pea.l      [A5 - 0x23FC]
000008EA  206E 0008                movea.l    A0, [A6 + 0x8]
000008EE  4868 FD56                pea.l      [A0 - 0x2AA]
000008F2  1F2E 000C                move.b     -[A7], [A6 + 0xC]
000008F6  4EAD 06E2                jsr        [A5 + 0x6E2 /* export_216, CODE:4 @ 00001F12 */]
000008FA  4E5E                     unlink     A6
000008FC  205F                     movea.l    A0, [A7]+
000008FE  5C4F                     addq.w     A7, 6
00000900  4ED0                     jmp        [A0]
fn00000902:
00000902  4E56 FFFA                link       A6, -0x0006
00000906  48E7 0118                movem.l    -[A7], D7,A3,A4
0000090A  286E 0008                movea.l    A4, [A6 + 0x8]
0000090E  4267                     clr.w      -[A7]
00000910  206C 0010                movea.l    A0, [A4 + 0x10]
00000914  2F10                     move.l     -[A7], [A0]
00000916  4EAD 015A                jsr        [A5 + 0x15A /* export_39, CODE:1 @ 00003E00 */]
0000091A  1E1F                     move.b     D7, [A7]+
0000091C  486D DC0C                pea.l      [A5 - 0x23F4]
00000920  1F3C 0001                move.b     -[A7], 0x1
00000924  4EAD 06DA                jsr        [A5 + 0x6DA /* export_215, CODE:4 @ 00001E26 */]
00000928  2F2C FE96                move.l     -[A7], [A4 - 0x16A]
0000092C  3F3C 0026                move.w     -[A7], 0x26 /* '&' */
00000930  486C FFFE                pea.l      [A4 - 0x2]
00000934  486C FE8E                pea.l      [A4 - 0x172]
00000938  486C FFDA                pea.l      [A4 - 0x26]
0000093C  A98D                     syscall    GetDialogItem/GetDItem
0000093E  47EC FFDA                lea.l      A3, [A4 - 0x26]
00000942  4267                     clr.w      -[A7]
00000944  4EAD 0812                jsr        [A5 + 0x812 /* export_254, CODE:4 @ 00004AD4 */]
00000948  101F                     move.b     D0, [A7]+
0000094A  673A                     beq        +0x3C /* 00000986 */
0000094C  486D DC1C                pea.l      [A5 - 0x23E4]
00000950  302B 0002                move.w     D0, [A3 + 0x2]
00000954  D07C 0012                add.w      D0, 0x12
00000958  3F00                     move.w     -[A7], D0
0000095A  3F13                     move.w     -[A7], [A3]
0000095C  302B 0006                move.w     D0, [A3 + 0x6]
00000960  907C 001B                sub.w      D0, 0x1B
00000964  3F00                     move.w     -[A7], D0
00000966  3F2B 0004                move.w     -[A7], [A3 + 0x4]
0000096A  A8A7                     syscall    SetRect
0000096C  302D DC22                move.w     D0, [A5 - 0x23DE]
00000970  906D DC1E                sub.w      D0, [A5 - 0x23E2]
00000974  3B40 DC3E                move.w     [A5 - 0x23C2], D0
00000978  302D DC20                move.w     D0, [A5 - 0x23E0]
0000097C  906D DC1C                sub.w      D0, [A5 - 0x23E4]
00000980  3B40 DC40                move.w     [A5 - 0x23C0], D0
00000984  6038                     bra        +0x3A /* 000009BE */
label00000986:
00000986  486D DC1C                pea.l      [A5 - 0x23E4]
0000098A  3F2B 0002                move.w     -[A7], [A3 + 0x2]
0000098E  3013                     move.w     D0, [A3]
00000990  D07C 0010                add.w      D0, 0x10
00000994  3F00                     move.w     -[A7], D0
00000996  3F2B 0006                move.w     -[A7], [A3 + 0x6]
0000099A  302B 0004                move.w     D0, [A3 + 0x4]
0000099E  907C 001D                sub.w      D0, 0x1D
000009A2  3F00                     move.w     -[A7], D0
000009A4  A8A7                     syscall    SetRect
000009A6  302D DC22                move.w     D0, [A5 - 0x23DE]
000009AA  906D DC1E                sub.w      D0, [A5 - 0x23E2]
000009AE  3B40 DC3E                move.w     [A5 - 0x23C2], D0
000009B2  302D DC20                move.w     D0, [A5 - 0x23E0]
000009B6  906D DC1C                sub.w      D0, [A5 - 0x23E4]
000009BA  3B40 DC40                move.w     [A5 - 0x23C0], D0
label000009BE:
000009BE  4EBA F640                jsr        [PC - 0x9C0 /* 00000000 */]
000009C2  4267                     clr.w      -[A7]
000009C4  302C FD38                move.w     D0, [A4 - 0x2C8]
000009C8  48C0                     ext.l      D0
000009CA  2F00                     move.l     -[A7], D0
000009CC  4EBA 3596                jsr        [PC + 0x3596 /* 00003F64 */]
000009D0  395F FFFA                move.w     [A4 - 0x6], [A7]+
000009D4  4267                     clr.w      -[A7]
000009D6  302C FD3A                move.w     D0, [A4 - 0x2C6]
000009DA  48C0                     ext.l      D0
000009DC  2F00                     move.l     -[A7], D0
000009DE  4EBA 3584                jsr        [PC + 0x3584 /* 00003F64 */]
000009E2  395F FFF8                move.w     [A4 - 0x8], [A7]+
000009E6  42A7                     clr.l      -[A7]
000009E8  4EAD 068A                jsr        [A5 + 0x68A /* export_205, CODE:4 @ 0000184A */]
000009EC  301F                     move.w     D0, [A7]+
000009EE  48C0                     ext.l      D0
000009F0  2F00                     move.l     -[A7], D0
000009F2  4EBA 3570                jsr        [PC + 0x3570 /* 00003F64 */]
000009F6  395F FFF6                move.w     [A4 - 0xA], [A7]+
000009FA  486C FF9A                pea.l      [A4 - 0x66]
000009FE  487A 000E                pea.l      [PC + 0xE /* 00000A0E, value 0x10464646, pstring "FFFFFF00FFFFFF00" */]
00000A02  A866                     syscall    StuffHex
00000A04  4CDF 1880                movem.l    D7,A3,A4, [A7]+
00000A08  4E5E                     unlink     A6
00000A0A  2E9F                     move.l     [A7], [A7]+
00000A0C  4E75                     rts
00000A0E  1046                     movea.b    A0, D6
00000A10  4646                     not.w      D6
00000A12  4646                     not.w      D6
00000A14  4630 3046                not.b      [A0 + D3.w + 0x46]
00000A18  4646                     not.w      D6
00000A1A  4646                     not.w      D6
00000A1C  4630 3000                not.b      [A0 + D3.w]
fn00000A20:
00000A20  4E56 0000                link       A6, 0
00000A24  2F2E 000C                move.l     -[A7], [A6 + 0xC]
00000A28  2F3C 0000 01FC           move.l     -[A7], 0x1FC
00000A2E  4EAD 04EA                jsr        [A5 + 0x4EA /* export_153, CODE:1 @ 000051F0 */]
00000A32  2F3C 0000 02D0           move.l     -[A7], 0x2D0
00000A38  4EAD 04F2                jsr        [A5 + 0x4F2 /* export_154, CODE:1 @ 00005224 */]
00000A3C  201F                     move.l     D0, [A7]+
00000A3E  3D40 0010                move.w     [A6 + 0x10], D0
00000A42  4E5E                     unlink     A6
00000A44  205F                     movea.l    A0, [A7]+
00000A46  504F                     addq.w     A7, 8
00000A48  4ED0                     jmp        [A0]
fn00000A4A:
00000A4A  4E56 0000                link       A6, 0
00000A4E  2F07                     move.l     -[A7], D7
00000A50  3E2E 000C                move.w     D7, [A6 + 0xC]
00000A54  3007                     move.w     D0, D7
00000A56  E540                     asl        D0.w, 2
00000A58  5040                     addq.w     D0, 8
00000A5A  48C0                     ext.l      D0
00000A5C  81FC 0009                divs.w     D0, 0x9 /* '\t' */
00000A60  3E00                     move.w     D7, D0
00000A62  48C0                     ext.l      D0
00000A64  81FC 0008                divs.w     D0, 0x8
00000A68  4840                     swap.w     D0
00000A6A  4A40                     tst.w      D0
00000A6C  7201                     moveq.l    D1, 0x01
00000A6E  B240                     cmp.w      D1, D0
00000A70  6716                     beq        +0x18 /* 00000A88 */
00000A72  3007                     move.w     D0, D7
00000A74  48C0                     ext.l      D0
00000A76  81FC 0002                divs.w     D0, 0x2
00000A7A  4840                     swap.w     D0
00000A7C  4A40                     tst.w      D0
00000A7E  3207                     move.w     D1, D7
00000A80  9240                     sub.w      D1, D0
00000A82  3D41 000E                move.w     [A6 + 0xE], D1
00000A86  6004                     bra        +0x6 /* 00000A8C */
label00000A88:
00000A88  3D47 000E                move.w     [A6 + 0xE], D7
label00000A8C:
00000A8C  2E1F                     move.l     D7, [A7]+
00000A8E  4E5E                     unlink     A6
00000A90  205F                     movea.l    A0, [A7]+
00000A92  5C4F                     addq.w     A7, 6
00000A94  4ED0                     jmp        [A0]
fn00000A96:
00000A96  4E56 0000                link       A6, 0
00000A9A  206E 0008                movea.l    A0, [A6 + 0x8]
00000A9E  1028 FD49                move.b     D0, [A0 - 0x2B7]
00000AA2  6718                     beq        +0x1A /* 00000ABC */
00000AA4  4267                     clr.w      -[A7]
00000AA6  302E 000C                move.w     D0, [A6 + 0xC]
00000AAA  48C0                     ext.l      D0
00000AAC  2F00                     move.l     -[A7], D0
00000AAE  2F2E 0008                move.l     -[A7], [A6 + 0x8]
00000AB2  4EBA FF6C                jsr        [PC - 0x94 /* 00000A20 */]
00000AB6  3D5F 000E                move.w     [A6 + 0xE], [A7]+
00000ABA  6012                     bra        +0x14 /* 00000ACE */
label00000ABC:
00000ABC  4267                     clr.w      -[A7]
00000ABE  3F2E 000C                move.w     -[A7], [A6 + 0xC]
00000AC2  2F2E 0008                move.l     -[A7], [A6 + 0x8]
00000AC6  4EBA FF82                jsr        [PC - 0x7E /* 00000A4A */]
00000ACA  3D5F 000E                move.w     [A6 + 0xE], [A7]+
label00000ACE:
00000ACE  4E5E                     unlink     A6
00000AD0  205F                     movea.l    A0, [A7]+
00000AD2  5C4F                     addq.w     A7, 6
00000AD4  4ED0                     jmp        [A0]
fn00000AD6:
00000AD6  4E56 FFFE                link       A6, -0x0002
00000ADA  48E7 0108                movem.l    -[A7], D7,A4
00000ADE  286E 000E                movea.l    A4, [A6 + 0xE]
00000AE2  3E14                     move.w     D7, [A4]
00000AE4  4267                     clr.w      -[A7]
00000AE6  3F2E 000C                move.w     -[A7], [A6 + 0xC]
00000AEA  2F2E 0008                move.l     -[A7], [A6 + 0x8]
00000AEE  4EBA FFA6                jsr        [PC - 0x5A /* 00000A96 */]
00000AF2  389F                     move.w     [A4], [A7]+
00000AF4  BE54                     cmp.w      D7, [A4]
00000AF6  56C0                     sne        D0
00000AF8  4400                     neg.b      D0
00000AFA  1D40 0012                move.b     [A6 + 0x12], D0
00000AFE  4CDF 1080                movem.l    D7,A4, [A7]+
00000B02  4E5E                     unlink     A6
00000B04  205F                     movea.l    A0, [A7]+
00000B06  DEFC 000A                add.w      A7, 0xA /* '\n' */
00000B0A  4ED0                     jmp        [A0]
fn00000B0C:
00000B0C  4E56 FFFE                link       A6, -0x0002
00000B10  48E7 0108                movem.l    -[A7], D7,A4
00000B14  286E 000E                movea.l    A4, [A6 + 0xE]
00000B18  4240                     clr.w      D0
00000B1A  1014                     move.b     D0, [A4]
00000B1C  3E00                     move.w     D7, D0
00000B1E  600C                     bra        +0xE /* 00000B2C */
label00000B20:
00000B20  3007                     move.w     D0, D7
00000B22  5240                     addq.w     D0, 1
00000B24  19B4 7000 0000           move.b     [A4 + D0.w], [A4 + D7.w]
00000B2A  5347                     subq.w     D7, 1
label00000B2C:
00000B2C  7001                     moveq.l    D0, 0x01
00000B2E  B047                     cmp.w      D0, D7
00000B30  6FEE                     ble        -0x10 /* 00000B20 */
00000B32  196E 000D 0001           move.b     [A4 + 0x1], [A6 + 0xD]
00000B38  5214                     addq.b     [A4], 1
00000B3A  4CDF 1080                movem.l    D7,A4, [A7]+
00000B3E  4E5E                     unlink     A6
00000B40  205F                     movea.l    A0, [A7]+
00000B42  DEFC 000A                add.w      A7, 0xA /* '\n' */
00000B46  4ED0                     jmp        [A0]
fn00000B48:
00000B48  4E56 FDE8                link       A6, -0x0218
00000B4C  48E7 1308                movem.l    -[A7], D3,D6,D7,A4
00000B50  286E 0008                movea.l    A4, [A6 + 0x8]
00000B54  286C 0008                movea.l    A4, [A4 + 0x8]
00000B58  302E 000E                move.w     D0, [A6 + 0xE]
00000B5C  48C0                     ext.l      D0
00000B5E  2E00                     move.l     D7, D0
00000B60  102C FD49                move.b     D0, [A4 - 0x2B7]
00000B64  670E                     beq        +0x10 /* 00000B74 */
00000B66  2F07                     move.l     -[A7], D7
00000B68  7032                     moveq.l    D0, 0x32
00000B6A  2F00                     move.l     -[A7], D0
00000B6C  4EAD 04EA                jsr        [A5 + 0x4EA /* export_153, CODE:1 @ 000051F0 */]
00000B70  2E1F                     move.l     D7, [A7]+
00000B72  6016                     bra        +0x18 /* 00000B8A */
label00000B74:
00000B74  2F07                     move.l     -[A7], D7
00000B76  2F3C 0000 0271           move.l     -[A7], 0x271
00000B7C  4EAD 04EA                jsr        [A5 + 0x4EA /* export_153, CODE:1 @ 000051F0 */]
00000B80  7002                     moveq.l    D0, 0x02
00000B82  2F00                     move.l     -[A7], D0
00000B84  4EAD 04F2                jsr        [A5 + 0x4F2 /* export_154, CODE:1 @ 00005224 */]
00000B88  2E1F                     move.l     D7, [A7]+
label00000B8A:
00000B8A  422E FEFA                clr.b      [A6 - 0x106]
00000B8E  102C FD49                move.b     D0, [A4 - 0x2B7]
00000B92  4880                     ext.w      D0
00000B94  7204                     moveq.l    D1, 0x04
00000B96  9240                     sub.w      D1, D0
00000B98  3D41 FDEA                move.w     [A6 - 0x216], D1
00000B9C  7C01                     moveq.l    D6, 0x01
00000B9E  602C                     bra        +0x2E /* 00000BCC */
label00000BA0:
00000BA0  486E FEFA                pea.l      [A6 - 0x106]
00000BA4  2F07                     move.l     -[A7], D7
00000BA6  700A                     moveq.l    D0, 0x0A
00000BA8  2F00                     move.l     -[A7], D0
00000BAA  4EAD 04FA                jsr        [A5 + 0x4FA /* export_155, CODE:1 @ 0000524A */]
00000BAE  201F                     move.l     D0, [A7]+
00000BB0  7230                     moveq.l    D1, 0x30
00000BB2  D081                     add.l      D0, D1
00000BB4  3F00                     move.w     -[A7], D0
00000BB6  2F0E                     move.l     -[A7], A6
00000BB8  4EBA FF52                jsr        [PC - 0xAE /* 00000B0C */]
00000BBC  2F07                     move.l     -[A7], D7
00000BBE  700A                     moveq.l    D0, 0x0A
00000BC0  2F00                     move.l     -[A7], D0
00000BC2  4EAD 04F2                jsr        [A5 + 0x4F2 /* export_154, CODE:1 @ 00005224 */]
00000BC6  2E1F                     move.l     D7, [A7]+
00000BC8  5246                     addq.w     D6, 1
00000BCA  6906                     bvs        +0x8 /* 00000BD2 */
label00000BCC:
00000BCC  BC6E FDEA                cmp.w      D6, [A6 - 0x216]
00000BD0  6FCE                     ble        -0x30 /* 00000BA0 */
label00000BD2:
00000BD2  486E FEFA                pea.l      [A6 - 0x106]
00000BD6  3F3C 002E                move.w     -[A7], 0x2E /* '.' */
00000BDA  2F0E                     move.l     -[A7], A6
00000BDC  4EBA FF2E                jsr        [PC - 0xD2 /* 00000B0C */]
label00000BE0:
00000BE0  486E FEFA                pea.l      [A6 - 0x106]
00000BE4  2F07                     move.l     -[A7], D7
00000BE6  700A                     moveq.l    D0, 0x0A
00000BE8  2F00                     move.l     -[A7], D0
00000BEA  4EAD 04FA                jsr        [A5 + 0x4FA /* export_155, CODE:1 @ 0000524A */]
00000BEE  201F                     move.l     D0, [A7]+
00000BF0  7230                     moveq.l    D1, 0x30
00000BF2  D081                     add.l      D0, D1
00000BF4  3F00                     move.w     -[A7], D0
00000BF6  2F0E                     move.l     -[A7], A6
00000BF8  4EBA FF12                jsr        [PC - 0xEE /* 00000B0C */]
00000BFC  2F07                     move.l     -[A7], D7
00000BFE  700A                     moveq.l    D0, 0x0A
00000C00  2F00                     move.l     -[A7], D0
00000C02  4EAD 04F2                jsr        [A5 + 0x4F2 /* export_154, CODE:1 @ 00005224 */]
00000C06  2E1F                     move.l     D7, [A7]+
00000C08  66D6                     bne        -0x28 /* 00000BE0 */
00000C0A  4240                     clr.w      D0
00000C0C  102E FEFA                move.b     D0, [A6 - 0x106]
00000C10  4241                     clr.w      D1
00000C12  122E FEFA                move.b     D1, [A6 - 0x106]
00000C16  142C FD49                move.b     D2, [A4 - 0x2B7]
00000C1A  4882                     ext.w      D2
00000C1C  7602                     moveq.l    D3, 0x02
00000C1E  9642                     sub.w      D3, D2
00000C20  9243                     sub.w      D1, D3
00000C22  3D41 FDE8                move.w     [A6 - 0x218], D1
00000C26  3C00                     move.w     D6, D0
00000C28  601C                     bra        +0x1E /* 00000C46 */
label00000C2A:
00000C2A  4240                     clr.w      D0
00000C2C  41EE FEFA                lea.l      A0, [A6 - 0x106]
00000C30  1030 6000                move.b     D0, [A0 + D6.w]
00000C34  7230                     moveq.l    D1, 0x30
00000C36  B240                     cmp.w      D1, D0
00000C38  6606                     bne        +0x8 /* 00000C40 */
00000C3A  532E FEFA                subq.b     [A6 - 0x106], 1
00000C3E  6002                     bra        +0x4 /* 00000C42 */
label00000C40:
00000C40  600A                     bra        +0xC /* 00000C4C */
label00000C42:
00000C42  5346                     subq.w     D6, 1
00000C44  6906                     bvs        +0x8 /* 00000C4C */
label00000C46:
00000C46  BC6E FDE8                cmp.w      D6, [A6 - 0x218]
00000C4A  6CDE                     bge        -0x20 /* 00000C2A */
label00000C4C:
00000C4C  4267                     clr.w      -[A7]
00000C4E  4240                     clr.w      D0
00000C50  102E FEFA                move.b     D0, [A6 - 0x106]
00000C54  3F00                     move.w     -[A7], D0
00000C56  3F3C 0007                move.w     -[A7], 0x7
00000C5A  4EAD 18C2                jsr        [A5 + 0x18C2 /* export_788, CODE:16 @ 000007E6 */]
00000C5E  301F                     move.w     D0, [A7]+
00000C60  1D40 FEFA                move.b     [A6 - 0x106], D0
00000C64  2F2C FE96                move.l     -[A7], [A4 - 0x16A]
00000C68  3F2E 000C                move.w     -[A7], [A6 + 0xC]
00000C6C  486E FDF8                pea.l      [A6 - 0x208]
00000C70  486E FDF4                pea.l      [A6 - 0x20C]
00000C74  486E FDEC                pea.l      [A6 - 0x214]
00000C78  A98D                     syscall    GetDialogItem/GetDItem
00000C7A  2F2E FDF4                move.l     -[A7], [A6 - 0x20C]
00000C7E  486E FDFA                pea.l      [A6 - 0x206]
00000C82  A990                     syscall    GetDialogItemText/GetIText
00000C84  486E FEFA                pea.l      [A6 - 0x106]
00000C88  486E FDFA                pea.l      [A6 - 0x206]
00000C8C  4EAD 052A                jsr        [A5 + 0x52A /* export_161, CODE:1 @ 0000543C */]
00000C90  101F                     move.b     D0, [A7]+
00000C92  670A                     beq        +0xC /* 00000C9E */
00000C94  2F2E FDF4                move.l     -[A7], [A6 - 0x20C]
00000C98  486E FEFA                pea.l      [A6 - 0x106]
00000C9C  A98F                     syscall    SetDialogItemText/SetIText
label00000C9E:
00000C9E  4CDF 10C8                movem.l    D3,D6,D7,A4, [A7]+
00000CA2  4E5E                     unlink     A6
00000CA4  205F                     movea.l    A0, [A7]+
00000CA6  504F                     addq.w     A7, 8
00000CA8  4ED0                     jmp        [A0]
fn00000CAA:
00000CAA  4E56 0000                link       A6, 0
00000CAE  2F0C                     move.l     -[A7], A4
00000CB0  206E 0008                movea.l    A0, [A6 + 0x8]
00000CB4  49E8 FD36                lea.l      A4, [A0 - 0x2CA]
00000CB8  3F2C 0006                move.w     -[A7], [A4 + 0x6]
00000CBC  3F3C 001E                move.w     -[A7], 0x1E
00000CC0  2F0E                     move.l     -[A7], A6
00000CC2  4EBA FE84                jsr        [PC - 0x17C /* 00000B48 */]
00000CC6  3F2C 0008                move.w     -[A7], [A4 + 0x8]
00000CCA  3F3C 001F                move.w     -[A7], 0x1F
00000CCE  2F0E                     move.l     -[A7], A6
00000CD0  4EBA FE76                jsr        [PC - 0x18A /* 00000B48 */]
00000CD4  3F2C 000A                move.w     -[A7], [A4 + 0xA]
00000CD8  3F3C 0021                move.w     -[A7], 0x21 /* '!' */
00000CDC  2F0E                     move.l     -[A7], A6
00000CDE  4EBA FE68                jsr        [PC - 0x198 /* 00000B48 */]
00000CE2  3F2C 000C                move.w     -[A7], [A4 + 0xC]
00000CE6  3F3C 0022                move.w     -[A7], 0x22 /* '\"' */
00000CEA  2F0E                     move.l     -[A7], A6
00000CEC  4EBA FE5A                jsr        [PC - 0x1A6 /* 00000B48 */]
00000CF0  302C 000E                move.w     D0, [A4 + 0xE]
00000CF4  906C 000A                sub.w      D0, [A4 + 0xA]
00000CF8  3F00                     move.w     -[A7], D0
00000CFA  3F3C 0024                move.w     -[A7], 0x24 /* '$' */
00000CFE  2F0E                     move.l     -[A7], A6
00000D00  4EBA FE46                jsr        [PC - 0x1BA /* 00000B48 */]
00000D04  302C 0010                move.w     D0, [A4 + 0x10]
00000D08  906C 000C                sub.w      D0, [A4 + 0xC]
00000D0C  3F00                     move.w     -[A7], D0
00000D0E  3F3C 0025                move.w     -[A7], 0x25 /* '%' */
00000D12  2F0E                     move.l     -[A7], A6
00000D14  4EBA FE32                jsr        [PC - 0x1CE /* 00000B48 */]
00000D18  285F                     movea.l    A4, [A7]+
00000D1A  4E5E                     unlink     A6
00000D1C  2E9F                     move.l     [A7], [A7]+
00000D1E  4E75                     rts
fn00000D20:
00000D20  4E56 FFF6                link       A6, -0x000A
00000D24  48E7 0308                movem.l    -[A7], D6,D7,A4
00000D28  286E 0008                movea.l    A4, [A6 + 0x8]
00000D2C  3D6C FA32 FFF8           move.w     [A6 - 0x8], [A4 - 0x5CE]
00000D32  7E01                     moveq.l    D7, 0x01
00000D34  6058                     bra        +0x5A /* 00000D8E */
label00000D36:
00000D36  3007                     move.w     D0, D7
00000D38  C1FC 0006                muls.w     D0, 0x6
00000D3C  322C FFC0                move.w     D1, [A4 - 0x40]
00000D40  926C FFF6                sub.w      D1, [A4 - 0xA]
00000D44  41EC FA34                lea.l      A0, [A4 - 0x5CC]
00000D48  B270 0000                cmp.w      D1, [A0 + D0.w]
00000D4C  6C3C                     bge        +0x3E /* 00000D8A */
00000D4E  3D6C FA32 FFF6           move.w     [A6 - 0xA], [A4 - 0x5CE]
00000D54  3C07                     move.w     D6, D7
00000D56  601C                     bra        +0x1E /* 00000D74 */
label00000D58:
00000D58  4267                     clr.w      -[A7]
00000D5A  3006                     move.w     D0, D6
00000D5C  C1FC 0006                muls.w     D0, 0x6
00000D60  41EC FA30                lea.l      A0, [A4 - 0x5D0]
00000D64  2F30 0000                move.l     -[A7], [A0 + D0.w]
00000D68  2F2C FE8A                move.l     -[A7], [A4 - 0x176]
00000D6C  4EAD 00CA                jsr        [A5 + 0xCA /* export_21, CODE:1 @ 00003D92 */]
00000D70  5246                     addq.w     D6, 1
00000D72  6906                     bvs        +0x8 /* 00000D7A */
label00000D74:
00000D74  BC6E FFF6                cmp.w      D6, [A6 - 0xA]
00000D78  6FDE                     ble        -0x20 /* 00000D58 */
label00000D7A:
00000D7A  3007                     move.w     D0, D7
00000D7C  5340                     subq.w     D0, 1
00000D7E  3940 FA32                move.w     [A4 - 0x5CE], D0
00000D82  197C 0001 FFEF           move.b     [A4 - 0x11], 0x1
00000D88  600A                     bra        +0xC /* 00000D94 */
label00000D8A:
00000D8A  5247                     addq.w     D7, 1
00000D8C  6906                     bvs        +0x8 /* 00000D94 */
label00000D8E:
00000D8E  BE6E FFF8                cmp.w      D7, [A6 - 0x8]
00000D92  6FA2                     ble        -0x5C /* 00000D36 */
label00000D94:
00000D94  4CDF 10C0                movem.l    D6,D7,A4, [A7]+
00000D98  4E5E                     unlink     A6
00000D9A  2E9F                     move.l     [A7], [A7]+
00000D9C  4E75                     rts
fn00000D9E:
00000D9E  4E56 FFF4                link       A6, -0x000C
00000DA2  48E7 0F08                movem.l    -[A7], D4,D5,D6,D7,A4
00000DA6  286E 0008                movea.l    A4, [A6 + 0x8]
00000DAA  4A6C FA32                tst.w      [A4 - 0x5CE]
00000DAE  6700 0090                beq        +0x92 /* 00000E40 */
00000DB2  102C FD4D                move.b     D0, [A4 - 0x2B3]
00000DB6  670A                     beq        +0xC /* 00000DC2 */
00000DB8  3E2C FD38                move.w     D7, [A4 - 0x2C8]
00000DBC  DE6D DC06                add.w      D7, [A5 - 0x23FA]
00000DC0  6004                     bra        +0x6 /* 00000DC6 */
label00000DC2:
00000DC2  3E2D DC06                move.w     D7, [A5 - 0x23FA]
label00000DC6:
00000DC6  302D DC0A                move.w     D0, [A5 - 0x23F6]
00000DCA  9047                     sub.w      D0, D7
00000DCC  2F00                     move.l     -[A7], D0
00000DCE  4267                     clr.w      -[A7]
00000DD0  4EAD 068A                jsr        [A5 + 0x68A /* export_205, CODE:4 @ 0000184A */]
00000DD4  321F                     move.w     D1, [A7]+
00000DD6  201F                     move.l     D0, [A7]+
00000DD8  48C0                     ext.l      D0
00000DDA  81C1                     divs.w     D0, D1
00000DDC  3800                     move.w     D4, D0
00000DDE  302D DC0A                move.w     D0, [A5 - 0x23F6]
00000DE2  9047                     sub.w      D0, D7
00000DE4  2F00                     move.l     -[A7], D0
00000DE6  4267                     clr.w      -[A7]
00000DE8  3F04                     move.w     -[A7], D4
00000DEA  3F2C FA32                move.w     -[A7], [A4 - 0x5CE]
00000DEE  4EAD 18C2                jsr        [A5 + 0x18C2 /* export_788, CODE:16 @ 000007E6 */]
00000DF2  321F                     move.w     D1, [A7]+
00000DF4  201F                     move.l     D0, [A7]+
00000DF6  48C0                     ext.l      D0
00000DF8  81C1                     divs.w     D0, D1
00000DFA  3A00                     move.w     D5, D0
00000DFC  3D6C FA32 FFF4           move.w     [A6 - 0xC], [A4 - 0x5CE]
00000E02  7C01                     moveq.l    D6, 0x01
00000E04  602C                     bra        +0x2E /* 00000E32 */
label00000E06:
00000E06  3006                     move.w     D0, D6
00000E08  C1FC 0006                muls.w     D0, 0x6
00000E0C  2F00                     move.l     -[A7], D0
00000E0E  4267                     clr.w      -[A7]
00000E10  3207                     move.w     D1, D7
00000E12  48C1                     ext.l      D1
00000E14  2F01                     move.l     -[A7], D1
00000E16  4EBA 314C                jsr        [PC + 0x314C /* 00003F64 */]
00000E1A  321F                     move.w     D1, [A7]+
00000E1C  201F                     move.l     D0, [A7]+
00000E1E  342D DC36                move.w     D2, [A5 - 0x23CA]
00000E22  D441                     add.w      D2, D1
00000E24  41EC FA34                lea.l      A0, [A4 - 0x5CC]
00000E28  3182 0000                move.w     [A0 + D0.w], D2
00000E2C  DE45                     add.w      D7, D5
00000E2E  5246                     addq.w     D6, 1
00000E30  6906                     bvs        +0x8 /* 00000E38 */
label00000E32:
00000E32  BC6E FFF4                cmp.w      D6, [A6 - 0xC]
00000E36  6FCE                     ble        -0x30 /* 00000E06 */
label00000E38:
00000E38  2F2E 0008                move.l     -[A7], [A6 + 0x8]
00000E3C  4EBA FEE2                jsr        [PC - 0x11E /* 00000D20 */]
label00000E40:
00000E40  422C FFF0                clr.b      [A4 - 0x10]
00000E44  197C 0001 FFEF           move.b     [A4 - 0x11], 0x1
00000E4A  4CDF 10F0                movem.l    D4,D5,D6,D7,A4, [A7]+
00000E4E  4E5E                     unlink     A6
00000E50  2E9F                     move.l     [A7], [A7]+
00000E52  4E75                     rts
fn00000E54:
00000E54  4E56 FFFE                link       A6, -0x0002
00000E58  48E7 0118                movem.l    -[A7], D7,A3,A4
00000E5C  266E 0008                movea.l    A3, [A6 + 0x8]
00000E60  266B 0008                movea.l    A3, [A3 + 0x8]
00000E64  7E01                     moveq.l    D7, 0x01
00000E66  49EB FA32                lea.l      A4, [A3 - 0x5CE]
label00000E6A:
00000E6A  BE54                     cmp.w      D7, [A4]
00000E6C  6E1C                     bgt        +0x1E /* 00000E8A */
00000E6E  3007                     move.w     D0, D7
00000E70  C1FC 0006                muls.w     D0, 0x6
00000E74  3234 00FE                move.w     D1, [A4 + D0.w - 0x2]
00000E78  B26E 000C                cmp.w      D1, [A6 + 0xC]
00000E7C  6608                     bne        +0xA /* 00000E86 */
00000E7E  1D7C 0001 0010           move.b     [A6 + 0x10], 0x1
00000E84  6008                     bra        +0xA /* 00000E8E */
label00000E86:
00000E86  5247                     addq.w     D7, 1
00000E88  60E0                     bra        -0x1E /* 00000E6A */
label00000E8A:
00000E8A  422E 0010                clr.b      [A6 + 0x10]
label00000E8E:
00000E8E  4CDF 1880                movem.l    D7,A3,A4, [A7]+
00000E92  4E5E                     unlink     A6
00000E94  205F                     movea.l    A0, [A7]+
00000E96  504F                     addq.w     A7, 8
00000E98  4ED0                     jmp        [A0]
fn00000E9A:
00000E9A  4E56 FFF8                link       A6, -0x0008
00000E9E  48E7 0318                movem.l    -[A7], D6,D7,A3,A4
00000EA2  266E 0008                movea.l    A3, [A6 + 0x8]
00000EA6  422E 000C                clr.b      [A6 + 0xC]
00000EAA  102B FFEE                move.b     D0, [A3 - 0x12]
00000EAE  6704                     beq        +0x6 /* 00000EB4 */
00000EB0  6000 00C0                bra        +0xC2 /* 00000F72 */
label00000EB4:
00000EB4  49EB FA32                lea.l      A4, [A3 - 0x5CE]
00000EB8  7E01                     moveq.l    D7, 0x01
label00000EBA:
00000EBA  BE54                     cmp.w      D7, [A4]
00000EBC  6E4E                     bgt        +0x50 /* 00000F0C */
00000EBE  3007                     move.w     D0, D7
00000EC0  C1FC 0006                muls.w     D0, 0x6
00000EC4  2D74 00FE FFFC           move.l     [A6 - 0x4], [A4 + D0.w - 0x2]
00000ECA  42A7                     clr.l      -[A7]
00000ECC  486E FFFC                pea.l      [A6 - 0x4]
00000ED0  2F2B FE8A                move.l     -[A7], [A3 - 0x176]
00000ED4  4EAD 00EA                jsr        [A5 + 0xEA /* export_25, CODE:1 @ 00003D82 */]
00000ED8  101F                     move.b     D0, [A7]+
00000EDA  6704                     beq        +0x6 /* 00000EE0 */
00000EDC  5247                     addq.w     D7, 1
00000EDE  602A                     bra        +0x2C /* 00000F0A */
label00000EE0:
00000EE0  1D7C 0001 000C           move.b     [A6 + 0xC], 0x1
00000EE6  3C07                     move.w     D6, D7
label00000EE8:
00000EE8  BC54                     cmp.w      D6, [A4]
00000EEA  6C18                     bge        +0x1A /* 00000F04 */
00000EEC  3006                     move.w     D0, D6
00000EEE  5240                     addq.w     D0, 1
00000EF0  C1FC 0006                muls.w     D0, 0x6
00000EF4  3206                     move.w     D1, D6
00000EF6  C3FC 0006                muls.w     D1, 0x6
00000EFA  29B4 00FE 10FE           move.l     [A4 + D1.w - 0x2], [A4 + D0.w - 0x2]
00000F00  5246                     addq.w     D6, 1
00000F02  60E4                     bra        -0x1A /* 00000EE8 */
label00000F04:
00000F04  3014                     move.w     D0, [A4]
00000F06  5340                     subq.w     D0, 1
00000F08  3880                     move.w     [A4], D0
label00000F0A:
00000F0A  60AE                     bra        -0x50 /* 00000EBA */
label00000F0C:
00000F0C  426E FFFC                clr.w      [A6 - 0x4]
00000F10  426E FFFE                clr.w      [A6 - 0x2]
label00000F14:
00000F14  4267                     clr.w      -[A7]
00000F16  1F3C 0001                move.b     -[A7], 0x1
00000F1A  486E FFFC                pea.l      [A6 - 0x4]
00000F1E  2F2B FE8A                move.l     -[A7], [A3 - 0x176]
00000F22  4EAD 00EA                jsr        [A5 + 0xEA /* export_25, CODE:1 @ 00003D82 */]
00000F26  101F                     move.b     D0, [A7]+
00000F28  6748                     beq        +0x4A /* 00000F72 */
00000F2A  4267                     clr.w      -[A7]
00000F2C  2F2E FFFC                move.l     -[A7], [A6 - 0x4]
00000F30  2F0E                     move.l     -[A7], A6
00000F32  4EBA FF20                jsr        [PC - 0xE0 /* 00000E54 */]
00000F36  101F                     move.b     D0, [A7]+
00000F38  662C                     bne        +0x2E /* 00000F66 */
00000F3A  0C54 0080                cmpi.w     [A4], 0x80
00000F3E  6C18                     bge        +0x1A /* 00000F58 */
00000F40  3014                     move.w     D0, [A4]
00000F42  5240                     addq.w     D0, 1
00000F44  3880                     move.w     [A4], D0
00000F46  C1FC 0006                muls.w     D0, 0x6
00000F4A  29AE FFFC 00FE           move.l     [A4 + D0.w - 0x2], [A6 - 0x4]
00000F50  1D7C 0001 000C           move.b     [A6 + 0xC], 0x1
00000F56  600E                     bra        +0x10 /* 00000F66 */
label00000F58:
00000F58  4267                     clr.w      -[A7]
00000F5A  2F2E FFFC                move.l     -[A7], [A6 - 0x4]
00000F5E  2F2B FE8A                move.l     -[A7], [A3 - 0x176]
00000F62  4EAD 00CA                jsr        [A5 + 0xCA /* export_21, CODE:1 @ 00003D92 */]
label00000F66:
00000F66  302E FFFC                move.w     D0, [A6 - 0x4]
00000F6A  5240                     addq.w     D0, 1
00000F6C  3D40 FFFC                move.w     [A6 - 0x4], D0
00000F70  60A2                     bra        -0x5C /* 00000F14 */
label00000F72:
00000F72  4CDF 18C0                movem.l    D6,D7,A3,A4, [A7]+
00000F76  4E5E                     unlink     A6
00000F78  2E9F                     move.l     [A7], [A7]+
00000F7A  4E75                     rts
fn00000F7C:
00000F7C  4E56 FDDE                link       A6, -0x0222
00000F80  48E7 0F18                movem.l    -[A7], D4,D5,D6,D7,A3,A4
00000F84  286E 0008                movea.l    A4, [A6 + 0x8]
00000F88  42A7                     clr.l      -[A7]
00000F8A  A8D8                     syscall    NewRgn
00000F8C  2A1F                     move.l     D5, [A7]+
00000F8E  206C FE96                movea.l    A0, [A4 - 0x16A]
00000F92  3828 0044                move.w     D4, [A0 + 0x44]
00000F96  206C FE96                movea.l    A0, [A4 - 0x16A]
00000F9A  3D68 004A FFEE           move.w     [A6 - 0x12], [A0 + 0x4A]
00000FA0  2F05                     move.l     -[A7], D5
00000FA2  A87A                     syscall    GetClip
00000FA4  41EE FFF8                lea.l      A0, [A6 - 0x8]
00000FA8  43EC FFB2                lea.l      A1, [A4 - 0x4E]
00000FAC  20D9                     move.l     [A0]+, [A1]+
00000FAE  20D9                     move.l     [A0]+, [A1]+
00000FB0  42A7                     clr.l      -[A7]
00000FB2  4EAD 0672                jsr        [A5 + 0x672 /* export_202, CODE:4 @ 0000164A */]
00000FB6  A887                     syscall    TextFont
00000FB8  42A7                     clr.l      -[A7]
00000FBA  1F3C 0001                move.b     -[A7], 0x1
00000FBE  4EAD 067A                jsr        [A5 + 0x67A /* export_203, CODE:4 @ 000016BA */]
00000FC2  301F                     move.w     D0, [A7]+
00000FC4  48C0                     ext.l      D0
00000FC6  2F00                     move.l     -[A7], D0
00000FC8  4EBA 2FCA                jsr        [PC + 0x2FCA /* 00003F94 */]
00000FCC  3C1F                     move.w     D6, [A7]+
00000FCE  3F06                     move.w     -[A7], D6
00000FD0  A88A                     syscall    TextSize
00000FD2  2F3C 0001 0000           move.l     -[A7], 0x10000
00000FD8  3006                     move.w     D0, D6
00000FDA  48C0                     ext.l      D0
00000FDC  81FC 0002                divs.w     D0, 0x2
00000FE0  3F00                     move.w     -[A7], D0
00000FE2  4EAD 18BA                jsr        [A5 + 0x18BA /* export_787, CODE:16 @ 000007C6 */]
00000FE6  3C2C FFB6                move.w     D6, [A4 - 0x4A]
00000FEA  9C5F                     sub.w      D6, [A7]+
00000FEC  102C FD4D                move.b     D0, [A4 - 0x2B3]
00000FF0  6728                     beq        +0x2A /* 0000101A */
00000FF2  4A6C FA32                tst.w      [A4 - 0x5CE]
00000FF6  6F06                     ble        +0x8 /* 00000FFE */
00000FF8  3D6C FA3A FFFE           move.w     [A6 - 0x2], [A4 - 0x5C6]
label00000FFE:
00000FFE  486E FFF8                pea.l      [A6 - 0x8]
00001002  A87B                     syscall    ClipRect
00001004  3F2E FFFA                move.w     -[A7], [A6 - 0x6]
00001008  3F06                     move.w     -[A7], D6
0000100A  A893                     syscall    MoveTo
0000100C  486E FDDE                pea.l      [A6 - 0x222]
00001010  3F3C 0007                move.w     -[A7], 0x7
00001014  4EAD 070A                jsr        [A5 + 0x70A /* export_221, CODE:4 @ 00002328 */]
00001018  A884                     syscall    DrawString
label0000101A:
0000101A  7002                     moveq.l    D0, 0x02
0000101C  B02C FD51                cmp.b      D0, [A4 - 0x2AF]
00001020  667A                     bne        +0x7C /* 0000109C */
00001022  4A6C FA32                tst.w      [A4 - 0x5CE]
00001026  6774                     beq        +0x76 /* 0000109C */
00001028  7E01                     moveq.l    D7, 0x01
0000102A  47EC FA32                lea.l      A3, [A4 - 0x5CE]
label0000102E:
0000102E  BE53                     cmp.w      D7, [A3]
00001030  6E6A                     bgt        +0x6C /* 0000109C */
00001032  3007                     move.w     D0, D7
00001034  C1FC 0006                muls.w     D0, 0x6
00001038  3D73 0002 FFFA           move.w     [A6 - 0x6], [A3 + D0.w + 0x2]
0000103E  BE53                     cmp.w      D7, [A3]
00001040  6C10                     bge        +0x12 /* 00001052 */
00001042  3007                     move.w     D0, D7
00001044  5240                     addq.w     D0, 1
00001046  C1FC 0006                muls.w     D0, 0x6
0000104A  3D73 0002 FFFE           move.w     [A6 - 0x2], [A3 + D0.w + 0x2]
00001050  6006                     bra        +0x8 /* 00001058 */
label00001052:
00001052  3D6C FFB8 FFFE           move.w     [A6 - 0x2], [A4 - 0x48]
label00001058:
00001058  486E FFF8                pea.l      [A6 - 0x8]
0000105C  A87B                     syscall    ClipRect
0000105E  3D7C 00FF FEDE           move.w     [A6 - 0x122], 0xFF
00001064  41EE FEE0                lea.l      A0, [A6 - 0x120]
00001068  2008                     move.l     D0, A0
0000106A  5280                     addq.l     D0, 1
0000106C  2F00                     move.l     -[A7], D0
0000106E  486E FEDE                pea.l      [A6 - 0x122]
00001072  3007                     move.w     D0, D7
00001074  C1FC 0006                muls.w     D0, 0x6
00001078  2F33 00FE                move.l     -[A7], [A3 + D0.w - 0x2]
0000107C  2F2C FE8A                move.l     -[A7], [A4 - 0x176]
00001080  4EAD 00F2                jsr        [A5 + 0xF2 /* export_26, CODE:1 @ 00003D80 */]
00001084  1D6E FEDF FEE0           move.b     [A6 - 0x120], [A6 - 0x121]
0000108A  3F2E FFFA                move.w     -[A7], [A6 - 0x6]
0000108E  3F06                     move.w     -[A7], D6
00001090  A893                     syscall    MoveTo
00001092  486E FEE0                pea.l      [A6 - 0x120]
00001096  A884                     syscall    DrawString
00001098  5247                     addq.w     D7, 1
0000109A  6092                     bra        -0x6C /* 0000102E */
label0000109C:
0000109C  2F05                     move.l     -[A7], D5
0000109E  A879                     syscall    SetClip
000010A0  3F2E FFEE                move.w     -[A7], [A6 - 0x12]
000010A4  A88A                     syscall    TextSize
000010A6  3F04                     move.w     -[A7], D4
000010A8  A887                     syscall    TextFont
000010AA  2F05                     move.l     -[A7], D5
000010AC  A8D9                     syscall    DisposRgn/DisposeRgn
000010AE  4CDF 18F0                movem.l    D4,D5,D6,D7,A3,A4, [A7]+
000010B2  4E5E                     unlink     A6
000010B4  2E9F                     move.l     [A7], [A7]+
000010B6  4E75                     rts
fn000010B8:
000010B8  4E56 FFF2                link       A6, -0x000E
000010BC  48E7 0718                movem.l    -[A7], D5,D6,D7,A3,A4
000010C0  286E 0008                movea.l    A4, [A6 + 0x8]
000010C4  206C FE96                movea.l    A0, [A4 - 0x16A]
000010C8  43EE FFF2                lea.l      A1, [A6 - 0xE]
000010CC  41E8 003A                lea.l      A0, [A0 + 0x3A]
000010D0  22D8                     move.l     [A1]+, [A0]+
000010D2  22D8                     move.l     [A1]+, [A0]+
000010D4  486C FF9A                pea.l      [A4 - 0x66]
000010D8  A89D                     syscall    PenPat
000010DA  47EC FFBA                lea.l      A3, [A4 - 0x46]
000010DE  3A13                     move.w     D5, [A3]
000010E0  5245                     addq.w     D5, 1
000010E2  302B 0004                move.w     D0, [A3 + 0x4]
000010E6  9053                     sub.w      D0, [A3]
000010E8  3C00                     move.w     D6, D0
000010EA  5746                     subq.w     D6, 3
000010EC  102C FD4D                move.b     D0, [A4 - 0x2B3]
000010F0  6704                     beq        +0x6 /* 000010F6 */
000010F2  7E01                     moveq.l    D7, 0x01
000010F4  6002                     bra        +0x4 /* 000010F8 */
label000010F6:
000010F6  7E02                     moveq.l    D7, 0x02
label000010F8:
000010F8  BE6C FA32                cmp.w      D7, [A4 - 0x5CE]
000010FC  6E1C                     bgt        +0x1E /* 0000111A */
000010FE  3007                     move.w     D0, D7
00001100  C1FC 0006                muls.w     D0, 0x6
00001104  41EC FA34                lea.l      A0, [A4 - 0x5CC]
00001108  3F30 0000                move.w     -[A7], [A0 + D0.w]
0000110C  3F05                     move.w     -[A7], D5
0000110E  A893                     syscall    MoveTo
00001110  4267                     clr.w      -[A7]
00001112  3F06                     move.w     -[A7], D6
00001114  A892                     syscall    Line
00001116  5247                     addq.w     D7, 1
00001118  60DE                     bra        -0x20 /* 000010F8 */
label0000111A:
0000111A  486E FFF2                pea.l      [A6 - 0xE]
0000111E  A89D                     syscall    PenPat
00001120  4CDF 18E0                movem.l    D5,D6,D7,A3,A4, [A7]+
00001124  4E5E                     unlink     A6
00001126  2E9F                     move.l     [A7], [A7]+
00001128  4E75                     rts
fn0000112A:
0000112A  4E56 FFF4                link       A6, -0x000C
0000112E  48E7 0018                movem.l    -[A7], A3,A4
00001132  286E 0008                movea.l    A4, [A6 + 0x8]
00001136  7001                     moveq.l    D0, 0x01
00001138  B02C FD52                cmp.b      D0, [A4 - 0x2AE]
0000113C  6672                     bne        +0x74 /* 000011B0 */
0000113E  102C FFF0                move.b     D0, [A4 - 0x10]
00001142  6708                     beq        +0xA /* 0000114C */
00001144  2F2E 0008                move.l     -[A7], [A6 + 0x8]
00001148  4EBA FC54                jsr        [PC - 0x3AC /* 00000D9E */]
label0000114C:
0000114C  41EE FFF8                lea.l      A0, [A6 - 0x8]
00001150  43EC FFBA                lea.l      A1, [A4 - 0x46]
00001154  20D9                     move.l     [A0]+, [A1]+
00001156  20D9                     move.l     [A0]+, [A1]+
00001158  486E FFF8                pea.l      [A6 - 0x8]
0000115C  2F3C 0001 0001           move.l     -[A7], 0x10001
00001162  A8A9                     syscall    InsetRect
00001164  42A7                     clr.l      -[A7]
00001166  A8D8                     syscall    NewRgn
00001168  265F                     movea.l    A3, [A7]+
0000116A  2F0B                     move.l     -[A7], A3
0000116C  A87A                     syscall    GetClip
0000116E  102C FD4E                move.b     D0, [A4 - 0x2B2]
00001172  670E                     beq        +0x10 /* 00001182 */
00001174  486C FFB2                pea.l      [A4 - 0x4E]
00001178  A8A3                     syscall    EraseRect
0000117A  2F2E 0008                move.l     -[A7], [A6 + 0x8]
0000117E  4EBA FDFC                jsr        [PC - 0x204 /* 00000F7C */]
label00001182:
00001182  486E FFF8                pea.l      [A6 - 0x8]
00001186  A87B                     syscall    ClipRect
00001188  486E FFF8                pea.l      [A6 - 0x8]
0000118C  A8A3                     syscall    EraseRect
0000118E  4A6C FA32                tst.w      [A4 - 0x5CE]
00001192  5EC0                     sgt        D0
00001194  7202                     moveq.l    D1, 0x02
00001196  B22C FD51                cmp.b      D1, [A4 - 0x2AF]
0000119A  57C1                     seq        D1
0000119C  C001                     and.b      D0, D1
0000119E  6708                     beq        +0xA /* 000011A8 */
000011A0  2F2E 0008                move.l     -[A7], [A6 + 0x8]
000011A4  4EBA FF12                jsr        [PC - 0xEE /* 000010B8 */]
label000011A8:
000011A8  2F0B                     move.l     -[A7], A3
000011AA  A879                     syscall    SetClip
000011AC  2F0B                     move.l     -[A7], A3
000011AE  A8D9                     syscall    DisposRgn/DisposeRgn
label000011B0:
000011B0  4CDF 1800                movem.l    A3,A4, [A7]+
000011B4  4E5E                     unlink     A6
000011B6  2E9F                     move.l     [A7], [A7]+
000011B8  4E75                     rts
fn000011BA:
000011BA  4E56 0000                link       A6, 0
000011BE  48E7 0118                movem.l    -[A7], D7,A3,A4
000011C2  2E2E 000C                move.l     D7, [A6 + 0xC]
000011C6  286E 0008                movea.l    A4, [A6 + 0x8]
000011CA  286C 0008                movea.l    A4, [A4 + 0x8]
000011CE  206E 0008                movea.l    A0, [A6 + 0x8]
000011D2  47E8 FFE8                lea.l      A3, [A0 - 0x18]
000011D6  2047                     movea.l    A0, D7
000011D8  2F08                     move.l     -[A7], A0
000011DA  4267                     clr.w      -[A7]
000011DC  2F08                     move.l     -[A7], A0
000011DE  4267                     clr.w      -[A7]
000011E0  3F2B 0002                move.w     -[A7], [A3 + 0x2]
000011E4  486C FD36                pea.l      [A4 - 0x2CA]
000011E8  4EAD 062A                jsr        [A5 + 0x62A /* export_193, CODE:4 @ 0000107A */]
000011EC  301F                     move.w     D0, [A7]+
000011EE  205F                     movea.l    A0, [A7]+
000011F0  48C0                     ext.l      D0
000011F2  2F00                     move.l     -[A7], D0
000011F4  4EBA 2D6E                jsr        [PC + 0x2D6E /* 00003F64 */]
000011F8  301F                     move.w     D0, [A7]+
000011FA  205F                     movea.l    A0, [A7]+
000011FC  322D DC1E                move.w     D1, [A5 - 0x23E2]
00001200  D240                     add.w      D1, D0
00001202  3141 0002                move.w     [A0 + 0x2], D1
00001206  2047                     movea.l    A0, D7
00001208  2F08                     move.l     -[A7], A0
0000120A  4267                     clr.w      -[A7]
0000120C  2F08                     move.l     -[A7], A0
0000120E  4267                     clr.w      -[A7]
00001210  3F13                     move.w     -[A7], [A3]
00001212  486C FD36                pea.l      [A4 - 0x2CA]
00001216  4EAD 062A                jsr        [A5 + 0x62A /* export_193, CODE:4 @ 0000107A */]
0000121A  301F                     move.w     D0, [A7]+
0000121C  205F                     movea.l    A0, [A7]+
0000121E  48C0                     ext.l      D0
00001220  2F00                     move.l     -[A7], D0
00001222  4EBA 2D70                jsr        [PC + 0x2D70 /* 00003F94 */]
00001226  301F                     move.w     D0, [A7]+
00001228  205F                     movea.l    A0, [A7]+
0000122A  322D DC1C                move.w     D1, [A5 - 0x23E4]
0000122E  D240                     add.w      D1, D0
00001230  3081                     move.w     [A0], D1
00001232  2047                     movea.l    A0, D7
00001234  2F08                     move.l     -[A7], A0
00001236  4267                     clr.w      -[A7]
00001238  2F08                     move.l     -[A7], A0
0000123A  4267                     clr.w      -[A7]
0000123C  3F2B 0006                move.w     -[A7], [A3 + 0x6]
00001240  486C FD36                pea.l      [A4 - 0x2CA]
00001244  4EAD 062A                jsr        [A5 + 0x62A /* export_193, CODE:4 @ 0000107A */]
00001248  301F                     move.w     D0, [A7]+
0000124A  205F                     movea.l    A0, [A7]+
0000124C  48C0                     ext.l      D0
0000124E  2F00                     move.l     -[A7], D0
00001250  4EBA 2D12                jsr        [PC + 0x2D12 /* 00003F64 */]
00001254  301F                     move.w     D0, [A7]+
00001256  205F                     movea.l    A0, [A7]+
00001258  322D DC1E                move.w     D1, [A5 - 0x23E2]
0000125C  D240                     add.w      D1, D0
0000125E  3141 0006                move.w     [A0 + 0x6], D1
00001262  2047                     movea.l    A0, D7
00001264  2F08                     move.l     -[A7], A0
00001266  4267                     clr.w      -[A7]
00001268  2F08                     move.l     -[A7], A0
0000126A  4267                     clr.w      -[A7]
0000126C  3F2B 0004                move.w     -[A7], [A3 + 0x4]
00001270  486C FD36                pea.l      [A4 - 0x2CA]
00001274  4EAD 062A                jsr        [A5 + 0x62A /* export_193, CODE:4 @ 0000107A */]
00001278  301F                     move.w     D0, [A7]+
0000127A  205F                     movea.l    A0, [A7]+
0000127C  48C0                     ext.l      D0
0000127E  2F00                     move.l     -[A7], D0
00001280  4EBA 2D12                jsr        [PC + 0x2D12 /* 00003F94 */]
00001284  301F                     move.w     D0, [A7]+
00001286  205F                     movea.l    A0, [A7]+
00001288  322D DC1C                move.w     D1, [A5 - 0x23E4]
0000128C  D240                     add.w      D1, D0
0000128E  3141 0004                move.w     [A0 + 0x4], D1
00001292  4CDF 1880                movem.l    D7,A3,A4, [A7]+
00001296  4E5E                     unlink     A6
00001298  205F                     movea.l    A0, [A7]+
0000129A  504F                     addq.w     A7, 8
0000129C  4ED0                     jmp        [A0]
fn0000129E:
0000129E  4E56 0000                link       A6, 0
000012A2  48E7 0018                movem.l    -[A7], A3,A4
000012A6  286E 0008                movea.l    A4, [A6 + 0x8]
000012AA  206E 0008                movea.l    A0, [A6 + 0x8]
000012AE  2068 0008                movea.l    A0, [A0 + 0x8]
000012B2  47E8 FD36                lea.l      A3, [A0 - 0x2CA]
000012B6  302B 0010                move.w     D0, [A3 + 0x10]
000012BA  C1EE 000C                muls.w     D0, [A6 + 0xC]
000012BE  322C FFD2                move.w     D1, [A4 - 0x2E]
000012C2  D240                     add.w      D1, D0
000012C4  3941 FFEA                move.w     [A4 - 0x16], D1
000012C8  302B 000C                move.w     D0, [A3 + 0xC]
000012CC  D06C FFEA                add.w      D0, [A4 - 0x16]
000012D0  3940 FFEE                move.w     [A4 - 0x12], D0
000012D4  486C FFF0                pea.l      [A4 - 0x10]
000012D8  2F2E 0008                move.l     -[A7], [A6 + 0x8]
000012DC  4EBA FEDC                jsr        [PC - 0x124 /* 000011BA */]
000012E0  4CDF 1800                movem.l    A3,A4, [A7]+
000012E4  4E5E                     unlink     A6
000012E6  205F                     movea.l    A0, [A7]+
000012E8  5C4F                     addq.w     A7, 6
000012EA  4ED0                     jmp        [A0]
fn000012EC:
000012EC  4E56 FFC8                link       A6, -0x0038
000012F0  48E7 0F18                movem.l    -[A7], D4,D5,D6,D7,A3,A4
000012F4  206E 0010                movea.l    A0, [A6 + 0x10]
000012F8  43EE FFF8                lea.l      A1, [A6 - 0x8]
000012FC  22D8                     move.l     [A1]+, [A0]+
000012FE  22D8                     move.l     [A1]+, [A0]+
00001300  3A2E 000E                move.w     D5, [A6 + 0xE]
00001304  382E 000C                move.w     D4, [A6 + 0xC]
00001308  286E 0008                movea.l    A4, [A6 + 0x8]
0000130C  486D DC1C                pea.l      [A5 - 0x23E4]
00001310  A87B                     syscall    ClipRect
00001312  47EC FD36                lea.l      A3, [A4 - 0x2CA]
00001316  486E FFE8                pea.l      [A6 - 0x18]
0000131A  2F2B 0006                move.l     -[A7], [A3 + 0x6]
0000131E  302B 000C                move.w     D0, [A3 + 0xC]
00001322  D06B 0008                add.w      D0, [A3 + 0x8]
00001326  3F00                     move.w     -[A7], D0
00001328  302B 000A                move.w     D0, [A3 + 0xA]
0000132C  D06B 0006                add.w      D0, [A3 + 0x6]
00001330  3F00                     move.w     -[A7], D0
00001332  A8A7                     syscall    SetRect
00001334  41EE FFD0                lea.l      A0, [A6 - 0x30]
00001338  43EE FFE8                lea.l      A1, [A6 - 0x18]
0000133C  20D9                     move.l     [A0]+, [A1]+
0000133E  20D9                     move.l     [A0]+, [A1]+
00001340  7C01                     moveq.l    D6, 0x01
00001342  486E FFF0                pea.l      [A6 - 0x10]
00001346  2F0E                     move.l     -[A7], A6
00001348  4EBA FE70                jsr        [PC - 0x190 /* 000011BA */]
0000134C  41EC FFC2                lea.l      A0, [A4 - 0x3E]
00001350  43EE FFF0                lea.l      A1, [A6 - 0x10]
00001354  20D9                     move.l     [A0]+, [A1]+
00001356  20D9                     move.l     [A0]+, [A1]+
00001358  47ED DC1C                lea.l      A3, [A5 - 0x23E4]
0000135C  486E FFD8                pea.l      [A6 - 0x28]
00001360  3F2B 0002                move.w     -[A7], [A3 + 0x2]
00001364  3F13                     move.w     -[A7], [A3]
00001366  3F2B 0006                move.w     -[A7], [A3 + 0x6]
0000136A  3F2E FFF4                move.w     -[A7], [A6 - 0xC]
0000136E  A8A7                     syscall    SetRect
00001370  486E FFD8                pea.l      [A6 - 0x28]
00001374  A8A3                     syscall    EraseRect
00001376  486E FFF0                pea.l      [A6 - 0x10]
0000137A  A8A1                     syscall    FrameRect
0000137C  486E FFE0                pea.l      [A6 - 0x20]
00001380  302E FFF6                move.w     D0, [A6 - 0xA]
00001384  5940                     subq.w     D0, 4
00001386  3F00                     move.w     -[A7], D0
00001388  302E FFF4                move.w     D0, [A6 - 0xC]
0000138C  5940                     subq.w     D0, 4
0000138E  3F00                     move.w     -[A7], D0
00001390  2F2E FFF4                move.l     -[A7], [A6 - 0xC]
00001394  A8A7                     syscall    SetRect
00001396  486E FFE0                pea.l      [A6 - 0x20]
0000139A  486D FE98                pea.l      [A5 - 0x168]
0000139E  A8A5                     syscall    FillRect
000013A0  3F3C 0009                move.w     -[A7], 0x9 /* '\t' */
000013A4  A89C                     syscall    PenMode
000013A6  486D FE90                pea.l      [A5 - 0x170]
000013AA  A89D                     syscall    PenPat
000013AC  6034                     bra        +0x36 /* 000013E2 */
label000013AE:
000013AE  4A44                     tst.w      D4
000013B0  57C0                     seq        D0
000013B2  BC45                     cmp.w      D6, D5
000013B4  57C1                     seq        D1
000013B6  C001                     and.b      D0, D1
000013B8  6714                     beq        +0x16 /* 000013CE */
000013BA  486D FE98                pea.l      [A5 - 0x168]
000013BE  A89D                     syscall    PenPat
000013C0  486E FFF0                pea.l      [A6 - 0x10]
000013C4  A8A1                     syscall    FrameRect
000013C6  486D FE90                pea.l      [A5 - 0x170]
000013CA  A89D                     syscall    PenPat
000013CC  6006                     bra        +0x8 /* 000013D4 */
label000013CE:
000013CE  486E FFF0                pea.l      [A6 - 0x10]
000013D2  A8A1                     syscall    FrameRect
label000013D4:
000013D4  5246                     addq.w     D6, 1
000013D6  41EE FFE0                lea.l      A0, [A6 - 0x20]
000013DA  43EE FFF0                lea.l      A1, [A6 - 0x10]
000013DE  20D9                     move.l     [A0]+, [A1]+
000013E0  20D9                     move.l     [A0]+, [A1]+
label000013E2:
000013E2  3F06                     move.w     -[A7], D6
000013E4  2F0E                     move.l     -[A7], A6
000013E6  4EBA FEB6                jsr        [PC - 0x14A /* 0000129E */]
000013EA  302E FFF6                move.w     D0, [A6 - 0xA]
000013EE  B06E FFFE                cmp.w      D0, [A6 - 0x2]
000013F2  6FBA                     ble        -0x44 /* 000013AE */
000013F4  3006                     move.w     D0, D6
000013F6  5340                     subq.w     D0, 1
000013F8  3940 FFE4                move.w     [A4 - 0x1C], D0
000013FC  426C FFE2                clr.w      [A4 - 0x1E]
00001400  42A7                     clr.l      -[A7]
00001402  3F2C FD44                move.w     -[A7], [A4 - 0x2BC]
00001406  486C FD36                pea.l      [A4 - 0x2CA]
0000140A  4EAD 062A                jsr        [A5 + 0x62A /* export_193, CODE:4 @ 0000107A */]
0000140E  301F                     move.w     D0, [A7]+
00001410  48C0                     ext.l      D0
00001412  2F00                     move.l     -[A7], D0
00001414  4EBA 2B7E                jsr        [PC + 0x2B7E /* 00003F94 */]
00001418  302E FFFC                move.w     D0, [A6 - 0x4]
0000141C  905F                     sub.w      D0, [A7]+
0000141E  3D40 FFCA                move.w     [A6 - 0x36], D0
00001422  6062                     bra        +0x64 /* 00001486 */
label00001424:
00001424  302C FFE2                move.w     D0, [A4 - 0x1E]
00001428  5240                     addq.w     D0, 1
0000142A  3940 FFE2                move.w     [A4 - 0x1E], D0
0000142E  3D6E FFDC FFD8           move.w     [A6 - 0x28], [A6 - 0x24]
00001434  3D6E FFF4 FFDC           move.w     [A6 - 0x24], [A6 - 0xC]
0000143A  486E FFD8                pea.l      [A6 - 0x28]
0000143E  A8A3                     syscall    EraseRect
00001440  3D46 FFC8                move.w     [A6 - 0x38], D6
00001444  7E01                     moveq.l    D7, 0x01
00001446  6038                     bra        +0x3A /* 00001480 */
label00001448:
00001448  B86C FFE2                cmp.w      D4, [A4 - 0x1E]
0000144C  57C0                     seq        D0
0000144E  3207                     move.w     D1, D7
00001450  5341                     subq.w     D1, 1
00001452  B245                     cmp.w      D1, D5
00001454  57C1                     seq        D1
00001456  C001                     and.b      D0, D1
00001458  6714                     beq        +0x16 /* 0000146E */
0000145A  486D FE98                pea.l      [A5 - 0x168]
0000145E  A89D                     syscall    PenPat
00001460  486E FFF0                pea.l      [A6 - 0x10]
00001464  A8A1                     syscall    FrameRect
00001466  486D FE90                pea.l      [A5 - 0x170]
0000146A  A89D                     syscall    PenPat
0000146C  6006                     bra        +0x8 /* 00001474 */
label0000146E:
0000146E  486E FFF0                pea.l      [A6 - 0x10]
00001472  A8A1                     syscall    FrameRect
label00001474:
00001474  3F07                     move.w     -[A7], D7
00001476  2F0E                     move.l     -[A7], A6
00001478  4EBA FE24                jsr        [PC - 0x1DC /* 0000129E */]
0000147C  5247                     addq.w     D7, 1
0000147E  6906                     bvs        +0x8 /* 00001486 */
label00001480:
00001480  BE6E FFC8                cmp.w      D7, [A6 - 0x38]
00001484  6FC2                     ble        -0x3C /* 00001448 */
label00001486:
00001486  47EC FD36                lea.l      A3, [A4 - 0x2CA]
0000148A  486E FFE8                pea.l      [A6 - 0x18]
0000148E  3F2B 0008                move.w     -[A7], [A3 + 0x8]
00001492  302B 000E                move.w     D0, [A3 + 0xE]
00001496  D06E FFE8                add.w      D0, [A6 - 0x18]
0000149A  3F00                     move.w     -[A7], D0
0000149C  302B 000C                move.w     D0, [A3 + 0xC]
000014A0  D06B 0008                add.w      D0, [A3 + 0x8]
000014A4  3F00                     move.w     -[A7], D0
000014A6  302B 000E                move.w     D0, [A3 + 0xE]
000014AA  D06E FFEC                add.w      D0, [A6 - 0x14]
000014AE  3F00                     move.w     -[A7], D0
000014B0  A8A7                     syscall    SetRect
000014B2  486E FFF0                pea.l      [A6 - 0x10]
000014B6  2F0E                     move.l     -[A7], A6
000014B8  4EBA FD00                jsr        [PC - 0x300 /* 000011BA */]
000014BC  302E FFF4                move.w     D0, [A6 - 0xC]
000014C0  B06E FFCA                cmp.w      D0, [A6 - 0x36]
000014C4  6F00 FF5E                ble        -0xA0 /* 00001424 */
000014C8  302E FFF4                move.w     D0, [A6 - 0xC]
000014CC  B06E FFFC                cmp.w      D0, [A6 - 0x4]
000014D0  6E00 0094                bgt        +0x96 /* 00001566 */
000014D4  302C FFE2                move.w     D0, [A4 - 0x1E]
000014D8  5240                     addq.w     D0, 1
000014DA  3940 FFE2                move.w     [A4 - 0x1E], D0
000014DE  3D6E FFDC FFD8           move.w     [A6 - 0x28], [A6 - 0x24]
000014E4  3D6D DC20 FFDC           move.w     [A6 - 0x24], [A5 - 0x23E0]
000014EA  486E FFD8                pea.l      [A6 - 0x28]
000014EE  A8A3                     syscall    EraseRect
000014F0  7E01                     moveq.l    D7, 0x01
label000014F2:
000014F2  BC47                     cmp.w      D6, D7
000014F4  6F38                     ble        +0x3A /* 0000152E */
000014F6  B86C FFE2                cmp.w      D4, [A4 - 0x1E]
000014FA  57C0                     seq        D0
000014FC  3207                     move.w     D1, D7
000014FE  5341                     subq.w     D1, 1
00001500  B245                     cmp.w      D1, D5
00001502  57C1                     seq        D1
00001504  C001                     and.b      D0, D1
00001506  6714                     beq        +0x16 /* 0000151C */
00001508  486D FE98                pea.l      [A5 - 0x168]
0000150C  A89D                     syscall    PenPat
0000150E  486E FFF0                pea.l      [A6 - 0x10]
00001512  A8A1                     syscall    FrameRect
00001514  486D FE90                pea.l      [A5 - 0x170]
00001518  A89D                     syscall    PenPat
0000151A  6006                     bra        +0x8 /* 00001522 */
label0000151C:
0000151C  486E FFF0                pea.l      [A6 - 0x10]
00001520  A8A1                     syscall    FrameRect
label00001522:
00001522  3F07                     move.w     -[A7], D7
00001524  2F0E                     move.l     -[A7], A6
00001526  4EBA FD76                jsr        [PC - 0x28A /* 0000129E */]
0000152A  5247                     addq.w     D7, 1
0000152C  60C4                     bra        -0x3A /* 000014F2 */
label0000152E:
0000152E  B86C FFE2                cmp.w      D4, [A4 - 0x1E]
00001532  57C0                     seq        D0
00001534  3206                     move.w     D1, D6
00001536  5341                     subq.w     D1, 1
00001538  B245                     cmp.w      D1, D5
0000153A  57C1                     seq        D1
0000153C  C001                     and.b      D0, D1
0000153E  4A44                     tst.w      D4
00001540  57C1                     seq        D1
00001542  4A45                     tst.w      D5
00001544  57C2                     seq        D2
00001546  C202                     and.b      D1, D2
00001548  8001                     or.b       D0, D1
0000154A  6706                     beq        +0x8 /* 00001552 */
0000154C  486D FE98                pea.l      [A5 - 0x168]
00001550  A89D                     syscall    PenPat
label00001552:
00001552  486E FFF0                pea.l      [A6 - 0x10]
00001556  A8A1                     syscall    FrameRect
00001558  41EC FFCA                lea.l      A0, [A4 - 0x36]
0000155C  43EE FFF0                lea.l      A1, [A6 - 0x10]
00001560  20D9                     move.l     [A0]+, [A1]+
00001562  20D9                     move.l     [A0]+, [A1]+
00001564  6012                     bra        +0x14 /* 00001578 */
label00001566:
00001566  3D6E FFDC FFD8           move.w     [A6 - 0x28], [A6 - 0x24]
0000156C  3D6E FFFC FFDC           move.w     [A6 - 0x24], [A6 - 0x4]
00001572  486E FFD8                pea.l      [A6 - 0x28]
00001576  A8A3                     syscall    EraseRect
label00001578:
00001578  A89E                     syscall    PenNormal
0000157A  4A6C FFE2                tst.w      [A4 - 0x1E]
0000157E  662E                     bne        +0x30 /* 000015AE */
00001580  4AAC FFE2                tst.l      [A4 - 0x1E]
00001584  660A                     bne        +0xC /* 00001590 */
00001586  486E FFE0                pea.l      [A6 - 0x20]
0000158A  42A7                     clr.l      -[A7]
0000158C  42A7                     clr.l      -[A7]
0000158E  A8A7                     syscall    SetRect
label00001590:
00001590  4A45                     tst.w      D5
00001592  57C0                     seq        D0
00001594  4A44                     tst.w      D4
00001596  57C1                     seq        D1
00001598  C001                     and.b      D0, D1
0000159A  6706                     beq        +0x8 /* 000015A2 */
0000159C  486E FFE0                pea.l      [A6 - 0x20]
000015A0  A8A1                     syscall    FrameRect
label000015A2:
000015A2  41EC FFCA                lea.l      A0, [A4 - 0x36]
000015A6  43EE FFE0                lea.l      A1, [A6 - 0x20]
000015AA  20D9                     move.l     [A0]+, [A1]+
000015AC  20D9                     move.l     [A0]+, [A1]+
label000015AE:
000015AE  206C FE96                movea.l    A0, [A4 - 0x16A]
000015B2  4868 0010                pea.l      [A0 + 0x10]
000015B6  A87B                     syscall    ClipRect
000015B8  2F2E 0008                move.l     -[A7], [A6 + 0x8]
000015BC  4EBA F6EC                jsr        [PC - 0x914 /* 00000CAA */]
000015C0  4CDF 18F0                movem.l    D4,D5,D6,D7,A3,A4, [A7]+
000015C4  4E5E                     unlink     A6
000015C6  205F                     movea.l    A0, [A7]+
000015C8  DEFC 000C                add.w      A7, 0xC
000015CC  4ED0                     jmp        [A0]
fn000015CE:
000015CE  4E56 0000                link       A6, 0
000015D2  486D DC1C                pea.l      [A5 - 0x23E4]
000015D6  42A7                     clr.l      -[A7]
000015D8  2F2E 0008                move.l     -[A7], [A6 + 0x8]
000015DC  4EBA FD0E                jsr        [PC - 0x2F2 /* 000012EC */]
000015E0  4E5E                     unlink     A6
000015E2  2E9F                     move.l     [A7], [A7]+
000015E4  4E75                     rts
fn000015E6:
000015E6  4E56 FFFE                link       A6, -0x0002
000015EA  48E7 0118                movem.l    -[A7], D7,A3,A4
000015EE  286E 0008                movea.l    A4, [A6 + 0x8]
000015F2  102E 000C                move.b     D0, [A6 + 0xC]
000015F6  673C                     beq        +0x3E /* 00001634 */
000015F8  3E2C FFF8                move.w     D7, [A4 - 0x8]
000015FC  47EC FFA2                lea.l      A3, [A4 - 0x5E]
00001600  4267                     clr.w      -[A7]
00001602  3F2C FFF8                move.w     -[A7], [A4 - 0x8]
00001606  302B 0006                move.w     D0, [A3 + 0x6]
0000160A  906B 0002                sub.w      D0, [A3 + 0x2]
0000160E  906C FFF6                sub.w      D0, [A4 - 0xA]
00001612  3F00                     move.w     -[A7], D0
00001614  4EAD 18C2                jsr        [A5 + 0x18C2 /* export_788, CODE:16 @ 000007E6 */]
00001618  395F FFF8                move.w     [A4 - 0x8], [A7]+
0000161C  BE6C FFF8                cmp.w      D7, [A4 - 0x8]
00001620  6712                     beq        +0x14 /* 00001634 */
00001622  4267                     clr.w      -[A7]
00001624  302C FFF8                move.w     D0, [A4 - 0x8]
00001628  48C0                     ext.l      D0
0000162A  2F00                     move.l     -[A7], D0
0000162C  4EBA 3884                jsr        [PC + 0x3884 /* 00004EB2 */]
00001630  395F FD3A                move.w     [A4 - 0x2C6], [A7]+
label00001634:
00001634  47EC FFA2                lea.l      A3, [A4 - 0x5E]
00001638  302C FFF8                move.w     D0, [A4 - 0x8]
0000163C  D06B 0002                add.w      D0, [A3 + 0x2]
00001640  3F00                     move.w     -[A7], D0
00001642  3013                     move.w     D0, [A3]
00001644  5240                     addq.w     D0, 1
00001646  3F00                     move.w     -[A7], D0
00001648  A893                     syscall    MoveTo
0000164A  4267                     clr.w      -[A7]
0000164C  302B 0004                move.w     D0, [A3 + 0x4]
00001650  9053                     sub.w      D0, [A3]
00001652  5740                     subq.w     D0, 3
00001654  3F00                     move.w     -[A7], D0
00001656  A892                     syscall    Line
00001658  4A2C FD53                tst.b      [A4 - 0x2AD]
0000165C  6724                     beq        +0x26 /* 00001682 */
0000165E  47EC FFAA                lea.l      A3, [A4 - 0x56]
00001662  302C FFF8                move.w     D0, [A4 - 0x8]
00001666  D06B 0002                add.w      D0, [A3 + 0x2]
0000166A  3F00                     move.w     -[A7], D0
0000166C  3013                     move.w     D0, [A3]
0000166E  5240                     addq.w     D0, 1
00001670  3F00                     move.w     -[A7], D0
00001672  A893                     syscall    MoveTo
00001674  4267                     clr.w      -[A7]
00001676  302B 0004                move.w     D0, [A3 + 0x4]
0000167A  9053                     sub.w      D0, [A3]
0000167C  5740                     subq.w     D0, 3
0000167E  3F00                     move.w     -[A7], D0
00001680  A892                     syscall    Line
label00001682:
00001682  4CDF 1880                movem.l    D7,A3,A4, [A7]+
00001686  4E5E                     unlink     A6
00001688  205F                     movea.l    A0, [A7]+
0000168A  5C4F                     addq.w     A7, 6
0000168C  4ED0                     jmp        [A0]
fn0000168E:
0000168E  4E56 FFFA                link       A6, -0x0006
00001692  48E7 0718                movem.l    -[A7], D5,D6,D7,A3,A4
00001696  286E 0008                movea.l    A4, [A6 + 0x8]
0000169A  47ED DC04                lea.l      A3, [A5 - 0x23FC]
0000169E  486C FFBA                pea.l      [A4 - 0x46]
000016A2  4267                     clr.w      -[A7]
000016A4  302B 0002                move.w     D0, [A3 + 0x2]
000016A8  48C0                     ext.l      D0
000016AA  2F00                     move.l     -[A7], D0
000016AC  4EBA 28B6                jsr        [PC + 0x28B6 /* 00003F64 */]
000016B0  302D DC36                move.w     D0, [A5 - 0x23CA]
000016B4  D05F                     add.w      D0, [A7]+
000016B6  3F00                     move.w     -[A7], D0
000016B8  4267                     clr.w      -[A7]
000016BA  3013                     move.w     D0, [A3]
000016BC  48C0                     ext.l      D0
000016BE  2F00                     move.l     -[A7], D0
000016C0  4EBA 28D2                jsr        [PC + 0x28D2 /* 00003F94 */]
000016C4  302D DC38                move.w     D0, [A5 - 0x23C8]
000016C8  D05F                     add.w      D0, [A7]+
000016CA  5240                     addq.w     D0, 1
000016CC  3F00                     move.w     -[A7], D0
000016CE  4267                     clr.w      -[A7]
000016D0  302B 0006                move.w     D0, [A3 + 0x6]
000016D4  48C0                     ext.l      D0
000016D6  2F00                     move.l     -[A7], D0
000016D8  4EBA 288A                jsr        [PC + 0x288A /* 00003F64 */]
000016DC  302D DC36                move.w     D0, [A5 - 0x23CA]
000016E0  D05F                     add.w      D0, [A7]+
000016E2  3F00                     move.w     -[A7], D0
000016E4  4267                     clr.w      -[A7]
000016E6  302B 0004                move.w     D0, [A3 + 0x4]
000016EA  48C0                     ext.l      D0
000016EC  2F00                     move.l     -[A7], D0
000016EE  4EBA 28A4                jsr        [PC + 0x28A4 /* 00003F94 */]
000016F2  302D DC38                move.w     D0, [A5 - 0x23C8]
000016F6  D05F                     add.w      D0, [A7]+
000016F8  3F00                     move.w     -[A7], D0
000016FA  A8A7                     syscall    SetRect
000016FC  4267                     clr.w      -[A7]
000016FE  486C FFBA                pea.l      [A4 - 0x46]
00001702  486D DC1C                pea.l      [A5 - 0x23E4]
00001706  486C FFBA                pea.l      [A4 - 0x46]
0000170A  A8AA                     syscall    SectRect
0000170C  1A1F                     move.b     D5, [A7]+
0000170E  3C2C FFFA                move.w     D6, [A4 - 0x6]
00001712  47EC FFBA                lea.l      A3, [A4 - 0x46]
00001716  4267                     clr.w      -[A7]
00001718  3F2C FFFA                move.w     -[A7], [A4 - 0x6]
0000171C  302B 0006                move.w     D0, [A3 + 0x6]
00001720  906B 0002                sub.w      D0, [A3 + 0x2]
00001724  906C FFF6                sub.w      D0, [A4 - 0xA]
00001728  3F00                     move.w     -[A7], D0
0000172A  4EAD 18C2                jsr        [A5 + 0x18C2 /* export_788, CODE:16 @ 000007E6 */]
0000172E  395F FFFA                move.w     [A4 - 0x6], [A7]+
00001732  BC6C FFFA                cmp.w      D6, [A4 - 0x6]
00001736  6718                     beq        +0x1A /* 00001750 */
00001738  4267                     clr.w      -[A7]
0000173A  302C FFFA                move.w     D0, [A4 - 0x6]
0000173E  48C0                     ext.l      D0
00001740  2F00                     move.l     -[A7], D0
00001742  4EBA 376E                jsr        [PC + 0x376E /* 00004EB2 */]
00001746  395F FD38                move.w     [A4 - 0x2C8], [A7]+
0000174A  197C 0001 FFF0           move.b     [A4 - 0x10], 0x1
label00001750:
00001750  102C FD4E                move.b     D0, [A4 - 0x2B2]
00001754  672C                     beq        +0x2E /* 00001782 */
00001756  4267                     clr.w      -[A7]
00001758  302D DC04                move.w     D0, [A5 - 0x23FC]
0000175C  D07C 0016                add.w      D0, 0x16
00001760  48C0                     ext.l      D0
00001762  2F00                     move.l     -[A7], D0
00001764  4EBA 282E                jsr        [PC + 0x282E /* 00003F94 */]
00001768  3E2D DC38                move.w     D7, [A5 - 0x23C8]
0000176C  DE5F                     add.w      D7, [A7]+
0000176E  41EC FFB2                lea.l      A0, [A4 - 0x4E]
00001772  43EC FFBA                lea.l      A1, [A4 - 0x46]
00001776  20D9                     move.l     [A0]+, [A1]+
00001778  20D9                     move.l     [A0]+, [A1]+
0000177A  3947 FFB6                move.w     [A4 - 0x4A], D7
0000177E  3947 FFBA                move.w     [A4 - 0x46], D7
label00001782:
00001782  4CDF 18E0                movem.l    D5,D6,D7,A3,A4, [A7]+
00001786  4E5E                     unlink     A6
00001788  2E9F                     move.l     [A7], [A7]+
0000178A  4E75                     rts
fn0000178C:
0000178C  4E56 FFEC                link       A6, -0x0014
00001790  48E7 0F00                movem.l    -[A7], D4,D5,D6,D7
00001794  206E 000C                movea.l    A0, [A6 + 0xC]
00001798  43EE FFF8                lea.l      A1, [A6 - 0x8]
0000179C  22D8                     move.l     [A1]+, [A0]+
0000179E  22D8                     move.l     [A1]+, [A0]+
000017A0  4267                     clr.w      -[A7]
000017A2  486E FFF8                pea.l      [A6 - 0x8]
000017A6  A8AE                     syscall    EmptyRect
000017A8  101F                     move.b     D0, [A7]+
000017AA  6660                     bne        +0x62 /* 0000180C */
000017AC  4267                     clr.w      -[A7]
000017AE  4EAD 0812                jsr        [A5 + 0x812 /* export_254, CODE:4 @ 00004AD4 */]
000017B2  101F                     move.b     D0, [A7]+
000017B4  6704                     beq        +0x6 /* 000017BA */
000017B6  7E08                     moveq.l    D7, 0x08
000017B8  6002                     bra        +0x4 /* 000017BC */
label000017BA:
000017BA  7E05                     moveq.l    D7, 0x05
label000017BC:
000017BC  302E FFFE                move.w     D0, [A6 - 0x2]
000017C0  906E FFFA                sub.w      D0, [A6 - 0x6]
000017C4  5340                     subq.w     D0, 1
000017C6  3D40 FFF0                move.w     [A6 - 0x10], D0
000017CA  302E FFFC                move.w     D0, [A6 - 0x4]
000017CE  906E FFF8                sub.w      D0, [A6 - 0x8]
000017D2  48C0                     ext.l      D0
000017D4  81C7                     divs.w     D0, D7
000017D6  3C00                     move.w     D6, D0
000017D8  3A06                     move.w     D5, D6
000017DA  DA6E FFF8                add.w      D5, [A6 - 0x8]
000017DE  486E FFF8                pea.l      [A6 - 0x8]
000017E2  A8A1                     syscall    FrameRect
000017E4  3007                     move.w     D0, D7
000017E6  5340                     subq.w     D0, 1
000017E8  3D40 FFEC                move.w     [A6 - 0x14], D0
000017EC  7801                     moveq.l    D4, 0x01
000017EE  6016                     bra        +0x18 /* 00001806 */
label000017F0:
000017F0  3F2E FFFA                move.w     -[A7], [A6 - 0x6]
000017F4  3F05                     move.w     -[A7], D5
000017F6  A893                     syscall    MoveTo
000017F8  3F2E FFF0                move.w     -[A7], [A6 - 0x10]
000017FC  4267                     clr.w      -[A7]
000017FE  A892                     syscall    Line
00001800  DA46                     add.w      D5, D6
00001802  5244                     addq.w     D4, 1
00001804  6906                     bvs        +0x8 /* 0000180C */
label00001806:
00001806  B86E FFEC                cmp.w      D4, [A6 - 0x14]
0000180A  6FE4                     ble        -0x1A /* 000017F0 */
label0000180C:
0000180C  4CDF 00F0                movem.l    D4,D5,D6,D7, [A7]+
00001810  4E5E                     unlink     A6
00001812  205F                     movea.l    A0, [A7]+
00001814  504F                     addq.w     A7, 8
00001816  4ED0                     jmp        [A0]
fn00001818:
00001818  4E56 FFFC                link       A6, -0x0004
0000181C  48E7 0108                movem.l    -[A7], D7,A4
00001820  286E 0008                movea.l    A4, [A6 + 0x8]
00001824  286C 0008                movea.l    A4, [A4 + 0x8]
00001828  4A2C FD53                tst.b      [A4 - 0x2AD]
0000182C  6700 00B6                beq        +0xB8 /* 000018E4 */
00001830  486C FFA2                pea.l      [A4 - 0x5E]
00001834  4267                     clr.w      -[A7]
00001836  302D DC06                move.w     D0, [A5 - 0x23FA]
0000183A  48C0                     ext.l      D0
0000183C  2F00                     move.l     -[A7], D0
0000183E  4EBA 2724                jsr        [PC + 0x2724 /* 00003F64 */]
00001842  302D DC36                move.w     D0, [A5 - 0x23CA]
00001846  D05F                     add.w      D0, [A7]+
00001848  3F00                     move.w     -[A7], D0
0000184A  4267                     clr.w      -[A7]
0000184C  302D DC04                move.w     D0, [A5 - 0x23FC]
00001850  48C0                     ext.l      D0
00001852  2F00                     move.l     -[A7], D0
00001854  4EBA 273E                jsr        [PC + 0x273E /* 00003F94 */]
00001858  302D DC38                move.w     D0, [A5 - 0x23C8]
0000185C  D05F                     add.w      D0, [A7]+
0000185E  5240                     addq.w     D0, 1
00001860  3F00                     move.w     -[A7], D0
00001862  4267                     clr.w      -[A7]
00001864  302D DC0A                move.w     D0, [A5 - 0x23F6]
00001868  D06D DC06                add.w      D0, [A5 - 0x23FA]
0000186C  48C0                     ext.l      D0
0000186E  81FC 0002                divs.w     D0, 0x2
00001872  5140                     subq.w     D0, 8
00001874  48C0                     ext.l      D0
00001876  2F00                     move.l     -[A7], D0
00001878  4EBA 26EA                jsr        [PC + 0x26EA /* 00003F64 */]
0000187C  302D DC36                move.w     D0, [A5 - 0x23CA]
00001880  D05F                     add.w      D0, [A7]+
00001882  3F00                     move.w     -[A7], D0
00001884  4267                     clr.w      -[A7]
00001886  302D DC08                move.w     D0, [A5 - 0x23F8]
0000188A  48C0                     ext.l      D0
0000188C  2F00                     move.l     -[A7], D0
0000188E  4EBA 2704                jsr        [PC + 0x2704 /* 00003F94 */]
00001892  302D DC38                move.w     D0, [A5 - 0x23C8]
00001896  D05F                     add.w      D0, [A7]+
00001898  3F00                     move.w     -[A7], D0
0000189A  A8A7                     syscall    SetRect
0000189C  486C FFAA                pea.l      [A4 - 0x56]
000018A0  4267                     clr.w      -[A7]
000018A2  302D DC0A                move.w     D0, [A5 - 0x23F6]
000018A6  D06D DC06                add.w      D0, [A5 - 0x23FA]
000018AA  48C0                     ext.l      D0
000018AC  81FC 0002                divs.w     D0, 0x2
000018B0  48C0                     ext.l      D0
000018B2  2F00                     move.l     -[A7], D0
000018B4  4EBA 26AE                jsr        [PC + 0x26AE /* 00003F64 */]
000018B8  302D DC36                move.w     D0, [A5 - 0x23CA]
000018BC  D05F                     add.w      D0, [A7]+
000018BE  5240                     addq.w     D0, 1
000018C0  3F00                     move.w     -[A7], D0
000018C2  3F2C FFA2                move.w     -[A7], [A4 - 0x5E]
000018C6  4267                     clr.w      -[A7]
000018C8  302D DC0A                move.w     D0, [A5 - 0x23F6]
000018CC  48C0                     ext.l      D0
000018CE  2F00                     move.l     -[A7], D0
000018D0  4EBA 2692                jsr        [PC + 0x2692 /* 00003F64 */]
000018D4  302D DC36                move.w     D0, [A5 - 0x23CA]
000018D8  D05F                     add.w      D0, [A7]+
000018DA  3F00                     move.w     -[A7], D0
000018DC  3F2C FFA6                move.w     -[A7], [A4 - 0x5A]
000018E0  A8A7                     syscall    SetRect
000018E2  606A                     bra        +0x6C /* 0000194E */
label000018E4:
000018E4  486C FFA2                pea.l      [A4 - 0x5E]
000018E8  4267                     clr.w      -[A7]
000018EA  302D DC06                move.w     D0, [A5 - 0x23FA]
000018EE  48C0                     ext.l      D0
000018F0  2F00                     move.l     -[A7], D0
000018F2  4EBA 2670                jsr        [PC + 0x2670 /* 00003F64 */]
000018F6  302D DC36                move.w     D0, [A5 - 0x23CA]
000018FA  D05F                     add.w      D0, [A7]+
000018FC  3F00                     move.w     -[A7], D0
000018FE  4267                     clr.w      -[A7]
00001900  302D DC04                move.w     D0, [A5 - 0x23FC]
00001904  48C0                     ext.l      D0
00001906  2F00                     move.l     -[A7], D0
00001908  4EBA 268A                jsr        [PC + 0x268A /* 00003F94 */]
0000190C  302D DC38                move.w     D0, [A5 - 0x23C8]
00001910  D05F                     add.w      D0, [A7]+
00001912  5240                     addq.w     D0, 1
00001914  3F00                     move.w     -[A7], D0
00001916  4267                     clr.w      -[A7]
00001918  302D DC0A                move.w     D0, [A5 - 0x23F6]
0000191C  48C0                     ext.l      D0
0000191E  2F00                     move.l     -[A7], D0
00001920  4EBA 2642                jsr        [PC + 0x2642 /* 00003F64 */]
00001924  302D DC36                move.w     D0, [A5 - 0x23CA]
00001928  D05F                     add.w      D0, [A7]+
0000192A  3F00                     move.w     -[A7], D0
0000192C  4267                     clr.w      -[A7]
0000192E  302D DC08                move.w     D0, [A5 - 0x23F8]
00001932  48C0                     ext.l      D0
00001934  2F00                     move.l     -[A7], D0
00001936  4EBA 265C                jsr        [PC + 0x265C /* 00003F94 */]
0000193A  302D DC38                move.w     D0, [A5 - 0x23C8]
0000193E  D05F                     add.w      D0, [A7]+
00001940  3F00                     move.w     -[A7], D0
00001942  A8A7                     syscall    SetRect
00001944  486C FFAA                pea.l      [A4 - 0x56]
00001948  42A7                     clr.l      -[A7]
0000194A  42A7                     clr.l      -[A7]
0000194C  A8A7                     syscall    SetRect
label0000194E:
0000194E  4267                     clr.w      -[A7]
00001950  486C FFA2                pea.l      [A4 - 0x5E]
00001954  486D DC1C                pea.l      [A5 - 0x23E4]
00001958  486C FFA2                pea.l      [A4 - 0x5E]
0000195C  A8AA                     syscall    SectRect
0000195E  1E1F                     move.b     D7, [A7]+
00001960  4267                     clr.w      -[A7]
00001962  486C FFAA                pea.l      [A4 - 0x56]
00001966  486D DC1C                pea.l      [A5 - 0x23E4]
0000196A  486C FFAA                pea.l      [A4 - 0x56]
0000196E  A8AA                     syscall    SectRect
00001970  1E1F                     move.b     D7, [A7]+
00001972  486D FE90                pea.l      [A5 - 0x170]
00001976  A89D                     syscall    PenPat
00001978  486D DC1C                pea.l      [A5 - 0x23E4]
0000197C  A8A3                     syscall    EraseRect
0000197E  486C FD56                pea.l      [A4 - 0x2AA]
00001982  4EBA E882                jsr        [PC - 0x177E /* 00000206 */]
00001986  486C FFA2                pea.l      [A4 - 0x5E]
0000198A  2F0E                     move.l     -[A7], A6
0000198C  4EBA FDFE                jsr        [PC - 0x202 /* 0000178C */]
00001990  486C FFAA                pea.l      [A4 - 0x56]
00001994  2F0E                     move.l     -[A7], A6
00001996  4EBA FDF4                jsr        [PC - 0x20C /* 0000178C */]
0000199A  102C FD4E                move.b     D0, [A4 - 0x2B2]
0000199E  6720                     beq        +0x22 /* 000019C0 */
000019A0  3F3C 000A                move.w     -[A7], 0xA /* '\n' */
000019A4  A89C                     syscall    PenMode
000019A6  486C FF9A                pea.l      [A4 - 0x66]
000019AA  A89D                     syscall    PenPat
000019AC  1F3C 0001                move.b     -[A7], 0x1
000019B0  206E 0008                movea.l    A0, [A6 + 0x8]
000019B4  2F28 0008                move.l     -[A7], [A0 + 0x8]
000019B8  4EBA FC2C                jsr        [PC - 0x3D4 /* 000015E6 */]
000019BC  A89E                     syscall    PenNormal
000019BE  6006                     bra        +0x8 /* 000019C6 */
label000019C0:
000019C0  486D FE98                pea.l      [A5 - 0x168]
000019C4  A89D                     syscall    PenPat
label000019C6:
000019C6  4CDF 1080                movem.l    D7,A4, [A7]+
000019CA  4E5E                     unlink     A6
000019CC  2E9F                     move.l     [A7], [A7]+
000019CE  4E75                     rts
fn000019D0:
000019D0  4E56 0000                link       A6, 0
000019D4  48E7 0018                movem.l    -[A7], A3,A4
000019D8  286E 0008                movea.l    A4, [A6 + 0x8]
000019DC  286C 0008                movea.l    A4, [A4 + 0x8]
000019E0  206E 0008                movea.l    A0, [A6 + 0x8]
000019E4  2F28 0008                move.l     -[A7], [A0 + 0x8]
000019E8  4EBA FCA4                jsr        [PC - 0x35C /* 0000168E */]
000019EC  102C FFF0                move.b     D0, [A4 - 0x10]
000019F0  670C                     beq        +0xE /* 000019FE */
000019F2  206E 0008                movea.l    A0, [A6 + 0x8]
000019F6  2F28 0008                move.l     -[A7], [A0 + 0x8]
000019FA  4EBA F3A2                jsr        [PC - 0xC5E /* 00000D9E */]
label000019FE:
000019FE  486D DC1C                pea.l      [A5 - 0x23E4]
00001A02  A8A3                     syscall    EraseRect
00001A04  486C FD56                pea.l      [A4 - 0x2AA]
00001A08  4EBA E7FC                jsr        [PC - 0x1804 /* 00000206 */]
00001A0C  47EC FD36                lea.l      A3, [A4 - 0x2CA]
00001A10  102B 0018                move.b     D0, [A3 + 0x18]
00001A14  670C                     beq        +0xE /* 00001A22 */
00001A16  206E 0008                movea.l    A0, [A6 + 0x8]
00001A1A  2F28 0008                move.l     -[A7], [A0 + 0x8]
00001A1E  4EBA F55C                jsr        [PC - 0xAA4 /* 00000F7C */]
label00001A22:
00001A22  486D FE90                pea.l      [A5 - 0x170]
00001A26  A89D                     syscall    PenPat
00001A28  486C FFBA                pea.l      [A4 - 0x46]
00001A2C  A8A1                     syscall    FrameRect
00001A2E  7002                     moveq.l    D0, 0x02
00001A30  B02B 001B                cmp.b      D0, [A3 + 0x1B]
00001A34  660C                     bne        +0xE /* 00001A42 */
00001A36  206E 0008                movea.l    A0, [A6 + 0x8]
00001A3A  2F28 0008                move.l     -[A7], [A0 + 0x8]
00001A3E  4EBA F678                jsr        [PC - 0x988 /* 000010B8 */]
label00001A42:
00001A42  486D FE98                pea.l      [A5 - 0x168]
00001A46  A89D                     syscall    PenPat
00001A48  4CDF 1800                movem.l    A3,A4, [A7]+
00001A4C  4E5E                     unlink     A6
00001A4E  2E9F                     move.l     [A7], [A7]+
00001A50  4E75                     rts
fn00001A52:
00001A52  4E56 0000                link       A6, 0
00001A56  486D DC1C                pea.l      [A5 - 0x23E4]
00001A5A  A8A3                     syscall    EraseRect
00001A5C  206E 0008                movea.l    A0, [A6 + 0x8]
00001A60  2F28 0008                move.l     -[A7], [A0 + 0x8]
00001A64  4EBA FB68                jsr        [PC - 0x498 /* 000015CE */]
00001A68  4E5E                     unlink     A6
00001A6A  2E9F                     move.l     [A7], [A7]+
00001A6C  4E75                     rts
fn00001A6E:
00001A6E  4E56 FFFC                link       A6, -0x0004
00001A72  2F0C                     move.l     -[A7], A4
00001A74  42A7                     clr.l      -[A7]
00001A76  A8D8                     syscall    NewRgn
00001A78  285F                     movea.l    A4, [A7]+
00001A7A  2F0C                     move.l     -[A7], A4
00001A7C  A87A                     syscall    GetClip
00001A7E  486D DC1C                pea.l      [A5 - 0x23E4]
00001A82  A87B                     syscall    ClipRect
00001A84  1F2E 000C                move.b     -[A7], [A6 + 0xC]
00001A88  2F2E 0008                move.l     -[A7], [A6 + 0x8]
00001A8C  4EBA EE24                jsr        [PC - 0x11DC /* 000008B2 */]
00001A90  486D DC14                pea.l      [A5 - 0x23EC]
00001A94  3F2D DC1E                move.w     -[A7], [A5 - 0x23E2]
00001A98  4267                     clr.w      -[A7]
00001A9A  302D DC0C                move.w     D0, [A5 - 0x23F4]
00001A9E  48C0                     ext.l      D0
00001AA0  2F00                     move.l     -[A7], D0
00001AA2  4EBA 24F0                jsr        [PC + 0x24F0 /* 00003F94 */]
00001AA6  302D DC38                move.w     D0, [A5 - 0x23C8]
00001AAA  D05F                     add.w      D0, [A7]+
00001AAC  5340                     subq.w     D0, 1
00001AAE  3F00                     move.w     -[A7], D0
00001AB0  3F2D DC22                move.w     -[A7], [A5 - 0x23DE]
00001AB4  4267                     clr.w      -[A7]
00001AB6  302D DC0C                move.w     D0, [A5 - 0x23F4]
00001ABA  D07C 0016                add.w      D0, 0x16
00001ABE  48C0                     ext.l      D0
00001AC0  2F00                     move.l     -[A7], D0
00001AC2  4EBA 24D0                jsr        [PC + 0x24D0 /* 00003F94 */]
00001AC6  302D DC38                move.w     D0, [A5 - 0x23C8]
00001ACA  D05F                     add.w      D0, [A7]+
00001ACC  5240                     addq.w     D0, 1
00001ACE  3F00                     move.w     -[A7], D0
00001AD0  A8A7                     syscall    SetRect
00001AD2  206E 0008                movea.l    A0, [A6 + 0x8]
00001AD6  1028 FD52                move.b     D0, [A0 - 0x2AE]
00001ADA  4880                     ext.w      D0
00001ADC  671A                     beq        +0x1C /* 00001AF8 */
00001ADE  5340                     subq.w     D0, 1
00001AE0  6706                     beq        +0x8 /* 00001AE8 */
00001AE2  5340                     subq.w     D0, 1
00001AE4  670A                     beq        +0xC /* 00001AF0 */
00001AE6  6016                     bra        +0x18 /* 00001AFE */
label00001AE8:
00001AE8  2F0E                     move.l     -[A7], A6
00001AEA  4EBA FEE4                jsr        [PC - 0x11C /* 000019D0 */]
00001AEE  600E                     bra        +0x10 /* 00001AFE */
label00001AF0:
00001AF0  2F0E                     move.l     -[A7], A6
00001AF2  4EBA FD24                jsr        [PC - 0x2DC /* 00001818 */]
00001AF6  6006                     bra        +0x8 /* 00001AFE */
label00001AF8:
00001AF8  2F0E                     move.l     -[A7], A6
00001AFA  4EBA FF56                jsr        [PC - 0xAA /* 00001A52 */]
label00001AFE:
00001AFE  2F0C                     move.l     -[A7], A4
00001B00  A879                     syscall    SetClip
00001B02  2F0C                     move.l     -[A7], A4
00001B04  A8D9                     syscall    DisposRgn/DisposeRgn
00001B06  285F                     movea.l    A4, [A7]+
00001B08  4E5E                     unlink     A6
00001B0A  205F                     movea.l    A0, [A7]+
00001B0C  5C4F                     addq.w     A7, 6
00001B0E  4ED0                     jmp        [A0]
fn00001B10:
00001B10  4E56 FFEC                link       A6, -0x0014
00001B14  422E 0010                clr.b      [A6 + 0x10]
00001B18  486E FFEC                pea.l      [A6 - 0x14]
00001B1C  A976                     syscall    GetKeys
00001B1E  7038                     moveq.l    D0, 0x38
00001B20  3200                     move.w     D1, D0
00001B22  E641                     asr        D1.w, 3
00001B24  0136 10EC                btst       [A6 + D1.w - 0x14], D0
00001B28  6746                     beq        +0x48 /* 00001B70 */
label00001B2A:
00001B2A  486E FFFC                pea.l      [A6 - 0x4]
00001B2E  A972                     syscall    GetMouse
00001B30  302E FFFE                move.w     D0, [A6 - 0x2]
00001B34  906E 000E                sub.w      D0, [A6 + 0xE]
00001B38  6A02                     bpl        +0x4 /* 00001B3C */
00001B3A  4440                     neg.w      D0
label00001B3C:
00001B3C  7201                     moveq.l    D1, 0x01
00001B3E  B240                     cmp.w      D1, D0
00001B40  6C08                     bge        +0xA /* 00001B4A */
00001B42  1D7C 0002 0010           move.b     [A6 + 0x10], 0x2
00001B48  6026                     bra        +0x28 /* 00001B70 */
label00001B4A:
00001B4A  302E FFFC                move.w     D0, [A6 - 0x4]
00001B4E  906E 000C                sub.w      D0, [A6 + 0xC]
00001B52  6A02                     bpl        +0x4 /* 00001B56 */
00001B54  4440                     neg.w      D0
label00001B56:
00001B56  7201                     moveq.l    D1, 0x01
00001B58  B240                     cmp.w      D1, D0
00001B5A  6C08                     bge        +0xA /* 00001B64 */
00001B5C  1D7C 0001 0010           move.b     [A6 + 0x10], 0x1
00001B62  600C                     bra        +0xE /* 00001B70 */
label00001B64:
00001B64  4267                     clr.w      -[A7]
00001B66  A974                     syscall    Button
00001B68  101F                     move.b     D0, [A7]+
00001B6A  0A00 0001                xori.b     D0, 0x1
00001B6E  67BA                     beq        -0x44 /* 00001B2A */
label00001B70:
00001B70  4E5E                     unlink     A6
00001B72  205F                     movea.l    A0, [A7]+
00001B74  504F                     addq.w     A7, 8
00001B76  4ED0                     jmp        [A0]
fn00001B78:
00001B78  4E56 FFE2                link       A6, -0x001E
00001B7C  48E7 0318                movem.l    -[A7], D6,D7,A3,A4
00001B80  286E 0008                movea.l    A4, [A6 + 0x8]
00001B84  286C 0008                movea.l    A4, [A4 + 0x8]
00001B88  206E 0008                movea.l    A0, [A6 + 0x8]
00001B8C  2D68 FFFC FFF0           move.l     [A6 - 0x10], [A0 - 0x4]
00001B92  42A7                     clr.l      -[A7]
00001B94  206E 0008                movea.l    A0, [A6 + 0x8]
00001B98  2F28 FFFC                move.l     -[A7], [A0 - 0x4]
00001B9C  2F2C FFC2                move.l     -[A7], [A4 - 0x3E]
00001BA0  A94F                     syscall    DeltaPoint
00001BA2  2D5F FFFC                move.l     [A6 - 0x4], [A7]+
00001BA6  47EC FD36                lea.l      A3, [A4 - 0x2CA]
00001BAA  486E FFE8                pea.l      [A6 - 0x18]
00001BAE  2F2D DC1C                move.l     -[A7], [A5 - 0x23E4]
00001BB2  42A7                     clr.l      -[A7]
00001BB4  3F2B 000C                move.w     -[A7], [A3 + 0xC]
00001BB8  486C FD36                pea.l      [A4 - 0x2CA]
00001BBC  4EAD 062A                jsr        [A5 + 0x62A /* export_193, CODE:4 @ 0000107A */]
00001BC0  301F                     move.w     D0, [A7]+
00001BC2  48C0                     ext.l      D0
00001BC4  2F00                     move.l     -[A7], D0
00001BC6  4EBA 239C                jsr        [PC + 0x239C /* 00003F64 */]
00001BCA  302D DC22                move.w     D0, [A5 - 0x23DE]
00001BCE  905F                     sub.w      D0, [A7]+
00001BD0  3F00                     move.w     -[A7], D0
00001BD2  42A7                     clr.l      -[A7]
00001BD4  3F2B 000A                move.w     -[A7], [A3 + 0xA]
00001BD8  486C FD36                pea.l      [A4 - 0x2CA]
00001BDC  4EAD 062A                jsr        [A5 + 0x62A /* export_193, CODE:4 @ 0000107A */]
00001BE0  301F                     move.w     D0, [A7]+
00001BE2  48C0                     ext.l      D0
00001BE4  2F00                     move.l     -[A7], D0
00001BE6  4EBA 23AC                jsr        [PC + 0x23AC /* 00003F94 */]
00001BEA  302D DC20                move.w     D0, [A5 - 0x23E0]
00001BEE  905F                     sub.w      D0, [A7]+
00001BF0  3F00                     move.w     -[A7], D0
00001BF2  A8A7                     syscall    SetRect
00001BF4  42A7                     clr.l      -[A7]
00001BF6  A975                     syscall    TickCount
00001BF8  2E1F                     move.l     D7, [A7]+
00001BFA  5C87                     addq.l     D7, 6
00001BFC  4267                     clr.w      -[A7]
00001BFE  206E 0008                movea.l    A0, [A6 + 0x8]
00001C02  2F28 FFFC                move.l     -[A7], [A0 - 0x4]
00001C06  2F2E 0008                move.l     -[A7], [A6 + 0x8]
00001C0A  4EBA FF04                jsr        [PC - 0xFC /* 00001B10 */]
00001C0E  1C1F                     move.b     D6, [A7]+
label00001C10:
00001C10  2D6C FFC2 FFF8           move.l     [A6 - 0x8], [A4 - 0x3E]
label00001C16:
00001C16  486E FFF4                pea.l      [A6 - 0xC]
00001C1A  A972                     syscall    GetMouse
00001C1C  1006                     move.b     D0, D6
00001C1E  4880                     ext.w      D0
00001C20  5340                     subq.w     D0, 1
00001C22  6706                     beq        +0x8 /* 00001C2A */
00001C24  5340                     subq.w     D0, 1
00001C26  670A                     beq        +0xC /* 00001C32 */
00001C28  600E                     bra        +0x10 /* 00001C38 */
label00001C2A:
00001C2A  3D6E FFF2 FFF6           move.w     [A6 - 0xA], [A6 - 0xE]
00001C30  6006                     bra        +0x8 /* 00001C38 */
label00001C32:
00001C32  3D6E FFF0 FFF4           move.w     [A6 - 0xC], [A6 - 0x10]
label00001C38:
00001C38  2F2E FFFC                move.l     -[A7], [A6 - 0x4]
00001C3C  486E FFF4                pea.l      [A6 - 0xC]
00001C40  A87F                     syscall    SubPt
00001C42  42A7                     clr.l      -[A7]
00001C44  486E FFE8                pea.l      [A6 - 0x18]
00001C48  2F2E FFF4                move.l     -[A7], [A6 - 0xC]
00001C4C  A94E                     syscall    PinRect
00001C4E  2D5F FFF4                move.l     [A6 - 0xC], [A7]+
00001C52  4267                     clr.w      -[A7]
00001C54  A974                     syscall    Button
00001C56  101F                     move.b     D0, [A7]+
00001C58  6604                     bne        +0x6 /* 00001C5E */
00001C5A  6000 0104                bra        +0x106 /* 00001D60 */
label00001C5E:
00001C5E  4267                     clr.w      -[A7]
00001C60  2F2E FFF4                move.l     -[A7], [A6 - 0xC]
00001C64  2F2E FFF8                move.l     -[A7], [A6 - 0x8]
00001C68  A881                     syscall    EqualPt
00001C6A  101F                     move.b     D0, [A7]+
00001C6C  0A00 0001                xori.b     D0, 0x1
00001C70  2F00                     move.l     -[A7], D0
00001C72  42A7                     clr.l      -[A7]
00001C74  A975                     syscall    TickCount
00001C76  221F                     move.l     D1, [A7]+
00001C78  201F                     move.l     D0, [A7]+
00001C7A  BE81                     cmp.l      D7, D1
00001C7C  5FC1                     sle        D1
00001C7E  C001                     and.b      D0, D1
00001C80  6794                     beq        -0x6A /* 00001C16 */
00001C82  47EC FD36                lea.l      A3, [A4 - 0x2CA]
00001C86  4267                     clr.w      -[A7]
00001C88  486B 0008                pea.l      [A3 + 0x8]
00001C8C  4267                     clr.w      -[A7]
00001C8E  302E FFF6                move.w     D0, [A6 - 0xA]
00001C92  906D DC1E                sub.w      D0, [A5 - 0x23E2]
00001C96  3F00                     move.w     -[A7], D0
00001C98  4EBA 31B4                jsr        [PC + 0x31B4 /* 00004E4E */]
00001C9C  206E 0008                movea.l    A0, [A6 + 0x8]
00001CA0  2F28 0008                move.l     -[A7], [A0 + 0x8]
00001CA4  4EBA EE30                jsr        [PC - 0x11D0 /* 00000AD6 */]
00001CA8  4267                     clr.w      -[A7]
00001CAA  486B 0006                pea.l      [A3 + 0x6]
00001CAE  4267                     clr.w      -[A7]
00001CB0  302E FFF4                move.w     D0, [A6 - 0xC]
00001CB4  906D DC1C                sub.w      D0, [A5 - 0x23E4]
00001CB8  3F00                     move.w     -[A7], D0
00001CBA  4EBA 31C4                jsr        [PC + 0x31C4 /* 00004E80 */]
00001CBE  206E 0008                movea.l    A0, [A6 + 0x8]
00001CC2  2F28 0008                move.l     -[A7], [A0 + 0x8]
00001CC6  4EBA EE0E                jsr        [PC - 0x11F2 /* 00000AD6 */]
00001CCA  101F                     move.b     D0, [A7]+
00001CCC  801F                     or.b       D0, [A7]+
00001CCE  6604                     bne        +0x6 /* 00001CD4 */
00001CD0  6000 FF3E                bra        -0xC0 /* 00001C10 */
label00001CD4:
00001CD4  206E 0008                movea.l    A0, [A6 + 0x8]
00001CD8  2F28 0008                move.l     -[A7], [A0 + 0x8]
00001CDC  4EBA F8F0                jsr        [PC - 0x710 /* 000015CE */]
00001CE0  47EC FD36                lea.l      A3, [A4 - 0x2CA]
00001CE4  4A6C FFE4                tst.w      [A4 - 0x1C]
00001CE8  662A                     bne        +0x2C /* 00001D14 */
00001CEA  42A7                     clr.l      -[A7]
00001CEC  4267                     clr.w      -[A7]
00001CEE  302D DC22                move.w     D0, [A5 - 0x23DE]
00001CF2  906E FFF6                sub.w      D0, [A6 - 0xA]
00001CF6  3F00                     move.w     -[A7], D0
00001CF8  4EBA 3154                jsr        [PC + 0x3154 /* 00004E4E */]
00001CFC  206E 0008                movea.l    A0, [A6 + 0x8]
00001D00  2F28 0008                move.l     -[A7], [A0 + 0x8]
00001D04  4EBA ED90                jsr        [PC - 0x1270 /* 00000A96 */]
00001D08  3F2B 0010                move.w     -[A7], [A3 + 0x10]
00001D0C  4EAD 18C2                jsr        [A5 + 0x18C2 /* export_788, CODE:16 @ 000007E6 */]
00001D10  375F 0010                move.w     [A3 + 0x10], [A7]+
label00001D14:
00001D14  4A6C FFE2                tst.w      [A4 - 0x1E]
00001D18  662A                     bne        +0x2C /* 00001D44 */
00001D1A  42A7                     clr.l      -[A7]
00001D1C  4267                     clr.w      -[A7]
00001D1E  302D DC20                move.w     D0, [A5 - 0x23E0]
00001D22  906E FFF4                sub.w      D0, [A6 - 0xC]
00001D26  3F00                     move.w     -[A7], D0
00001D28  4EBA 3124                jsr        [PC + 0x3124 /* 00004E4E */]
00001D2C  206E 0008                movea.l    A0, [A6 + 0x8]
00001D30  2F28 0008                move.l     -[A7], [A0 + 0x8]
00001D34  4EBA ED60                jsr        [PC - 0x12A0 /* 00000A96 */]
00001D38  3F2B 000E                move.w     -[A7], [A3 + 0xE]
00001D3C  4EAD 18C2                jsr        [A5 + 0x18C2 /* export_788, CODE:16 @ 000007E6 */]
00001D40  375F 000E                move.w     [A3 + 0xE], [A7]+
label00001D44:
00001D44  197C 0001 FFF1           move.b     [A4 - 0xF], 0x1
00001D4A  42A7                     clr.l      -[A7]
00001D4C  A975                     syscall    TickCount
00001D4E  2E1F                     move.l     D7, [A7]+
00001D50  5C87                     addq.l     D7, 6
00001D52  4267                     clr.w      -[A7]
00001D54  A974                     syscall    Button
00001D56  101F                     move.b     D0, [A7]+
00001D58  0A00 0001                xori.b     D0, 0x1
00001D5C  6700 FEB2                beq        -0x14C /* 00001C10 */
label00001D60:
00001D60  4CDF 18C0                movem.l    D6,D7,A3,A4, [A7]+
00001D64  4E5E                     unlink     A6
00001D66  2E9F                     move.l     [A7], [A7]+
00001D68  4E75                     rts
fn00001D6A:
00001D6A  4E56 FFDC                link       A6, -0x0024
00001D6E  48E7 0F18                movem.l    -[A7], D4,D5,D6,D7,A3,A4
00001D72  286E 0008                movea.l    A4, [A6 + 0x8]
00001D76  286C 0008                movea.l    A4, [A4 + 0x8]
00001D7A  3D6C FD44 FFE4           move.w     [A6 - 0x1C], [A4 - 0x2BC]
00001D80  3D6C FD46 FFE2           move.w     [A6 - 0x1E], [A4 - 0x2BA]
00001D86  2D6C FFC6 FFDE           move.l     [A6 - 0x22], [A4 - 0x3A]
00001D8C  42A7                     clr.l      -[A7]
00001D8E  2F2C FFC6                move.l     -[A7], [A4 - 0x3A]
00001D92  206E 0008                movea.l    A0, [A6 + 0x8]
00001D96  2F28 FFFC                move.l     -[A7], [A0 - 0x4]
00001D9A  A94F                     syscall    DeltaPoint
00001D9C  2D5F FFFC                move.l     [A6 - 0x4], [A7]+
00001DA0  302C FFC8                move.w     D0, [A4 - 0x38]
00001DA4  5940                     subq.w     D0, 4
00001DA6  206E 0008                movea.l    A0, [A6 + 0x8]
00001DAA  B068 FFFE                cmp.w      D0, [A0 - 0x2]
00001DAE  5FC6                     sle        D6
00001DB0  4406                     neg.b      D6
00001DB2  302C FFC6                move.w     D0, [A4 - 0x3A]
00001DB6  5940                     subq.w     D0, 4
00001DB8  206E 0008                movea.l    A0, [A6 + 0x8]
00001DBC  B068 FFFC                cmp.w      D0, [A0 - 0x4]
00001DC0  5FC5                     sle        D5
00001DC2  4405                     neg.b      D5
00001DC4  486E FFEC                pea.l      [A6 - 0x14]
00001DC8  302C FFC4                move.w     D0, [A4 - 0x3C]
00001DCC  D07C 000A                add.w      D0, 0xA /* '\n' */
00001DD0  3F00                     move.w     -[A7], D0
00001DD2  302C FFC2                move.w     D0, [A4 - 0x3E]
00001DD6  D07C 000A                add.w      D0, 0xA /* '\n' */
00001DDA  3F00                     move.w     -[A7], D0
00001DDC  2F2D DC20                move.l     -[A7], [A5 - 0x23E0]
00001DE0  A8A7                     syscall    SetRect
00001DE2  2006                     move.l     D0, D6
00001DE4  C005                     and.b      D0, D5
00001DE6  6732                     beq        +0x34 /* 00001E1A */
00001DE8  4267                     clr.w      -[A7]
00001DEA  206E 0008                movea.l    A0, [A6 + 0x8]
00001DEE  2F28 FFFC                move.l     -[A7], [A0 - 0x4]
00001DF2  2F2E 0008                move.l     -[A7], [A6 + 0x8]
00001DF6  4EBA FD18                jsr        [PC - 0x2E8 /* 00001B10 */]
00001DFA  181F                     move.b     D4, [A7]+
00001DFC  7001                     moveq.l    D0, 0x01
00001DFE  B004                     cmp.b      D0, D4
00001E00  56C6                     sne        D6
00001E02  4406                     neg.b      D6
00001E04  7002                     moveq.l    D0, 0x02
00001E06  B004                     cmp.b      D0, D4
00001E08  56C5                     sne        D5
00001E0A  4405                     neg.b      D5
00001E0C  4A04                     tst.b      D4
00001E0E  670A                     beq        +0xC /* 00001E1A */
00001E10  42A7                     clr.l      -[A7]
00001E12  A975                     syscall    TickCount
00001E14  2D5F FFE8                move.l     [A6 - 0x18], [A7]+
00001E18  600C                     bra        +0xE /* 00001E26 */
label00001E1A:
00001E1A  42A7                     clr.l      -[A7]
00001E1C  A975                     syscall    TickCount
00001E1E  201F                     move.l     D0, [A7]+
00001E20  5C80                     addq.l     D0, 6
00001E22  2D40 FFE8                move.l     [A6 - 0x18], D0
label00001E26:
00001E26  2D6C FFC6 FFF8           move.l     [A6 - 0x8], [A4 - 0x3A]
label00001E2C:
00001E2C  486E FFF4                pea.l      [A6 - 0xC]
00001E30  A972                     syscall    GetMouse
00001E32  2F2E FFFC                move.l     -[A7], [A6 - 0x4]
00001E36  486E FFF4                pea.l      [A6 - 0xC]
00001E3A  A87E                     syscall    AddPt
00001E3C  1006                     move.b     D0, D6
00001E3E  6606                     bne        +0x8 /* 00001E46 */
00001E40  3D6E FFE0 FFF6           move.w     [A6 - 0xA], [A6 - 0x20]
label00001E46:
00001E46  1005                     move.b     D0, D5
00001E48  6606                     bne        +0x8 /* 00001E50 */
00001E4A  3D6E FFDE FFF4           move.w     [A6 - 0xC], [A6 - 0x22]
label00001E50:
00001E50  42A7                     clr.l      -[A7]
00001E52  486E FFEC                pea.l      [A6 - 0x14]
00001E56  2F2E FFF4                move.l     -[A7], [A6 - 0xC]
00001E5A  A94E                     syscall    PinRect
00001E5C  2D5F FFF4                move.l     [A6 - 0xC], [A7]+
00001E60  4267                     clr.w      -[A7]
00001E62  A974                     syscall    Button
00001E64  101F                     move.b     D0, [A7]+
00001E66  6604                     bne        +0x6 /* 00001E6C */
00001E68  6000 00CE                bra        +0xD0 /* 00001F38 */
label00001E6C:
00001E6C  202E FFF4                move.l     D0, [A6 - 0xC]
00001E70  B0AE FFF8                cmp.l      D0, [A6 - 0x8]
00001E74  56C0                     sne        D0
00001E76  2F00                     move.l     -[A7], D0
00001E78  42A7                     clr.l      -[A7]
00001E7A  A975                     syscall    TickCount
00001E7C  221F                     move.l     D1, [A7]+
00001E7E  201F                     move.l     D0, [A7]+
00001E80  B2AE FFE8                cmp.l      D1, [A6 - 0x18]
00001E84  5CC1                     sge        D1
00001E86  C001                     and.b      D0, D1
00001E88  67A2                     beq        -0x5C /* 00001E2C */
00001E8A  4207                     clr.b      D7
00001E8C  47EC FD36                lea.l      A3, [A4 - 0x2CA]
00001E90  302E FFF6                move.w     D0, [A6 - 0xA]
00001E94  B06E FFFA                cmp.w      D0, [A6 - 0x6]
00001E98  6724                     beq        +0x26 /* 00001EBE */
00001E9A  4267                     clr.w      -[A7]
00001E9C  486B 000C                pea.l      [A3 + 0xC]
00001EA0  4267                     clr.w      -[A7]
00001EA2  302E FFF6                move.w     D0, [A6 - 0xA]
00001EA6  906C FFC4                sub.w      D0, [A4 - 0x3C]
00001EAA  3F00                     move.w     -[A7], D0
00001EAC  4EBA 2FA0                jsr        [PC + 0x2FA0 /* 00004E4E */]
00001EB0  206E 0008                movea.l    A0, [A6 + 0x8]
00001EB4  2F28 0008                move.l     -[A7], [A0 + 0x8]
00001EB8  4EBA EC1C                jsr        [PC - 0x13E4 /* 00000AD6 */]
00001EBC  1E1F                     move.b     D7, [A7]+
label00001EBE:
00001EBE  302E FFF4                move.w     D0, [A6 - 0xC]
00001EC2  B06E FFF8                cmp.w      D0, [A6 - 0x8]
00001EC6  6724                     beq        +0x26 /* 00001EEC */
00001EC8  4267                     clr.w      -[A7]
00001ECA  486B 000A                pea.l      [A3 + 0xA]
00001ECE  4267                     clr.w      -[A7]
00001ED0  302E FFF4                move.w     D0, [A6 - 0xC]
00001ED4  906C FFC2                sub.w      D0, [A4 - 0x3E]
00001ED8  3F00                     move.w     -[A7], D0
00001EDA  4EBA 2FA4                jsr        [PC + 0x2FA4 /* 00004E80 */]
00001EDE  206E 0008                movea.l    A0, [A6 + 0x8]
00001EE2  2F28 0008                move.l     -[A7], [A0 + 0x8]
00001EE6  4EBA EBEE                jsr        [PC - 0x1412 /* 00000AD6 */]
00001EEA  8E1F                     or.b       D7, [A7]+
label00001EEC:
00001EEC  1007                     move.b     D0, D7
00001EEE  6604                     bne        +0x6 /* 00001EF4 */
00001EF0  6000 FF34                bra        -0xCA /* 00001E26 */
label00001EF4:
00001EF4  4267                     clr.w      -[A7]
00001EF6  3F2B 000C                move.w     -[A7], [A3 + 0xC]
00001EFA  3F2E FFE2                move.w     -[A7], [A6 - 0x1E]
00001EFE  4EAD 18BA                jsr        [A5 + 0x18BA /* export_787, CODE:16 @ 000007C6 */]
00001F02  375F 0010                move.w     [A3 + 0x10], [A7]+
00001F06  4267                     clr.w      -[A7]
00001F08  3F2B 000A                move.w     -[A7], [A3 + 0xA]
00001F0C  3F2E FFE4                move.w     -[A7], [A6 - 0x1C]
00001F10  4EAD 18BA                jsr        [A5 + 0x18BA /* export_787, CODE:16 @ 000007C6 */]
00001F14  375F 000E                move.w     [A3 + 0xE], [A7]+
00001F18  206E 0008                movea.l    A0, [A6 + 0x8]
00001F1C  2F28 0008                move.l     -[A7], [A0 + 0x8]
00001F20  4EBA F6AC                jsr        [PC - 0x954 /* 000015CE */]
00001F24  197C 0001 FFF1           move.b     [A4 - 0xF], 0x1
00001F2A  4267                     clr.w      -[A7]
00001F2C  A974                     syscall    Button
00001F2E  101F                     move.b     D0, [A7]+
00001F30  0A00 0001                xori.b     D0, 0x1
00001F34  6700 FEE4                beq        -0x11A /* 00001E1A */
label00001F38:
00001F38  4CDF 18F0                movem.l    D4,D5,D6,D7,A3,A4, [A7]+
00001F3C  4E5E                     unlink     A6
00001F3E  2E9F                     move.l     [A7], [A7]+
00001F40  4E75                     rts
fn00001F42:
00001F42  4E56 FFCA                link       A6, -0x0036
00001F46  48E7 0F18                movem.l    -[A7], D4,D5,D6,D7,A3,A4
00001F4A  286E 0008                movea.l    A4, [A6 + 0x8]
00001F4E  286C 0008                movea.l    A4, [A4 + 0x8]
00001F52  206E 0008                movea.l    A0, [A6 + 0x8]
00001F56  2D68 FFFC FFE8           move.l     [A6 - 0x18], [A0 - 0x4]
00001F5C  3A2C FFE4                move.w     D5, [A4 - 0x1C]
00001F60  3C2C FFE2                move.w     D6, [A4 - 0x1E]
00001F64  206D DBFC                movea.l    A0, [A5 - 0x2404]
00001F68  2050                     movea.l    A0, [A0]
00001F6A  47E8 0010                lea.l      A3, [A0 + 0x10]
00001F6E  4267                     clr.w      -[A7]
00001F70  4EAD 081A                jsr        [A5 + 0x81A /* export_255, CODE:4 @ 00004AF6 */]
00001F74  4267                     clr.w      -[A7]
00001F76  4EAD 0812                jsr        [A5 + 0x812 /* export_254, CODE:4 @ 00004AD4 */]
00001F7A  101F                     move.b     D0, [A7]+
00001F7C  0A00 0001                xori.b     D0, 0x1
00001F80  C01F                     and.b      D0, [A7]+
00001F82  670C                     beq        +0xE /* 00001F90 */
00001F84  3D6B 0004 FFCC           move.w     [A6 - 0x34], [A3 + 0x4]
00001F8A  382B 0006                move.w     D4, [A3 + 0x6]
00001F8E  600A                     bra        +0xC /* 00001F9A */
label00001F90:
00001F90  3D6B 0006 FFCC           move.w     [A6 - 0x34], [A3 + 0x6]
00001F96  382B 0004                move.w     D4, [A3 + 0x4]
label00001F9A:
00001F9A  47EC FD36                lea.l      A3, [A4 - 0x2CA]
00001F9E  42A7                     clr.l      -[A7]
00001FA0  3F2B 000C                move.w     -[A7], [A3 + 0xC]
00001FA4  486C FD36                pea.l      [A4 - 0x2CA]
00001FA8  4EAD 062A                jsr        [A5 + 0x62A /* export_193, CODE:4 @ 0000107A */]
00001FAC  301F                     move.w     D0, [A7]+
00001FAE  48C0                     ext.l      D0
00001FB0  2F00                     move.l     -[A7], D0
00001FB2  4EBA 1FB0                jsr        [PC + 0x1FB0 /* 00003F64 */]
00001FB6  301F                     move.w     D0, [A7]+
00001FB8  5240                     addq.w     D0, 1
00001FBA  3D40 FFD2                move.w     [A6 - 0x2E], D0
00001FBE  42A7                     clr.l      -[A7]
00001FC0  3F2B 000A                move.w     -[A7], [A3 + 0xA]
00001FC4  486C FD36                pea.l      [A4 - 0x2CA]
00001FC8  4EAD 062A                jsr        [A5 + 0x62A /* export_193, CODE:4 @ 0000107A */]
00001FCC  301F                     move.w     D0, [A7]+
00001FCE  48C0                     ext.l      D0
00001FD0  2F00                     move.l     -[A7], D0
00001FD2  4EBA 1FC0                jsr        [PC + 0x1FC0 /* 00003F94 */]
00001FD6  301F                     move.w     D0, [A7]+
00001FD8  5240                     addq.w     D0, 1
00001FDA  3D40 FFD4                move.w     [A6 - 0x2C], D0
00001FDE  422E FFD7                clr.b      [A6 - 0x29]
00001FE2  41EE FFD8                lea.l      A0, [A6 - 0x28]
00001FE6  43ED DC1C                lea.l      A1, [A5 - 0x23E4]
00001FEA  20D9                     move.l     [A0]+, [A1]+
00001FEC  20D9                     move.l     [A0]+, [A1]+
00001FEE  42A7                     clr.l      -[A7]
00001FF0  206E 0008                movea.l    A0, [A6 + 0x8]
00001FF4  2F28 FFFC                move.l     -[A7], [A0 - 0x4]
00001FF8  2F2C FFCA                move.l     -[A7], [A4 - 0x36]
00001FFC  A94F                     syscall    DeltaPoint
00001FFE  2D5F FFFC                move.l     [A6 - 0x4], [A7]+
00002002  47EC FD36                lea.l      A3, [A4 - 0x2CA]
00002006  42A7                     clr.l      -[A7]
00002008  3005                     move.w     D0, D5
0000200A  C1EB 000C                muls.w     D0, [A3 + 0xC]
0000200E  D06B 0008                add.w      D0, [A3 + 0x8]
00002012  3F00                     move.w     -[A7], D0
00002014  486C FD36                pea.l      [A4 - 0x2CA]
00002018  4EAD 062A                jsr        [A5 + 0x62A /* export_193, CODE:4 @ 0000107A */]
0000201C  301F                     move.w     D0, [A7]+
0000201E  48C0                     ext.l      D0
00002020  2F00                     move.l     -[A7], D0
00002022  4EBA 1F40                jsr        [PC + 0x1F40 /* 00003F64 */]
00002026  301F                     move.w     D0, [A7]+
00002028  D06D DC1E                add.w      D0, [A5 - 0x23E2]
0000202C  3D40 FFF2                move.w     [A6 - 0xE], D0
00002030  42A7                     clr.l      -[A7]
00002032  3006                     move.w     D0, D6
00002034  C1EB 000A                muls.w     D0, [A3 + 0xA]
00002038  D06B 0006                add.w      D0, [A3 + 0x6]
0000203C  3F00                     move.w     -[A7], D0
0000203E  486C FD36                pea.l      [A4 - 0x2CA]
00002042  4EAD 062A                jsr        [A5 + 0x62A /* export_193, CODE:4 @ 0000107A */]
00002046  301F                     move.w     D0, [A7]+
00002048  48C0                     ext.l      D0
0000204A  2F00                     move.l     -[A7], D0
0000204C  4EBA 1F46                jsr        [PC + 0x1F46 /* 00003F94 */]
00002050  301F                     move.w     D0, [A7]+
00002052  D06D DC1C                add.w      D0, [A5 - 0x23E4]
00002056  3D40 FFF0                move.w     [A6 - 0x10], D0
0000205A  2D6D DC20 FFEC           move.l     [A6 - 0x14], [A5 - 0x23E0]
00002060  2D6C FFCA FFF4           move.l     [A6 - 0xC], [A4 - 0x36]
00002066  42A7                     clr.l      -[A7]
00002068  A975                     syscall    TickCount
0000206A  201F                     move.l     D0, [A7]+
0000206C  5C80                     addq.l     D0, 6
0000206E  2D40 FFE4                move.l     [A6 - 0x1C], D0
00002072  4A6C FFE2                tst.w      [A4 - 0x1E]
00002076  6608                     bne        +0xA /* 00002080 */
00002078  1D7C 0002 FFD1           move.b     [A6 - 0x2F], 0x2
0000207E  6024                     bra        +0x26 /* 000020A4 */
label00002080:
00002080  4A6C FFE4                tst.w      [A4 - 0x1C]
00002084  6608                     bne        +0xA /* 0000208E */
00002086  1D7C 0001 FFD1           move.b     [A6 - 0x2F], 0x1
0000208C  6016                     bra        +0x18 /* 000020A4 */
label0000208E:
0000208E  4267                     clr.w      -[A7]
00002090  206E 0008                movea.l    A0, [A6 + 0x8]
00002094  2F28 FFFC                move.l     -[A7], [A0 - 0x4]
00002098  2F2E 0008                move.l     -[A7], [A6 + 0x8]
0000209C  4EBA FA72                jsr        [PC - 0x58E /* 00001B10 */]
000020A0  1D5F FFD1                move.b     [A6 - 0x2F], [A7]+
label000020A4:
000020A4  2D6E FFF4 FFF8           move.l     [A6 - 0x8], [A6 - 0xC]
label000020AA:
000020AA  486E FFF4                pea.l      [A6 - 0xC]
000020AE  A972                     syscall    GetMouse
000020B0  102E FFD1                move.b     D0, [A6 - 0x2F]
000020B4  4880                     ext.w      D0
000020B6  5340                     subq.w     D0, 1
000020B8  6706                     beq        +0x8 /* 000020C0 */
000020BA  5340                     subq.w     D0, 1
000020BC  670A                     beq        +0xC /* 000020C8 */
000020BE  600E                     bra        +0x10 /* 000020CE */
label000020C0:
000020C0  3D6E FFEA FFF6           move.w     [A6 - 0xA], [A6 - 0x16]
000020C6  6006                     bra        +0x8 /* 000020CE */
label000020C8:
000020C8  3D6E FFE8 FFF4           move.w     [A6 - 0xC], [A6 - 0x18]
label000020CE:
000020CE  2F2E FFFC                move.l     -[A7], [A6 - 0x4]
000020D2  486E FFF4                pea.l      [A6 - 0xC]
000020D6  A87F                     syscall    SubPt
000020D8  4267                     clr.w      -[A7]
000020DA  3F2E FFF2                move.w     -[A7], [A6 - 0xE]
000020DE  3F2E FFF6                move.w     -[A7], [A6 - 0xA]
000020E2  4EAD 18BA                jsr        [A5 + 0x18BA /* export_787, CODE:16 @ 000007C6 */]
000020E6  3D5F FFF6                move.w     [A6 - 0xA], [A7]+
000020EA  4267                     clr.w      -[A7]
000020EC  3F2E FFF0                move.w     -[A7], [A6 - 0x10]
000020F0  3F2E FFF4                move.w     -[A7], [A6 - 0xC]
000020F4  4EAD 18BA                jsr        [A5 + 0x18BA /* export_787, CODE:16 @ 000007C6 */]
000020F8  3D5F FFF4                move.w     [A6 - 0xC], [A7]+
000020FC  4267                     clr.w      -[A7]
000020FE  A974                     syscall    Button
00002100  101F                     move.b     D0, [A7]+
00002102  6604                     bne        +0x6 /* 00002108 */
00002104  6000 01B4                bra        +0x1B6 /* 000022BA */
label00002108:
00002108  4267                     clr.w      -[A7]
0000210A  2F2E FFF4                move.l     -[A7], [A6 - 0xC]
0000210E  2F2E FFF8                move.l     -[A7], [A6 - 0x8]
00002112  A881                     syscall    EqualPt
00002114  101F                     move.b     D0, [A7]+
00002116  0A00 0001                xori.b     D0, 0x1
0000211A  2F00                     move.l     -[A7], D0
0000211C  42A7                     clr.l      -[A7]
0000211E  A975                     syscall    TickCount
00002120  221F                     move.l     D1, [A7]+
00002122  201F                     move.l     D0, [A7]+
00002124  B2AE FFE4                cmp.l      D1, [A6 - 0x1C]
00002128  5CC1                     sge        D1
0000212A  C001                     and.b      D0, D1
0000212C  6700 FF7C                beq        -0x82 /* 000020AA */
00002130  47EC FD36                lea.l      A3, [A4 - 0x2CA]
00002134  4A45                     tst.w      D5
00002136  6758                     beq        +0x5A /* 00002190 */
00002138  42A7                     clr.l      -[A7]
0000213A  4267                     clr.w      -[A7]
0000213C  302D DC22                move.w     D0, [A5 - 0x23DE]
00002140  906C FFC4                sub.w      D0, [A4 - 0x3C]
00002144  48C0                     ext.l      D0
00002146  2F00                     move.l     -[A7], D0
00002148  4EBA 2D68                jsr        [PC + 0x2D68 /* 00004EB2 */]
0000214C  206E 0008                movea.l    A0, [A6 + 0x8]
00002150  2F28 0008                move.l     -[A7], [A0 + 0x8]
00002154  4EBA E940                jsr        [PC - 0x16C0 /* 00000A96 */]
00002158  42A7                     clr.l      -[A7]
0000215A  4267                     clr.w      -[A7]
0000215C  302E FFF6                move.w     D0, [A6 - 0xA]
00002160  906C FFC4                sub.w      D0, [A4 - 0x3C]
00002164  48C0                     ext.l      D0
00002166  2F00                     move.l     -[A7], D0
00002168  4EBA 2D48                jsr        [PC + 0x2D48 /* 00004EB2 */]
0000216C  301F                     move.w     D0, [A7]+
0000216E  48C0                     ext.l      D0
00002170  81C5                     divs.w     D0, D5
00002172  3F00                     move.w     -[A7], D0
00002174  206E 0008                movea.l    A0, [A6 + 0x8]
00002178  2F28 0008                move.l     -[A7], [A0 + 0x8]
0000217C  4EBA E918                jsr        [PC - 0x16E8 /* 00000A96 */]
00002180  3F2B 000C                move.w     -[A7], [A3 + 0xC]
00002184  4EAD 18BA                jsr        [A5 + 0x18BA /* export_787, CODE:16 @ 000007C6 */]
00002188  4EAD 18C2                jsr        [A5 + 0x18C2 /* export_788, CODE:16 @ 000007E6 */]
0000218C  375F 0010                move.w     [A3 + 0x10], [A7]+
label00002190:
00002190  4A46                     tst.w      D6
00002192  6758                     beq        +0x5A /* 000021EC */
00002194  42A7                     clr.l      -[A7]
00002196  4267                     clr.w      -[A7]
00002198  302D DC20                move.w     D0, [A5 - 0x23E0]
0000219C  906C FFC2                sub.w      D0, [A4 - 0x3E]
000021A0  48C0                     ext.l      D0
000021A2  2F00                     move.l     -[A7], D0
000021A4  4EBA 2D3C                jsr        [PC + 0x2D3C /* 00004EE2 */]
000021A8  206E 0008                movea.l    A0, [A6 + 0x8]
000021AC  2F28 0008                move.l     -[A7], [A0 + 0x8]
000021B0  4EBA E8E4                jsr        [PC - 0x171C /* 00000A96 */]
000021B4  42A7                     clr.l      -[A7]
000021B6  4267                     clr.w      -[A7]
000021B8  302E FFF4                move.w     D0, [A6 - 0xC]
000021BC  906C FFC2                sub.w      D0, [A4 - 0x3E]
000021C0  48C0                     ext.l      D0
000021C2  2F00                     move.l     -[A7], D0
000021C4  4EBA 2D1C                jsr        [PC + 0x2D1C /* 00004EE2 */]
000021C8  301F                     move.w     D0, [A7]+
000021CA  48C0                     ext.l      D0
000021CC  81C6                     divs.w     D0, D6
000021CE  3F00                     move.w     -[A7], D0
000021D0  206E 0008                movea.l    A0, [A6 + 0x8]
000021D4  2F28 0008                move.l     -[A7], [A0 + 0x8]
000021D8  4EBA E8BC                jsr        [PC - 0x1744 /* 00000A96 */]
000021DC  3F2B 000A                move.w     -[A7], [A3 + 0xA]
000021E0  4EAD 18BA                jsr        [A5 + 0x18BA /* export_787, CODE:16 @ 000007C6 */]
000021E4  4EAD 18C2                jsr        [A5 + 0x18C2 /* export_788, CODE:16 @ 000007E6 */]
000021E8  375F 000E                move.w     [A3 + 0xE], [A7]+
label000021EC:
000021EC  4267                     clr.w      -[A7]
000021EE  302E FFF6                move.w     D0, [A6 - 0xA]
000021F2  5240                     addq.w     D0, 1
000021F4  906D DC36                sub.w      D0, [A5 - 0x23CA]
000021F8  48C0                     ext.l      D0
000021FA  2F00                     move.l     -[A7], D0
000021FC  4EBA 2CB4                jsr        [PC + 0x2CB4 /* 00004EB2 */]
00002200  3E1F                     move.w     D7, [A7]+
00002202  4267                     clr.w      -[A7]
00002204  3F2C FD42                move.w     -[A7], [A4 - 0x2BE]
00002208  486C FD36                pea.l      [A4 - 0x2CA]
0000220C  4EAD 062A                jsr        [A5 + 0x62A /* export_193, CODE:4 @ 0000107A */]
00002210  302E FFCC                move.w     D0, [A6 - 0x34]
00002214  905F                     sub.w      D0, [A7]+
00002216  B047                     cmp.w      D0, D7
00002218  5FC0                     sle        D0
0000221A  BE6E FFCC                cmp.w      D7, [A6 - 0x34]
0000221E  5DC1                     slt        D1
00002220  C001                     and.b      D0, D1
00002222  670E                     beq        +0x10 /* 00002232 */
00002224  302E FFD2                move.w     D0, [A6 - 0x2E]
00002228  D06D DC22                add.w      D0, [A5 - 0x23DE]
0000222C  3D40 FFDE                move.w     [A6 - 0x22], D0
00002230  6006                     bra        +0x8 /* 00002238 */
label00002232:
00002232  3D6D DC22 FFDE           move.w     [A6 - 0x22], [A5 - 0x23DE]
label00002238:
00002238  4267                     clr.w      -[A7]
0000223A  302E FFF4                move.w     D0, [A6 - 0xC]
0000223E  5240                     addq.w     D0, 1
00002240  906D DC38                sub.w      D0, [A5 - 0x23C8]
00002244  48C0                     ext.l      D0
00002246  2F00                     move.l     -[A7], D0
00002248  4EBA 2C98                jsr        [PC + 0x2C98 /* 00004EE2 */]
0000224C  3E1F                     move.w     D7, [A7]+
0000224E  4267                     clr.w      -[A7]
00002250  3F2C FD40                move.w     -[A7], [A4 - 0x2C0]
00002254  486C FD36                pea.l      [A4 - 0x2CA]
00002258  4EAD 062A                jsr        [A5 + 0x62A /* export_193, CODE:4 @ 0000107A */]
0000225C  3004                     move.w     D0, D4
0000225E  905F                     sub.w      D0, [A7]+
00002260  B047                     cmp.w      D0, D7
00002262  5FC0                     sle        D0
00002264  B847                     cmp.w      D4, D7
00002266  5EC1                     sgt        D1
00002268  C001                     and.b      D0, D1
0000226A  670E                     beq        +0x10 /* 0000227A */
0000226C  302E FFD4                move.w     D0, [A6 - 0x2C]
00002270  D06D DC20                add.w      D0, [A5 - 0x23E0]
00002274  3D40 FFDC                move.w     [A6 - 0x24], D0
00002278  6006                     bra        +0x8 /* 00002280 */
label0000227A:
0000227A  3D6D DC20 FFDC           move.w     [A6 - 0x24], [A5 - 0x23E0]
label00002280:
00002280  486E FFD8                pea.l      [A6 - 0x28]
00002284  3F05                     move.w     -[A7], D5
00002286  3F06                     move.w     -[A7], D6
00002288  206E 0008                movea.l    A0, [A6 + 0x8]
0000228C  2F28 0008                move.l     -[A7], [A0 + 0x8]
00002290  4EBA F05A                jsr        [PC - 0xFA6 /* 000012EC */]
00002294  197C 0001 FFF1           move.b     [A4 - 0xF], 0x1
0000229A  1D7C 0001 FFD7           move.b     [A6 - 0x29], 0x1
000022A0  42A7                     clr.l      -[A7]
000022A2  A975                     syscall    TickCount
000022A4  201F                     move.l     D0, [A7]+
000022A6  5C80                     addq.l     D0, 6
000022A8  2D40 FFE4                move.l     [A6 - 0x1C], D0
000022AC  4267                     clr.w      -[A7]
000022AE  A974                     syscall    Button
000022B0  101F                     move.b     D0, [A7]+
000022B2  0A00 0001                xori.b     D0, 0x1
000022B6  6700 FDEC                beq        -0x212 /* 000020A4 */
label000022BA:
000022BA  102E FFD7                move.b     D0, [A6 - 0x29]
000022BE  670C                     beq        +0xE /* 000022CC */
000022C0  206E 0008                movea.l    A0, [A6 + 0x8]
000022C4  2F28 0008                move.l     -[A7], [A0 + 0x8]
000022C8  4EBA F304                jsr        [PC - 0xCFC /* 000015CE */]
label000022CC:
000022CC  4CDF 18F0                movem.l    D4,D5,D6,D7,A3,A4, [A7]+
000022D0  4E5E                     unlink     A6
000022D2  2E9F                     move.l     [A7], [A7]+
000022D4  4E75                     rts
fn000022D6:
000022D6  4E56 FFE6                link       A6, -0x001A
000022DA  48E7 0F18                movem.l    -[A7], D4,D5,D6,D7,A3,A4
000022DE  286E 0008                movea.l    A4, [A6 + 0x8]
000022E2  286C 0008                movea.l    A4, [A4 + 0x8]
000022E6  422E 000C                clr.b      [A6 + 0xC]
000022EA  422E FFF1                clr.b      [A6 - 0xF]
000022EE  206E 0008                movea.l    A0, [A6 + 0x8]
000022F2  3828 FFFE                move.w     D4, [A0 - 0x2]
000022F6  5544                     subq.w     D4, 2
000022F8  206E 0008                movea.l    A0, [A6 + 0x8]
000022FC  3028 FFFE                move.w     D0, [A0 - 0x2]
00002300  5440                     addq.w     D0, 2
00002302  3D40 FFFA                move.w     [A6 - 0x6], D0
00002306  4246                     clr.w      D6
00002308  102C FD4D                move.b     D0, [A4 - 0x2B3]
0000230C  6704                     beq        +0x6 /* 00002312 */
0000230E  7A01                     moveq.l    D5, 0x01
00002310  6002                     bra        +0x4 /* 00002314 */
label00002312:
00002312  7A02                     moveq.l    D5, 0x02
label00002314:
00002314  47EC FA32                lea.l      A3, [A4 - 0x5CE]
label00002318:
00002318  BA53                     cmp.w      D5, [A3]
0000231A  6E28                     bgt        +0x2A /* 00002344 */
0000231C  3005                     move.w     D0, D5
0000231E  C1FC 0006                muls.w     D0, 0x6
00002322  B873 0002                cmp.w      D4, [A3 + D0.w + 0x2]
00002326  5FC0                     sle        D0
00002328  3205                     move.w     D1, D5
0000232A  C3FC 0006                muls.w     D1, 0x6
0000232E  3433 1002                move.w     D2, [A3 + D1.w + 0x2]
00002332  B46E FFFA                cmp.w      D2, [A6 - 0x6]
00002336  5FC1                     sle        D1
00002338  C001                     and.b      D0, D1
0000233A  6704                     beq        +0x6 /* 00002340 */
0000233C  3C05                     move.w     D6, D5
0000233E  6004                     bra        +0x6 /* 00002344 */
label00002340:
00002340  5245                     addq.w     D5, 1
00002342  60D4                     bra        -0x2A /* 00002318 */
label00002344:
00002344  4A46                     tst.w      D6
00002346  6604                     bne        +0x6 /* 0000234C */
00002348  6000 017A                bra        +0x17C /* 000024C4 */
label0000234C:
0000234C  7001                     moveq.l    D0, 0x01
0000234E  B046                     cmp.w      D0, D6
00002350  660A                     bne        +0xC /* 0000235C */
00002352  382C FFF6                move.w     D4, [A4 - 0xA]
00002356  D86C FFBC                add.w      D4, [A4 - 0x44]
0000235A  6010                     bra        +0x12 /* 0000236C */
label0000235C:
0000235C  3006                     move.w     D0, D6
0000235E  5340                     subq.w     D0, 1
00002360  C1FC 0006                muls.w     D0, 0x6
00002364  382C FFF6                move.w     D4, [A4 - 0xA]
00002368  D873 0002                add.w      D4, [A3 + D0.w + 0x2]
label0000236C:
0000236C  BC53                     cmp.w      D6, [A3]
0000236E  660E                     bne        +0x10 /* 0000237E */
00002370  302C FFC0                move.w     D0, [A4 - 0x40]
00002374  906C FFF6                sub.w      D0, [A4 - 0xA]
00002378  3D40 FFFA                move.w     [A6 - 0x6], D0
0000237C  6014                     bra        +0x16 /* 00002392 */
label0000237E:
0000237E  3006                     move.w     D0, D6
00002380  5240                     addq.w     D0, 1
00002382  C1FC 0006                muls.w     D0, 0x6
00002386  3233 0002                move.w     D1, [A3 + D0.w + 0x2]
0000238A  926C FFF6                sub.w      D1, [A4 - 0xA]
0000238E  3D41 FFFA                move.w     [A6 - 0x6], D1
label00002392:
00002392  41EC FFBA                lea.l      A0, [A4 - 0x46]
00002396  2D48 FFE6                move.l     [A6 - 0x1A], A0
0000239A  226E FFE6                movea.l    A1, [A6 - 0x1A]
0000239E  3028 0004                move.w     D0, [A0 + 0x4]
000023A2  9051                     sub.w      D0, [A1]
000023A4  5740                     subq.w     D0, 3
000023A6  3D40 FFEA                move.w     [A6 - 0x16], D0
000023AA  3F3C 000A                move.w     -[A7], 0xA /* '\n' */
000023AE  A89C                     syscall    PenMode
000023B0  486C FF9A                pea.l      [A4 - 0x66]
000023B4  A89D                     syscall    PenPat
000023B6  3005                     move.w     D0, D5
000023B8  C1FC 0006                muls.w     D0, 0x6
000023BC  3E33 0002                move.w     D7, [A3 + D0.w + 0x2]
000023C0  3007                     move.w     D0, D7
000023C2  206E 0008                movea.l    A0, [A6 + 0x8]
000023C6  9068 FFFE                sub.w      D0, [A0 - 0x2]
000023CA  3D40 FFF2                move.w     [A6 - 0xE], D0
label000023CE:
000023CE  42A7                     clr.l      -[A7]
000023D0  A975                     syscall    TickCount
000023D2  201F                     move.l     D0, [A7]+
000023D4  5480                     addq.l     D0, 2
000023D6  2D40 FFEC                move.l     [A6 - 0x14], D0
000023DA  3D47 FFF4                move.w     [A6 - 0xC], D7
label000023DE:
000023DE  206E 0008                movea.l    A0, [A6 + 0x8]
000023E2  4868 FFFC                pea.l      [A0 - 0x4]
000023E6  A972                     syscall    GetMouse
000023E8  3E2E FFF2                move.w     D7, [A6 - 0xE]
000023EC  206E 0008                movea.l    A0, [A6 + 0x8]
000023F0  DE68 FFFE                add.w      D7, [A0 - 0x2]
000023F4  B847                     cmp.w      D4, D7
000023F6  6F02                     ble        +0x4 /* 000023FA */
000023F8  3E04                     move.w     D7, D4
label000023FA:
000023FA  BE6E FFFA                cmp.w      D7, [A6 - 0x6]
000023FE  6F04                     ble        +0x6 /* 00002404 */
00002400  3E2E FFFA                move.w     D7, [A6 - 0x6]
label00002404:
00002404  42A7                     clr.l      -[A7]
00002406  A975                     syscall    TickCount
00002408  201F                     move.l     D0, [A7]+
0000240A  B0AE FFEC                cmp.l      D0, [A6 - 0x14]
0000240E  5CC0                     sge        D0
00002410  BE6E FFF4                cmp.w      D7, [A6 - 0xC]
00002414  56C1                     sne        D1
00002416  C001                     and.b      D0, D1
00002418  2F00                     move.l     -[A7], D0
0000241A  4267                     clr.w      -[A7]
0000241C  A974                     syscall    Button
0000241E  121F                     move.b     D1, [A7]+
00002420  201F                     move.l     D0, [A7]+
00002422  0A01 0001                xori.b     D1, 0x1
00002426  8001                     or.b       D0, D1
00002428  0240 0001                andi.w     D0, 0x1
0000242C  67B0                     beq        -0x4E /* 000023DE */
0000242E  3F2E FFF4                move.w     -[A7], [A6 - 0xC]
00002432  302C FFBA                move.w     D0, [A4 - 0x46]
00002436  5240                     addq.w     D0, 1
00002438  3F00                     move.w     -[A7], D0
0000243A  A893                     syscall    MoveTo
0000243C  4267                     clr.w      -[A7]
0000243E  3F2E FFEA                move.w     -[A7], [A6 - 0x16]
00002442  A892                     syscall    Line
00002444  3F07                     move.w     -[A7], D7
00002446  302C FFBA                move.w     D0, [A4 - 0x46]
0000244A  5240                     addq.w     D0, 1
0000244C  3F00                     move.w     -[A7], D0
0000244E  A893                     syscall    MoveTo
00002450  4267                     clr.w      -[A7]
00002452  3F2E FFEA                move.w     -[A7], [A6 - 0x16]
00002456  A892                     syscall    Line
00002458  1D7C 0001 FFF1           move.b     [A6 - 0xF], 0x1
0000245E  4267                     clr.w      -[A7]
00002460  A974                     syscall    Button
00002462  101F                     move.b     D0, [A7]+
00002464  0A00 0001                xori.b     D0, 0x1
00002468  6700 FF64                beq        -0x9A /* 000023CE */
0000246C  102E FFF1                move.b     D0, [A6 - 0xF]
00002470  6750                     beq        +0x52 /* 000024C2 */
00002472  3006                     move.w     D0, D6
00002474  C1FC 0006                muls.w     D0, 0x6
00002478  3787 0002                move.w     [A3 + D0.w + 0x2], D7
0000247C  7001                     moveq.l    D0, 0x01
0000247E  B046                     cmp.w      D0, D6
00002480  661C                     bne        +0x1E /* 0000249E */
00002482  3007                     move.w     D0, D7
00002484  906C FFBC                sub.w      D0, [A4 - 0x44]
00002488  3940 FFFA                move.w     [A4 - 0x6], D0
0000248C  4267                     clr.w      -[A7]
0000248E  302C FFFA                move.w     D0, [A4 - 0x6]
00002492  48C0                     ext.l      D0
00002494  2F00                     move.l     -[A7], D0
00002496  4EBA 2A1A                jsr        [PC + 0x2A1A /* 00004EB2 */]
0000249A  395F FD38                move.w     [A4 - 0x2C8], [A7]+
label0000249E:
0000249E  102C FD4E                move.b     D0, [A4 - 0x2B2]
000024A2  6712                     beq        +0x14 /* 000024B6 */
000024A4  486C FFB2                pea.l      [A4 - 0x4E]
000024A8  A8A3                     syscall    EraseRect
000024AA  206E 0008                movea.l    A0, [A6 + 0x8]
000024AE  2F28 0008                move.l     -[A7], [A0 + 0x8]
000024B2  4EBA EAC8                jsr        [PC - 0x1538 /* 00000F7C */]
label000024B6:
000024B6  197C 0001 FFEF           move.b     [A4 - 0x11], 0x1
000024BC  1D7C 0001 000C           move.b     [A6 + 0xC], 0x1
label000024C2:
000024C2  A89E                     syscall    PenNormal
label000024C4:
000024C4  4CDF 18F0                movem.l    D4,D5,D6,D7,A3,A4, [A7]+
000024C8  4E5E                     unlink     A6
000024CA  2E9F                     move.l     [A7], [A7]+
000024CC  4E75                     rts
fn000024CE:
000024CE  4E56 FFF2                link       A6, -0x000E
000024D2  48E7 0F18                movem.l    -[A7], D4,D5,D6,D7,A3,A4
000024D6  286E 0008                movea.l    A4, [A6 + 0x8]
000024DA  286C 0008                movea.l    A4, [A4 + 0x8]
000024DE  422E 0010                clr.b      [A6 + 0x10]
000024E2  102C FD4E                move.b     D0, [A4 - 0x2B2]
000024E6  6604                     bne        +0x6 /* 000024EC */
000024E8  6000 0154                bra        +0x156 /* 0000263E */
label000024EC:
000024EC  47EC FFA2                lea.l      A3, [A4 - 0x5E]
000024F0  302E 000C                move.w     D0, [A6 + 0xC]
000024F4  B053                     cmp.w      D0, [A3]
000024F6  5FC0                     sle        D0
000024F8  322E 000C                move.w     D1, [A6 + 0xC]
000024FC  B26B 0004                cmp.w      D1, [A3 + 0x4]
00002500  5CC1                     sge        D1
00002502  8001                     or.b       D0, D1
00002504  6704                     beq        +0x6 /* 0000250A */
00002506  6000 0136                bra        +0x138 /* 0000263E */
label0000250A:
0000250A  3A2E 000E                move.w     D5, [A6 + 0xE]
0000250E  5545                     subq.w     D5, 2
00002510  3C2E 000E                move.w     D6, [A6 + 0xE]
00002514  5446                     addq.w     D6, 2
00002516  3E2C FFF8                move.w     D7, [A4 - 0x8]
0000251A  DE6C FFA4                add.w      D7, [A4 - 0x5C]
0000251E  BA47                     cmp.w      D5, D7
00002520  5FC0                     sle        D0
00002522  BC47                     cmp.w      D6, D7
00002524  5CC1                     sge        D1
00002526  C001                     and.b      D0, D1
00002528  671C                     beq        +0x1E /* 00002546 */
0000252A  3807                     move.w     D4, D7
0000252C  986E 000E                sub.w      D4, [A6 + 0xE]
00002530  47EC FFA2                lea.l      A3, [A4 - 0x5E]
00002534  3A2C FFF6                move.w     D5, [A4 - 0xA]
00002538  DA6B 0002                add.w      D5, [A3 + 0x2]
0000253C  3C2B 0006                move.w     D6, [A3 + 0x6]
00002540  9C6C FFF6                sub.w      D6, [A4 - 0xA]
00002544  603C                     bra        +0x3E /* 00002582 */
label00002546:
00002546  3E2C FFF8                move.w     D7, [A4 - 0x8]
0000254A  DE6C FFAC                add.w      D7, [A4 - 0x54]
0000254E  4A2C FD53                tst.b      [A4 - 0x2AD]
00002552  56C0                     sne        D0
00002554  BA47                     cmp.w      D5, D7
00002556  5FC1                     sle        D1
00002558  C001                     and.b      D0, D1
0000255A  BC47                     cmp.w      D6, D7
0000255C  5CC1                     sge        D1
0000255E  C001                     and.b      D0, D1
00002560  671C                     beq        +0x1E /* 0000257E */
00002562  3807                     move.w     D4, D7
00002564  986E 000E                sub.w      D4, [A6 + 0xE]
00002568  47EC FFAA                lea.l      A3, [A4 - 0x56]
0000256C  3A2C FFF6                move.w     D5, [A4 - 0xA]
00002570  DA6B 0002                add.w      D5, [A3 + 0x2]
00002574  3C2B 0006                move.w     D6, [A3 + 0x6]
00002578  9C6C FFF6                sub.w      D6, [A4 - 0xA]
0000257C  6004                     bra        +0x6 /* 00002582 */
label0000257E:
0000257E  6000 00BE                bra        +0xC0 /* 0000263E */
label00002582:
00002582  1D7C 0001 0010           move.b     [A6 + 0x10], 0x1
00002588  486C FF9A                pea.l      [A4 - 0x66]
0000258C  A89D                     syscall    PenPat
0000258E  3F3C 000A                move.w     -[A7], 0xA /* '\n' */
00002592  A89C                     syscall    PenMode
label00002594:
00002594  4267                     clr.w      -[A7]
00002596  A974                     syscall    Button
00002598  101F                     move.b     D0, [A7]+
0000259A  6700 00A2                beq        +0xA4 /* 0000263E */
0000259E  42A7                     clr.l      -[A7]
000025A0  A975                     syscall    TickCount
000025A2  201F                     move.l     D0, [A7]+
000025A4  5480                     addq.l     D0, 2
000025A6  2D40 FFF2                move.l     [A6 - 0xE], D0
label000025AA:
000025AA  486E 000C                pea.l      [A6 + 0xC]
000025AE  A972                     syscall    GetMouse
000025B0  3004                     move.w     D0, D4
000025B2  D06E 000E                add.w      D0, [A6 + 0xE]
000025B6  3D40 FFF6                move.w     [A6 - 0xA], D0
000025BA  4267                     clr.w      -[A7]
000025BC  3F2E FFF6                move.w     -[A7], [A6 - 0xA]
000025C0  3F05                     move.w     -[A7], D5
000025C2  4EAD 18BA                jsr        [A5 + 0x18BA /* export_787, CODE:16 @ 000007C6 */]
000025C6  3D5F 000E                move.w     [A6 + 0xE], [A7]+
000025CA  4267                     clr.w      -[A7]
000025CC  3F2E 000E                move.w     -[A7], [A6 + 0xE]
000025D0  3F06                     move.w     -[A7], D6
000025D2  4EAD 18C2                jsr        [A5 + 0x18C2 /* export_788, CODE:16 @ 000007E6 */]
000025D6  3D5F 000E                move.w     [A6 + 0xE], [A7]+
000025DA  4267                     clr.w      -[A7]
000025DC  A974                     syscall    Button
000025DE  101F                     move.b     D0, [A7]+
000025E0  6602                     bne        +0x4 /* 000025E4 */
000025E2  605A                     bra        +0x5C /* 0000263E */
label000025E4:
000025E4  BE6E 000E                cmp.w      D7, [A6 + 0xE]
000025E8  56C0                     sne        D0
000025EA  2F00                     move.l     -[A7], D0
000025EC  42A7                     clr.l      -[A7]
000025EE  A975                     syscall    TickCount
000025F0  221F                     move.l     D1, [A7]+
000025F2  201F                     move.l     D0, [A7]+
000025F4  B2AE FFF2                cmp.l      D1, [A6 - 0xE]
000025F8  5CC1                     sge        D1
000025FA  C001                     and.b      D0, D1
000025FC  67AC                     beq        -0x52 /* 000025AA */
000025FE  4267                     clr.w      -[A7]
00002600  206E 0008                movea.l    A0, [A6 + 0x8]
00002604  2F28 0008                move.l     -[A7], [A0 + 0x8]
00002608  4EBA EFDC                jsr        [PC - 0x1024 /* 000015E6 */]
0000260C  3007                     move.w     D0, D7
0000260E  906E 000E                sub.w      D0, [A6 + 0xE]
00002612  916C FFF8                sub.w      [A4 - 0x8], D0
00002616  4267                     clr.w      -[A7]
00002618  206E 0008                movea.l    A0, [A6 + 0x8]
0000261C  2F28 0008                move.l     -[A7], [A0 + 0x8]
00002620  4EBA EFC4                jsr        [PC - 0x103C /* 000015E6 */]
00002624  3E2E 000E                move.w     D7, [A6 + 0xE]
00002628  4267                     clr.w      -[A7]
0000262A  302C FFF8                move.w     D0, [A4 - 0x8]
0000262E  48C0                     ext.l      D0
00002630  2F00                     move.l     -[A7], D0
00002632  4EBA 287E                jsr        [PC + 0x287E /* 00004EB2 */]
00002636  395F FD3A                move.w     [A4 - 0x2C6], [A7]+
0000263A  6000 FF58                bra        -0xA6 /* 00002594 */
label0000263E:
0000263E  4CDF 18F0                movem.l    D4,D5,D6,D7,A3,A4, [A7]+
00002642  4E5E                     unlink     A6
00002644  205F                     movea.l    A0, [A7]+
00002646  504F                     addq.w     A7, 8
00002648  4ED0                     jmp        [A0]
fn0000264A:
0000264A  4E56 FFF4                link       A6, -0x000C
0000264E  48E7 0018                movem.l    -[A7], A3,A4
00002652  266E 0008                movea.l    A3, [A6 + 0x8]
00002656  486E FFFC                pea.l      [A6 - 0x4]
0000265A  A972                     syscall    GetMouse
0000265C  102B FD52                move.b     D0, [A3 - 0x2AE]
00002660  4880                     ext.w      D0
00002662  673C                     beq        +0x3E /* 000026A0 */
00002664  5340                     subq.w     D0, 1
00002666  6708                     beq        +0xA /* 00002670 */
00002668  5340                     subq.w     D0, 1
0000266A  6722                     beq        +0x24 /* 0000268E */
0000266C  6000 009E                bra        +0xA0 /* 0000270C */
label00002670:
00002670  4267                     clr.w      -[A7]
00002672  2F2E FFFC                move.l     -[A7], [A6 - 0x4]
00002676  486B FFBA                pea.l      [A3 - 0x46]
0000267A  A8AD                     syscall    PtInRect
0000267C  101F                     move.b     D0, [A7]+
0000267E  670C                     beq        +0xE /* 0000268C */
00002680  4267                     clr.w      -[A7]
00002682  2F0E                     move.l     -[A7], A6
00002684  4EBA FC50                jsr        [PC - 0x3B0 /* 000022D6 */]
00002688  1D5F 000C                move.b     [A6 + 0xC], [A7]+
label0000268C:
0000268C  607E                     bra        +0x80 /* 0000270C */
label0000268E:
0000268E  4267                     clr.w      -[A7]
00002690  2F2E FFFC                move.l     -[A7], [A6 - 0x4]
00002694  2F0E                     move.l     -[A7], A6
00002696  4EBA FE36                jsr        [PC - 0x1CA /* 000024CE */]
0000269A  1D5F 000C                move.b     [A6 + 0xC], [A7]+
0000269E  606C                     bra        +0x6E /* 0000270C */
label000026A0:
000026A0  4267                     clr.w      -[A7]
000026A2  2F2E FFFC                move.l     -[A7], [A6 - 0x4]
000026A6  486B FFC2                pea.l      [A3 - 0x3E]
000026AA  A8AD                     syscall    PtInRect
000026AC  101F                     move.b     D0, [A7]+
000026AE  6740                     beq        +0x42 /* 000026F0 */
000026B0  49EB FFC2                lea.l      A4, [A3 - 0x3E]
000026B4  486E FFF4                pea.l      [A6 - 0xC]
000026B8  3F2C 0002                move.w     -[A7], [A4 + 0x2]
000026BC  3F14                     move.w     -[A7], [A4]
000026BE  302C 0006                move.w     D0, [A4 + 0x6]
000026C2  5940                     subq.w     D0, 4
000026C4  3F00                     move.w     -[A7], D0
000026C6  302C 0004                move.w     D0, [A4 + 0x4]
000026CA  5940                     subq.w     D0, 4
000026CC  3F00                     move.w     -[A7], D0
000026CE  A8A7                     syscall    SetRect
000026D0  4267                     clr.w      -[A7]
000026D2  2F2E FFFC                move.l     -[A7], [A6 - 0x4]
000026D6  486E FFF4                pea.l      [A6 - 0xC]
000026DA  A8AD                     syscall    PtInRect
000026DC  101F                     move.b     D0, [A7]+
000026DE  6708                     beq        +0xA /* 000026E8 */
000026E0  2F0E                     move.l     -[A7], A6
000026E2  4EBA F494                jsr        [PC - 0xB6C /* 00001B78 */]
000026E6  601E                     bra        +0x20 /* 00002706 */
label000026E8:
000026E8  2F0E                     move.l     -[A7], A6
000026EA  4EBA F67E                jsr        [PC - 0x982 /* 00001D6A */]
000026EE  6016                     bra        +0x18 /* 00002706 */
label000026F0:
000026F0  4267                     clr.w      -[A7]
000026F2  2F2E FFFC                move.l     -[A7], [A6 - 0x4]
000026F6  486B FFCA                pea.l      [A3 - 0x36]
000026FA  A8AD                     syscall    PtInRect
000026FC  101F                     move.b     D0, [A7]+
000026FE  6706                     beq        +0x8 /* 00002706 */
00002700  2F0E                     move.l     -[A7], A6
00002702  4EBA F83E                jsr        [PC - 0x7C2 /* 00001F42 */]
label00002706:
00002706  1D7C 0001 000C           move.b     [A6 + 0xC], 0x1
label0000270C:
0000270C  4CDF 1800                movem.l    A3,A4, [A7]+
00002710  4E5E                     unlink     A6
00002712  2E9F                     move.l     [A7], [A7]+
00002714  4E75                     rts
fn00002716:
00002716  4E56 FDEA                link       A6, -0x0216
0000271A  48E7 0108                movem.l    -[A7], D7,A4
0000271E  286E 000C                movea.l    A4, [A6 + 0xC]
00002722  4267                     clr.w      -[A7]
00002724  2F2D F622                move.l     -[A7], [A5 - 0x9DE]
00002728  3F2E 0010                move.w     -[A7], [A6 + 0x10]
0000272C  3F3C 0002                move.w     -[A7], 0x2
00002730  4EAD 1DBA                jsr        [A5 + 0x1DBA /* export_947, CODE:18 @ 00000D64 */]
00002734  3E1F                     move.w     D7, [A7]+
00002736  486E FDFE                pea.l      [A6 - 0x202]
0000273A  2F2D F622                move.l     -[A7], [A5 - 0x9DE]
0000273E  3F07                     move.w     -[A7], D7
00002740  4EAD 1DC2                jsr        [A5 + 0x1DC2 /* export_948, CODE:18 @ 00000E24 */]
00002744  205F                     movea.l    A0, [A7]+
00002746  224C                     movea.l    A1, A4
00002748  703F                     moveq.l    D0, 0x3F
label0000274A:
0000274A  22D8                     move.l     [A1]+, [A0]+
0000274C  51C8 FFFC                dbf        D0, -0x6 /* 0000274A */
00002750  4240                     clr.w      D0
00002752  1014                     move.b     D0, [A4]
00002754  4A40                     tst.w      D0
00002756  6636                     bne        +0x38 /* 0000278E */
00002758  486E FDFE                pea.l      [A6 - 0x202]
0000275C  3F3C 0004                move.w     -[A7], 0x4
00002760  4EAD 070A                jsr        [A5 + 0x70A /* export_221, CODE:4 @ 00002328 */]
00002764  486E FDEA                pea.l      [A6 - 0x216]
00002768  302E 0010                move.w     D0, [A6 + 0x10]
0000276C  48C0                     ext.l      D0
0000276E  2F00                     move.l     -[A7], D0
00002770  4EAD 1902                jsr        [A5 + 0x1902 /* export_796, CODE:16 @ 000009D4 */]
00002774  486E FEFE                pea.l      [A6 - 0x102]
00002778  3F3C 0002                move.w     -[A7], 0x2
0000277C  4EAD 050A                jsr        [A5 + 0x50A /* export_157, CODE:1 @ 0000531E */]
00002780  41EE FEFE                lea.l      A0, [A6 - 0x102]
00002784  224C                     movea.l    A1, A4
00002786  703F                     moveq.l    D0, 0x3F
label00002788:
00002788  22D8                     move.l     [A1]+, [A0]+
0000278A  51C8 FFFC                dbf        D0, -0x6 /* 00002788 */
label0000278E:
0000278E  4CDF 1080                movem.l    D7,A4, [A7]+
00002792  4E5E                     unlink     A6
00002794  205F                     movea.l    A0, [A7]+
00002796  DEFC 000A                add.w      A7, 0xA /* '\n' */
0000279A  4ED0                     jmp        [A0]
fn0000279C:
0000279C  4E56 FFFC                link       A6, -0x0004
000027A0  48E7 0108                movem.l    -[A7], D7,A4
000027A4  286E 0008                movea.l    A4, [A6 + 0x8]
000027A8  286C 0008                movea.l    A4, [A4 + 0x8]
000027AC  422E 000C                clr.b      [A6 + 0xC]
000027B0  206C 0008                movea.l    A0, [A4 + 0x8]
000027B4  4A50                     tst.w      [A0]
000027B6  6602                     bne        +0x4 /* 000027BA */
000027B8  603C                     bra        +0x3E /* 000027F6 */
label000027BA:
000027BA  206C 0008                movea.l    A0, [A4 + 0x8]
000027BE  3D50 FFFC                move.w     [A6 - 0x4], [A0]
000027C2  7E01                     moveq.l    D7, 0x01
000027C4  6024                     bra        +0x26 /* 000027EA */
label000027C6:
000027C6  4267                     clr.w      -[A7]
000027C8  2F2D F622                move.l     -[A7], [A5 - 0x9DE]
000027CC  206C 0008                movea.l    A0, [A4 + 0x8]
000027D0  3007                     move.w     D0, D7
000027D2  E540                     asl        D0.w, 2
000027D4  3F30 00FE                move.w     -[A7], [A0 + D0.w - 0x2]
000027D8  3F3C 0002                move.w     -[A7], 0x2
000027DC  4EAD 1DBA                jsr        [A5 + 0x1DBA /* export_947, CODE:18 @ 00000D64 */]
000027E0  4A5F                     tst.w      [A7]+
000027E2  6602                     bne        +0x4 /* 000027E6 */
000027E4  6010                     bra        +0x12 /* 000027F6 */
label000027E6:
000027E6  5247                     addq.w     D7, 1
000027E8  6906                     bvs        +0x8 /* 000027F0 */
label000027EA:
000027EA  BE6E FFFC                cmp.w      D7, [A6 - 0x4]
000027EE  6FD6                     ble        -0x28 /* 000027C6 */
label000027F0:
000027F0  1D7C 0001 000C           move.b     [A6 + 0xC], 0x1
label000027F6:
000027F6  4CDF 1080                movem.l    D7,A4, [A7]+
000027FA  4E5E                     unlink     A6
000027FC  2E9F                     move.l     [A7], [A7]+
000027FE  4E75                     rts
fn00002800:
00002800  4E56 FFFC                link       A6, -0x0004
00002804  48E7 0108                movem.l    -[A7], D7,A4
00002808  286E 0008                movea.l    A4, [A6 + 0x8]
0000280C  286C 0008                movea.l    A4, [A4 + 0x8]
00002810  426E 000E                clr.w      [A6 + 0xE]
00002814  206C 0008                movea.l    A0, [A4 + 0x8]
00002818  3D50 FFFC                move.w     [A6 - 0x4], [A0]
0000281C  7E01                     moveq.l    D7, 0x01
0000281E  601C                     bra        +0x1E /* 0000283C */
label00002820:
00002820  206C 0008                movea.l    A0, [A4 + 0x8]
00002824  3007                     move.w     D0, D7
00002826  E540                     asl        D0.w, 2
00002828  3230 00FE                move.w     D1, [A0 + D0.w - 0x2]
0000282C  B26E 000C                cmp.w      D1, [A6 + 0xC]
00002830  6606                     bne        +0x8 /* 00002838 */
00002832  3D47 000E                move.w     [A6 + 0xE], D7
00002836  600A                     bra        +0xC /* 00002842 */
label00002838:
00002838  5247                     addq.w     D7, 1
0000283A  6906                     bvs        +0x8 /* 00002842 */
label0000283C:
0000283C  BE6E FFFC                cmp.w      D7, [A6 - 0x4]
00002840  6FDE                     ble        -0x20 /* 00002820 */
label00002842:
00002842  4CDF 1080                movem.l    D7,A4, [A7]+
00002846  4E5E                     unlink     A6
00002848  205F                     movea.l    A0, [A7]+
0000284A  5C4F                     addq.w     A7, 6
0000284C  4ED0                     jmp        [A0]
fn0000284E:
0000284E  4E56 FEDE                link       A6, -0x0122
00002852  48E7 0F18                movem.l    -[A7], D4,D5,D6,D7,A3,A4
00002856  266E 000C                movea.l    A3, [A6 + 0xC]
0000285A  286E 0008                movea.l    A4, [A6 + 0x8]
0000285E  2F2C FE96                move.l     -[A7], [A4 - 0x16A]
00002862  3F3C 0013                move.w     -[A7], 0x13
00002866  486C FFFE                pea.l      [A4 - 0x2]
0000286A  486C FE8E                pea.l      [A4 - 0x172]
0000286E  486C FFDA                pea.l      [A4 - 0x26]
00002872  A98D                     syscall    GetDialogItem/GetDItem
00002874  302C FFE0                move.w     D0, [A4 - 0x20]
00002878  907C 000F                sub.w      D0, 0xF
0000287C  3940 FFE0                move.w     [A4 - 0x20], D0
00002880  486E FEF2                pea.l      [A6 - 0x10E]
00002884  42A7                     clr.l      -[A7]
00002886  A880                     syscall    SetPt
00002888  486C FFD2                pea.l      [A4 - 0x2E]
0000288C  42A7                     clr.l      -[A7]
0000288E  2F3C 0000 0001           move.l     -[A7], 0x1
00002894  A8A7                     syscall    SetRect
00002896  42A7                     clr.l      -[A7]
00002898  486C FFDA                pea.l      [A4 - 0x26]
0000289C  486C FFD2                pea.l      [A4 - 0x2E]
000028A0  2F2E FEF2                move.l     -[A7], [A6 - 0x10E]
000028A4  4267                     clr.w      -[A7]
000028A6  2F2C FE96                move.l     -[A7], [A4 - 0x16A]
000028AA  42A7                     clr.l      -[A7]
000028AC  4267                     clr.w      -[A7]
000028AE  1F3C 0001                move.b     -[A7], 0x1
000028B2  4EAD 00E2                jsr        [A5 + 0xE2 /* export_24, CODE:1 @ 00003D86 */]
000028B6  269F                     move.l     [A3], [A7]+
000028B8  2053                     movea.l    A0, [A3]
000028BA  2050                     movea.l    A0, [A0]
000028BC  117C 005E 0024           move.b     [A0 + 0x24], 0x5E /* '^' */
000028C2  4267                     clr.w      -[A7]
000028C4  2F2C FE8A                move.l     -[A7], [A4 - 0x176]
000028C8  4EAD 00FA                jsr        [A5 + 0xFA /* export_27, CODE:1 @ 00003D7A */]
000028CC  426E FEF8                clr.w      [A6 - 0x108]
000028D0  42A7                     clr.l      -[A7]
000028D2  2F2D F622                move.l     -[A7], [A5 - 0x9DE]
000028D6  4EAD 1F6A                jsr        [A5 + 0x1F6A /* export_1001, CODE:19 @ 000016EC */]
000028DA  2D5F FFFC                move.l     [A6 - 0x4], [A7]+
000028DE  6604                     bne        +0x6 /* 000028E4 */
000028E0  4246                     clr.w      D6
000028E2  6016                     bra        +0x18 /* 000028FA */
label000028E4:
000028E4  42A7                     clr.l      -[A7]
000028E6  2F2D F622                move.l     -[A7], [A5 - 0x9DE]
000028EA  3F3C 0002                move.w     -[A7], 0x2
000028EE  4EAD 1D32                jsr        [A5 + 0x1D32 /* export_930, CODE:18 @ 0000012E */]
000028F2  4267                     clr.w      -[A7]
000028F4  4EAD 18BA                jsr        [A5 + 0x18BA /* export_787, CODE:16 @ 000007C6 */]
000028F8  3C1F                     move.w     D6, [A7]+
label000028FA:
000028FA  4A46                     tst.w      D6
000028FC  57C0                     seq        D0
000028FE  4400                     neg.b      D0
00002900  1940 FFEE                move.b     [A4 - 0x12], D0
00002904  670E                     beq        +0x10 /* 00002914 */
00002906  197C 0001 FFF3           move.b     [A4 - 0xD], 0x1
0000290C  426C FA32                clr.w      [A4 - 0x5CE]
00002910  6000 01E0                bra        +0x1E2 /* 00002AF2 */
label00002914:
00002914  422C FA34                clr.b      [A4 - 0x5CC]
00002918  41EC FD36                lea.l      A0, [A4 - 0x2CA]
0000291C  2D48 FEE4                move.l     [A6 - 0x11C], A0
00002920  4267                     clr.w      -[A7]
00002922  2F0E                     move.l     -[A7], A6
00002924  4EBA FE76                jsr        [PC - 0x18A /* 0000279C */]
00002928  206E FEE4                movea.l    A0, [A6 - 0x11C]
0000292C  1028 001A                move.b     D0, [A0 + 0x1A]
00002930  C01F                     and.b      D0, [A7]+
00002932  206E FEE4                movea.l    A0, [A6 - 0x11C]
00002936  1228 001B                move.b     D1, [A0 + 0x1B]
0000293A  4881                     ext.w      D1
0000293C  4A41                     tst.w      D1
0000293E  6B18                     bmi        +0x1A /* 00002958 */
00002940  B27C 0007                cmp.w      D1, 0x7
00002944  6E12                     bgt        +0x14 /* 00002958 */
00002946  41FA 01C8                lea.l      A0, [PC + 0x1C8 /* 00002B10, value 0x4E56FFFE */]
0000294A  3401                     move.w     D2, D1
0000294C  E64A                     lsr        D2.w, 3
0000294E  4442                     neg.w      D2
00002950  0330 20FF                btst       [A0 + D2.w - 0x1], D1
00002954  0A3C 0004                xori.b     ccr, 4
label00002958:
00002958  57C1                     seq        D1
0000295A  C001                     and.b      D0, D1
0000295C  1800                     move.b     D4, D0
0000295E  3D46 FEE2                move.w     [A6 - 0x11E], D6
00002962  7E01                     moveq.l    D7, 0x01
00002964  6000 0098                bra        +0x9A /* 000029FE */
label00002968:
00002968  3F07                     move.w     -[A7], D7
0000296A  486E FEFA                pea.l      [A6 - 0x106]
0000296E  2F2E 0008                move.l     -[A7], [A6 + 0x8]
00002972  4EBA FDA2                jsr        [PC - 0x25E /* 00002716 */]
00002976  2F3C 0001 0000           move.l     -[A7], 0x10000
0000297C  3F3C 029A                move.w     -[A7], 0x29A
00002980  2F13                     move.l     -[A7], [A3]
00002982  4EAD 0122                jsr        [A5 + 0x122 /* export_32, CODE:1 @ 00003D68 */]
00002986  3D5F FEF6                move.w     [A6 - 0x10A], [A7]+
0000298A  41EE FEFA                lea.l      A0, [A6 - 0x106]
0000298E  2008                     move.l     D0, A0
00002990  5280                     addq.l     D0, 1
00002992  2F00                     move.l     -[A7], D0
00002994  4240                     clr.w      D0
00002996  102E FEFA                move.b     D0, [A6 - 0x106]
0000299A  3F00                     move.w     -[A7], D0
0000299C  2F2E FEF6                move.l     -[A7], [A6 - 0x10A]
000029A0  2F13                     move.l     -[A7], [A3]
000029A2  4EAD 00D2                jsr        [A5 + 0xD2 /* export_22, CODE:1 @ 00003D90 */]
000029A6  1004                     move.b     D0, D4
000029A8  6750                     beq        +0x52 /* 000029FA */
000029AA  4267                     clr.w      -[A7]
000029AC  3F07                     move.w     -[A7], D7
000029AE  2F0E                     move.l     -[A7], A6
000029B0  4EBA FE4E                jsr        [PC - 0x1B2 /* 00002800 */]
000029B4  3A1F                     move.w     D5, [A7]+
000029B6  4A45                     tst.w      D5
000029B8  6740                     beq        +0x42 /* 000029FA */
000029BA  3005                     move.w     D0, D5
000029BC  C1FC 0006                muls.w     D0, 0x6
000029C0  41EC FA30                lea.l      A0, [A4 - 0x5D0]
000029C4  21AE FEF6 0000           move.l     [A0 + D0.w], [A6 - 0x10A]
000029CA  3005                     move.w     D0, D5
000029CC  C1FC 0006                muls.w     D0, 0x6
000029D0  2F00                     move.l     -[A7], D0
000029D2  4267                     clr.w      -[A7]
000029D4  206C 0008                movea.l    A0, [A4 + 0x8]
000029D8  3205                     move.w     D1, D5
000029DA  E541                     asl        D1.w, 2
000029DC  3430 1000                move.w     D2, [A0 + D1.w]
000029E0  48C2                     ext.l      D2
000029E2  2F02                     move.l     -[A7], D2
000029E4  4EBA 157E                jsr        [PC + 0x157E /* 00003F64 */]
000029E8  321F                     move.w     D1, [A7]+
000029EA  201F                     move.l     D0, [A7]+
000029EC  342D DC36                move.w     D2, [A5 - 0x23CA]
000029F0  D441                     add.w      D2, D1
000029F2  41EC FA34                lea.l      A0, [A4 - 0x5CC]
000029F6  3182 0000                move.w     [A0 + D0.w], D2
label000029FA:
000029FA  5247                     addq.w     D7, 1
000029FC  6908                     bvs        +0xA /* 00002A06 */
label000029FE:
000029FE  BE6E FEE2                cmp.w      D7, [A6 - 0x11E]
00002A02  6F00 FF64                ble        -0x9A /* 00002968 */
label00002A06:
00002A06  1004                     move.b     D0, D4
00002A08  671A                     beq        +0x1C /* 00002A24 */
00002A0A  206C 0008                movea.l    A0, [A4 + 0x8]
00002A0E  3950 FA32                move.w     [A4 - 0x5CE], [A0]
00002A12  4267                     clr.w      -[A7]
00002A14  2F2E 0008                move.l     -[A7], [A6 + 0x8]
00002A18  4EBA DE98                jsr        [PC - 0x2168 /* 000008B2 */]
00002A1C  197C 0001 FA34           move.b     [A4 - 0x5CC], 0x1
00002A22  603C                     bra        +0x3E /* 00002A60 */
label00002A24:
00002A24  4267                     clr.w      -[A7]
00002A26  3F06                     move.w     -[A7], D6
00002A28  3F3C 0080                move.w     -[A7], 0x80
00002A2C  4EAD 18C2                jsr        [A5 + 0x18C2 /* export_788, CODE:16 @ 000007E6 */]
00002A30  395F FA32                move.w     [A4 - 0x5CE], [A7]+
00002A34  3D6C FA32 FEE0           move.w     [A6 - 0x120], [A4 - 0x5CE]
00002A3A  7E01                     moveq.l    D7, 0x01
00002A3C  601C                     bra        +0x1E /* 00002A5A */
label00002A3E:
00002A3E  3007                     move.w     D0, D7
00002A40  5340                     subq.w     D0, 1
00002A42  3D40 FEF6                move.w     [A6 - 0x10A], D0
00002A46  3007                     move.w     D0, D7
00002A48  C1FC 0006                muls.w     D0, 0x6
00002A4C  41EC FA30                lea.l      A0, [A4 - 0x5D0]
00002A50  21AE FEF6 0000           move.l     [A0 + D0.w], [A6 - 0x10A]
00002A56  5247                     addq.w     D7, 1
00002A58  6906                     bvs        +0x8 /* 00002A60 */
label00002A5A:
00002A5A  BE6E FEE0                cmp.w      D7, [A6 - 0x120]
00002A5E  6FDE                     ble        -0x20 /* 00002A3E */
label00002A60:
00002A60  4A6C FA32                tst.w      [A4 - 0x5CE]
00002A64  6700 008C                beq        +0x8E /* 00002AF2 */
00002A68  426E FEEA                clr.w      [A6 - 0x116]
00002A6C  3D7C 0081 FEE8           move.w     [A6 - 0x118], 0x81
00002A72  3D6C FA32 FEDE           move.w     [A6 - 0x122], [A4 - 0x5CE]
00002A78  7E01                     moveq.l    D7, 0x01
00002A7A  6020                     bra        +0x22 /* 00002A9C */
label00002A7C:
00002A7C  4267                     clr.w      -[A7]
00002A7E  3F2E FEE8                move.w     -[A7], [A6 - 0x118]
00002A82  3007                     move.w     D0, D7
00002A84  C1FC 0006                muls.w     D0, 0x6
00002A88  41EC FA30                lea.l      A0, [A4 - 0x5D0]
00002A8C  3F30 0000                move.w     -[A7], [A0 + D0.w]
00002A90  4EAD 18C2                jsr        [A5 + 0x18C2 /* export_788, CODE:16 @ 000007E6 */]
00002A94  3D5F FEE8                move.w     [A6 - 0x118], [A7]+
00002A98  5247                     addq.w     D7, 1
00002A9A  6906                     bvs        +0x8 /* 00002AA2 */
label00002A9C:
00002A9C  BE6E FEDE                cmp.w      D7, [A6 - 0x122]
00002AA0  6FDA                     ble        -0x24 /* 00002A7C */
label00002AA2:
00002AA2  1F3C 0001                move.b     -[A7], 0x1
00002AA6  2F2E FEE8                move.l     -[A7], [A6 - 0x118]
00002AAA  2F13                     move.l     -[A7], [A3]
00002AAC  4EAD 00CA                jsr        [A5 + 0xCA /* export_21, CODE:1 @ 00003D92 */]
00002AB0  2F13                     move.l     -[A7], [A3]
00002AB2  4EAD 011A                jsr        [A5 + 0x11A /* export_31, CODE:1 @ 00003D6C */]
00002AB6  4267                     clr.w      -[A7]
00002AB8  2F2E FEE8                move.l     -[A7], [A6 - 0x118]
00002ABC  2F13                     move.l     -[A7], [A3]
00002ABE  4EAD 00CA                jsr        [A5 + 0xCA /* export_21, CODE:1 @ 00003D92 */]
00002AC2  2F2E 0008                move.l     -[A7], [A6 + 0x8]
00002AC6  4EBA EBC6                jsr        [PC - 0x143A /* 0000168E */]
00002ACA  422C FFEF                clr.b      [A4 - 0x11]
00002ACE  7001                     moveq.l    D0, 0x01
00002AD0  B02C FD52                cmp.b      D0, [A4 - 0x2AE]
00002AD4  57C0                     seq        D0
00002AD6  2204                     move.l     D1, D4
00002AD8  C200                     and.b      D1, D0
00002ADA  670A                     beq        +0xC /* 00002AE6 */
00002ADC  2F2E 0008                move.l     -[A7], [A6 + 0x8]
00002AE0  4EBA E23E                jsr        [PC - 0x1DC2 /* 00000D20 */]
00002AE4  6008                     bra        +0xA /* 00002AEE */
label00002AE6:
00002AE6  2F2E 0008                move.l     -[A7], [A6 + 0x8]
00002AEA  4EBA E2B2                jsr        [PC - 0x1D4E /* 00000D9E */]
label00002AEE:
00002AEE  422C FFF0                clr.b      [A4 - 0x10]
label00002AF2:
00002AF2  4AAE FFFC                tst.l      [A6 - 0x4]
00002AF6  670A                     beq        +0xC /* 00002B02 */
00002AF8  2F2D F622                move.l     -[A7], [A5 - 0x9DE]
00002AFC  4267                     clr.w      -[A7]
00002AFE  4EAD 1EE2                jsr        [A5 + 0x1EE2 /* export_984, CODE:19 @ 00000414 */]
label00002B02:
00002B02  4CDF 18F0                movem.l    D4,D5,D6,D7,A3,A4, [A7]+
00002B06  4E5E                     unlink     A6
00002B08  205F                     movea.l    A0, [A7]+
00002B0A  504F                     addq.w     A7, 8
00002B0C  4ED0                     jmp        [A0]
00002B0E  000C 4E56                ori.b      A4, 0x56 /* 'V' */
// begin alternate branch 00002B10-00002B14
fn00002B10:
00002B10  4E56 FFFE                link       A6, -0x0002
// end alternate branch 00002B10-00002B14
fn00002B10: // (misaligned)
00002B12  FFFE                     .invalid   <<F/7/7>>
00002B14  48E7 0318                movem.l    -[A7], D6,D7,A3,A4
00002B18  2C2E 000C                move.l     D6, [A6 + 0xC]
00002B1C  286E 0008                movea.l    A4, [A6 + 0x8]
00002B20  102C FFEE                move.b     D0, [A4 - 0x12]
00002B24  6706                     beq        +0x8 /* 00002B2C */
00002B26  2046                     movea.l    A0, D6
00002B28  4250                     clr.w      [A0]
00002B2A  607E                     bra        +0x80 /* 00002BAA */
label00002B2C:
00002B2C  102C FFEF                move.b     D0, [A4 - 0x11]
00002B30  6602                     bne        +0x4 /* 00002B34 */
00002B32  6076                     bra        +0x78 /* 00002BAA */
label00002B34:
00002B34  2046                     movea.l    A0, D6
00002B36  30AC FA32                move.w     [A0], [A4 - 0x5CE]
00002B3A  7E01                     moveq.l    D7, 0x01
label00002B3C:
00002B3C  2046                     movea.l    A0, D6
00002B3E  BE50                     cmp.w      D7, [A0]
00002B40  6E4E                     bgt        +0x50 /* 00002B90 */
00002B42  3007                     move.w     D0, D7
00002B44  C1FC 0006                muls.w     D0, 0x6
00002B48  41EC FA30                lea.l      A0, [A4 - 0x5D0]
00002B4C  3230 0000                move.w     D1, [A0 + D0.w]
00002B50  5241                     addq.w     D1, 1
00002B52  2046                     movea.l    A0, D6
00002B54  3007                     move.w     D0, D7
00002B56  E540                     asl        D0.w, 2
00002B58  3181 00FE                move.w     [A0 + D0.w - 0x2], D1
00002B5C  2046                     movea.l    A0, D6
00002B5E  3007                     move.w     D0, D7
00002B60  E540                     asl        D0.w, 2
00002B62  48E7 8080                movem.l    -[A7], D0,A0
00002B66  4267                     clr.w      -[A7]
00002B68  3207                     move.w     D1, D7
00002B6A  C3FC 0006                muls.w     D1, 0x6
00002B6E  43EC FA34                lea.l      A1, [A4 - 0x5CC]
00002B72  3431 1000                move.w     D2, [A1 + D1.w]
00002B76  946D DC36                sub.w      D2, [A5 - 0x23CA]
00002B7A  48C2                     ext.l      D2
00002B7C  2F02                     move.l     -[A7], D2
00002B7E  4EBA 2332                jsr        [PC + 0x2332 /* 00004EB2 */]
00002B82  321F                     move.w     D1, [A7]+
00002B84  4CDF 0101                movem.l    D0,A0, [A7]+
00002B88  3181 0000                move.w     [A0 + D0.w], D1
00002B8C  5247                     addq.w     D7, 1
00002B8E  60AC                     bra        -0x52 /* 00002B3C */
label00002B90:
00002B90  2046                     movea.l    A0, D6
00002B92  47E8 0002                lea.l      A3, [A0 + 0x2]
00002B96  4267                     clr.w      -[A7]
00002B98  7001                     moveq.l    D0, 0x01
00002B9A  2F00                     move.l     -[A7], D0
00002B9C  4EBA 2314                jsr        [PC + 0x2314 /* 00004EB2 */]
00002BA0  301F                     move.w     D0, [A7]+
00002BA2  D06B 0002                add.w      D0, [A3 + 0x2]
00002BA6  3740 0002                move.w     [A3 + 0x2], D0
label00002BAA:
00002BAA  4CDF 18C0                movem.l    D6,D7,A3,A4, [A7]+
00002BAE  4E5E                     unlink     A6
00002BB0  205F                     movea.l    A0, [A7]+
00002BB2  504F                     addq.w     A7, 8
00002BB4  4ED0                     jmp        [A0]
fn00002BB6:
00002BB6  4E56 0000                link       A6, 0
00002BBA  2F0C                     move.l     -[A7], A4
00002BBC  286E 0008                movea.l    A4, [A6 + 0x8]
00002BC0  2F2C FE96                move.l     -[A7], [A4 - 0x16A]
00002BC4  3F2E 000E                move.w     -[A7], [A6 + 0xE]
00002BC8  486C FFFE                pea.l      [A4 - 0x2]
00002BCC  486C FE8E                pea.l      [A4 - 0x172]
00002BD0  486C FFDA                pea.l      [A4 - 0x26]
00002BD4  A98D                     syscall    GetDialogItem/GetDItem
00002BD6  2F2C FE8E                move.l     -[A7], [A4 - 0x172]
00002BDA  102E 000C                move.b     D0, [A6 + 0xC]
00002BDE  4880                     ext.w      D0
00002BE0  3F00                     move.w     -[A7], D0
00002BE2  A963                     syscall    SetControlValue/SetCtlValue
00002BE4  285F                     movea.l    A4, [A7]+
00002BE6  4E5E                     unlink     A6
00002BE8  205F                     movea.l    A0, [A7]+
00002BEA  504F                     addq.w     A7, 8
00002BEC  4ED0                     jmp        [A0]
fn00002BEE:
00002BEE  4E56 FFF0                link       A6, -0x0010
00002BF2  48E7 0118                movem.l    -[A7], D7,A3,A4
00002BF6  266E 0008                movea.l    A3, [A6 + 0x8]
00002BFA  49EB FD36                lea.l      A4, [A3 - 0x2CA]
00002BFE  7E08                     moveq.l    D7, 0x08
00002C00  6030                     bra        +0x32 /* 00002C32 */
label00002C02:
00002C02  2F2B FE96                move.l     -[A7], [A3 - 0x16A]
00002C06  3F07                     move.w     -[A7], D7
00002C08  486E FFFE                pea.l      [A6 - 0x2]
00002C0C  486E FFFA                pea.l      [A6 - 0x6]
00002C10  486E FFF2                pea.l      [A6 - 0xE]
00002C14  A98D                     syscall    GetDialogItem/GetDItem
00002C16  2F2E FFFA                move.l     -[A7], [A6 - 0x6]
00002C1A  102C 001C                move.b     D0, [A4 + 0x1C]
00002C1E  4880                     ext.w      D0
00002C20  3207                     move.w     D1, D7
00002C22  5141                     subq.w     D1, 8
00002C24  B240                     cmp.w      D1, D0
00002C26  57C0                     seq        D0
00002C28  4400                     neg.b      D0
00002C2A  4880                     ext.w      D0
00002C2C  3F00                     move.w     -[A7], D0
00002C2E  A963                     syscall    SetControlValue/SetCtlValue
00002C30  5247                     addq.w     D7, 1
label00002C32:
00002C32  700A                     moveq.l    D0, 0x0A
00002C34  B047                     cmp.w      D0, D7
00002C36  6CCA                     bge        -0x34 /* 00002C02 */
00002C38  4CDF 1880                movem.l    D7,A3,A4, [A7]+
00002C3C  4E5E                     unlink     A6
00002C3E  2E9F                     move.l     [A7], [A7]+
00002C40  4E75                     rts
fn00002C42:
00002C42  4E56 FEEE                link       A6, -0x0112
00002C46  48E7 0318                movem.l    -[A7], D6,D7,A3,A4
00002C4A  266E 0008                movea.l    A3, [A6 + 0x8]
00002C4E  49EB FD36                lea.l      A4, [A3 - 0x2CA]
00002C52  7E0E                     moveq.l    D7, 0x0E
00002C54  6032                     bra        +0x34 /* 00002C88 */
label00002C56:
00002C56  2F2B FE96                move.l     -[A7], [A3 - 0x16A]
00002C5A  3F07                     move.w     -[A7], D7
00002C5C  486E FFFE                pea.l      [A6 - 0x2]
00002C60  486E FFFA                pea.l      [A6 - 0x6]
00002C64  486E FFF2                pea.l      [A6 - 0xE]
00002C68  A98D                     syscall    GetDialogItem/GetDItem
00002C6A  2F2E FFFA                move.l     -[A7], [A6 - 0x6]
00002C6E  3007                     move.w     D0, D7
00002C70  907C 000E                sub.w      D0, 0xE
00002C74  122C 001A                move.b     D1, [A4 + 0x1A]
00002C78  4881                     ext.w      D1
00002C7A  B240                     cmp.w      D1, D0
00002C7C  57C0                     seq        D0
00002C7E  4400                     neg.b      D0
00002C80  4880                     ext.w      D0
00002C82  3F00                     move.w     -[A7], D0
00002C84  A963                     syscall    SetControlValue/SetCtlValue
00002C86  5247                     addq.w     D7, 1
label00002C88:
00002C88  700F                     moveq.l    D0, 0x0F
00002C8A  B047                     cmp.w      D0, D7
00002C8C  6CC8                     bge        -0x36 /* 00002C56 */
00002C8E  2F2B FE96                move.l     -[A7], [A3 - 0x16A]
00002C92  3F3C 0012                move.w     -[A7], 0x12
00002C96  486E FFFE                pea.l      [A6 - 0x2]
00002C9A  486E FFFA                pea.l      [A6 - 0x6]
00002C9E  486E FFF2                pea.l      [A6 - 0xE]
00002CA2  A98D                     syscall    GetDialogItem/GetDItem
00002CA4  102C 001A                move.b     D0, [A4 + 0x1A]
00002CA8  6704                     beq        +0x6 /* 00002CAE */
00002CAA  7C0D                     moveq.l    D6, 0x0D
00002CAC  6002                     bra        +0x4 /* 00002CB0 */
label00002CAE:
00002CAE  7C09                     moveq.l    D6, 0x09
label00002CB0:
00002CB0  2F2E FFFA                move.l     -[A7], [A6 - 0x6]
00002CB4  486E FEEE                pea.l      [A6 - 0x112]
00002CB8  3F06                     move.w     -[A7], D6
00002CBA  4EAD 070A                jsr        [A5 + 0x70A /* export_221, CODE:4 @ 00002328 */]
00002CBE  A95F                     syscall    SetControlTitle/SetCTitle
00002CC0  4CDF 18C0                movem.l    D6,D7,A3,A4, [A7]+
00002CC4  4E5E                     unlink     A6
00002CC6  2E9F                     move.l     [A7], [A7]+
00002CC8  4E75                     rts
fn00002CCA:
00002CCA  4E56 FFF0                link       A6, -0x0010
00002CCE  2F0C                     move.l     -[A7], A4
00002CD0  206E 0008                movea.l    A0, [A6 + 0x8]
00002CD4  49E8 FD36                lea.l      A4, [A0 - 0x2CA]
00002CD8  3F3C 0011                move.w     -[A7], 0x11
00002CDC  102C 001B                move.b     D0, [A4 + 0x1B]
00002CE0  4880                     ext.w      D0
00002CE2  4A40                     tst.w      D0
00002CE4  6B18                     bmi        +0x1A /* 00002CFE */
00002CE6  B07C 0007                cmp.w      D0, 0x7
00002CEA  6E12                     bgt        +0x14 /* 00002CFE */
00002CEC  41FA 005E                lea.l      A0, [PC + 0x5E /* 00002D4C, value 0x4E56FFFC */]
00002CF0  3200                     move.w     D1, D0
00002CF2  E649                     lsr        D1.w, 3
00002CF4  4441                     neg.w      D1
00002CF6  0130 10FF                btst       [A0 + D1.w - 0x1], D0
00002CFA  0A3C 0004                xori.b     ccr, 4
label00002CFE:
00002CFE  57C0                     seq        D0
00002D00  4400                     neg.b      D0
00002D02  1F00                     move.b     -[A7], D0
00002D04  2F2E 0008                move.l     -[A7], [A6 + 0x8]
00002D08  4EBA FEAC                jsr        [PC - 0x154 /* 00002BB6 */]
00002D0C  3F3C 0012                move.w     -[A7], 0x12
00002D10  102C 001B                move.b     D0, [A4 + 0x1B]
00002D14  4880                     ext.w      D0
00002D16  4A40                     tst.w      D0
00002D18  6B18                     bmi        +0x1A /* 00002D32 */
00002D1A  B07C 0007                cmp.w      D0, 0x7
00002D1E  6E12                     bgt        +0x14 /* 00002D32 */
00002D20  41FA 0028                lea.l      A0, [PC + 0x28 /* 00002D4A, value 0xA4E56 '\nNV', cstring "" */]
00002D24  3200                     move.w     D1, D0
00002D26  E649                     lsr        D1.w, 3
00002D28  4441                     neg.w      D1
00002D2A  0130 10FF                btst       [A0 + D1.w - 0x1], D0
00002D2E  0A3C 0004                xori.b     ccr, 4
label00002D32:
00002D32  57C0                     seq        D0
00002D34  4400                     neg.b      D0
00002D36  1F00                     move.b     -[A7], D0
00002D38  2F2E 0008                move.l     -[A7], [A6 + 0x8]
00002D3C  4EBA FE78                jsr        [PC - 0x188 /* 00002BB6 */]
00002D40  285F                     movea.l    A4, [A7]+
00002D42  4E5E                     unlink     A6
00002D44  2E9F                     move.l     [A7], [A7]+
00002D46  4E75                     rts
00002D48  000C 000A                ori.b      A4, 0xA /* '\n' */
fn00002D4C:
00002D4C  4E56 FFFC                link       A6, -0x0004
00002D50  48E7 0118                movem.l    -[A7], D7,A3,A4
00002D54  266E 0008                movea.l    A3, [A6 + 0x8]
00002D58  49EB FA32                lea.l      A4, [A3 - 0x5CE]
00002D5C  3D54 FFFC                move.w     [A6 - 0x4], [A4]
00002D60  7E01                     moveq.l    D7, 0x01
00002D62  6018                     bra        +0x1A /* 00002D7C */
label00002D64:
00002D64  4267                     clr.w      -[A7]
00002D66  3007                     move.w     D0, D7
00002D68  C1FC 0006                muls.w     D0, 0x6
00002D6C  2F34 00FE                move.l     -[A7], [A4 + D0.w - 0x2]
00002D70  2F2B FE8A                move.l     -[A7], [A3 - 0x176]
00002D74  4EAD 00CA                jsr        [A5 + 0xCA /* export_21, CODE:1 @ 00003D92 */]
00002D78  5247                     addq.w     D7, 1
00002D7A  6906                     bvs        +0x8 /* 00002D82 */
label00002D7C:
00002D7C  BE6E FFFC                cmp.w      D7, [A6 - 0x4]
00002D80  6FE2                     ble        -0x1C /* 00002D64 */
label00002D82:
00002D82  4CDF 1880                movem.l    D7,A3,A4, [A7]+
00002D86  4E5E                     unlink     A6
00002D88  2E9F                     move.l     [A7], [A7]+
00002D8A  4E75                     rts
fn00002D8C:
00002D8C  4E56 FFF0                link       A6, -0x0010
00002D90  2F0C                     move.l     -[A7], A4
00002D92  286E 0008                movea.l    A4, [A6 + 0x8]
00002D96  2F2E 0008                move.l     -[A7], [A6 + 0x8]
00002D9A  4EBA FFB0                jsr        [PC - 0x50 /* 00002D4C */]
00002D9E  4267                     clr.w      -[A7]
00002DA0  2F2C FE8A                move.l     -[A7], [A4 - 0x176]
00002DA4  4EAD 00FA                jsr        [A5 + 0xFA /* export_27, CODE:1 @ 00003D7A */]
00002DA8  2F2C FE96                move.l     -[A7], [A4 - 0x16A]
00002DAC  3F3C 0013                move.w     -[A7], 0x13
00002DB0  486E FFFE                pea.l      [A6 - 0x2]
00002DB4  486C FE8E                pea.l      [A4 - 0x172]
00002DB8  486E FFF2                pea.l      [A6 - 0xE]
00002DBC  A98D                     syscall    GetDialogItem/GetDItem
00002DBE  486E FFF2                pea.l      [A6 - 0xE]
00002DC2  2F3C FFFF FFFF           move.l     -[A7], 0xFFFFFFFF
00002DC8  A8A9                     syscall    InsetRect
00002DCA  486E FFF2                pea.l      [A6 - 0xE]
00002DCE  4EAD 0622                jsr        [A5 + 0x622 /* export_192, CODE:4 @ 0000100A */]
00002DD2  285F                     movea.l    A4, [A7]+
00002DD4  4E5E                     unlink     A6
00002DD6  2E9F                     move.l     [A7], [A7]+
00002DD8  4E75                     rts
fn00002DDA:
00002DDA  4E56 FFEA                link       A6, -0x0016
00002DDE  48E7 0318                movem.l    -[A7], D6,D7,A3,A4
00002DE2  286E 0008                movea.l    A4, [A6 + 0x8]
00002DE6  1F3C 0001                move.b     -[A7], 0x1
00002DEA  2F2C FE8A                move.l     -[A7], [A4 - 0x176]
00002DEE  4EAD 00FA                jsr        [A5 + 0xFA /* export_27, CODE:1 @ 00003D7A */]
00002DF2  A89E                     syscall    PenNormal
00002DF4  42A7                     clr.l      -[A7]
00002DF6  A8D8                     syscall    NewRgn
00002DF8  2E1F                     move.l     D7, [A7]+
00002DFA  2F2C FE96                move.l     -[A7], [A4 - 0x16A]
00002DFE  3F3C 0013                move.w     -[A7], 0x13
00002E02  486E FFFA                pea.l      [A6 - 0x6]
00002E06  486C FE8E                pea.l      [A4 - 0x172]
00002E0A  486E FFEE                pea.l      [A6 - 0x12]
00002E0E  A98D                     syscall    GetDialogItem/GetDItem
00002E10  2F07                     move.l     -[A7], D7
00002E12  486E FFEE                pea.l      [A6 - 0x12]
00002E16  A8DF                     syscall    RectRgn
00002E18  486E FFEE                pea.l      [A6 - 0x12]
00002E1C  2F3C FFFF FFFF           move.l     -[A7], 0xFFFFFFFF
00002E22  A8A9                     syscall    InsetRect
00002E24  486E FFEE                pea.l      [A6 - 0x12]
00002E28  A8A1                     syscall    FrameRect
00002E2A  2F07                     move.l     -[A7], D7
00002E2C  2F2C FE8A                move.l     -[A7], [A4 - 0x176]
00002E30  4EAD 00C2                jsr        [A5 + 0xC2 /* export_20, CODE:1 @ 00003D96 */]
00002E34  102E 000C                move.b     D0, [A6 + 0xC]
00002E38  672C                     beq        +0x2E /* 00002E66 */
00002E3A  47EC FA32                lea.l      A3, [A4 - 0x5CE]
00002E3E  3D53 FFEA                move.w     [A6 - 0x16], [A3]
00002E42  7C01                     moveq.l    D6, 0x01
00002E44  601A                     bra        +0x1C /* 00002E60 */
label00002E46:
00002E46  1F3C 0001                move.b     -[A7], 0x1
00002E4A  3006                     move.w     D0, D6
00002E4C  C1FC 0006                muls.w     D0, 0x6
00002E50  2F33 00FE                move.l     -[A7], [A3 + D0.w - 0x2]
00002E54  2F2C FE8A                move.l     -[A7], [A4 - 0x176]
00002E58  4EAD 00CA                jsr        [A5 + 0xCA /* export_21, CODE:1 @ 00003D92 */]
00002E5C  5246                     addq.w     D6, 1
00002E5E  6906                     bvs        +0x8 /* 00002E66 */
label00002E60:
00002E60  BC6E FFEA                cmp.w      D6, [A6 - 0x16]
00002E64  6FE0                     ble        -0x1E /* 00002E46 */
label00002E66:
00002E66  2F07                     move.l     -[A7], D7
00002E68  A8D9                     syscall    DisposRgn/DisposeRgn
00002E6A  4CDF 18C0                movem.l    D6,D7,A3,A4, [A7]+
00002E6E  4E5E                     unlink     A6
00002E70  205F                     movea.l    A0, [A7]+
00002E72  5C4F                     addq.w     A7, 6
00002E74  4ED0                     jmp        [A0]
fn00002E76:
00002E76  4E56 FFEA                link       A6, -0x0016
00002E7A  2F0C                     move.l     -[A7], A4
00002E7C  286E 0008                movea.l    A4, [A6 + 0x8]
00002E80  4267                     clr.w      -[A7]
00002E82  2F2C FE8A                move.l     -[A7], [A4 - 0x176]
00002E86  4EAD 00FA                jsr        [A5 + 0xFA /* export_27, CODE:1 @ 00003D7A */]
00002E8A  2F2C FE96                move.l     -[A7], [A4 - 0x16A]
00002E8E  3F3C 0013                move.w     -[A7], 0x13
00002E92  486E FFF6                pea.l      [A6 - 0xA]
00002E96  486C FE8E                pea.l      [A4 - 0x172]
00002E9A  486E FFEA                pea.l      [A6 - 0x16]
00002E9E  A98D                     syscall    GetDialogItem/GetDItem
00002EA0  41EE FFF8                lea.l      A0, [A6 - 0x8]
00002EA4  43EE FFEA                lea.l      A1, [A6 - 0x16]
00002EA8  20D9                     move.l     [A0]+, [A1]+
00002EAA  20D9                     move.l     [A0]+, [A1]+
00002EAC  486E FFF8                pea.l      [A6 - 0x8]
00002EB0  2F3C FFFF FFFF           move.l     -[A7], 0xFFFFFFFF
00002EB6  A8A9                     syscall    InsetRect
00002EB8  486D FE90                pea.l      [A5 - 0x170]
00002EBC  A89D                     syscall    PenPat
00002EBE  486E FFF8                pea.l      [A6 - 0x8]
00002EC2  A8A1                     syscall    FrameRect
00002EC4  486E FFEA                pea.l      [A6 - 0x16]
00002EC8  A8A3                     syscall    EraseRect
00002ECA  486D FE98                pea.l      [A5 - 0x168]
00002ECE  A89D                     syscall    PenPat
00002ED0  2F2E 0008                move.l     -[A7], [A6 + 0x8]
00002ED4  4EBA FE76                jsr        [PC - 0x18A /* 00002D4C */]
00002ED8  285F                     movea.l    A4, [A7]+
00002EDA  4E5E                     unlink     A6
00002EDC  2E9F                     move.l     [A7], [A7]+
00002EDE  4E75                     rts
fn00002EE0:
00002EE0  4E56 FFEE                link       A6, -0x0012
00002EE4  48E7 0018                movem.l    -[A7], A3,A4
00002EE8  286E 0008                movea.l    A4, [A6 + 0x8]
00002EEC  2F2C FE96                move.l     -[A7], [A4 - 0x16A]
00002EF0  3F3C 000B                move.w     -[A7], 0xB
00002EF4  486E FFFE                pea.l      [A6 - 0x2]
00002EF8  486E FFFA                pea.l      [A6 - 0x6]
00002EFC  486E FFF2                pea.l      [A6 - 0xE]
00002F00  A98D                     syscall    GetDialogItem/GetDItem
00002F02  42A7                     clr.l      -[A7]
00002F04  A8D8                     syscall    NewRgn
00002F06  265F                     movea.l    A3, [A7]+
00002F08  2F0B                     move.l     -[A7], A3
00002F0A  486E FFF2                pea.l      [A6 - 0xE]
00002F0E  A8DF                     syscall    RectRgn
00002F10  2F2C FE96                move.l     -[A7], [A4 - 0x16A]
00002F14  2F0B                     move.l     -[A7], A3
00002F16  A978                     syscall    UpdtDialog
00002F18  2F0B                     move.l     -[A7], A3
00002F1A  A8D9                     syscall    DisposRgn/DisposeRgn
00002F1C  4CDF 1800                movem.l    A3,A4, [A7]+
00002F20  4E5E                     unlink     A6
00002F22  2E9F                     move.l     [A7], [A7]+
00002F24  4E75                     rts
fn00002F26:
00002F26  4E56 FFF2                link       A6, -0x000E
00002F2A  206E 0008                movea.l    A0, [A6 + 0x8]
00002F2E  2F28 FE96                move.l     -[A7], [A0 - 0x16A]
00002F32  3F3C 000B                move.w     -[A7], 0xB
00002F36  486E FFFE                pea.l      [A6 - 0x2]
00002F3A  486E FFFA                pea.l      [A6 - 0x6]
00002F3E  486E FFF2                pea.l      [A6 - 0xE]
00002F42  A98D                     syscall    GetDialogItem/GetDItem
00002F44  486E FFF2                pea.l      [A6 - 0xE]
00002F48  4EAD 0622                jsr        [A5 + 0x622 /* export_192, CODE:4 @ 0000100A */]
00002F4C  4E5E                     unlink     A6
00002F4E  2E9F                     move.l     [A7], [A7]+
00002F50  4E75                     rts
fn00002F52:
00002F52  4E56 FFE2                link       A6, -0x001E
00002F56  206E 0008                movea.l    A0, [A6 + 0x8]
00002F5A  2F28 FE96                move.l     -[A7], [A0 - 0x16A]
00002F5E  3F3C 000B                move.w     -[A7], 0xB
00002F62  486E FFFE                pea.l      [A6 - 0x2]
00002F66  486E FFFA                pea.l      [A6 - 0x6]
00002F6A  486E FFF2                pea.l      [A6 - 0xE]
00002F6E  A98D                     syscall    GetDialogItem/GetDItem
00002F70  302E FFF2                move.w     D0, [A6 - 0xE]
00002F74  5240                     addq.w     D0, 1
00002F76  3D40 FFEA                move.w     [A6 - 0x16], D0
00002F7A  302E FFF2                move.w     D0, [A6 - 0xE]
00002F7E  D07C 000A                add.w      D0, 0xA /* '\n' */
00002F82  3D40 FFEE                move.w     [A6 - 0x12], D0
00002F86  302E FFF6                move.w     D0, [A6 - 0xA]
00002F8A  907C 000A                sub.w      D0, 0xA /* '\n' */
00002F8E  3D40 FFE2                move.w     [A6 - 0x1E], D0
00002F92  302E FFF6                move.w     D0, [A6 - 0xA]
00002F96  5340                     subq.w     D0, 1
00002F98  3D40 FFE6                move.w     [A6 - 0x1A], D0
00002F9C  102E 000C                move.b     D0, [A6 + 0xC]
00002FA0  4880                     ext.w      D0
00002FA2  670A                     beq        +0xC /* 00002FAE */
00002FA4  5340                     subq.w     D0, 1
00002FA6  671E                     beq        +0x20 /* 00002FC6 */
00002FA8  5340                     subq.w     D0, 1
00002FAA  6734                     beq        +0x36 /* 00002FE0 */
00002FAC  604A                     bra        +0x4C /* 00002FF8 */
label00002FAE:
00002FAE  302E FFF4                move.w     D0, [A6 - 0xC]
00002FB2  5240                     addq.w     D0, 1
00002FB4  3D40 FFEC                move.w     [A6 - 0x14], D0
00002FB8  302E FFF4                move.w     D0, [A6 - 0xC]
00002FBC  D07C 001B                add.w      D0, 0x1B
00002FC0  3D40 FFF0                move.w     [A6 - 0x10], D0
00002FC4  6032                     bra        +0x34 /* 00002FF8 */
label00002FC6:
00002FC6  302E FFF4                move.w     D0, [A6 - 0xC]
00002FCA  D07C 0027                add.w      D0, 0x27 /* '\'' */
00002FCE  3D40 FFEC                move.w     [A6 - 0x14], D0
00002FD2  302E FFF4                move.w     D0, [A6 - 0xC]
00002FD6  D07C 0033                add.w      D0, 0x33 /* '3' */
00002FDA  3D40 FFF0                move.w     [A6 - 0x10], D0
00002FDE  6018                     bra        +0x1A /* 00002FF8 */
label00002FE0:
00002FE0  302E FFF4                move.w     D0, [A6 - 0xC]
00002FE4  D07C 004E                add.w      D0, 0x4E /* 'N' */
00002FE8  3D40 FFEC                move.w     [A6 - 0x14], D0
00002FEC  302E FFF4                move.w     D0, [A6 - 0xC]
00002FF0  D07C 005A                add.w      D0, 0x5A /* 'Z' */
00002FF4  3D40 FFF0                move.w     [A6 - 0x10], D0
label00002FF8:
00002FF8  3D6E FFEC FFE4           move.w     [A6 - 0x1C], [A6 - 0x14]
00002FFE  3D6E FFF0 FFE8           move.w     [A6 - 0x18], [A6 - 0x10]
00003004  486E FFEA                pea.l      [A6 - 0x16]
00003008  A8A4                     syscall    InvertRect
0000300A  486E FFE2                pea.l      [A6 - 0x1E]
0000300E  A8A4                     syscall    InvertRect
00003010  4A2E 000C                tst.b      [A6 + 0xC]
00003014  6602                     bne        +0x4 /* 00003018 */
00003016  6024                     bra        +0x26 /* 0000303C */
label00003018:
00003018  486E FFEA                pea.l      [A6 - 0x16]
0000301C  2F3C 0000 000F           move.l     -[A7], 0xF
00003022  A8A8                     syscall    OffsetRect
00003024  486E FFE2                pea.l      [A6 - 0x1E]
00003028  2F3C 0000 000F           move.l     -[A7], 0xF
0000302E  A8A8                     syscall    OffsetRect
00003030  486E FFEA                pea.l      [A6 - 0x16]
00003034  A8A4                     syscall    InvertRect
00003036  486E FFE2                pea.l      [A6 - 0x1E]
0000303A  A8A4                     syscall    InvertRect
label0000303C:
0000303C  4E5E                     unlink     A6
0000303E  205F                     movea.l    A0, [A7]+
00003040  5C4F                     addq.w     A7, 6
00003042  4ED0                     jmp        [A0]
fn00003044:
00003044  4E56 0000                link       A6, 0
00003048  2F2E 0008                move.l     -[A7], [A6 + 0x8]
0000304C  4EBA FE92                jsr        [PC - 0x16E /* 00002EE0 */]
00003050  2F2E 0008                move.l     -[A7], [A6 + 0x8]
00003054  4EBA FED0                jsr        [PC - 0x130 /* 00002F26 */]
00003058  4E5E                     unlink     A6
0000305A  2E9F                     move.l     [A7], [A7]+
0000305C  4E75                     rts
fn0000305E:
0000305E  4E56 0000                link       A6, 0
00003062  2F2E 0008                move.l     -[A7], [A6 + 0x8]
00003066  4EBA FE78                jsr        [PC - 0x188 /* 00002EE0 */]
0000306A  206E 0008                movea.l    A0, [A6 + 0x8]
0000306E  1F28 FD53                move.b     -[A7], [A0 - 0x2AD]
00003072  2F2E 0008                move.l     -[A7], [A6 + 0x8]
00003076  4EBA FEDA                jsr        [PC - 0x126 /* 00002F52 */]
0000307A  4E5E                     unlink     A6
0000307C  2E9F                     move.l     [A7], [A7]+
0000307E  4E75                     rts
fn00003080:
00003080  4E56 FFEC                link       A6, -0x0014
00003084  48E7 0118                movem.l    -[A7], D7,A3,A4
00003088  266E 0008                movea.l    A3, [A6 + 0x8]
0000308C  486E FFFC                pea.l      [A6 - 0x4]
00003090  A972                     syscall    GetMouse
00003092  49EB FD36                lea.l      A4, [A3 - 0x2CA]
00003096  7002                     moveq.l    D0, 0x02
00003098  B02C 001C                cmp.b      D0, [A4 + 0x1C]
0000309C  6600 0094                bne        +0x96 /* 00003132 */
000030A0  2F2B FE96                move.l     -[A7], [A3 - 0x16A]
000030A4  3F3C 000B                move.w     -[A7], 0xB
000030A8  486E FFF8                pea.l      [A6 - 0x8]
000030AC  486E FFF4                pea.l      [A6 - 0xC]
000030B0  486E FFEC                pea.l      [A6 - 0x14]
000030B4  A98D                     syscall    GetDialogItem/GetDItem
000030B6  302E FFEE                move.w     D0, [A6 - 0x12]
000030BA  D07C 001C                add.w      D0, 0x1C
000030BE  B06E FFFE                cmp.w      D0, [A6 - 0x2]
000030C2  6F04                     ble        +0x6 /* 000030C8 */
000030C4  4207                     clr.b      D7
000030C6  6038                     bra        +0x3A /* 00003100 */
label000030C8:
000030C8  302E FFEE                move.w     D0, [A6 - 0x12]
000030CC  D07C 0026                add.w      D0, 0x26 /* '&' */
000030D0  B06E FFFE                cmp.w      D0, [A6 - 0x2]
000030D4  5FC0                     sle        D0
000030D6  322E FFEE                move.w     D1, [A6 - 0x12]
000030DA  D27C 0042                add.w      D1, 0x42 /* 'B' */
000030DE  B26E FFFE                cmp.w      D1, [A6 - 0x2]
000030E2  5EC1                     sgt        D1
000030E4  C001                     and.b      D0, D1
000030E6  6704                     beq        +0x6 /* 000030EC */
000030E8  7E01                     moveq.l    D7, 0x01
000030EA  6014                     bra        +0x16 /* 00003100 */
label000030EC:
000030EC  302E FFEE                move.w     D0, [A6 - 0x12]
000030F0  D07C 004D                add.w      D0, 0x4D /* 'M' */
000030F4  B06E FFFE                cmp.w      D0, [A6 - 0x2]
000030F8  6E04                     bgt        +0x6 /* 000030FE */
000030FA  7E02                     moveq.l    D7, 0x02
000030FC  6002                     bra        +0x4 /* 00003100 */
label000030FE:
000030FE  6032                     bra        +0x34 /* 00003132 */
label00003100:
00003100  BE2C 001D                cmp.b      D7, [A4 + 0x1D]
00003104  672C                     beq        +0x2E /* 00003132 */
00003106  1F2C 001D                move.b     -[A7], [A4 + 0x1D]
0000310A  2F2E 0008                move.l     -[A7], [A6 + 0x8]
0000310E  4EBA FE42                jsr        [PC - 0x1BE /* 00002F52 */]
00003112  1F07                     move.b     -[A7], D7
00003114  2F2E 0008                move.l     -[A7], [A6 + 0x8]
00003118  4EBA FE38                jsr        [PC - 0x1C8 /* 00002F52 */]
0000311C  1947 001D                move.b     [A4 + 0x1D], D7
00003120  4267                     clr.w      -[A7]
00003122  2F2E 0008                move.l     -[A7], [A6 + 0x8]
00003126  4EBA E946                jsr        [PC - 0x16BA /* 00001A6E */]
0000312A  1D7C 0001 000C           move.b     [A6 + 0xC], 0x1
00003130  6004                     bra        +0x6 /* 00003136 */
label00003132:
00003132  422E 000C                clr.b      [A6 + 0xC]
label00003136:
00003136  4CDF 1880                movem.l    D7,A3,A4, [A7]+
0000313A  4E5E                     unlink     A6
0000313C  2E9F                     move.l     [A7], [A7]+
0000313E  4E75                     rts
fn00003140:
00003140  4E56 FED0                link       A6, -0x0130
00003144  48E7 0108                movem.l    -[A7], D7,A4
00003148  206E 000C                movea.l    A0, [A6 + 0xC]
0000314C  43EE FEE0                lea.l      A1, [A6 - 0x120]
00003150  7047                     moveq.l    D0, 0x47
label00003152:
00003152  22D8                     move.l     [A1]+, [A0]+
00003154  51C8 FFFC                dbf        D0, -0x6 /* 00003152 */
00003158  286E 0008                movea.l    A4, [A6 + 0x8]
0000315C  4A2E FEFC                tst.b      [A6 - 0x104]
00003160  6644                     bne        +0x46 /* 000031A6 */
00003162  102C FFF4                move.b     D0, [A4 - 0xC]
00003166  6714                     beq        +0x16 /* 0000317C */
00003168  422C FFF4                clr.b      [A4 - 0xC]
0000316C  2F2C FE96                move.l     -[A7], [A4 - 0x16A]
00003170  2F3C 0000 0004           move.l     -[A7], 0x4
00003176  3F3C 7FFF                move.w     -[A7], 0x7FFF
0000317A  A97E                     syscall    SelectDialogItemText/SelIText
label0000317C:
0000317C  7E14                     moveq.l    D7, 0x14
0000317E  600A                     bra        +0xC /* 0000318A */
label00003180:
00003180  2F2C FE96                move.l     -[A7], [A4 - 0x16A]
00003184  3F07                     move.w     -[A7], D7
00003186  A827                     syscall    HideDialogItem/HideDItem
00003188  5247                     addq.w     D7, 1
label0000318A:
0000318A  7019                     moveq.l    D0, 0x19
0000318C  B047                     cmp.w      D0, D7
0000318E  6CF0                     bge        -0xE /* 00003180 */
00003190  7E1A                     moveq.l    D7, 0x1A
00003192  600A                     bra        +0xC /* 0000319E */
label00003194:
00003194  2F2C FE96                move.l     -[A7], [A4 - 0x16A]
00003198  3F07                     move.w     -[A7], D7
0000319A  A828                     syscall    ShowDialogItem/ShowDItem
0000319C  5247                     addq.w     D7, 1
label0000319E:
0000319E  7025                     moveq.l    D0, 0x25
000031A0  B047                     cmp.w      D0, D7
000031A2  6CF0                     bge        -0xE /* 00003194 */
000031A4  6028                     bra        +0x2A /* 000031CE */
label000031A6:
000031A6  7E1A                     moveq.l    D7, 0x1A
000031A8  600A                     bra        +0xC /* 000031B4 */
label000031AA:
000031AA  2F2C FE96                move.l     -[A7], [A4 - 0x16A]
000031AE  3F07                     move.w     -[A7], D7
000031B0  A827                     syscall    HideDialogItem/HideDItem
000031B2  5247                     addq.w     D7, 1
label000031B4:
000031B4  7025                     moveq.l    D0, 0x25
000031B6  B047                     cmp.w      D0, D7
000031B8  6CF0                     bge        -0xE /* 000031AA */
000031BA  7E14                     moveq.l    D7, 0x14
000031BC  600A                     bra        +0xC /* 000031C8 */
label000031BE:
000031BE  2F2C FE96                move.l     -[A7], [A4 - 0x16A]
000031C2  3F07                     move.w     -[A7], D7
000031C4  A828                     syscall    ShowDialogItem/ShowDItem
000031C6  5247                     addq.w     D7, 1
label000031C8:
000031C8  7019                     moveq.l    D0, 0x19
000031CA  B047                     cmp.w      D0, D7
000031CC  6CF0                     bge        -0xE /* 000031BE */
label000031CE:
000031CE  4CDF 1080                movem.l    D7,A4, [A7]+
000031D2  4E5E                     unlink     A6
000031D4  205F                     movea.l    A0, [A7]+
000031D6  504F                     addq.w     A7, 8
000031D8  4ED0                     jmp        [A0]
fn000031DA:
000031DA  4E56 FFF0                link       A6, -0x0010
000031DE  48E7 0108                movem.l    -[A7], D7,A4
000031E2  286E 0008                movea.l    A4, [A6 + 0x8]
000031E6  7E1A                     moveq.l    D7, 0x1A
000031E8  605E                     bra        +0x60 /* 00003248 */
label000031EA:
000031EA  2F2C FE96                move.l     -[A7], [A4 - 0x16A]
000031EE  3F07                     move.w     -[A7], D7
000031F0  486E FFFC                pea.l      [A6 - 0x4]
000031F4  486E FFF8                pea.l      [A6 - 0x8]
000031F8  486E FFF0                pea.l      [A6 - 0x10]
000031FC  A98D                     syscall    GetDialogItem/GetDItem
000031FE  486E FFF0                pea.l      [A6 - 0x10]
00003202  2F3C FFCE 0000           move.l     -[A7], 0xFFCE0000
00003208  A8A8                     syscall    OffsetRect
0000320A  3007                     move.w     D0, D7
0000320C  6B18                     bmi        +0x1A /* 00003226 */
0000320E  B07C 001F                cmp.w      D0, 0x1F
00003212  6E12                     bgt        +0x14 /* 00003226 */
00003214  41FA 0076                lea.l      A0, [PC + 0x76 /* 0000328C, value 0x4E56FFE8 */]
00003218  3200                     move.w     D1, D0
0000321A  E649                     lsr        D1.w, 3
0000321C  4441                     neg.w      D1
0000321E  0130 10FF                btst       [A0 + D1.w - 0x1], D0
00003222  0A3C 0004                xori.b     ccr, 4
label00003226:
00003226  660A                     bne        +0xC /* 00003232 */
00003228  2F2E FFF8                move.l     -[A7], [A6 - 0x8]
0000322C  2F2E FFF0                move.l     -[A7], [A6 - 0x10]
00003230  A959                     syscall    MoveControl
label00003232:
00003232  2F2C FE96                move.l     -[A7], [A4 - 0x16A]
00003236  3F07                     move.w     -[A7], D7
00003238  3F2E FFFC                move.w     -[A7], [A6 - 0x4]
0000323C  2F2E FFF8                move.l     -[A7], [A6 - 0x8]
00003240  486E FFF0                pea.l      [A6 - 0x10]
00003244  A98E                     syscall    SetDialogItem/SetDItem
00003246  5247                     addq.w     D7, 1
label00003248:
00003248  7025                     moveq.l    D0, 0x25
0000324A  B047                     cmp.w      D0, D7
0000324C  6C9C                     bge        -0x62 /* 000031EA */
0000324E  4A2C FD52                tst.b      [A4 - 0x2AE]
00003252  6616                     bne        +0x18 /* 0000326A */
00003254  7E14                     moveq.l    D7, 0x14
00003256  600A                     bra        +0xC /* 00003262 */
label00003258:
00003258  2F2C FE96                move.l     -[A7], [A4 - 0x16A]
0000325C  3F07                     move.w     -[A7], D7
0000325E  A827                     syscall    HideDialogItem/HideDItem
00003260  5247                     addq.w     D7, 1
label00003262:
00003262  7019                     moveq.l    D0, 0x19
00003264  B047                     cmp.w      D0, D7
00003266  6CF0                     bge        -0xE /* 00003258 */
00003268  6014                     bra        +0x16 /* 0000327E */
label0000326A:
0000326A  7E1A                     moveq.l    D7, 0x1A
0000326C  600A                     bra        +0xC /* 00003278 */
label0000326E:
0000326E  2F2C FE96                move.l     -[A7], [A4 - 0x16A]
00003272  3F07                     move.w     -[A7], D7
00003274  A827                     syscall    HideDialogItem/HideDItem
00003276  5247                     addq.w     D7, 1
label00003278:
00003278  7025                     moveq.l    D0, 0x25
0000327A  B047                     cmp.w      D0, D7
0000327C  6CF0                     bge        -0xE /* 0000326E */
label0000327E:
0000327E  4CDF 1080                movem.l    D7,A4, [A7]+
00003282  4E5E                     unlink     A6
00003284  2E9F                     move.l     [A7], [A7]+
00003286  4E75                     rts
00003288  1800                     move.b     D4, D0
0000328A  0000 4E56                ori.b      D0, 0x56 /* 'V' */
// begin alternate branch 0000328C-00003290
fn0000328C:
0000328C  4E56 FFE8                link       A6, -0x0018
// end alternate branch 0000328C-00003290
fn0000328C: // (misaligned)
0000328E  FFE8                     .invalid   <<F/7/7>>
00003290  48E7 0308                movem.l    -[A7], D6,D7,A4
00003294  206E 0008                movea.l    A0, [A6 + 0x8]
00003298  49E8 FD36                lea.l      A4, [A0 - 0x2CA]
0000329C  1C2C 001A                move.b     D6, [A4 + 0x1A]
000032A0  302E 000C                move.w     D0, [A6 + 0xC]
000032A4  907C 000E                sub.w      D0, 0xE
000032A8  1940 001A                move.b     [A4 + 0x1A], D0
000032AC  BC2C 001A                cmp.b      D6, [A4 + 0x1A]
000032B0  6602                     bne        +0x4 /* 000032B4 */
000032B2  6054                     bra        +0x56 /* 00003308 */
label000032B4:
000032B4  2F2E 0008                move.l     -[A7], [A6 + 0x8]
000032B8  4EBA F988                jsr        [PC - 0x678 /* 00002C42 */]
000032BC  102C 001A                move.b     D0, [A4 + 0x1A]
000032C0  673E                     beq        +0x40 /* 00003300 */
000032C2  102C 001B                move.b     D0, [A4 + 0x1B]
000032C6  4880                     ext.w      D0
000032C8  4A40                     tst.w      D0
000032CA  6B18                     bmi        +0x1A /* 000032E4 */
000032CC  B07C 0007                cmp.w      D0, 0x7
000032D0  6E12                     bgt        +0x14 /* 000032E4 */
000032D2  41FA 0042                lea.l      A0, [PC + 0x42 /* 00003316, value 0x4E56FFEC */]
000032D6  3200                     move.w     D1, D0
000032D8  E649                     lsr        D1.w, 3
000032DA  4441                     neg.w      D1
000032DC  0130 10FF                btst       [A0 + D1.w - 0x1], D0
000032E0  0A3C 0004                xori.b     ccr, 4
label000032E4:
000032E4  57C7                     seq        D7
000032E6  4407                     neg.b      D7
000032E8  1F07                     move.b     -[A7], D7
000032EA  2F2E 0008                move.l     -[A7], [A6 + 0x8]
000032EE  4EBA FAEA                jsr        [PC - 0x516 /* 00002DDA */]
000032F2  1007                     move.b     D0, D7
000032F4  6608                     bne        +0xA /* 000032FE */
000032F6  2F2E 0008                move.l     -[A7], [A6 + 0x8]
000032FA  4EBA FA90                jsr        [PC - 0x570 /* 00002D8C */]
label000032FE:
000032FE  6008                     bra        +0xA /* 00003308 */
label00003300:
00003300  2F2E 0008                move.l     -[A7], [A6 + 0x8]
00003304  4EBA FB70                jsr        [PC - 0x490 /* 00002E76 */]
label00003308:
00003308  4CDF 10C0                movem.l    D6,D7,A4, [A7]+
0000330C  4E5E                     unlink     A6
0000330E  205F                     movea.l    A0, [A7]+
00003310  5C4F                     addq.w     A7, 6
00003312  4ED0                     jmp        [A0]
00003314  000C 4E56                ori.b      A4, 0x56 /* 'V' */
// begin alternate branch 00003316-0000331A
fn00003316:
00003316  4E56 FFEC                link       A6, -0x0014
// end alternate branch 00003316-0000331A
fn00003316: // (misaligned)
00003318  FFEC                     .invalid   <<F/7/7>>
0000331A  48E7 0718                movem.l    -[A7], D5,D6,D7,A3,A4
0000331E  266E 0008                movea.l    A3, [A6 + 0x8]
00003322  49EB FD36                lea.l      A4, [A3 - 0x2CA]
00003326  1A2C 001B                move.b     D5, [A4 + 0x1B]
0000332A  2F2B FE96                move.l     -[A7], [A3 - 0x16A]
0000332E  3F3C 0011                move.w     -[A7], 0x11
00003332  486E FFFC                pea.l      [A6 - 0x4]
00003336  486B FE8E                pea.l      [A3 - 0x172]
0000333A  486E FFF0                pea.l      [A6 - 0x10]
0000333E  A98D                     syscall    GetDialogItem/GetDItem
00003340  4267                     clr.w      -[A7]
00003342  2F2B FE8E                move.l     -[A7], [A3 - 0x172]
00003346  A960                     syscall    GetControlValue/GetCtlValue
00003348  301F                     move.w     D0, [A7]+
0000334A  1C00                     move.b     D6, D0
0000334C  7011                     moveq.l    D0, 0x11
0000334E  B06B FFFC                cmp.w      D0, [A3 - 0x4]
00003352  6610                     bne        +0x12 /* 00003364 */
00003354  0A06 0001                xori.b     D6, 0x1
00003358  2F2B FE8E                move.l     -[A7], [A3 - 0x172]
0000335C  1006                     move.b     D0, D6
0000335E  4880                     ext.w      D0
00003360  3F00                     move.w     -[A7], D0
00003362  A963                     syscall    SetControlValue/SetCtlValue
label00003364:
00003364  2F2B FE96                move.l     -[A7], [A3 - 0x16A]
00003368  3F3C 0012                move.w     -[A7], 0x12
0000336C  486E FFFC                pea.l      [A6 - 0x4]
00003370  486B FE8E                pea.l      [A3 - 0x172]
00003374  486E FFF0                pea.l      [A6 - 0x10]
00003378  A98D                     syscall    GetDialogItem/GetDItem
0000337A  4267                     clr.w      -[A7]
0000337C  2F2B FE8E                move.l     -[A7], [A3 - 0x172]
00003380  A960                     syscall    GetControlValue/GetCtlValue
00003382  301F                     move.w     D0, [A7]+
00003384  1E00                     move.b     D7, D0
00003386  7012                     moveq.l    D0, 0x12
00003388  B06B FFFC                cmp.w      D0, [A3 - 0x4]
0000338C  6610                     bne        +0x12 /* 0000339E */
0000338E  0A07 0001                xori.b     D7, 0x1
00003392  2F2B FE8E                move.l     -[A7], [A3 - 0x172]
00003396  1007                     move.b     D0, D7
00003398  4880                     ext.w      D0
0000339A  3F00                     move.w     -[A7], D0
0000339C  A963                     syscall    SetControlValue/SetCtlValue
label0000339E:
0000339E  1006                     move.b     D0, D6
000033A0  6714                     beq        +0x16 /* 000033B6 */
000033A2  1007                     move.b     D0, D7
000033A4  6708                     beq        +0xA /* 000033AE */
000033A6  197C 0003 001B           move.b     [A4 + 0x1B], 0x3
000033AC  6018                     bra        +0x1A /* 000033C6 */
label000033AE:
000033AE  197C 0001 001B           move.b     [A4 + 0x1B], 0x1
000033B4  6010                     bra        +0x12 /* 000033C6 */
label000033B6:
000033B6  1007                     move.b     D0, D7
000033B8  6708                     beq        +0xA /* 000033C2 */
000033BA  197C 0002 001B           move.b     [A4 + 0x1B], 0x2
000033C0  6004                     bra        +0x6 /* 000033C6 */
label000033C2:
000033C2  422C 001B                clr.b      [A4 + 0x1B]
label000033C6:
000033C6  BA2C 001B                cmp.b      D5, [A4 + 0x1B]
000033CA  6604                     bne        +0x6 /* 000033D0 */
000033CC  6000 00CC                bra        +0xCE /* 0000349A */
label000033D0:
000033D0  2F2E 0008                move.l     -[A7], [A6 + 0x8]
000033D4  4EBA F8F4                jsr        [PC - 0x70C /* 00002CCA */]
000033D8  102C 001A                move.b     D0, [A4 + 0x1A]
000033DC  6700 00AC                beq        +0xAE /* 0000348A */
000033E0  102C 001B                move.b     D0, [A4 + 0x1B]
000033E4  4880                     ext.w      D0
000033E6  4A40                     tst.w      D0
000033E8  6B18                     bmi        +0x1A /* 00003402 */
000033EA  B07C 0007                cmp.w      D0, 0x7
000033EE  6E12                     bgt        +0x14 /* 00003402 */
000033F0  41FA 00B6                lea.l      A0, [PC + 0xB6 /* 000034A8, value 0x4E56FFFE */]
000033F4  3200                     move.w     D1, D0
000033F6  E649                     lsr        D1.w, 3
000033F8  4441                     neg.w      D1
000033FA  0130 10FF                btst       [A0 + D1.w - 0x1], D0
000033FE  0A3C 0004                xori.b     ccr, 4
label00003402:
00003402  57C0                     seq        D0
00003404  1205                     move.b     D1, D5
00003406  4881                     ext.w      D1
00003408  4A41                     tst.w      D1
0000340A  6B18                     bmi        +0x1A /* 00003424 */
0000340C  B27C 0007                cmp.w      D1, 0x7
00003410  6E12                     bgt        +0x14 /* 00003424 */
00003412  41FA 0094                lea.l      A0, [PC + 0x94 /* 000034A8, value 0x4E56FFFE */]
00003416  3401                     move.w     D2, D1
00003418  E64A                     lsr        D2.w, 3
0000341A  4442                     neg.w      D2
0000341C  0330 20FF                btst       [A0 + D2.w - 0x1], D1
00003420  0A3C 0004                xori.b     ccr, 4
label00003424:
00003424  56C1                     sne        D1
00003426  C001                     and.b      D0, D1
00003428  670E                     beq        +0x10 /* 00003438 */
0000342A  1F3C 0001                move.b     -[A7], 0x1
0000342E  2F2E 0008                move.l     -[A7], [A6 + 0x8]
00003432  4EBA F9A6                jsr        [PC - 0x65A /* 00002DDA */]
00003436  6052                     bra        +0x54 /* 0000348A */
label00003438:
00003438  102C 001B                move.b     D0, [A4 + 0x1B]
0000343C  4880                     ext.w      D0
0000343E  4A40                     tst.w      D0
00003440  6B18                     bmi        +0x1A /* 0000345A */
00003442  B07C 0007                cmp.w      D0, 0x7
00003446  6E12                     bgt        +0x14 /* 0000345A */
00003448  41FA 005E                lea.l      A0, [PC + 0x5E /* 000034A8, value 0x4E56FFFE */]
0000344C  3200                     move.w     D1, D0
0000344E  E649                     lsr        D1.w, 3
00003450  4441                     neg.w      D1
00003452  0130 10FF                btst       [A0 + D1.w - 0x1], D0
00003456  0A3C 0004                xori.b     ccr, 4
label0000345A:
0000345A  56C0                     sne        D0
0000345C  1205                     move.b     D1, D5
0000345E  4881                     ext.w      D1
00003460  4A41                     tst.w      D1
00003462  6B18                     bmi        +0x1A /* 0000347C */
00003464  B27C 0007                cmp.w      D1, 0x7
00003468  6E12                     bgt        +0x14 /* 0000347C */
0000346A  41FA 003C                lea.l      A0, [PC + 0x3C /* 000034A8, value 0x4E56FFFE */]
0000346E  3401                     move.w     D2, D1
00003470  E64A                     lsr        D2.w, 3
00003472  4442                     neg.w      D2
00003474  0330 20FF                btst       [A0 + D2.w - 0x1], D1
00003478  0A3C 0004                xori.b     ccr, 4
label0000347C:
0000347C  57C1                     seq        D1
0000347E  C001                     and.b      D0, D1
00003480  6708                     beq        +0xA /* 0000348A */
00003482  2F2E 0008                move.l     -[A7], [A6 + 0x8]
00003486  4EBA F904                jsr        [PC - 0x6FC /* 00002D8C */]
label0000348A:
0000348A  7001                     moveq.l    D0, 0x01
0000348C  B02C 001C                cmp.b      D0, [A4 + 0x1C]
00003490  6608                     bne        +0xA /* 0000349A */
00003492  2F2E 0008                move.l     -[A7], [A6 + 0x8]
00003496  4EBA DC92                jsr        [PC - 0x236E /* 0000112A */]
label0000349A:
0000349A  4CDF 18E0                movem.l    D5,D6,D7,A3,A4, [A7]+
0000349E  4E5E                     unlink     A6
000034A0  205F                     movea.l    A0, [A7]+
000034A2  5C4F                     addq.w     A7, 6
000034A4  4ED0                     jmp        [A0]
000034A6  000C 4E56                ori.b      A4, 0x56 /* 'V' */
// begin alternate branch 000034A8-000034AC
fn000034A8:
000034A8  4E56 FFFE                link       A6, -0x0002
// end alternate branch 000034A8-000034AC
fn000034A8: // (misaligned)
000034AA  FFFE                     .invalid   <<F/7/7>>
000034AC  48E7 0118                movem.l    -[A7], D7,A3,A4
000034B0  266E 0008                movea.l    A3, [A6 + 0x8]
000034B4  49EB FD36                lea.l      A4, [A3 - 0x2CA]
000034B8  1E2C 001C                move.b     D7, [A4 + 0x1C]
000034BC  302E 000C                move.w     D0, [A6 + 0xC]
000034C0  5140                     subq.w     D0, 8
000034C2  1940 001C                move.b     [A4 + 0x1C], D0
000034C6  BE2C 001C                cmp.b      D7, [A4 + 0x1C]
000034CA  6700 0156                beq        +0x158 /* 00003622 */
000034CE  2F2E 0008                move.l     -[A7], [A6 + 0x8]
000034D2  4EBA F71A                jsr        [PC - 0x8E6 /* 00002BEE */]
000034D6  4A07                     tst.b      D7
000034D8  57C0                     seq        D0
000034DA  4A2B FD52                tst.b      [A3 - 0x2AE]
000034DE  57C1                     seq        D1
000034E0  8001                     or.b       D0, D1
000034E2  6710                     beq        +0x12 /* 000034F4 */
000034E4  486B FD36                pea.l      [A3 - 0x2CA]
000034E8  2F2E 0008                move.l     -[A7], [A6 + 0x8]
000034EC  4EBA FC52                jsr        [PC - 0x3AE /* 00003140 */]
000034F0  422B FFF4                clr.b      [A3 - 0xC]
label000034F4:
000034F4  7002                     moveq.l    D0, 0x02
000034F6  B007                     cmp.b      D0, D7
000034F8  6608                     bne        +0xA /* 00003502 */
000034FA  2F2E 0008                move.l     -[A7], [A6 + 0x8]
000034FE  4EBA FB44                jsr        [PC - 0x4BC /* 00003044 */]
label00003502:
00003502  7002                     moveq.l    D0, 0x02
00003504  B02C 001C                cmp.b      D0, [A4 + 0x1C]
00003508  6608                     bne        +0xA /* 00003512 */
0000350A  2F2E 0008                move.l     -[A7], [A6 + 0x8]
0000350E  4EBA FB4E                jsr        [PC - 0x4B2 /* 0000305E */]
label00003512:
00003512  7001                     moveq.l    D0, 0x01
00003514  B02C 001C                cmp.b      D0, [A4 + 0x1C]
00003518  6600 00D4                bne        +0xD6 /* 000035EE */
0000351C  102C 001A                move.b     D0, [A4 + 0x1A]
00003520  666A                     bne        +0x6C /* 0000358C */
00003522  197C 0001 001A           move.b     [A4 + 0x1A], 0x1
00003528  2F2E 0008                move.l     -[A7], [A6 + 0x8]
0000352C  4EBA F714                jsr        [PC - 0x8EC /* 00002C42 */]
00003530  102C 001B                move.b     D0, [A4 + 0x1B]
00003534  4880                     ext.w      D0
00003536  4A40                     tst.w      D0
00003538  6B18                     bmi        +0x1A /* 00003552 */
0000353A  B07C 0007                cmp.w      D0, 0x7
0000353E  6E12                     bgt        +0x14 /* 00003552 */
00003540  41FA 00F6                lea.l      A0, [PC + 0xF6 /* 00003638, value 0x4E56FFF2 */]
00003544  3200                     move.w     D1, D0
00003546  E649                     lsr        D1.w, 3
00003548  4441                     neg.w      D1
0000354A  0130 10FF                btst       [A0 + D1.w - 0x1], D0
0000354E  0A3C 0004                xori.b     ccr, 4
label00003552:
00003552  57C0                     seq        D0
00003554  4400                     neg.b      D0
00003556  1F00                     move.b     -[A7], D0
00003558  2F2E 0008                move.l     -[A7], [A6 + 0x8]
0000355C  4EBA F87C                jsr        [PC - 0x784 /* 00002DDA */]
00003560  102C 001B                move.b     D0, [A4 + 0x1B]
00003564  4880                     ext.w      D0
00003566  4A40                     tst.w      D0
00003568  6B18                     bmi        +0x1A /* 00003582 */
0000356A  B07C 0007                cmp.w      D0, 0x7
0000356E  6E12                     bgt        +0x14 /* 00003582 */
00003570  41FA 00C4                lea.l      A0, [PC + 0xC4 /* 00003636, value 0xC4E56, cstring "" */]
00003574  3200                     move.w     D1, D0
00003576  E649                     lsr        D1.w, 3
00003578  4441                     neg.w      D1
0000357A  0130 10FF                btst       [A0 + D1.w - 0x1], D0
0000357E  0A3C 0004                xori.b     ccr, 4
label00003582:
00003582  6608                     bne        +0xA /* 0000358C */
00003584  2F2E 0008                move.l     -[A7], [A6 + 0x8]
00003588  4EBA F802                jsr        [PC - 0x7FE /* 00002D8C */]
label0000358C:
0000358C  2F3C 00FF 000E           move.l     -[A7], 0xFF000E
00003592  2F2B FE96                move.l     -[A7], [A3 - 0x16A]
00003596  4EAD 0712                jsr        [A5 + 0x712 /* export_222, CODE:4 @ 00002354 */]
0000359A  102C 001B                move.b     D0, [A4 + 0x1B]
0000359E  4880                     ext.w      D0
000035A0  4A40                     tst.w      D0
000035A2  6B18                     bmi        +0x1A /* 000035BC */
000035A4  B07C 0007                cmp.w      D0, 0x7
000035A8  6E12                     bgt        +0x14 /* 000035BC */
000035AA  41FA 0088                lea.l      A0, [PC + 0x88 /* 00003634, value 0x3000C, cstring "" */]
000035AE  3200                     move.w     D1, D0
000035B0  E649                     lsr        D1.w, 3
000035B2  4441                     neg.w      D1
000035B4  0130 10FF                btst       [A0 + D1.w - 0x1], D0
000035B8  0A3C 0004                xori.b     ccr, 4
label000035BC:
000035BC  6622                     bne        +0x24 /* 000035E0 */
000035BE  7001                     moveq.l    D0, 0x01
000035C0  B02C 001B                cmp.b      D0, [A4 + 0x1B]
000035C4  6606                     bne        +0x8 /* 000035CC */
000035C6  422C 001B                clr.b      [A4 + 0x1B]
000035CA  6006                     bra        +0x8 /* 000035D2 */
label000035CC:
000035CC  197C 0002 001B           move.b     [A4 + 0x1B], 0x2
label000035D2:
000035D2  2F3C 0000 0011           move.l     -[A7], 0x11
000035D8  2F2E 0008                move.l     -[A7], [A6 + 0x8]
000035DC  4EBA F5D8                jsr        [PC - 0xA28 /* 00002BB6 */]
label000035E0:
000035E0  2F3C 00FF 0011           move.l     -[A7], 0xFF0011
000035E6  2F2B FE96                move.l     -[A7], [A3 - 0x16A]
000035EA  4EAD 0712                jsr        [A5 + 0x712 /* export_222, CODE:4 @ 00002354 */]
label000035EE:
000035EE  7001                     moveq.l    D0, 0x01
000035F0  B007                     cmp.b      D0, D7
000035F2  661C                     bne        +0x1E /* 00003610 */
000035F4  2F3C 0000 000E           move.l     -[A7], 0xE
000035FA  2F2B FE96                move.l     -[A7], [A3 - 0x16A]
000035FE  4EAD 0712                jsr        [A5 + 0x712 /* export_222, CODE:4 @ 00002354 */]
00003602  2F3C 0000 0011           move.l     -[A7], 0x11
00003608  2F2B FE96                move.l     -[A7], [A3 - 0x16A]
0000360C  4EAD 0712                jsr        [A5 + 0x712 /* export_222, CODE:4 @ 00002354 */]
label00003610:
00003610  4267                     clr.w      -[A7]
00003612  2F2E 0008                move.l     -[A7], [A6 + 0x8]
00003616  4EBA E456                jsr        [PC - 0x1BAA /* 00001A6E */]
0000361A  1D7C 0001 000E           move.b     [A6 + 0xE], 0x1
00003620  6004                     bra        +0x6 /* 00003626 */
label00003622:
00003622  422E 000E                clr.b      [A6 + 0xE]
label00003626:
00003626  4CDF 1880                movem.l    D7,A3,A4, [A7]+
0000362A  4E5E                     unlink     A6
0000362C  205F                     movea.l    A0, [A7]+
0000362E  5C4F                     addq.w     A7, 6
00003630  4ED0                     jmp        [A0]
00003632  000A 0003                ori.b      A2, 0x3
00003636  000C 4E56                ori.b      A4, 0x56 /* 'V' */
// begin alternate branch 00003638-0000363C
fn00003638:
00003638  4E56 FFF2                link       A6, -0x000E
// end alternate branch 00003638-0000363C
fn00003638: // (misaligned)
0000363A  FFF2                     .invalid   <<F/7/7>>
0000363C  2F0C                     move.l     -[A7], A4
0000363E  286E 0008                movea.l    A4, [A6 + 0x8]
00003642  2F2C FE96                move.l     -[A7], [A4 - 0x16A]
00003646  3F3C 001B                move.w     -[A7], 0x1B
0000364A  486E FFFE                pea.l      [A6 - 0x2]
0000364E  486E FFFA                pea.l      [A6 - 0x6]
00003652  486E FFF2                pea.l      [A6 - 0xE]
00003656  A98D                     syscall    GetDialogItem/GetDItem
00003658  2F2E FFFA                move.l     -[A7], [A6 - 0x6]
0000365C  102C FD49                move.b     D0, [A4 - 0x2B7]
00003660  0A00 0001                xori.b     D0, 0x1
00003664  4880                     ext.w      D0
00003666  3F00                     move.w     -[A7], D0
00003668  A963                     syscall    SetControlValue/SetCtlValue
0000366A  2F2C FE96                move.l     -[A7], [A4 - 0x16A]
0000366E  3F3C 001C                move.w     -[A7], 0x1C
00003672  486E FFFE                pea.l      [A6 - 0x2]
00003676  486E FFFA                pea.l      [A6 - 0x6]
0000367A  486E FFF2                pea.l      [A6 - 0xE]
0000367E  A98D                     syscall    GetDialogItem/GetDItem
00003680  2F2E FFFA                move.l     -[A7], [A6 - 0x6]
00003684  102C FD49                move.b     D0, [A4 - 0x2B7]
00003688  4880                     ext.w      D0
0000368A  3F00                     move.w     -[A7], D0
0000368C  A963                     syscall    SetControlValue/SetCtlValue
0000368E  285F                     movea.l    A4, [A7]+
00003690  4E5E                     unlink     A6
00003692  2E9F                     move.l     [A7], [A7]+
00003694  4E75                     rts
fn00003696:
00003696  4E56 0000                link       A6, 0
0000369A  206E 0008                movea.l    A0, [A6 + 0x8]
0000369E  1028 000C                move.b     D0, [A0 + 0xC]
000036A2  6732                     beq        +0x34 /* 000036D6 */
000036A4  206E 000C                movea.l    A0, [A6 + 0xC]
000036A8  2F08                     move.l     -[A7], A0
000036AA  4267                     clr.w      -[A7]
000036AC  2F08                     move.l     -[A7], A0
000036AE  4267                     clr.w      -[A7]
000036B0  226E 000C                movea.l    A1, [A6 + 0xC]
000036B4  3F11                     move.w     -[A7], [A1]
000036B6  4EAD 07FA                jsr        [A5 + 0x7FA /* export_251, CODE:4 @ 0000477A */]
000036BA  301F                     move.w     D0, [A7]+
000036BC  205F                     movea.l    A0, [A7]+
000036BE  48C0                     ext.l      D0
000036C0  2F00                     move.l     -[A7], D0
000036C2  226E 0008                movea.l    A1, [A6 + 0x8]
000036C6  2F29 0008                move.l     -[A7], [A1 + 0x8]
000036CA  4EBA D354                jsr        [PC - 0x2CAC /* 00000A20 */]
000036CE  301F                     move.w     D0, [A7]+
000036D0  205F                     movea.l    A0, [A7]+
000036D2  3080                     move.w     [A0], D0
000036D4  6032                     bra        +0x34 /* 00003708 */
label000036D6:
000036D6  206E 000C                movea.l    A0, [A6 + 0xC]
000036DA  2F08                     move.l     -[A7], A0
000036DC  4267                     clr.w      -[A7]
000036DE  2F08                     move.l     -[A7], A0
000036E0  4267                     clr.w      -[A7]
000036E2  226E 000C                movea.l    A1, [A6 + 0xC]
000036E6  3011                     move.w     D0, [A1]
000036E8  48C0                     ext.l      D0
000036EA  2F00                     move.l     -[A7], D0
000036EC  4EAD 0692                jsr        [A5 + 0x692 /* export_206, CODE:4 @ 00001896 */]
000036F0  301F                     move.w     D0, [A7]+
000036F2  205F                     movea.l    A0, [A7]+
000036F4  3F00                     move.w     -[A7], D0
000036F6  226E 0008                movea.l    A1, [A6 + 0x8]
000036FA  2F29 0008                move.l     -[A7], [A1 + 0x8]
000036FE  4EBA D34A                jsr        [PC - 0x2CB6 /* 00000A4A */]
00003702  301F                     move.w     D0, [A7]+
00003704  205F                     movea.l    A0, [A7]+
00003706  3080                     move.w     [A0], D0
label00003708:
00003708  4E5E                     unlink     A6
0000370A  205F                     movea.l    A0, [A7]+
0000370C  504F                     addq.w     A7, 8
0000370E  4ED0                     jmp        [A0]
fn00003710:
00003710  4E56 0000                link       A6, 0
00003714  2F0C                     move.l     -[A7], A4
00003716  206E 0008                movea.l    A0, [A6 + 0x8]
0000371A  49E8 FD36                lea.l      A4, [A0 - 0x2CA]
0000371E  102E 000C                move.b     D0, [A6 + 0xC]
00003722  B02C 0013                cmp.b      D0, [A4 + 0x13]
00003726  6752                     beq        +0x54 /* 0000377A */
00003728  196E 000C 0013           move.b     [A4 + 0x13], [A6 + 0xC]
0000372E  2F2E 0008                move.l     -[A7], [A6 + 0x8]
00003732  4EBA FF04                jsr        [PC - 0xFC /* 00003638 */]
00003736  486C 0006                pea.l      [A4 + 0x6]
0000373A  2F0E                     move.l     -[A7], A6
0000373C  4EBA FF58                jsr        [PC - 0xA8 /* 00003696 */]
00003740  486C 0008                pea.l      [A4 + 0x8]
00003744  2F0E                     move.l     -[A7], A6
00003746  4EBA FF4E                jsr        [PC - 0xB2 /* 00003696 */]
0000374A  486C 000A                pea.l      [A4 + 0xA]
0000374E  2F0E                     move.l     -[A7], A6
00003750  4EBA FF44                jsr        [PC - 0xBC /* 00003696 */]
00003754  486C 000C                pea.l      [A4 + 0xC]
00003758  2F0E                     move.l     -[A7], A6
0000375A  4EBA FF3A                jsr        [PC - 0xC6 /* 00003696 */]
0000375E  486C 000E                pea.l      [A4 + 0xE]
00003762  2F0E                     move.l     -[A7], A6
00003764  4EBA FF30                jsr        [PC - 0xD0 /* 00003696 */]
00003768  486C 0010                pea.l      [A4 + 0x10]
0000376C  2F0E                     move.l     -[A7], A6
0000376E  4EBA FF26                jsr        [PC - 0xDA /* 00003696 */]
00003772  2F2E 0008                move.l     -[A7], [A6 + 0x8]
00003776  4EBA D532                jsr        [PC - 0x2ACE /* 00000CAA */]
label0000377A:
0000377A  285F                     movea.l    A4, [A7]+
0000377C  4E5E                     unlink     A6
0000377E  205F                     movea.l    A0, [A7]+
00003780  5C4F                     addq.w     A7, 6
00003782  4ED0                     jmp        [A0]
fn00003784:
00003784  4E56 FEE0                link       A6, -0x0120
00003788  2F0C                     move.l     -[A7], A4
0000378A  206E 0010                movea.l    A0, [A6 + 0x10]
0000378E  43EE FEE0                lea.l      A1, [A6 - 0x120]
00003792  7047                     moveq.l    D0, 0x47
label00003794:
00003794  22D8                     move.l     [A1]+, [A0]+
00003796  51C8 FFFC                dbf        D0, -0x6 /* 00003794 */
0000379A  286E 000C                movea.l    A4, [A6 + 0xC]
0000379E  196E FEF2 0012           move.b     [A4 + 0x12], [A6 - 0x10E]
000037A4  196E FEFC 001C           move.b     [A4 + 0x1C], [A6 - 0x104]
000037AA  196E FEFA 001A           move.b     [A4 + 0x1A], [A6 - 0x106]
000037B0  196E FEFB 001B           move.b     [A4 + 0x1B], [A6 - 0x105]
000037B6  196E FEF4 0014           move.b     [A4 + 0x14], [A6 - 0x10C]
000037BC  4A2E FEFC                tst.b      [A6 - 0x104]
000037C0  6742                     beq        +0x44 /* 00003804 */
000037C2  196E FEF7 0017           move.b     [A4 + 0x17], [A6 - 0x109]
000037C8  196E FEF8 0018           move.b     [A4 + 0x18], [A6 - 0x108]
000037CE  41EC 0020                lea.l      A0, [A4 + 0x20]
000037D2  43EE FF00                lea.l      A1, [A6 - 0x100]
000037D6  703F                     moveq.l    D0, 0x3F
label000037D8:
000037D8  20D9                     move.l     [A0]+, [A1]+
000037DA  51C8 FFFC                dbf        D0, -0x6 /* 000037D8 */
000037DE  102E FEFC                move.b     D0, [A6 - 0x104]
000037E2  4880                     ext.w      D0
000037E4  5340                     subq.w     D0, 1
000037E6  6706                     beq        +0x8 /* 000037EE */
000037E8  5340                     subq.w     D0, 1
000037EA  670A                     beq        +0xC /* 000037F6 */
000037EC  6040                     bra        +0x42 /* 0000382E */
label000037EE:
000037EE  396E FEE2 0002           move.w     [A4 + 0x2], [A6 - 0x11E]
000037F4  6038                     bra        +0x3A /* 0000382E */
label000037F6:
000037F6  396E FEE4 0004           move.w     [A4 + 0x4], [A6 - 0x11C]
000037FC  196E FEFD 001D           move.b     [A4 + 0x1D], [A6 - 0x103]
00003802  602A                     bra        +0x2C /* 0000382E */
label00003804:
00003804  196E FEF3 0013           move.b     [A4 + 0x13], [A6 - 0x10D]
0000380A  396E FEE6 0006           move.w     [A4 + 0x6], [A6 - 0x11A]
00003810  396E FEE8 0008           move.w     [A4 + 0x8], [A6 - 0x118]
00003816  396E FEEC 000C           move.w     [A4 + 0xC], [A6 - 0x114]
0000381C  396E FEEA 000A           move.w     [A4 + 0xA], [A6 - 0x116]
00003822  396E FEF0 0010           move.w     [A4 + 0x10], [A6 - 0x110]
00003828  396E FEEE 000E           move.w     [A4 + 0xE], [A6 - 0x112]
label0000382E:
0000382E  285F                     movea.l    A4, [A7]+
00003830  4E5E                     unlink     A6
00003832  205F                     movea.l    A0, [A7]+
00003834  DEFC 000C                add.w      A7, 0xC
00003838  4ED0                     jmp        [A0]
fn0000383A:
0000383A  4E56 0000                link       A6, 0
0000383E  2F0C                     move.l     -[A7], A4
00003840  286E 0008                movea.l    A4, [A6 + 0x8]
00003844  4240                     clr.w      D0
00003846  102C FD56                move.b     D0, [A4 - 0x2AA]
0000384A  4A40                     tst.w      D0
0000384C  57C0                     seq        D0
0000384E  C02C FFF4                and.b      D0, [A4 - 0xC]
00003852  670A                     beq        +0xC /* 0000385E */
00003854  4267                     clr.w      -[A7]
00003856  2F2E 0008                move.l     -[A7], [A6 + 0x8]
0000385A  4EBA E212                jsr        [PC - 0x1DEE /* 00001A6E */]
label0000385E:
0000385E  422C FFF4                clr.b      [A4 - 0xC]
00003862  285F                     movea.l    A4, [A7]+
00003864  4E5E                     unlink     A6
00003866  2E9F                     move.l     [A7], [A7]+
00003868  4E75                     rts
export_259:
0000386A  4E56 F932                link       A6, -0x06CE
0000386E  2F03                     move.l     -[A7], D3
00003870  486E FE92                pea.l      [A6 - 0x16E]
00003874  A874                     syscall    GetPort
label00003876:
00003876  206E 000C                movea.l    A0, [A6 + 0xC]
0000387A  43EE FD36                lea.l      A1, [A6 - 0x2CA]
0000387E  7047                     moveq.l    D0, 0x47
label00003880:
00003880  22D8                     move.l     [A1]+, [A0]+
00003882  51C8 FFFC                dbf        D0, -0x6 /* 00003880 */
00003886  42A7                     clr.l      -[A7]
00003888  3F3C 006A                move.w     -[A7], 0x6A /* 'j' */
0000388C  42A7                     clr.l      -[A7]
0000388E  70FF                     moveq.l    D0, 0xFFFFFFFF
00003890  2F00                     move.l     -[A7], D0
00003892  A97C                     syscall    GetNewDialog
00003894  2D5F FE96                move.l     [A6 - 0x16A], [A7]+
00003898  2F2E FE96                move.l     -[A7], [A6 - 0x16A]
0000389C  4EAD 182A                jsr        [A5 + 0x182A /* export_769, CODE:16 @ 000002AC */]
000038A0  2F2E FE96                move.l     -[A7], [A6 - 0x16A]
000038A4  486E FE56                pea.l      [A6 - 0x1AA]
000038A8  4EAD 074A                jsr        [A5 + 0x74A /* export_229, CODE:4 @ 000026BE */]
000038AC  2F2E FE96                move.l     -[A7], [A6 - 0x16A]
000038B0  3F3C 0004                move.w     -[A7], 0x4
000038B4  486E FFFE                pea.l      [A6 - 0x2]
000038B8  486E FE8E                pea.l      [A6 - 0x172]
000038BC  486E FFDA                pea.l      [A6 - 0x26]
000038C0  A98D                     syscall    GetDialogItem/GetDItem
000038C2  2F2E FE8E                move.l     -[A7], [A6 - 0x172]
000038C6  486E FE9A                pea.l      [A6 - 0x166]
000038CA  A990                     syscall    GetDialogItemText/GetIText
000038CC  2F0E                     move.l     -[A7], A6
000038CE  4EBA F372                jsr        [PC - 0xC8E /* 00002C42 */]
000038D2  2F0E                     move.l     -[A7], A6
000038D4  4EBA F3F4                jsr        [PC - 0xC0C /* 00002CCA */]
000038D8  2F0E                     move.l     -[A7], A6
000038DA  4EBA F312                jsr        [PC - 0xCEE /* 00002BEE */]
000038DE  3F3C 0015                move.w     -[A7], 0x15
000038E2  1F2E FD4D                move.b     -[A7], [A6 - 0x2B3]
000038E6  2F0E                     move.l     -[A7], A6
000038E8  4EBA F2CC                jsr        [PC - 0xD34 /* 00002BB6 */]
000038EC  3F3C 0016                move.w     -[A7], 0x16
000038F0  1F2E FD4E                move.b     -[A7], [A6 - 0x2B2]
000038F4  2F0E                     move.l     -[A7], A6
000038F6  4EBA F2BE                jsr        [PC - 0xD42 /* 00002BB6 */]
000038FA  3F3C 0005                move.w     -[A7], 0x5
000038FE  1F2E FD48                move.b     -[A7], [A6 - 0x2B8]
00003902  2F0E                     move.l     -[A7], A6
00003904  4EBA F2B0                jsr        [PC - 0xD50 /* 00002BB6 */]
00003908  4267                     clr.w      -[A7]
0000390A  4EAD 069A                jsr        [A5 + 0x69A /* export_207, CODE:4 @ 000018BE */]
0000390E  101F                     move.b     D0, [A7]+
00003910  6710                     beq        +0x12 /* 00003922 */
00003912  3F3C 0006                move.w     -[A7], 0x6
00003916  1F2E FD4A                move.b     -[A7], [A6 - 0x2B6]
0000391A  2F0E                     move.l     -[A7], A6
0000391C  4EBA F298                jsr        [PC - 0xD68 /* 00002BB6 */]
00003920  600A                     bra        +0xC /* 0000392C */
label00003922:
00003922  2F2E FE96                move.l     -[A7], [A6 - 0x16A]
00003926  3F3C 0006                move.w     -[A7], 0x6
0000392A  A827                     syscall    HideDialogItem/HideDItem
label0000392C:
0000392C  2F0E                     move.l     -[A7], A6
0000392E  4EBA F8AA                jsr        [PC - 0x756 /* 000031DA */]
00003932  2F0E                     move.l     -[A7], A6
00003934  4EBA FD02                jsr        [PC - 0x2FE /* 00003638 */]
00003938  2F0E                     move.l     -[A7], A6
0000393A  4EBA D36E                jsr        [PC - 0x2C92 /* 00000CAA */]
0000393E  422E FFF3                clr.b      [A6 - 0xD]
00003942  1F3C 0001                move.b     -[A7], 0x1
00003946  486E FD56                pea.l      [A6 - 0x2AA]
0000394A  4EAD 05FA                jsr        [A5 + 0x5FA /* export_187, CODE:4 @ 000004AC */]
0000394E  2F0E                     move.l     -[A7], A6
00003950  4EBA CFB0                jsr        [PC - 0x3050 /* 00000902 */]
00003954  486E FE8A                pea.l      [A6 - 0x176]
00003958  2F0E                     move.l     -[A7], A6
0000395A  4EBA EEF2                jsr        [PC - 0x110E /* 0000284E */]
0000395E  2F2E FE96                move.l     -[A7], [A6 - 0x16A]
00003962  3F3C 0001                move.w     -[A7], 0x1
00003966  486E FFFE                pea.l      [A6 - 0x2]
0000396A  486E FE8E                pea.l      [A6 - 0x172]
0000396E  486E FFDA                pea.l      [A6 - 0x26]
00003972  A98D                     syscall    GetDialogItem/GetDItem
00003974  486E FFDA                pea.l      [A6 - 0x26]
00003978  2F3C FFFC FFFC           move.l     -[A7], 0xFFFCFFFC
0000397E  A8A9                     syscall    InsetRect
00003980  2F2E FE96                move.l     -[A7], [A6 - 0x16A]
00003984  A915                     syscall    ShowWindow
00003986  2F2E FE96                move.l     -[A7], [A6 - 0x16A]
0000398A  A873                     syscall    SetPort
0000398C  2F3C 0003 0003           move.l     -[A7], 0x30003
00003992  A89B                     syscall    PenSize
00003994  486E FFDA                pea.l      [A6 - 0x26]
00003998  2F3C 000F 000F           move.l     -[A7], 0xF000F
0000399E  A8B0                     syscall    FrameRoundRect
000039A0  A89E                     syscall    PenNormal
000039A2  2F2E FE96                move.l     -[A7], [A6 - 0x16A]
000039A6  A981                     syscall    DrawDialog
000039A8  2F2E FE96                move.l     -[A7], [A6 - 0x16A]
000039AC  2F3C 0000 0004           move.l     -[A7], 0x4
000039B2  3F3C 0003                move.w     -[A7], 0x3
000039B6  A97E                     syscall    SelectDialogItemText/SelIText
000039B8  7002                     moveq.l    D0, 0x02
000039BA  B02E FD52                cmp.b      D0, [A6 - 0x2AE]
000039BE  660C                     bne        +0xE /* 000039CC */
000039C0  1F2E FD53                move.b     -[A7], [A6 - 0x2AD]
000039C4  2F0E                     move.l     -[A7], A6
000039C6  4EBA F58A                jsr        [PC - 0xA76 /* 00002F52 */]
000039CA  6006                     bra        +0x8 /* 000039D2 */
label000039CC:
000039CC  2F0E                     move.l     -[A7], A6
000039CE  4EBA F556                jsr        [PC - 0xAAA /* 00002F26 */]
label000039D2:
000039D2  7001                     moveq.l    D0, 0x01
000039D4  B02E FD52                cmp.b      D0, [A6 - 0x2AE]
000039D8  661C                     bne        +0x1E /* 000039F6 */
000039DA  2F3C 00FF 000E           move.l     -[A7], 0xFF000E
000039E0  2F2E FE96                move.l     -[A7], [A6 - 0x16A]
000039E4  4EAD 0712                jsr        [A5 + 0x712 /* export_222, CODE:4 @ 00002354 */]
000039E8  2F3C 00FF 0011           move.l     -[A7], 0xFF0011
000039EE  2F2E FE96                move.l     -[A7], [A6 - 0x16A]
000039F2  4EAD 0712                jsr        [A5 + 0x712 /* export_222, CODE:4 @ 00002354 */]
label000039F6:
000039F6  102E FD50                move.b     D0, [A6 - 0x2B0]
000039FA  675A                     beq        +0x5C /* 00003A56 */
000039FC  102E FD51                move.b     D0, [A6 - 0x2AF]
00003A00  4880                     ext.w      D0
00003A02  4A40                     tst.w      D0
00003A04  6B18                     bmi        +0x1A /* 00003A1E */
00003A06  B07C 0007                cmp.w      D0, 0x7
00003A0A  6E12                     bgt        +0x14 /* 00003A1E */
00003A0C  41FA 04F4                lea.l      A0, [PC + 0x4F4 /* 00003F02, value 0x34E56, cstring "" */]
00003A10  3200                     move.w     D1, D0
00003A12  E649                     lsr        D1.w, 3
00003A14  4441                     neg.w      D1
00003A16  0130 10FF                btst       [A0 + D1.w - 0x1], D0
00003A1A  0A3C 0004                xori.b     ccr, 4
label00003A1E:
00003A1E  57C0                     seq        D0
00003A20  4400                     neg.b      D0
00003A22  1F00                     move.b     -[A7], D0
00003A24  2F0E                     move.l     -[A7], A6
00003A26  4EBA F3B2                jsr        [PC - 0xC4E /* 00002DDA */]
00003A2A  102E FD51                move.b     D0, [A6 - 0x2AF]
00003A2E  4880                     ext.w      D0
00003A30  4A40                     tst.w      D0
00003A32  6B18                     bmi        +0x1A /* 00003A4C */
00003A34  B07C 0007                cmp.w      D0, 0x7
00003A38  6E12                     bgt        +0x14 /* 00003A4C */
00003A3A  41FA 04C8                lea.l      A0, [PC + 0x4C8 /* 00003F04, value 0x4E560000 'NV\0\0', cstring "NV" */]
00003A3E  3200                     move.w     D1, D0
00003A40  E649                     lsr        D1.w, 3
00003A42  4441                     neg.w      D1
00003A44  0130 10FF                btst       [A0 + D1.w - 0x1], D0
00003A48  0A3C 0004                xori.b     ccr, 4
label00003A4C:
00003A4C  6606                     bne        +0x8 /* 00003A54 */
00003A4E  2F0E                     move.l     -[A7], A6
00003A50  4EBA F33A                jsr        [PC - 0xCC6 /* 00002D8C */]
label00003A54:
00003A54  6006                     bra        +0x8 /* 00003A5C */
label00003A56:
00003A56  2F0E                     move.l     -[A7], A6
00003A58  4EBA F41C                jsr        [PC - 0xBE4 /* 00002E76 */]
label00003A5C:
00003A5C  2F2E FE96                move.l     -[A7], [A6 - 0x16A]
00003A60  3F3C 0019                move.w     -[A7], 0x19
00003A64  486E FD56                pea.l      [A6 - 0x2AA]
00003A68  3F3C 0004                move.w     -[A7], 0x4
00003A6C  4EAD 07C2                jsr        [A5 + 0x7C2 /* export_244, CODE:4 @ 00004230 */]
00003A70  486D DC1C                pea.l      [A5 - 0x23E4]
00003A74  4EBA C74C                jsr        [PC - 0x38B4 /* 000001C2 */]
00003A78  4267                     clr.w      -[A7]
00003A7A  2F0E                     move.l     -[A7], A6
00003A7C  4EBA DFF0                jsr        [PC - 0x2010 /* 00001A6E */]
00003A80  4EAD 1862                jsr        [A5 + 0x1862 /* export_776, CODE:16 @ 00000474 */]
00003A84  206E FE96                movea.l    A0, [A6 - 0x16A]
00003A88  4868 0010                pea.l      [A0 + 0x10]
00003A8C  A92A                     syscall    ValidRect
00003A8E  422E FFF4                clr.b      [A6 - 0xC]
00003A92  422E FFF1                clr.b      [A6 - 0xF]
label00003A96:
00003A96  42A7                     clr.l      -[A7]
00003A98  486E FFFC                pea.l      [A6 - 0x4]
00003A9C  A991                     syscall    ModalDialog
00003A9E  302E FFFC                move.w     D0, [A6 - 0x4]
00003AA2  5340                     subq.w     D0, 1
00003AA4  6B00 02FE                bmi        +0x300 /* 00003DA4 */
00003AA8  0C40 0025                cmpi.w     D0, 0x25 /* '%' */
00003AAC  6E00 02F6                bgt        +0x2F8 /* 00003DA4 */
00003AB0  D040                     add.w      D0, D0
00003AB2  303B 0006                move.w     D0, [PC + D0.w + 0x6]
00003AB6  4EFB 0000                jmp        [PC + D0.w]
00003ABA  004E 02EC                ori.w      A6, 0x2EC
00003ABE  02EC                     .incomplete
00003AC0  0074 0092 00B0           ori.w      [A4 + D0.w - 0x50], 0x92
00003AC6  02EC                     .incomplete
00003AC8  00CE                     .incomplete
00003ACA  00CE                     .incomplete
00003ACC  00CE                     .incomplete
00003ACE  00E8                     .incomplete
00003AD0  00FE                     .incomplete
00003AD2  02EC                     .incomplete
00003AD4  0106                     btst       D6, D0
00003AD6  0106                     btst       D6, D0
00003AD8  02EC                     .incomplete
00003ADA  011A                     btst       [A2]+, D0
00003ADC  011A                     btst       [A2]+, D0
00003ADE  012E 02EC                btst       [A6 + 0x2EC], D0
00003AE2  0198                     bclr       [A0]+, D0
00003AE4  01DA                     .incomplete
00003AE6  02EC                     .incomplete
00003AE8  023E 025A                andi.b     <<invalid special address>>, 0x5A /* 'Z' */
00003AEC  02EC                     .incomplete
00003AEE  02C2                     .incomplete
00003AF0  02C2                     .incomplete
00003AF2  02EC                     .incomplete
00003AF4  02EC                     .incomplete
00003AF6  02EC                     .incomplete
00003AF8  02EC                     .incomplete
00003AFA  02EC                     .incomplete
00003AFC  02EC                     .incomplete
00003AFE  02EC                     .incomplete
00003B00  02EC                     .incomplete
00003B02  02EC                     .incomplete
00003B04  02D4                     .incomplete
00003B06  4240                     clr.w      D0
00003B08  102E FD56                move.b     D0, [A6 - 0x2AA]
00003B0C  4A40                     tst.w      D0
00003B0E  57C0                     seq        D0
00003B10  C02E FFF4                and.b      D0, [A6 - 0xC]
00003B14  6708                     beq        +0xA /* 00003B1E */
00003B16  4267                     clr.w      -[A7]
00003B18  2F0E                     move.l     -[A7], A6
00003B1A  4EBA DF52                jsr        [PC - 0x20AE /* 00001A6E */]
label00003B1E:
00003B1E  2F2E 0008                move.l     -[A7], [A6 + 0x8]
00003B22  2F0E                     move.l     -[A7], A6
00003B24  4EBA EFEA                jsr        [PC - 0x1016 /* 00002B10 */]
00003B28  6000 0280                bra        +0x282 /* 00003DAA */
00003B2C  2F0E                     move.l     -[A7], A6
00003B2E  4EBA FD0A                jsr        [PC - 0x2F6 /* 0000383A */]
00003B32  2F2E FE96                move.l     -[A7], [A6 - 0x16A]
00003B36  3F2E FFFC                move.w     -[A7], [A6 - 0x4]
00003B3A  3F3C 0002                move.w     -[A7], 0x2
00003B3E  486E FE9A                pea.l      [A6 - 0x166]
00003B42  4EAD 065A                jsr        [A5 + 0x65A /* export_199, CODE:4 @ 00001528 */]
00003B46  6000 0262                bra        +0x264 /* 00003DAA */
00003B4A  2F0E                     move.l     -[A7], A6
00003B4C  4EBA FCEC                jsr        [PC - 0x314 /* 0000383A */]
00003B50  0A2E 0001 FD48           xori.b     [A6 - 0x2B8], 0x1
00003B56  3F3C 0005                move.w     -[A7], 0x5
00003B5A  1F2E FD48                move.b     -[A7], [A6 - 0x2B8]
00003B5E  2F0E                     move.l     -[A7], A6
00003B60  4EBA F054                jsr        [PC - 0xFAC /* 00002BB6 */]
00003B64  6000 0244                bra        +0x246 /* 00003DAA */
00003B68  2F0E                     move.l     -[A7], A6
00003B6A  4EBA FCCE                jsr        [PC - 0x332 /* 0000383A */]
00003B6E  0A2E 0001 FD4A           xori.b     [A6 - 0x2B6], 0x1
00003B74  3F3C 0006                move.w     -[A7], 0x6
00003B78  1F2E FD4A                move.b     -[A7], [A6 - 0x2B6]
00003B7C  2F0E                     move.l     -[A7], A6
00003B7E  4EBA F036                jsr        [PC - 0xFCA /* 00002BB6 */]
00003B82  6000 0226                bra        +0x228 /* 00003DAA */
00003B86  4267                     clr.w      -[A7]
00003B88  3F2E FFFC                move.w     -[A7], [A6 - 0x4]
00003B8C  2F0E                     move.l     -[A7], A6
00003B8E  4EBA F918                jsr        [PC - 0x6E8 /* 000034A8 */]
00003B92  101F                     move.b     D0, [A7]+
00003B94  6606                     bne        +0x8 /* 00003B9C */
00003B96  2F0E                     move.l     -[A7], A6
00003B98  4EBA FCA0                jsr        [PC - 0x360 /* 0000383A */]
label00003B9C:
00003B9C  6000 020C                bra        +0x20E /* 00003DAA */
00003BA0  4267                     clr.w      -[A7]
00003BA2  2F0E                     move.l     -[A7], A6
00003BA4  4EBA F4DA                jsr        [PC - 0xB26 /* 00003080 */]
00003BA8  101F                     move.b     D0, [A7]+
00003BAA  6606                     bne        +0x8 /* 00003BB2 */
00003BAC  2F0E                     move.l     -[A7], A6
00003BAE  4EBA FC8A                jsr        [PC - 0x376 /* 0000383A */]
label00003BB2:
00003BB2  6000 01F6                bra        +0x1F8 /* 00003DAA */
00003BB6  422E 0014                clr.b      [A6 + 0x14]
00003BBA  6000 01EE                bra        +0x1F0 /* 00003DAA */
00003BBE  3F2E FFFC                move.w     -[A7], [A6 - 0x4]
00003BC2  2F0E                     move.l     -[A7], A6
00003BC4  4EBA F6C6                jsr        [PC - 0x93A /* 0000328C */]
00003BC8  2F0E                     move.l     -[A7], A6
00003BCA  4EBA FC6E                jsr        [PC - 0x392 /* 0000383A */]
00003BCE  6000 01DA                bra        +0x1DC /* 00003DAA */
00003BD2  3F2E FFFC                move.w     -[A7], [A6 - 0x4]
00003BD6  2F0E                     move.l     -[A7], A6
00003BD8  4EBA F73C                jsr        [PC - 0x8C4 /* 00003316 */]
00003BDC  2F0E                     move.l     -[A7], A6
00003BDE  4EBA FC5A                jsr        [PC - 0x3A6 /* 0000383A */]
00003BE2  6000 01C6                bra        +0x1C8 /* 00003DAA */
00003BE6  2F0E                     move.l     -[A7], A6
00003BE8  4EBA FC50                jsr        [PC - 0x3B0 /* 0000383A */]
00003BEC  102E FD51                move.b     D0, [A6 - 0x2AF]
00003BF0  4880                     ext.w      D0
00003BF2  4A40                     tst.w      D0
00003BF4  6B18                     bmi        +0x1A /* 00003C0E */
00003BF6  B07C 0007                cmp.w      D0, 0x7
00003BFA  6E12                     bgt        +0x14 /* 00003C0E */
00003BFC  41FA 0304                lea.l      A0, [PC + 0x304 /* 00003F02, value 0x34E56, cstring "" */]
00003C00  3200                     move.w     D1, D0
00003C02  E649                     lsr        D1.w, 3
00003C04  4441                     neg.w      D1
00003C06  0130 10FF                btst       [A0 + D1.w - 0x1], D0
00003C0A  0A3C 0004                xori.b     ccr, 4
label00003C0E:
00003C0E  57C0                     seq        D0
00003C10  C02E FD50                and.b      D0, [A6 - 0x2B0]
00003C14  6736                     beq        +0x38 /* 00003C4C */
00003C16  486E FFE6                pea.l      [A6 - 0x1A]
00003C1A  A972                     syscall    GetMouse
00003C1C  4267                     clr.w      -[A7]
00003C1E  2F2E FFE6                move.l     -[A7], [A6 - 0x1A]
00003C22  4267                     clr.w      -[A7]
00003C24  4EAD 0662                jsr        [A5 + 0x662 /* export_200, CODE:4 @ 00001596 */]
00003C28  2F2E FE8A                move.l     -[A7], [A6 - 0x176]
00003C2C  4EAD 0112                jsr        [A5 + 0x112 /* export_30, CODE:1 @ 00003D70 */]
00003C30  1D5F FFF2                move.b     [A6 - 0xE], [A7]+
00003C34  4267                     clr.w      -[A7]
00003C36  2F0E                     move.l     -[A7], A6
00003C38  4EBA D260                jsr        [PC - 0x2DA0 /* 00000E9A */]
00003C3C  101F                     move.b     D0, [A7]+
00003C3E  670C                     beq        +0xE /* 00003C4C */
00003C40  2F0E                     move.l     -[A7], A6
00003C42  4EBA D15A                jsr        [PC - 0x2EA6 /* 00000D9E */]
00003C46  2F0E                     move.l     -[A7], A6
00003C48  4EBA D4E0                jsr        [PC - 0x2B20 /* 0000112A */]
label00003C4C:
00003C4C  6000 015C                bra        +0x15E /* 00003DAA */
00003C50  0A2E 0001 FD4D           xori.b     [A6 - 0x2B3], 0x1
00003C56  3F3C 0015                move.w     -[A7], 0x15
00003C5A  1F2E FD4D                move.b     -[A7], [A6 - 0x2B3]
00003C5E  2F0E                     move.l     -[A7], A6
00003C60  4EBA EF54                jsr        [PC - 0x10AC /* 00002BB6 */]
00003C64  2F0E                     move.l     -[A7], A6
00003C66  4EBA D136                jsr        [PC - 0x2ECA /* 00000D9E */]
00003C6A  4240                     clr.w      D0
00003C6C  102E FD56                move.b     D0, [A6 - 0x2AA]
00003C70  4A40                     tst.w      D0
00003C72  57C0                     seq        D0
00003C74  C02E FFF4                and.b      D0, [A6 - 0xC]
00003C78  670A                     beq        +0xC /* 00003C84 */
00003C7A  4267                     clr.w      -[A7]
00003C7C  2F0E                     move.l     -[A7], A6
00003C7E  4EBA DDEE                jsr        [PC - 0x2212 /* 00001A6E */]
00003C82  6006                     bra        +0x8 /* 00003C8A */
label00003C84:
00003C84  2F0E                     move.l     -[A7], A6
00003C86  4EBA D4A2                jsr        [PC - 0x2B5E /* 0000112A */]
label00003C8A:
00003C8A  422E FFF4                clr.b      [A6 - 0xC]
00003C8E  6000 011A                bra        +0x11C /* 00003DAA */
00003C92  0A2E 0001 FD4E           xori.b     [A6 - 0x2B2], 0x1
00003C98  3F3C 0016                move.w     -[A7], 0x16
00003C9C  1F2E FD4E                move.b     -[A7], [A6 - 0x2B2]
00003CA0  2F0E                     move.l     -[A7], A6
00003CA2  4EBA EF12                jsr        [PC - 0x10EE /* 00002BB6 */]
00003CA6  4240                     clr.w      D0
00003CA8  102E FD56                move.b     D0, [A6 - 0x2AA]
00003CAC  4A40                     tst.w      D0
00003CAE  57C0                     seq        D0
00003CB0  C02E FFF4                and.b      D0, [A6 - 0xC]
00003CB4  7201                     moveq.l    D1, 0x01
00003CB6  B22E FD52                cmp.b      D1, [A6 - 0x2AE]
00003CBA  57C1                     seq        D1
00003CBC  8001                     or.b       D0, D1
00003CBE  0240 0001                andi.w     D0, 0x1
00003CC2  670A                     beq        +0xC /* 00003CCE */
00003CC4  4267                     clr.w      -[A7]
00003CC6  2F0E                     move.l     -[A7], A6
00003CC8  4EBA DDA4                jsr        [PC - 0x225C /* 00001A6E */]
00003CCC  6020                     bra        +0x22 /* 00003CEE */
label00003CCE:
00003CCE  7002                     moveq.l    D0, 0x02
00003CD0  B02E FD52                cmp.b      D0, [A6 - 0x2AE]
00003CD4  6618                     bne        +0x1A /* 00003CEE */
00003CD6  3F3C 000A                move.w     -[A7], 0xA /* '\n' */
00003CDA  A89C                     syscall    PenMode
00003CDC  486E FF9A                pea.l      [A6 - 0x66]
00003CE0  A89D                     syscall    PenPat
00003CE2  1F3C 0001                move.b     -[A7], 0x1
00003CE6  2F0E                     move.l     -[A7], A6
00003CE8  4EBA D8FC                jsr        [PC - 0x2704 /* 000015E6 */]
00003CEC  A89E                     syscall    PenNormal
label00003CEE:
00003CEE  422E FFF4                clr.b      [A6 - 0xC]
00003CF2  6000 00B6                bra        +0xB8 /* 00003DAA */
00003CF6  4A2E FD52                tst.b      [A6 - 0x2AE]
00003CFA  6712                     beq        +0x14 /* 00003D0E */
00003CFC  2F2E FE96                move.l     -[A7], [A6 - 0x16A]
00003D00  2F3C 0019 0018           move.l     -[A7], 0x190018
00003D06  1F2E FFF4                move.b     -[A7], [A6 - 0xC]
00003D0A  4EBA C894                jsr        [PC - 0x376C /* 000005A0 */]
label00003D0E:
00003D0E  6000 009A                bra        +0x9C /* 00003DAA */
00003D12  2F2E FE96                move.l     -[A7], [A6 - 0x16A]
00003D16  3F3C 0019                move.w     -[A7], 0x19
00003D1A  486E FFFE                pea.l      [A6 - 0x2]
00003D1E  486E FE8E                pea.l      [A6 - 0x172]
00003D22  486E FFDA                pea.l      [A6 - 0x26]
00003D26  A98D                     syscall    GetDialogItem/GetDItem
00003D28  2F2E FE8E                move.l     -[A7], [A6 - 0x172]
00003D2C  486E FD56                pea.l      [A6 - 0x2AA]
00003D30  4EAD 066A                jsr        [A5 + 0x66A /* export_201, CODE:4 @ 000015DA */]
00003D34  102E FFF4                move.b     D0, [A6 - 0xC]
00003D38  0A00 0001                xori.b     D0, 0x1
00003D3C  4241                     clr.w      D1
00003D3E  122E FD56                move.b     D1, [A6 - 0x2AA]
00003D42  4A41                     tst.w      D1
00003D44  57C1                     seq        D1
00003D46  4242                     clr.w      D2
00003D48  142E FD56                move.b     D2, [A6 - 0x2AA]
00003D4C  7601                     moveq.l    D3, 0x01
00003D4E  B642                     cmp.w      D3, D2
00003D50  57C2                     seq        D2
00003D52  8202                     or.b       D1, D2
00003D54  C001                     and.b      D0, D1
00003D56  670C                     beq        +0xE /* 00003D64 */
00003D58  1F3C 0001                move.b     -[A7], 0x1
00003D5C  2F0E                     move.l     -[A7], A6
00003D5E  4EBA DD0E                jsr        [PC - 0x22F2 /* 00001A6E */]
00003D62  600E                     bra        +0x10 /* 00003D72 */
label00003D64:
00003D64  486D DC14                pea.l      [A5 - 0x23EC]
00003D68  A8A3                     syscall    EraseRect
00003D6A  486E FD56                pea.l      [A6 - 0x2AA]
00003D6E  4EBA C496                jsr        [PC - 0x3B6A /* 00000206 */]
label00003D72:
00003D72  1D7C 0001 FFF4           move.b     [A6 - 0xC], 0x1
00003D78  6030                     bra        +0x32 /* 00003DAA */
00003D7A  302E FFFC                move.w     D0, [A6 - 0x4]
00003D7E  907C 001B                sub.w      D0, 0x1B
00003D82  1F00                     move.b     -[A7], D0
00003D84  2F0E                     move.l     -[A7], A6
00003D86  4EBA F988                jsr        [PC - 0x678 /* 00003710 */]
00003D8A  601E                     bra        +0x20 /* 00003DAA */
00003D8C  4267                     clr.w      -[A7]
00003D8E  2F0E                     move.l     -[A7], A6
00003D90  4EBA E8B8                jsr        [PC - 0x1748 /* 0000264A */]
00003D94  101F                     move.b     D0, [A7]+
00003D96  6606                     bne        +0x8 /* 00003D9E */
00003D98  2F0E                     move.l     -[A7], A6
00003D9A  4EBA FA9E                jsr        [PC - 0x562 /* 0000383A */]
label00003D9E:
00003D9E  422E FFF4                clr.b      [A6 - 0xC]
00003DA2  6006                     bra        +0x8 /* 00003DAA */
label00003DA4:
00003DA4  2F0E                     move.l     -[A7], A6
00003DA6  4EBA FA92                jsr        [PC - 0x56E /* 0000383A */]
label00003DAA:
00003DAA  7001                     moveq.l    D0, 0x01
00003DAC  B06E FFFC                cmp.w      D0, [A6 - 0x4]
00003DB0  57C0                     seq        D0
00003DB2  720C                     moveq.l    D1, 0x0C
00003DB4  B26E FFFC                cmp.w      D1, [A6 - 0x4]
00003DB8  57C1                     seq        D1
00003DBA  8001                     or.b       D0, D1
00003DBC  6700 FCD8                beq        -0x326 /* 00003A96 */
00003DC0  2F2E FE8A                move.l     -[A7], [A6 - 0x176]
00003DC4  4EAD 0102                jsr        [A5 + 0x102 /* export_28, CODE:1 @ 00003D78 */]
00003DC8  2F2E FE96                move.l     -[A7], [A6 - 0x16A]
00003DCC  4EAD 201A                jsr        [A5 + 0x201A /* export_1023, CODE:20 @ 000002FA */]
00003DD0  2F2E FE92                move.l     -[A7], [A6 - 0x16E]
00003DD4  A873                     syscall    SetPort
00003DD6  41ED E2F2                lea.l      A0, [A5 - 0x1D0E]
00003DDA  43ED ED82                lea.l      A1, [A5 - 0x127E]
00003DDE  20D9                     move.l     [A0]+, [A1]+
00003DE0  20D9                     move.l     [A0]+, [A1]+
00003DE2  4EAD 0732                jsr        [A5 + 0x732 /* export_226, CODE:4 @ 0000248E */]
00003DE6  7001                     moveq.l    D0, 0x01
00003DE8  B06E FFFC                cmp.w      D0, [A6 - 0x4]
00003DEC  6600 00CC                bne        +0xCE /* 00003EBA */
00003DF0  4A2E FD51                tst.b      [A6 - 0x2AF]
00003DF4  57C0                     seq        D0
00003DF6  7202                     moveq.l    D1, 0x02
00003DF8  B22E FD51                cmp.b      D1, [A6 - 0x2AF]
00003DFC  57C1                     seq        D1
00003DFE  C22E FD50                and.b      D1, [A6 - 0x2B0]
00003E02  206E 0008                movea.l    A0, [A6 + 0x8]
00003E06  4A50                     tst.w      [A0]
00003E08  5FC2                     sle        D2
00003E0A  C202                     and.b      D1, D2
00003E0C  8001                     or.b       D0, D1
00003E0E  122E FD52                move.b     D1, [A6 - 0x2AE]
00003E12  4881                     ext.w      D1
00003E14  4A41                     tst.w      D1
00003E16  6B18                     bmi        +0x1A /* 00003E30 */
00003E18  B27C 0007                cmp.w      D1, 0x7
00003E1C  6E12                     bgt        +0x14 /* 00003E30 */
00003E1E  41FA 00E0                lea.l      A0, [PC + 0xE0 /* 00003F00, value 0xC0003, cstring "" */]
00003E22  3401                     move.w     D2, D1
00003E24  E64A                     lsr        D2.w, 3
00003E26  4442                     neg.w      D2
00003E28  0330 20FF                btst       [A0 + D2.w - 0x1], D1
00003E2C  0A3C 0004                xori.b     ccr, 4
label00003E30:
00003E30  57C1                     seq        D1
00003E32  C22E FD4D                and.b      D1, [A6 - 0x2B3]
00003E36  0A01 0001                xori.b     D1, 0x1
00003E3A  C001                     and.b      D0, D1
00003E3C  6736                     beq        +0x38 /* 00003E74 */
00003E3E  486E F932                pea.l      [A6 - 0x6CE]
00003E42  3F3C 0015                move.w     -[A7], 0x15
00003E46  4EAD 070A                jsr        [A5 + 0x70A /* export_221, CODE:4 @ 00002328 */]
00003E4A  487A 00B0                pea.l      [PC + 0xB0 /* 00003EFC, value 0x6, cstring "" */]
00003E4E  487A 00AC                pea.l      [PC + 0xAC /* 00003EFC, value 0x6, cstring "" */]
00003E52  487A 00A8                pea.l      [PC + 0xA8 /* 00003EFC, value 0x6, cstring "" */]
00003E56  4EAD 06FA                jsr        [A5 + 0x6FA /* export_219, CODE:4 @ 000021C2 */]
00003E5A  2F2E FE92                move.l     -[A7], [A6 - 0x16E]
00003E5E  A873                     syscall    SetPort
00003E60  41ED E2F2                lea.l      A0, [A5 - 0x1D0E]
00003E64  43ED ED82                lea.l      A1, [A5 - 0x127E]
00003E68  20D9                     move.l     [A0]+, [A1]+
00003E6A  20D9                     move.l     [A0]+, [A1]+
00003E6C  4EAD 0732                jsr        [A5 + 0x732 /* export_226, CODE:4 @ 0000248E */]
00003E70  6000 FA04                bra        -0x5FA /* 00003876 */
label00003E74:
00003E74  1D7C 0001 0014           move.b     [A6 + 0x14], 0x1
00003E7A  486E FE9A                pea.l      [A6 - 0x166]
00003E7E  486E FFEA                pea.l      [A6 - 0x16]
00003E82  4EAD 045A                jsr        [A5 + 0x45A /* export_135, CODE:1 @ 00004D96 */]
00003E86  3B6E FFEC DC4E           move.w     [A5 - 0x23B2], [A6 - 0x14]
00003E8C  486E FD36                pea.l      [A6 - 0x2CA]
00003E90  2F2E 000C                move.l     -[A7], [A6 + 0xC]
00003E94  2F0E                     move.l     -[A7], A6
00003E96  4EBA F8EC                jsr        [PC - 0x714 /* 00003784 */]
00003E9A  206E 0010                movea.l    A0, [A6 + 0x10]
00003E9E  2F10                     move.l     -[A7], [A0]
00003EA0  206E 000C                movea.l    A0, [A6 + 0xC]
00003EA4  1F28 0012                move.b     -[A7], [A0 + 0x12]
00003EA8  4EAD 07DA                jsr        [A5 + 0x7DA /* export_247, CODE:4 @ 000043CC */]
00003EAC  206E 0010                movea.l    A0, [A6 + 0x10]
00003EB0  2F10                     move.l     -[A7], [A0]
00003EB2  3F2E FD36                move.w     -[A7], [A6 - 0x2CA]
00003EB6  4EAD 07AA                jsr        [A5 + 0x7AA /* export_241, CODE:4 @ 0000414E */]
label00003EBA:
00003EBA  4267                     clr.w      -[A7]
00003EBC  4EAD 072A                jsr        [A5 + 0x72A /* export_225, CODE:4 @ 00002474 */]
00003EC0  4267                     clr.w      -[A7]
00003EC2  206E 0010                movea.l    A0, [A6 + 0x10]
00003EC6  2F10                     move.l     -[A7], [A0]
00003EC8  4EAD 015A                jsr        [A5 + 0x15A /* export_39, CODE:1 @ 00003E00 */]
00003ECC  1D5F FFF5                move.b     [A6 - 0xB], [A7]+
00003ED0  4EAD 0792                jsr        [A5 + 0x792 /* export_238, CODE:4 @ 00003EEE */]
00003ED4  4A6D DC30                tst.w      [A5 - 0x23D0]
00003ED8  6704                     beq        +0x6 /* 00003EDE */
00003EDA  422E 0014                clr.b      [A6 + 0x14]
label00003EDE:
00003EDE  2F2E FE92                move.l     -[A7], [A6 - 0x16E]
00003EE2  A873                     syscall    SetPort
00003EE4  2F2D ECE4                move.l     -[A7], [A5 - 0x131C]
00003EE8  486D ED82                pea.l      [A5 - 0x127E]
00003EEC  4EAD 158A                jsr        [A5 + 0x158A /* export_685, CODE:15 @ 000006FE */]
00003EF0  261F                     move.l     D3, [A7]+
00003EF2  4E5E                     unlink     A6
00003EF4  205F                     movea.l    A0, [A7]+
00003EF6  DEFC 000C                add.w      A7, 0xC
00003EFA  4ED0                     jmp        [A0]
00003EFC  0000 0006                ori.b      D0, 0x6
00003F00  000C 0003                ori.b      A4, 0x3
fn00003F04:
00003F04  4E56 0000                link       A6, 0
00003F08  42A7                     clr.l      -[A7]
00003F0A  7001                     moveq.l    D0, 0x01
00003F0C  2F00                     move.l     -[A7], D0
00003F0E  4EBA 0FA2                jsr        [PC + 0xFA2 /* 00004EB2 */]
00003F12  301F                     move.w     D0, [A7]+
00003F14  48C0                     ext.l      D0
00003F16  81FC 0002                divs.w     D0, 0x2
00003F1A  D06E 0008                add.w      D0, [A6 + 0x8]
00003F1E  5240                     addq.w     D0, 1
00003F20  48C0                     ext.l      D0
00003F22  2F00                     move.l     -[A7], D0
00003F24  4EBA 003E                jsr        [PC + 0x3E /* 00003F64 */]
00003F28  3D5F 000A                move.w     [A6 + 0xA], [A7]+
00003F2C  4E5E                     unlink     A6
00003F2E  205F                     movea.l    A0, [A7]+
00003F30  544F                     addq.w     A7, 2
00003F32  4ED0                     jmp        [A0]
fn00003F34:
00003F34  4E56 0000                link       A6, 0
00003F38  42A7                     clr.l      -[A7]
00003F3A  7001                     moveq.l    D0, 0x01
00003F3C  2F00                     move.l     -[A7], D0
00003F3E  4EBA 0FA2                jsr        [PC + 0xFA2 /* 00004EE2 */]
00003F42  301F                     move.w     D0, [A7]+
00003F44  48C0                     ext.l      D0
00003F46  81FC 0002                divs.w     D0, 0x2
00003F4A  D06E 0008                add.w      D0, [A6 + 0x8]
00003F4E  5240                     addq.w     D0, 1
00003F50  48C0                     ext.l      D0
00003F52  2F00                     move.l     -[A7], D0
00003F54  4EBA 003E                jsr        [PC + 0x3E /* 00003F94 */]
00003F58  3D5F 000A                move.w     [A6 + 0xA], [A7]+
00003F5C  4E5E                     unlink     A6
00003F5E  205F                     movea.l    A0, [A7]+
00003F60  544F                     addq.w     A7, 2
00003F62  4ED0                     jmp        [A0]
fn00003F64:
00003F64  4E56 0000                link       A6, 0
00003F68  302D DC3E                move.w     D0, [A5 - 0x23C2]
00003F6C  48C0                     ext.l      D0
00003F6E  2F2E 0008                move.l     -[A7], [A6 + 0x8]
00003F72  2F00                     move.l     -[A7], D0
00003F74  4EAD 04EA                jsr        [A5 + 0x4EA /* export_153, CODE:1 @ 000051F0 */]
00003F78  302D DC3A                move.w     D0, [A5 - 0x23C6]
00003F7C  48C0                     ext.l      D0
00003F7E  2F00                     move.l     -[A7], D0
00003F80  4EAD 04F2                jsr        [A5 + 0x4F2 /* export_154, CODE:1 @ 00005224 */]
00003F84  2D5F 0008                move.l     [A6 + 0x8], [A7]+
00003F88  3D6E 000A 000C           move.w     [A6 + 0xC], [A6 + 0xA]
00003F8E  4E5E                     unlink     A6
00003F90  2E9F                     move.l     [A7], [A7]+
00003F92  4E75                     rts
fn00003F94:
00003F94  4E56 0000                link       A6, 0
00003F98  302D DC40                move.w     D0, [A5 - 0x23C0]
00003F9C  48C0                     ext.l      D0
00003F9E  2F2E 0008                move.l     -[A7], [A6 + 0x8]
00003FA2  2F00                     move.l     -[A7], D0
00003FA4  4EAD 04EA                jsr        [A5 + 0x4EA /* export_153, CODE:1 @ 000051F0 */]
00003FA8  302D DC3C                move.w     D0, [A5 - 0x23C4]
00003FAC  48C0                     ext.l      D0
00003FAE  2F00                     move.l     -[A7], D0
00003FB0  4EAD 04F2                jsr        [A5 + 0x4F2 /* export_154, CODE:1 @ 00005224 */]
00003FB4  2D5F 0008                move.l     [A6 + 0x8], [A7]+
00003FB8  3D6E 000A 000C           move.w     [A6 + 0xC], [A6 + 0xA]
00003FBE  4E5E                     unlink     A6
00003FC0  2E9F                     move.l     [A7], [A7]+
00003FC2  4E75                     rts
fn00003FC4:
00003FC4  4E56 FFF4                link       A6, -0x000C
00003FC8  48E7 0118                movem.l    -[A7], D7,A3,A4
00003FCC  286E 0008                movea.l    A4, [A6 + 0x8]
00003FD0  4EBA C02E                jsr        [PC - 0x3FD2 /* 00000000 */]
00003FD4  486C FEE0                pea.l      [A4 - 0x120]
00003FD8  4EAD 05F2                jsr        [A5 + 0x5F2 /* export_186, CODE:4 @ 000003DA */]
00003FDC  47EC FD86                lea.l      A3, [A4 - 0x27A]
00003FE0  4267                     clr.w      -[A7]
00003FE2  3F2D D7D4                move.w     -[A7], [A5 - 0x282C]
00003FE6  4EBA FF1C                jsr        [PC - 0xE4 /* 00003F04 */]
00003FEA  375F 0006                move.w     [A3 + 0x6], [A7]+
00003FEE  4267                     clr.w      -[A7]
00003FF0  3F2D D7D2                move.w     -[A7], [A5 - 0x282E]
00003FF4  4EBA FF3E                jsr        [PC - 0xC2 /* 00003F34 */]
00003FF8  375F 0004                move.w     [A3 + 0x4], [A7]+
00003FFC  2F2C FD7C                move.l     -[A7], [A4 - 0x284]
00004000  4EAD 0222                jsr        [A5 + 0x222 /* export_64, CODE:1 @ 00004678 */]
00004004  206C FD7C                movea.l    A0, [A4 - 0x284]
00004008  2950 FD80                move.l     [A4 - 0x280], [A0]
0000400C  42A7                     clr.l      -[A7]
0000400E  A8D8                     syscall    NewRgn
00004010  2E1F                     move.l     D7, [A7]+
00004012  47ED DC1C                lea.l      A3, [A5 - 0x23E4]
00004016  2F07                     move.l     -[A7], D7
00004018  42A7                     clr.l      -[A7]
0000401A  302B 0006                move.w     D0, [A3 + 0x6]
0000401E  906B 0002                sub.w      D0, [A3 + 0x2]
00004022  3F00                     move.w     -[A7], D0
00004024  302B 0004                move.w     D0, [A3 + 0x4]
00004028  9053                     sub.w      D0, [A3]
0000402A  3F00                     move.w     -[A7], D0
0000402C  A8DE                     syscall    SetRecRgn
0000402E  486D ED44                pea.l      [A5 - 0x12BC]
00004032  486C FD80                pea.l      [A4 - 0x280]
00004036  486D ED82                pea.l      [A5 - 0x127E]
0000403A  486C FD86                pea.l      [A4 - 0x27A]
0000403E  4267                     clr.w      -[A7]
00004040  2F07                     move.l     -[A7], D7
00004042  A8EC                     syscall    CopyBits
00004044  2F07                     move.l     -[A7], D7
00004046  A8D9                     syscall    DisposRgn/DisposeRgn
00004048  2F2C FD7C                move.l     -[A7], [A4 - 0x284]
0000404C  4EAD 022A                jsr        [A5 + 0x22A /* export_65, CODE:1 @ 00004682 */]
00004050  4CDF 1880                movem.l    D7,A3,A4, [A7]+
00004054  4E5E                     unlink     A6
00004056  2E9F                     move.l     [A7], [A7]+
00004058  4E75                     rts
fn0000405A:
0000405A  4E56 0000                link       A6, 0
0000405E  48E7 0018                movem.l    -[A7], A3,A4
00004062  266E 0008                movea.l    A3, [A6 + 0x8]
00004066  486D DC0C                pea.l      [A5 - 0x23F4]
0000406A  1F3C 0001                move.b     -[A7], 0x1
0000406E  4EAD 06DA                jsr        [A5 + 0x6DA /* export_215, CODE:4 @ 00001E26 */]
00004072  2F2B FEDC                move.l     -[A7], [A3 - 0x124]
00004076  3F3C 0012                move.w     -[A7], 0x12
0000407A  486B FED8                pea.l      [A3 - 0x128]
0000407E  486B FED4                pea.l      [A3 - 0x12C]
00004082  486B FECC                pea.l      [A3 - 0x134]
00004086  A98D                     syscall    GetDialogItem/GetDItem
00004088  49EB FECC                lea.l      A4, [A3 - 0x134]
0000408C  4267                     clr.w      -[A7]
0000408E  4EAD 0812                jsr        [A5 + 0x812 /* export_254, CODE:4 @ 00004AD4 */]
00004092  101F                     move.b     D0, [A7]+
00004094  6742                     beq        +0x44 /* 000040D8 */
00004096  486D DC1C                pea.l      [A5 - 0x23E4]
0000409A  302C 0002                move.w     D0, [A4 + 0x2]
0000409E  D07C 0014                add.w      D0, 0x14
000040A2  3F00                     move.w     -[A7], D0
000040A4  3014                     move.w     D0, [A4]
000040A6  5440                     addq.w     D0, 2
000040A8  3F00                     move.w     -[A7], D0
000040AA  302C 0006                move.w     D0, [A4 + 0x6]
000040AE  907C 001D                sub.w      D0, 0x1D
000040B2  3F00                     move.w     -[A7], D0
000040B4  302C 0004                move.w     D0, [A4 + 0x4]
000040B8  5540                     subq.w     D0, 2
000040BA  3F00                     move.w     -[A7], D0
000040BC  A8A7                     syscall    SetRect
000040BE  302D DC22                move.w     D0, [A5 - 0x23DE]
000040C2  906D DC1E                sub.w      D0, [A5 - 0x23E2]
000040C6  3B40 DC3E                move.w     [A5 - 0x23C2], D0
000040CA  302D DC20                move.w     D0, [A5 - 0x23E0]
000040CE  906D DC1C                sub.w      D0, [A5 - 0x23E4]
000040D2  3B40 DC40                move.w     [A5 - 0x23C0], D0
000040D6  6040                     bra        +0x42 /* 00004118 */
label000040D8:
000040D8  486D DC1C                pea.l      [A5 - 0x23E4]
000040DC  302C 0002                move.w     D0, [A4 + 0x2]
000040E0  5440                     addq.w     D0, 2
000040E2  3F00                     move.w     -[A7], D0
000040E4  3014                     move.w     D0, [A4]
000040E6  D07C 0012                add.w      D0, 0x12
000040EA  3F00                     move.w     -[A7], D0
000040EC  302C 0006                move.w     D0, [A4 + 0x6]
000040F0  5540                     subq.w     D0, 2
000040F2  3F00                     move.w     -[A7], D0
000040F4  302C 0004                move.w     D0, [A4 + 0x4]
000040F8  907C 001F                sub.w      D0, 0x1F
000040FC  3F00                     move.w     -[A7], D0
000040FE  A8A7                     syscall    SetRect
00004100  302D DC22                move.w     D0, [A5 - 0x23DE]
00004104  906D DC1E                sub.w      D0, [A5 - 0x23E2]
00004108  3B40 DC3E                move.w     [A5 - 0x23C2], D0
0000410C  302D DC20                move.w     D0, [A5 - 0x23E0]
00004110  906D DC1C                sub.w      D0, [A5 - 0x23E4]
00004114  3B40 DC40                move.w     [A5 - 0x23C0], D0
label00004118:
00004118  42A7                     clr.l      -[A7]
0000411A  2F3C 0000 0F8A           move.l     -[A7], 0xF8A
00004120  4EAD 18DA                jsr        [A5 + 0x18DA /* export_791, CODE:16 @ 00000896 */]
00004124  275F FD7C                move.l     [A3 - 0x284], [A7]+
00004128  49EB FD80                lea.l      A4, [A3 - 0x280]
0000412C  397C 001A 0004           move.w     [A4 + 0x4], 0x1A
00004132  426C 0006                clr.w      [A4 + 0x6]
00004136  426C 0008                clr.w      [A4 + 0x8]
0000413A  2F2E 0008                move.l     -[A7], [A6 + 0x8]
0000413E  4EBA FE84                jsr        [PC - 0x17C /* 00003FC4 */]
00004142  4CDF 1800                movem.l    A3,A4, [A7]+
00004146  4E5E                     unlink     A6
00004148  2E9F                     move.l     [A7], [A7]+
0000414A  4E75                     rts
fn0000414C:
0000414C  4E56 0000                link       A6, 0
00004150  206E 0008                movea.l    A0, [A6 + 0x8]
00004154  2F28 FD7C                move.l     -[A7], [A0 - 0x284]
00004158  4EAD 18D2                jsr        [A5 + 0x18D2 /* export_790, CODE:16 @ 0000083E */]
0000415C  4E5E                     unlink     A6
0000415E  2E9F                     move.l     [A7], [A7]+
00004160  4E75                     rts
fn00004162:
00004162  4E56 FFCC                link       A6, -0x0034
00004166  48E7 0F18                movem.l    -[A7], D4,D5,D6,D7,A3,A4
0000416A  286E 0008                movea.l    A4, [A6 + 0x8]
0000416E  286C 0008                movea.l    A4, [A4 + 0x8]
00004172  486E FFE8                pea.l      [A6 - 0x18]
00004176  A874                     syscall    GetPort
00004178  2F2C FD7C                move.l     -[A7], [A4 - 0x284]
0000417C  4EAD 0222                jsr        [A5 + 0x222 /* export_64, CODE:1 @ 00004678 */]
00004180  206C FD7C                movea.l    A0, [A4 - 0x284]
00004184  2950 FD80                move.l     [A4 - 0x280], [A0]
00004188  382D DC06                move.w     D4, [A5 - 0x23FA]
0000418C  3D6D DC04 FFF2           move.w     [A6 - 0xE], [A5 - 0x23FC]
00004192  7001                     moveq.l    D0, 0x01
00004194  B06D DC4A                cmp.w      D0, [A5 - 0x23B6]
00004198  5DC0                     slt        D0
0000419A  C02C FEF6                and.b      D0, [A4 - 0x10A]
0000419E  2F00                     move.l     -[A7], D0
000041A0  4267                     clr.w      -[A7]
000041A2  4EAD 0812                jsr        [A5 + 0x812 /* export_254, CODE:4 @ 00004AD4 */]
000041A6  121F                     move.b     D1, [A7]+
000041A8  201F                     move.l     D0, [A7]+
000041AA  0A01 0001                xori.b     D1, 0x1
000041AE  C001                     and.b      D0, D1
000041B0  6708                     beq        +0xA /* 000041BA */
000041B2  3D7C 0002 FFF6           move.w     [A6 - 0xA], 0x2
000041B8  6006                     bra        +0x8 /* 000041C0 */
label000041BA:
000041BA  3D7C 0001 FFF6           move.w     [A6 - 0xA], 0x1
label000041C0:
000041C0  426E FFF4                clr.w      [A6 - 0xC]
000041C4  7002                     moveq.l    D0, 0x02
000041C6  B06E FFF6                cmp.w      D0, [A6 - 0xA]
000041CA  661A                     bne        +0x1C /* 000041E6 */
000041CC  4267                     clr.w      -[A7]
000041CE  302D DC4A                move.w     D0, [A5 - 0x23B6]
000041D2  48C0                     ext.l      D0
000041D4  81FC 0002                divs.w     D0, 0x2
000041D8  3F00                     move.w     -[A7], D0
000041DA  3F3C 0001                move.w     -[A7], 0x1
000041DE  4EAD 18BA                jsr        [A5 + 0x18BA /* export_787, CODE:16 @ 000007C6 */]
000041E2  3E1F                     move.w     D7, [A7]+
000041E4  6004                     bra        +0x6 /* 000041EA */
label000041E6:
000041E6  3E2D DC4A                move.w     D7, [A5 - 0x23B6]
label000041EA:
000041EA  3C2D DC4C                move.w     D6, [A5 - 0x23B4]
label000041EE:
000041EE  3D44 FFE6                move.w     [A6 - 0x1A], D4
000041F2  3D6D DC04 FFE4           move.w     [A6 - 0x1C], [A5 - 0x23FC]
000041F8  47EC FEE0                lea.l      A3, [A4 - 0x120]
000041FC  7001                     moveq.l    D0, 0x01
000041FE  B047                     cmp.w      D0, D7
00004200  5DC0                     slt        D0
00004202  C02B 0019                and.b      D0, [A3 + 0x19]
00004206  7201                     moveq.l    D1, 0x01
00004208  B246                     cmp.w      D1, D6
0000420A  5DC1                     slt        D1
0000420C  C001                     and.b      D0, D1
0000420E  6700 00BE                beq        +0xC0 /* 000042CE */
00004212  4267                     clr.w      -[A7]
00004214  4EAD 0812                jsr        [A5 + 0x812 /* export_254, CODE:4 @ 00004AD4 */]
00004218  101F                     move.b     D0, [A7]+
0000421A  C02B 0016                and.b      D0, [A3 + 0x16]
0000421E  672A                     beq        +0x2C /* 0000424A */
00004220  4267                     clr.w      -[A7]
00004222  3006                     move.w     D0, D6
00004224  48C0                     ext.l      D0
00004226  81FC 0002                divs.w     D0, 0x2
0000422A  322D DC48                move.w     D1, [A5 - 0x23B8]
0000422E  D26D D7D2                add.w      D1, [A5 - 0x282E]
00004232  C1C1                     muls.w     D0, D1
00004234  D06E FFE4                add.w      D0, [A6 - 0x1C]
00004238  906D DC48                sub.w      D0, [A5 - 0x23B8]
0000423C  48C0                     ext.l      D0
0000423E  2F00                     move.l     -[A7], D0
00004240  4EBA FD52                jsr        [PC - 0x2AE /* 00003F94 */]
00004244  3D5F FFEC                move.w     [A6 - 0x14], [A7]+
00004248  6022                     bra        +0x24 /* 0000426C */
label0000424A:
0000424A  4267                     clr.w      -[A7]
0000424C  302D DC48                move.w     D0, [A5 - 0x23B8]
00004250  D06D D7D2                add.w      D0, [A5 - 0x282E]
00004254  3206                     move.w     D1, D6
00004256  C3C0                     muls.w     D1, D0
00004258  D26E FFE4                add.w      D1, [A6 - 0x1C]
0000425C  926D DC48                sub.w      D1, [A5 - 0x23B8]
00004260  48C1                     ext.l      D1
00004262  2F01                     move.l     -[A7], D1
00004264  4EBA FD2E                jsr        [PC - 0x2D2 /* 00003F94 */]
00004268  3D5F FFEC                move.w     [A6 - 0x14], [A7]+
label0000426C:
0000426C  486E FFD4                pea.l      [A6 - 0x2C]
00004270  4267                     clr.w      -[A7]
00004272  3F2E FFE6                move.w     -[A7], [A6 - 0x1A]
00004276  4EBA FC8C                jsr        [PC - 0x374 /* 00003F04 */]
0000427A  302D DC36                move.w     D0, [A5 - 0x23CA]
0000427E  D05F                     add.w      D0, [A7]+
00004280  3F00                     move.w     -[A7], D0
00004282  4267                     clr.w      -[A7]
00004284  3F2E FFE4                move.w     -[A7], [A6 - 0x1C]
00004288  4EBA FCAA                jsr        [PC - 0x356 /* 00003F34 */]
0000428C  302D DC38                move.w     D0, [A5 - 0x23C8]
00004290  D05F                     add.w      D0, [A7]+
00004292  3F00                     move.w     -[A7], D0
00004294  4267                     clr.w      -[A7]
00004296  302D DC46                move.w     D0, [A5 - 0x23BA]
0000429A  D06D D7D4                add.w      D0, [A5 - 0x282C]
0000429E  3207                     move.w     D1, D7
000042A0  C3C0                     muls.w     D1, D0
000042A2  D26E FFE6                add.w      D1, [A6 - 0x1A]
000042A6  926D DC46                sub.w      D1, [A5 - 0x23BA]
000042AA  3F01                     move.w     -[A7], D1
000042AC  4EBA FC56                jsr        [PC - 0x3AA /* 00003F04 */]
000042B0  302D DC36                move.w     D0, [A5 - 0x23CA]
000042B4  D05F                     add.w      D0, [A7]+
000042B6  3F00                     move.w     -[A7], D0
000042B8  302D DC38                move.w     D0, [A5 - 0x23C8]
000042BC  D06E FFEC                add.w      D0, [A6 - 0x14]
000042C0  3F00                     move.w     -[A7], D0
000042C2  A8A7                     syscall    SetRect
000042C4  486E FFD4                pea.l      [A6 - 0x2C]
000042C8  486D FE90                pea.l      [A5 - 0x170]
000042CC  A8A5                     syscall    FillRect
label000042CE:
000042CE  426E FFFA                clr.w      [A6 - 0x6]
label000042D2:
000042D2  426E FFF8                clr.w      [A6 - 0x8]
label000042D6:
000042D6  4267                     clr.w      -[A7]
000042D8  3F2E FFE4                move.w     -[A7], [A6 - 0x1C]
000042DC  4EBA FC56                jsr        [PC - 0x3AA /* 00003F34 */]
000042E0  302D DC38                move.w     D0, [A5 - 0x23C8]
000042E4  D05F                     add.w      D0, [A7]+
000042E6  3D40 FFDC                move.w     [A6 - 0x24], D0
000042EA  4267                     clr.w      -[A7]
000042EC  3F2E FFE6                move.w     -[A7], [A6 - 0x1A]
000042F0  4EBA FC12                jsr        [PC - 0x3EE /* 00003F04 */]
000042F4  302D DC36                move.w     D0, [A5 - 0x23CA]
000042F8  D05F                     add.w      D0, [A7]+
000042FA  3D40 FFDE                move.w     [A6 - 0x22], D0
000042FE  302C FD8A                move.w     D0, [A4 - 0x276]
00004302  D06E FFDC                add.w      D0, [A6 - 0x24]
00004306  3D40 FFE0                move.w     [A6 - 0x20], D0
0000430A  302C FD8C                move.w     D0, [A4 - 0x274]
0000430E  D06E FFDE                add.w      D0, [A6 - 0x22]
00004312  3D40 FFE2                move.w     [A6 - 0x1E], D0
00004316  486C FD80                pea.l      [A4 - 0x280]
0000431A  206E FFE8                movea.l    A0, [A6 - 0x18]
0000431E  4868 0002                pea.l      [A0 + 0x2]
00004322  486C FD86                pea.l      [A4 - 0x27A]
00004326  486E FFDC                pea.l      [A6 - 0x24]
0000432A  4267                     clr.w      -[A7]
0000432C  42A7                     clr.l      -[A7]
0000432E  A8EC                     syscall    CopyBits
00004330  302D D7D4                move.w     D0, [A5 - 0x282C]
00004334  D06E FFE6                add.w      D0, [A6 - 0x1A]
00004338  322D DC46                move.w     D1, [A5 - 0x23BA]
0000433C  D240                     add.w      D1, D0
0000433E  3D41 FFE6                move.w     [A6 - 0x1A], D1
00004342  526E FFF8                addq.w     [A6 - 0x8], 1
00004346  BE6E FFF8                cmp.w      D7, [A6 - 0x8]
0000434A  668A                     bne        -0x74 /* 000042D6 */
0000434C  3D44 FFE6                move.w     [A6 - 0x1A], D4
00004350  302D D7D2                move.w     D0, [A5 - 0x282E]
00004354  D06E FFE4                add.w      D0, [A6 - 0x1C]
00004358  322D DC48                move.w     D1, [A5 - 0x23B8]
0000435C  D240                     add.w      D1, D0
0000435E  3D41 FFE4                move.w     [A6 - 0x1C], D1
00004362  526E FFFA                addq.w     [A6 - 0x6], 1
00004366  47EC FEE0                lea.l      A3, [A4 - 0x120]
0000436A  302D DC4C                move.w     D0, [A5 - 0x23B4]
0000436E  48C0                     ext.l      D0
00004370  81FC 0002                divs.w     D0, 0x2
00004374  B06E FFFA                cmp.w      D0, [A6 - 0x6]
00004378  57C0                     seq        D0
0000437A  C02B 0016                and.b      D0, [A3 + 0x16]
0000437E  2F00                     move.l     -[A7], D0
00004380  4267                     clr.w      -[A7]
00004382  4EAD 0812                jsr        [A5 + 0x812 /* export_254, CODE:4 @ 00004AD4 */]
00004386  121F                     move.b     D1, [A7]+
00004388  201F                     move.l     D0, [A7]+
0000438A  C001                     and.b      D0, D1
0000438C  6700 00FE                beq        +0x100 /* 0000448C */
00004390  206C 000C                movea.l    A0, [A4 + 0xC]
00004394  2050                     movea.l    A0, [A0]
00004396  41E8 0010                lea.l      A0, [A0 + 0x10]
0000439A  2D48 FFD0                move.l     [A6 - 0x30], A0
0000439E  226E FFD0                movea.l    A1, [A6 - 0x30]
000043A2  3029 0004                move.w     D0, [A1 + 0x4]
000043A6  D050                     add.w      D0, [A0]
000043A8  48C0                     ext.l      D0
000043AA  81FC 0002                divs.w     D0, 0x2
000043AE  3A00                     move.w     D5, D0
000043B0  102B 0019                move.b     D0, [A3 + 0x19]
000043B4  6700 009C                beq        +0x9E /* 00004452 */
000043B8  4267                     clr.w      -[A7]
000043BA  4EAD 068A                jsr        [A5 + 0x68A /* export_205, CODE:4 @ 0000184A */]
000043BE  301F                     move.w     D0, [A7]+
000043C0  48C0                     ext.l      D0
000043C2  81FC 0004                divs.w     D0, 0x4
000043C6  D045                     add.w      D0, D5
000043C8  3D40 FFE4                move.w     [A6 - 0x1C], D0
000043CC  486E FFD4                pea.l      [A6 - 0x2C]
000043D0  4267                     clr.w      -[A7]
000043D2  3F2E FFE6                move.w     -[A7], [A6 - 0x1A]
000043D6  4EBA FB2C                jsr        [PC - 0x4D4 /* 00003F04 */]
000043DA  302D DC36                move.w     D0, [A5 - 0x23CA]
000043DE  D05F                     add.w      D0, [A7]+
000043E0  3F00                     move.w     -[A7], D0
000043E2  4267                     clr.w      -[A7]
000043E4  3F2E FFE4                move.w     -[A7], [A6 - 0x1C]
000043E8  4EBA FB4A                jsr        [PC - 0x4B6 /* 00003F34 */]
000043EC  302D DC38                move.w     D0, [A5 - 0x23C8]
000043F0  D05F                     add.w      D0, [A7]+
000043F2  3F00                     move.w     -[A7], D0
000043F4  4267                     clr.w      -[A7]
000043F6  302D DC46                move.w     D0, [A5 - 0x23BA]
000043FA  D06D D7D4                add.w      D0, [A5 - 0x282C]
000043FE  3207                     move.w     D1, D7
00004400  C3C0                     muls.w     D1, D0
00004402  D26E FFE6                add.w      D1, [A6 - 0x1A]
00004406  926D DC46                sub.w      D1, [A5 - 0x23BA]
0000440A  3F01                     move.w     -[A7], D1
0000440C  4EBA FAF6                jsr        [PC - 0x50A /* 00003F04 */]
00004410  302D DC36                move.w     D0, [A5 - 0x23CA]
00004414  D05F                     add.w      D0, [A7]+
00004416  3F00                     move.w     -[A7], D0
00004418  4267                     clr.w      -[A7]
0000441A  3006                     move.w     D0, D6
0000441C  48C0                     ext.l      D0
0000441E  81FC 0002                divs.w     D0, 0x2
00004422  322D DC48                move.w     D1, [A5 - 0x23B8]
00004426  D26D D7D2                add.w      D1, [A5 - 0x282E]
0000442A  C1C1                     muls.w     D0, D1
0000442C  D06E FFE4                add.w      D0, [A6 - 0x1C]
00004430  906D DC48                sub.w      D0, [A5 - 0x23B8]
00004434  48C0                     ext.l      D0
00004436  2F00                     move.l     -[A7], D0
00004438  4EBA FB5A                jsr        [PC - 0x4A6 /* 00003F94 */]
0000443C  302D DC38                move.w     D0, [A5 - 0x23C8]
00004440  D05F                     add.w      D0, [A7]+
00004442  3F00                     move.w     -[A7], D0
00004444  A8A7                     syscall    SetRect
00004446  486E FFD4                pea.l      [A6 - 0x2C]
0000444A  486D FE90                pea.l      [A5 - 0x170]
0000444E  A8A5                     syscall    FillRect
00004450  603A                     bra        +0x3C /* 0000448C */
label00004452:
00004452  4267                     clr.w      -[A7]
00004454  3F2E FFE4                move.w     -[A7], [A6 - 0x1C]
00004458  302D DC48                move.w     D0, [A5 - 0x23B8]
0000445C  D045                     add.w      D0, D5
0000445E  3F00                     move.w     -[A7], D0
00004460  4EAD 18BA                jsr        [A5 + 0x18BA /* export_787, CODE:16 @ 000007C6 */]
00004464  3D5F FFE4                move.w     [A6 - 0x1C], [A7]+
00004468  4240                     clr.w      D0
0000446A  102C FF00                move.b     D0, [A4 - 0x100]
0000446E  4A40                     tst.w      D0
00004470  56C0                     sne        D0
00004472  206E 0008                movea.l    A0, [A6 + 0x8]
00004476  8028 000C                or.b       D0, [A0 + 0xC]
0000447A  0240 0001                andi.w     D0, 0x1
0000447E  670C                     beq        +0xE /* 0000448C */
00004480  302D DC48                move.w     D0, [A5 - 0x23B8]
00004484  D06E FFE4                add.w      D0, [A6 - 0x1C]
00004488  3D40 FFE4                move.w     [A6 - 0x1C], D0
label0000448C:
0000448C  BC6E FFFA                cmp.w      D6, [A6 - 0x6]
00004490  6600 FE40                bne        -0x1BE /* 000042D2 */
00004494  302D DC4A                move.w     D0, [A5 - 0x23B6]
00004498  48C0                     ext.l      D0
0000449A  81FC 0002                divs.w     D0, 0x2
0000449E  322D DC46                move.w     D1, [A5 - 0x23BA]
000044A2  D26D D7D4                add.w      D1, [A5 - 0x282C]
000044A6  C1C1                     muls.w     D0, D1
000044A8  D840                     add.w      D4, D0
000044AA  302D DC4C                move.w     D0, [A5 - 0x23B4]
000044AE  48C0                     ext.l      D0
000044B0  81FC 0002                divs.w     D0, 0x2
000044B4  322D DC48                move.w     D1, [A5 - 0x23B8]
000044B8  D26D D7D2                add.w      D1, [A5 - 0x282E]
000044BC  C1C1                     muls.w     D0, D1
000044BE  D16E FFF2                add.w      [A6 - 0xE], D0
000044C2  526E FFF4                addq.w     [A6 - 0xC], 1
000044C6  47EC FEE0                lea.l      A3, [A4 - 0x120]
000044CA  102B 0019                move.b     D0, [A3 + 0x19]
000044CE  C02B 0016                and.b      D0, [A3 + 0x16]
000044D2  2F00                     move.l     -[A7], D0
000044D4  4267                     clr.w      -[A7]
000044D6  4EAD 0812                jsr        [A5 + 0x812 /* export_254, CODE:4 @ 00004AD4 */]
000044DA  121F                     move.b     D1, [A7]+
000044DC  201F                     move.l     D0, [A7]+
000044DE  0A01 0001                xori.b     D1, 0x1
000044E2  C001                     and.b      D0, D1
000044E4  675A                     beq        +0x5C /* 00004540 */
000044E6  206C 000C                movea.l    A0, [A4 + 0xC]
000044EA  2050                     movea.l    A0, [A0]
000044EC  41E8 0010                lea.l      A0, [A0 + 0x10]
000044F0  2D48 FFCC                move.l     [A6 - 0x34], A0
000044F4  4267                     clr.w      -[A7]
000044F6  4EAD 081A                jsr        [A5 + 0x81A /* export_255, CODE:4 @ 00004AF6 */]
000044FA  101F                     move.b     D0, [A7]+
000044FC  6718                     beq        +0x1A /* 00004516 */
000044FE  206E FFCC                movea.l    A0, [A6 - 0x34]
00004502  226E FFCC                movea.l    A1, [A6 - 0x34]
00004506  3029 0004                move.w     D0, [A1 + 0x4]
0000450A  D050                     add.w      D0, [A0]
0000450C  48C0                     ext.l      D0
0000450E  81FC 0002                divs.w     D0, 0x2
00004512  3A00                     move.w     D5, D0
00004514  6018                     bra        +0x1A /* 0000452E */
label00004516:
00004516  206E FFCC                movea.l    A0, [A6 - 0x34]
0000451A  226E FFCC                movea.l    A1, [A6 - 0x34]
0000451E  3029 0006                move.w     D0, [A1 + 0x6]
00004522  D068 0002                add.w      D0, [A0 + 0x2]
00004526  48C0                     ext.l      D0
00004528  81FC 0002                divs.w     D0, 0x2
0000452C  3A00                     move.w     D5, D0
label0000452E:
0000452E  4267                     clr.w      -[A7]
00004530  4EAD 068A                jsr        [A5 + 0x68A /* export_205, CODE:4 @ 0000184A */]
00004534  301F                     move.w     D0, [A7]+
00004536  48C0                     ext.l      D0
00004538  81FC 0004                divs.w     D0, 0x4
0000453C  3800                     move.w     D4, D0
0000453E  D845                     add.w      D4, D5
label00004540:
00004540  302E FFF4                move.w     D0, [A6 - 0xC]
00004544  B06E FFF6                cmp.w      D0, [A6 - 0xA]
00004548  6600 FCA4                bne        -0x35A /* 000041EE */
0000454C  2F2C FD7C                move.l     -[A7], [A4 - 0x284]
00004550  4EAD 022A                jsr        [A5 + 0x22A /* export_65, CODE:1 @ 00004682 */]
00004554  4CDF 18F0                movem.l    D4,D5,D6,D7,A3,A4, [A7]+
00004558  4E5E                     unlink     A6
0000455A  2E9F                     move.l     [A7], [A7]+
0000455C  4E75                     rts
fn0000455E:
0000455E  4E56 FFFC                link       A6, -0x0004
00004562  48E7 0018                movem.l    -[A7], A3,A4
00004566  286E 0008                movea.l    A4, [A6 + 0x8]
0000456A  42A7                     clr.l      -[A7]
0000456C  A8D8                     syscall    NewRgn
0000456E  265F                     movea.l    A3, [A7]+
00004570  486D DC0C                pea.l      [A5 - 0x23F4]
00004574  1F3C 0001                move.b     -[A7], 0x1
00004578  4EAD 06DA                jsr        [A5 + 0x6DA /* export_215, CODE:4 @ 00001E26 */]
0000457C  486D DC0C                pea.l      [A5 - 0x23F4]
00004580  2F2D DBFC                move.l     -[A7], [A5 - 0x2404]
00004584  4267                     clr.w      -[A7]
00004586  486C FEE0                pea.l      [A4 - 0x120]
0000458A  4EAD 06EA                jsr        [A5 + 0x6EA /* export_217, CODE:4 @ 0000203E */]
0000458E  486D DC14                pea.l      [A5 - 0x23EC]
00004592  3F2D DC1E                move.w     -[A7], [A5 - 0x23E2]
00004596  4267                     clr.w      -[A7]
00004598  302D DC0C                move.w     D0, [A5 - 0x23F4]
0000459C  48C0                     ext.l      D0
0000459E  2F00                     move.l     -[A7], D0
000045A0  4EBA F9F2                jsr        [PC - 0x60E /* 00003F94 */]
000045A4  302D DC38                move.w     D0, [A5 - 0x23C8]
000045A8  D05F                     add.w      D0, [A7]+
000045AA  5340                     subq.w     D0, 1
000045AC  3F00                     move.w     -[A7], D0
000045AE  3F2D DC22                move.w     -[A7], [A5 - 0x23DE]
000045B2  42A7                     clr.l      -[A7]
000045B4  7016                     moveq.l    D0, 0x16
000045B6  2F00                     move.l     -[A7], D0
000045B8  4EAD 079A                jsr        [A5 + 0x79A /* export_239, CODE:4 @ 00004026 */]
000045BC  301F                     move.w     D0, [A7]+
000045BE  D06D DC0C                add.w      D0, [A5 - 0x23F4]
000045C2  48C0                     ext.l      D0
000045C4  2F00                     move.l     -[A7], D0
000045C6  4EBA F9CC                jsr        [PC - 0x634 /* 00003F94 */]
000045CA  302D DC38                move.w     D0, [A5 - 0x23C8]
000045CE  D05F                     add.w      D0, [A7]+
000045D0  5240                     addq.w     D0, 1
000045D2  3F00                     move.w     -[A7], D0
000045D4  A8A7                     syscall    SetRect
000045D6  41ED DC04                lea.l      A0, [A5 - 0x23FC]
000045DA  43ED DC0C                lea.l      A1, [A5 - 0x23F4]
000045DE  20D9                     move.l     [A0]+, [A1]+
000045E0  20D9                     move.l     [A0]+, [A1]+
000045E2  486D DC04                pea.l      [A5 - 0x23FC]
000045E6  486C FF00                pea.l      [A4 - 0x100]
000045EA  1F2E 000C                move.b     -[A7], [A6 + 0xC]
000045EE  4EAD 06E2                jsr        [A5 + 0x6E2 /* export_216, CODE:4 @ 00001F12 */]
000045F2  486C FEE0                pea.l      [A4 - 0x120]
000045F6  4EAD 05EA                jsr        [A5 + 0x5EA /* export_185, CODE:4 @ 000000BA */]
000045FA  2F0B                     move.l     -[A7], A3
000045FC  A87A                     syscall    GetClip
000045FE  486D DC1C                pea.l      [A5 - 0x23E4]
00004602  A87B                     syscall    ClipRect
00004604  486D DC1C                pea.l      [A5 - 0x23E4]
00004608  A8A3                     syscall    EraseRect
0000460A  102C FEF6                move.b     D0, [A4 - 0x10A]
0000460E  676C                     beq        +0x6E /* 0000467C */
00004610  486D FE90                pea.l      [A5 - 0x170]
00004614  A89D                     syscall    PenPat
00004616  4267                     clr.w      -[A7]
00004618  4EAD 0812                jsr        [A5 + 0x812 /* export_254, CODE:4 @ 00004AD4 */]
0000461C  101F                     move.b     D0, [A7]+
0000461E  672C                     beq        +0x2E /* 0000464C */
00004620  302D DC1E                move.w     D0, [A5 - 0x23E2]
00004624  5240                     addq.w     D0, 1
00004626  3F00                     move.w     -[A7], D0
00004628  302D DC20                move.w     D0, [A5 - 0x23E0]
0000462C  D06D DC1C                add.w      D0, [A5 - 0x23E4]
00004630  48C0                     ext.l      D0
00004632  81FC 0002                divs.w     D0, 0x2
00004636  3F00                     move.w     -[A7], D0
00004638  A893                     syscall    MoveTo
0000463A  302D DC22                move.w     D0, [A5 - 0x23DE]
0000463E  906D DC1E                sub.w      D0, [A5 - 0x23E2]
00004642  5740                     subq.w     D0, 3
00004644  3F00                     move.w     -[A7], D0
00004646  4267                     clr.w      -[A7]
00004648  A892                     syscall    Line
0000464A  602A                     bra        +0x2C /* 00004676 */
label0000464C:
0000464C  302D DC22                move.w     D0, [A5 - 0x23DE]
00004650  D06D DC1E                add.w      D0, [A5 - 0x23E2]
00004654  48C0                     ext.l      D0
00004656  81FC 0002                divs.w     D0, 0x2
0000465A  3F00                     move.w     -[A7], D0
0000465C  302D DC1C                move.w     D0, [A5 - 0x23E4]
00004660  5240                     addq.w     D0, 1
00004662  3F00                     move.w     -[A7], D0
00004664  A893                     syscall    MoveTo
00004666  4267                     clr.w      -[A7]
00004668  302D DC20                move.w     D0, [A5 - 0x23E0]
0000466C  906D DC1C                sub.w      D0, [A5 - 0x23E4]
00004670  5740                     subq.w     D0, 3
00004672  3F00                     move.w     -[A7], D0
00004674  A892                     syscall    Line
label00004676:
00004676  486D FE98                pea.l      [A5 - 0x168]
0000467A  A89D                     syscall    PenPat
label0000467C:
0000467C  4240                     clr.w      D0
0000467E  102C FF00                move.b     D0, [A4 - 0x100]
00004682  4A40                     tst.w      D0
00004684  6706                     beq        +0x8 /* 0000468C */
00004686  486D DC14                pea.l      [A5 - 0x23EC]
0000468A  A8A3                     syscall    EraseRect
label0000468C:
0000468C  486C FF00                pea.l      [A4 - 0x100]
00004690  4EBA BB74                jsr        [PC - 0x448C /* 00000206 */]
00004694  2F0E                     move.l     -[A7], A6
00004696  4EBA FACA                jsr        [PC - 0x536 /* 00004162 */]
0000469A  2F0B                     move.l     -[A7], A3
0000469C  A879                     syscall    SetClip
0000469E  2F0B                     move.l     -[A7], A3
000046A0  A8D9                     syscall    DisposRgn/DisposeRgn
000046A2  4CDF 1800                movem.l    A3,A4, [A7]+
000046A6  4E5E                     unlink     A6
000046A8  205F                     movea.l    A0, [A7]+
000046AA  5C4F                     addq.w     A7, 6
000046AC  4ED0                     jmp        [A0]
fn000046AE:
000046AE  4E56 FFF2                link       A6, -0x000E
000046B2  206E 0008                movea.l    A0, [A6 + 0x8]
000046B6  2F28 FEDC                move.l     -[A7], [A0 - 0x124]
000046BA  3F3C 000D                move.w     -[A7], 0xD /* '\r' */
000046BE  486E FFFE                pea.l      [A6 - 0x2]
000046C2  486E FFFA                pea.l      [A6 - 0x6]
000046C6  486E FFF2                pea.l      [A6 - 0xE]
000046CA  A98D                     syscall    GetDialogItem/GetDItem
000046CC  2F2E FFFA                move.l     -[A7], [A6 - 0x6]
000046D0  102E 000C                move.b     D0, [A6 + 0xC]
000046D4  0A00 0001                xori.b     D0, 0x1
000046D8  4880                     ext.w      D0
000046DA  3F00                     move.w     -[A7], D0
000046DC  A963                     syscall    SetControlValue/SetCtlValue
000046DE  206E 0008                movea.l    A0, [A6 + 0x8]
000046E2  2F28 FEDC                move.l     -[A7], [A0 - 0x124]
000046E6  3F3C 000E                move.w     -[A7], 0xE
000046EA  486E FFFE                pea.l      [A6 - 0x2]
000046EE  486E FFFA                pea.l      [A6 - 0x6]
000046F2  486E FFF2                pea.l      [A6 - 0xE]
000046F6  A98D                     syscall    GetDialogItem/GetDItem
000046F8  2F2E FFFA                move.l     -[A7], [A6 - 0x6]
000046FC  102E 000C                move.b     D0, [A6 + 0xC]
00004700  4880                     ext.w      D0
00004702  3F00                     move.w     -[A7], D0
00004704  A963                     syscall    SetControlValue/SetCtlValue
00004706  4E5E                     unlink     A6
00004708  205F                     movea.l    A0, [A7]+
0000470A  5C4F                     addq.w     A7, 6
0000470C  4ED0                     jmp        [A0]
fn0000470E:
0000470E  4E56 FFF0                link       A6, -0x0010
00004712  48E7 0108                movem.l    -[A7], D7,A4
00004716  286E 0008                movea.l    A4, [A6 + 0x8]
0000471A  7E09                     moveq.l    D7, 0x09
0000471C  603A                     bra        +0x3C /* 00004758 */
label0000471E:
0000471E  2F2C FEDC                move.l     -[A7], [A4 - 0x124]
00004722  3F07                     move.w     -[A7], D7
00004724  486E FFFC                pea.l      [A6 - 0x4]
00004728  486E FFF8                pea.l      [A6 - 0x8]
0000472C  486E FFF0                pea.l      [A6 - 0x10]
00004730  A98D                     syscall    GetDialogItem/GetDItem
00004732  3007                     move.w     D0, D7
00004734  907C 0009                sub.w      D0, 0x9 /* '\t' */
00004738  122E 000E                move.b     D1, [A6 + 0xE]
0000473C  4881                     ext.w      D1
0000473E  B240                     cmp.w      D1, D0
00004740  660C                     bne        +0xE /* 0000474E */
00004742  2F2E FFF8                move.l     -[A7], [A6 - 0x8]
00004746  3F3C 0001                move.w     -[A7], 0x1
0000474A  A963                     syscall    SetControlValue/SetCtlValue
0000474C  6008                     bra        +0xA /* 00004756 */
label0000474E:
0000474E  2F2E FFF8                move.l     -[A7], [A6 - 0x8]
00004752  4267                     clr.w      -[A7]
00004754  A963                     syscall    SetControlValue/SetCtlValue
label00004756:
00004756  5247                     addq.w     D7, 1
label00004758:
00004758  700C                     moveq.l    D0, 0x0C
0000475A  B047                     cmp.w      D0, D7
0000475C  6CC0                     bge        -0x3E /* 0000471E */
0000475E  102E 000C                move.b     D0, [A6 + 0xC]
00004762  671C                     beq        +0x1E /* 00004780 */
00004764  3F3C 0008                move.w     -[A7], 0x8
00004768  4A2C FEFE                tst.b      [A4 - 0x102]
0000476C  57C0                     seq        D0
0000476E  4400                     neg.b      D0
00004770  4880                     ext.w      D0
00004772  C1FC 00FF                muls.w     D0, 0xFF
00004776  3F00                     move.w     -[A7], D0
00004778  2F2C FEDC                move.l     -[A7], [A4 - 0x124]
0000477C  4EAD 0712                jsr        [A5 + 0x712 /* export_222, CODE:4 @ 00002354 */]
label00004780:
00004780  4CDF 1080                movem.l    D7,A4, [A7]+
00004784  4E5E                     unlink     A6
00004786  205F                     movea.l    A0, [A7]+
00004788  504F                     addq.w     A7, 8
0000478A  4ED0                     jmp        [A0]
fn0000478C:
0000478C  4E56 FF00                link       A6, -0x0100
00004790  2F0C                     move.l     -[A7], A4
00004792  286E 0008                movea.l    A4, [A6 + 0x8]
00004796  2F2C FEDC                move.l     -[A7], [A4 - 0x124]
0000479A  3F3C 0004                move.w     -[A7], 0x4
0000479E  486C FED8                pea.l      [A4 - 0x128]
000047A2  486C FED4                pea.l      [A4 - 0x12C]
000047A6  486C FECC                pea.l      [A4 - 0x134]
000047AA  A98D                     syscall    GetDialogItem/GetDItem
000047AC  206C 000C                movea.l    A0, [A4 + 0xC]
000047B0  2050                     movea.l    A0, [A0]
000047B2  3028 0018                move.w     D0, [A0 + 0x18]
000047B6  48C0                     ext.l      D0
000047B8  81FC 0100                divs.w     D0, 0x100
000047BC  5340                     subq.w     D0, 1
000047BE  6706                     beq        +0x8 /* 000047C6 */
000047C0  5540                     subq.w     D0, 2
000047C2  6724                     beq        +0x26 /* 000047E8 */
000047C4  605A                     bra        +0x5C /* 00004820 */
label000047C6:
000047C6  2F2C FED4                move.l     -[A7], [A4 - 0x12C]
000047CA  486E FF00                pea.l      [A6 - 0x100]
000047CE  3F3C 0008                move.w     -[A7], 0x8
000047D2  4EAD 070A                jsr        [A5 + 0x70A /* export_221, CODE:4 @ 00002328 */]
000047D6  A95F                     syscall    SetControlTitle/SetCTitle
000047D8  2F2C FED4                move.l     -[A7], [A4 - 0x12C]
000047DC  102C FEF4                move.b     D0, [A4 - 0x10C]
000047E0  4880                     ext.w      D0
000047E2  3F00                     move.w     -[A7], D0
000047E4  A963                     syscall    SetControlValue/SetCtlValue
000047E6  6042                     bra        +0x44 /* 0000482A */
label000047E8:
000047E8  2F2C FED4                move.l     -[A7], [A4 - 0x12C]
000047EC  486E FF00                pea.l      [A6 - 0x100]
000047F0  3F3C 000A                move.w     -[A7], 0xA /* '\n' */
000047F4  4EAD 070A                jsr        [A5 + 0x70A /* export_221, CODE:4 @ 00002328 */]
000047F8  A95F                     syscall    SetControlTitle/SetCTitle
000047FA  4267                     clr.w      -[A7]
000047FC  206C 000C                movea.l    A0, [A4 + 0xC]
00004800  2050                     movea.l    A0, [A0]
00004802  4868 0018                pea.l      [A0 + 0x18]
00004806  700D                     moveq.l    D0, 0x0D
00004808  2F00                     move.l     -[A7], D0
0000480A  A85D                     syscall    BitTst
0000480C  101F                     move.b     D0, [A7]+
0000480E  660E                     bne        +0x10 /* 0000481E */
00004810  2F2C FED4                move.l     -[A7], [A4 - 0x12C]
00004814  102C FEF5                move.b     D0, [A4 - 0x10B]
00004818  4880                     ext.w      D0
0000481A  3F00                     move.w     -[A7], D0
0000481C  A963                     syscall    SetControlValue/SetCtlValue
label0000481E:
0000481E  600A                     bra        +0xC /* 0000482A */
label00004820:
00004820  2F2C FEDC                move.l     -[A7], [A4 - 0x124]
00004824  3F3C 0004                move.w     -[A7], 0x4
00004828  A827                     syscall    HideDialogItem/HideDItem
label0000482A:
0000482A  285F                     movea.l    A4, [A7]+
0000482C  4E5E                     unlink     A6
0000482E  2E9F                     move.l     [A7], [A7]+
00004830  4E75                     rts
fn00004832:
00004832  4E56 FF00                link       A6, -0x0100
00004836  2F0C                     move.l     -[A7], A4
00004838  286E 0008                movea.l    A4, [A6 + 0x8]
0000483C  4267                     clr.w      -[A7]
0000483E  4EAD 05E2                jsr        [A5 + 0x5E2 /* export_184, CODE:4 @ 00000096 */]
00004842  101F                     move.b     D0, [A7]+
00004844  6602                     bne        +0x4 /* 00004848 */
00004846  6050                     bra        +0x52 /* 00004898 */
label00004848:
00004848  2F2C FEDC                move.l     -[A7], [A4 - 0x124]
0000484C  3F3C 000B                move.w     -[A7], 0xB
00004850  486C FED8                pea.l      [A4 - 0x128]
00004854  486C FED4                pea.l      [A4 - 0x12C]
00004858  486C FECC                pea.l      [A4 - 0x134]
0000485C  A98D                     syscall    GetDialogItem/GetDItem
0000485E  2F2C FED4                move.l     -[A7], [A4 - 0x12C]
00004862  486E FF00                pea.l      [A6 - 0x100]
00004866  3F3C 000C                move.w     -[A7], 0xC
0000486A  4EAD 070A                jsr        [A5 + 0x70A /* export_221, CODE:4 @ 00002328 */]
0000486E  A95F                     syscall    SetControlTitle/SetCTitle
00004870  2F2C FEDC                move.l     -[A7], [A4 - 0x124]
00004874  3F3C 000C                move.w     -[A7], 0xC
00004878  486C FED8                pea.l      [A4 - 0x128]
0000487C  486C FED4                pea.l      [A4 - 0x12C]
00004880  486C FECC                pea.l      [A4 - 0x134]
00004884  A98D                     syscall    GetDialogItem/GetDItem
00004886  2F2C FED4                move.l     -[A7], [A4 - 0x12C]
0000488A  486E FF00                pea.l      [A6 - 0x100]
0000488E  3F3C 000B                move.w     -[A7], 0xB
00004892  4EAD 070A                jsr        [A5 + 0x70A /* export_221, CODE:4 @ 00002328 */]
00004896  A95F                     syscall    SetControlTitle/SetCTitle
label00004898:
00004898  285F                     movea.l    A4, [A7]+
0000489A  4E5E                     unlink     A6
0000489C  2E9F                     move.l     [A7], [A7]+
0000489E  4E75                     rts
fn000048A0:
000048A0  4E56 0000                link       A6, 0
000048A4  2F0C                     move.l     -[A7], A4
000048A6  286E 0008                movea.l    A4, [A6 + 0x8]
000048AA  4267                     clr.w      -[A7]
000048AC  206C 000C                movea.l    A0, [A4 + 0xC]
000048B0  2050                     movea.l    A0, [A0]
000048B2  4868 0018                pea.l      [A0 + 0x18]
000048B6  700D                     moveq.l    D0, 0x0D
000048B8  2F00                     move.l     -[A7], D0
000048BA  A85D                     syscall    BitTst
000048BC  101F                     move.b     D0, [A7]+
000048BE  670E                     beq        +0x10 /* 000048CE */
000048C0  2F3C 00FF 0004           move.l     -[A7], 0xFF0004
000048C6  2F2C FEDC                move.l     -[A7], [A4 - 0x124]
000048CA  4EAD 0712                jsr        [A5 + 0x712 /* export_222, CODE:4 @ 00002354 */]
label000048CE:
000048CE  4A2C FEFE                tst.b      [A4 - 0x102]
000048D2  660E                     bne        +0x10 /* 000048E2 */
000048D4  2F3C 00FF 0008           move.l     -[A7], 0xFF0008
000048DA  2F2C FEDC                move.l     -[A7], [A4 - 0x124]
000048DE  4EAD 0712                jsr        [A5 + 0x712 /* export_222, CODE:4 @ 00002354 */]
label000048E2:
000048E2  285F                     movea.l    A4, [A7]+
000048E4  4E5E                     unlink     A6
000048E6  2E9F                     move.l     [A7], [A7]+
000048E8  4E75                     rts
export_260:
000048EA  4E56 FD74                link       A6, -0x028C
000048EE  48E7 1F08                movem.l    -[A7], D3,D4,D5,D6,D7,A4
000048F2  286E 0008                movea.l    A4, [A6 + 0x8]
000048F6  41EE FEE0                lea.l      A0, [A6 - 0x120]
000048FA  224C                     movea.l    A1, A4
000048FC  7047                     moveq.l    D0, 0x47
label000048FE:
000048FE  20D9                     move.l     [A0]+, [A1]+
00004900  51C8 FFFC                dbf        D0, -0x6 /* 000048FE */
00004904  3A2D DC34                move.w     D5, [A5 - 0x23CC]
00004908  486E FEC8                pea.l      [A6 - 0x138]
0000490C  A874                     syscall    GetPort
0000490E  42A7                     clr.l      -[A7]
00004910  3F3C 0068                move.w     -[A7], 0x68 /* 'h' */
00004914  42A7                     clr.l      -[A7]
00004916  70FF                     moveq.l    D0, 0xFFFFFFFF
00004918  2F00                     move.l     -[A7], D0
0000491A  A97C                     syscall    GetNewDialog
0000491C  2D5F FEDC                move.l     [A6 - 0x124], [A7]+
00004920  2F2E FEDC                move.l     -[A7], [A6 - 0x124]
00004924  4EAD 182A                jsr        [A5 + 0x182A /* export_769, CODE:16 @ 000002AC */]
00004928  2F2E FEDC                move.l     -[A7], [A6 - 0x124]
0000492C  486E FD90                pea.l      [A6 - 0x270]
00004930  4EAD 074A                jsr        [A5 + 0x74A /* export_229, CODE:4 @ 000026BE */]
00004934  2F2E FEDC                move.l     -[A7], [A6 - 0x124]
00004938  3F3C 0003                move.w     -[A7], 0x3
0000493C  486E FED8                pea.l      [A6 - 0x128]
00004940  486E FED4                pea.l      [A6 - 0x12C]
00004944  486E FECC                pea.l      [A6 - 0x134]
00004948  A98D                     syscall    GetDialogItem/GetDItem
0000494A  2F2E FED4                move.l     -[A7], [A6 - 0x12C]
0000494E  102E FEF2                move.b     D0, [A6 - 0x10E]
00004952  4880                     ext.w      D0
00004954  3F00                     move.w     -[A7], D0
00004956  A963                     syscall    SetControlValue/SetCtlValue
00004958  2F2E FEDC                move.l     -[A7], [A6 - 0x124]
0000495C  3F3C 0006                move.w     -[A7], 0x6
00004960  486E FED8                pea.l      [A6 - 0x128]
00004964  486E FED4                pea.l      [A6 - 0x12C]
00004968  486E FECC                pea.l      [A6 - 0x134]
0000496C  A98D                     syscall    GetDialogItem/GetDItem
0000496E  2F2E FED4                move.l     -[A7], [A6 - 0x12C]
00004972  486E FDC4                pea.l      [A6 - 0x23C]
00004976  A990                     syscall    GetDialogItemText/GetIText
00004978  2F0E                     move.l     -[A7], A6
0000497A  4EBA FE10                jsr        [PC - 0x1F0 /* 0000478C */]
0000497E  2F2E FEDC                move.l     -[A7], [A6 - 0x124]
00004982  3F3C 0008                move.w     -[A7], 0x8
00004986  486E FED8                pea.l      [A6 - 0x128]
0000498A  486E FED4                pea.l      [A6 - 0x12C]
0000498E  486E FECC                pea.l      [A6 - 0x134]
00004992  A98D                     syscall    GetDialogItem/GetDItem
00004994  2F2E FED4                move.l     -[A7], [A6 - 0x12C]
00004998  102E FEF9                move.b     D0, [A6 - 0x107]
0000499C  4880                     ext.w      D0
0000499E  3F00                     move.w     -[A7], D0
000049A0  A963                     syscall    SetControlValue/SetCtlValue
000049A2  102D DC2E                move.b     D0, [A5 - 0x23D2]
000049A6  6708                     beq        +0xA /* 000049B0 */
000049A8  2F0E                     move.l     -[A7], A6
000049AA  4EBA FE86                jsr        [PC - 0x17A /* 00004832 */]
000049AE  6048                     bra        +0x4A /* 000049F8 */
label000049B0:
000049B0  102E FEFE                move.b     D0, [A6 - 0x102]
000049B4  4880                     ext.w      D0
000049B6  4A40                     tst.w      D0
000049B8  6B18                     bmi        +0x1A /* 000049D2 */
000049BA  B07C 0007                cmp.w      D0, 0x7
000049BE  6E12                     bgt        +0x14 /* 000049D2 */
000049C0  41FA 048C                lea.l      A0, [PC + 0x48C /* 00004E4E, value 0x4E560000 'NV\0\0', cstring "NV" */]
000049C4  3200                     move.w     D1, D0
000049C6  E649                     lsr        D1.w, 3
000049C8  4441                     neg.w      D1
000049CA  0130 10FF                btst       [A0 + D1.w - 0x1], D0
000049CE  0A3C 0004                xori.b     ccr, 4
label000049D2:
000049D2  6606                     bne        +0x8 /* 000049DA */
000049D4  1D7C 0001 FEFE           move.b     [A6 - 0x102], 0x1
label000049DA:
000049DA  3D7C 000B FEDA           move.w     [A6 - 0x126], 0xB
000049E0  600E                     bra        +0x10 /* 000049F0 */
label000049E2:
000049E2  2F2E FEDC                move.l     -[A7], [A6 - 0x124]
000049E6  3F2E FEDA                move.w     -[A7], [A6 - 0x126]
000049EA  A827                     syscall    HideDialogItem/HideDItem
000049EC  526E FEDA                addq.w     [A6 - 0x126], 1
label000049F0:
000049F0  700C                     moveq.l    D0, 0x0C
000049F2  B06E FEDA                cmp.w      D0, [A6 - 0x126]
000049F6  6CEA                     bge        -0x14 /* 000049E2 */
label000049F8:
000049F8  1F2E FEFE                move.b     -[A7], [A6 - 0x102]
000049FC  2F2E 000C                move.l     -[A7], [A6 + 0xC]
00004A00  4EAD 07A2                jsr        [A5 + 0x7A2 /* export_240, CODE:4 @ 00004094 */]
00004A04  1F2E FEFE                move.b     -[A7], [A6 - 0x102]
00004A08  4267                     clr.w      -[A7]
00004A0A  2F0E                     move.l     -[A7], A6
00004A0C  4EBA FD00                jsr        [PC - 0x300 /* 0000470E */]
00004A10  1F2E FEF6                move.b     -[A7], [A6 - 0x10A]
00004A14  2F0E                     move.l     -[A7], A6
00004A16  4EBA FC96                jsr        [PC - 0x36A /* 000046AE */]
00004A1A  2F0E                     move.l     -[A7], A6
00004A1C  4EBA F63C                jsr        [PC - 0x9C4 /* 0000405A */]
00004A20  2F2E FEDC                move.l     -[A7], [A6 - 0x124]
00004A24  3F3C 0001                move.w     -[A7], 0x1
00004A28  486E FED8                pea.l      [A6 - 0x128]
00004A2C  486E FED4                pea.l      [A6 - 0x12C]
00004A30  486E FECC                pea.l      [A6 - 0x134]
00004A34  A98D                     syscall    GetDialogItem/GetDItem
00004A36  486E FECC                pea.l      [A6 - 0x134]
00004A3A  2F3C FFFC FFFC           move.l     -[A7], 0xFFFCFFFC
00004A40  A8A9                     syscall    InsetRect
00004A42  2F2E FEDC                move.l     -[A7], [A6 - 0x124]
00004A46  A915                     syscall    ShowWindow
00004A48  2F2E FEDC                move.l     -[A7], [A6 - 0x124]
00004A4C  A873                     syscall    SetPort
00004A4E  2F3C 0003 0003           move.l     -[A7], 0x30003
00004A54  A89B                     syscall    PenSize
00004A56  486E FECC                pea.l      [A6 - 0x134]
00004A5A  2F3C 000F 000F           move.l     -[A7], 0xF000F
00004A60  A8B0                     syscall    FrameRoundRect
00004A62  A89E                     syscall    PenNormal
00004A64  2F2E FEDC                move.l     -[A7], [A6 - 0x124]
00004A68  A981                     syscall    DrawDialog
00004A6A  2F2E FEDC                move.l     -[A7], [A6 - 0x124]
00004A6E  2F3C 0000 0006           move.l     -[A7], 0x6
00004A74  3F3C 0003                move.w     -[A7], 0x3
00004A78  A97E                     syscall    SelectDialogItemText/SelIText
00004A7A  2F0E                     move.l     -[A7], A6
00004A7C  4EBA FE22                jsr        [PC - 0x1DE /* 000048A0 */]
00004A80  2F2E FEDC                move.l     -[A7], [A6 - 0x124]
00004A84  3F3C 0011                move.w     -[A7], 0x11
00004A88  486E FF00                pea.l      [A6 - 0x100]
00004A8C  3F3C 0006                move.w     -[A7], 0x6
00004A90  4EAD 07C2                jsr        [A5 + 0x7C2 /* export_244, CODE:4 @ 00004230 */]
00004A94  486D DC1C                pea.l      [A5 - 0x23E4]
00004A98  4EBA B728                jsr        [PC - 0x48D8 /* 000001C2 */]
00004A9C  4267                     clr.w      -[A7]
00004A9E  2F0E                     move.l     -[A7], A6
00004AA0  4EBA FABC                jsr        [PC - 0x544 /* 0000455E */]
00004AA4  4EAD 1862                jsr        [A5 + 0x1862 /* export_776, CODE:16 @ 00000474 */]
00004AA8  206E FEDC                movea.l    A0, [A6 - 0x124]
00004AAC  4868 0010                pea.l      [A0 + 0x10]
00004AB0  A92A                     syscall    ValidRect
00004AB2  4207                     clr.b      D7
label00004AB4:
00004AB4  42A7                     clr.l      -[A7]
00004AB6  486E FEDA                pea.l      [A6 - 0x126]
00004ABA  A991                     syscall    ModalDialog
00004ABC  2F2E FEDC                move.l     -[A7], [A6 - 0x124]
00004AC0  3F2E FEDA                move.w     -[A7], [A6 - 0x126]
00004AC4  486E FED8                pea.l      [A6 - 0x128]
00004AC8  486E FED4                pea.l      [A6 - 0x12C]
00004ACC  486E FECC                pea.l      [A6 - 0x134]
00004AD0  A98D                     syscall    GetDialogItem/GetDItem
00004AD2  302E FEDA                move.w     D0, [A6 - 0x126]
00004AD6  5340                     subq.w     D0, 1
00004AD8  6B00 0300                bmi        +0x302 /* 00004DDA */
00004ADC  0C40 0011                cmpi.w     D0, 0x11
00004AE0  6E00 02F8                bgt        +0x2FA /* 00004DDA */
00004AE4  D040                     add.w      D0, D0
00004AE6  303B 0006                move.w     D0, [PC + D0.w + 0x6]
00004AEA  4EFB 0000                jmp        [PC + D0.w]
00004AEE  0026 02EE                ori.b      -[A6], 0xEE
00004AF2  0098 00FC 02EE           ori.l      [A0]+, 0xFC02EE
00004AF8  00CA                     .incomplete
00004AFA  0080 015E 0186           ori.l      D0, 0x15E0186
00004B00  0186                     bclr       D6, D0
00004B02  0186                     bclr       D6, D0
00004B04  0186                     bclr       D6, D0
00004B06  01EA                     .incomplete
00004B08  01EA                     .incomplete
00004B0A  02EE                     .incomplete
00004B0C  0288 023C 029A           andi.l     A0, 0x23C029A
00004B12  4240                     clr.w      D0
00004B14  102E FF00                move.b     D0, [A6 - 0x100]
00004B18  4A40                     tst.w      D0
00004B1A  57C0                     seq        D0
00004B1C  2207                     move.l     D1, D7
00004B1E  C200                     and.b      D1, D0
00004B20  6708                     beq        +0xA /* 00004B2A */
00004B22  4267                     clr.w      -[A7]
00004B24  2F0E                     move.l     -[A7], A6
00004B26  4EBA FA36                jsr        [PC - 0x5CA /* 0000455E */]
label00004B2A:
00004B2A  486E FDC4                pea.l      [A6 - 0x23C]
00004B2E  486E FEC4                pea.l      [A6 - 0x13C]
00004B32  4EAD 045A                jsr        [A5 + 0x45A /* export_135, CODE:1 @ 00004D96 */]
00004B36  3B6E FEC6 DC4E           move.w     [A5 - 0x23B2], [A6 - 0x13A]
00004B3C  41EE FEE0                lea.l      A0, [A6 - 0x120]
00004B40  224C                     movea.l    A1, A4
00004B42  7047                     moveq.l    D0, 0x47
label00004B44:
00004B44  22D8                     move.l     [A1]+, [A0]+
00004B46  51C8 FFFC                dbf        D0, -0x6 /* 00004B44 */
00004B4A  2F2E 000C                move.l     -[A7], [A6 + 0xC]
00004B4E  1F2C 0012                move.b     -[A7], [A4 + 0x12]
00004B52  4EAD 07DA                jsr        [A5 + 0x7DA /* export_247, CODE:4 @ 000043CC */]
00004B56  2F2E 000C                move.l     -[A7], [A6 + 0xC]
00004B5A  3F2D DC4E                move.w     -[A7], [A5 - 0x23B2]
00004B5E  4EAD 07AA                jsr        [A5 + 0x7AA /* export_241, CODE:4 @ 0000414E */]
00004B62  1D7C 0001 0010           move.b     [A6 + 0x10], 0x1
00004B68  6000 0270                bra        +0x272 /* 00004DDA */
00004B6C  BA6D DC34                cmp.w      D5, [A5 - 0x23CC]
00004B70  670A                     beq        +0xC /* 00004B7C */
00004B72  3F05                     move.w     -[A7], D5
00004B74  2F2D DBFC                move.l     -[A7], [A5 - 0x2404]
00004B78  4EAD 07EA                jsr        [A5 + 0x7EA /* export_249, CODE:4 @ 000044A4 */]
label00004B7C:
00004B7C  422E 0010                clr.b      [A6 + 0x10]
00004B80  6000 0258                bra        +0x25A /* 00004DDA */
00004B84  4240                     clr.w      D0
00004B86  102E FF00                move.b     D0, [A6 - 0x100]
00004B8A  4A40                     tst.w      D0
00004B8C  57C0                     seq        D0
00004B8E  2207                     move.l     D1, D7
00004B90  C200                     and.b      D1, D0
00004B92  6708                     beq        +0xA /* 00004B9C */
00004B94  4267                     clr.w      -[A7]
00004B96  2F0E                     move.l     -[A7], A6
00004B98  4EBA F9C4                jsr        [PC - 0x63C /* 0000455E */]
label00004B9C:
00004B9C  0A2E 0001 FEF2           xori.b     [A6 - 0x10E], 0x1
00004BA2  2F2E FED4                move.l     -[A7], [A6 - 0x12C]
00004BA6  102E FEF2                move.b     D0, [A6 - 0x10E]
00004BAA  4880                     ext.w      D0
00004BAC  3F00                     move.w     -[A7], D0
00004BAE  A963                     syscall    SetControlValue/SetCtlValue
00004BB0  4207                     clr.b      D7
00004BB2  6000 0226                bra        +0x228 /* 00004DDA */
00004BB6  4240                     clr.w      D0
00004BB8  102E FF00                move.b     D0, [A6 - 0x100]
00004BBC  4A40                     tst.w      D0
00004BBE  57C0                     seq        D0
00004BC0  2207                     move.l     D1, D7
00004BC2  C200                     and.b      D1, D0
00004BC4  6708                     beq        +0xA /* 00004BCE */
00004BC6  4267                     clr.w      -[A7]
00004BC8  2F0E                     move.l     -[A7], A6
00004BCA  4EBA F992                jsr        [PC - 0x66E /* 0000455E */]
label00004BCE:
00004BCE  2F2E FEDC                move.l     -[A7], [A6 - 0x124]
00004BD2  3F2E FEDA                move.w     -[A7], [A6 - 0x126]
00004BD6  3F3C 0002                move.w     -[A7], 0x2
00004BDA  486E FDC4                pea.l      [A6 - 0x23C]
00004BDE  4EAD 065A                jsr        [A5 + 0x65A /* export_199, CODE:4 @ 00001528 */]
00004BE2  4207                     clr.b      D7
00004BE4  6000 01F4                bra        +0x1F6 /* 00004DDA */
00004BE8  4240                     clr.w      D0
00004BEA  102E FF00                move.b     D0, [A6 - 0x100]
00004BEE  4A40                     tst.w      D0
00004BF0  57C0                     seq        D0
00004BF2  2207                     move.l     D1, D7
00004BF4  C200                     and.b      D1, D0
00004BF6  6708                     beq        +0xA /* 00004C00 */
00004BF8  4267                     clr.w      -[A7]
00004BFA  2F0E                     move.l     -[A7], A6
00004BFC  4EBA F960                jsr        [PC - 0x6A0 /* 0000455E */]
label00004C00:
00004C00  206E 000C                movea.l    A0, [A6 + 0xC]
00004C04  2050                     movea.l    A0, [A0]
00004C06  3028 0018                move.w     D0, [A0 + 0x18]
00004C0A  48C0                     ext.l      D0
00004C0C  81FC 0100                divs.w     D0, 0x100
00004C10  5340                     subq.w     D0, 1
00004C12  6706                     beq        +0x8 /* 00004C1A */
00004C14  5540                     subq.w     D0, 2
00004C16  6718                     beq        +0x1A /* 00004C30 */
00004C18  602A                     bra        +0x2C /* 00004C44 */
label00004C1A:
00004C1A  0A2E 0001 FEF4           xori.b     [A6 - 0x10C], 0x1
00004C20  2F2E FED4                move.l     -[A7], [A6 - 0x12C]
00004C24  102E FEF4                move.b     D0, [A6 - 0x10C]
00004C28  4880                     ext.w      D0
00004C2A  3F00                     move.w     -[A7], D0
00004C2C  A963                     syscall    SetControlValue/SetCtlValue
00004C2E  6014                     bra        +0x16 /* 00004C44 */
label00004C30:
00004C30  0A2E 0001 FEF5           xori.b     [A6 - 0x10B], 0x1
00004C36  2F2E FED4                move.l     -[A7], [A6 - 0x12C]
00004C3A  102E FEF5                move.b     D0, [A6 - 0x10B]
00004C3E  4880                     ext.w      D0
00004C40  3F00                     move.w     -[A7], D0
00004C42  A963                     syscall    SetControlValue/SetCtlValue
label00004C44:
00004C44  4207                     clr.b      D7
00004C46  6000 0192                bra        +0x194 /* 00004DDA */
00004C4A  0A2E 0001 FEF9           xori.b     [A6 - 0x107], 0x1
00004C50  2F2E FED4                move.l     -[A7], [A6 - 0x12C]
00004C54  102E FEF9                move.b     D0, [A6 - 0x107]
00004C58  4880                     ext.w      D0
00004C5A  3F00                     move.w     -[A7], D0
00004C5C  A963                     syscall    SetControlValue/SetCtlValue
00004C5E  2F0E                     move.l     -[A7], A6
00004C60  4EBA F362                jsr        [PC - 0xC9E /* 00003FC4 */]
00004C64  4267                     clr.w      -[A7]
00004C66  2F0E                     move.l     -[A7], A6
00004C68  4EBA F8F4                jsr        [PC - 0x70C /* 0000455E */]
00004C6C  4207                     clr.b      D7
00004C6E  6000 016A                bra        +0x16C /* 00004DDA */
00004C72  182E FEFE                move.b     D4, [A6 - 0x102]
00004C76  302E FEDA                move.w     D0, [A6 - 0x126]
00004C7A  907C 0009                sub.w      D0, 0x9 /* '\t' */
00004C7E  1D40 FEFE                move.b     [A6 - 0x102], D0
00004C82  B82E FEFE                cmp.b      D4, [A6 - 0x102]
00004C86  661A                     bne        +0x1C /* 00004CA2 */
00004C88  4240                     clr.w      D0
00004C8A  102E FF00                move.b     D0, [A6 - 0x100]
00004C8E  4A40                     tst.w      D0
00004C90  57C0                     seq        D0
00004C92  2207                     move.l     D1, D7
00004C94  C200                     and.b      D1, D0
00004C96  6708                     beq        +0xA /* 00004CA0 */
00004C98  4267                     clr.w      -[A7]
00004C9A  2F0E                     move.l     -[A7], A6
00004C9C  4EBA F8C0                jsr        [PC - 0x740 /* 0000455E */]
label00004CA0:
00004CA0  602E                     bra        +0x30 /* 00004CD0 */
label00004CA2:
00004CA2  302E FEDA                move.w     D0, [A6 - 0x126]
00004CA6  907C 0009                sub.w      D0, 0x9 /* '\t' */
00004CAA  1F00                     move.b     -[A7], D0
00004CAC  1F3C 0001                move.b     -[A7], 0x1
00004CB0  2F0E                     move.l     -[A7], A6
00004CB2  4EBA FA5A                jsr        [PC - 0x5A6 /* 0000470E */]
00004CB6  1F2E FEFE                move.b     -[A7], [A6 - 0x102]
00004CBA  2F2E 000C                move.l     -[A7], [A6 + 0xC]
00004CBE  4EAD 07A2                jsr        [A5 + 0x7A2 /* export_240, CODE:4 @ 00004094 */]
00004CC2  2F0E                     move.l     -[A7], A6
00004CC4  4EBA F2FE                jsr        [PC - 0xD02 /* 00003FC4 */]
00004CC8  4267                     clr.w      -[A7]
00004CCA  2F0E                     move.l     -[A7], A6
00004CCC  4EBA F890                jsr        [PC - 0x770 /* 0000455E */]
label00004CD0:
00004CD0  4207                     clr.b      D7
00004CD2  6000 0106                bra        +0x108 /* 00004DDA */
00004CD6  1C2E FEF6                move.b     D6, [A6 - 0x10A]
00004CDA  302E FEDA                move.w     D0, [A6 - 0x126]
00004CDE  907C 000D                sub.w      D0, 0xD /* '\r' */
00004CE2  1D40 FEF6                move.b     [A6 - 0x10A], D0
00004CE6  BC2E FEF6                cmp.b      D6, [A6 - 0x10A]
00004CEA  57C0                     seq        D0
00004CEC  C007                     and.b      D0, D7
00004CEE  4241                     clr.w      D1
00004CF0  122E FF00                move.b     D1, [A6 - 0x100]
00004CF4  4A41                     tst.w      D1
00004CF6  57C1                     seq        D1
00004CF8  C001                     and.b      D0, D1
00004CFA  6708                     beq        +0xA /* 00004D04 */
00004CFC  4267                     clr.w      -[A7]
00004CFE  2F0E                     move.l     -[A7], A6
00004D00  4EBA F85C                jsr        [PC - 0x7A4 /* 0000455E */]
label00004D04:
00004D04  302E FEDA                move.w     D0, [A6 - 0x126]
00004D08  907C 000D                sub.w      D0, 0xD /* '\r' */
00004D0C  1F00                     move.b     -[A7], D0
00004D0E  2F0E                     move.l     -[A7], A6
00004D10  4EBA F99C                jsr        [PC - 0x664 /* 000046AE */]
00004D14  BC2E FEF6                cmp.b      D6, [A6 - 0x10A]
00004D18  6708                     beq        +0xA /* 00004D22 */
00004D1A  4267                     clr.w      -[A7]
00004D1C  2F0E                     move.l     -[A7], A6
00004D1E  4EBA F83E                jsr        [PC - 0x7C2 /* 0000455E */]
label00004D22:
00004D22  4207                     clr.b      D7
00004D24  6000 00B4                bra        +0xB6 /* 00004DDA */
00004D28  2F2E FED4                move.l     -[A7], [A6 - 0x12C]
00004D2C  486E FF00                pea.l      [A6 - 0x100]
00004D30  4EAD 066A                jsr        [A5 + 0x66A /* export_201, CODE:4 @ 000015DA */]
00004D34  1007                     move.b     D0, D7
00004D36  0A00 0001                xori.b     D0, 0x1
00004D3A  4241                     clr.w      D1
00004D3C  122E FF00                move.b     D1, [A6 - 0x100]
00004D40  4A41                     tst.w      D1
00004D42  57C1                     seq        D1
00004D44  4242                     clr.w      D2
00004D46  142E FF00                move.b     D2, [A6 - 0x100]
00004D4A  7601                     moveq.l    D3, 0x01
00004D4C  B642                     cmp.w      D3, D2
00004D4E  57C2                     seq        D2
00004D50  8202                     or.b       D1, D2
00004D52  C001                     and.b      D0, D1
00004D54  670C                     beq        +0xE /* 00004D62 */
00004D56  1F3C 0001                move.b     -[A7], 0x1
00004D5A  2F0E                     move.l     -[A7], A6
00004D5C  4EBA F800                jsr        [PC - 0x800 /* 0000455E */]
00004D60  600E                     bra        +0x10 /* 00004D70 */
label00004D62:
00004D62  486D DC14                pea.l      [A5 - 0x23EC]
00004D66  A8A3                     syscall    EraseRect
00004D68  486E FF00                pea.l      [A6 - 0x100]
00004D6C  4EBA B498                jsr        [PC - 0x4B68 /* 00000206 */]
label00004D70:
00004D70  7E01                     moveq.l    D7, 0x01
00004D72  6066                     bra        +0x68 /* 00004DDA */
00004D74  2F2E FEDC                move.l     -[A7], [A6 - 0x124]
00004D78  2F3C 0011 0010           move.l     -[A7], 0x110010
00004D7E  1F07                     move.b     -[A7], D7
00004D80  4EBA B81E                jsr        [PC - 0x47E2 /* 000005A0 */]
00004D84  6054                     bra        +0x56 /* 00004DDA */
00004D86  41EE FECC                lea.l      A0, [A6 - 0x134]
00004D8A  43ED DC1C                lea.l      A1, [A5 - 0x23E4]
00004D8E  20D9                     move.l     [A0]+, [A1]+
00004D90  20D9                     move.l     [A0]+, [A1]+
00004D92  486E FECC                pea.l      [A6 - 0x134]
00004D96  2F3C FFFE FFFE           move.l     -[A7], 0xFFFEFFFE
00004D9C  A8A9                     syscall    InsetRect
00004D9E  486E FD74                pea.l      [A6 - 0x28C]
00004DA2  A972                     syscall    GetMouse
00004DA4  4267                     clr.w      -[A7]
00004DA6  2F2E FD74                move.l     -[A7], [A6 - 0x28C]
00004DAA  486E FECC                pea.l      [A6 - 0x134]
00004DAE  A8AD                     syscall    PtInRect
00004DB0  101F                     move.b     D0, [A7]+
00004DB2  6726                     beq        +0x28 /* 00004DDA */
00004DB4  4240                     clr.w      D0
00004DB6  102E FF00                move.b     D0, [A6 - 0x100]
00004DBA  4A40                     tst.w      D0
00004DBC  57C0                     seq        D0
00004DBE  4241                     clr.w      D1
00004DC0  122E FF00                move.b     D1, [A6 - 0x100]
00004DC4  7401                     moveq.l    D2, 0x01
00004DC6  B441                     cmp.w      D2, D1
00004DC8  57C1                     seq        D1
00004DCA  8001                     or.b       D0, D1
00004DCC  670A                     beq        +0xC /* 00004DD8 */
00004DCE  1F3C 0001                move.b     -[A7], 0x1
00004DD2  2F0E                     move.l     -[A7], A6
00004DD4  4EBA F788                jsr        [PC - 0x878 /* 0000455E */]
label00004DD8:
00004DD8  7E01                     moveq.l    D7, 0x01
label00004DDA:
00004DDA  7001                     moveq.l    D0, 0x01
00004DDC  B06E FEDA                cmp.w      D0, [A6 - 0x126]
00004DE0  57C0                     seq        D0
00004DE2  7207                     moveq.l    D1, 0x07
00004DE4  B26E FEDA                cmp.w      D1, [A6 - 0x126]
00004DE8  57C1                     seq        D1
00004DEA  8001                     or.b       D0, D1
00004DEC  6700 FCC6                beq        -0x338 /* 00004AB4 */
00004DF0  2F2E FEDC                move.l     -[A7], [A6 - 0x124]
00004DF4  A916                     syscall    HideWindow
00004DF6  41ED E2F2                lea.l      A0, [A5 - 0x1D0E]
00004DFA  43ED ED82                lea.l      A1, [A5 - 0x127E]
00004DFE  20D9                     move.l     [A0]+, [A1]+
00004E00  20D9                     move.l     [A0]+, [A1]+
00004E02  4EAD 0732                jsr        [A5 + 0x732 /* export_226, CODE:4 @ 0000248E */]
00004E06  2F0E                     move.l     -[A7], A6
00004E08  4EBA F342                jsr        [PC - 0xCBE /* 0000414C */]
00004E0C  2F2E FEDC                move.l     -[A7], [A6 - 0x124]
00004E10  4EAD 201A                jsr        [A5 + 0x201A /* export_1023, CODE:20 @ 000002FA */]
00004E14  2F2E FEC8                move.l     -[A7], [A6 - 0x138]
00004E18  A873                     syscall    SetPort
00004E1A  4267                     clr.w      -[A7]
00004E1C  4EAD 072A                jsr        [A5 + 0x72A /* export_225, CODE:4 @ 00002474 */]
00004E20  4267                     clr.w      -[A7]
00004E22  2F2E 000C                move.l     -[A7], [A6 + 0xC]
00004E26  4EAD 015A                jsr        [A5 + 0x15A /* export_39, CODE:1 @ 00003E00 */]
00004E2A  1C1F                     move.b     D6, [A7]+
00004E2C  4EAD 0792                jsr        [A5 + 0x792 /* export_238, CODE:4 @ 00003EEE */]
00004E30  2F2E FEC8                move.l     -[A7], [A6 - 0x138]
00004E34  A873                     syscall    SetPort
00004E36  4A6D DC30                tst.w      [A5 - 0x23D0]
00004E3A  6704                     beq        +0x6 /* 00004E40 */
00004E3C  422E 0010                clr.b      [A6 + 0x10]
label00004E40:
00004E40  4CDF 10F8                movem.l    D3,D4,D5,D6,D7,A4, [A7]+
00004E44  4E5E                     unlink     A6
00004E46  205F                     movea.l    A0, [A7]+
00004E48  504F                     addq.w     A7, 8
00004E4A  4ED0                     jmp        [A0]
00004E4C  000C 4E56                ori.b      A4, 0x56 /* 'V' */
// begin alternate branch 00004E4E-00004E54
fn00004E4E:
00004E4E  4E56 0000                link       A6, 0
00004E52  4267                     clr.w      -[A7]
// end alternate branch 00004E4E-00004E54
fn00004E4E: // (misaligned)
00004E50  0000 4267                ori.b      D0, 0x67 /* 'g' */
00004E54  302E 0008                move.w     D0, [A6 + 0x8]
00004E58  48C0                     ext.l      D0
00004E5A  2F00                     move.l     -[A7], D0
00004E5C  4EBA 0054                jsr        [PC + 0x54 /* 00004EB2 */]
00004E60  4267                     clr.w      -[A7]
00004E62  7001                     moveq.l    D0, 0x01
00004E64  2F00                     move.l     -[A7], D0
00004E66  4EBA 004A                jsr        [PC + 0x4A /* 00004EB2 */]
00004E6A  301F                     move.w     D0, [A7]+
00004E6C  48C0                     ext.l      D0
00004E6E  81FC 0002                divs.w     D0, 0x2
00004E72  D05F                     add.w      D0, [A7]+
00004E74  3D40 000A                move.w     [A6 + 0xA], D0
00004E78  4E5E                     unlink     A6
00004E7A  205F                     movea.l    A0, [A7]+
00004E7C  544F                     addq.w     A7, 2
00004E7E  4ED0                     jmp        [A0]
fn00004E80:
00004E80  4E56 0000                link       A6, 0
00004E84  4267                     clr.w      -[A7]
00004E86  302E 0008                move.w     D0, [A6 + 0x8]
00004E8A  48C0                     ext.l      D0
00004E8C  2F00                     move.l     -[A7], D0
00004E8E  4EBA 0052                jsr        [PC + 0x52 /* 00004EE2 */]
00004E92  4267                     clr.w      -[A7]
00004E94  7001                     moveq.l    D0, 0x01
00004E96  2F00                     move.l     -[A7], D0
00004E98  4EBA 0048                jsr        [PC + 0x48 /* 00004EE2 */]
00004E9C  301F                     move.w     D0, [A7]+
00004E9E  48C0                     ext.l      D0
00004EA0  81FC 0002                divs.w     D0, 0x2
00004EA4  D05F                     add.w      D0, [A7]+
00004EA6  3D40 000A                move.w     [A6 + 0xA], D0
00004EAA  4E5E                     unlink     A6
00004EAC  205F                     movea.l    A0, [A7]+
00004EAE  544F                     addq.w     A7, 2
00004EB0  4ED0                     jmp        [A0]
fn00004EB2:
00004EB2  4E56 0000                link       A6, 0
00004EB6  302D DC3A                move.w     D0, [A5 - 0x23C6]
00004EBA  48C0                     ext.l      D0
00004EBC  2F2E 0008                move.l     -[A7], [A6 + 0x8]
00004EC0  2F00                     move.l     -[A7], D0
00004EC2  4EAD 04EA                jsr        [A5 + 0x4EA /* export_153, CODE:1 @ 000051F0 */]
00004EC6  302D DC3E                move.w     D0, [A5 - 0x23C2]
00004ECA  48C0                     ext.l      D0
00004ECC  2F00                     move.l     -[A7], D0
00004ECE  4EAD 04F2                jsr        [A5 + 0x4F2 /* export_154, CODE:1 @ 00005224 */]
00004ED2  2D5F 0008                move.l     [A6 + 0x8], [A7]+
00004ED6  3D6E 000A 000C           move.w     [A6 + 0xC], [A6 + 0xA]
00004EDC  4E5E                     unlink     A6
00004EDE  2E9F                     move.l     [A7], [A7]+
00004EE0  4E75                     rts
fn00004EE2:
00004EE2  4E56 0000                link       A6, 0
00004EE6  302D DC3C                move.w     D0, [A5 - 0x23C4]
00004EEA  48C0                     ext.l      D0
00004EEC  2F2E 0008                move.l     -[A7], [A6 + 0x8]
00004EF0  2F00                     move.l     -[A7], D0
00004EF2  4EAD 04EA                jsr        [A5 + 0x4EA /* export_153, CODE:1 @ 000051F0 */]
00004EF6  302D DC40                move.w     D0, [A5 - 0x23C0]
00004EFA  48C0                     ext.l      D0
00004EFC  2F00                     move.l     -[A7], D0
00004EFE  4EAD 04F2                jsr        [A5 + 0x4F2 /* export_154, CODE:1 @ 00005224 */]
00004F02  2D5F 0008                move.l     [A6 + 0x8], [A7]+
00004F06  3D6E 000A 000C           move.w     [A6 + 0xC], [A6 + 0xA]
00004F0C  4E5E                     unlink     A6
00004F0E  2E9F                     move.l     [A7], [A7]+
00004F10  4E75                     rts
