# near model CODE resource
# jump table entries: 8160-8255 (96 of them)
export_1020:
fn00000000:
00000000  4E56 FFF2                link       A6, -0x000E
00000004  48E7 0700                movem.l    -[A7], D5,D6,D7
00000008  206D EDA6                movea.l    A0, [A5 - 0x125A]
0000000C  1028 006E                move.b     D0, [A0 + 0x6E]
00000010  6602                     bne        +0x4 /* 00000014 */
00000012  606E                     bra        +0x70 /* 00000082 */
label00000014:
00000014  4A6D FD8A                tst.w      [A5 - 0x276]
00000018  6C08                     bge        +0xA /* 00000022 */
0000001A  1B7C 0001 DC54           move.b     [A5 - 0x23AC], 0x1
00000020  6060                     bra        +0x62 /* 00000082 */
label00000022:
00000022  3E2D EFDC                move.w     D7, [A5 - 0x1024]
00000026  5347                     subq.w     D7, 1
00000028  3007                     move.w     D0, D7
0000002A  48C0                     ext.l      D0
0000002C  81FC 0003                divs.w     D0, 0x3
00000030  3C00                     move.w     D6, D0
00000032  3007                     move.w     D0, D7
00000034  48C0                     ext.l      D0
00000036  81FC 0003                divs.w     D0, 0x3
0000003A  4840                     swap.w     D0
0000003C  4A40                     tst.w      D0
0000003E  3A00                     move.w     D5, D0
00000040  C1FC 0017                muls.w     D0, 0x17
00000044  3D40 FFF4                move.w     [A6 - 0xC], D0
00000048  3006                     move.w     D0, D6
0000004A  C1FC 0015                muls.w     D0, 0x15
0000004E  3D40 FFF2                move.w     [A6 - 0xE], D0
00000052  4A46                     tst.w      D6
00000054  6F0A                     ble        +0xC /* 00000060 */
00000056  302E FFF2                move.w     D0, [A6 - 0xE]
0000005A  5840                     addq.w     D0, 4
0000005C  3D40 FFF2                move.w     [A6 - 0xE], D0
label00000060:
00000060  302E FFF4                move.w     D0, [A6 - 0xC]
00000064  D07C 0017                add.w      D0, 0x17
00000068  5340                     subq.w     D0, 1
0000006A  3D40 FFF8                move.w     [A6 - 0x8], D0
0000006E  302E FFF2                move.w     D0, [A6 - 0xE]
00000072  D07C 0015                add.w      D0, 0x15
00000076  5340                     subq.w     D0, 1
00000078  3D40 FFF6                move.w     [A6 - 0xA], D0
0000007C  486E FFF2                pea.l      [A6 - 0xE]
00000080  A8A4                     syscall    InvertRect
label00000082:
00000082  4CDF 00E0                movem.l    D5,D6,D7, [A7]+
00000086  4E5E                     unlink     A6
00000088  4E75                     rts
export_1021:
0000008A  4E56 FFF0                link       A6, -0x0010
0000008E  48E7 0708                movem.l    -[A7], D5,D6,D7,A4
00000092  426E 000A                clr.w      [A6 + 0xA]
00000096  1B6D DC6B F00B           move.b     [A5 - 0xFF5], [A5 - 0x2395]
0000009C  7000                     moveq.l    D0, 0x00
0000009E  302D F026                move.w     D0, [A5 - 0xFDA]
000000A2  C0BC 0000 1000           and.l      D0, 0x1000
000000A8  4A80                     tst.l      D0
000000AA  670A                     beq        +0xC /* 000000B6 */
000000AC  3D7C 0001 000A           move.w     [A6 + 0xA], 0x1
000000B2  6000 01AE                bra        +0x1B0 /* 00000262 */
label000000B6:
000000B6  7000                     moveq.l    D0, 0x00
000000B8  302E 0008                move.w     D0, [A6 + 0x8]
000000BC  C0BC 0000 00FF           and.l      D0, 0xFF
000000C2  3D40 FFFC                move.w     [A6 - 0x4], D0
000000C6  7000                     moveq.l    D0, 0x00
000000C8  302E 0008                move.w     D0, [A6 + 0x8]
000000CC  E088                     lsr        D0, 8
000000CE  C0BC 0000 00FF           and.l      D0, 0xFF
000000D4  3E00                     move.w     D7, D0
000000D6  102D DC6B                move.b     D0, [A5 - 0x2395]
000000DA  6708                     beq        +0xA /* 000000E4 */
000000DC  422D DC6B                clr.b      [A5 - 0x2395]
000000E0  6000 0180                bra        +0x182 /* 00000262 */
label000000E4:
000000E4  102D F2B3                move.b     D0, [A5 - 0xD4D]
000000E8  674C                     beq        +0x4E /* 00000136 */
000000EA  42A7                     clr.l      -[A7]
000000EC  3F3C 0016                move.w     -[A7], 0x16
000000F0  2F3C 8402 0008           move.l     -[A7], 0x84020008
000000F6  A8B5                     syscall    ScriptUtil
000000F8  2C1F                     move.l     D6, [A7]+
000000FA  42A7                     clr.l      -[A7]
000000FC  3F06                     move.w     -[A7], D6
000000FE  3F3C 000C                move.w     -[A7], 0xC
00000102  2F3C 8404 000C           move.l     -[A7], 0x8404000C
00000108  A8B5                     syscall    ScriptUtil
0000010A  2A1F                     move.l     D5, [A7]+
0000010C  3F05                     move.w     -[A7], D5
0000010E  A887                     syscall    TextFont
00000110  41EE FFFC                lea.l      A0, [A6 - 0x4]
00000114  2848                     movea.l    A4, A0
00000116  528C                     addq.l     A4, 1
00000118  4267                     clr.w      -[A7]
0000011A  2F0C                     move.l     -[A7], A4
0000011C  4267                     clr.w      -[A7]
0000011E  2F3C 8206 0010           move.l     -[A7], 0x82060010
00000124  A8B5                     syscall    ScriptUtil
00000126  70FF                     moveq.l    D0, 0xFFFFFFFF
00000128  B05F                     cmp.w      D0, [A7]+
0000012A  660A                     bne        +0xC /* 00000136 */
0000012C  1B7C 0001 DC6B           move.b     [A5 - 0x2395], 0x1
00000132  6000 012E                bra        +0x130 /* 00000262 */
label00000136:
00000136  206D DC74                movea.l    A0, [A5 - 0x238C]
0000013A  2050                     movea.l    A0, [A0]
0000013C  302E FFFC                move.w     D0, [A6 - 0x4]
00000140  4241                     clr.w      D1
00000142  1230 0000                move.b     D1, [A0 + D0.w]
00000146  3D41 000A                move.w     [A6 + 0xA], D1
0000014A  701B                     moveq.l    D0, 0x1B
0000014C  B06E FFFC                cmp.w      D0, [A6 - 0x4]
00000150  57C0                     seq        D0
00000152  7247                     moveq.l    D1, 0x47
00000154  B247                     cmp.w      D1, D7
00000156  57C1                     seq        D1
00000158  C001                     and.b      D0, D1
0000015A  6706                     beq        +0x8 /* 00000162 */
0000015C  3D7C 0003 000A           move.w     [A6 + 0xA], 0x3
label00000162:
00000162  7060                     moveq.l    D0, 0x60
00000164  B06E FFFC                cmp.w      D0, [A6 - 0x4]
00000168  57C0                     seq        D0
0000016A  7231                     moveq.l    D1, 0x31
0000016C  B247                     cmp.w      D1, D7
0000016E  57C1                     seq        D1
00000170  C001                     and.b      D0, D1
00000172  6704                     beq        +0x6 /* 00000178 */
00000174  426E 000A                clr.w      [A6 + 0xA]
label00000178:
00000178  7010                     moveq.l    D0, 0x10
0000017A  B06E FFFC                cmp.w      D0, [A6 - 0x4]
0000017E  6600 00CA                bne        +0xCC /* 0000024A */
00000182  3007                     move.w     D0, D7
00000184  0440 0060                subi.w     D0, 0x60 /* '`' */
00000188  6B00 00C0                bmi        +0xC2 /* 0000024A */
0000018C  0C40 001A                cmpi.w     D0, 0x1A
00000190  6E00 00B8                bgt        +0xBA /* 0000024A */
00000194  D040                     add.w      D0, D0
00000196  303B 0006                move.w     D0, [PC + D0.w + 0x6]
0000019A  4EFB 0000                jmp        [PC + D0.w]
0000019E  0058 0060                ori.w      [A0]+, 0x60 /* '`' */
000001A2  0068 0048 0070           ori.w      [A0 + 0x70], 0x48 /* 'H' */
000001A8  0078 00AE 0088           ori.w      [0x00000088], 0xAE
000001AE  00AE 0098 00AE 00A0      ori.l      [A6 + 0xA0], 0x9800AE
000001B6  00AE 0080 00AE 0090      ori.l      [A6 + 0x90], 0x8000AE
000001BE  00AE 00A8 00AE 00AE      ori.l      [A6 + 0xAE], 0xA800AE
000001C6  00AE 00AE 0050 00AE      ori.l      [A6 + 0xAE], 0xAE0050
000001CE  0040 00AE                ori.w      D0, 0xAE
000001D2  0038 3D7C 003D           ori.b      [0x0000003D], 0x7C /* '|' */
000001D8  000A 606E                ori.b      A2, 0x6E /* 'n' */
000001DC  3D7C 003E 000A           move.w     [A6 + 0xA], 0x3E /* '>' */
000001E2  6066                     bra        +0x68 /* 0000024A */
000001E4  3D7C 003F 000A           move.w     [A6 + 0xA], 0x3F /* '?' */
000001EA  605E                     bra        +0x60 /* 0000024A */
000001EC  3D7C 0040 000A           move.w     [A6 + 0xA], 0x40 /* '@' */
000001F2  6056                     bra        +0x58 /* 0000024A */
000001F4  3D7C 0041 000A           move.w     [A6 + 0xA], 0x41 /* 'A' */
000001FA  604E                     bra        +0x50 /* 0000024A */
000001FC  3D7C 0042 000A           move.w     [A6 + 0xA], 0x42 /* 'B' */
00000202  6046                     bra        +0x48 /* 0000024A */
00000204  3D7C 0043 000A           move.w     [A6 + 0xA], 0x43 /* 'C' */
0000020A  603E                     bra        +0x40 /* 0000024A */
0000020C  3D7C 0044 000A           move.w     [A6 + 0xA], 0x44 /* 'D' */
00000212  6036                     bra        +0x38 /* 0000024A */
00000214  3D7C 0045 000A           move.w     [A6 + 0xA], 0x45 /* 'E' */
0000021A  602E                     bra        +0x30 /* 0000024A */
0000021C  3D7C 0046 000A           move.w     [A6 + 0xA], 0x46 /* 'F' */
00000222  6026                     bra        +0x28 /* 0000024A */
00000224  3D7C 0047 000A           move.w     [A6 + 0xA], 0x47 /* 'G' */
0000022A  601E                     bra        +0x20 /* 0000024A */
0000022C  3D7C 0048 000A           move.w     [A6 + 0xA], 0x48 /* 'H' */
00000232  6016                     bra        +0x18 /* 0000024A */
00000234  3D7C 0049 000A           move.w     [A6 + 0xA], 0x49 /* 'I' */
0000023A  600E                     bra        +0x10 /* 0000024A */
0000023C  3D7C 004A 000A           move.w     [A6 + 0xA], 0x4A /* 'J' */
00000242  6006                     bra        +0x8 /* 0000024A */
00000244  3D7C 004B 000A           move.w     [A6 + 0xA], 0x4B /* 'K' */
label0000024A:
0000024A  7001                     moveq.l    D0, 0x01
0000024C  B06E FFFC                cmp.w      D0, [A6 - 0x4]
00000250  57C0                     seq        D0
00000252  7273                     moveq.l    D1, 0x73
00000254  B247                     cmp.w      D1, D7
00000256  57C1                     seq        D1
00000258  C001                     and.b      D0, D1
0000025A  6706                     beq        +0x8 /* 00000262 */
0000025C  3D7C 0036 000A           move.w     [A6 + 0xA], 0x36 /* '6' */
label00000262:
00000262  4CDF 10E0                movem.l    D5,D6,D7,A4, [A7]+
00000266  4E5E                     unlink     A6
00000268  205F                     movea.l    A0, [A7]+
0000026A  544F                     addq.w     A7, 2
0000026C  4ED0                     jmp        [A0]
fn0000026E:
0000026E  4E56 FFF8                link       A6, -0x0008
00000272  48E7 0108                movem.l    -[A7], D7,A4
00000276  286E 000E                movea.l    A4, [A6 + 0xE]
0000027A  3D6E 000C FFF8           move.w     [A6 - 0x8], [A6 + 0xC]
00000280  7E01                     moveq.l    D7, 0x01
00000282  602A                     bra        +0x2C /* 000002AE */
label00000284:
00000284  2014                     move.l     D0, [A4]
00000286  206E 0008                movea.l    A0, [A6 + 0x8]
0000028A  B0A8 0008                cmp.l      D0, [A0 + 0x8]
0000028E  57C0                     seq        D0
00000290  222C 0004                move.l     D1, [A4 + 0x4]
00000294  B2AD F4E0                cmp.l      D1, [A5 - 0xB20]
00000298  57C1                     seq        D1
0000029A  C001                     and.b      D0, D1
0000029C  670A                     beq        +0xC /* 000002A8 */
0000029E  2F0C                     move.l     -[A7], A4
000002A0  7008                     moveq.l    D0, 0x08
000002A2  2F00                     move.l     -[A7], D0
000002A4  4EAD 1B42                jsr        [A5 + 0x1B42 /* export_868, CODE:16 @ 00001E7C */]
label000002A8:
000002A8  508C                     addq.l     A4, 8
000002AA  5247                     addq.w     D7, 1
000002AC  6906                     bvs        +0x8 /* 000002B4 */
label000002AE:
000002AE  BE6E FFF8                cmp.w      D7, [A6 - 0x8]
000002B2  6FD0                     ble        -0x2E /* 00000284 */
label000002B4:
000002B4  4CDF 1080                movem.l    D7,A4, [A7]+
000002B8  4E5E                     unlink     A6
000002BA  205F                     movea.l    A0, [A7]+
000002BC  DEFC 000A                add.w      A7, 0xA /* '\n' */
000002C0  4ED0                     jmp        [A0]
export_1022:
000002C2  4E56 0000                link       A6, 0
000002C6  486D E668                pea.l      [A5 - 0x1998]
000002CA  3F3C 00C8                move.w     -[A7], 0xC8
000002CE  2F0E                     move.l     -[A7], A6
000002D0  4EBA FF9C                jsr        [PC - 0x64 /* 0000026E */]
000002D4  486D E5C2                pea.l      [A5 - 0x1A3E]
000002D8  3F3C 0014                move.w     -[A7], 0x14
000002DC  2F0E                     move.l     -[A7], A6
000002DE  4EBA FF8E                jsr        [PC - 0x72 /* 0000026E */]
000002E2  486D E470                pea.l      [A5 - 0x1B90]
000002E6  3F3C 002A                move.w     -[A7], 0x2A /* '*' */
000002EA  2F0E                     move.l     -[A7], A6
000002EC  4EBA FF80                jsr        [PC - 0x80 /* 0000026E */]
000002F0  4EBA 00EE                jsr        [PC + 0xEE /* 000003E0 */]
000002F4  4E5E                     unlink     A6
000002F6  2E9F                     move.l     [A7], [A7]+
000002F8  4E75                     rts
export_1023:
fn000002FA:
000002FA  4E56 0000                link       A6, 0
000002FE  2F2E 0008                move.l     -[A7], [A6 + 0x8]
00000302  A983                     syscall    DisposeDialog
00000304  2F2D EDC8                move.l     -[A7], [A5 - 0x1238]
00000308  A873                     syscall    SetPort
0000030A  4E5E                     unlink     A6
0000030C  2E9F                     move.l     [A7], [A7]+
0000030E  4E75                     rts
export_1024:
00000310  4E56 FFF8                link       A6, -0x0008
00000314  206E 0008                movea.l    A0, [A6 + 0x8]
00000318  43EE FFF8                lea.l      A1, [A6 - 0x8]
0000031C  22D8                     move.l     [A1]+, [A0]+
0000031E  22D8                     move.l     [A1]+, [A0]+
00000320  7002                     moveq.l    D0, 0x02
00000322  B02E 000C                cmp.b      D0, [A6 + 0xC]
00000326  670A                     beq        +0xC /* 00000332 */
00000328  1F2E 000C                move.b     -[A7], [A6 + 0xC]
0000032C  486E FFF8                pea.l      [A6 - 0x8]
00000330  A8A0                     syscall    StdRect
label00000332:
00000332  4E5E                     unlink     A6
00000334  205F                     movea.l    A0, [A7]+
00000336  5C4F                     addq.w     A7, 6
00000338  4ED0                     jmp        [A0]
export_1025:
fn0000033A:
0000033A  4E56 0000                link       A6, 0
0000033E  426D E222                clr.w      [A5 - 0x1DDE]
00000342  7000                     moveq.l    D0, 0x00
00000344  2B40 E21E                move.l     [A5 - 0x1DE2], D0
00000348  426D E21C                clr.w      [A5 - 0x1DE4]
0000034C  426D E21A                clr.w      [A5 - 0x1DE6]
00000350  41ED E212                lea.l      A0, [A5 - 0x1DEE]
00000354  43ED ED8A                lea.l      A1, [A5 - 0x1276]
00000358  20D9                     move.l     [A0]+, [A1]+
0000035A  20D9                     move.l     [A0]+, [A1]+
0000035C  4E5E                     unlink     A6
0000035E  4E75                     rts
fn00000360:
00000360  4E56 FFF8                link       A6, -0x0008
00000364  48E7 0108                movem.l    -[A7], D7,A4
00000368  286E 000E                movea.l    A4, [A6 + 0xE]
0000036C  3D6E 000C FFF8           move.w     [A6 - 0x8], [A6 + 0xC]
00000372  7E01                     moveq.l    D7, 0x01
00000374  601E                     bra        +0x20 /* 00000394 */
label00000376:
00000376  202C 0004                move.l     D0, [A4 + 0x4]
0000037A  206E 0008                movea.l    A0, [A6 + 0x8]
0000037E  B0A8 0008                cmp.l      D0, [A0 + 0x8]
00000382  660A                     bne        +0xC /* 0000038E */
00000384  2F0C                     move.l     -[A7], A4
00000386  7008                     moveq.l    D0, 0x08
00000388  2F00                     move.l     -[A7], D0
0000038A  4EAD 1B42                jsr        [A5 + 0x1B42 /* export_868, CODE:16 @ 00001E7C */]
label0000038E:
0000038E  508C                     addq.l     A4, 8
00000390  5247                     addq.w     D7, 1
00000392  6906                     bvs        +0x8 /* 0000039A */
label00000394:
00000394  BE6E FFF8                cmp.w      D7, [A6 - 0x8]
00000398  6FDC                     ble        -0x22 /* 00000376 */
label0000039A:
0000039A  4CDF 1080                movem.l    D7,A4, [A7]+
0000039E  4E5E                     unlink     A6
000003A0  205F                     movea.l    A0, [A7]+
000003A2  DEFC 000A                add.w      A7, 0xA /* '\n' */
000003A6  4ED0                     jmp        [A0]
export_1026:
000003A8  4E56 0000                link       A6, 0
000003AC  486D E668                pea.l      [A5 - 0x1998]
000003B0  3F3C 00C8                move.w     -[A7], 0xC8
000003B4  2F0E                     move.l     -[A7], A6
000003B6  4EBA FFA8                jsr        [PC - 0x58 /* 00000360 */]
000003BA  486D E5C2                pea.l      [A5 - 0x1A3E]
000003BE  3F3C 0014                move.w     -[A7], 0x14
000003C2  2F0E                     move.l     -[A7], A6
000003C4  4EBA FF9A                jsr        [PC - 0x66 /* 00000360 */]
000003C8  486D E470                pea.l      [A5 - 0x1B90]
000003CC  3F3C 002A                move.w     -[A7], 0x2A /* '*' */
000003D0  2F0E                     move.l     -[A7], A6
000003D2  4EBA FF8C                jsr        [PC - 0x74 /* 00000360 */]
000003D6  4EBA 0008                jsr        [PC + 0x8 /* 000003E0 */]
000003DA  4E5E                     unlink     A6
000003DC  2E9F                     move.l     [A7], [A7]+
000003DE  4E75                     rts
fn000003E0:
000003E0  4E56 FFE0                link       A6, -0x0020
000003E4  48E7 0108                movem.l    -[A7], D7,A4
000003E8  486E FFFC                pea.l      [A6 - 0x4]
000003EC  A874                     syscall    GetPort
000003EE  486D EE38                pea.l      [A5 - 0x11C8]
000003F2  A873                     syscall    SetPort
000003F4  41EE FFEE                lea.l      A0, [A6 - 0x12]
000003F8  43ED EE3A                lea.l      A1, [A5 - 0x11C6]
000003FC  20D9                     move.l     [A0]+, [A1]+
000003FE  20D9                     move.l     [A0]+, [A1]+
00000400  20D9                     move.l     [A0]+, [A1]+
00000402  3091                     move.w     [A0], [A1]
00000404  41ED EE3A                lea.l      A0, [A5 - 0x11C6]
00000408  43ED E462                lea.l      A1, [A5 - 0x1B9E]
0000040C  20D9                     move.l     [A0]+, [A1]+
0000040E  20D9                     move.l     [A0]+, [A1]+
00000410  20D9                     move.l     [A0]+, [A1]+
00000412  3091                     move.w     [A0], [A1]
00000414  49ED E470                lea.l      A4, [A5 - 0x1B90]
00000418  7E01                     moveq.l    D7, 0x01
0000041A  6018                     bra        +0x1A /* 00000434 */
label0000041C:
0000041C  4A94                     tst.l      [A4]
0000041E  6610                     bne        +0x12 /* 00000430 */
00000420  3F07                     move.w     -[A7], D7
00000422  486E FFE6                pea.l      [A6 - 0x1A]
00000426  4EAD 15AA                jsr        [A5 + 0x15AA /* export_689, CODE:15 @ 00000A3A */]
0000042A  486E FFE6                pea.l      [A6 - 0x1A]
0000042E  A8A3                     syscall    EraseRect
label00000430:
00000430  508C                     addq.l     A4, 8
00000432  5247                     addq.w     D7, 1
label00000434:
00000434  702A                     moveq.l    D0, 0x2A
00000436  B047                     cmp.w      D0, D7
00000438  6CE2                     bge        -0x1C /* 0000041C */
0000043A  41ED EE3A                lea.l      A0, [A5 - 0x11C6]
0000043E  43EE FFEE                lea.l      A1, [A6 - 0x12]
00000442  20D9                     move.l     [A0]+, [A1]+
00000444  20D9                     move.l     [A0]+, [A1]+
00000446  20D9                     move.l     [A0]+, [A1]+
00000448  3091                     move.w     [A0], [A1]
0000044A  2F2E FFFC                move.l     -[A7], [A6 - 0x4]
0000044E  A873                     syscall    SetPort
00000450  4CDF 1080                movem.l    D7,A4, [A7]+
00000454  4E5E                     unlink     A6
00000456  4E75                     rts
export_1027:
fn00000458:
00000458  4E56 0000                link       A6, 0
0000045C  7001                     moveq.l    D0, 0x01
0000045E  B06D EFDA                cmp.w      D0, [A5 - 0x1026]
00000462  6606                     bne        +0x8 /* 0000046A */
00000464  4EAD 1392                jsr        [A5 + 0x1392 /* export_622, CODE:12 @ 00004DB4 */]
00000468  6004                     bra        +0x6 /* 0000046E */
label0000046A:
0000046A  4EAD 009A                jsr        [A5 + 0x9A /* export_15, CODE:1 @ 00002548 */]
label0000046E:
0000046E  4E5E                     unlink     A6
00000470  4E75                     rts
export_1028:
00000472  4E56 FFFE                link       A6, -0x0002
00000476  1D6D E663 FFFF           move.b     [A6 - 0x1], [A5 - 0x199D]
0000047C  1B7C 0001 E663           move.b     [A5 - 0x199D], 0x1
00000482  1B7C 0001 E2EF           move.b     [A5 - 0x1D11], 0x1
00000488  4267                     clr.w      -[A7]
0000048A  2F2E 0008                move.l     -[A7], [A6 + 0x8]
0000048E  4EBA 0016                jsr        [PC + 0x16 /* 000004A6 */]
00000492  1D5F 000C                move.b     [A6 + 0xC], [A7]+
00000496  422D E2EF                clr.b      [A5 - 0x1D11]
0000049A  1B6E FFFF E663           move.b     [A5 - 0x199D], [A6 - 0x1]
000004A0  4E5E                     unlink     A6
000004A2  2E9F                     move.l     [A7], [A7]+
000004A4  4E75                     rts
export_1029:
fn000004A6:
000004A6  4E56 FB04                link       A6, -0x04FC
000004AA  48E7 0F18                movem.l    -[A7], D4,D5,D6,D7,A3,A4
000004AE  206E 0008                movea.l    A0, [A6 + 0x8]
000004B2  43EE FFA4                lea.l      A1, [A6 - 0x5C]
000004B6  7016                     moveq.l    D0, 0x16
label000004B8:
000004B8  22D8                     move.l     [A1]+, [A0]+
000004BA  51C8 FFFC                dbf        D0, -0x6 /* 000004B8 */
000004BE  422E 000C                clr.b      [A6 + 0xC]
000004C2  422D E2FF                clr.b      [A5 - 0x1D01]
000004C6  2D6D F62A FD44           move.l     [A6 - 0x2BC], [A5 - 0x9D6]
000004CC  2D6D F626 FD48           move.l     [A6 - 0x2B8], [A5 - 0x9DA]
000004D2  2D6D E2EA FD40           move.l     [A6 - 0x2C0], [A5 - 0x1D16]
000004D8  1D6D E2E5 FD3F           move.b     [A6 - 0x2C1], [A5 - 0x1D1B]
000004DE  2D6D F622 FD3A           move.l     [A6 - 0x2C6], [A5 - 0x9DE]
000004E4  2D6D E2E6 FD36           move.l     [A6 - 0x2CA], [A5 - 0x1D1A]
000004EA  1D6D E2E4 FD35           move.b     [A6 - 0x2CB], [A5 - 0x1D1C]
000004F0  2C2D F622                move.l     D6, [A5 - 0x9DE]
000004F4  7000                     moveq.l    D0, 0x00
000004F6  2D40 FFA0                move.l     [A6 - 0x60], D0
000004FA  7000                     moveq.l    D0, 0x00
000004FC  2D40 FD18                move.l     [A6 - 0x2E8], D0
00000500  486E FFA4                pea.l      [A6 - 0x5C]
00000504  4EBA 303A                jsr        [PC + 0x303A /* 00003540 */]
00000508  4267                     clr.w      -[A7]
0000050A  486E FB10                pea.l      [A6 - 0x4F0]
0000050E  2F2E FFFC                move.l     -[A7], [A6 - 0x4]
00000512  4EAD 1FEA                jsr        [A5 + 0x1FEA /* export_1017, CODE:19 @ 0000235A */]
00000516  4EBA 3460                jsr        [PC + 0x3460 /* 00003978 */]
0000051A  181F                     move.b     D4, [A7]+
0000051C  0A04 0001                xori.b     D4, 0x1
00000520  1004                     move.b     D0, D4
00000522  6748                     beq        +0x4A /* 0000056C */
00000524  486D FC48                pea.l      [A5 - 0x3B8]
00000528  486D FD48                pea.l      [A5 - 0x2B8]
0000052C  486E FC10                pea.l      [A6 - 0x3F0]
00000530  3F3C 0002                move.w     -[A7], 0x2
00000534  4EAD 050A                jsr        [A5 + 0x50A /* export_157, CODE:1 @ 0000531E */]
00000538  41EE FD52                lea.l      A0, [A6 - 0x2AE]
0000053C  43EE FC10                lea.l      A1, [A6 - 0x3F0]
00000540  703F                     moveq.l    D0, 0x3F
label00000542:
00000542  20D9                     move.l     [A0]+, [A1]+
00000544  51C8 FFFC                dbf        D0, -0x6 /* 00000542 */
00000548  1B7C 0001 EFEF           move.b     [A5 - 0x1011], 0x1
0000054E  4267                     clr.w      -[A7]
00000550  486E FB10                pea.l      [A6 - 0x4F0]
00000554  2F2E FFFC                move.l     -[A7], [A6 - 0x4]
00000558  4EAD 1FEA                jsr        [A5 + 0x1FEA /* export_1017, CODE:19 @ 0000235A */]
0000055C  4EBA 18C0                jsr        [PC + 0x18C0 /* 00001E1E */]
00000560  101F                     move.b     D0, [A7]+
00000562  6604                     bne        +0x6 /* 00000568 */
00000564  6000 0628                bra        +0x62A /* 00000B8E */
label00000568:
00000568  2C2D F664                move.l     D6, [A5 - 0x99C]
label0000056C:
0000056C  7000                     moveq.l    D0, 0x00
0000056E  2B40 DED8                move.l     [A5 - 0x2128], D0
00000572  7005                     moveq.l    D0, 0x05
00000574  B02E FFD0                cmp.b      D0, [A6 - 0x30]
00000578  6700 01A0                beq        +0x1A2 /* 0000071A */
0000057C  102E FFD0                move.b     D0, [A6 - 0x30]
00000580  4880                     ext.w      D0
00000582  6714                     beq        +0x16 /* 00000598 */
00000584  5340                     subq.w     D0, 1
00000586  671A                     beq        +0x1C /* 000005A2 */
00000588  5340                     subq.w     D0, 1
0000058A  6700 0086                beq        +0x88 /* 00000612 */
0000058E  5340                     subq.w     D0, 1
00000590  6700 0124                beq        +0x126 /* 000006B6 */
00000594  6000 0184                bra        +0x186 /* 0000071A */
label00000598:
00000598  2B6E FFD2 DED8           move.l     [A5 - 0x2128], [A6 - 0x2E]
0000059E  6000 017A                bra        +0x17C /* 0000071A */
label000005A2:
000005A2  42A7                     clr.l      -[A7]
000005A4  2F2E FFD6                move.l     -[A7], [A6 - 0x2A]
000005A8  2F2D F660                move.l     -[A7], [A5 - 0x9A0]
000005AC  4EBA 05F6                jsr        [PC + 0x5F6 /* 00000BA4 */]
000005B0  2D5F FD24                move.l     [A6 - 0x2DC], [A7]+
000005B4  202E FD24                move.l     D0, [A6 - 0x2DC]
000005B8  B0AD F660                cmp.l      D0, [A5 - 0x9A0]
000005BC  6E00 0594                bgt        +0x596 /* 00000B52 */
000005C0  2C2D F664                move.l     D6, [A5 - 0x99C]
000005C4  202E FD24                move.l     D0, [A6 - 0x2DC]
000005C8  5380                     subq.l     D0, 1
000005CA  2D40 FB0C                move.l     [A6 - 0x4F4], D0
000005CE  7001                     moveq.l    D0, 0x01
000005D0  2D40 FD28                move.l     [A6 - 0x2D8], D0
000005D4  602A                     bra        +0x2C /* 00000600 */
label000005D6:
000005D6  42A7                     clr.l      -[A7]
000005D8  2F06                     move.l     -[A7], D6
000005DA  4EAD 1F6A                jsr        [A5 + 0x1F6A /* export_1001, CODE:19 @ 000016EC */]
000005DE  265F                     movea.l    A3, [A7]+
000005E0  200B                     move.l     D0, A3
000005E2  6700 056E                beq        +0x570 /* 00000B52 */
000005E6  2053                     movea.l    A0, [A3]
000005E8  2D68 0018 FD2C           move.l     [A6 - 0x2D4], [A0 + 0x18]
000005EE  2F06                     move.l     -[A7], D6
000005F0  4267                     clr.w      -[A7]
000005F2  4EAD 1EE2                jsr        [A5 + 0x1EE2 /* export_984, CODE:19 @ 00000414 */]
000005F6  2C2E FD2C                move.l     D6, [A6 - 0x2D4]
000005FA  52AE FD28                addq.l     [A6 - 0x2D8], 1
000005FE  690A                     bvs        +0xC /* 0000060A */
label00000600:
00000600  202E FD28                move.l     D0, [A6 - 0x2D8]
00000604  B0AE FB0C                cmp.l      D0, [A6 - 0x4F4]
00000608  6FCC                     ble        -0x32 /* 000005D6 */
label0000060A:
0000060A  2B46 DED8                move.l     [A5 - 0x2128], D6
0000060E  6000 010A                bra        +0x10C /* 0000071A */
label00000612:
00000612  1004                     move.b     D0, D4
00000614  670A                     beq        +0xC /* 00000620 */
00000616  2B6D F664 DED8           move.l     [A5 - 0x2128], [A5 - 0x99C]
0000061C  6000 00FC                bra        +0xFE /* 0000071A */
label00000620:
00000620  4A2E FFDA                tst.b      [A6 - 0x26]
00000624  660A                     bne        +0xC /* 00000630 */
00000626  2B6D F622 DED8           move.l     [A5 - 0x2128], [A5 - 0x9DE]
0000062C  6000 00EC                bra        +0xEE /* 0000071A */
label00000630:
00000630  7002                     moveq.l    D0, 0x02
00000632  B0AD F660                cmp.l      D0, [A5 - 0x9A0]
00000636  6E00 051A                bgt        +0x51C /* 00000B52 */
0000063A  7005                     moveq.l    D0, 0x05
0000063C  B02E FFA4                cmp.b      D0, [A6 - 0x5C]
00000640  6614                     bne        +0x16 /* 00000656 */
00000642  70FF                     moveq.l    D0, 0xFFFFFFFF
00000644  2B40 DED8                move.l     [A5 - 0x2128], D0
00000648  42A7                     clr.l      -[A7]
0000064A  4EAD 1DF2                jsr        [A5 + 0x1DF2 /* export_954, CODE:18 @ 000010BC */]
0000064E  2D5F FD18                move.l     [A6 - 0x2E8], [A7]+
00000652  6000 00C6                bra        +0xC8 /* 0000071A */
label00000656:
00000656  7002                     moveq.l    D0, 0x02
00000658  B02E FFDA                cmp.b      D0, [A6 - 0x26]
0000065C  6628                     bne        +0x2A /* 00000686 */
0000065E  42A7                     clr.l      -[A7]
00000660  2F2D F622                move.l     -[A7], [A5 - 0x9DE]
00000664  4EAD 1F6A                jsr        [A5 + 0x1F6A /* export_1001, CODE:19 @ 000016EC */]
00000668  265F                     movea.l    A3, [A7]+
0000066A  200B                     move.l     D0, A3
0000066C  6700 04E4                beq        +0x4E6 /* 00000B52 */
00000670  2053                     movea.l    A0, [A3]
00000672  2B68 0018 DED8           move.l     [A5 - 0x2128], [A0 + 0x18]
00000678  2F2D F622                move.l     -[A7], [A5 - 0x9DE]
0000067C  4267                     clr.w      -[A7]
0000067E  4EAD 1EE2                jsr        [A5 + 0x1EE2 /* export_984, CODE:19 @ 00000414 */]
00000682  6000 0096                bra        +0x98 /* 0000071A */
label00000686:
00000686  7001                     moveq.l    D0, 0x01
00000688  B02E FFDA                cmp.b      D0, [A6 - 0x26]
0000068C  6626                     bne        +0x28 /* 000006B4 */
0000068E  42A7                     clr.l      -[A7]
00000690  2F2D F622                move.l     -[A7], [A5 - 0x9DE]
00000694  4EAD 1F6A                jsr        [A5 + 0x1F6A /* export_1001, CODE:19 @ 000016EC */]
00000698  265F                     movea.l    A3, [A7]+
0000069A  200B                     move.l     D0, A3
0000069C  6700 04B4                beq        +0x4B6 /* 00000B52 */
000006A0  2053                     movea.l    A0, [A3]
000006A2  2B68 001C DED8           move.l     [A5 - 0x2128], [A0 + 0x1C]
000006A8  2F2D F622                move.l     -[A7], [A5 - 0x9DE]
000006AC  4267                     clr.w      -[A7]
000006AE  4EAD 1EE2                jsr        [A5 + 0x1EE2 /* export_984, CODE:19 @ 00000414 */]
000006B2  6066                     bra        +0x68 /* 0000071A */
label000006B4:
000006B4  6064                     bra        +0x66 /* 0000071A */
label000006B6:
000006B6  2D6D F660 FB08           move.l     [A6 - 0x4F8], [A5 - 0x9A0]
000006BC  7001                     moveq.l    D0, 0x01
000006BE  2D40 FD28                move.l     [A6 - 0x2D8], D0
000006C2  6048                     bra        +0x4A /* 0000070C */
label000006C4:
000006C4  42A7                     clr.l      -[A7]
000006C6  2F06                     move.l     -[A7], D6
000006C8  4EAD 1F6A                jsr        [A5 + 0x1F6A /* export_1001, CODE:19 @ 000016EC */]
000006CC  265F                     movea.l    A3, [A7]+
000006CE  200B                     move.l     D0, A3
000006D0  6700 0480                beq        +0x482 /* 00000B52 */
000006D4  2053                     movea.l    A0, [A3]
000006D6  2D68 0018 FD2C           move.l     [A6 - 0x2D4], [A0 + 0x18]
000006DC  2F06                     move.l     -[A7], D6
000006DE  4267                     clr.w      -[A7]
000006E0  4EAD 1EE2                jsr        [A5 + 0x1EE2 /* export_984, CODE:19 @ 00000414 */]
000006E4  4267                     clr.w      -[A7]
000006E6  486E FFDC                pea.l      [A6 - 0x24]
000006EA  486E FB10                pea.l      [A6 - 0x4F0]
000006EE  2F06                     move.l     -[A7], D6
000006F0  4EAD 1D72                jsr        [A5 + 0x1D72 /* export_938, CODE:18 @ 00000950 */]
000006F4  4EAD 1AC2                jsr        [A5 + 0x1AC2 /* export_852, CODE:16 @ 00001B82 */]
000006F8  101F                     move.b     D0, [A7]+
000006FA  6706                     beq        +0x8 /* 00000702 */
000006FC  2B46 DED8                move.l     [A5 - 0x2128], D6
00000700  6018                     bra        +0x1A /* 0000071A */
label00000702:
00000702  2C2E FD2C                move.l     D6, [A6 - 0x2D4]
00000706  52AE FD28                addq.l     [A6 - 0x2D8], 1
0000070A  690A                     bvs        +0xC /* 00000716 */
label0000070C:
0000070C  202E FD28                move.l     D0, [A6 - 0x2D8]
00000710  B0AE FB08                cmp.l      D0, [A6 - 0x4F8]
00000714  6FAE                     ble        -0x50 /* 000006C4 */
label00000716:
00000716  6000 043A                bra        +0x43C /* 00000B52 */
label0000071A:
0000071A  7000                     moveq.l    D0, 0x00
0000071C  2B40 DEDC                move.l     [A5 - 0x2124], D0
00000720  422D F2AD                clr.b      [A5 - 0xD53]
00000724  7001                     moveq.l    D0, 0x01
00000726  2D40 FD1C                move.l     [A6 - 0x2E4], D0
0000072A  4AAD DED8                tst.l      [A5 - 0x2128]
0000072E  6F24                     ble        +0x26 /* 00000754 */
00000730  42A7                     clr.l      -[A7]
00000732  2F2D DED8                move.l     -[A7], [A5 - 0x2128]
00000736  4EAD 1F6A                jsr        [A5 + 0x1F6A /* export_1001, CODE:19 @ 000016EC */]
0000073A  265F                     movea.l    A3, [A7]+
0000073C  200B                     move.l     D0, A3
0000073E  6700 0412                beq        +0x414 /* 00000B52 */
00000742  2053                     movea.l    A0, [A3]
00000744  2D68 0014 FD1C           move.l     [A6 - 0x2E4], [A0 + 0x14]
0000074A  2F2D DED8                move.l     -[A7], [A5 - 0x2128]
0000074E  4267                     clr.w      -[A7]
00000750  4EAD 1EE2                jsr        [A5 + 0x1EE2 /* export_984, CODE:19 @ 00000414 */]
label00000754:
00000754  2D6D F66C FFA0           move.l     [A6 - 0x60], [A5 - 0x994]
0000075A  7E01                     moveq.l    D7, 0x01
0000075C  7005                     moveq.l    D0, 0x05
0000075E  B02E FFA4                cmp.b      D0, [A6 - 0x5C]
00000762  663E                     bne        +0x40 /* 000007A2 */
00000764  202D DED8                move.l     D0, [A5 - 0x2128]
00000768  B0AD F622                cmp.l      D0, [A5 - 0x9DE]
0000076C  660E                     bne        +0x10 /* 0000077C */
0000076E  2D6D F62A FFA0           move.l     [A6 - 0x60], [A5 - 0x9D6]
00000774  2E2D F626                move.l     D7, [A5 - 0x9DA]
00000778  6000 030E                bra        +0x310 /* 00000A88 */
label0000077C:
0000077C  1D7C 0002 FFA4           move.b     [A6 - 0x5C], 0x2
00000782  1D7C 0002 FFAE           move.b     [A6 - 0x52], 0x2
00000788  7002                     moveq.l    D0, 0x02
0000078A  B02E FFD0                cmp.b      D0, [A6 - 0x30]
0000078E  57C0                     seq        D0
00000790  7201                     moveq.l    D1, 0x01
00000792  B22E FFDA                cmp.b      D1, [A6 - 0x26]
00000796  57C1                     seq        D1
00000798  C001                     and.b      D0, D1
0000079A  6706                     beq        +0x8 /* 000007A2 */
0000079C  1D7C 0001 FFAE           move.b     [A6 - 0x52], 0x1
label000007A2:
000007A2  102E FFA4                move.b     D0, [A6 - 0x5C]
000007A6  4880                     ext.w      D0
000007A8  671A                     beq        +0x1C /* 000007C4 */
000007AA  5340                     subq.w     D0, 1
000007AC  6734                     beq        +0x36 /* 000007E2 */
000007AE  5340                     subq.w     D0, 1
000007B0  6700 0088                beq        +0x8A /* 0000083A */
000007B4  5340                     subq.w     D0, 1
000007B6  6700 017E                beq        +0x180 /* 00000936 */
000007BA  5340                     subq.w     D0, 1
000007BC  6700 0230                beq        +0x232 /* 000009EE */
000007C0  6000 0390                bra        +0x392 /* 00000B52 */
label000007C4:
000007C4  2D6E FFA6 FFA0           move.l     [A6 - 0x60], [A6 - 0x5A]
000007CA  7E00                     moveq.l    D7, 0x00
000007CC  4267                     clr.w      -[A7]
000007CE  486E FFA0                pea.l      [A6 - 0x60]
000007D2  4EBA 0554                jsr        [PC + 0x554 /* 00000D28 */]
000007D6  101F                     move.b     D0, [A7]+
000007D8  6604                     bne        +0x6 /* 000007DE */
000007DA  6000 0376                bra        +0x378 /* 00000B52 */
label000007DE:
000007DE  6000 02A8                bra        +0x2AA /* 00000A88 */
label000007E2:
000007E2  4AAD DED8                tst.l      [A5 - 0x2128]
000007E6  6614                     bne        +0x16 /* 000007FC */
000007E8  42A7                     clr.l      -[A7]
000007EA  2F2E FFAA                move.l     -[A7], [A6 - 0x56]
000007EE  2F2D F668                move.l     -[A7], [A5 - 0x998]
000007F2  4EBA 03B0                jsr        [PC + 0x3B0 /* 00000BA4 */]
000007F6  2E1F                     move.l     D7, [A7]+
000007F8  6000 027E                bra        +0x280 /* 00000A78 */
label000007FC:
000007FC  42A7                     clr.l      -[A7]
000007FE  2F2E FFAA                move.l     -[A7], [A6 - 0x56]
00000802  2F2E FD1C                move.l     -[A7], [A6 - 0x2E4]
00000806  4EBA 039C                jsr        [PC + 0x39C /* 00000BA4 */]
0000080A  2B5F DED4                move.l     [A5 - 0x212C], [A7]+
0000080E  7001                     moveq.l    D0, 0x01
00000810  B0AD DED4                cmp.l      D0, [A5 - 0x212C]
00000814  6E00 033C                bgt        +0x33E /* 00000B52 */
00000818  42A7                     clr.l      -[A7]
0000081A  2F2D F670                move.l     -[A7], [A5 - 0x990]
0000081E  2F2E FD18                move.l     -[A7], [A6 - 0x2E8]
00000822  42A7                     clr.l      -[A7]
00000824  42A7                     clr.l      -[A7]
00000826  486D 1622                pea.l      [A5 + 0x1622 /* export_704, CODE:15 @ 0000164A */]
0000082A  4267                     clr.w      -[A7]
0000082C  1F3C 0001                move.b     -[A7], 0x1
00000830  4EAD 1E42                jsr        [A5 + 0x1E42 /* export_964, CODE:18 @ 00002610 */]
00000834  2E1F                     move.l     D7, [A7]+
00000836  6000 0240                bra        +0x242 /* 00000A78 */
label0000083A:
0000083A  1004                     move.b     D0, D4
0000083C  6600 024A                bne        +0x24C /* 00000A88 */
00000840  102E FFAE                move.b     D0, [A6 - 0x52]
00000844  4880                     ext.w      D0
00000846  670E                     beq        +0x10 /* 00000856 */
00000848  5340                     subq.w     D0, 1
0000084A  6700 0090                beq        +0x92 /* 000008DC */
0000084E  5340                     subq.w     D0, 1
00000850  6724                     beq        +0x26 /* 00000876 */
00000852  6000 02FE                bra        +0x300 /* 00000B52 */
label00000856:
00000856  2D6D F62A FFA0           move.l     [A6 - 0x60], [A5 - 0x9D6]
0000085C  2E2D F626                move.l     D7, [A5 - 0x9DA]
00000860  4267                     clr.w      -[A7]
00000862  486E FFA0                pea.l      [A6 - 0x60]
00000866  4EBA 04C0                jsr        [PC + 0x4C0 /* 00000D28 */]
0000086A  101F                     move.b     D0, [A7]+
0000086C  6604                     bne        +0x6 /* 00000872 */
0000086E  6000 02E2                bra        +0x2E4 /* 00000B52 */
label00000872:
00000872  6000 0214                bra        +0x216 /* 00000A88 */
label00000876:
00000876  42A7                     clr.l      -[A7]
00000878  4EAD 1DF2                jsr        [A5 + 0x1DF2 /* export_954, CODE:18 @ 000010BC */]
0000087C  2E1F                     move.l     D7, [A7]+
0000087E  5287                     addq.l     D7, 1
00000880  BEAD F668                cmp.l      D7, [A5 - 0x998]
00000884  6F02                     ble        +0x4 /* 00000888 */
00000886  7E01                     moveq.l    D7, 0x01
label00000888:
00000888  42A7                     clr.l      -[A7]
0000088A  2F2D F670                move.l     -[A7], [A5 - 0x990]
0000088E  2F07                     move.l     -[A7], D7
00000890  4EAD 1E22                jsr        [A5 + 0x1E22 /* export_960, CODE:18 @ 00001CCC */]
00000894  2D5F FFA0                move.l     [A6 - 0x60], [A7]+
00000898  4267                     clr.w      -[A7]
0000089A  486E FFA0                pea.l      [A6 - 0x60]
0000089E  4EBA 0488                jsr        [PC + 0x488 /* 00000D28 */]
000008A2  101F                     move.b     D0, [A7]+
000008A4  6600 01E2                bne        +0x1E4 /* 00000A88 */
000008A8  7000                     moveq.l    D0, 0x00
000008AA  2B40 DEDC                move.l     [A5 - 0x2124], D0
000008AE  7001                     moveq.l    D0, 0x01
000008B0  2B40 DED4                move.l     [A5 - 0x212C], D0
000008B4  42A7                     clr.l      -[A7]
000008B6  2F2D F670                move.l     -[A7], [A5 - 0x990]
000008BA  42A7                     clr.l      -[A7]
000008BC  4EAD 1DF2                jsr        [A5 + 0x1DF2 /* export_954, CODE:18 @ 000010BC */]
000008C0  42A7                     clr.l      -[A7]
000008C2  42A7                     clr.l      -[A7]
000008C4  486D 1622                pea.l      [A5 + 0x1622 /* export_704, CODE:15 @ 0000164A */]
000008C8  4267                     clr.w      -[A7]
000008CA  1F3C 0001                move.b     -[A7], 0x1
000008CE  4EAD 1E42                jsr        [A5 + 0x1E42 /* export_964, CODE:18 @ 00002610 */]
000008D2  2E1F                     move.l     D7, [A7]+
000008D4  6700 027C                beq        +0x27E /* 00000B52 */
000008D8  6000 019E                bra        +0x1A0 /* 00000A78 */
label000008DC:
000008DC  42A7                     clr.l      -[A7]
000008DE  4EAD 1DF2                jsr        [A5 + 0x1DF2 /* export_954, CODE:18 @ 000010BC */]
000008E2  2E1F                     move.l     D7, [A7]+
000008E4  2D6D F668 FB04           move.l     [A6 - 0x4FC], [A5 - 0x998]
000008EA  7001                     moveq.l    D0, 0x01
000008EC  2D40 FD14                move.l     [A6 - 0x2EC], D0
000008F0  6032                     bra        +0x34 /* 00000924 */
label000008F2:
000008F2  5387                     subq.l     D7, 1
000008F4  7001                     moveq.l    D0, 0x01
000008F6  B087                     cmp.l      D0, D7
000008F8  6F04                     ble        +0x6 /* 000008FE */
000008FA  2E2D F668                move.l     D7, [A5 - 0x998]
label000008FE:
000008FE  42A7                     clr.l      -[A7]
00000900  2F2D F670                move.l     -[A7], [A5 - 0x990]
00000904  2F07                     move.l     -[A7], D7
00000906  4EAD 1E22                jsr        [A5 + 0x1E22 /* export_960, CODE:18 @ 00001CCC */]
0000090A  2D5F FFA0                move.l     [A6 - 0x60], [A7]+
0000090E  4267                     clr.w      -[A7]
00000910  486E FFA0                pea.l      [A6 - 0x60]
00000914  4EBA 0412                jsr        [PC + 0x412 /* 00000D28 */]
00000918  101F                     move.b     D0, [A7]+
0000091A  6600 016C                bne        +0x16E /* 00000A88 */
0000091E  52AE FD14                addq.l     [A6 - 0x2EC], 1
00000922  690A                     bvs        +0xC /* 0000092E */
label00000924:
00000924  202E FD14                move.l     D0, [A6 - 0x2EC]
00000928  B0AE FB04                cmp.l      D0, [A6 - 0x4FC]
0000092C  6FC4                     ble        -0x3A /* 000008F2 */
label0000092E:
0000092E  6000 0222                bra        +0x224 /* 00000B52 */
00000932  6000 021E                bra        +0x220 /* 00000B52 */
label00000936:
00000936  1004                     move.b     D0, D4
00000938  6708                     beq        +0xA /* 00000942 */
0000093A  7000                     moveq.l    D0, 0x00
0000093C  2D40 FD18                move.l     [A6 - 0x2E8], D0
00000940  600A                     bra        +0xC /* 0000094C */
label00000942:
00000942  42A7                     clr.l      -[A7]
00000944  4EAD 1DF2                jsr        [A5 + 0x1DF2 /* export_954, CODE:18 @ 000010BC */]
00000948  2D5F FD18                move.l     [A6 - 0x2E8], [A7]+
label0000094C:
0000094C  4267                     clr.w      -[A7]
0000094E  2F2D F670                move.l     -[A7], [A5 - 0x990]
00000952  486E FE52                pea.l      [A6 - 0x1AE]
00000956  4EAD 1DA2                jsr        [A5 + 0x1DA2 /* export_944, CODE:18 @ 00000C62 */]
0000095A  101F                     move.b     D0, [A7]+
0000095C  6604                     bne        +0x6 /* 00000962 */
0000095E  6000 01F2                bra        +0x1F4 /* 00000B52 */
label00000962:
00000962  486E FE82                pea.l      [A6 - 0x17E]
00000966  2F3C 0000 0084           move.l     -[A7], 0x84
0000096C  4EAD 1B42                jsr        [A5 + 0x1B42 /* export_868, CODE:16 @ 00001E7C */]
00000970  486E FF06                pea.l      [A6 - 0xFA]
00000974  2F3C 0000 0084           move.l     -[A7], 0x84
0000097A  4EAD 1B42                jsr        [A5 + 0x1B42 /* export_868, CODE:16 @ 00001E7C */]
0000097E  486E FE86                pea.l      [A6 - 0x17A]
00000982  42A7                     clr.l      -[A7]
00000984  A85E                     syscall    BitSet
00000986  486E FF0A                pea.l      [A6 - 0xF6]
0000098A  42A7                     clr.l      -[A7]
0000098C  A85E                     syscall    BitSet
0000098E  42A7                     clr.l      -[A7]
00000990  486E FFB0                pea.l      [A6 - 0x50]
00000994  4EAD 1B52                jsr        [A5 + 0x1B52 /* export_870, CODE:16 @ 00001EBC */]
00000998  2D5F FD10                move.l     [A6 - 0x2F0], [A7]+
0000099C  2F2E FD10                move.l     -[A7], [A6 - 0x2F0]
000009A0  486E FE86                pea.l      [A6 - 0x17A]
000009A4  2F2E FE6E                move.l     -[A7], [A6 - 0x192]
000009A8  3F3C 0001                move.w     -[A7], 0x1
000009AC  4EAD 198A                jsr        [A5 + 0x198A /* export_813, CODE:16 @ 00000EFE */]
000009B0  2F2E FD10                move.l     -[A7], [A6 - 0x2F0]
000009B4  486E FF0A                pea.l      [A6 - 0xF6]
000009B8  2F2E FE6E                move.l     -[A7], [A6 - 0x192]
000009BC  3F3C 0002                move.w     -[A7], 0x2
000009C0  4EAD 198A                jsr        [A5 + 0x198A /* export_813, CODE:16 @ 00000EFE */]
000009C4  41EE FFB0                lea.l      A0, [A6 - 0x50]
000009C8  2B48 DEE0                move.l     [A5 - 0x2120], A0
000009CC  42A7                     clr.l      -[A7]
000009CE  2F2D F670                move.l     -[A7], [A5 - 0x990]
000009D2  2F2E FD18                move.l     -[A7], [A6 - 0x2E8]
000009D6  486E FE82                pea.l      [A6 - 0x17E]
000009DA  486E FF06                pea.l      [A6 - 0xFA]
000009DE  487A 03B0                pea.l      [PC + 0x3B0 /* 00000D90, value 0x4E56FF00 */]
000009E2  42A7                     clr.l      -[A7]
000009E4  4EAD 1E42                jsr        [A5 + 0x1E42 /* export_964, CODE:18 @ 00002610 */]
000009E8  2E1F                     move.l     D7, [A7]+
000009EA  6000 008C                bra        +0x8E /* 00000A78 */
label000009EE:
000009EE  4AAD DED8                tst.l      [A5 - 0x2128]
000009F2  6600 015E                bne        +0x160 /* 00000B52 */
000009F6  7002                     moveq.l    D0, 0x02
000009F8  B02E FFAE                cmp.b      D0, [A6 - 0x52]
000009FC  6608                     bne        +0xA /* 00000A06 */
000009FE  3D7C 0001 FD4C           move.w     [A6 - 0x2B4], 0x1
00000A04  601C                     bra        +0x1E /* 00000A22 */
label00000A06:
00000A06  7001                     moveq.l    D0, 0x01
00000A08  B02E FFAE                cmp.b      D0, [A6 - 0x52]
00000A0C  6608                     bne        +0xA /* 00000A16 */
00000A0E  3D7C FFFF FD4C           move.w     [A6 - 0x2B4], 0xFFFF
00000A14  600C                     bra        +0xE /* 00000A22 */
label00000A16:
00000A16  2D6D F62A FFA0           move.l     [A6 - 0x60], [A5 - 0x9D6]
00000A1C  2E2D F626                move.l     D7, [A5 - 0x9DA]
00000A20  6066                     bra        +0x68 /* 00000A88 */
label00000A22:
00000A22  3A2D E666                move.w     D5, [A5 - 0x199A]
label00000A26:
00000A26  DA6E FD4C                add.w      D5, [A6 - 0x2B4]
00000A2A  7001                     moveq.l    D0, 0x01
00000A2C  B045                     cmp.w      D0, D5
00000A2E  6F04                     ble        +0x6 /* 00000A34 */
00000A30  3A3C 00C8                move.w     D5, 0xC8
label00000A34:
00000A34  0C45 00C8                cmpi.w     D5, 0xC8
00000A38  6F02                     ble        +0x4 /* 00000A3C */
00000A3A  7A01                     moveq.l    D5, 0x01
label00000A3C:
00000A3C  3005                     move.w     D0, D5
00000A3E  5340                     subq.w     D0, 1
00000A40  41ED E668                lea.l      A0, [A5 - 0x1998]
00000A44  E740                     asl        D0.w, 3
00000A46  4AB0 0000                tst.l      [A0 + D0.w]
00000A4A  56C0                     sne        D0
00000A4C  BA6D E666                cmp.w      D5, [A5 - 0x199A]
00000A50  57C1                     seq        D1
00000A52  8001                     or.b       D0, D1
00000A54  67D0                     beq        -0x2E /* 00000A26 */
00000A56  102D E663                move.b     D0, [A5 - 0x199D]
00000A5A  6604                     bne        +0x6 /* 00000A60 */
00000A5C  3B45 E666                move.w     [A5 - 0x199A], D5
label00000A60:
00000A60  3005                     move.w     D0, D5
00000A62  5340                     subq.w     D0, 1
00000A64  41ED E668                lea.l      A0, [A5 - 0x1998]
00000A68  E740                     asl        D0.w, 3
00000A6A  2D70 0000 FFA0           move.l     [A6 - 0x60], [A0 + D0.w]
00000A70  7E00                     moveq.l    D7, 0x00
00000A72  6014                     bra        +0x16 /* 00000A88 */
00000A74  6000 00DC                bra        +0xDE /* 00000B52 */
label00000A78:
00000A78  42A7                     clr.l      -[A7]
00000A7A  2F2D F670                move.l     -[A7], [A5 - 0x990]
00000A7E  2F07                     move.l     -[A7], D7
00000A80  4EAD 1E22                jsr        [A5 + 0x1E22 /* export_960, CODE:18 @ 00001CCC */]
00000A84  2D5F FFA0                move.l     [A6 - 0x60], [A7]+
label00000A88:
00000A88  4AAE FFA0                tst.l      [A6 - 0x60]
00000A8C  6700 00C4                beq        +0xC6 /* 00000B52 */
00000A90  4A87                     tst.l      D7
00000A92  6D00 00BE                blt        +0xC0 /* 00000B52 */
00000A96  BEAD F668                cmp.l      D7, [A5 - 0x998]
00000A9A  6E00 00B6                bgt        +0xB8 /* 00000B52 */
00000A9E  42A7                     clr.l      -[A7]
00000AA0  2F2E FFA0                move.l     -[A7], [A6 - 0x60]
00000AA4  4EAD 1F7A                jsr        [A5 + 0x1F7A /* export_1003, CODE:19 @ 00001744 */]
00000AA8  4A9F                     tst.l      [A7]+
00000AAA  6700 00A6                beq        +0xA8 /* 00000B52 */
00000AAE  2F2E FFA0                move.l     -[A7], [A6 - 0x60]
00000AB2  4267                     clr.w      -[A7]
00000AB4  4EAD 1EF2                jsr        [A5 + 0x1EF2 /* export_986, CODE:19 @ 00000450 */]
00000AB8  2F2E FFA0                move.l     -[A7], [A6 - 0x60]
00000ABC  2F07                     move.l     -[A7], D7
00000ABE  4EBA 3C24                jsr        [PC + 0x3C24 /* 000046E4 */]
00000AC2  102D E663                move.b     D0, [A5 - 0x199D]
00000AC6  665C                     bne        +0x5E /* 00000B24 */
00000AC8  302D E664                move.w     D0, [A5 - 0x199C]
00000ACC  5340                     subq.w     D0, 1
00000ACE  41ED E668                lea.l      A0, [A5 - 0x1998]
00000AD2  E740                     asl        D0.w, 3
00000AD4  222D F62A                move.l     D1, [A5 - 0x9D6]
00000AD8  B2B0 0000                cmp.l      D1, [A0 + D0.w]
00000ADC  56C0                     sne        D0
00000ADE  322D E664                move.w     D1, [A5 - 0x199C]
00000AE2  5341                     subq.w     D1, 1
00000AE4  41ED E668                lea.l      A0, [A5 - 0x1998]
00000AE8  E741                     asl        D1.w, 3
00000AEA  242D F4E0                move.l     D2, [A5 - 0xB20]
00000AEE  B4B0 1004                cmp.l      D2, [A0 + D1.w + 0x4]
00000AF2  56C1                     sne        D1
00000AF4  8001                     or.b       D0, D1
00000AF6  672C                     beq        +0x2E /* 00000B24 */
00000AF8  526D E664                addq.w     [A5 - 0x199C], 1
00000AFC  0C6D 00C8 E664           cmpi.w     [A5 - 0x199C], 0xC8
00000B02  6F06                     ble        +0x8 /* 00000B0A */
00000B04  3B7C 0001 E664           move.w     [A5 - 0x199C], 0x1
label00000B0A:
00000B0A  302D E664                move.w     D0, [A5 - 0x199C]
00000B0E  5340                     subq.w     D0, 1
00000B10  41ED E668                lea.l      A0, [A5 - 0x1998]
00000B14  E740                     asl        D0.w, 3
00000B16  49F0 0000                lea.l      A4, [A0 + D0.w]
00000B1A  28AD F62A                move.l     [A4], [A5 - 0x9D6]
00000B1E  296D F4E0 0004           move.l     [A4 + 0x4], [A5 - 0xB20]
label00000B24:
00000B24  7004                     moveq.l    D0, 0x04
00000B26  B02E FFA4                cmp.b      D0, [A6 - 0x5C]
00000B2A  56C0                     sne        D0
00000B2C  122D E663                move.b     D1, [A5 - 0x199D]
00000B30  0A01 0001                xori.b     D1, 0x1
00000B34  C001                     and.b      D0, D1
00000B36  6706                     beq        +0x8 /* 00000B3E */
00000B38  3B6D E664 E666           move.w     [A5 - 0x199A], [A5 - 0x199C]
label00000B3E:
00000B3E  1004                     move.b     D0, D4
00000B40  6708                     beq        +0xA /* 00000B4A */
00000B42  3F2D F02A                move.w     -[A7], [A5 - 0xFD6]
00000B46  4EBA 3F56                jsr        [PC + 0x3F56 /* 00004A9E */]
label00000B4A:
00000B4A  1D7C 0001 000C           move.b     [A6 + 0xC], 0x1
00000B50  603C                     bra        +0x3E /* 00000B8E */
label00000B52:
00000B52  1004                     move.b     D0, D4
00000B54  670E                     beq        +0x10 /* 00000B64 */
00000B56  4267                     clr.w      -[A7]
00000B58  486E FD52                pea.l      [A6 - 0x2AE]
00000B5C  4EBA 12C0                jsr        [PC + 0x12C0 /* 00001E1E */]
00000B60  1D5F FD51                move.b     [A6 - 0x2AF], [A7]+
label00000B64:
00000B64  2B6E FD44 F62A           move.l     [A5 - 0x9D6], [A6 - 0x2BC]
00000B6A  2B6E FD48 F626           move.l     [A5 - 0x9DA], [A6 - 0x2B8]
00000B70  2B6E FD40 E2EA           move.l     [A5 - 0x1D16], [A6 - 0x2C0]
00000B76  1B6E FD3F E2E5           move.b     [A5 - 0x1D1B], [A6 - 0x2C1]
00000B7C  2B6E FD3A F622           move.l     [A5 - 0x9DE], [A6 - 0x2C6]
00000B82  2B6E FD36 E2E6           move.l     [A5 - 0x1D1A], [A6 - 0x2CA]
00000B88  1B6E FD35 E2E4           move.b     [A5 - 0x1D1C], [A6 - 0x2CB]
label00000B8E:
00000B8E  4CDF 18F0                movem.l    D4,D5,D6,D7,A3,A4, [A7]+
00000B92  4E5E                     unlink     A6
00000B94  2E9F                     move.l     [A7], [A7]+
00000B96  4E75                     rts
export_1030:
fn00000B98:
00000B98  4E56 0000                link       A6, 0
00000B9C  536D FD8A                subq.w     [A5 - 0x276], 1
00000BA0  4E5E                     unlink     A6
00000BA2  4E75                     rts
export_1031:
fn00000BA4:
00000BA4  4E56 FFFE                link       A6, -0x0002
00000BA8  48E7 0700                movem.l    -[A7], D5,D6,D7
00000BAC  2E2E 000C                move.l     D7, [A6 + 0xC]
00000BB0  2C2E 0008                move.l     D6, [A6 + 0x8]
00000BB4  6E08                     bgt        +0xA /* 00000BBE */
00000BB6  7000                     moveq.l    D0, 0x00
00000BB8  2D40 0010                move.l     [A6 + 0x10], D0
00000BBC  604E                     bra        +0x50 /* 00000C0C */
label00000BBE:
00000BBE  2D47 0010                move.l     [A6 + 0x10], D7
00000BC2  4A87                     tst.l      D7
00000BC4  6C06                     bge        +0x8 /* 00000BCC */
00000BC6  7000                     moveq.l    D0, 0x00
00000BC8  2D40 0010                move.l     [A6 + 0x10], D0
label00000BCC:
00000BCC  70FE                     moveq.l    D0, 0xFFFFFFFE
00000BCE  B087                     cmp.l      D0, D7
00000BD0  6604                     bne        +0x6 /* 00000BD6 */
00000BD2  2D46 0010                move.l     [A6 + 0x10], D6
label00000BD6:
00000BD6  70FD                     moveq.l    D0, 0xFFFFFFFD
00000BD8  B087                     cmp.l      D0, D7
00000BDA  6612                     bne        +0x14 /* 00000BEE */
00000BDC  2F06                     move.l     -[A7], D6
00000BDE  7002                     moveq.l    D0, 0x02
00000BE0  2F00                     move.l     -[A7], D0
00000BE2  4EAD 04F2                jsr        [A5 + 0x4F2 /* export_154, CODE:1 @ 00005224 */]
00000BE6  201F                     move.l     D0, [A7]+
00000BE8  5280                     addq.l     D0, 1
00000BEA  2D40 0010                move.l     [A6 + 0x10], D0
label00000BEE:
00000BEE  70FC                     moveq.l    D0, 0xFFFFFFFC
00000BF0  B087                     cmp.l      D0, D7
00000BF2  6618                     bne        +0x1A /* 00000C0C */
00000BF4  4267                     clr.w      -[A7]
00000BF6  A861                     syscall    Random
00000BF8  3A1F                     move.w     D5, [A7]+
00000BFA  2F2D FE2A                move.l     -[A7], [A5 - 0x1D6]
00000BFE  2F06                     move.l     -[A7], D6
00000C00  4EAD 04FA                jsr        [A5 + 0x4FA /* export_155, CODE:1 @ 0000524A */]
00000C04  201F                     move.l     D0, [A7]+
00000C06  5280                     addq.l     D0, 1
00000C08  2D40 0010                move.l     [A6 + 0x10], D0
label00000C0C:
00000C0C  4CDF 00E0                movem.l    D5,D6,D7, [A7]+
00000C10  4E5E                     unlink     A6
00000C12  205F                     movea.l    A0, [A7]+
00000C14  504F                     addq.w     A7, 8
00000C16  4ED0                     jmp        [A0]
export_1032:
00000C18  4E56 FFFC                link       A6, -0x0004
00000C1C  102D E2FC                move.b     D0, [A5 - 0x1D04]
00000C20  6702                     beq        +0x4 /* 00000C24 */
00000C22  6014                     bra        +0x16 /* 00000C38 */
label00000C24:
00000C24  2F2D E2E6                move.l     -[A7], [A5 - 0x1D1A]
00000C28  42A7                     clr.l      -[A7]
00000C2A  2F2D ECE8                move.l     -[A7], [A5 - 0x1318]
00000C2E  4EAD 1572                jsr        [A5 + 0x1572 /* export_682, CODE:15 @ 00000408 */]
00000C32  1B7C 0001 E2FC           move.b     [A5 - 0x1D04], 0x1
label00000C38:
00000C38  4E5E                     unlink     A6
00000C3A  4E75                     rts
export_1033:
00000C3C  4E56 FFFC                link       A6, -0x0004
00000C40  48E7 0318                movem.l    -[A7], D6,D7,A3,A4
00000C44  266E 000C                movea.l    A3, [A6 + 0xC]
00000C48  2E2E 0008                move.l     D7, [A6 + 0x8]
00000C4C  2C2E 0010                move.l     D6, [A6 + 0x10]
00000C50  2046                     movea.l    A0, D6
00000C52  2F08                     move.l     -[A7], A0
00000C54  42A7                     clr.l      -[A7]
00000C56  2F3C 0000 558C           move.l     -[A7], 0x558C
00000C5C  4EAD 01E2                jsr        [A5 + 0x1E2 /* export_56, CODE:1 @ 00004614 */]
00000C60  201F                     move.l     D0, [A7]+
00000C62  205F                     movea.l    A0, [A7]+
00000C64  2080                     move.l     [A0], D0
00000C66  2046                     movea.l    A0, D6
00000C68  4A90                     tst.l      [A0]
00000C6A  660A                     bne        +0xC /* 00000C76 */
00000C6C  2F3C 0000 029A           move.l     -[A7], 0x29A
00000C72  4EAD 185A                jsr        [A5 + 0x185A /* export_775, CODE:16 @ 0000042E */]
label00000C76:
00000C76  2046                     movea.l    A0, D6
00000C78  2010                     move.l     D0, [A0]
00000C7A  5E80                     addq.l     D0, 7
00000C7C  C0BC FFFF FFFC           and.l      D0, 0xFFFFFFFC
00000C82  2680                     move.l     [A3], D0
00000C84  2047                     movea.l    A0, D7
00000C86  2093                     move.l     [A0], [A3]
00000C88  2047                     movea.l    A0, D7
00000C8A  317C 0040 0004           move.w     [A0 + 0x4], 0x40 /* '@' */
00000C90  2047                     movea.l    A0, D7
00000C92  5C88                     addq.l     A0, 6
00000C94  43ED ED82                lea.l      A1, [A5 - 0x127E]
00000C98  20D9                     move.l     [A0]+, [A1]+
00000C9A  20D9                     move.l     [A0]+, [A1]+
00000C9C  2853                     movea.l    A4, [A3]
00000C9E  99FC 0000 0004           sub.l      A4, 0x4
00000CA4  7000                     moveq.l    D0, 0x00
00000CA6  2880                     move.l     [A4], D0
00000CA8  2853                     movea.l    A4, [A3]
00000CAA  D9FC 0000 5580           add.l      A4, 0x5580
00000CB0  7000                     moveq.l    D0, 0x00
00000CB2  2880                     move.l     [A4], D0
00000CB4  4CDF 18C0                movem.l    D6,D7,A3,A4, [A7]+
00000CB8  4E5E                     unlink     A6
00000CBA  205F                     movea.l    A0, [A7]+
00000CBC  DEFC 000C                add.w      A7, 0xC
00000CC0  4ED0                     jmp        [A0]
export_1034:
00000CC2  4E56 FFFC                link       A6, -0x0004
00000CC6  2F0C                     move.l     -[A7], A4
00000CC8  42A7                     clr.l      -[A7]
00000CCA  7006                     moveq.l    D0, 0x06
00000CCC  2F00                     move.l     -[A7], D0
00000CCE  4EAD 18DA                jsr        [A5 + 0x18DA /* export_791, CODE:16 @ 00000896 */]
00000CD2  285F                     movea.l    A4, [A7]+
00000CD4  2054                     movea.l    A0, [A4]
00000CD6  30BC 4EF9                move.w     [A0], 0x4EF9
00000CDA  2054                     movea.l    A0, [A4]
00000CDC  216E 0008 0002           move.l     [A0 + 0x2], [A6 + 0x8]
00000CE2  2D4C 000C                move.l     [A6 + 0xC], A4
00000CE6  285F                     movea.l    A4, [A7]+
00000CE8  4E5E                     unlink     A6
00000CEA  2E9F                     move.l     [A7], [A7]+
00000CEC  4E75                     rts
export_1035:
00000CEE  4E56 FFF4                link       A6, -0x000C
00000CF2  206E 0008                movea.l    A0, [A6 + 0x8]
00000CF6  43EE FFF8                lea.l      A1, [A6 - 0x8]
00000CFA  22D8                     move.l     [A1]+, [A0]+
00000CFC  22D8                     move.l     [A1]+, [A0]+
00000CFE  486E FFF8                pea.l      [A6 - 0x8]
00000D02  486D E2F2                pea.l      [A5 - 0x1D0E]
00000D06  4EAD 1CEA                jsr        [A5 + 0x1CEA /* export_921, CODE:17 @ 00001DBA */]
00000D0A  486E FFF4                pea.l      [A6 - 0xC]
00000D0E  A874                     syscall    GetPort
00000D10  2F2D EDC8                move.l     -[A7], [A5 - 0x1238]
00000D14  A873                     syscall    SetPort
00000D16  486E FFF8                pea.l      [A6 - 0x8]
00000D1A  A928                     syscall    InvalRect
00000D1C  2F2E FFF4                move.l     -[A7], [A6 - 0xC]
00000D20  A873                     syscall    SetPort
00000D22  4E5E                     unlink     A6
00000D24  2E9F                     move.l     [A7], [A7]+
00000D26  4E75                     rts
export_1036:
fn00000D28:
00000D28  4E56 FFFE                link       A6, -0x0002
00000D2C  2F07                     move.l     -[A7], D7
00000D2E  7E01                     moveq.l    D7, 0x01
00000D30  4AAD DED8                tst.l      [A5 - 0x2128]
00000D34  674E                     beq        +0x50 /* 00000D84 */
00000D36  4AAD DEDC                tst.l      [A5 - 0x2124]
00000D3A  6716                     beq        +0x18 /* 00000D52 */
00000D3C  102D F2AD                move.b     D0, [A5 - 0xD53]
00000D40  6602                     bne        +0x4 /* 00000D44 */
00000D42  600E                     bra        +0x10 /* 00000D52 */
label00000D44:
00000D44  206E 0008                movea.l    A0, [A6 + 0x8]
00000D48  0828 0006 0004           btst.b     [A0 + 0x4], 0x6
00000D4E  6602                     bne        +0x4 /* 00000D52 */
00000D50  6010                     bra        +0x12 /* 00000D62 */
label00000D52:
00000D52  42A7                     clr.l      -[A7]
00000D54  206E 0008                movea.l    A0, [A6 + 0x8]
00000D58  2F10                     move.l     -[A7], [A0]
00000D5A  4EAD 1ECA                jsr        [A5 + 0x1ECA /* export_981, CODE:19 @ 000000FC */]
00000D5E  2B5F DEDC                move.l     [A5 - 0x2124], [A7]+
label00000D62:
00000D62  70FF                     moveq.l    D0, 0xFFFFFFFF
00000D64  B0AD DED8                cmp.l      D0, [A5 - 0x2128]
00000D68  660E                     bne        +0x10 /* 00000D78 */
00000D6A  202D DEDC                move.l     D0, [A5 - 0x2124]
00000D6E  B0AD F622                cmp.l      D0, [A5 - 0x9DE]
00000D72  56C7                     sne        D7
00000D74  4407                     neg.b      D7
00000D76  600C                     bra        +0xE /* 00000D84 */
label00000D78:
00000D78  202D DEDC                move.l     D0, [A5 - 0x2124]
00000D7C  B0AD DED8                cmp.l      D0, [A5 - 0x2128]
00000D80  57C7                     seq        D7
00000D82  4407                     neg.b      D7
label00000D84:
00000D84  1D47 000C                move.b     [A6 + 0xC], D7
00000D88  2E1F                     move.l     D7, [A7]+
00000D8A  4E5E                     unlink     A6
00000D8C  2E9F                     move.l     [A7], [A7]+
00000D8E  4E75                     rts
00000D90  4E56 FF00                link       A6, -0x0100
00000D94  422D F2AD                clr.b      [A5 - 0xD53]
00000D98  4267                     clr.w      -[A7]
00000D9A  2F2D DEE0                move.l     -[A7], [A5 - 0x2120]
00000D9E  486E FF00                pea.l      [A6 - 0x100]
00000DA2  206E 0008                movea.l    A0, [A6 + 0x8]
00000DA6  2F10                     move.l     -[A7], [A0]
00000DA8  4EAD 1D8A                jsr        [A5 + 0x1D8A /* export_941, CODE:18 @ 00000AA4 */]
00000DAC  4EAD 1AC2                jsr        [A5 + 0x1AC2 /* export_852, CODE:16 @ 00001B82 */]
00000DB0  101F                     move.b     D0, [A7]+
00000DB2  6712                     beq        +0x14 /* 00000DC6 */
00000DB4  2F00                     move.l     -[A7], D0
00000DB6  4267                     clr.w      -[A7]
00000DB8  2F2E 0008                move.l     -[A7], [A6 + 0x8]
00000DBC  4EBA FF6A                jsr        [PC - 0x96 /* 00000D28 */]
00000DC0  121F                     move.b     D1, [A7]+
00000DC2  201F                     move.l     D0, [A7]+
00000DC4  C001                     and.b      D0, D1
label00000DC6:
00000DC6  1D40 000C                move.b     [A6 + 0xC], D0
00000DCA  4E5E                     unlink     A6
00000DCC  2E9F                     move.l     [A7], [A7]+
00000DCE  4E75                     rts
export_1037:
00000DD0  4E56 FFFE                link       A6, -0x0002
00000DD4  2F07                     move.l     -[A7], D7
00000DD6  422E 0008                clr.b      [A6 + 0x8]
00000DDA  1E2D F007                move.b     D7, [A5 - 0xFF9]
00000DDE  7001                     moveq.l    D0, 0x01
00000DE0  B06D EFDA                cmp.w      D0, [A5 - 0x1026]
00000DE4  57C0                     seq        D0
00000DE6  C02D EF4F                and.b      D0, [A5 - 0x10B1]
00000DEA  6702                     beq        +0x4 /* 00000DEE */
00000DEC  4207                     clr.b      D7
label00000DEE:
00000DEE  206D ED9A                movea.l    A0, [A5 - 0x1266]
00000DF2  2007                     move.l     D0, D7
00000DF4  8028 006E                or.b       D0, [A0 + 0x6E]
00000DF8  6720                     beq        +0x22 /* 00000E1A */
00000DFA  1D7C 0001 0008           move.b     [A6 + 0x8], 0x1
00000E00  102D EDAB                move.b     D0, [A5 - 0x1255]
00000E04  6614                     bne        +0x16 /* 00000E1A */
00000E06  486D ED8A                pea.l      [A5 - 0x1276]
00000E0A  42A7                     clr.l      -[A7]
00000E0C  2F2D EDAC                move.l     -[A7], [A5 - 0x1254]
00000E10  A9CF                     syscall    TESetText
00000E12  4EBA 5182                jsr        [PC + 0x5182 /* 00005F96 */]
00000E16  4EBA 15CA                jsr        [PC + 0x15CA /* 000023E2 */]
label00000E1A:
00000E1A  2E1F                     move.l     D7, [A7]+
00000E1C  4E5E                     unlink     A6
00000E1E  4E75                     rts
export_1038:
fn00000E20:
00000E20  4E56 FFE6                link       A6, -0x001A
00000E24  48E7 0F18                movem.l    -[A7], D4,D5,D6,D7,A3,A4
00000E28  102D E302                move.b     D0, [A5 - 0x1CFE]
00000E2C  802D E663                or.b       D0, [A5 - 0x199D]
00000E30  4A6D FD8A                tst.w      [A5 - 0x276]
00000E34  5DC1                     slt        D1
00000E36  8001                     or.b       D0, D1
00000E38  0240 0001                andi.w     D0, 0x1
00000E3C  6704                     beq        +0x6 /* 00000E42 */
00000E3E  6000 0118                bra        +0x11A /* 00000F58 */
label00000E42:
00000E42  102D E303                move.b     D0, [A5 - 0x1CFD]
00000E46  6710                     beq        +0x12 /* 00000E58 */
00000E48  2F2D ECE4                move.l     -[A7], [A5 - 0x131C]
00000E4C  486D E304                pea.l      [A5 - 0x1CFC]
00000E50  4EAD 1CD2                jsr        [A5 + 0x1CD2 /* export_918, CODE:17 @ 0000163C */]
00000E54  422D E303                clr.b      [A5 - 0x1CFD]
label00000E58:
00000E58  4245                     clr.w      D5
00000E5A  7E01                     moveq.l    D7, 0x01
00000E5C  603E                     bra        +0x40 /* 00000E9C */
label00000E5E:
00000E5E  3007                     move.w     D0, D7
00000E60  5340                     subq.w     D0, 1
00000E62  41ED E470                lea.l      A0, [A5 - 0x1B90]
00000E66  E740                     asl        D0.w, 3
00000E68  49F0 0000                lea.l      A4, [A0 + D0.w]
00000E6C  2014                     move.l     D0, [A4]
00000E6E  B0AD F62A                cmp.l      D0, [A5 - 0x9D6]
00000E72  57C0                     seq        D0
00000E74  4A00                     tst.b      D0
00000E76  6710                     beq        +0x12 /* 00000E88 */
00000E78  222C 0004                move.l     D1, [A4 + 0x4]
00000E7C  B2AD F4E0                cmp.l      D1, [A5 - 0xB20]
00000E80  57C1                     seq        D1
00000E82  C001                     and.b      D0, D1
00000E84  6600 009A                bne        +0x9C /* 00000F20 */
label00000E88:
00000E88  4A94                     tst.l      [A4]
00000E8A  57C0                     seq        D0
00000E8C  4A00                     tst.b      D0
00000E8E  670A                     beq        +0xC /* 00000E9A */
00000E90  4A45                     tst.w      D5
00000E92  57C1                     seq        D1
00000E94  C001                     and.b      D0, D1
00000E96  6702                     beq        +0x4 /* 00000E9A */
00000E98  3A07                     move.w     D5, D7
label00000E9A:
00000E9A  5247                     addq.w     D7, 1
label00000E9C:
00000E9C  702A                     moveq.l    D0, 0x2A
00000E9E  B047                     cmp.w      D0, D7
00000EA0  6CBC                     bge        -0x42 /* 00000E5E */
00000EA2  4A45                     tst.w      D5
00000EA4  6678                     bne        +0x7A /* 00000F1E */
00000EA6  41ED E470                lea.l      A0, [A5 - 0x1B90]
00000EAA  2808                     move.l     D4, A0
00000EAC  7038                     moveq.l    D0, 0x38
00000EAE  D880                     add.l      D4, D0
00000EB0  3C3C 0118                move.w     D6, 0x118
00000EB4  2F04                     move.l     -[A7], D4
00000EB6  486D E470                pea.l      [A5 - 0x1B90]
00000EBA  3006                     move.w     D0, D6
00000EBC  48C0                     ext.l      D0
00000EBE  2F00                     move.l     -[A7], D0
00000EC0  4EAD 024A                jsr        [A5 + 0x24A /* export_69, CODE:1 @ 000046A6 */]
00000EC4  41ED E470                lea.l      A0, [A5 - 0x1B90]
00000EC8  3006                     move.w     D0, D6
00000ECA  48C0                     ext.l      D0
00000ECC  2640                     movea.l    A3, D0
00000ECE  D7C8                     add.l      A3, A0
00000ED0  2F0B                     move.l     -[A7], A3
00000ED2  7038                     moveq.l    D0, 0x38
00000ED4  2F00                     move.l     -[A7], D0
00000ED6  4EAD 1B42                jsr        [A5 + 0x1B42 /* export_868, CODE:16 @ 00001E7C */]
00000EDA  49ED E462                lea.l      A4, [A5 - 0x1B9E]
00000EDE  302C 000A                move.w     D0, [A4 + 0xA]
00000EE2  907C 002A                sub.w      D0, 0x2A /* '*' */
00000EE6  C1EC 0004                muls.w     D0, [A4 + 0x4]
00000EEA  3C00                     move.w     D6, D0
00000EEC  2654                     movea.l    A3, [A4]
00000EEE  702A                     moveq.l    D0, 0x2A
00000EF0  C1EC 0004                muls.w     D0, [A4 + 0x4]
00000EF4  48C0                     ext.l      D0
00000EF6  2800                     move.l     D4, D0
00000EF8  D88B                     add.l      D4, A3
00000EFA  2F04                     move.l     -[A7], D4
00000EFC  2F0B                     move.l     -[A7], A3
00000EFE  3006                     move.w     D0, D6
00000F00  48C0                     ext.l      D0
00000F02  2F00                     move.l     -[A7], D0
00000F04  4EAD 024A                jsr        [A5 + 0x24A /* export_69, CODE:1 @ 000046A6 */]
00000F08  3006                     move.w     D0, D6
00000F0A  48C0                     ext.l      D0
00000F0C  2640                     movea.l    A3, D0
00000F0E  D7D4                     add.l      A3, [A4]
00000F10  2F0B                     move.l     -[A7], A3
00000F12  2F3C 0000 024C           move.l     -[A7], 0x24C
00000F18  4EAD 1B4A                jsr        [A5 + 0x1B4A /* export_869, CODE:16 @ 00001E9C */]
00000F1C  7A24                     moveq.l    D5, 0x24
label00000F1E:
00000F1E  3E05                     move.w     D7, D5
label00000F20:
00000F20  3F07                     move.w     -[A7], D7
00000F22  486E FFF4                pea.l      [A6 - 0xC]
00000F26  4EAD 15AA                jsr        [A5 + 0x15AA /* export_689, CODE:15 @ 00000A3A */]
00000F2A  486D E454                pea.l      [A5 - 0x1BAC]
00000F2E  486D E462                pea.l      [A5 - 0x1B9E]
00000F32  486D E45A                pea.l      [A5 - 0x1BA6]
00000F36  486E FFF4                pea.l      [A6 - 0xC]
00000F3A  4267                     clr.w      -[A7]
00000F3C  42A7                     clr.l      -[A7]
00000F3E  A8EC                     syscall    CopyBits
00000F40  3007                     move.w     D0, D7
00000F42  5340                     subq.w     D0, 1
00000F44  41ED E470                lea.l      A0, [A5 - 0x1B90]
00000F48  E740                     asl        D0.w, 3
00000F4A  49F0 0000                lea.l      A4, [A0 + D0.w]
00000F4E  28AD F62A                move.l     [A4], [A5 - 0x9D6]
00000F52  296D F4E0 0004           move.l     [A4 + 0x4], [A5 - 0xB20]
label00000F58:
00000F58  4CDF 18F0                movem.l    D4,D5,D6,D7,A3,A4, [A7]+
00000F5C  4E5E                     unlink     A6
00000F5E  4E75                     rts
export_1039:
fn00000F60:
00000F60  4E56 FF00                link       A6, -0x0100
00000F64  486E FF00                pea.l      [A6 - 0x100]
00000F68  3F3C 03E9                move.w     -[A7], 0x3E9
00000F6C  3F2E 0008                move.w     -[A7], [A6 + 0x8]
00000F70  4EAD 048A                jsr        [A5 + 0x48A /* export_141, CODE:1 @ 00004E6C */]
00000F74  206E 000A                movea.l    A0, [A6 + 0xA]
00000F78  43EE FF00                lea.l      A1, [A6 - 0x100]
00000F7C  703F                     moveq.l    D0, 0x3F
label00000F7E:
00000F7E  20D9                     move.l     [A0]+, [A1]+
00000F80  51C8 FFFC                dbf        D0, -0x6 /* 00000F7E */
00000F84  4E5E                     unlink     A6
00000F86  205F                     movea.l    A0, [A7]+
00000F88  544F                     addq.w     A7, 2
00000F8A  4ED0                     jmp        [A0]
export_1040:
00000F8C  4E56 0000                link       A6, 0
00000F90  7000                     moveq.l    D0, 0x00
00000F92  322E 000A                move.w     D1, [A6 + 0xA]
00000F96  5041                     addq.w     D1, 8
00000F98  3001                     move.w     D0, D1
00000F9A  C0BC FFFF FFF0           and.l      D0, 0xFFFFFFF0
00000FA0  3D40 000A                move.w     [A6 + 0xA], D0
00000FA4  2F2D EDC8                move.l     -[A7], [A5 - 0x1238]
00000FA8  2F2E 0008                move.l     -[A7], [A6 + 0x8]
00000FAC  4267                     clr.w      -[A7]
00000FAE  A91B                     syscall    MoveWindow
00000FB0  4EAD 15B2                jsr        [A5 + 0x15B2 /* export_690, CODE:15 @ 00000A98 */]
00000FB4  4EAD 15D2                jsr        [A5 + 0x15D2 /* export_694, CODE:15 @ 00000B4E */]
00000FB8  206D EDC8                movea.l    A0, [A5 - 0x1238]
00000FBC  43ED EDD4                lea.l      A1, [A5 - 0x122C]
00000FC0  5088                     addq.l     A0, 8
00000FC2  22D8                     move.l     [A1]+, [A0]+
00000FC4  22D8                     move.l     [A1]+, [A0]+
00000FC6  4E5E                     unlink     A6
00000FC8  2E9F                     move.l     [A7], [A7]+
00000FCA  4E75                     rts
export_1041:
fn00000FCC:
00000FCC  4E56 FE8A                link       A6, -0x0176
00000FD0  48E7 0F00                movem.l    -[A7], D4,D5,D6,D7
00000FD4  102D E301                move.b     D0, [A5 - 0x1CFF]
00000FD8  6712                     beq        +0x14 /* 00000FEC */
00000FDA  4267                     clr.w      -[A7]
00000FDC  2F2E 0008                move.l     -[A7], [A6 + 0x8]
00000FE0  4EAD 16AA                jsr        [A5 + 0x16AA /* export_721, CODE:15 @ 00003B22 */]
00000FE4  1D5F 000C                move.b     [A6 + 0xC], [A7]+
00000FE8  6000 0288                bra        +0x28A /* 00001272 */
label00000FEC:
00000FEC  422E 000C                clr.b      [A6 + 0xC]
00000FF0  7001                     moveq.l    D0, 0x01
00000FF2  B06D EFDA                cmp.w      D0, [A5 - 0x1026]
00000FF6  6606                     bne        +0x8 /* 00000FFE */
00000FF8  4EAD 1332                jsr        [A5 + 0x1332 /* export_610, CODE:12 @ 000000DA */]
00000FFC  6004                     bra        +0x6 /* 00001002 */
label00000FFE:
00000FFE  4EAD 0032                jsr        [A5 + 0x32 /* export_2, CODE:1 @ 00000196 */]
label00001002:
00001002  4EBA FE1C                jsr        [PC - 0x1E4 /* 00000E20 */]
00001006  1D6D E663 FF8B           move.b     [A6 - 0x75], [A5 - 0x199D]
0000100C  7C01                     moveq.l    D6, 0x01
0000100E  7A01                     moveq.l    D5, 0x01
00001010  2F2E 0008                move.l     -[A7], [A6 + 0x8]
00001014  4EBA 252A                jsr        [PC + 0x252A /* 00003540 */]
00001018  4267                     clr.w      -[A7]
0000101A  486E FE8A                pea.l      [A6 - 0x176]
0000101E  206E 0008                movea.l    A0, [A6 + 0x8]
00001022  2F28 0058                move.l     -[A7], [A0 + 0x58]
00001026  4EAD 1FEA                jsr        [A5 + 0x1FEA /* export_1017, CODE:19 @ 0000235A */]
0000102A  4EBA 294C                jsr        [PC + 0x294C /* 00003978 */]
0000102E  101F                     move.b     D0, [A7]+
00001030  0A00 0001                xori.b     D0, 0x1
00001034  1D40 FFEB                move.b     [A6 - 0x15], D0
00001038  6600 0168                bne        +0x16A /* 000011A2 */
0000103C  206E 0008                movea.l    A0, [A6 + 0x8]
00001040  7005                     moveq.l    D0, 0x05
00001042  B028 002C                cmp.b      D0, [A0 + 0x2C]
00001046  6600 009A                bne        +0x9C /* 000010E2 */
0000104A  206E 0008                movea.l    A0, [A6 + 0x8]
0000104E  4A10                     tst.b      [A0]
00001050  660C                     bne        +0xE /* 0000105E */
00001052  206E 0008                movea.l    A0, [A6 + 0x8]
00001056  2828 0002                move.l     D4, [A0 + 0x2]
0000105A  6000 0110                bra        +0x112 /* 0000116C */
label0000105E:
0000105E  206E 0008                movea.l    A0, [A6 + 0x8]
00001062  7001                     moveq.l    D0, 0x01
00001064  B010                     cmp.b      D0, [A0]
00001066  6618                     bne        +0x1A /* 00001080 */
00001068  42A7                     clr.l      -[A7]
0000106A  206E 0008                movea.l    A0, [A6 + 0x8]
0000106E  2F28 0006                move.l     -[A7], [A0 + 0x6]
00001072  2F2D F668                move.l     -[A7], [A5 - 0x998]
00001076  4EBA FB2C                jsr        [PC - 0x4D4 /* 00000BA4 */]
0000107A  2E1F                     move.l     D7, [A7]+
0000107C  6000 00D4                bra        +0xD6 /* 00001152 */
label00001080:
00001080  206E 0008                movea.l    A0, [A6 + 0x8]
00001084  7002                     moveq.l    D0, 0x02
00001086  B010                     cmp.b      D0, [A0]
00001088  6658                     bne        +0x5A /* 000010E2 */
0000108A  206E 0008                movea.l    A0, [A6 + 0x8]
0000108E  7002                     moveq.l    D0, 0x02
00001090  B028 000A                cmp.b      D0, [A0 + 0xA]
00001094  6616                     bne        +0x18 /* 000010AC */
00001096  42A7                     clr.l      -[A7]
00001098  4EAD 1DF2                jsr        [A5 + 0x1DF2 /* export_954, CODE:18 @ 000010BC */]
0000109C  2E1F                     move.l     D7, [A7]+
0000109E  5287                     addq.l     D7, 1
000010A0  BEAD F668                cmp.l      D7, [A5 - 0x998]
000010A4  6F02                     ble        +0x4 /* 000010A8 */
000010A6  7E01                     moveq.l    D7, 0x01
label000010A8:
000010A8  6000 00A8                bra        +0xAA /* 00001152 */
label000010AC:
000010AC  206E 0008                movea.l    A0, [A6 + 0x8]
000010B0  7001                     moveq.l    D0, 0x01
000010B2  B028 000A                cmp.b      D0, [A0 + 0xA]
000010B6  6618                     bne        +0x1A /* 000010D0 */
000010B8  42A7                     clr.l      -[A7]
000010BA  4EAD 1DF2                jsr        [A5 + 0x1DF2 /* export_954, CODE:18 @ 000010BC */]
000010BE  2E1F                     move.l     D7, [A7]+
000010C0  5387                     subq.l     D7, 1
000010C2  7001                     moveq.l    D0, 0x01
000010C4  B087                     cmp.l      D0, D7
000010C6  6F04                     ble        +0x6 /* 000010CC */
000010C8  2E2D F668                move.l     D7, [A5 - 0x998]
label000010CC:
000010CC  6000 0084                bra        +0x86 /* 00001152 */
label000010D0:
000010D0  206E 0008                movea.l    A0, [A6 + 0x8]
000010D4  4A28 000A                tst.b      [A0 + 0xA]
000010D8  6608                     bne        +0xA /* 000010E2 */
000010DA  4206                     clr.b      D6
000010DC  4205                     clr.b      D5
000010DE  6000 00C2                bra        +0xC4 /* 000011A2 */
label000010E2:
000010E2  2D6D F62A FFF0           move.l     [A6 - 0x10], [A5 - 0x9D6]
000010E8  2D6D F622 FFEC           move.l     [A6 - 0x14], [A5 - 0x9DE]
000010EE  486E FF8C                pea.l      [A6 - 0x74]
000010F2  4EAD 179A                jsr        [A5 + 0x179A /* export_751, CODE:15 @ 000063EC */]
000010F6  1B7C 0001 E663           move.b     [A5 - 0x199D], 0x1
000010FC  4267                     clr.w      -[A7]
000010FE  2F2E 0008                move.l     -[A7], [A6 + 0x8]
00001102  4EBA F3A2                jsr        [PC - 0xC5E /* 000004A6 */]
00001106  101F                     move.b     D0, [A7]+
00001108  6604                     bne        +0x6 /* 0000110E */
0000110A  6000 015C                bra        +0x15E /* 00001268 */
label0000110E:
0000110E  202D F622                move.l     D0, [A5 - 0x9DE]
00001112  B0AE FFEC                cmp.l      D0, [A6 - 0x14]
00001116  56C5                     sne        D5
00001118  4405                     neg.b      D5
0000111A  202D F62A                move.l     D0, [A5 - 0x9D6]
0000111E  B0AE FFF0                cmp.l      D0, [A6 - 0x10]
00001122  56C6                     sne        D6
00001124  4406                     neg.b      D6
00001126  206E 0008                movea.l    A0, [A6 + 0x8]
0000112A  7004                     moveq.l    D0, 0x04
0000112C  B010                     cmp.b      D0, [A0]
0000112E  6708                     beq        +0xA /* 00001138 */
00001130  2F2E 0008                move.l     -[A7], [A6 + 0x8]
00001134  4EAD 179A                jsr        [A5 + 0x179A /* export_751, CODE:15 @ 000063EC */]
label00001138:
00001138  4267                     clr.w      -[A7]
0000113A  486E FF8C                pea.l      [A6 - 0x74]
0000113E  4EBA F366                jsr        [PC - 0xC9A /* 000004A6 */]
00001142  101F                     move.b     D0, [A7]+
00001144  6604                     bne        +0x6 /* 0000114A */
00001146  6000 0120                bra        +0x122 /* 00001268 */
label0000114A:
0000114A  1B6E FF8B E663           move.b     [A5 - 0x199D], [A6 - 0x75]
00001150  6050                     bra        +0x52 /* 000011A2 */
label00001152:
00001152  7001                     moveq.l    D0, 0x01
00001154  B087                     cmp.l      D0, D7
00001156  6606                     bne        +0x8 /* 0000115E */
00001158  282D F66C                move.l     D4, [A5 - 0x994]
0000115C  600E                     bra        +0x10 /* 0000116C */
label0000115E:
0000115E  42A7                     clr.l      -[A7]
00001160  2F2D F670                move.l     -[A7], [A5 - 0x990]
00001164  2F07                     move.l     -[A7], D7
00001166  4EAD 1E22                jsr        [A5 + 0x1E22 /* export_960, CODE:18 @ 00001CCC */]
0000116A  281F                     move.l     D4, [A7]+
label0000116C:
0000116C  42A7                     clr.l      -[A7]
0000116E  2F04                     move.l     -[A7], D4
00001170  4EAD 1F7A                jsr        [A5 + 0x1F7A /* export_1003, CODE:19 @ 00001744 */]
00001174  2D5F FFFC                move.l     [A6 - 0x4], [A7]+
00001178  6606                     bne        +0x8 /* 00001180 */
0000117A  4206                     clr.b      D6
0000117C  4205                     clr.b      D5
0000117E  6022                     bra        +0x24 /* 000011A2 */
label00001180:
00001180  B8AD F62A                cmp.l      D4, [A5 - 0x9D6]
00001184  56C6                     sne        D6
00001186  4406                     neg.b      D6
00001188  206E FFFC                movea.l    A0, [A6 - 0x4]
0000118C  2050                     movea.l    A0, [A0]
0000118E  2028 0020                move.l     D0, [A0 + 0x20]
00001192  B0AD F622                cmp.l      D0, [A5 - 0x9DE]
00001196  56C5                     sne        D5
00001198  4405                     neg.b      D5
0000119A  2F04                     move.l     -[A7], D4
0000119C  4267                     clr.w      -[A7]
0000119E  4EAD 1EF2                jsr        [A5 + 0x1EF2 /* export_986, CODE:19 @ 00000450 */]
label000011A2:
000011A2  1006                     move.b     D0, D6
000011A4  6712                     beq        +0x14 /* 000011B8 */
000011A6  41ED E0E8                lea.l      A0, [A5 - 0x1F18]
000011AA  43FA 0110                lea.l      A1, [PC + 0x110 /* 000012BC, value 0x9636C6F '\tclo', pstring "closeCard" */]
000011AE  20D9                     move.l     [A0]+, [A1]+
000011B0  20D9                     move.l     [A0]+, [A1]+
000011B2  3091                     move.w     [A0], [A1]
000011B4  4EAD 0B8A                jsr        [A5 + 0xB8A /* export_365, CODE:8 @ 00003F30 */]
label000011B8:
000011B8  1005                     move.b     D0, D5
000011BA  6714                     beq        +0x16 /* 000011D0 */
000011BC  41ED E0E8                lea.l      A0, [A5 - 0x1F18]
000011C0  43FA 00EA                lea.l      A1, [PC + 0xEA /* 000012AC, value 0xF636C6F, pstring "closeBackground" */]
000011C4  20D9                     move.l     [A0]+, [A1]+
000011C6  20D9                     move.l     [A0]+, [A1]+
000011C8  20D9                     move.l     [A0]+, [A1]+
000011CA  20D9                     move.l     [A0]+, [A1]+
000011CC  4EAD 0B8A                jsr        [A5 + 0xB8A /* export_365, CODE:8 @ 00003F30 */]
label000011D0:
000011D0  102E FFEB                move.b     D0, [A6 - 0x15]
000011D4  6712                     beq        +0x14 /* 000011E8 */
000011D6  41ED E0E8                lea.l      A0, [A5 - 0x1F18]
000011DA  43FA 00C4                lea.l      A1, [PC + 0xC4 /* 000012A0, value 0xA636C6F '\nclo', pstring "closeStack" */]
000011DE  20D9                     move.l     [A0]+, [A1]+
000011E0  20D9                     move.l     [A0]+, [A1]+
000011E2  20D9                     move.l     [A0]+, [A1]+
000011E4  4EAD 0B8A                jsr        [A5 + 0xB8A /* export_365, CODE:8 @ 00003F30 */]
label000011E8:
000011E8  4EBA F26E                jsr        [PC - 0xD92 /* 00000458 */]
000011EC  4267                     clr.w      -[A7]
000011EE  2F2E 0008                move.l     -[A7], [A6 + 0x8]
000011F2  4EBA F2B2                jsr        [PC - 0xD4E /* 000004A6 */]
000011F6  101F                     move.b     D0, [A7]+
000011F8  6724                     beq        +0x26 /* 0000121E */
000011FA  1D7C 0001 000C           move.b     [A6 + 0xC], 0x1
00001200  2006                     move.l     D0, D6
00001202  C02D EFDF                and.b      D0, [A5 - 0x1021]
00001206  6704                     beq        +0x6 /* 0000120C */
00001208  4EBA 4172                jsr        [PC + 0x4172 /* 0000537C */]
label0000120C:
0000120C  7001                     moveq.l    D0, 0x01
0000120E  B06D EFDA                cmp.w      D0, [A5 - 0x1026]
00001212  6606                     bne        +0x8 /* 0000121A */
00001214  4EAD 132A                jsr        [A5 + 0x132A /* export_609, CODE:12 @ 00000098 */]
00001218  6004                     bra        +0x6 /* 0000121E */
label0000121A:
0000121A  4EAD 002A                jsr        [A5 + 0x2A /* export_1, CODE:1 @ 000000B0 */]
label0000121E:
0000121E  102E FFEB                move.b     D0, [A6 - 0x15]
00001222  6712                     beq        +0x14 /* 00001236 */
00001224  41ED E0E8                lea.l      A0, [A5 - 0x1F18]
00001228  43FA 006C                lea.l      A1, [PC + 0x6C /* 00001296, value 0x96F7065 '\tope', pstring "openStack" */]
0000122C  20D9                     move.l     [A0]+, [A1]+
0000122E  20D9                     move.l     [A0]+, [A1]+
00001230  3091                     move.w     [A0], [A1]
00001232  4EAD 0B8A                jsr        [A5 + 0xB8A /* export_365, CODE:8 @ 00003F30 */]
label00001236:
00001236  1005                     move.b     D0, D5
00001238  6714                     beq        +0x16 /* 0000124E */
0000123A  41ED E0E8                lea.l      A0, [A5 - 0x1F18]
0000123E  43FA 0046                lea.l      A1, [PC + 0x46 /* 00001286, value 0xE6F7065, pstring "openBackground" */]
00001242  20D9                     move.l     [A0]+, [A1]+
00001244  20D9                     move.l     [A0]+, [A1]+
00001246  20D9                     move.l     [A0]+, [A1]+
00001248  20D9                     move.l     [A0]+, [A1]+
0000124A  4EAD 0B8A                jsr        [A5 + 0xB8A /* export_365, CODE:8 @ 00003F30 */]
label0000124E:
0000124E  1006                     move.b     D0, D6
00001250  6712                     beq        +0x14 /* 00001264 */
00001252  41ED E0E8                lea.l      A0, [A5 - 0x1F18]
00001256  43FA 0024                lea.l      A1, [PC + 0x24 /* 0000127C, value 0x86F7065, pstring "openCard" */]
0000125A  20D9                     move.l     [A0]+, [A1]+
0000125C  20D9                     move.l     [A0]+, [A1]+
0000125E  3091                     move.w     [A0], [A1]
00001260  4EAD 0B8A                jsr        [A5 + 0xB8A /* export_365, CODE:8 @ 00003F30 */]
label00001264:
00001264  4EBA FBBA                jsr        [PC - 0x446 /* 00000E20 */]
label00001268:
00001268  1B6E FF8B E663           move.b     [A5 - 0x199D], [A6 - 0x75]
0000126E  426D E09E                clr.w      [A5 - 0x1F62]
label00001272:
00001272  4CDF 00F0                movem.l    D4,D5,D6,D7, [A7]+
00001276  4E5E                     unlink     A6
00001278  2E9F                     move.l     [A7], [A7]+
0000127A  4E75                     rts
0000127C  086F 7065 6E43           bchg.b     [A7 + 0x6E43], 0x65 /* 'e' */
00001282  6172                     bsr        +0x74 /* 000012F6 */
00001284  6400 0E6F                bcc        +0xE71 /* 000020F5 */
00001288  7065                     moveq.l    D0, 0x65
0000128A  6E42                     bgt        +0x44 /* 000012CE */
0000128C  6163                     bsr        +0x65 /* 000012F1 */
0000128E  6B67                     bmi        +0x69 /* 000012F7 */
00001290  726F                     moveq.l    D1, 0x6F
00001292  756E                     moveq.l    D2, 0x6E
00001294  6400 096F                bcc        +0x971 /* 00001C05 */
00001298  7065                     moveq.l    D0, 0x65
0000129A  6E53                     bgt        +0x55 /* 000012EF */
0000129C  7461                     moveq.l    D2, 0x61
0000129E  636B                     bls        +0x6D /* 0000130B */
000012A0  0A63 6C6F                xori.w     -[A3], 0x6C6F /* 'lo' */
000012A4  7365                     moveq.l    D1, 0x65
000012A6  5374 6163 6B00 0F63 6C6F subq.w     [[A4 + 0x6B00] + 0xF636C6F], 1
000012B0  7365                     moveq.l    D1, 0x65
000012B2  4261                     clr.w      -[A1]
000012B4  636B                     bls        +0x6D /* 00001321 */
000012B6  6772                     beq        +0x74 /* 0000132A */
000012B8  6F75                     ble        +0x77 /* 0000132F */
000012BA  6E64                     bgt        +0x66 /* 00001320 */
000012BC  0963                     bchg       -[A3], D4
000012BE  6C6F                     bge        +0x71 /* 0000132F */
000012C0  7365                     moveq.l    D1, 0x65
000012C2  4361                     chk.w      D1, -[A1]
000012C4  7264                     moveq.l    D1, 0x64
export_1042:
000012C6  4E56 FFA2                link       A6, -0x005E
000012CA  1D7C 0004 FFA4           move.b     [A6 - 0x5C], 0x4
// begin alternate branch 000012CE-000012D0
label000012CE:
000012CE  FFA4                     .invalid   <<F/6/7>>
// end alternate branch 000012CE-000012D0
label000012CE: // (misaligned)
000012D0  1D6E 0008 FFAE           move.b     [A6 - 0x52], [A6 + 0x8]
000012D6  1D7C 0005 FFD0           move.b     [A6 - 0x30], 0x5
000012DC  42A7                     clr.l      -[A7]
000012DE  487A 0020                pea.l      [PC + 0x20 /* 00001300, value 0x4E56 'NV', cstring "" */]
000012E2  4EAD 1FE2                jsr        [A5 + 0x1FE2 /* export_1016, CODE:19 @ 0000227C */]
000012E6  2D5F FFFC                move.l     [A6 - 0x4], [A7]+
000012EA  4267                     clr.w      -[A7]
000012EC  486E FFA4                pea.l      [A6 - 0x5C]
000012F0  4EBA FCDA                jsr        [PC - 0x326 /* 00000FCC */]
000012F4  1D5F FFA3                move.b     [A6 - 0x5D], [A7]+
// begin alternate branch 000012F6-000012F8
fn000012F6:
000012F6  FFA3                     .invalid   <<F/6/7>>
// end alternate branch 000012F6-000012F8
fn000012F6: // (misaligned)
000012F8  4E5E                     unlink     A6
000012FA  205F                     movea.l    A0, [A7]+
000012FC  544F                     addq.w     A7, 2
000012FE  4ED0                     jmp        [A0]
00001300  0000 4E56                ori.b      D0, 0x56 /* 'V' */
// begin alternate branch 00001302-00001306
export_1043:
00001302  4E56 FFA2                link       A6, -0x005E
// end alternate branch 00001302-00001306
export_1043: // at 00001302 (misaligned)
00001304  FFA2                     .invalid   <<F/6/7>>
00001306  1D7C 0002 FFA4           move.b     [A6 - 0x5C], 0x2
0000130C  1D6E 0008 FFAE           move.b     [A6 - 0x52], [A6 + 0x8]
00001312  1D7C 0005 FFD0           move.b     [A6 - 0x30], 0x5
00001318  42A7                     clr.l      -[A7]
0000131A  487A 0020                pea.l      [PC + 0x20 /* 0000133C, value 0x4E56 'NV', cstring "" */]
0000131E  4EAD 1FE2                jsr        [A5 + 0x1FE2 /* export_1016, CODE:19 @ 0000227C */]
// begin alternate branch 00001320-00001322
label00001320:
00001320  1FE2                     move.b     <<invalid special address>>, -[A2]
// end alternate branch 00001320-00001322
label00001320: // (misaligned)
00001322  2D5F FFFC                move.l     [A6 - 0x4], [A7]+
00001326  4267                     clr.w      -[A7]
00001328  486E FFA4                pea.l      [A6 - 0x5C]
// begin alternate branch 0000132A-0000132C
label0000132A:
0000132A  FFA4                     .invalid   <<F/6/7>>
// end alternate branch 0000132A-0000132C
label0000132A: // (misaligned)
0000132C  4EBA FC9E                jsr        [PC - 0x362 /* 00000FCC */]
00001330  1D5F FFA3                move.b     [A6 - 0x5D], [A7]+
00001334  4E5E                     unlink     A6
00001336  205F                     movea.l    A0, [A7]+
00001338  544F                     addq.w     A7, 2
0000133A  4ED0                     jmp        [A0]
0000133C  0000 4E56                ori.b      D0, 0x56 /* 'V' */
// begin alternate branch 0000133E-0000134A
export_1044:
0000133E  4E56 FEA2                link       A6, -0x015E
00001342  206E 0008                movea.l    A0, [A6 + 0x8]
00001346  43EE FF00                lea.l      A1, [A6 - 0x100]
// end alternate branch 0000133E-0000134A
export_1044: // at 0000133E (misaligned)
00001340  FEA2 206E                .extension 0xEA2 <<F/2-3/7>> // unimplemented
00001344  0008 43EE                ori.b      A0, 0xEE
00001348  FF00                     .extension 0xF00 <<F/4-5/7>> // unimplemented
0000134A  703F                     moveq.l    D0, 0x3F
label0000134C:
0000134C  22D8                     move.l     [A1]+, [A0]+
0000134E  51C8 FFFC                dbf        D0, -0x6 /* 0000134C */
00001352  1D7C 0001 FEA4           move.b     [A6 - 0x15C], 0x1
00001358  2D6E 000C FEAA           move.l     [A6 - 0x156], [A6 + 0xC]
0000135E  1D7C 0005 FED0           move.b     [A6 - 0x130], 0x5
00001364  42A7                     clr.l      -[A7]
00001366  486E FF00                pea.l      [A6 - 0x100]
0000136A  4EAD 1FE2                jsr        [A5 + 0x1FE2 /* export_1016, CODE:19 @ 0000227C */]
0000136E  2D5F FEFC                move.l     [A6 - 0x104], [A7]+
00001372  4267                     clr.w      -[A7]
00001374  486E FEA4                pea.l      [A6 - 0x15C]
00001378  4EBA FC52                jsr        [PC - 0x3AE /* 00000FCC */]
0000137C  1D5F FEA3                move.b     [A6 - 0x15D], [A7]+
00001380  4E5E                     unlink     A6
00001382  205F                     movea.l    A0, [A7]+
00001384  504F                     addq.w     A7, 8
00001386  4ED0                     jmp        [A0]
export_1045:
fn00001388:
00001388  4E56 FEA2                link       A6, -0x015E
0000138C  206E 0008                movea.l    A0, [A6 + 0x8]
00001390  43EE FF00                lea.l      A1, [A6 - 0x100]
00001394  703F                     moveq.l    D0, 0x3F
label00001396:
00001396  22D8                     move.l     [A1]+, [A0]+
00001398  51C8 FFFC                dbf        D0, -0x6 /* 00001396 */
0000139C  422E FEA4                clr.b      [A6 - 0x15C]
000013A0  2D6E 000C FEA6           move.l     [A6 - 0x15A], [A6 + 0xC]
000013A6  1D7C 0005 FED0           move.b     [A6 - 0x130], 0x5
000013AC  42A7                     clr.l      -[A7]
000013AE  486E FF00                pea.l      [A6 - 0x100]
000013B2  4EAD 1FE2                jsr        [A5 + 0x1FE2 /* export_1016, CODE:19 @ 0000227C */]
000013B6  2D5F FEFC                move.l     [A6 - 0x104], [A7]+
000013BA  4267                     clr.w      -[A7]
000013BC  486E FEA4                pea.l      [A6 - 0x15C]
000013C0  4EBA FC0A                jsr        [PC - 0x3F6 /* 00000FCC */]
000013C4  1D5F FEA3                move.b     [A6 - 0x15D], [A7]+
000013C8  4E5E                     unlink     A6
000013CA  205F                     movea.l    A0, [A7]+
000013CC  504F                     addq.w     A7, 8
000013CE  4ED0                     jmp        [A0]
export_1046:
000013D0  4E56 0000                link       A6, 0
000013D4  41ED EDD4                lea.l      A0, [A5 - 0x122C]
000013D8  43ED ED82                lea.l      A1, [A5 - 0x127E]
000013DC  20D9                     move.l     [A0]+, [A1]+
000013DE  20D9                     move.l     [A0]+, [A1]+
000013E0  2F2E 0016                move.l     -[A7], [A6 + 0x16]
000013E4  2F2E 0012                move.l     -[A7], [A6 + 0x12]
000013E8  2F2E 000E                move.l     -[A7], [A6 + 0xE]
000013EC  3F2E 000C                move.w     -[A7], [A6 + 0xC]
000013F0  2F2E 0008                move.l     -[A7], [A6 + 0x8]
000013F4  A8EB                     syscall    StdBits
000013F6  2F2E 000E                move.l     -[A7], [A6 + 0xE]
000013FA  4EAD 174A                jsr        [A5 + 0x174A /* export_741, CODE:15 @ 0000516C */]
000013FE  206D EDC8                movea.l    A0, [A5 - 0x1238]
00001402  43ED EDD4                lea.l      A1, [A5 - 0x122C]
00001406  5088                     addq.l     A0, 8
00001408  22D8                     move.l     [A1]+, [A0]+
0000140A  22D8                     move.l     [A1]+, [A0]+
0000140C  4E5E                     unlink     A6
0000140E  205F                     movea.l    A0, [A7]+
00001410  DEFC 0012                add.w      A7, 0x12
00001414  4ED0                     jmp        [A0]
00001416  4E56 FFF6                link       A6, -0x000A
0000141A  2F07                     move.l     -[A7], D7
0000141C  1D7C 0001 0008           move.b     [A6 + 0x8], 0x1
00001422  102D E209                move.b     D0, [A5 - 0x1DF7]
00001426  674E                     beq        +0x50 /* 00001476 */
00001428  486E FFF6                pea.l      [A6 - 0xA]
0000142C  A874                     syscall    GetPort
0000142E  2F2D EDC8                move.l     -[A7], [A5 - 0x1238]
00001432  A873                     syscall    SetPort
00001434  486E FFFC                pea.l      [A6 - 0x4]
00001438  4EBA 0042                jsr        [PC + 0x42 /* 0000147C */]
0000143C  2F2E FFF6                move.l     -[A7], [A6 - 0xA]
00001440  A873                     syscall    SetPort
00001442  4247                     clr.w      D7
00001444  302E FFFC                move.w     D0, [A6 - 0x4]
00001448  B06D E258                cmp.w      D0, [A5 - 0x1DA8]
0000144C  6C04                     bge        +0x6 /* 00001452 */
0000144E  3E2D E26E                move.w     D7, [A5 - 0x1D92]
label00001452:
00001452  302E FFFC                move.w     D0, [A6 - 0x4]
00001456  B06D E25C                cmp.w      D0, [A5 - 0x1DA4]
0000145A  6F08                     ble        +0xA /* 00001464 */
0000145C  302D E26E                move.w     D0, [A5 - 0x1D92]
00001460  4440                     neg.w      D0
00001462  3E00                     move.w     D7, D0
label00001464:
00001464  4A47                     tst.w      D7
00001466  670E                     beq        +0x10 /* 00001476 */
00001468  4267                     clr.w      -[A7]
0000146A  3F07                     move.w     -[A7], D7
0000146C  2F2D E246                move.l     -[A7], [A5 - 0x1DBA]
00001470  A812                     syscall    TEPinScroll
00001472  4EBA 4C58                jsr        [PC + 0x4C58 /* 000060CC */]
label00001476:
00001476  2E1F                     move.l     D7, [A7]+
00001478  4E5E                     unlink     A6
0000147A  4E75                     rts
export_1047:
fn0000147C:
0000147C  4E56 FFFC                link       A6, -0x0004
00001480  2F07                     move.l     -[A7], D7
00001482  102D DEAB                move.b     D0, [A5 - 0x2155]
00001486  6766                     beq        +0x68 /* 000014EE */
00001488  7005                     moveq.l    D0, 0x05
0000148A  B0AD DE88                cmp.l      D0, [A5 - 0x2178]
0000148E  6F0E                     ble        +0x10 /* 0000149E */
00001490  206E 0008                movea.l    A0, [A6 + 0x8]
00001494  20AD DEB6                move.l     [A0], [A5 - 0x214A]
00001498  52AD DE88                addq.l     [A5 - 0x2178], 1
0000149C  6048                     bra        +0x4A /* 000014E6 */
label0000149E:
0000149E  42A7                     clr.l      -[A7]
000014A0  A975                     syscall    TickCount
000014A2  2E1F                     move.l     D7, [A7]+
000014A4  BEAD DE8C                cmp.l      D7, [A5 - 0x2174]
000014A8  6D0E                     blt        +0x10 /* 000014B8 */
000014AA  206E 0008                movea.l    A0, [A6 + 0x8]
000014AE  20AD DE94                move.l     [A0], [A5 - 0x216C]
000014B2  52AD DE84                addq.l     [A5 - 0x217C], 1
000014B6  602E                     bra        +0x30 /* 000014E6 */
label000014B8:
000014B8  BEAD DE90                cmp.l      D7, [A5 - 0x2170]
000014BC  6F16                     ble        +0x18 /* 000014D4 */
000014BE  202D DE9C                move.l     D0, [A5 - 0x2164]
000014C2  D1AD DEA4                add.l      [A5 - 0x215C], D0
000014C6  202D DE98                move.l     D0, [A5 - 0x2168]
000014CA  D1AD DEA0                add.l      [A5 - 0x2160], D0
000014CE  52AD DE90                addq.l     [A5 - 0x2170], 1
000014D2  60E4                     bra        -0x1A /* 000014B8 */
label000014D4:
000014D4  206E 0008                movea.l    A0, [A6 + 0x8]
000014D8  316D DEA4 0002           move.w     [A0 + 0x2], [A5 - 0x215C]
000014DE  206E 0008                movea.l    A0, [A6 + 0x8]
000014E2  30AD DEA0                move.w     [A0], [A5 - 0x2160]
label000014E6:
000014E6  2F2E 0008                move.l     -[A7], [A6 + 0x8]
000014EA  A871                     syscall    GlobalToLocal
000014EC  6006                     bra        +0x8 /* 000014F4 */
label000014EE:
000014EE  2F2E 0008                move.l     -[A7], [A6 + 0x8]
000014F2  A972                     syscall    GetMouse
label000014F4:
000014F4  2E1F                     move.l     D7, [A7]+
000014F6  4E5E                     unlink     A6
000014F8  2E9F                     move.l     [A7], [A7]+
000014FA  4E75                     rts
export_1048:
000014FC  4E56 0000                link       A6, 0
00001500  422D F017                clr.b      [A5 - 0xFE9]
00001504  4267                     clr.w      -[A7]
00001506  3F2E 000C                move.w     -[A7], [A6 + 0xC]
0000150A  2F2E 0008                move.l     -[A7], [A6 + 0x8]
0000150E  A970                     syscall    GetNextEvent
00001510  1D5F 000E                move.b     [A6 + 0xE], [A7]+
00001514  4E5E                     unlink     A6
00001516  205F                     movea.l    A0, [A7]+
00001518  5C4F                     addq.w     A7, 6
0000151A  4ED0                     jmp        [A0]
export_1049:
0000151C  4E56 FFF0                link       A6, -0x0010
00001520  48E7 0718                movem.l    -[A7], D5,D6,D7,A3,A4
00001524  266E 0008                movea.l    A3, [A6 + 0x8]
00001528  2A2E 0010                move.l     D5, [A6 + 0x10]
0000152C  1B7C 0001 F4BD           move.b     [A5 - 0xB43], 0x1
00001532  42A7                     clr.l      -[A7]
00001534  A9F9                     syscall    InfoScrap
00001536  285F                     movea.l    A4, [A7]+
00001538  4AAC 0004                tst.l      [A4 + 0x4]
0000153C  6610                     bne        +0x12 /* 0000154E */
0000153E  42A7                     clr.l      -[A7]
00001540  2F05                     move.l     -[A7], D5
00001542  2F2E 000C                move.l     -[A7], [A6 + 0xC]
00001546  2F0B                     move.l     -[A7], A3
00001548  A9FE                     syscall    PutScrap
0000154A  2E1F                     move.l     D7, [A7]+
0000154C  6052                     bra        +0x54 /* 000015A0 */
label0000154E:
0000154E  2C14                     move.l     D6, [A4]
00001550  42A7                     clr.l      -[A7]
00001552  2F05                     move.l     -[A7], D5
00001554  2F2E 000C                move.l     -[A7], [A6 + 0xC]
00001558  2F0B                     move.l     -[A7], A3
0000155A  A9FE                     syscall    PutScrap
0000155C  2E1F                     move.l     D7, [A7]+
0000155E  6740                     beq        +0x42 /* 000015A0 */
00001560  2886                     move.l     [A4], D6
00001562  2F2C 0004                move.l     -[A7], [A4 + 0x4]
00001566  2F06                     move.l     -[A7], D6
00001568  4EAD 020A                jsr        [A5 + 0x20A /* export_61, CODE:1 @ 00004654 */]
0000156C  4EAD 1ED2                jsr        [A5 + 0x1ED2 /* export_982, CODE:19 @ 00000172 */]
00001570  42A7                     clr.l      -[A7]
00001572  2F05                     move.l     -[A7], D5
00001574  2F2E 000C                move.l     -[A7], [A6 + 0xC]
00001578  2F0B                     move.l     -[A7], A3
0000157A  A9FE                     syscall    PutScrap
0000157C  2E1F                     move.l     D7, [A7]+
0000157E  6720                     beq        +0x22 /* 000015A0 */
00001580  2886                     move.l     [A4], D6
00001582  2F2C 0004                move.l     -[A7], [A4 + 0x4]
00001586  2F06                     move.l     -[A7], D6
00001588  4EAD 020A                jsr        [A5 + 0x20A /* export_61, CODE:1 @ 00004654 */]
0000158C  42A7                     clr.l      -[A7]
0000158E  A9FA                     syscall    UnloadScrap/UnlodeScrap
00001590  2E1F                     move.l     D7, [A7]+
00001592  42A7                     clr.l      -[A7]
00001594  2F05                     move.l     -[A7], D5
00001596  2F2E 000C                move.l     -[A7], [A6 + 0xC]
0000159A  2F0B                     move.l     -[A7], A3
0000159C  A9FE                     syscall    PutScrap
0000159E  2E1F                     move.l     D7, [A7]+
label000015A0:
000015A0  422D F4BD                clr.b      [A5 - 0xB43]
000015A4  1B7C 0001 E2BF           move.b     [A5 - 0x1D41], 0x1
000015AA  2D47 0014                move.l     [A6 + 0x14], D7
000015AE  4CDF 18E0                movem.l    D5,D6,D7,A3,A4, [A7]+
000015B2  4E5E                     unlink     A6
000015B4  205F                     movea.l    A0, [A7]+
000015B6  DEFC 000C                add.w      A7, 0xC
000015BA  4ED0                     jmp        [A0]
export_1050:
000015BC  4E56 FFF8                link       A6, -0x0008
000015C0  206E 0008                movea.l    A0, [A6 + 0x8]
000015C4  43EE FFF8                lea.l      A1, [A6 - 0x8]
000015C8  22D8                     move.l     [A1]+, [A0]+
000015CA  22D8                     move.l     [A1]+, [A0]+
000015CC  41ED EDD4                lea.l      A0, [A5 - 0x122C]
000015D0  43ED ED82                lea.l      A1, [A5 - 0x127E]
000015D4  20D9                     move.l     [A0]+, [A1]+
000015D6  20D9                     move.l     [A0]+, [A1]+
000015D8  7002                     moveq.l    D0, 0x02
000015DA  B02E 000C                cmp.b      D0, [A6 + 0xC]
000015DE  6614                     bne        +0x16 /* 000015F4 */
000015E0  486D ED36                pea.l      [A5 - 0x12CA]
000015E4  486E FFF8                pea.l      [A6 - 0x8]
000015E8  486E FFF8                pea.l      [A6 - 0x8]
000015EC  4267                     clr.w      -[A7]
000015EE  42A7                     clr.l      -[A7]
000015F0  A8EB                     syscall    StdBits
000015F2  600A                     bra        +0xC /* 000015FE */
label000015F4:
000015F4  1F2E 000C                move.b     -[A7], [A6 + 0xC]
000015F8  486E FFF8                pea.l      [A6 - 0x8]
000015FC  A8A0                     syscall    StdRect
label000015FE:
000015FE  486E FFF8                pea.l      [A6 - 0x8]
00001602  4EAD 174A                jsr        [A5 + 0x174A /* export_741, CODE:15 @ 0000516C */]
00001606  206D EDC8                movea.l    A0, [A5 - 0x1238]
0000160A  43ED EDD4                lea.l      A1, [A5 - 0x122C]
0000160E  5088                     addq.l     A0, 8
00001610  22D8                     move.l     [A1]+, [A0]+
00001612  22D8                     move.l     [A1]+, [A0]+
00001614  4E5E                     unlink     A6
00001616  205F                     movea.l    A0, [A7]+
00001618  5C4F                     addq.w     A7, 6
0000161A  4ED0                     jmp        [A0]
export_1051:
0000161C  4E56 FFF8                link       A6, -0x0008
00001620  41ED EDD4                lea.l      A0, [A5 - 0x122C]
00001624  43ED ED82                lea.l      A1, [A5 - 0x127E]
00001628  20D9                     move.l     [A0]+, [A1]+
0000162A  20D9                     move.l     [A0]+, [A1]+
0000162C  206E 0008                movea.l    A0, [A6 + 0x8]
00001630  2050                     movea.l    A0, [A0]
00001632  43EE FFF8                lea.l      A1, [A6 - 0x8]
00001636  5488                     addq.l     A0, 2
00001638  22D8                     move.l     [A1]+, [A0]+
0000163A  22D8                     move.l     [A1]+, [A0]+
0000163C  7002                     moveq.l    D0, 0x02
0000163E  B02E 000C                cmp.b      D0, [A6 + 0xC]
00001642  6616                     bne        +0x18 /* 0000165A */
00001644  486D ED36                pea.l      [A5 - 0x12CA]
00001648  486E FFF8                pea.l      [A6 - 0x8]
0000164C  486E FFF8                pea.l      [A6 - 0x8]
00001650  4267                     clr.w      -[A7]
00001652  2F2E 0008                move.l     -[A7], [A6 + 0x8]
00001656  A8EB                     syscall    StdBits
00001658  600A                     bra        +0xC /* 00001664 */
label0000165A:
0000165A  1F2E 000C                move.b     -[A7], [A6 + 0xC]
0000165E  2F2E 0008                move.l     -[A7], [A6 + 0x8]
00001662  A8D1                     syscall    StdRgn
label00001664:
00001664  486E FFF8                pea.l      [A6 - 0x8]
00001668  4EAD 174A                jsr        [A5 + 0x174A /* export_741, CODE:15 @ 0000516C */]
0000166C  206D EDC8                movea.l    A0, [A5 - 0x1238]
00001670  43ED EDD4                lea.l      A1, [A5 - 0x122C]
00001674  5088                     addq.l     A0, 8
00001676  22D8                     move.l     [A1]+, [A0]+
00001678  22D8                     move.l     [A1]+, [A0]+
0000167A  4E5E                     unlink     A6
0000167C  205F                     movea.l    A0, [A7]+
0000167E  5C4F                     addq.w     A7, 6
00001680  4ED0                     jmp        [A0]
export_1052:
00001682  4E56 FFFC                link       A6, -0x0004
00001686  2F0D                     move.l     -[A7], A5
00001688  2A78 0904                movea.l    A5, [0x00000904 /* CurrentA5 */]
0000168C  41ED EDCC                lea.l      A0, [A5 - 0x1234]
00001690  B1ED FEA8                cmpa.l     A0, [A5 - 0x158]
00001694  663A                     bne        +0x3C /* 000016D0 */
00001696  41ED EDD4                lea.l      A0, [A5 - 0x122C]
0000169A  43ED ED82                lea.l      A1, [A5 - 0x127E]
0000169E  20D9                     move.l     [A0]+, [A1]+
000016A0  20D9                     move.l     [A0]+, [A1]+
000016A2  2F2E 0010                move.l     -[A7], [A6 + 0x10]
000016A6  2F2E 000C                move.l     -[A7], [A6 + 0xC]
000016AA  2F2E 0008                move.l     -[A7], [A6 + 0x8]
000016AE  2F2D E20A                move.l     -[A7], [A5 - 0x1DF6]
000016B2  205F                     movea.l    A0, [A7]+
000016B4  4E90                     jsr        [A0]
000016B6  2F2E 0010                move.l     -[A7], [A6 + 0x10]
000016BA  4EAD 174A                jsr        [A5 + 0x174A /* export_741, CODE:15 @ 0000516C */]
000016BE  206D EDC8                movea.l    A0, [A5 - 0x1238]
000016C2  43ED EDD4                lea.l      A1, [A5 - 0x122C]
000016C6  5088                     addq.l     A0, 8
000016C8  22D8                     move.l     [A1]+, [A0]+
000016CA  22D8                     move.l     [A1]+, [A0]+
000016CC  2A5F                     movea.l    A5, [A7]+
000016CE  601C                     bra        +0x1E /* 000016EC */
label000016D0:
000016D0  2D6D E20A FFFC           move.l     [A6 - 0x4], [A5 - 0x1DF6]
000016D6  2A5F                     movea.l    A5, [A7]+
000016D8  2F2E 0010                move.l     -[A7], [A6 + 0x10]
000016DC  2F2E 000C                move.l     -[A7], [A6 + 0xC]
000016E0  2F2E 0008                move.l     -[A7], [A6 + 0x8]
000016E4  2F2E FFFC                move.l     -[A7], [A6 - 0x4]
000016E8  205F                     movea.l    A0, [A7]+
000016EA  4E90                     jsr        [A0]
label000016EC:
000016EC  4E5E                     unlink     A6
000016EE  205F                     movea.l    A0, [A7]+
000016F0  DEFC 000C                add.w      A7, 0xC
000016F4  4ED0                     jmp        [A0]
export_1053:
000016F6  4E56 0000                link       A6, 0
000016FA  102D DEAB                move.b     D0, [A5 - 0x2155]
000016FE  6720                     beq        +0x22 /* 00001720 */
00001700  7005                     moveq.l    D0, 0x05
00001702  B0AD DE84                cmp.l      D0, [A5 - 0x217C]
00001706  5EC0                     sgt        D0
00001708  2F00                     move.l     -[A7], D0
0000170A  4267                     clr.w      -[A7]
0000170C  4EAD 17FA                jsr        [A5 + 0x17FA /* export_763, CODE:16 @ 0000009E */]
00001710  121F                     move.b     D1, [A7]+
00001712  201F                     move.l     D0, [A7]+
00001714  0A01 0001                xori.b     D1, 0x1
00001718  C001                     and.b      D0, D1
0000171A  1D40 0008                move.b     [A6 + 0x8], D0
0000171E  6008                     bra        +0xA /* 00001728 */
label00001720:
00001720  4267                     clr.w      -[A7]
00001722  A973                     syscall    StillDown
00001724  1D5F 0008                move.b     [A6 + 0x8], [A7]+
label00001728:
00001728  4E5E                     unlink     A6
0000172A  4E75                     rts
export_1054:
0000172C  4E56 FFFE                link       A6, -0x0002
00001730  206D FEA8                movea.l    A0, [A5 - 0x158]
00001734  3D68 0044 FFFE           move.w     [A6 - 0x2], [A0 + 0x44]
0000173A  102D F2B3                move.b     D0, [A5 - 0xD4D]
0000173E  6714                     beq        +0x16 /* 00001754 */
00001740  206D FEA8                movea.l    A0, [A5 - 0x158]
00001744  2F08                     move.l     -[A7], A0
00001746  4267                     clr.w      -[A7]
00001748  3EB8 0BA6                move.w     [A7], [0x00000BA6 /* SysFontFam */]
0000174C  301F                     move.w     D0, [A7]+
0000174E  205F                     movea.l    A0, [A7]+
00001750  3140 0044                move.w     [A0 + 0x44], D0
label00001754:
00001754  3F2E 000C                move.w     -[A7], [A6 + 0xC]
00001758  2F2E 0008                move.l     -[A7], [A6 + 0x8]
0000175C  A9DC                     syscall    TEKey
0000175E  206D FEA8                movea.l    A0, [A5 - 0x158]
00001762  316E FFFE 0044           move.w     [A0 + 0x44], [A6 - 0x2]
00001768  4E5E                     unlink     A6
0000176A  205F                     movea.l    A0, [A7]+
0000176C  5C4F                     addq.w     A7, 6
0000176E  4ED0                     jmp        [A0]
export_1055:
00001770  4E56 FFF8                link       A6, -0x0008
00001774  41ED EDD4                lea.l      A0, [A5 - 0x122C]
00001778  43ED ED82                lea.l      A1, [A5 - 0x127E]
0000177C  20D9                     move.l     [A0]+, [A1]+
0000177E  20D9                     move.l     [A0]+, [A1]+
00001780  3D6D EDFE FFFA           move.w     [A6 - 0x6], [A5 - 0x1202]
00001786  206D E246                movea.l    A0, [A5 - 0x1DBA]
0000178A  2050                     movea.l    A0, [A0]
0000178C  302D EDFC                move.w     D0, [A5 - 0x1204]
00001790  9068 001A                sub.w      D0, [A0 + 0x1A]
00001794  3D40 FFF8                move.w     [A6 - 0x8], D0
00001798  206D E246                movea.l    A0, [A5 - 0x1DBA]
0000179C  2050                     movea.l    A0, [A0]
0000179E  3028 0018                move.w     D0, [A0 + 0x18]
000017A2  D06E FFF8                add.w      D0, [A6 - 0x8]
000017A6  3D40 FFFC                move.w     [A6 - 0x4], D0
000017AA  3F2E 0014                move.w     -[A7], [A6 + 0x14]
000017AE  2F2E 0010                move.l     -[A7], [A6 + 0x10]
000017B2  2F2E 000C                move.l     -[A7], [A6 + 0xC]
000017B6  2F2E 0008                move.l     -[A7], [A6 + 0x8]
000017BA  A882                     syscall    StdText
000017BC  3D6D EDFE FFFE           move.w     [A6 - 0x2], [A5 - 0x1202]
000017C2  486E FFF8                pea.l      [A6 - 0x8]
000017C6  4EAD 174A                jsr        [A5 + 0x174A /* export_741, CODE:15 @ 0000516C */]
000017CA  206D EDC8                movea.l    A0, [A5 - 0x1238]
000017CE  43ED EDD4                lea.l      A1, [A5 - 0x122C]
000017D2  5088                     addq.l     A0, 8
000017D4  22D8                     move.l     [A1]+, [A0]+
000017D6  22D8                     move.l     [A1]+, [A0]+
000017D8  4E5E                     unlink     A6
000017DA  205F                     movea.l    A0, [A7]+
000017DC  DEFC 000E                add.w      A7, 0xE
000017E0  4ED0                     jmp        [A0]
export_1056:
000017E2  4E56 FFCC                link       A6, -0x0034
000017E6  48E7 0F08                movem.l    -[A7], D4,D5,D6,D7,A4
000017EA  286E 000E                movea.l    A4, [A6 + 0xE]
000017EE  282E 0008                move.l     D4, [A6 + 0x8]
000017F2  41EE FFEC                lea.l      A0, [A6 - 0x14]
000017F6  43EC 0010                lea.l      A1, [A4 + 0x10]
000017FA  20D9                     move.l     [A0]+, [A1]+
000017FC  20D9                     move.l     [A0]+, [A1]+
000017FE  2F2C 0008                move.l     -[A7], [A4 + 0x8]
00001802  486E FFEC                pea.l      [A6 - 0x14]
00001806  A87F                     syscall    SubPt
00001808  2F2C 0008                move.l     -[A7], [A4 + 0x8]
0000180C  486E FFF0                pea.l      [A6 - 0x10]
00001810  A87F                     syscall    SubPt
00001812  7C00                     moveq.l    D6, 0x00
00001814  302E 000C                move.w     D0, [A6 + 0xC]
00001818  6710                     beq        +0x12 /* 0000182A */
0000181A  5340                     subq.w     D0, 1
0000181C  6700 0150                beq        +0x152 /* 0000196E */
00001820  5340                     subq.w     D0, 1
00001822  6700 0196                beq        +0x198 /* 000019BA */
00001826  6000 0220                bra        +0x222 /* 00001A48 */
label0000182A:
0000182A  102C 006E                move.b     D0, [A4 + 0x6E]
0000182E  6700 013A                beq        +0x13C /* 0000196A */
00001832  302E FFEE                move.w     D0, [A6 - 0x12]
00001836  5E40                     addq.w     D0, 7
00001838  3D40 FFE6                move.w     [A6 - 0x1A], D0
0000183C  302E FFEC                move.w     D0, [A6 - 0x14]
00001840  907C 0009                sub.w      D0, 0x9 /* '\t' */
00001844  3D40 FFE4                move.w     [A6 - 0x1C], D0
00001848  302E FFE6                move.w     D0, [A6 - 0x1A]
0000184C  5E40                     addq.w     D0, 7
0000184E  3D40 FFEA                move.w     [A6 - 0x16], D0
00001852  302E FFE4                move.w     D0, [A6 - 0x1C]
00001856  5E40                     addq.w     D0, 7
00001858  3D40 FFE8                move.w     [A6 - 0x18], D0
0000185C  2004                     move.l     D0, D4
0000185E  7204                     moveq.l    D1, 0x04
00001860  B240                     cmp.w      D1, D0
00001862  660A                     bne        +0xC /* 0000186E */
00001864  486E FFE4                pea.l      [A6 - 0x1C]
00001868  A8A4                     syscall    InvertRect
0000186A  6000 01DC                bra        +0x1DE /* 00001A48 */
label0000186E:
0000186E  2004                     move.l     D0, D4
00001870  4A40                     tst.w      D0
00001872  6600 00F6                bne        +0xF8 /* 0000196A */
00001876  3D6E FFEE FFDE           move.w     [A6 - 0x22], [A6 - 0x12]
0000187C  3D6E FFF2 FFE2           move.w     [A6 - 0x1E], [A6 - 0xE]
00001882  302E FFEC                move.w     D0, [A6 - 0x14]
00001886  907C 000A                sub.w      D0, 0xA /* '\n' */
0000188A  3D40 FFDC                move.w     [A6 - 0x24], D0
0000188E  302E FFEC                move.w     D0, [A6 - 0x14]
00001892  5340                     subq.w     D0, 1
00001894  3D40 FFE0                move.w     [A6 - 0x20], D0
00001898  302E FFEE                move.w     D0, [A6 - 0x12]
0000189C  5340                     subq.w     D0, 1
0000189E  3D40 FFEE                move.w     [A6 - 0x12], D0
000018A2  302E FFF2                move.w     D0, [A6 - 0xE]
000018A6  5240                     addq.w     D0, 1
000018A8  3D40 FFF2                move.w     [A6 - 0xE], D0
000018AC  302E FFEC                move.w     D0, [A6 - 0x14]
000018B0  907C 000B                sub.w      D0, 0xB
000018B4  3D40 FFEC                move.w     [A6 - 0x14], D0
000018B8  302E FFF0                move.w     D0, [A6 - 0x10]
000018BC  5240                     addq.w     D0, 1
000018BE  3D40 FFF0                move.w     [A6 - 0x10], D0
000018C2  486E FFEC                pea.l      [A6 - 0x14]
000018C6  A8A1                     syscall    FrameRect
000018C8  3F2E FFF2                move.w     -[A7], [A6 - 0xE]
000018CC  302E FFEC                move.w     D0, [A6 - 0x14]
000018D0  5240                     addq.w     D0, 1
000018D2  3F00                     move.w     -[A7], D0
000018D4  A893                     syscall    MoveTo
000018D6  2F2E FFF0                move.l     -[A7], [A6 - 0x10]
000018DA  A891                     syscall    LineTo
000018DC  302E FFEE                move.w     D0, [A6 - 0x12]
000018E0  5240                     addq.w     D0, 1
000018E2  3F00                     move.w     -[A7], D0
000018E4  3F2E FFF0                move.w     -[A7], [A6 - 0x10]
000018E8  A891                     syscall    LineTo
000018EA  3F2E FFEE                move.w     -[A7], [A6 - 0x12]
000018EE  302E FFEC                move.w     D0, [A6 - 0x14]
000018F2  D07C 000A                add.w      D0, 0xA /* '\n' */
000018F6  3F00                     move.w     -[A7], D0
000018F8  A893                     syscall    MoveTo
000018FA  3F2E FFF2                move.w     -[A7], [A6 - 0xE]
000018FE  302E FFEC                move.w     D0, [A6 - 0x14]
00001902  D07C 000A                add.w      D0, 0xA /* '\n' */
00001906  3F00                     move.w     -[A7], D0
00001908  A891                     syscall    LineTo
0000190A  3A3C 00AA                move.w     D5, 0xAA
0000190E  102E FFDF                move.b     D0, [A6 - 0x21]
00001912  0240 0001                andi.w     D0, 0x1
00001916  6702                     beq        +0x4 /* 0000191A */
00001918  7A55                     moveq.l    D5, 0x55
label0000191A:
0000191A  4247                     clr.w      D7
0000191C  6018                     bra        +0x1A /* 00001936 */
label0000191E:
0000191E  3007                     move.w     D0, D7
00001920  D06E FFDC                add.w      D0, [A6 - 0x24]
00001924  0240 0001                andi.w     D0, 0x1
00001928  6706                     beq        +0x8 /* 00001930 */
0000192A  1D85 70D0                move.b     [A6 + D7.w - 0x30], D5
0000192E  6004                     bra        +0x6 /* 00001934 */
label00001930:
00001930  4236 70D0                clr.b      [A6 + D7.w - 0x30]
label00001934:
00001934  5247                     addq.w     D7, 1
label00001936:
00001936  7007                     moveq.l    D0, 0x07
00001938  B047                     cmp.w      D0, D7
0000193A  6CE2                     bge        -0x1C /* 0000191E */
0000193C  486E FFDC                pea.l      [A6 - 0x24]
00001940  486E FFD0                pea.l      [A6 - 0x30]
00001944  A8A5                     syscall    FillRect
00001946  486E FFE4                pea.l      [A6 - 0x1C]
0000194A  2F3C FFFF FFFE           move.l     -[A7], 0xFFFFFFFE
00001950  A8A9                     syscall    InsetRect
00001952  486E FFE4                pea.l      [A6 - 0x1C]
00001956  A8A3                     syscall    EraseRect
00001958  486E FFE4                pea.l      [A6 - 0x1C]
0000195C  2F3C 0001 0002           move.l     -[A7], 0x10002
00001962  A8A9                     syscall    InsetRect
00001964  486E FFE4                pea.l      [A6 - 0x1C]
00001968  A8A1                     syscall    FrameRect
label0000196A:
0000196A  6000 00DC                bra        +0xDE /* 00001A48 */
label0000196E:
0000196E  2D44 FFD8                move.l     [A6 - 0x28], D4
00001972  4267                     clr.w      -[A7]
00001974  2F2E FFD8                move.l     -[A7], [A6 - 0x28]
00001978  2F2C 0076                move.l     -[A7], [A4 + 0x76]
0000197C  A8E8                     syscall    PtInRgn
0000197E  101F                     move.b     D0, [A7]+
00001980  6704                     beq        +0x6 /* 00001986 */
00001982  7C01                     moveq.l    D6, 0x01
00001984  6030                     bra        +0x32 /* 000019B6 */
label00001986:
00001986  4267                     clr.w      -[A7]
00001988  2F2E FFD8                move.l     -[A7], [A6 - 0x28]
0000198C  2F2C 0072                move.l     -[A7], [A4 + 0x72]
00001990  A8E8                     syscall    PtInRgn
00001992  101F                     move.b     D0, [A7]+
00001994  6720                     beq        +0x22 /* 000019B6 */
00001996  7C02                     moveq.l    D6, 0x02
00001998  302E FFD8                move.w     D0, [A6 - 0x28]
0000199C  B06E FFEC                cmp.w      D0, [A6 - 0x14]
000019A0  5DC0                     slt        D0
000019A2  322E FFEE                move.w     D1, [A6 - 0x12]
000019A6  D27C 0011                add.w      D1, 0x11
000019AA  B26E FFDA                cmp.w      D1, [A6 - 0x26]
000019AE  5EC1                     sgt        D1
000019B0  C001                     and.b      D0, D1
000019B2  6702                     beq        +0x4 /* 000019B6 */
000019B4  7C04                     moveq.l    D6, 0x04
label000019B6:
000019B6  6000 0090                bra        +0x92 /* 00001A48 */
label000019BA:
000019BA  2F2C 0076                move.l     -[A7], [A4 + 0x76]
000019BE  486E FFEC                pea.l      [A6 - 0x14]
000019C2  A8DF                     syscall    RectRgn
000019C4  A8DA                     syscall    OpenRgn
000019C6  302E FFEE                move.w     D0, [A6 - 0x12]
000019CA  5340                     subq.w     D0, 1
000019CC  3F00                     move.w     -[A7], D0
000019CE  302E FFEC                move.w     D0, [A6 - 0x14]
000019D2  907C 000B                sub.w      D0, 0xB
000019D6  3F00                     move.w     -[A7], D0
000019D8  A893                     syscall    MoveTo
000019DA  302E FFF2                move.w     D0, [A6 - 0xE]
000019DE  5240                     addq.w     D0, 1
000019E0  3F00                     move.w     -[A7], D0
000019E2  302E FFEC                move.w     D0, [A6 - 0x14]
000019E6  907C 000B                sub.w      D0, 0xB
000019EA  3F00                     move.w     -[A7], D0
000019EC  A891                     syscall    LineTo
000019EE  2F3C 0001 0000           move.l     -[A7], 0x10000
000019F4  A892                     syscall    Line
000019F6  2F3C 0000 0001           move.l     -[A7], 0x1
000019FC  A892                     syscall    Line
000019FE  302E FFF2                move.w     D0, [A6 - 0xE]
00001A02  5440                     addq.w     D0, 2
00001A04  3F00                     move.w     -[A7], D0
00001A06  302E FFF0                move.w     D0, [A6 - 0x10]
00001A0A  5440                     addq.w     D0, 2
00001A0C  3F00                     move.w     -[A7], D0
00001A0E  A891                     syscall    LineTo
00001A10  3F2E FFEE                move.w     -[A7], [A6 - 0x12]
00001A14  302E FFF0                move.w     D0, [A6 - 0x10]
00001A18  5440                     addq.w     D0, 2
00001A1A  3F00                     move.w     -[A7], D0
00001A1C  A891                     syscall    LineTo
00001A1E  2F3C FFFF 0000           move.l     -[A7], 0xFFFF0000
00001A24  A892                     syscall    Line
00001A26  2F3C 0000 FFFF           move.l     -[A7], 0xFFFF
00001A2C  A892                     syscall    Line
00001A2E  302E FFEE                move.w     D0, [A6 - 0x12]
00001A32  5340                     subq.w     D0, 1
00001A34  3F00                     move.w     -[A7], D0
00001A36  302E FFEC                move.w     D0, [A6 - 0x14]
00001A3A  907C 000B                sub.w      D0, 0xB
00001A3E  3F00                     move.w     -[A7], D0
00001A40  A891                     syscall    LineTo
00001A42  2F2C 0072                move.l     -[A7], [A4 + 0x72]
00001A46  A8DB                     syscall    CloseRgn
label00001A48:
00001A48  2D46 0014                move.l     [A6 + 0x14], D6
00001A4C  4CDF 10F0                movem.l    D4,D5,D6,D7,A4, [A7]+
00001A50  4E5E                     unlink     A6
00001A52  205F                     movea.l    A0, [A7]+
00001A54  DEFC 000C                add.w      A7, 0xC
00001A58  4ED0                     jmp        [A0]
export_1057:
fn00001A5A:
00001A5A  4E56 0000                link       A6, 0
00001A5E  302E 000A                move.w     D0, [A6 + 0xA]
00001A62  B06D E254                cmp.w      D0, [A5 - 0x1DAC]
00001A66  56C0                     sne        D0
00001A68  222E 000C                move.l     D1, [A6 + 0xC]
00001A6C  B2AD E24E                cmp.l      D1, [A5 - 0x1DB2]
00001A70  56C1                     sne        D1
00001A72  8001                     or.b       D0, D1
00001A74  222D F62A                move.l     D1, [A5 - 0x9D6]
00001A78  B2AD E24A                cmp.l      D1, [A5 - 0x1DB6]
00001A7C  56C1                     sne        D1
00001A7E  8001                     or.b       D0, D1
00001A80  6736                     beq        +0x38 /* 00001AB8 */
00001A82  1F3C 0001                move.b     -[A7], 0x1
00001A86  4EAD 1602                jsr        [A5 + 0x1602 /* export_700, CODE:15 @ 0000114C */]
00001A8A  2F2E 000C                move.l     -[A7], [A6 + 0xC]
00001A8E  3F2E 000A                move.w     -[A7], [A6 + 0xA]
00001A92  2F2D E246                move.l     -[A7], [A5 - 0x1DBA]
00001A96  4EAD 1712                jsr        [A5 + 0x1712 /* export_734, CODE:15 @ 00004714 */]
00001A9A  41ED E252                lea.l      A0, [A5 - 0x1DAE]
00001A9E  43ED E226                lea.l      A1, [A5 - 0x1DDA]
00001AA2  7006                     moveq.l    D0, 0x06
label00001AA4:
00001AA4  20D9                     move.l     [A0]+, [A1]+
00001AA6  51C8 FFFC                dbf        D0, -0x6 /* 00001AA4 */
00001AAA  3091                     move.w     [A0], [A1]
00001AAC  2B6E 000C E24E           move.l     [A5 - 0x1DB2], [A6 + 0xC]
00001AB2  2B6D F62A E24A           move.l     [A5 - 0x1DB6], [A5 - 0x9D6]
label00001AB8:
00001AB8  7000                     moveq.l    D0, 0x00
00001ABA  302D E260                move.w     D0, [A5 - 0x1DA0]
00001ABE  C0BC 0000 000F           and.l      D0, 0xF
00001AC4  7207                     moveq.l    D1, 0x07
00001AC6  B280                     cmp.l      D1, D0
00001AC8  57C0                     seq        D0
00001ACA  4400                     neg.b      D0
00001ACC  1B40 E209                move.b     [A5 - 0x1DF7], D0
00001AD0  487A F944                pea.l      [PC - 0x6BC /* 00001416, value 0x4E56FFF6 */]
00001AD4  2F2D E246                move.l     -[A7], [A5 - 0x1DBA]
00001AD8  4EAD 0482                jsr        [A5 + 0x482 /* export_140, CODE:1 @ 00004E44 */]
00001ADC  1F2D E209                move.b     -[A7], [A5 - 0x1DF7]
00001AE0  2F2D E246                move.l     -[A7], [A5 - 0x1DBA]
00001AE4  A813                     syscall    TEAutoView
00001AE6  102E 0008                move.b     D0, [A6 + 0x8]
00001AEA  6714                     beq        +0x16 /* 00001B00 */
00001AEC  3F2D E268                move.w     -[A7], [A5 - 0x1D98]
00001AF0  4EBA 2A24                jsr        [PC + 0x2A24 /* 00004516 */]
00001AF4  2F2D E246                move.l     -[A7], [A5 - 0x1DBA]
00001AF8  A9D8                     syscall    TEActivate
00001AFA  1B7C 0001 E245           move.b     [A5 - 0x1DBB], 0x1
label00001B00:
00001B00  4E5E                     unlink     A6
00001B02  205F                     movea.l    A0, [A7]+
00001B04  504F                     addq.w     A7, 8
00001B06  4ED0                     jmp        [A0]
fn00001B08:
00001B08  4E56 FDEA                link       A6, -0x0216
00001B0C  48E7 0108                movem.l    -[A7], D7,A4
00001B10  286E 0008                movea.l    A4, [A6 + 0x8]
00001B14  102E 000C                move.b     D0, [A6 + 0xC]
00001B18  670E                     beq        +0x10 /* 00001B28 */
00001B1A  4267                     clr.w      -[A7]
00001B1C  3F2C FEF8                move.w     -[A7], [A4 - 0x108]
00001B20  4EAD 02F2                jsr        [A5 + 0x2F2 /* export_90, CODE:1 @ 0000486A */]
00001B24  395F FEFE                move.w     [A4 - 0x102], [A7]+
label00001B28:
00001B28  70D4                     moveq.l    D0, 0xFFFFFFD4
00001B2A  B06C FEFA                cmp.w      D0, [A4 - 0x106]
00001B2E  57C0                     seq        D0
00001B30  72D3                     moveq.l    D1, 0xFFFFFFD3
00001B32  B26C FEFA                cmp.w      D1, [A4 - 0x106]
00001B36  57C1                     seq        D1
00001B38  8001                     or.b       D0, D1
00001B3A  72D2                     moveq.l    D1, 0xFFFFFFD2
00001B3C  B26C FEFA                cmp.w      D1, [A4 - 0x106]
00001B40  57C1                     seq        D1
00001B42  8001                     or.b       D0, D1
00001B44  72D1                     moveq.l    D1, 0xFFFFFFD1
00001B46  B26C FEFA                cmp.w      D1, [A4 - 0x106]
00001B4A  57C1                     seq        D1
00001B4C  8001                     or.b       D0, D1
00001B4E  72CF                     moveq.l    D1, 0xFFFFFFCF
00001B50  B26C FEFA                cmp.w      D1, [A4 - 0x106]
00001B54  57C1                     seq        D1
00001B56  8001                     or.b       D0, D1
00001B58  72CA                     moveq.l    D1, 0xFFFFFFCA
00001B5A  B26C FEFA                cmp.w      D1, [A4 - 0x106]
00001B5E  57C1                     seq        D1
00001B60  8001                     or.b       D0, D1
00001B62  72C3                     moveq.l    D1, 0xFFFFFFC3
00001B64  B26C FEFA                cmp.w      D1, [A4 - 0x106]
00001B68  57C1                     seq        D1
00001B6A  8001                     or.b       D0, D1
00001B6C  6708                     beq        +0xA /* 00001B76 */
00001B6E  7E1C                     moveq.l    D7, 0x1C
00001B70  422E FEFE                clr.b      [A6 - 0x102]
00001B74  6020                     bra        +0x22 /* 00001B96 */
label00001B76:
00001B76  7E1B                     moveq.l    D7, 0x1B
00001B78  486E FEEA                pea.l      [A6 - 0x116]
00001B7C  302C FEFA                move.w     D0, [A4 - 0x106]
00001B80  48C0                     ext.l      D0
00001B82  2F00                     move.l     -[A7], D0
00001B84  4EAD 1902                jsr        [A5 + 0x1902 /* export_796, CODE:16 @ 000009D4 */]
00001B88  205F                     movea.l    A0, [A7]+
00001B8A  43EE FEFE                lea.l      A1, [A6 - 0x102]
00001B8E  7004                     moveq.l    D0, 0x04
label00001B90:
00001B90  22D8                     move.l     [A1]+, [A0]+
00001B92  51C8 FFFC                dbf        D0, -0x6 /* 00001B90 */
label00001B96:
00001B96  486C FF00                pea.l      [A4 - 0x100]
00001B9A  486C FCAA                pea.l      [A4 - 0x356]
00001B9E  486C FF00                pea.l      [A4 - 0x100]
00001BA2  4EAD 1FDA                jsr        [A5 + 0x1FDA /* export_1015, CODE:19 @ 000021B0 */]
00001BA6  486C FF00                pea.l      [A4 - 0x100]
00001BAA  486E FDEA                pea.l      [A6 - 0x216]
00001BAE  3F07                     move.w     -[A7], D7
00001BB0  4EAD 1882                jsr        [A5 + 0x1882 /* export_780, CODE:16 @ 00000526 */]
00001BB4  486E FEFE                pea.l      [A6 - 0x102]
00001BB8  487A 0030                pea.l      [PC + 0x30 /* 00001BEA, value 0x4E56 'NV', cstring "" */]
00001BBC  A98B                     syscall    ParamText
00001BBE  3F3C 001A                move.w     -[A7], 0x1A
00001BC2  4EAD 187A                jsr        [A5 + 0x187A /* export_779, CODE:16 @ 00000500 */]
00001BC6  1B7C 0001 E300           move.b     [A5 - 0x1D00], 0x1
00001BCC  1B7C 0001 E2FF           move.b     [A5 - 0x1D01], 0x1
00001BD2  206E 0008                movea.l    A0, [A6 + 0x8]
00001BD6  2C48                     movea.l    A6, A0
00001BD8  4EFA 07D4                jmp        [PC + 0x7D4 /* 000023AE */]
00001BDC  0000 4CDF                ori.b      D0, 0xDF
00001BE0  1080                     move.b     [A0], D0
00001BE2  4E5E                     unlink     A6
00001BE4  205F                     movea.l    A0, [A7]+
00001BE6  5C4F                     addq.w     A7, 6
00001BE8  4ED0                     jmp        [A0]
00001BEA  0000 4E56                ori.b      D0, 0x56 /* 'V' */
// begin alternate branch 00001BEC-00001BF0
fn00001BEC:
00001BEC  4E56 FF00                link       A6, -0x0100
// end alternate branch 00001BEC-00001BF0
fn00001BEC: // (misaligned)
00001BEE  FF00                     .extension 0xF00 <<F/4-5/7>> // unimplemented
00001BF0  2F0C                     move.l     -[A7], A4
00001BF2  286E 0008                movea.l    A4, [A6 + 0x8]
00001BF6  422E 000C                clr.b      [A6 + 0xC]
00001BFA  197C 0003 FB51           move.b     [A4 - 0x4AF], 0x3
00001C00  486C FCAA                pea.l      [A4 - 0x356]
00001C04  486C FF00                pea.l      [A4 - 0x100]
00001C08  486E FF00                pea.l      [A6 - 0x100]
00001C0C  3F3C 0002                move.w     -[A7], 0x2
00001C10  4EAD 050A                jsr        [A5 + 0x50A /* export_157, CODE:1 @ 0000531E */]
00001C14  41EC FBAA                lea.l      A0, [A4 - 0x456]
00001C18  43EE FF00                lea.l      A1, [A6 - 0x100]
00001C1C  703F                     moveq.l    D0, 0x3F
label00001C1E:
00001C1E  20D9                     move.l     [A0]+, [A1]+
00001C20  51C8 FFFC                dbf        D0, -0x6 /* 00001C1E */
00001C24  4267                     clr.w      -[A7]
00001C26  486C FBAA                pea.l      [A4 - 0x456]
00001C2A  486D FC48                pea.l      [A5 - 0x3B8]
00001C2E  486D FD48                pea.l      [A5 - 0x2B8]
00001C32  486E FF00                pea.l      [A6 - 0x100]
00001C36  3F3C 0002                move.w     -[A7], 0x2
00001C3A  4EAD 050A                jsr        [A5 + 0x50A /* export_157, CODE:1 @ 0000531E */]
00001C3E  486E FF00                pea.l      [A6 - 0x100]
00001C42  4EAD 1AC2                jsr        [A5 + 0x1AC2 /* export_852, CODE:16 @ 00001B82 */]
00001C46  195F FBA9                move.b     [A4 - 0x457], [A7]+
00001C4A  102C FBA9                move.b     D0, [A4 - 0x457]
00001C4E  670A                     beq        +0xC /* 00001C5A */
00001C50  1D7C 0001 000C           move.b     [A6 + 0xC], 0x1
00001C56  6000 01BA                bra        +0x1BC /* 00001E12 */
label00001C5A:
00001C5A  486C FB52                pea.l      [A4 - 0x4AE]
00001C5E  7050                     moveq.l    D0, 0x50
00001C60  2F00                     move.l     -[A7], D0
00001C62  4EAD 1B42                jsr        [A5 + 0x1B42 /* export_868, CODE:16 @ 00001E7C */]
00001C66  41EC FBAA                lea.l      A0, [A4 - 0x456]
00001C6A  2948 FB64                move.l     [A4 - 0x49C], A0
00001C6E  196C FB51 FB6D           move.b     [A4 - 0x493], [A4 - 0x4AF]
00001C74  4267                     clr.w      -[A7]
00001C76  486C FB52                pea.l      [A4 - 0x4AE]
00001C7A  4267                     clr.w      -[A7]
00001C7C  4EAD 02AA                jsr        [A5 + 0x2AA /* export_81, CODE:1 @ 000047A2 */]
00001C80  395F FEFA                move.w     [A4 - 0x106], [A7]+
00001C84  396C FB6A FEF8           move.w     [A4 - 0x108], [A4 - 0x496]
00001C8A  70D5                     moveq.l    D0, 0xFFFFFFD5
00001C8C  B06C FEFA                cmp.w      D0, [A4 - 0x106]
00001C90  57C0                     seq        D0
00001C92  72DD                     moveq.l    D1, 0xFFFFFFDD
00001C94  B26C FEFA                cmp.w      D1, [A4 - 0x106]
00001C98  57C1                     seq        D1
00001C9A  8001                     or.b       D0, D1
00001C9C  7288                     moveq.l    D1, 0xFFFFFF88
00001C9E  B26C FEFA                cmp.w      D1, [A4 - 0x106]
00001CA2  57C1                     seq        D1
00001CA4  8001                     or.b       D0, D1
00001CA6  72CB                     moveq.l    D1, 0xFFFFFFCB
00001CA8  B26C FEFA                cmp.w      D1, [A4 - 0x106]
00001CAC  57C1                     seq        D1
00001CAE  8001                     or.b       D0, D1
00001CB0  6600 0160                bne        +0x162 /* 00001E12 */
00001CB4  4A6C FEFA                tst.w      [A4 - 0x106]
00001CB8  6600 00A8                bne        +0xAA /* 00001D62 */
00001CBC  486C FB12                pea.l      [A4 - 0x4EE]
00001CC0  703E                     moveq.l    D0, 0x3E
00001CC2  2F00                     move.l     -[A7], D0
00001CC4  4EAD 1B42                jsr        [A5 + 0x1B42 /* export_868, CODE:16 @ 00001E7C */]
00001CC8  396C FEF8 FB2A           move.w     [A4 - 0x4D6], [A4 - 0x108]
00001CCE  4267                     clr.w      -[A7]
00001CD0  486C FB12                pea.l      [A4 - 0x4EE]
00001CD4  4267                     clr.w      -[A7]
00001CD6  4EAD 0382                jsr        [A5 + 0x382 /* export_108, CODE:1 @ 00004B44 */]
00001CDA  4A5F                     tst.w      [A7]+
00001CDC  670C                     beq        +0xE /* 00001CEA */
00001CDE  1F3C 0001                move.b     -[A7], 0x1
00001CE2  2F2E 0008                move.l     -[A7], [A6 + 0x8]
00001CE6  4EBA FE20                jsr        [PC - 0x1E0 /* 00001B08 */]
label00001CEA:
00001CEA  7000                     moveq.l    D0, 0x00
00001CEC  302C FB36                move.w     D0, [A4 - 0x4CA]
00001CF0  C0BC 0000 0100           and.l      D0, 0x100
00001CF6  4A80                     tst.l      D0
00001CF8  6616                     bne        +0x18 /* 00001D10 */
00001CFA  4267                     clr.w      -[A7]
00001CFC  3F2C FEF8                move.w     -[A7], [A4 - 0x108]
00001D00  4EAD 02F2                jsr        [A5 + 0x2F2 /* export_90, CODE:1 @ 0000486A */]
00001D04  395F FEFE                move.w     [A4 - 0x102], [A7]+
00001D08  397C FFFF FEFA           move.w     [A4 - 0x106], 0xFFFF
00001D0E  6052                     bra        +0x54 /* 00001D62 */
label00001D10:
00001D10  486C FB52                pea.l      [A4 - 0x4AE]
00001D14  7050                     moveq.l    D0, 0x50
00001D16  2F00                     move.l     -[A7], D0
00001D18  4EAD 1B42                jsr        [A5 + 0x1B42 /* export_868, CODE:16 @ 00001E7C */]
00001D1C  396C FB46 FB68           move.w     [A4 - 0x498], [A4 - 0x4BA]
00001D22  4267                     clr.w      -[A7]
00001D24  486C FB52                pea.l      [A4 - 0x4AE]
00001D28  4267                     clr.w      -[A7]
00001D2A  4EAD 02CA                jsr        [A5 + 0x2CA /* export_85, CODE:1 @ 000047EA */]
00001D2E  4A5F                     tst.w      [A7]+
00001D30  670C                     beq        +0xE /* 00001D3E */
00001D32  1F3C 0001                move.b     -[A7], 0x1
00001D36  2F2E 0008                move.l     -[A7], [A6 + 0x8]
00001D3A  4EBA FDCC                jsr        [PC - 0x234 /* 00001B08 */]
label00001D3E:
00001D3E  7000                     moveq.l    D0, 0x00
00001D40  302C FB78                move.w     D0, [A4 - 0x488]
00001D44  C0BC FFFF 8080           and.l      D0, 0xFFFF8080
00001D4A  4A80                     tst.l      D0
00001D4C  6714                     beq        +0x16 /* 00001D62 */
00001D4E  4267                     clr.w      -[A7]
00001D50  3F2C FEF8                move.w     -[A7], [A4 - 0x108]
00001D54  4EAD 02F2                jsr        [A5 + 0x2F2 /* export_90, CODE:1 @ 0000486A */]
00001D58  395F FEFE                move.w     [A4 - 0x102], [A7]+
00001D5C  397C FFFF FEFA           move.w     [A4 - 0x106], 0xFFFF
label00001D62:
00001D62  4A6C FEFA                tst.w      [A4 - 0x106]
00001D66  6746                     beq        +0x48 /* 00001DAE */
00001D68  197C 0001 FB51           move.b     [A4 - 0x4AF], 0x1
00001D6E  486C FB52                pea.l      [A4 - 0x4AE]
00001D72  7050                     moveq.l    D0, 0x50
00001D74  2F00                     move.l     -[A7], D0
00001D76  4EAD 1B42                jsr        [A5 + 0x1B42 /* export_868, CODE:16 @ 00001E7C */]
00001D7A  41EC FBAA                lea.l      A0, [A4 - 0x456]
00001D7E  2948 FB64                move.l     [A4 - 0x49C], A0
00001D82  196C FB51 FB6D           move.b     [A4 - 0x493], [A4 - 0x4AF]
00001D88  4267                     clr.w      -[A7]
00001D8A  486C FB52                pea.l      [A4 - 0x4AE]
00001D8E  4267                     clr.w      -[A7]
00001D90  4EAD 02AA                jsr        [A5 + 0x2AA /* export_81, CODE:1 @ 000047A2 */]
00001D94  395F FEFA                move.w     [A4 - 0x106], [A7]+
00001D98  396C FB6A FEF8           move.w     [A4 - 0x108], [A4 - 0x496]
00001D9E  4A6C FEFA                tst.w      [A4 - 0x106]
00001DA2  670A                     beq        +0xC /* 00001DAE */
00001DA4  4267                     clr.w      -[A7]
00001DA6  2F2E 0008                move.l     -[A7], [A6 + 0x8]
00001DAA  4EBA FD5C                jsr        [PC - 0x2A4 /* 00001B08 */]
label00001DAE:
00001DAE  486C FB52                pea.l      [A4 - 0x4AE]
00001DB2  7050                     moveq.l    D0, 0x50
00001DB4  2F00                     move.l     -[A7], D0
00001DB6  4EAD 1B42                jsr        [A5 + 0x1B42 /* export_868, CODE:16 @ 00001E7C */]
00001DBA  41EC FBAA                lea.l      A0, [A4 - 0x456]
00001DBE  2948 FB64                move.l     [A4 - 0x49C], A0
00001DC2  4267                     clr.w      -[A7]
00001DC4  486C FB52                pea.l      [A4 - 0x4AE]
00001DC8  4267                     clr.w      -[A7]
00001DCA  4EAD 02DA                jsr        [A5 + 0x2DA /* export_87, CODE:1 @ 0000480E */]
00001DCE  395F FEFA                move.w     [A4 - 0x106], [A7]+
00001DD2  4A6C FEFA                tst.w      [A4 - 0x106]
00001DD6  670C                     beq        +0xE /* 00001DE4 */
00001DD8  1F3C 0001                move.b     -[A7], 0x1
00001DDC  2F2E 0008                move.l     -[A7], [A6 + 0x8]
00001DE0  4EBA FD26                jsr        [PC - 0x2DA /* 00001B08 */]
label00001DE4:
00001DE4  2B6C FB9E F62E           move.l     [A5 - 0x9D2], [A4 - 0x462]
00001DEA  41EC FB72                lea.l      A0, [A4 - 0x48E]
00001DEE  43FA 002A                lea.l      A1, [PC + 0x2A /* 00001E1A, value 0x5354414B 'STAK' */]
00001DF2  7003                     moveq.l    D0, 0x03
label00001DF4:
00001DF4  B109                     cmpm.b     [A0]+, [A1]+
00001DF6  56C8 FFFC                dbne       D0, -0x6 /* 00001DF4 */
00001DFA  6608                     bne        +0xA /* 00001E04 */
00001DFC  1D7C 0001 000C           move.b     [A6 + 0xC], 0x1
00001E02  600E                     bra        +0x10 /* 00001E12 */
label00001E04:
00001E04  4267                     clr.w      -[A7]
00001E06  3F2C FEF8                move.w     -[A7], [A4 - 0x108]
00001E0A  4EAD 02F2                jsr        [A5 + 0x2F2 /* export_90, CODE:1 @ 0000486A */]
00001E0E  395F FEFE                move.w     [A4 - 0x102], [A7]+
label00001E12:
00001E12  285F                     movea.l    A4, [A7]+
00001E14  4E5E                     unlink     A6
00001E16  2E9F                     move.l     [A7], [A7]+
00001E18  4E75                     rts
00001E1A  5354                     subq.w     [A4], 1
00001E1C  414B                     chk.w      D0, A3
export_1058:
fn00001E1E:
00001E1E  4E56 F304                link       A6, -0x0CFC
00001E22  48E7 1F38                movem.l    -[A7], D3,D4,D5,D6,D7,A2,A3,A4
00001E26  206E 0008                movea.l    A0, [A6 + 0x8]
00001E2A  43EE FF00                lea.l      A1, [A6 - 0x100]
00001E2E  703F                     moveq.l    D0, 0x3F
label00001E30:
00001E30  22D8                     move.l     [A1]+, [A0]+
00001E32  51C8 FFFC                dbf        D0, -0x6 /* 00001E30 */
00001E36  422E 000C                clr.b      [A6 + 0xC]
00001E3A  422D E2FF                clr.b      [A5 - 0x1D01]
00001E3E  422D E2FE                clr.b      [A5 - 0x1D02]
00001E42  422D E300                clr.b      [A5 - 0x1D00]
00001E46  1D7C 0003 FB51           move.b     [A6 - 0x4AF], 0x3
00001E4C  7000                     moveq.l    D0, 0x00
00001E4E  2D40 FDAE                move.l     [A6 - 0x252], D0
00001E52  4267                     clr.w      -[A7]
00001E54  486E FF00                pea.l      [A6 - 0x100]
00001E58  4EBA 1B1E                jsr        [PC + 0x1B1E /* 00003978 */]
00001E5C  101F                     move.b     D0, [A7]+
00001E5E  6600 0548                bne        +0x54A /* 000023A8 */
00001E62  4267                     clr.w      -[A7]
00001E64  486E FF00                pea.l      [A6 - 0x100]
00001E68  486D F5FE                pea.l      [A5 - 0xA02]
00001E6C  4EAD 1AC2                jsr        [A5 + 0x1AC2 /* export_852, CODE:16 @ 00001B82 */]
00001E70  101F                     move.b     D0, [A7]+
00001E72  6732                     beq        +0x34 /* 00001EA6 */
00001E74  41EE FCAA                lea.l      A0, [A6 - 0x356]
00001E78  43ED F4FE                lea.l      A1, [A5 - 0xB02]
00001E7C  703F                     moveq.l    D0, 0x3F
label00001E7E:
00001E7E  20D9                     move.l     [A0]+, [A1]+
00001E80  51C8 FFFC                dbf        D0, -0x6 /* 00001E7E */
00001E84  41EE FF00                lea.l      A0, [A6 - 0x100]
00001E88  43ED F5FE                lea.l      A1, [A5 - 0xA02]
00001E8C  7007                     moveq.l    D0, 0x07
label00001E8E:
00001E8E  20D9                     move.l     [A0]+, [A1]+
00001E90  51C8 FFFC                dbf        D0, -0x6 /* 00001E8E */
00001E94  4267                     clr.w      -[A7]
00001E96  2F0E                     move.l     -[A7], A6
00001E98  4EBA FD52                jsr        [PC - 0x2AE /* 00001BEC */]
00001E9C  101F                     move.b     D0, [A7]+
00001E9E  6600 00D6                bne        +0xD8 /* 00001F76 */
00001EA2  6000 050A                bra        +0x50C /* 000023AE */
label00001EA6:
00001EA6  422E FCAA                clr.b      [A6 - 0x356]
00001EAA  4267                     clr.w      -[A7]
00001EAC  2F0E                     move.l     -[A7], A6
00001EAE  4EBA FD3C                jsr        [PC - 0x2C4 /* 00001BEC */]
00001EB2  101F                     move.b     D0, [A7]+
00001EB4  6600 00C0                bne        +0xC2 /* 00001F76 */
00001EB8  41EE FCAA                lea.l      A0, [A6 - 0x356]
00001EBC  43ED FC48                lea.l      A1, [A5 - 0x3B8]
00001EC0  703F                     moveq.l    D0, 0x3F
label00001EC2:
00001EC2  20D9                     move.l     [A0]+, [A1]+
00001EC4  51C8 FFFC                dbf        D0, -0x6 /* 00001EC2 */
00001EC8  4267                     clr.w      -[A7]
00001ECA  2F0E                     move.l     -[A7], A6
00001ECC  4EBA FD1E                jsr        [PC - 0x2E2 /* 00001BEC */]
00001ED0  101F                     move.b     D0, [A7]+
00001ED2  6600 00A2                bne        +0xA4 /* 00001F76 */
00001ED6  42A7                     clr.l      -[A7]
00001ED8  487A 0500                pea.l      [PC + 0x500 /* 000023DA, value 0x6737461, pstring "stacks" */]
00001EDC  4EAD 0A0A                jsr        [A5 + 0xA0A /* export_317, CODE:8 @ 0000139A */]
00001EE0  2D5F FDAE                move.l     [A6 - 0x252], [A7]+
00001EE4  2F2E FDAE                move.l     -[A7], [A6 - 0x252]
00001EE8  4EAD 0222                jsr        [A5 + 0x222 /* export_64, CODE:1 @ 00004678 */]
00001EEC  206E FDAE                movea.l    A0, [A6 - 0x252]
00001EF0  2D50 FDAA                move.l     [A6 - 0x256], [A0]
label00001EF4:
00001EF4  486E FDAA                pea.l      [A6 - 0x256]
00001EF8  486E FCAA                pea.l      [A6 - 0x356]
00001EFC  4EAD 189A                jsr        [A5 + 0x189A /* export_783, CODE:16 @ 000005D6 */]
00001F00  4267                     clr.w      -[A7]
00001F02  2F0E                     move.l     -[A7], A6
00001F04  4EBA FCE6                jsr        [PC - 0x31A /* 00001BEC */]
00001F08  101F                     move.b     D0, [A7]+
00001F0A  666A                     bne        +0x6C /* 00001F76 */
00001F0C  4240                     clr.w      D0
00001F0E  102E FCAA                move.b     D0, [A6 - 0x356]
00001F12  4A40                     tst.w      D0
00001F14  66DE                     bne        -0x20 /* 00001EF4 */
00001F16  102D E2FD                move.b     D0, [A5 - 0x1D03]
00001F1A  6600 0492                bne        +0x494 /* 000023AE */
00001F1E  486E F304                pea.l      [A6 - 0xCFC]
00001F22  2F3A 04B2                move.l     -[A7], [PC + 0x4B2 /* 000023D6, value 0x5354414B 'STAK' */]
00001F26  486E FF00                pea.l      [A6 - 0x100]
00001F2A  4EBA 456A                jsr        [PC + 0x456A /* 00006496 */]
00001F2E  205F                     movea.l    A0, [A7]+
00001F30  43EE FBAA                lea.l      A1, [A6 - 0x456]
00001F34  703F                     moveq.l    D0, 0x3F
label00001F36:
00001F36  22D8                     move.l     [A1]+, [A0]+
00001F38  51C8 FFFC                dbf        D0, -0x6 /* 00001F36 */
00001F3C  4240                     clr.w      D0
00001F3E  102E FBAA                move.b     D0, [A6 - 0x456]
00001F42  4A40                     tst.w      D0
00001F44  660A                     bne        +0xC /* 00001F50 */
00001F46  1B7C 0001 E2FF           move.b     [A5 - 0x1D01], 0x1
00001F4C  6000 0460                bra        +0x462 /* 000023AE */
label00001F50:
00001F50  486E FBAA                pea.l      [A6 - 0x456]
00001F54  486E FCAA                pea.l      [A6 - 0x356]
00001F58  486E FF00                pea.l      [A6 - 0x100]
00001F5C  4EAD 1FDA                jsr        [A5 + 0x1FDA /* export_1015, CODE:19 @ 000021B0 */]
00001F60  4267                     clr.w      -[A7]
00001F62  2F0E                     move.l     -[A7], A6
00001F64  4EBA FC86                jsr        [PC - 0x37A /* 00001BEC */]
00001F68  101F                     move.b     D0, [A7]+
00001F6A  660A                     bne        +0xC /* 00001F76 */
00001F6C  1B7C 0001 E2FE           move.b     [A5 - 0x1D02], 0x1
00001F72  6000 043A                bra        +0x43C /* 000023AE */
label00001F76:
00001F76  102E FBA9                move.b     D0, [A6 - 0x457]
00001F7A  6600 042C                bne        +0x42E /* 000023A8 */
00001F7E  486D F8FC                pea.l      [A5 - 0x704]
00001F82  486E FDB2                pea.l      [A6 - 0x24E]
00001F86  7050                     moveq.l    D0, 0x50
00001F88  2F00                     move.l     -[A7], D0
00001F8A  4EAD 19BA                jsr        [A5 + 0x19BA /* export_819, CODE:16 @ 000010F8 */]
00001F8E  4267                     clr.w      -[A7]
00001F90  4EAD 1542                jsr        [A5 + 0x1542 /* export_676, CODE:15 @ 00000000 */]
00001F94  4EAD 173A                jsr        [A5 + 0x173A /* export_739, CODE:15 @ 00004FD6 */]
00001F98  4EAD 1ED2                jsr        [A5 + 0x1ED2 /* export_982, CODE:19 @ 00000172 */]
00001F9C  4AAD F4D0                tst.l      [A5 - 0xB30]
00001FA0  670A                     beq        +0xC /* 00001FAC */
00001FA2  2F3C 0000 4BAE           move.l     -[A7], 0x4BAE
00001FA8  4EAD 185A                jsr        [A5 + 0x185A /* export_775, CODE:16 @ 0000042E */]
label00001FAC:
00001FAC  4267                     clr.w      -[A7]
00001FAE  486E FBAA                pea.l      [A6 - 0x456]
00001FB2  4267                     clr.w      -[A7]
00001FB4  1F2E FB51                move.b     -[A7], [A6 - 0x4AF]
00001FB8  A9C4                     syscall    OpenRFPerm
00001FBA  3D5F FEF6                move.w     [A6 - 0x10A], [A7]+
00001FBE  4267                     clr.w      -[A7]
00001FC0  A9AF                     syscall    ResError
00001FC2  3D5F FEFA                move.w     [A6 - 0x106], [A7]+
00001FC6  4A6E FEFA                tst.w      [A6 - 0x106]
00001FCA  56C0                     sne        D0
00001FCC  72D9                     moveq.l    D1, 0xFFFFFFD9
00001FCE  B26E FEFA                cmp.w      D1, [A6 - 0x106]
00001FD2  56C1                     sne        D1
00001FD4  C001                     and.b      D0, D1
00001FD6  670A                     beq        +0xC /* 00001FE2 */
00001FD8  1F3C 0001                move.b     -[A7], 0x1
00001FDC  2F0E                     move.l     -[A7], A6
00001FDE  4EBA FB28                jsr        [PC - 0x4D8 /* 00001B08 */]
label00001FE2:
00001FE2  4267                     clr.w      -[A7]
00001FE4  3F2E FEF8                move.w     -[A7], [A6 - 0x108]
00001FE8  486E F512                pea.l      [A6 - 0xAEE]
00001FEC  4EAD 1F5A                jsr        [A5 + 0x1F5A /* export_999, CODE:19 @ 00001452 */]
00001FF0  101F                     move.b     D0, [A7]+
00001FF2  661A                     bne        +0x1C /* 0000200E */
00001FF4  4267                     clr.w      -[A7]
00001FF6  3F2E FEF8                move.w     -[A7], [A6 - 0x108]
00001FFA  4EAD 02F2                jsr        [A5 + 0x2F2 /* export_90, CODE:1 @ 0000486A */]
00001FFE  3D5F FEFE                move.w     [A6 - 0x102], [A7]+
00002002  3F2E FEF6                move.w     -[A7], [A6 - 0x10A]
00002006  4EAD 18CA                jsr        [A5 + 0x18CA /* export_789, CODE:16 @ 00000806 */]
0000200A  6000 03A2                bra        +0x3A4 /* 000023AE */
label0000200E:
0000200E  4EAD 1F12                jsr        [A5 + 0x1F12 /* export_990, CODE:19 @ 000005A4 */]
00002012  4267                     clr.w      -[A7]
00002014  3F2E FEF8                move.w     -[A7], [A6 - 0x108]
00002018  4EAD 1732                jsr        [A5 + 0x1732 /* export_738, CODE:15 @ 00004EC8 */]
0000201C  101F                     move.b     D0, [A7]+
0000201E  6600 00F6                bne        +0xF8 /* 00002116 */
00002022  4267                     clr.w      -[A7]
00002024  3F2E FEF8                move.w     -[A7], [A6 - 0x108]
00002028  4EAD 02F2                jsr        [A5 + 0x2F2 /* export_90, CODE:1 @ 0000486A */]
0000202C  3D5F FEFE                move.w     [A6 - 0x102], [A7]+
00002030  3F2E FEF6                move.w     -[A7], [A6 - 0x10A]
00002034  4EAD 18CA                jsr        [A5 + 0x18CA /* export_789, CODE:16 @ 00000806 */]
00002038  4A6D FD68                tst.w      [A5 - 0x298]
0000203C  6700 0370                beq        +0x372 /* 000023AE */
00002040  1D7C 0003 FB51           move.b     [A6 - 0x4AF], 0x3
00002046  102D F4CE                move.b     D0, [A5 - 0xB32]
0000204A  6706                     beq        +0x8 /* 00002052 */
0000204C  1D7C 0001 FB51           move.b     [A6 - 0x4AF], 0x1
label00002052:
00002052  486D FC48                pea.l      [A5 - 0x3B8]
00002056  486D FD48                pea.l      [A5 - 0x2B8]
0000205A  486E F404                pea.l      [A6 - 0xBFC]
0000205E  3F3C 0002                move.w     -[A7], 0x2
00002062  4EAD 050A                jsr        [A5 + 0x50A /* export_157, CODE:1 @ 0000531E */]
00002066  41EE FBAA                lea.l      A0, [A6 - 0x456]
0000206A  43EE F404                lea.l      A1, [A6 - 0xBFC]
0000206E  703F                     moveq.l    D0, 0x3F
label00002070:
00002070  20D9                     move.l     [A0]+, [A1]+
00002072  51C8 FFFC                dbf        D0, -0x6 /* 00002070 */
00002076  486E FB52                pea.l      [A6 - 0x4AE]
0000207A  7050                     moveq.l    D0, 0x50
0000207C  2F00                     move.l     -[A7], D0
0000207E  4EAD 1B42                jsr        [A5 + 0x1B42 /* export_868, CODE:16 @ 00001E7C */]
00002082  41EE FBAA                lea.l      A0, [A6 - 0x456]
00002086  2D48 FB64                move.l     [A6 - 0x49C], A0
0000208A  1D6E FB51 FB6D           move.b     [A6 - 0x493], [A6 - 0x4AF]
00002090  4267                     clr.w      -[A7]
00002092  486E FB52                pea.l      [A6 - 0x4AE]
00002096  4267                     clr.w      -[A7]
00002098  4EAD 02AA                jsr        [A5 + 0x2AA /* export_81, CODE:1 @ 000047A2 */]
0000209C  4A5F                     tst.w      [A7]+
0000209E  670A                     beq        +0xC /* 000020AA */
000020A0  2F3C 0000 7E41           move.l     -[A7], 0x7E41 /* '~A' */
000020A6  4EAD 185A                jsr        [A5 + 0x185A /* export_775, CODE:16 @ 0000042E */]
label000020AA:
000020AA  3B6E FB6A FD68           move.w     [A5 - 0x298], [A6 - 0x496]
000020B0  4267                     clr.w      -[A7]
000020B2  486E FBAA                pea.l      [A6 - 0x456]
000020B6  4267                     clr.w      -[A7]
000020B8  1F2E FB51                move.b     -[A7], [A6 - 0x4AF]
000020BC  A9C4                     syscall    OpenRFPerm
000020BE  3B5F FC42                move.w     [A5 - 0x3BE], [A7]+
000020C2  486E FB52                pea.l      [A6 - 0x4AE]
000020C6  7050                     moveq.l    D0, 0x50
000020C8  2F00                     move.l     -[A7], D0
000020CA  4EAD 1B42                jsr        [A5 + 0x1B42 /* export_868, CODE:16 @ 00001E7C */]
000020CE  41EE FBAA                lea.l      A0, [A6 - 0x456]
000020D2  2D48 FB64                move.l     [A6 - 0x49C], A0
000020D6  4267                     clr.w      -[A7]
000020D8  486E FB52                pea.l      [A6 - 0x4AE]
000020DC  4267                     clr.w      -[A7]
000020DE  4EAD 02DA                jsr        [A5 + 0x2DA /* export_87, CODE:1 @ 0000480E */]
000020E2  4A5F                     tst.w      [A7]+
000020E4  670A                     beq        +0xC /* 000020F0 */
000020E6  2F3C 0000 7E45           move.l     -[A7], 0x7E45 /* '~E' */
000020EC  4EAD 185A                jsr        [A5 + 0x185A /* export_775, CODE:16 @ 0000042E */]
label000020F0:
000020F0  2B6E FB9E F62E           move.l     [A5 - 0x9D2], [A6 - 0x462]
000020F6  4267                     clr.w      -[A7]
000020F8  3F2D FD68                move.w     -[A7], [A5 - 0x298]
000020FC  486E F512                pea.l      [A6 - 0xAEE]
00002100  4EAD 1F5A                jsr        [A5 + 0x1F5A /* export_999, CODE:19 @ 00001452 */]
00002104  101F                     move.b     D0, [A7]+
00002106  660A                     bne        +0xC /* 00002112 */
00002108  2F3C 0000 7E47           move.l     -[A7], 0x7E47 /* '~G' */
0000210E  4EAD 185A                jsr        [A5 + 0x185A /* export_775, CODE:16 @ 0000042E */]
label00002112:
00002112  6000 029A                bra        +0x29C /* 000023AE */
label00002116:
00002116  41ED F63C                lea.l      A0, [A5 - 0x9C4]
0000211A  43EE F512                lea.l      A1, [A6 - 0xAEE]
0000211E  303C 017F                move.w     D0, 0x17F
label00002122:
00002122  20D9                     move.l     [A0]+, [A1]+
00002124  51C8 FFFC                dbf        D0, -0x6 /* 00002122 */
00002128  4AAD F636                tst.l      [A5 - 0x9CA]
0000212C  6708                     beq        +0xA /* 00002136 */
0000212E  2F2D F636                move.l     -[A7], [A5 - 0x9CA]
00002132  4EAD 18D2                jsr        [A5 + 0x18D2 /* export_790, CODE:16 @ 0000083E */]
label00002136:
00002136  202D F63C                move.l     D0, [A5 - 0x9C4]
0000213A  90BC 0000 0600           sub.l      D0, 0x600
00002140  2D40 F50E                move.l     [A6 - 0xAF2], D0
00002144  42A7                     clr.l      -[A7]
00002146  2F2E F50E                move.l     -[A7], [A6 - 0xAF2]
0000214A  4EAD 18DA                jsr        [A5 + 0x18DA /* export_791, CODE:16 @ 00000896 */]
0000214E  2B5F F636                move.l     [A5 - 0x9CA], [A7]+
00002152  675E                     beq        +0x60 /* 000021B2 */
00002154  2D7C 0000 0600 F50A      move.l     [A6 - 0xAF6], 0x600
0000215C  2F2D F636                move.l     -[A7], [A5 - 0x9CA]
00002160  4EAD 0222                jsr        [A5 + 0x222 /* export_64, CODE:1 @ 00004678 */]
00002164  4267                     clr.w      -[A7]
00002166  3F2E FEF8                move.w     -[A7], [A6 - 0x108]
0000216A  486E F50A                pea.l      [A6 - 0xAF6]
0000216E  2F2E F50E                move.l     -[A7], [A6 - 0xAF2]
00002172  206D F636                movea.l    A0, [A5 - 0x9CA]
00002176  2F10                     move.l     -[A7], [A0]
00002178  4EAD 1B32                jsr        [A5 + 0x1B32 /* export_866, CODE:16 @ 00001E20 */]
0000217C  3D5F FEFE                move.w     [A6 - 0x102], [A7]+
00002180  2F2D F636                move.l     -[A7], [A5 - 0x9CA]
00002184  4EAD 022A                jsr        [A5 + 0x22A /* export_65, CODE:1 @ 00004682 */]
00002188  4A6E FEFE                tst.w      [A6 - 0x102]
0000218C  670A                     beq        +0xC /* 00002198 */
0000218E  2F3C 04E8 C9B9           move.l     -[A7], 0x4E8C9B9
00002194  4EAD 185A                jsr        [A5 + 0x185A /* export_775, CODE:16 @ 0000042E */]
label00002198:
00002198  2F2D F636                move.l     -[A7], [A5 - 0x9CA]
0000219C  42A7                     clr.l      -[A7]
0000219E  206D F636                movea.l    A0, [A5 - 0x9CA]
000021A2  2F10                     move.l     -[A7], [A0]
000021A4  4EAD 1ADA                jsr        [A5 + 0x1ADA /* export_855, CODE:16 @ 00001C66 */]
000021A8  201F                     move.l     D0, [A7]+
000021AA  5280                     addq.l     D0, 1
000021AC  2F00                     move.l     -[A7], D0
000021AE  4EAD 020A                jsr        [A5 + 0x20A /* export_61, CODE:1 @ 00004654 */]
label000021B2:
000021B2  3B6E FEF6 FC42           move.w     [A5 - 0x3BE], [A6 - 0x10A]
000021B8  486D FC48                pea.l      [A5 - 0x3B8]
000021BC  486D FD48                pea.l      [A5 - 0x2B8]
000021C0  486E F404                pea.l      [A6 - 0xBFC]
000021C4  3F3C 0002                move.w     -[A7], 0x2
000021C8  4EAD 050A                jsr        [A5 + 0x50A /* export_157, CODE:1 @ 0000531E */]
000021CC  41EE FBAA                lea.l      A0, [A6 - 0x456]
000021D0  43EE F404                lea.l      A1, [A6 - 0xBFC]
000021D4  703F                     moveq.l    D0, 0x3F
label000021D6:
000021D6  20D9                     move.l     [A0]+, [A1]+
000021D8  51C8 FFFC                dbf        D0, -0x6 /* 000021D6 */
000021DC  42A7                     clr.l      -[A7]
000021DE  486E FBAA                pea.l      [A6 - 0x456]
000021E2  4EAD 1FE2                jsr        [A5 + 0x1FE2 /* export_1016, CODE:19 @ 0000227C */]
000021E6  2B5F F4E0                move.l     [A5 - 0xB20], [A7]+
000021EA  2F2D F62E                move.l     -[A7], [A5 - 0x9D2]
000021EE  4EAD 1FD2                jsr        [A5 + 0x1FD2 /* export_1014, CODE:19 @ 00002108 */]
000021F2  7001                     moveq.l    D0, 0x01
000021F4  B02E FB51                cmp.b      D0, [A6 - 0x4AF]
000021F8  57C0                     seq        D0
000021FA  4400                     neg.b      D0
000021FC  1B40 F4CE                move.b     [A5 - 0xB32], D0
00002200  1D6D F4CD FB50           move.b     [A6 - 0x4B0], [A5 - 0xB33]
00002206  082D 0007 F688           btst.b     [A5 - 0x978], 0x7
0000220C  56C0                     sne        D0
0000220E  802D F4CE                or.b       D0, [A5 - 0xB32]
00002212  0240 0001                andi.w     D0, 0x1
00002216  1B40 F4CD                move.b     [A5 - 0xB33], D0
0000221A  B02E FB50                cmp.b      D0, [A6 - 0x4B0]
0000221E  6704                     beq        +0x6 /* 00002224 */
00002220  4EBA 170E                jsr        [PC + 0x170E /* 00003930 */]
label00002224:
00002224  42A7                     clr.l      -[A7]
00002226  2F2D F670                move.l     -[A7], [A5 - 0x990]
0000222A  4EAD 1F82                jsr        [A5 + 0x1F82 /* export_1004, CODE:19 @ 00001770 */]
0000222E  2D5F F506                move.l     [A6 - 0xAFA], [A7]+
00002232  660A                     bne        +0xC /* 0000223E */
00002234  2F3C 0005 4561           move.l     -[A7], 0x54561
0000223A  4EAD 185A                jsr        [A5 + 0x185A /* export_775, CODE:16 @ 0000042E */]
label0000223E:
0000223E  206E F506                movea.l    A0, [A6 - 0xAFA]
00002242  2050                     movea.l    A0, [A0]
00002244  2F08                     move.l     -[A7], A0
00002246  42A7                     clr.l      -[A7]
00002248  2F2E F506                move.l     -[A7], [A6 - 0xAFA]
0000224C  4EAD 19A2                jsr        [A5 + 0x19A2 /* export_816, CODE:16 @ 00001074 */]
00002250  201F                     move.l     D0, [A7]+
00002252  205F                     movea.l    A0, [A7]+
00002254  B0A8 0020                cmp.l      D0, [A0 + 0x20]
00002258  56C0                     sne        D0
0000225A  4400                     neg.b      D0
0000225C  1D40 F505                move.b     [A6 - 0xAFB], D0
00002260  082D 0004 F688           btst.b     [A5 - 0x978], 0x4
00002266  56C0                     sne        D0
00002268  C02E F505                and.b      D0, [A6 - 0xAFB]
0000226C  670C                     beq        +0xE /* 0000227A */
0000226E  08AD 0004 F688           bclr.b     [A5 - 0x978], 0x4
00002274  1B7C 0001 F63B           move.b     [A5 - 0x9C5], 0x1
label0000227A:
0000227A  206E F506                movea.l    A0, [A6 - 0xAFA]
0000227E  2050                     movea.l    A0, [A0]
00002280  226E F506                movea.l    A1, [A6 - 0xAFA]
00002284  2251                     movea.l    A1, [A1]
00002286  2028 0024                move.l     D0, [A0 + 0x24]
0000228A  B0A9 0014                cmp.l      D0, [A1 + 0x14]
0000228E  56C0                     sne        D0
00002290  802E F505                or.b       D0, [A6 - 0xAFB]
00002294  0240 0001                andi.w     D0, 0x1
00002298  6712                     beq        +0x14 /* 000022AC */
0000229A  4AAD F6A4                tst.l      [A5 - 0x95C]
0000229E  670C                     beq        +0xE /* 000022AC */
000022A0  7000                     moveq.l    D0, 0x00
000022A2  2B40 F6A4                move.l     [A5 - 0x95C], D0
000022A6  1B7C 0001 F63B           move.b     [A5 - 0x9C5], 0x1
label000022AC:
000022AC  2F2D F670                move.l     -[A7], [A5 - 0x990]
000022B0  4267                     clr.w      -[A7]
000022B2  4EAD 1EFA                jsr        [A5 + 0x1EFA /* export_987, CODE:19 @ 0000046E */]
000022B6  70FF                     moveq.l    D0, 0xFFFFFFFF
000022B8  B06E FEF6                cmp.w      D0, [A6 - 0x10A]
000022BC  660E                     bne        +0x10 /* 000022CC */
000022BE  426D FC40                clr.w      [A5 - 0x3C0]
000022C2  426D FC3E                clr.w      [A5 - 0x3C2]
000022C6  426D FC3C                clr.w      [A5 - 0x3C4]
000022CA  6038                     bra        +0x3A /* 00002304 */
label000022CC:
000022CC  4267                     clr.w      -[A7]
000022CE  A994                     syscall    CurResFile
000022D0  3D5F FBA6                move.w     [A6 - 0x45A], [A7]+
000022D4  3F2E FEF6                move.w     -[A7], [A6 - 0x10A]
000022D8  A998                     syscall    UseResFile
000022DA  4267                     clr.w      -[A7]
000022DC  2F3A 00F4                move.l     -[A7], [PC + 0xF4 /* 000023D2, value 0x58434D44 'XCMD' */]
000022E0  A80D                     syscall    Count1Resources
000022E2  3B5F FC40                move.w     [A5 - 0x3C0], [A7]+
000022E6  4267                     clr.w      -[A7]
000022E8  2F3A 00E4                move.l     -[A7], [PC + 0xE4 /* 000023CE, value 0x5846434E 'XFCN' */]
000022EC  A80D                     syscall    Count1Resources
000022EE  3B5F FC3E                move.w     [A5 - 0x3C2], [A7]+
000022F2  4267                     clr.w      -[A7]
000022F4  2F3A 00D4                move.l     -[A7], [PC + 0xD4 /* 000023CA, value 0x464F4E54 'FONT' */]
000022F8  A80D                     syscall    Count1Resources
000022FA  3B5F FC3C                move.w     [A5 - 0x3C4], [A7]+
000022FE  3F2E FBA6                move.w     -[A7], [A6 - 0x45A]
00002302  A998                     syscall    UseResFile
label00002304:
00002304  202D F4E0                move.l     D0, [A5 - 0xB20]
00002308  B0AD F4F0                cmp.l      D0, [A5 - 0xB10]
0000230C  6612                     bne        +0x14 /* 00002320 */
0000230E  3B6D FC42 F4F8           move.w     [A5 - 0xB08], [A5 - 0x3BE]
00002314  3B6D FC40 F4EE           move.w     [A5 - 0xB12], [A5 - 0x3C0]
0000231A  3B6D FC3E F4EC           move.w     [A5 - 0xB14], [A5 - 0x3C2]
label00002320:
00002320  4A6D FD8A                tst.w      [A5 - 0x276]
00002324  6D0A                     blt        +0xC /* 00002330 */
00002326  2F2D EDC8                move.l     -[A7], [A5 - 0x1238]
0000232A  486E FBAA                pea.l      [A6 - 0x456]
0000232E  A91A                     syscall    SetWTitle
label00002330:
00002330  4267                     clr.w      -[A7]
00002332  486D F8FC                pea.l      [A5 - 0x704]
00002336  486E FDB2                pea.l      [A6 - 0x24E]
0000233A  3F3C 0050                move.w     -[A7], 0x50 /* 'P' */
0000233E  4EAD 1A02                jsr        [A5 + 0x1A02 /* export_828, CODE:16 @ 0000142C */]
00002342  101F                     move.b     D0, [A7]+
00002344  661E                     bne        +0x20 /* 00002364 */
00002346  302D EF42                move.w     D0, [A5 - 0x10BE]
0000234A  5340                     subq.w     D0, 1
0000234C  41ED F8FC                lea.l      A0, [A5 - 0x704]
00002350  E740                     asl        D0.w, 3
00002352  43ED EF44                lea.l      A1, [A5 - 0x10BC]
00002356  41F0 0000                lea.l      A0, [A0 + D0.w]
0000235A  22D8                     move.l     [A1]+, [A0]+
0000235C  22D8                     move.l     [A1]+, [A0]+
0000235E  1B7C 0001 EF40           move.b     [A5 - 0x10C0], 0x1
label00002364:
00002364  426D E00C                clr.w      [A5 - 0x1FF4]
00002368  422D E2FC                clr.b      [A5 - 0x1D04]
0000236C  422D E2FB                clr.b      [A5 - 0x1D05]
00002370  41ED E2F2                lea.l      A0, [A5 - 0x1D0E]
00002374  43ED ED82                lea.l      A1, [A5 - 0x127E]
00002378  20D9                     move.l     [A0]+, [A1]+
0000237A  20D9                     move.l     [A0]+, [A1]+
0000237C  1B7C 0001 E303           move.b     [A5 - 0x1CFD], 0x1
00002382  7000                     moveq.l    D0, 0x00
00002384  2B40 F62A                move.l     [A5 - 0x9D6], D0
00002388  7000                     moveq.l    D0, 0x00
0000238A  2B40 F622                move.l     [A5 - 0x9DE], D0
0000238E  7000                     moveq.l    D0, 0x00
00002390  2B40 F626                move.l     [A5 - 0x9DA], D0
00002394  7000                     moveq.l    D0, 0x00
00002396  2B40 F4C4                move.l     [A5 - 0xB3C], D0
0000239A  7000                     moveq.l    D0, 0x00
0000239C  2B40 F2AE                move.l     [A5 - 0xD52], D0
000023A0  422D F015                clr.b      [A5 - 0xFEB]
000023A4  422D F2B8                clr.b      [A5 - 0xD48]
label000023A8:
000023A8  1D7C 0001 000C           move.b     [A6 + 0xC], 0x1
label000023AE:
000023AE  4FEE F2E4                lea.l      A7, [A6 - 0xD1C]
000023B2  4AAE FDAE                tst.l      [A6 - 0x252]
000023B6  6708                     beq        +0xA /* 000023C0 */
000023B8  2F2E FDAE                move.l     -[A7], [A6 - 0x252]
000023BC  4EAD 18D2                jsr        [A5 + 0x18D2 /* export_790, CODE:16 @ 0000083E */]
label000023C0:
000023C0  4CDF 1CF8                movem.l    D3,D4,D5,D6,D7,A2,A3,A4, [A7]+
000023C4  4E5E                     unlink     A6
000023C6  2E9F                     move.l     [A7], [A7]+
000023C8  4E75                     rts
000023CA  464F 4E54 5846 434E      dc.b       "FONTXFCN"
000023D2  5843                     addq.w     D3, 4
000023D4  4D44                     chk.w      D6, D4
000023D6  5354                     subq.w     [A4], 1
000023D8  414B                     chk.w      D0, A3
000023DA  0673 7461 636B 7300 4... addi.w     [[A3 + 0x7300] + 0x4E560000], 0x7461 /* 'ta' */
// begin alternate branch 000023E2-000023E6
export_1059:
fn000023E2:
000023E2  4E56 0000                link       A6, 0
// end alternate branch 000023E2-000023E6
export_1059: // at 000023E2 (misaligned)
fn000023E2: // (misaligned)
000023E6  2F2D EDAC                move.l     -[A7], [A5 - 0x1254]
000023EA  A9D8                     syscall    TEActivate
000023EC  1B7C 0001 EDAB           move.b     [A5 - 0x1255], 0x1
000023F2  4E5E                     unlink     A6
000023F4  4E75                     rts
export_1060:
000023F6  4E56 FFF0                link       A6, -0x0010
000023FA  102D F017                move.b     D0, [A5 - 0xFE9]
000023FE  6708                     beq        +0xA /* 00002408 */
00002400  1D6D DEA9 0008           move.b     [A6 + 0x8], [A5 - 0x2157]
00002406  601A                     bra        +0x1C /* 00002422 */
label00002408:
00002408  486E FFF0                pea.l      [A6 - 0x10]
0000240C  A976                     syscall    GetKeys
0000240E  703A                     moveq.l    D0, 0x3A
00002410  3200                     move.w     D1, D0
00002412  E641                     asr        D1.w, 3
00002414  0136 10F0                btst       [A6 + D1.w - 0x10], D0
00002418  56C0                     sne        D0
0000241A  0240 0001                andi.w     D0, 0x1
0000241E  1D40 0008                move.b     [A6 + 0x8], D0
label00002422:
00002422  4E5E                     unlink     A6
00002424  4E75                     rts
fn00002426:
00002426  4E56 0000                link       A6, 0
0000242A  2F0C                     move.l     -[A7], A4
0000242C  286E 0008                movea.l    A4, [A6 + 0x8]
00002430  4A6C FE06                tst.w      [A4 - 0x1FA]
00002434  6F2E                     ble        +0x30 /* 00002464 */
00002436  7001                     moveq.l    D0, 0x01
00002438  B06C FE06                cmp.w      D0, [A4 - 0x1FA]
0000243C  6C12                     bge        +0x14 /* 00002450 */
0000243E  302C FE06                move.w     D0, [A4 - 0x1FA]
00002442  D07C 00A0                add.w      D0, 0xA0
00002446  206C FFD6                movea.l    A0, [A4 - 0x2A]
0000244A  1080                     move.b     [A0], D0
0000244C  52AC FFD6                addq.l     [A4 - 0x2A], 1
label00002450:
00002450  206C FFD6                movea.l    A0, [A4 - 0x2A]
00002454  10AC FE09                move.b     [A0], [A4 - 0x1F7]
00002458  52AC FFD6                addq.l     [A4 - 0x2A], 1
0000245C  426C FE06                clr.w      [A4 - 0x1FA]
00002460  426C FE08                clr.w      [A4 - 0x1F8]
label00002464:
00002464  285F                     movea.l    A4, [A7]+
00002466  4E5E                     unlink     A6
00002468  2E9F                     move.l     [A7], [A7]+
0000246A  4E75                     rts
fn0000246C:
0000246C  4E56 0000                link       A6, 0
00002470  2F0C                     move.l     -[A7], A4
00002472  286E 0008                movea.l    A4, [A6 + 0x8]
00002476  302E 000C                move.w     D0, [A6 + 0xC]
0000247A  B06C FE08                cmp.w      D0, [A4 - 0x1F8]
0000247E  6606                     bne        +0x8 /* 00002486 */
00002480  526C FE06                addq.w     [A4 - 0x1FA], 1
00002484  6014                     bra        +0x16 /* 0000249A */
label00002486:
00002486  2F2E 0008                move.l     -[A7], [A6 + 0x8]
0000248A  4EBA FF9A                jsr        [PC - 0x66 /* 00002426 */]
0000248E  396E 000C FE08           move.w     [A4 - 0x1F8], [A6 + 0xC]
00002494  397C 0001 FE06           move.w     [A4 - 0x1FA], 0x1
label0000249A:
0000249A  285F                     movea.l    A4, [A7]+
0000249C  4E5E                     unlink     A6
0000249E  205F                     movea.l    A0, [A7]+
000024A0  5C4F                     addq.w     A7, 6
000024A2  4ED0                     jmp        [A0]
fn000024A4:
000024A4  4E56 0000                link       A6, 0
000024A8  48E7 0308                movem.l    -[A7], D6,D7,A4
000024AC  3E2E 000E                move.w     D7, [A6 + 0xE]
000024B0  3C2E 0010                move.w     D6, [A6 + 0x10]
000024B4  286E 0008                movea.l    A4, [A6 + 0x8]
000024B8  2F2C FEC2                move.l     -[A7], [A4 - 0x13E]
000024BC  486C FF92                pea.l      [A4 - 0x6E]
000024C0  2F2C FFE6                move.l     -[A7], [A4 - 0x1A]
000024C4  4EAD 19BA                jsr        [A5 + 0x19BA /* export_819, CODE:16 @ 000010F8 */]
000024C8  7001                     moveq.l    D0, 0x01
000024CA  B047                     cmp.w      D0, D7
000024CC  6610                     bne        +0x12 /* 000024DE */
000024CE  2F2C FEC6                move.l     -[A7], [A4 - 0x13A]
000024D2  486C FF92                pea.l      [A4 - 0x6E]
000024D6  3F2C FFE8                move.w     -[A7], [A4 - 0x18]
000024DA  4EAD 1B3A                jsr        [A5 + 0x1B3A /* export_867, CODE:16 @ 00001E66 */]
label000024DE:
000024DE  7002                     moveq.l    D0, 0x02
000024E0  B047                     cmp.w      D0, D7
000024E2  6610                     bne        +0x12 /* 000024F4 */
000024E4  2F2C FECA                move.l     -[A7], [A4 - 0x136]
000024E8  486C FF92                pea.l      [A4 - 0x6E]
000024EC  3F2C FFE8                move.w     -[A7], [A4 - 0x18]
000024F0  4EAD 1B3A                jsr        [A5 + 0x1B3A /* export_867, CODE:16 @ 00001E66 */]
label000024F4:
000024F4  4A46                     tst.w      D6
000024F6  670E                     beq        +0x10 /* 00002506 */
000024F8  486C FF92                pea.l      [A4 - 0x6E]
000024FC  3F06                     move.w     -[A7], D6
000024FE  3F2C FFE8                move.w     -[A7], [A4 - 0x18]
00002502  4EAD 1C3A                jsr        [A5 + 0x1C3A /* export_899, CODE:17 @ 00000A60 */]
label00002506:
00002506  4267                     clr.w      -[A7]
00002508  486C FF92                pea.l      [A4 - 0x6E]
0000250C  3F2C FFEC                move.w     -[A7], [A4 - 0x14]
00002510  4EAD 1C0A                jsr        [A5 + 0x1C0A /* export_893, CODE:17 @ 000008FC */]
00002514  395F FDD4                move.w     [A4 - 0x22C], [A7]+
00002518  302C FDD4                move.w     D0, [A4 - 0x22C]
0000251C  B06C FDD6                cmp.w      D0, [A4 - 0x22A]
00002520  6C14                     bge        +0x16 /* 00002536 */
00002522  396C FDD4 FDD6           move.w     [A4 - 0x22A], [A4 - 0x22C]
00002528  3946 FE0A                move.w     [A4 - 0x1F6], D6
0000252C  3947 FE0C                move.w     [A4 - 0x1F4], D7
00002530  396E 000C FE04           move.w     [A4 - 0x1FC], [A6 + 0xC]
label00002536:
00002536  4CDF 10C0                movem.l    D6,D7,A4, [A7]+
0000253A  4E5E                     unlink     A6
0000253C  205F                     movea.l    A0, [A7]+
0000253E  DEFC 000A                add.w      A7, 0xA /* '\n' */
00002542  4ED0                     jmp        [A0]
fn00002544:
00002544  4E56 FDCE                link       A6, -0x0232
00002548  48E7 0F08                movem.l    -[A7], D4,D5,D6,D7,A4
0000254C  206E 000E                movea.l    A0, [A6 + 0xE]
00002550  43EE FFF8                lea.l      A1, [A6 - 0x8]
00002554  22D8                     move.l     [A1]+, [A0]+
00002556  22D8                     move.l     [A1]+, [A0]+
00002558  206E 0008                movea.l    A0, [A6 + 0x8]
0000255C  7000                     moveq.l    D0, 0x00
0000255E  2080                     move.l     [A0], D0
00002560  4267                     clr.w      -[A7]
00002562  486D ED82                pea.l      [A5 - 0x127E]
00002566  486E FFF8                pea.l      [A6 - 0x8]
0000256A  486E FFF8                pea.l      [A6 - 0x8]
0000256E  A8AA                     syscall    SectRect
00002570  101F                     move.b     D0, [A7]+
00002572  6604                     bne        +0x6 /* 00002578 */
00002574  6000 04B6                bra        +0x4B8 /* 00002A2C */
label00002578:
00002578  302E FFFC                move.w     D0, [A6 - 0x4]
0000257C  906E FFF8                sub.w      D0, [A6 - 0x8]
00002580  3D40 FFF4                move.w     [A6 - 0xC], D0
00002584  7000                     moveq.l    D0, 0x00
00002586  302E FFFA                move.w     D0, [A6 - 0x6]
0000258A  EA88                     lsr        D0, 5
0000258C  2D40 FFE2                move.l     [A6 - 0x1E], D0
00002590  7000                     moveq.l    D0, 0x00
00002592  322E FFFE                move.w     D1, [A6 - 0x2]
00002596  D27C 001F                add.w      D1, 0x1F
0000259A  3001                     move.w     D0, D1
0000259C  EA88                     lsr        D0, 5
0000259E  90AE FFE2                sub.l      D0, [A6 - 0x1E]
000025A2  2D40 FFE6                move.l     [A6 - 0x1A], D0
000025A6  E380                     asl        D0, 1
000025A8  2D40 FFEA                move.l     [A6 - 0x16], D0
000025AC  2C2E FFE6                move.l     D6, [A6 - 0x1A]
000025B0  E586                     asl        D6, 2
000025B2  2F2E FFEA                move.l     -[A7], [A6 - 0x16]
000025B6  7008                     moveq.l    D0, 0x08
000025B8  2F00                     move.l     -[A7], D0
000025BA  4EAD 04F2                jsr        [A5 + 0x4F2 /* export_154, CODE:1 @ 00005224 */]
000025BE  201F                     move.l     D0, [A7]+
000025C0  5480                     addq.l     D0, 2
000025C2  3A00                     move.w     D5, D0
000025C4  2F2E FFEA                move.l     -[A7], [A6 - 0x16]
000025C8  7004                     moveq.l    D0, 0x04
000025CA  2F00                     move.l     -[A7], D0
000025CC  4EAD 04F2                jsr        [A5 + 0x4F2 /* export_154, CODE:1 @ 00005224 */]
000025D0  201F                     move.l     D0, [A7]+
000025D2  5480                     addq.l     D0, 2
000025D4  3E00                     move.w     D7, D0
000025D6  41EE FED2                lea.l      A0, [A6 - 0x12E]
000025DA  2D48 FEC2                move.l     [A6 - 0x13E], A0
000025DE  41EE FF12                lea.l      A0, [A6 - 0xEE]
000025E2  2D48 FEC6                move.l     [A6 - 0x13A], A0
000025E6  41EE FF52                lea.l      A0, [A6 - 0xAE]
000025EA  2D48 FECA                move.l     [A6 - 0x136], A0
000025EE  2F2E FEC2                move.l     -[A7], [A6 - 0x13E]
000025F2  2F2E FFE6                move.l     -[A7], [A6 - 0x1A]
000025F6  4EAD 1B4A                jsr        [A5 + 0x1B4A /* export_869, CODE:16 @ 00001E9C */]
000025FA  2F2E FEC6                move.l     -[A7], [A6 - 0x13A]
000025FE  2F2E FFE6                move.l     -[A7], [A6 - 0x1A]
00002602  4EAD 1B4A                jsr        [A5 + 0x1B4A /* export_869, CODE:16 @ 00001E9C */]
00002606  2F2E FECA                move.l     -[A7], [A6 - 0x136]
0000260A  2F2E FFE6                move.l     -[A7], [A6 - 0x1A]
0000260E  4EAD 1B4A                jsr        [A5 + 0x1B4A /* export_869, CODE:16 @ 00001E9C */]
00002612  2D7C AAAA AAAA FDE0      move.l     [A6 - 0x220], 0xAAAAAAAA
0000261A  2D7C 5555 5555 FDE4      move.l     [A6 - 0x21C], 0x55555555 /* 'UUUU' */
00002622  2D7C AAAA AAAA FDE8      move.l     [A6 - 0x218], 0xAAAAAAAA
0000262A  2D7C 5555 5555 FDEC      move.l     [A6 - 0x214], 0x55555555 /* 'UUUU' */
00002632  2D7C AAAA AAAA FDF0      move.l     [A6 - 0x210], 0xAAAAAAAA
0000263A  2D7C 5555 5555 FDF4      move.l     [A6 - 0x20C], 0x55555555 /* 'UUUU' */
00002642  2D7C AAAA AAAA FDF8      move.l     [A6 - 0x208], 0xAAAAAAAA
0000264A  2D7C 5555 5555 FDFC      move.l     [A6 - 0x204], 0x55555555 /* 'UUUU' */
00002652  49EE FDE0                lea.l      A4, [A6 - 0x220]
00002656  200C                     move.l     D0, A4
00002658  7220                     moveq.l    D1, 0x20
0000265A  D081                     add.l      D0, D1
0000265C  2D40 FDDC                move.l     [A6 - 0x224], D0
00002660  426E FE0E                clr.w      [A6 - 0x1F2]
00002664  426E FE10                clr.w      [A6 - 0x1F0]
00002668  426E FE06                clr.w      [A6 - 0x1FA]
0000266C  426E FE08                clr.w      [A6 - 0x1F8]
00002670  202E FFE2                move.l     D0, [A6 - 0x1E]
00002674  E580                     asl        D0, 2
00002676  D0AE 0016                add.l      D0, [A6 + 0x16]
0000267A  322E FFF8                move.w     D1, [A6 - 0x8]
0000267E  48C1                     ext.l      D1
00002680  ED81                     asl        D1, 6
00002682  D280                     add.l      D1, D0
00002684  2D41 FFD2                move.l     [A6 - 0x2E], D1
00002688  2D6E 0012 FFD6           move.l     [A6 - 0x2A], [A6 + 0x12]
0000268E  3D6E FFF4 FDCE           move.w     [A6 - 0x232], [A6 - 0xC]
00002694  3D7C 0001 FFF2           move.w     [A6 - 0xE], 0x1
0000269A  6000 0368                bra        +0x36A /* 00002A04 */
label0000269E:
0000269E  2D6E FECA FECE           move.l     [A6 - 0x132], [A6 - 0x136]
000026A4  2D6E FEC6 FECA           move.l     [A6 - 0x136], [A6 - 0x13A]
000026AA  2D6E FEC2 FEC6           move.l     [A6 - 0x13A], [A6 - 0x13E]
000026B0  2D6E FECE FEC2           move.l     [A6 - 0x13E], [A6 - 0x132]
000026B6  2F2E FFD2                move.l     -[A7], [A6 - 0x2E]
000026BA  2F2E FEC2                move.l     -[A7], [A6 - 0x13E]
000026BE  2F2E FFE6                move.l     -[A7], [A6 - 0x1A]
000026C2  4EAD 19BA                jsr        [A5 + 0x19BA /* export_819, CODE:16 @ 000010F8 */]
000026C6  701F                     moveq.l    D0, 0x1F
000026C8  B06E FE06                cmp.w      D0, [A6 - 0x1FA]
000026CC  6606                     bne        +0x8 /* 000026D4 */
000026CE  2F0E                     move.l     -[A7], A6
000026D0  4EBA FD54                jsr        [PC - 0x2AC /* 00002426 */]
label000026D4:
000026D4  4267                     clr.w      -[A7]
000026D6  2F2E FEC2                move.l     -[A7], [A6 - 0x13E]
000026DA  42A7                     clr.l      -[A7]
000026DC  3F2E FFE8                move.w     -[A7], [A6 - 0x18]
000026E0  4EAD 1CA2                jsr        [A5 + 0x1CA2 /* export_912, CODE:17 @ 000014B6 */]
000026E4  101F                     move.b     D0, [A7]+
000026E6  670E                     beq        +0x10 /* 000026F6 */
000026E8  3F3C 0081                move.w     -[A7], 0x81
000026EC  2F0E                     move.l     -[A7], A6
000026EE  4EBA FD7C                jsr        [PC - 0x284 /* 0000246C */]
000026F2  6000 02F8                bra        +0x2FA /* 000029EC */
label000026F6:
000026F6  4267                     clr.w      -[A7]
000026F8  2F2E FEC2                move.l     -[A7], [A6 - 0x13E]
000026FC  70FF                     moveq.l    D0, 0xFFFFFFFF
000026FE  2F00                     move.l     -[A7], D0
00002700  3F2E FFE8                move.w     -[A7], [A6 - 0x18]
00002704  4EAD 1CA2                jsr        [A5 + 0x1CA2 /* export_912, CODE:17 @ 000014B6 */]
00002708  101F                     move.b     D0, [A7]+
0000270A  670E                     beq        +0x10 /* 0000271A */
0000270C  3F3C 0082                move.w     -[A7], 0x82
00002710  2F0E                     move.l     -[A7], A6
00002712  4EBA FD58                jsr        [PC - 0x2A8 /* 0000246C */]
00002716  6000 02D4                bra        +0x2D6 /* 000029EC */
label0000271A:
0000271A  486E FE00                pea.l      [A6 - 0x200]
0000271E  206E FEC2                movea.l    A0, [A6 - 0x13E]
00002722  1010                     move.b     D0, [A0]
00002724  4880                     ext.w      D0
00002726  3F00                     move.w     -[A7], D0
00002728  3F3C 0004                move.w     -[A7], 0x4
0000272C  4EAD 1A0A                jsr        [A5 + 0x1A0A /* export_829, CODE:16 @ 00001448 */]
00002730  4267                     clr.w      -[A7]
00002732  2F2E FEC2                move.l     -[A7], [A6 - 0x13E]
00002736  2F2E FE00                move.l     -[A7], [A6 - 0x200]
0000273A  3F2E FFE8                move.w     -[A7], [A6 - 0x18]
0000273E  4EAD 1CA2                jsr        [A5 + 0x1CA2 /* export_912, CODE:17 @ 000014B6 */]
00002742  101F                     move.b     D0, [A7]+
00002744  673A                     beq        +0x3C /* 00002780 */
00002746  202E FE00                move.l     D0, [A6 - 0x200]
0000274A  B094                     cmp.l      D0, [A4]
0000274C  660C                     bne        +0xE /* 0000275A */
0000274E  3F3C 0084                move.w     -[A7], 0x84
00002752  2F0E                     move.l     -[A7], A6
00002754  4EBA FD16                jsr        [PC - 0x2EA /* 0000246C */]
00002758  6022                     bra        +0x24 /* 0000277C */
label0000275A:
0000275A  2F0E                     move.l     -[A7], A6
0000275C  4EBA FCC8                jsr        [PC - 0x338 /* 00002426 */]
00002760  28AE FE00                move.l     [A4], [A6 - 0x200]
00002764  206E FFD6                movea.l    A0, [A6 - 0x2A]
00002768  10BC FF83                move.b     [A0], 0x83
0000276C  52AE FFD6                addq.l     [A6 - 0x2A], 1
00002770  206E FFD6                movea.l    A0, [A6 - 0x2A]
00002774  10AE FE03                move.b     [A0], [A6 - 0x1FD]
00002778  52AE FFD6                addq.l     [A6 - 0x2A], 1
label0000277C:
0000277C  6000 026E                bra        +0x270 /* 000029EC */
label00002780:
00002780  4267                     clr.w      -[A7]
00002782  2F2E FEC2                move.l     -[A7], [A6 - 0x13E]
00002786  2F2E FEC6                move.l     -[A7], [A6 - 0x13A]
0000278A  3F2E FFE8                move.w     -[A7], [A6 - 0x18]
0000278E  4EAD 1A02                jsr        [A5 + 0x1A02 /* export_828, CODE:16 @ 0000142C */]
00002792  101F                     move.b     D0, [A7]+
00002794  670E                     beq        +0x10 /* 000027A4 */
00002796  3F3C 0085                move.w     -[A7], 0x85
0000279A  2F0E                     move.l     -[A7], A6
0000279C  4EBA FCCE                jsr        [PC - 0x332 /* 0000246C */]
000027A0  6000 024A                bra        +0x24C /* 000029EC */
label000027A4:
000027A4  4267                     clr.w      -[A7]
000027A6  2F2E FEC2                move.l     -[A7], [A6 - 0x13E]
000027AA  2F2E FECA                move.l     -[A7], [A6 - 0x136]
000027AE  3F2E FFE8                move.w     -[A7], [A6 - 0x18]
000027B2  4EAD 1A02                jsr        [A5 + 0x1A02 /* export_828, CODE:16 @ 0000142C */]
000027B6  101F                     move.b     D0, [A7]+
000027B8  670E                     beq        +0x10 /* 000027C8 */
000027BA  3F3C 0086                move.w     -[A7], 0x86
000027BE  2F0E                     move.l     -[A7], A6
000027C0  4EBA FCAA                jsr        [PC - 0x356 /* 0000246C */]
000027C4  6000 0226                bra        +0x228 /* 000029EC */
label000027C8:
000027C8  2F0E                     move.l     -[A7], A6
000027CA  4EBA FC5A                jsr        [PC - 0x3A6 /* 00002426 */]
000027CE  102E 000C                move.b     D0, [A6 + 0xC]
000027D2  6716                     beq        +0x18 /* 000027EA */
000027D4  3D7C 0001 FE0A           move.w     [A6 - 0x1F6], 0x1
000027DA  3D7C 0001 FE0C           move.w     [A6 - 0x1F4], 0x1
000027E0  3D7C 008D FE04           move.w     [A6 - 0x1FC], 0x8D
000027E6  6000 0112                bra        +0x114 /* 000028FA */
label000027EA:
000027EA  426E FE0A                clr.w      [A6 - 0x1F6]
000027EE  426E FE0C                clr.w      [A6 - 0x1F4]
000027F2  3D7C 0089 FE04           move.w     [A6 - 0x1FC], 0x89
000027F8  4267                     clr.w      -[A7]
000027FA  2F2E FEC2                move.l     -[A7], [A6 - 0x13E]
000027FE  3F2E FFEC                move.w     -[A7], [A6 - 0x14]
00002802  4EAD 1C0A                jsr        [A5 + 0x1C0A /* export_893, CODE:17 @ 000008FC */]
00002806  3D5F FDD6                move.w     [A6 - 0x22A], [A7]+
0000280A  BA6E FDD6                cmp.w      D5, [A6 - 0x22A]
0000280E  6C00 00EA                bge        +0xEC /* 000028FA */
00002812  4267                     clr.w      -[A7]
00002814  2F2E FEC2                move.l     -[A7], [A6 - 0x13E]
00002818  2F2E FEC6                move.l     -[A7], [A6 - 0x13A]
0000281C  3F2E FFEC                move.w     -[A7], [A6 - 0x14]
00002820  4EAD 1C02                jsr        [A5 + 0x1C02 /* export_892, CODE:17 @ 000008E0 */]
00002824  3D5F FDD4                move.w     [A6 - 0x22C], [A7]+
00002828  302E FDD4                move.w     D0, [A6 - 0x22C]
0000282C  B06E FDD6                cmp.w      D0, [A6 - 0x22A]
00002830  6C1E                     bge        +0x20 /* 00002850 */
00002832  3D6E FDD4 FDD6           move.w     [A6 - 0x22A], [A6 - 0x22C]
00002838  426E FE0A                clr.w      [A6 - 0x1F6]
0000283C  3D7C 0001 FE0C           move.w     [A6 - 0x1F4], 0x1
00002842  3D7C 008A FE04           move.w     [A6 - 0x1FC], 0x8A
00002848  BA6E FDD6                cmp.w      D5, [A6 - 0x22A]
0000284C  6C00 00AC                bge        +0xAE /* 000028FA */
label00002850:
00002850  4267                     clr.w      -[A7]
00002852  2F2E FEC2                move.l     -[A7], [A6 - 0x13E]
00002856  2F2E FECA                move.l     -[A7], [A6 - 0x136]
0000285A  3F2E FFEC                move.w     -[A7], [A6 - 0x14]
0000285E  4EAD 1C02                jsr        [A5 + 0x1C02 /* export_892, CODE:17 @ 000008E0 */]
00002862  3D5F FDD4                move.w     [A6 - 0x22C], [A7]+
00002866  302E FDD4                move.w     D0, [A6 - 0x22C]
0000286A  B06E FDD6                cmp.w      D0, [A6 - 0x22A]
0000286E  6C1C                     bge        +0x1E /* 0000288C */
00002870  3D6E FDD4 FDD6           move.w     [A6 - 0x22A], [A6 - 0x22C]
00002876  426E FE0A                clr.w      [A6 - 0x1F6]
0000287A  3D7C 0002 FE0C           move.w     [A6 - 0x1F4], 0x2
00002880  3D7C 008B FE04           move.w     [A6 - 0x1FC], 0x8B
00002886  BA6E FDD6                cmp.w      D5, [A6 - 0x22A]
0000288A  6C6E                     bge        +0x70 /* 000028FA */
label0000288C:
0000288C  BE6E FDD6                cmp.w      D7, [A6 - 0x22A]
00002890  6C10                     bge        +0x12 /* 000028A2 */
00002892  2F3C 0000 0001           move.l     -[A7], 0x1
00002898  3F3C 008C                move.w     -[A7], 0x8C
0000289C  2F0E                     move.l     -[A7], A6
0000289E  4EBA FC04                jsr        [PC - 0x3FC /* 000024A4 */]
label000028A2:
000028A2  BE6E FDD6                cmp.w      D7, [A6 - 0x22A]
000028A6  6C10                     bge        +0x12 /* 000028B8 */
000028A8  2F3C 0001 0001           move.l     -[A7], 0x10001
000028AE  3F3C 008D                move.w     -[A7], 0x8D
000028B2  2F0E                     move.l     -[A7], A6
000028B4  4EBA FBEE                jsr        [PC - 0x412 /* 000024A4 */]
label000028B8:
000028B8  BE6E FDD6                cmp.w      D7, [A6 - 0x22A]
000028BC  6C10                     bge        +0x12 /* 000028CE */
000028BE  2F3C 0002 0002           move.l     -[A7], 0x20002
000028C4  3F3C 008E                move.w     -[A7], 0x8E
000028C8  2F0E                     move.l     -[A7], A6
000028CA  4EBA FBD8                jsr        [PC - 0x428 /* 000024A4 */]
label000028CE:
000028CE  BE6E FDD6                cmp.w      D7, [A6 - 0x22A]
000028D2  6C10                     bge        +0x12 /* 000028E4 */
000028D4  2F3C 0000 0008           move.l     -[A7], 0x8
000028DA  3F3C 008F                move.w     -[A7], 0x8F
000028DE  2F0E                     move.l     -[A7], A6
000028E0  4EBA FBC2                jsr        [PC - 0x43E /* 000024A4 */]
label000028E4:
000028E4  BE6E FDD6                cmp.w      D7, [A6 - 0x22A]
000028E8  6C10                     bge        +0x12 /* 000028FA */
000028EA  2F3C 0000 0010           move.l     -[A7], 0x10
000028F0  3F3C 0088                move.w     -[A7], 0x88
000028F4  2F0E                     move.l     -[A7], A6
000028F6  4EBA FBAC                jsr        [PC - 0x454 /* 000024A4 */]
label000028FA:
000028FA  2F2E FEC2                move.l     -[A7], [A6 - 0x13E]
000028FE  486E FF92                pea.l      [A6 - 0x6E]
00002902  2F2E FFE6                move.l     -[A7], [A6 - 0x1A]
00002906  4EAD 19BA                jsr        [A5 + 0x19BA /* export_819, CODE:16 @ 000010F8 */]
0000290A  7001                     moveq.l    D0, 0x01
0000290C  B06E FE0C                cmp.w      D0, [A6 - 0x1F4]
00002910  6610                     bne        +0x12 /* 00002922 */
00002912  2F2E FEC6                move.l     -[A7], [A6 - 0x13A]
00002916  486E FF92                pea.l      [A6 - 0x6E]
0000291A  3F2E FFE8                move.w     -[A7], [A6 - 0x18]
0000291E  4EAD 1B3A                jsr        [A5 + 0x1B3A /* export_867, CODE:16 @ 00001E66 */]
label00002922:
00002922  7002                     moveq.l    D0, 0x02
00002924  B06E FE0C                cmp.w      D0, [A6 - 0x1F4]
00002928  6610                     bne        +0x12 /* 0000293A */
0000292A  2F2E FECA                move.l     -[A7], [A6 - 0x136]
0000292E  486E FF92                pea.l      [A6 - 0x6E]
00002932  3F2E FFE8                move.w     -[A7], [A6 - 0x18]
00002936  4EAD 1B3A                jsr        [A5 + 0x1B3A /* export_867, CODE:16 @ 00001E66 */]
label0000293A:
0000293A  4A6E FE0A                tst.w      [A6 - 0x1F6]
0000293E  6710                     beq        +0x12 /* 00002950 */
00002940  486E FF92                pea.l      [A6 - 0x6E]
00002944  3F2E FE0A                move.w     -[A7], [A6 - 0x1F6]
00002948  3F2E FFE8                move.w     -[A7], [A6 - 0x18]
0000294C  4EAD 1C3A                jsr        [A5 + 0x1C3A /* export_899, CODE:17 @ 00000A60 */]
label00002950:
00002950  41EE FF92                lea.l      A0, [A6 - 0x6E]
00002954  2D48 FFDA                move.l     [A6 - 0x26], A0
00002958  41EE FE12                lea.l      A0, [A6 - 0x1EE]
0000295C  2D48 FFDE                move.l     [A6 - 0x22], A0
00002960  486E FFDA                pea.l      [A6 - 0x26]
00002964  486E FFDE                pea.l      [A6 - 0x22]
00002968  3F06                     move.w     -[A7], D6
0000296A  4EAD 1C82                jsr        [A5 + 0x1C82 /* export_908, CODE:17 @ 0000126E */]
0000296E  41EE FE12                lea.l      A0, [A6 - 0x1EE]
00002972  202E FFDE                move.l     D0, [A6 - 0x22]
00002976  9088                     sub.l      D0, A0
00002978  3800                     move.w     D4, D0
0000297A  48C0                     ext.l      D0
0000297C  BC80                     cmp.l      D6, D0
0000297E  6E22                     bgt        +0x24 /* 000029A2 */
00002980  206E FFD6                movea.l    A0, [A6 - 0x2A]
00002984  10BC FF80                move.b     [A0], 0x80
00002988  52AE FFD6                addq.l     [A6 - 0x2A], 1
0000298C  2F2E FEC2                move.l     -[A7], [A6 - 0x13E]
00002990  2F2E FFD6                move.l     -[A7], [A6 - 0x2A]
00002994  2F06                     move.l     -[A7], D6
00002996  4EAD 19B2                jsr        [A5 + 0x19B2 /* export_818, CODE:16 @ 000010BE */]
0000299A  2006                     move.l     D0, D6
0000299C  D1AE FFD6                add.l      [A6 - 0x2A], D0
000029A0  604A                     bra        +0x4C /* 000029EC */
label000029A2:
000029A2  302E FE0A                move.w     D0, [A6 - 0x1F6]
000029A6  B06E FE0E                cmp.w      D0, [A6 - 0x1F2]
000029AA  56C0                     sne        D0
000029AC  322E FE0C                move.w     D1, [A6 - 0x1F4]
000029B0  B26E FE10                cmp.w      D1, [A6 - 0x1F0]
000029B4  56C1                     sne        D1
000029B6  8001                     or.b       D0, D1
000029B8  6718                     beq        +0x1A /* 000029D2 */
000029BA  3D6E FE0A FE0E           move.w     [A6 - 0x1F2], [A6 - 0x1F6]
000029C0  3D6E FE0C FE10           move.w     [A6 - 0x1F0], [A6 - 0x1F4]
000029C6  206E FFD6                movea.l    A0, [A6 - 0x2A]
000029CA  10AE FE05                move.b     [A0], [A6 - 0x1FB]
000029CE  52AE FFD6                addq.l     [A6 - 0x2A], 1
label000029D2:
000029D2  486E FE12                pea.l      [A6 - 0x1EE]
000029D6  2F2E FFD6                move.l     -[A7], [A6 - 0x2A]
000029DA  3004                     move.w     D0, D4
000029DC  48C0                     ext.l      D0
000029DE  2F00                     move.l     -[A7], D0
000029E0  4EAD 19B2                jsr        [A5 + 0x19B2 /* export_818, CODE:16 @ 000010BE */]
000029E4  3004                     move.w     D0, D4
000029E6  48C0                     ext.l      D0
000029E8  D1AE FFD6                add.l      [A6 - 0x2A], D0
label000029EC:
000029EC  7040                     moveq.l    D0, 0x40
000029EE  D1AE FFD2                add.l      [A6 - 0x2E], D0
000029F2  588C                     addq.l     A4, 4
000029F4  B9EE FDDC                cmpa.l     A4, [A6 - 0x224]
000029F8  6604                     bne        +0x6 /* 000029FE */
000029FA  49EE FDE0                lea.l      A4, [A6 - 0x220]
label000029FE:
000029FE  526E FFF2                addq.w     [A6 - 0xE], 1
00002A02  690C                     bvs        +0xE /* 00002A10 */
label00002A04:
00002A04  302E FFF2                move.w     D0, [A6 - 0xE]
00002A08  B06E FDCE                cmp.w      D0, [A6 - 0x232]
00002A0C  6F00 FC90                ble        -0x36E /* 0000269E */
label00002A10:
00002A10  2F0E                     move.l     -[A7], A6
00002A12  4EBA FA12                jsr        [PC - 0x5EE /* 00002426 */]
00002A16  202E FFD6                move.l     D0, [A6 - 0x2A]
00002A1A  90AE 0012                sub.l      D0, [A6 + 0x12]
00002A1E  5680                     addq.l     D0, 3
00002A20  C0BC FFFF FFFC           and.l      D0, 0xFFFFFFFC
00002A26  206E 0008                movea.l    A0, [A6 + 0x8]
00002A2A  2080                     move.l     [A0], D0
label00002A2C:
00002A2C  4CDF 10F0                movem.l    D4,D5,D6,D7,A4, [A7]+
00002A30  4E5E                     unlink     A6
00002A32  205F                     movea.l    A0, [A7]+
00002A34  DEFC 0012                add.w      A7, 0x12
00002A38  4ED0                     jmp        [A0]
export_1061:
00002A3A  4E56 FFC4                link       A6, -0x003C
00002A3E  48E7 0F18                movem.l    -[A7], D4,D5,D6,D7,A3,A4
00002A42  2A2E 000C                move.l     D5, [A6 + 0xC]
00002A46  70FF                     moveq.l    D0, 0xFFFFFFFF
00002A48  2D40 0010                move.l     [A6 + 0x10], D0
00002A4C  41EE FFF4                lea.l      A0, [A6 - 0xC]
00002A50  43ED ED82                lea.l      A1, [A5 - 0x127E]
00002A54  20D9                     move.l     [A0]+, [A1]+
00002A56  20D9                     move.l     [A0]+, [A1]+
00002A58  4A85                     tst.l      D5
00002A5A  660E                     bne        +0x10 /* 00002A6A */
00002A5C  41EE FFF4                lea.l      A0, [A6 - 0xC]
00002A60  43ED ED8A                lea.l      A1, [A5 - 0x1276]
00002A64  20D9                     move.l     [A0]+, [A1]+
00002A66  20D9                     move.l     [A0]+, [A1]+
00002A68  6010                     bra        +0x12 /* 00002A7A */
label00002A6A:
00002A6A  70FF                     moveq.l    D0, 0xFFFFFFFF
00002A6C  B085                     cmp.l      D0, D5
00002A6E  670A                     beq        +0xC /* 00002A7A */
00002A70  2F05                     move.l     -[A7], D5
00002A72  486E FFF4                pea.l      [A6 - 0xC]
00002A76  4EAD 153A                jsr        [A5 + 0x153A /* export_675, CODE:14 @ 00000C62 */]
label00002A7A:
00002A7A  41EE FFE2                lea.l      A0, [A6 - 0x1E]
00002A7E  43ED ED82                lea.l      A1, [A5 - 0x127E]
00002A82  20D9                     move.l     [A0]+, [A1]+
00002A84  20D9                     move.l     [A0]+, [A1]+
00002A86  2F2E 0008                move.l     -[A7], [A6 + 0x8]
00002A8A  486E FFE2                pea.l      [A6 - 0x1E]
00002A8E  4EAD 153A                jsr        [A5 + 0x153A /* export_675, CODE:14 @ 00000C62 */]
00002A92  4267                     clr.w      -[A7]
00002A94  486E FFF4                pea.l      [A6 - 0xC]
00002A98  A8AE                     syscall    EmptyRect
00002A9A  4267                     clr.w      -[A7]
00002A9C  486E FFE2                pea.l      [A6 - 0x1E]
00002AA0  A8AE                     syscall    EmptyRect
00002AA2  101F                     move.b     D0, [A7]+
00002AA4  C01F                     and.b      D0, [A7]+
00002AA6  670A                     beq        +0xC /* 00002AB2 */
00002AA8  7000                     moveq.l    D0, 0x00
00002AAA  2D40 0010                move.l     [A6 + 0x10], D0
00002AAE  6000 01E0                bra        +0x1E2 /* 00002C90 */
label00002AB2:
00002AB2  7E00                     moveq.l    D7, 0x00
00002AB4  70FF                     moveq.l    D0, 0xFFFFFFFF
00002AB6  B085                     cmp.l      D0, D5
00002AB8  56C0                     sne        D0
00002ABA  2F00                     move.l     -[A7], D0
00002ABC  4267                     clr.w      -[A7]
00002ABE  486E FFF4                pea.l      [A6 - 0xC]
00002AC2  A8AE                     syscall    EmptyRect
00002AC4  121F                     move.b     D1, [A7]+
00002AC6  201F                     move.l     D0, [A7]+
00002AC8  0A01 0001                xori.b     D1, 0x1
00002ACC  C001                     and.b      D0, D1
00002ACE  676A                     beq        +0x6C /* 00002B3A */
00002AD0  302E FFFA                move.w     D0, [A6 - 0x6]
00002AD4  906E FFF6                sub.w      D0, [A6 - 0xA]
00002AD8  48C0                     ext.l      D0
00002ADA  322E FFF8                move.w     D1, [A6 - 0x8]
00002ADE  926E FFF4                sub.w      D1, [A6 - 0xC]
00002AE2  48C1                     ext.l      D1
00002AE4  2F00                     move.l     -[A7], D0
00002AE6  2F01                     move.l     -[A7], D1
00002AE8  4EAD 04EA                jsr        [A5 + 0x4EA /* export_153, CODE:1 @ 000051F0 */]
00002AEC  2D5F FFCC                move.l     [A6 - 0x34], [A7]+
00002AF0  42A7                     clr.l      -[A7]
00002AF2  2F05                     move.l     -[A7], D5
00002AF4  4EAD 1BDA                jsr        [A5 + 0x1BDA /* export_887, CODE:17 @ 00000666 */]
00002AF8  2D5F FFD0                move.l     [A6 - 0x30], [A7]+
00002AFC  202E FFD0                move.l     D0, [A6 - 0x30]
00002B00  B0AE FFCC                cmp.l      D0, [A6 - 0x34]
00002B04  6C34                     bge        +0x36 /* 00002B3A */
00002B06  7000                     moveq.l    D0, 0x00
00002B08  322E FFFA                move.w     D1, [A6 - 0x6]
00002B0C  D27C 001F                add.w      D1, 0x1F
00002B10  3001                     move.w     D0, D1
00002B12  EA88                     lsr        D0, 5
00002B14  7200                     moveq.l    D1, 0x00
00002B16  322E FFF6                move.w     D1, [A6 - 0xA]
00002B1A  EA89                     lsr        D1, 5
00002B1C  9081                     sub.l      D0, D1
00002B1E  E580                     asl        D0, 2
00002B20  5280                     addq.l     D0, 1
00002B22  3D40 FFF2                move.w     [A6 - 0xE], D0
00002B26  302E FFF8                move.w     D0, [A6 - 0x8]
00002B2A  906E FFF4                sub.w      D0, [A6 - 0xC]
00002B2E  C1EE FFF2                muls.w     D0, [A6 - 0xE]
00002B32  D07C 0080                add.w      D0, 0x80
00002B36  48C0                     ext.l      D0
00002B38  2E00                     move.l     D7, D0
label00002B3A:
00002B3A  7C00                     moveq.l    D6, 0x00
00002B3C  4267                     clr.w      -[A7]
00002B3E  486E FFE2                pea.l      [A6 - 0x1E]
00002B42  A8AE                     syscall    EmptyRect
00002B44  101F                     move.b     D0, [A7]+
00002B46  6634                     bne        +0x36 /* 00002B7C */
00002B48  7000                     moveq.l    D0, 0x00
00002B4A  322E FFE8                move.w     D1, [A6 - 0x18]
00002B4E  D27C 001F                add.w      D1, 0x1F
00002B52  3001                     move.w     D0, D1
00002B54  EA88                     lsr        D0, 5
00002B56  7200                     moveq.l    D1, 0x00
00002B58  322E FFE4                move.w     D1, [A6 - 0x1C]
00002B5C  EA89                     lsr        D1, 5
00002B5E  9081                     sub.l      D0, D1
00002B60  E580                     asl        D0, 2
00002B62  5280                     addq.l     D0, 1
00002B64  3D40 FFE0                move.w     [A6 - 0x20], D0
00002B68  302E FFE6                move.w     D0, [A6 - 0x1A]
00002B6C  906E FFE2                sub.w      D0, [A6 - 0x1E]
00002B70  C1EE FFE0                muls.w     D0, [A6 - 0x20]
00002B74  D07C 0080                add.w      D0, 0x80
00002B78  48C0                     ext.l      D0
00002B7A  2C00                     move.l     D6, D0
label00002B7C:
00002B7C  2007                     move.l     D0, D7
00002B7E  723C                     moveq.l    D1, 0x3C
00002B80  D081                     add.l      D0, D1
00002B82  D086                     add.l      D0, D6
00002B84  2D40 FFC8                move.l     [A6 - 0x38], D0
00002B88  42A7                     clr.l      -[A7]
00002B8A  2F2E FFC8                move.l     -[A7], [A6 - 0x38]
00002B8E  4EAD 196A                jsr        [A5 + 0x196A /* export_809, CODE:16 @ 00000DB2 */]
00002B92  265F                     movea.l    A3, [A7]+
00002B94  200B                     move.l     D0, A3
00002B96  6608                     bne        +0xA /* 00002BA0 */
00002B98  4EAD 1812                jsr        [A5 + 0x1812 /* export_766, CODE:16 @ 00000208 */]
00002B9C  6000 00F2                bra        +0xF4 /* 00002C90 */
label00002BA0:
00002BA0  7000                     moveq.l    D0, 0x00
00002BA2  2D40 FFEE                move.l     [A6 - 0x12], D0
00002BA6  4A87                     tst.l      D7
00002BA8  6F2A                     ble        +0x2C /* 00002BD4 */
00002BAA  2813                     move.l     D4, [A3]
00002BAC  703C                     moveq.l    D0, 0x3C
00002BAE  D880                     add.l      D4, D0
00002BB0  2F05                     move.l     -[A7], D5
00002BB2  2F04                     move.l     -[A7], D4
00002BB4  486E FFF4                pea.l      [A6 - 0xC]
00002BB8  1F3C 0001                move.b     -[A7], 0x1
00002BBC  486E FFEE                pea.l      [A6 - 0x12]
00002BC0  4EBA F982                jsr        [PC - 0x67E /* 00002544 */]
00002BC4  BEAE FFEE                cmp.l      D7, [A6 - 0x12]
00002BC8  6C0A                     bge        +0xC /* 00002BD4 */
00002BCA  2F3C 0000 08B7           move.l     -[A7], 0x8B7
00002BD0  4EAD 185A                jsr        [A5 + 0x185A /* export_775, CODE:16 @ 0000042E */]
label00002BD4:
00002BD4  7000                     moveq.l    D0, 0x00
00002BD6  2D40 FFDC                move.l     [A6 - 0x24], D0
00002BDA  4A86                     tst.l      D6
00002BDC  6F30                     ble        +0x32 /* 00002C0E */
00002BDE  2013                     move.l     D0, [A3]
00002BE0  723C                     moveq.l    D1, 0x3C
00002BE2  D081                     add.l      D0, D1
00002BE4  282E FFEE                move.l     D4, [A6 - 0x12]
00002BE8  D880                     add.l      D4, D0
00002BEA  2F2E 0008                move.l     -[A7], [A6 + 0x8]
00002BEE  2F04                     move.l     -[A7], D4
00002BF0  486E FFE2                pea.l      [A6 - 0x1E]
00002BF4  4267                     clr.w      -[A7]
00002BF6  486E FFDC                pea.l      [A6 - 0x24]
00002BFA  4EBA F948                jsr        [PC - 0x6B8 /* 00002544 */]
00002BFE  BCAE FFDC                cmp.l      D6, [A6 - 0x24]
00002C02  6C0A                     bge        +0xC /* 00002C0E */
00002C04  2F3C 0000 08B8           move.l     -[A7], 0x8B8
00002C0A  4EAD 185A                jsr        [A5 + 0x185A /* export_775, CODE:16 @ 0000042E */]
label00002C0E:
00002C0E  42A7                     clr.l      -[A7]
00002C10  202E FFEE                move.l     D0, [A6 - 0x12]
00002C14  723C                     moveq.l    D1, 0x3C
00002C16  D081                     add.l      D0, D1
00002C18  222E FFDC                move.l     D1, [A6 - 0x24]
00002C1C  D280                     add.l      D1, D0
00002C1E  2F01                     move.l     -[A7], D1
00002C20  4EAD 18EA                jsr        [A5 + 0x18EA /* export_793, CODE:16 @ 000008E4 */]
00002C24  2D5F FFC4                move.l     [A6 - 0x3C], [A7]+
00002C28  2853                     movea.l    A4, [A3]
00002C2A  28AE FFC4                move.l     [A4], [A6 - 0x3C]
00002C2E  297C 424D 4150 0004      move.l     [A4 + 0x4], 0x424D4150 /* 'BMAP' */
00002C36  7000                     moveq.l    D0, 0x00
00002C38  2940 0008                move.l     [A4 + 0x8], D0
00002C3C  7000                     moveq.l    D0, 0x00
00002C3E  2940 000C                move.l     [A4 + 0xC], D0
00002C42  397C 0001 0010           move.w     [A4 + 0x10], 0x1
00002C48  422C 0012                clr.b      [A4 + 0x12]
00002C4C  422C 0013                clr.b      [A4 + 0x13]
00002C50  41EC 0014                lea.l      A0, [A4 + 0x14]
00002C54  43ED ED82                lea.l      A1, [A5 - 0x127E]
00002C58  20D9                     move.l     [A0]+, [A1]+
00002C5A  20D9                     move.l     [A0]+, [A1]+
00002C5C  41EC 001C                lea.l      A0, [A4 + 0x1C]
00002C60  43EE FFF4                lea.l      A1, [A6 - 0xC]
00002C64  20D9                     move.l     [A0]+, [A1]+
00002C66  20D9                     move.l     [A0]+, [A1]+
00002C68  41EC 0024                lea.l      A0, [A4 + 0x24]
00002C6C  43EE FFE2                lea.l      A1, [A6 - 0x1E]
00002C70  20D9                     move.l     [A0]+, [A1]+
00002C72  20D9                     move.l     [A0]+, [A1]+
00002C74  7000                     moveq.l    D0, 0x00
00002C76  2940 002C                move.l     [A4 + 0x2C], D0
00002C7A  7000                     moveq.l    D0, 0x00
00002C7C  2940 0030                move.l     [A4 + 0x30], D0
00002C80  296E FFEE 0034           move.l     [A4 + 0x34], [A6 - 0x12]
00002C86  296E FFDC 0038           move.l     [A4 + 0x38], [A6 - 0x24]
00002C8C  2D4B 0010                move.l     [A6 + 0x10], A3
label00002C90:
00002C90  4CDF 18F0                movem.l    D4,D5,D6,D7,A3,A4, [A7]+
00002C94  4E5E                     unlink     A6
00002C96  205F                     movea.l    A0, [A7]+
00002C98  504F                     addq.w     A7, 8
00002C9A  4ED0                     jmp        [A0]
fn00002C9C:
00002C9C  4E56 FFF0                link       A6, -0x0010
00002CA0  48E7 0F18                movem.l    -[A7], D4,D5,D6,D7,A3,A4
00002CA4  286E 0008                movea.l    A4, [A6 + 0x8]
00002CA8  422E 000C                clr.b      [A6 + 0xC]
00002CAC  206C FFD6                movea.l    A0, [A4 - 0x2A]
00002CB0  2650                     movea.l    A3, [A0]
00002CB2  206C FFCA                movea.l    A0, [A4 - 0x36]
00002CB6  2050                     movea.l    A0, [A0]
00002CB8  2013                     move.l     D0, [A3]
00002CBA  B090                     cmp.l      D0, [A0]
00002CBC  6704                     beq        +0x6 /* 00002CC2 */
00002CBE  6000 0114                bra        +0x116 /* 00002DD4 */
label00002CC2:
00002CC2  206C FFCA                movea.l    A0, [A4 - 0x36]
00002CC6  2050                     movea.l    A0, [A0]
00002CC8  202B 0010                move.l     D0, [A3 + 0x10]
00002CCC  B0A8 0010                cmp.l      D0, [A0 + 0x10]
00002CD0  6704                     beq        +0x6 /* 00002CD6 */
00002CD2  6000 0100                bra        +0x102 /* 00002DD4 */
label00002CD6:
00002CD6  206C FFCA                movea.l    A0, [A4 - 0x36]
00002CDA  2050                     movea.l    A0, [A0]
00002CDC  302B 0020                move.w     D0, [A3 + 0x20]
00002CE0  B068 0020                cmp.w      D0, [A0 + 0x20]
00002CE4  6704                     beq        +0x6 /* 00002CEA */
00002CE6  6000 00EC                bra        +0xEE /* 00002DD4 */
label00002CEA:
00002CEA  206C FFCA                movea.l    A0, [A4 - 0x36]
00002CEE  2050                     movea.l    A0, [A0]
00002CF0  202B 0024                move.l     D0, [A3 + 0x24]
00002CF4  B0A8 0024                cmp.l      D0, [A0 + 0x24]
00002CF8  6704                     beq        +0x6 /* 00002CFE */
00002CFA  6000 00D8                bra        +0xDA /* 00002DD4 */
label00002CFE:
00002CFE  206C FFCA                movea.l    A0, [A4 - 0x36]
00002D02  2050                     movea.l    A0, [A0]
00002D04  302B 0028                move.w     D0, [A3 + 0x28]
00002D08  B068 0028                cmp.w      D0, [A0 + 0x28]
00002D0C  6704                     beq        +0x6 /* 00002D12 */
00002D0E  6000 00C4                bra        +0xC6 /* 00002DD4 */
label00002D12:
00002D12  206C FFCA                movea.l    A0, [A4 - 0x36]
00002D16  2050                     movea.l    A0, [A0]
00002D18  202B 002A                move.l     D0, [A3 + 0x2A]
00002D1C  B0A8 002A                cmp.l      D0, [A0 + 0x2A]
00002D20  6704                     beq        +0x6 /* 00002D26 */
00002D22  6000 00B0                bra        +0xB2 /* 00002DD4 */
label00002D26:
00002D26  206C FFCA                movea.l    A0, [A4 - 0x36]
00002D2A  2E10                     move.l     D7, [A0]
00002D2C  702E                     moveq.l    D0, 0x2E
00002D2E  DE80                     add.l      D7, D0
00002D30  206C FFD6                movea.l    A0, [A4 - 0x2A]
00002D34  2C10                     move.l     D6, [A0]
00002D36  702E                     moveq.l    D0, 0x2E
00002D38  DC80                     add.l      D6, D0
00002D3A  42A7                     clr.l      -[A7]
00002D3C  2F2C FFCA                move.l     -[A7], [A4 - 0x36]
00002D40  4EAD 1EA2                jsr        [A5 + 0x1EA2 /* export_976, CODE:18 @ 00003650 */]
00002D44  2A1F                     move.l     D5, [A7]+
00002D46  702E                     moveq.l    D0, 0x2E
00002D48  9A80                     sub.l      D5, D0
00002D4A  4267                     clr.w      -[A7]
00002D4C  2F07                     move.l     -[A7], D7
00002D4E  2F06                     move.l     -[A7], D6
00002D50  3F05                     move.w     -[A7], D5
00002D52  4EAD 19FA                jsr        [A5 + 0x19FA /* export_827, CODE:16 @ 00001412 */]
00002D56  101F                     move.b     D0, [A7]+
00002D58  6602                     bne        +0x4 /* 00002D5C */
00002D5A  6078                     bra        +0x7A /* 00002DD4 */
label00002D5C:
00002D5C  206C FFCA                movea.l    A0, [A4 - 0x36]
00002D60  2050                     movea.l    A0, [A0]
00002D62  4AA8 000C                tst.l      [A0 + 0xC]
00002D66  6614                     bne        +0x16 /* 00002D7C */
00002D68  206C FFD6                movea.l    A0, [A4 - 0x2A]
00002D6C  2050                     movea.l    A0, [A0]
00002D6E  4AA8 000C                tst.l      [A0 + 0xC]
00002D72  57C0                     seq        D0
00002D74  4400                     neg.b      D0
00002D76  1D40 000C                move.b     [A6 + 0xC], D0
00002D7A  6058                     bra        +0x5A /* 00002DD4 */
label00002D7C:
00002D7C  42A7                     clr.l      -[A7]
00002D7E  206C FFD6                movea.l    A0, [A4 - 0x2A]
00002D82  2050                     movea.l    A0, [A0]
00002D84  2F28 000C                move.l     -[A7], [A0 + 0xC]
00002D88  4EAD 1F72                jsr        [A5 + 0x1F72 /* export_1002, CODE:19 @ 00001718 */]
00002D8C  281F                     move.l     D4, [A7]+
00002D8E  6602                     bne        +0x4 /* 00002D92 */
00002D90  6042                     bra        +0x44 /* 00002DD4 */
label00002D92:
00002D92  206C FFBE                movea.l    A0, [A4 - 0x42]
00002D96  2E10                     move.l     D7, [A0]
00002D98  700C                     moveq.l    D0, 0x0C
00002D9A  DE80                     add.l      D7, D0
00002D9C  2044                     movea.l    A0, D4
00002D9E  2C10                     move.l     D6, [A0]
00002DA0  700C                     moveq.l    D0, 0x0C
00002DA2  DC80                     add.l      D6, D0
00002DA4  42A7                     clr.l      -[A7]
00002DA6  2F2C FFBE                move.l     -[A7], [A4 - 0x42]
00002DAA  4EAD 1EAA                jsr        [A5 + 0x1EAA /* export_977, CODE:18 @ 0000369A */]
00002DAE  2A1F                     move.l     D5, [A7]+
00002DB0  700C                     moveq.l    D0, 0x0C
00002DB2  9A80                     sub.l      D5, D0
00002DB4  4267                     clr.w      -[A7]
00002DB6  2F07                     move.l     -[A7], D7
00002DB8  2F06                     move.l     -[A7], D6
00002DBA  3F05                     move.w     -[A7], D5
00002DBC  4EAD 19FA                jsr        [A5 + 0x19FA /* export_827, CODE:16 @ 00001412 */]
00002DC0  1D5F 000C                move.b     [A6 + 0xC], [A7]+
00002DC4  206C FFD6                movea.l    A0, [A4 - 0x2A]
00002DC8  2050                     movea.l    A0, [A0]
00002DCA  2F28 000C                move.l     -[A7], [A0 + 0xC]
00002DCE  4267                     clr.w      -[A7]
00002DD0  4EAD 1EEA                jsr        [A5 + 0x1EEA /* export_985, CODE:19 @ 00000432 */]
label00002DD4:
00002DD4  4CDF 18F0                movem.l    D4,D5,D6,D7,A3,A4, [A7]+
00002DD8  4E5E                     unlink     A6
00002DDA  2E9F                     move.l     [A7], [A7]+
00002DDC  4E75                     rts
fn00002DDE:
00002DDE  4E56 0000                link       A6, 0
00002DE2  3F3C 0010                move.w     -[A7], 0x10
00002DE6  4EAD 187A                jsr        [A5 + 0x187A /* export_779, CODE:16 @ 00000500 */]
00002DEA  206E 0008                movea.l    A0, [A6 + 0x8]
00002DEE  2C48                     movea.l    A6, A0
00002DF0  4EFA 0650                jmp        [PC + 0x650 /* 00003442 */]
00002DF4  0000 4E5E                ori.b      D0, 0x5E /* '^' */
00002DF8  205F                     movea.l    A0, [A7]+
00002DFA  5C4F                     addq.w     A7, 6
00002DFC  4ED0                     jmp        [A0]
export_1062:
00002DFE  4E56 FF18                link       A6, -0x00E8
00002E02  48E7 1F38                movem.l    -[A7], D3,D4,D5,D6,D7,A2,A3,A4
00002E06  102D F4CD                move.b     D0, [A5 - 0xB33]
00002E0A  6708                     beq        +0xA /* 00002E14 */
00002E0C  4EAD 15BA                jsr        [A5 + 0x15BA /* export_691, CODE:15 @ 00000AE6 */]
00002E10  6000 0682                bra        +0x684 /* 00003494 */
label00002E14:
00002E14  7000                     moveq.l    D0, 0x00
00002E16  2D40 FFE2                move.l     [A6 - 0x1E], D0
00002E1A  7000                     moveq.l    D0, 0x00
00002E1C  2D40 FFD6                move.l     [A6 - 0x2A], D0
00002E20  7000                     moveq.l    D0, 0x00
00002E22  2D40 FFDE                move.l     [A6 - 0x22], D0
00002E26  7000                     moveq.l    D0, 0x00
00002E28  2D40 FFCA                move.l     [A6 - 0x36], D0
00002E2C  7000                     moveq.l    D0, 0x00
00002E2E  2D40 FFBE                move.l     [A6 - 0x42], D0
00002E32  42A7                     clr.l      -[A7]
00002E34  42A7                     clr.l      -[A7]
00002E36  2F3A 0676                move.l     -[A7], [PC + 0x676 /* 000034AE, value 0x43415244 'CARD' */]
00002E3A  486E FFFA                pea.l      [A6 - 0x6]
00002E3E  A9FD                     syscall    GetScrap
00002E40  2D5F FFB2                move.l     [A6 - 0x4E], [A7]+
00002E44  6E0A                     bgt        +0xC /* 00002E50 */
00002E46  3F3C 000A                move.w     -[A7], 0xA /* '\n' */
00002E4A  2F0E                     move.l     -[A7], A6
00002E4C  4EBA FF90                jsr        [PC - 0x70 /* 00002DDE */]
label00002E50:
00002E50  42A7                     clr.l      -[A7]
00002E52  2F2E FFB2                move.l     -[A7], [A6 - 0x4E]
00002E56  4EAD 196A                jsr        [A5 + 0x196A /* export_809, CODE:16 @ 00000DB2 */]
00002E5A  2D5F FFDE                move.l     [A6 - 0x22], [A7]+
00002E5E  660A                     bne        +0xC /* 00002E6A */
00002E60  3F3C 0014                move.w     -[A7], 0x14
00002E64  2F0E                     move.l     -[A7], A6
00002E66  4EBA FF76                jsr        [PC - 0x8A /* 00002DDE */]
label00002E6A:
00002E6A  42A7                     clr.l      -[A7]
00002E6C  2F2E FFDE                move.l     -[A7], [A6 - 0x22]
00002E70  2F3A 063C                move.l     -[A7], [PC + 0x63C /* 000034AE, value 0x43415244 'CARD' */]
00002E74  486E FFFA                pea.l      [A6 - 0x6]
00002E78  A9FD                     syscall    GetScrap
00002E7A  2D5F FFB2                move.l     [A6 - 0x4E], [A7]+
00002E7E  4267                     clr.w      -[A7]
00002E80  2F2E FFDE                move.l     -[A7], [A6 - 0x22]
00002E84  4EAD 1D22                jsr        [A5 + 0x1D22 /* export_928, CODE:18 @ 00000082 */]
00002E88  101F                     move.b     D0, [A7]+
00002E8A  670A                     beq        +0xC /* 00002E96 */
00002E8C  3F3C 001E                move.w     -[A7], 0x1E
00002E90  2F0E                     move.l     -[A7], A6
00002E92  4EBA FF4A                jsr        [PC - 0xB6 /* 00002DDE */]
label00002E96:
00002E96  206E FFDE                movea.l    A0, [A6 - 0x22]
00002E9A  2050                     movea.l    A0, [A0]
00002E9C  2B68 0008 F4C8           move.l     [A5 - 0xB38], [A0 + 0x8]
00002EA2  42A7                     clr.l      -[A7]
00002EA4  2F2E FFB2                move.l     -[A7], [A6 - 0x4E]
00002EA8  2F3A 0604                move.l     -[A7], [PC + 0x604 /* 000034AE, value 0x43415244 'CARD' */]
00002EAC  4EAD 1F22                jsr        [A5 + 0x1F22 /* export_992, CODE:19 @ 000007F0 */]
00002EB0  2D5F FFE6                move.l     [A6 - 0x1A], [A7]+
00002EB4  7000                     moveq.l    D0, 0x00
00002EB6  2B40 F4C8                move.l     [A5 - 0xB38], D0
00002EBA  4AAE FFE6                tst.l      [A6 - 0x1A]
00002EBE  660A                     bne        +0xC /* 00002ECA */
00002EC0  3F3C 0023                move.w     -[A7], 0x23 /* '#' */
00002EC4  2F0E                     move.l     -[A7], A6
00002EC6  4EBA FF16                jsr        [PC - 0xEA /* 00002DDE */]
label00002ECA:
00002ECA  42A7                     clr.l      -[A7]
00002ECC  2F2E FFE6                move.l     -[A7], [A6 - 0x1A]
00002ED0  4EAD 1F7A                jsr        [A5 + 0x1F7A /* export_1003, CODE:19 @ 00001744 */]
00002ED4  2D5F FFE2                move.l     [A6 - 0x1E], [A7]+
00002ED8  660A                     bne        +0xC /* 00002EE4 */
00002EDA  3F3C 0028                move.w     -[A7], 0x28 /* '(' */
00002EDE  2F0E                     move.l     -[A7], A6
00002EE0  4EBA FEFC                jsr        [PC - 0x104 /* 00002DDE */]
label00002EE4:
00002EE4  42A7                     clr.l      -[A7]
00002EE6  42A7                     clr.l      -[A7]
00002EE8  2F3A 05BC                move.l     -[A7], [PC + 0x5BC /* 000034A6, value 0x424B4744 'BKGD' */]
00002EEC  486E FFFA                pea.l      [A6 - 0x6]
00002EF0  A9FD                     syscall    GetScrap
00002EF2  2D5F FFAE                move.l     [A6 - 0x52], [A7]+
00002EF6  6E0A                     bgt        +0xC /* 00002F02 */
00002EF8  3F3C 0032                move.w     -[A7], 0x32 /* '2' */
00002EFC  2F0E                     move.l     -[A7], A6
00002EFE  4EBA FEDE                jsr        [PC - 0x122 /* 00002DDE */]
label00002F02:
00002F02  42A7                     clr.l      -[A7]
00002F04  2F2E FFAE                move.l     -[A7], [A6 - 0x52]
00002F08  4EAD 196A                jsr        [A5 + 0x196A /* export_809, CODE:16 @ 00000DB2 */]
00002F0C  2D5F FFCA                move.l     [A6 - 0x36], [A7]+
00002F10  660A                     bne        +0xC /* 00002F1C */
00002F12  3F3C 003C                move.w     -[A7], 0x3C /* '<' */
00002F16  2F0E                     move.l     -[A7], A6
00002F18  4EBA FEC4                jsr        [PC - 0x13C /* 00002DDE */]
label00002F1C:
00002F1C  42A7                     clr.l      -[A7]
00002F1E  2F2E FFCA                move.l     -[A7], [A6 - 0x36]
00002F22  2F3A 0582                move.l     -[A7], [PC + 0x582 /* 000034A6, value 0x424B4744 'BKGD' */]
00002F26  486E FFFA                pea.l      [A6 - 0x6]
00002F2A  A9FD                     syscall    GetScrap
00002F2C  2D5F FFAE                move.l     [A6 - 0x52], [A7]+
00002F30  4267                     clr.w      -[A7]
00002F32  2F2E FFCA                move.l     -[A7], [A6 - 0x36]
00002F36  4EAD 1D1A                jsr        [A5 + 0x1D1A /* export_927, CODE:18 @ 00000000 */]
00002F3A  101F                     move.b     D0, [A7]+
00002F3C  670A                     beq        +0xC /* 00002F48 */
00002F3E  3F3C 0046                move.w     -[A7], 0x46 /* 'F' */
00002F42  2F0E                     move.l     -[A7], A6
00002F44  4EBA FE98                jsr        [PC - 0x168 /* 00002DDE */]
label00002F48:
00002F48  42A7                     clr.l      -[A7]
00002F4A  42A7                     clr.l      -[A7]
00002F4C  2F3A 055C                move.l     -[A7], [PC + 0x55C /* 000034AA, value 0x42504943 'BPIC' */]
00002F50  486E FFFA                pea.l      [A6 - 0x6]
00002F54  A9FD                     syscall    GetScrap
00002F56  2D5F FFAA                move.l     [A6 - 0x56], [A7]+
00002F5A  6F2E                     ble        +0x30 /* 00002F8A */
00002F5C  42A7                     clr.l      -[A7]
00002F5E  2F2E FFAA                move.l     -[A7], [A6 - 0x56]
00002F62  4EAD 196A                jsr        [A5 + 0x196A /* export_809, CODE:16 @ 00000DB2 */]
00002F66  2D5F FFBE                move.l     [A6 - 0x42], [A7]+
00002F6A  660A                     bne        +0xC /* 00002F76 */
00002F6C  3F3C 0050                move.w     -[A7], 0x50 /* 'P' */
00002F70  2F0E                     move.l     -[A7], A6
00002F72  4EBA FE6A                jsr        [PC - 0x196 /* 00002DDE */]
label00002F76:
00002F76  42A7                     clr.l      -[A7]
00002F78  2F2E FFBE                move.l     -[A7], [A6 - 0x42]
00002F7C  2F3A 052C                move.l     -[A7], [PC + 0x52C /* 000034AA, value 0x42504943 'BPIC' */]
00002F80  486E FFFA                pea.l      [A6 - 0x6]
00002F84  A9FD                     syscall    GetScrap
00002F86  2D5F FFAA                move.l     [A6 - 0x56], [A7]+
label00002F8A:
00002F8A  2D6D F622 FFEA           move.l     [A6 - 0x16], [A5 - 0x9DE]
00002F90  7000                     moveq.l    D0, 0x00
00002F92  2D40 FFDA                move.l     [A6 - 0x26], D0
label00002F96:
00002F96  42A7                     clr.l      -[A7]
00002F98  2F2E FFEA                move.l     -[A7], [A6 - 0x16]
00002F9C  4EAD 1F6A                jsr        [A5 + 0x1F6A /* export_1001, CODE:19 @ 000016EC */]
00002FA0  2D5F FFD6                move.l     [A6 - 0x2A], [A7]+
00002FA4  660A                     bne        +0xC /* 00002FB0 */
00002FA6  3F3C 005A                move.w     -[A7], 0x5A /* 'Z' */
00002FAA  2F0E                     move.l     -[A7], A6
00002FAC  4EBA FE30                jsr        [PC - 0x1D0 /* 00002DDE */]
label00002FB0:
00002FB0  4267                     clr.w      -[A7]
00002FB2  2F0E                     move.l     -[A7], A6
00002FB4  4EBA FCE6                jsr        [PC - 0x31A /* 00002C9C */]
00002FB8  101F                     move.b     D0, [A7]+
00002FBA  6706                     beq        +0x8 /* 00002FC2 */
00002FBC  2D6E FFEA FFDA           move.l     [A6 - 0x26], [A6 - 0x16]
label00002FC2:
00002FC2  206E FFD6                movea.l    A0, [A6 - 0x2A]
00002FC6  2050                     movea.l    A0, [A0]
00002FC8  2D68 0018 FFEE           move.l     [A6 - 0x12], [A0 + 0x18]
00002FCE  2F2E FFEA                move.l     -[A7], [A6 - 0x16]
00002FD2  4267                     clr.w      -[A7]
00002FD4  4EAD 1EE2                jsr        [A5 + 0x1EE2 /* export_984, CODE:19 @ 00000414 */]
00002FD8  7000                     moveq.l    D0, 0x00
00002FDA  2D40 FFD6                move.l     [A6 - 0x2A], D0
00002FDE  2D6E FFEE FFEA           move.l     [A6 - 0x16], [A6 - 0x12]
00002FE4  4AAE FFDA                tst.l      [A6 - 0x26]
00002FE8  56C0                     sne        D0
00002FEA  222E FFEA                move.l     D1, [A6 - 0x16]
00002FEE  B2AD F622                cmp.l      D1, [A5 - 0x9DE]
00002FF2  57C1                     seq        D1
00002FF4  8001                     or.b       D0, D1
00002FF6  679E                     beq        -0x60 /* 00002F96 */
00002FF8  4AAE FFDA                tst.l      [A6 - 0x26]
00002FFC  6600 01EE                bne        +0x1F0 /* 000031EC */
00003000  206E FFCA                movea.l    A0, [A6 - 0x36]
00003004  2050                     movea.l    A0, [A0]
00003006  2B68 0008 F4C8           move.l     [A5 - 0xB38], [A0 + 0x8]
0000300C  42A7                     clr.l      -[A7]
0000300E  2F2E FFAE                move.l     -[A7], [A6 - 0x52]
00003012  2F3A 0492                move.l     -[A7], [PC + 0x492 /* 000034A6, value 0x424B4744 'BKGD' */]
00003016  4EAD 1F22                jsr        [A5 + 0x1F22 /* export_992, CODE:19 @ 000007F0 */]
0000301A  2D5F FFDA                move.l     [A6 - 0x26], [A7]+
0000301E  7000                     moveq.l    D0, 0x00
00003020  2B40 F4C8                move.l     [A5 - 0xB38], D0
00003024  4AAE FFDA                tst.l      [A6 - 0x26]
00003028  660A                     bne        +0xC /* 00003034 */
0000302A  3F3C 005F                move.w     -[A7], 0x5F /* '_' */
0000302E  2F0E                     move.l     -[A7], A6
00003030  4EBA FDAC                jsr        [PC - 0x254 /* 00002DDE */]
label00003034:
00003034  42A7                     clr.l      -[A7]
00003036  2F2E FFDA                move.l     -[A7], [A6 - 0x26]
0000303A  4EAD 1F6A                jsr        [A5 + 0x1F6A /* export_1001, CODE:19 @ 000016EC */]
0000303E  2D5F FFD6                move.l     [A6 - 0x2A], [A7]+
00003042  660A                     bne        +0xC /* 0000304E */
00003044  3F3C 0064                move.w     -[A7], 0x64 /* 'd' */
00003048  2F0E                     move.l     -[A7], A6
0000304A  4EBA FD92                jsr        [PC - 0x26E /* 00002DDE */]
label0000304E:
0000304E  7000                     moveq.l    D0, 0x00
00003050  2D40 FFC6                move.l     [A6 - 0x3A], D0
00003054  4AAE FFAA                tst.l      [A6 - 0x56]
00003058  6F00 0086                ble        +0x88 /* 000030E0 */
0000305C  42A7                     clr.l      -[A7]
0000305E  2F2E FFAA                move.l     -[A7], [A6 - 0x56]
00003062  2F3A 043A                move.l     -[A7], [PC + 0x43A /* 0000349E, value 0x424D4150 'BMAP' */]
00003066  4EAD 1F22                jsr        [A5 + 0x1F22 /* export_992, CODE:19 @ 000007F0 */]
0000306A  2D5F FFC6                move.l     [A6 - 0x3A], [A7]+
0000306E  660A                     bne        +0xC /* 0000307A */
00003070  3F3C 0069                move.w     -[A7], 0x69 /* 'i' */
00003074  2F0E                     move.l     -[A7], A6
00003076  4EBA FD66                jsr        [PC - 0x29A /* 00002DDE */]
label0000307A:
0000307A  42A7                     clr.l      -[A7]
0000307C  2F2E FFC6                move.l     -[A7], [A6 - 0x3A]
00003080  4EAD 1F72                jsr        [A5 + 0x1F72 /* export_1002, CODE:19 @ 00001718 */]
00003084  2D5F FFC2                move.l     [A6 - 0x3E], [A7]+
00003088  660A                     bne        +0xC /* 00003094 */
0000308A  3F3C 006E                move.w     -[A7], 0x6E /* 'n' */
0000308E  2F0E                     move.l     -[A7], A6
00003090  4EBA FD4C                jsr        [PC - 0x2B4 /* 00002DDE */]
label00003094:
00003094  206E FFC2                movea.l    A0, [A6 - 0x3E]
00003098  2050                     movea.l    A0, [A0]
0000309A  2D50 FFBA                move.l     [A6 - 0x46], [A0]
0000309E  206E FFC2                movea.l    A0, [A6 - 0x3E]
000030A2  2050                     movea.l    A0, [A0]
000030A4  2D68 0008 FFB6           move.l     [A6 - 0x4A], [A0 + 0x8]
000030AA  206E FFBE                movea.l    A0, [A6 - 0x42]
000030AE  2F10                     move.l     -[A7], [A0]
000030B0  206E FFC2                movea.l    A0, [A6 - 0x3E]
000030B4  2F10                     move.l     -[A7], [A0]
000030B6  2F2E FFAA                move.l     -[A7], [A6 - 0x56]
000030BA  4EAD 19B2                jsr        [A5 + 0x19B2 /* export_818, CODE:16 @ 000010BE */]
000030BE  206E FFC2                movea.l    A0, [A6 - 0x3E]
000030C2  2050                     movea.l    A0, [A0]
000030C4  20AE FFBA                move.l     [A0], [A6 - 0x46]
000030C8  206E FFC2                movea.l    A0, [A6 - 0x3E]
000030CC  2050                     movea.l    A0, [A0]
000030CE  216E FFB6 0008           move.l     [A0 + 0x8], [A6 - 0x4A]
000030D4  2F2E FFC6                move.l     -[A7], [A6 - 0x3A]
000030D8  1F3C 0001                move.b     -[A7], 0x1
000030DC  4EAD 1EEA                jsr        [A5 + 0x1EEA /* export_985, CODE:19 @ 00000432 */]
label000030E0:
000030E0  2D6D F622 FFF2           move.l     [A6 - 0xE], [A5 - 0x9DE]
000030E6  42A7                     clr.l      -[A7]
000030E8  2F2E FFF2                move.l     -[A7], [A6 - 0xE]
000030EC  4EAD 1F6A                jsr        [A5 + 0x1F6A /* export_1001, CODE:19 @ 000016EC */]
000030F0  2D5F FFCE                move.l     [A6 - 0x32], [A7]+
000030F4  660A                     bne        +0xC /* 00003100 */
000030F6  3F3C 0078                move.w     -[A7], 0x78 /* 'x' */
000030FA  2F0E                     move.l     -[A7], A6
000030FC  4EBA FCE0                jsr        [PC - 0x320 /* 00002DDE */]
label00003100:
00003100  206E FFCE                movea.l    A0, [A6 - 0x32]
00003104  2050                     movea.l    A0, [A0]
00003106  2D68 0018 FFEE           move.l     [A6 - 0x12], [A0 + 0x18]
0000310C  42A7                     clr.l      -[A7]
0000310E  2F2E FFEE                move.l     -[A7], [A6 - 0x12]
00003112  4EAD 1F6A                jsr        [A5 + 0x1F6A /* export_1001, CODE:19 @ 000016EC */]
00003116  2D5F FFD2                move.l     [A6 - 0x2E], [A7]+
0000311A  6614                     bne        +0x16 /* 00003130 */
0000311C  2F2E FFF2                move.l     -[A7], [A6 - 0xE]
00003120  4267                     clr.w      -[A7]
00003122  4EAD 1EE2                jsr        [A5 + 0x1EE2 /* export_984, CODE:19 @ 00000414 */]
00003126  3F3C 0082                move.w     -[A7], 0x82
0000312A  2F0E                     move.l     -[A7], A6
0000312C  4EBA FCB0                jsr        [PC - 0x350 /* 00002DDE */]
label00003130:
00003130  206E FFCE                movea.l    A0, [A6 - 0x32]
00003134  2050                     movea.l    A0, [A0]
00003136  216E FFDA 0018           move.l     [A0 + 0x18], [A6 - 0x26]
0000313C  206E FFD2                movea.l    A0, [A6 - 0x2E]
00003140  2050                     movea.l    A0, [A0]
00003142  216E FFDA 001C           move.l     [A0 + 0x1C], [A6 - 0x26]
00003148  2F2E FFF2                move.l     -[A7], [A6 - 0xE]
0000314C  1F3C 0001                move.b     -[A7], 0x1
00003150  4EAD 1EE2                jsr        [A5 + 0x1EE2 /* export_984, CODE:19 @ 00000414 */]
00003154  2F2E FFEE                move.l     -[A7], [A6 - 0x12]
00003158  1F3C 0001                move.b     -[A7], 0x1
0000315C  4EAD 1EE2                jsr        [A5 + 0x1EE2 /* export_984, CODE:19 @ 00000414 */]
00003160  202D F660                move.l     D0, [A5 - 0x9A0]
00003164  5280                     addq.l     D0, 1
00003166  2B40 F660                move.l     [A5 - 0x9A0], D0
0000316A  1B7C 0001 F63B           move.b     [A5 - 0x9C5], 0x1
00003170  206E FFD6                movea.l    A0, [A6 - 0x2A]
00003174  2050                     movea.l    A0, [A0]
00003176  2D50 FFBA                move.l     [A6 - 0x46], [A0]
0000317A  206E FFD6                movea.l    A0, [A6 - 0x2A]
0000317E  2050                     movea.l    A0, [A0]
00003180  2D68 0008 FFB6           move.l     [A6 - 0x4A], [A0 + 0x8]
00003186  206E FFCA                movea.l    A0, [A6 - 0x36]
0000318A  2F10                     move.l     -[A7], [A0]
0000318C  206E FFD6                movea.l    A0, [A6 - 0x2A]
00003190  2F10                     move.l     -[A7], [A0]
00003192  2F2E FFAE                move.l     -[A7], [A6 - 0x52]
00003196  4EAD 19B2                jsr        [A5 + 0x19B2 /* export_818, CODE:16 @ 000010BE */]
0000319A  206E FFD6                movea.l    A0, [A6 - 0x2A]
0000319E  2050                     movea.l    A0, [A0]
000031A0  2D48 FF1C                move.l     [A6 - 0xE4], A0
000031A4  20AE FFBA                move.l     [A0], [A6 - 0x46]
000031A8  206E FF1C                movea.l    A0, [A6 - 0xE4]
000031AC  216E FFB6 0008           move.l     [A0 + 0x8], [A6 - 0x4A]
000031B2  206E FF1C                movea.l    A0, [A6 - 0xE4]
000031B6  216E FFC6 000C           move.l     [A0 + 0xC], [A6 - 0x3A]
000031BC  206E FF1C                movea.l    A0, [A6 - 0xE4]
000031C0  7000                     moveq.l    D0, 0x00
000031C2  2140 0014                move.l     [A0 + 0x14], D0
000031C6  206E FF1C                movea.l    A0, [A6 - 0xE4]
000031CA  216E FFEE 0018           move.l     [A0 + 0x18], [A6 - 0x12]
000031D0  206E FF1C                movea.l    A0, [A6 - 0xE4]
000031D4  216E FFF2 001C           move.l     [A0 + 0x1C], [A6 - 0xE]
000031DA  2F2E FFDA                move.l     -[A7], [A6 - 0x26]
000031DE  1F3C 0001                move.b     -[A7], 0x1
000031E2  4EAD 1EE2                jsr        [A5 + 0x1EE2 /* export_984, CODE:19 @ 00000414 */]
000031E6  7000                     moveq.l    D0, 0x00
000031E8  2D40 FFD6                move.l     [A6 - 0x2A], D0
label000031EC:
000031EC  2F2E FFCA                move.l     -[A7], [A6 - 0x36]
000031F0  4EAD 1952                jsr        [A5 + 0x1952 /* export_806, CODE:16 @ 00000D00 */]
000031F4  7000                     moveq.l    D0, 0x00
000031F6  2D40 FFCA                move.l     [A6 - 0x36], D0
000031FA  4AAE FFBE                tst.l      [A6 - 0x42]
000031FE  6708                     beq        +0xA /* 00003208 */
00003200  2F2E FFBE                move.l     -[A7], [A6 - 0x42]
00003204  4EAD 1952                jsr        [A5 + 0x1952 /* export_806, CODE:16 @ 00000D00 */]
label00003208:
00003208  7000                     moveq.l    D0, 0x00
0000320A  2D40 FFBE                move.l     [A6 - 0x42], D0
0000320E  7000                     moveq.l    D0, 0x00
00003210  2D40 FFC6                move.l     [A6 - 0x3A], D0
00003214  42A7                     clr.l      -[A7]
00003216  42A7                     clr.l      -[A7]
00003218  2F3A 0288                move.l     -[A7], [PC + 0x288 /* 000034A2, value 0x43504943 'CPIC' */]
0000321C  486E FFFA                pea.l      [A6 - 0x6]
00003220  A9FD                     syscall    GetScrap
00003222  2D5F FFAA                move.l     [A6 - 0x56], [A7]+
00003226  6F00 00C2                ble        +0xC4 /* 000032EA */
0000322A  42A7                     clr.l      -[A7]
0000322C  2F2E FFAA                move.l     -[A7], [A6 - 0x56]
00003230  4EAD 196A                jsr        [A5 + 0x196A /* export_809, CODE:16 @ 00000DB2 */]
00003234  2D5F FFBE                move.l     [A6 - 0x42], [A7]+
00003238  660A                     bne        +0xC /* 00003244 */
0000323A  3F3C 0096                move.w     -[A7], 0x96
0000323E  2F0E                     move.l     -[A7], A6
00003240  4EBA FB9C                jsr        [PC - 0x464 /* 00002DDE */]
label00003244:
00003244  42A7                     clr.l      -[A7]
00003246  2F2E FFBE                move.l     -[A7], [A6 - 0x42]
0000324A  2F3A 0256                move.l     -[A7], [PC + 0x256 /* 000034A2, value 0x43504943 'CPIC' */]
0000324E  486E FFFA                pea.l      [A6 - 0x6]
00003252  A9FD                     syscall    GetScrap
00003254  2D5F FFAA                move.l     [A6 - 0x56], [A7]+
00003258  42A7                     clr.l      -[A7]
0000325A  2F2E FFAA                move.l     -[A7], [A6 - 0x56]
0000325E  2F3A 023E                move.l     -[A7], [PC + 0x23E /* 0000349E, value 0x424D4150 'BMAP' */]
00003262  4EAD 1F22                jsr        [A5 + 0x1F22 /* export_992, CODE:19 @ 000007F0 */]
00003266  2D5F FFC6                move.l     [A6 - 0x3A], [A7]+
0000326A  660A                     bne        +0xC /* 00003276 */
0000326C  3F3C 009B                move.w     -[A7], 0x9B
00003270  2F0E                     move.l     -[A7], A6
00003272  4EBA FB6A                jsr        [PC - 0x496 /* 00002DDE */]
label00003276:
00003276  42A7                     clr.l      -[A7]
00003278  2F2E FFC6                move.l     -[A7], [A6 - 0x3A]
0000327C  4EAD 1F72                jsr        [A5 + 0x1F72 /* export_1002, CODE:19 @ 00001718 */]
00003280  2D5F FFC2                move.l     [A6 - 0x3E], [A7]+
00003284  660A                     bne        +0xC /* 00003290 */
00003286  3F3C 00A0                move.w     -[A7], 0xA0
0000328A  2F0E                     move.l     -[A7], A6
0000328C  4EBA FB50                jsr        [PC - 0x4B0 /* 00002DDE */]
label00003290:
00003290  206E FFC2                movea.l    A0, [A6 - 0x3E]
00003294  2050                     movea.l    A0, [A0]
00003296  2D50 FFBA                move.l     [A6 - 0x46], [A0]
0000329A  206E FFC2                movea.l    A0, [A6 - 0x3E]
0000329E  2050                     movea.l    A0, [A0]
000032A0  2D68 0008 FFB6           move.l     [A6 - 0x4A], [A0 + 0x8]
000032A6  206E FFBE                movea.l    A0, [A6 - 0x42]
000032AA  2F10                     move.l     -[A7], [A0]
000032AC  206E FFC2                movea.l    A0, [A6 - 0x3E]
000032B0  2F10                     move.l     -[A7], [A0]
000032B2  2F2E FFAA                move.l     -[A7], [A6 - 0x56]
000032B6  4EAD 19B2                jsr        [A5 + 0x19B2 /* export_818, CODE:16 @ 000010BE */]
000032BA  2F2E FFBE                move.l     -[A7], [A6 - 0x42]
000032BE  4EAD 1952                jsr        [A5 + 0x1952 /* export_806, CODE:16 @ 00000D00 */]
000032C2  7000                     moveq.l    D0, 0x00
000032C4  2D40 FFBE                move.l     [A6 - 0x42], D0
000032C8  206E FFC2                movea.l    A0, [A6 - 0x3E]
000032CC  2050                     movea.l    A0, [A0]
000032CE  20AE FFBA                move.l     [A0], [A6 - 0x46]
000032D2  206E FFC2                movea.l    A0, [A6 - 0x3E]
000032D6  2050                     movea.l    A0, [A0]
000032D8  216E FFB6 0008           move.l     [A0 + 0x8], [A6 - 0x4A]
000032DE  2F2E FFC6                move.l     -[A7], [A6 - 0x3A]
000032E2  1F3C 0001                move.b     -[A7], 0x1
000032E6  4EAD 1EEA                jsr        [A5 + 0x1EEA /* export_985, CODE:19 @ 00000432 */]
label000032EA:
000032EA  486E FF26                pea.l      [A6 - 0xDA]
000032EE  2F3C 0000 0084           move.l     -[A7], 0x84
000032F4  4EAD 1B42                jsr        [A5 + 0x1B42 /* export_868, CODE:16 @ 00001E7C */]
000032F8  2D6E FFE6 FF26           move.l     [A6 - 0xDA], [A6 - 0x1A]
000032FE  42A7                     clr.l      -[A7]
00003300  4EAD 1DF2                jsr        [A5 + 0x1DF2 /* export_954, CODE:18 @ 000010BC */]
00003304  2D5F FF20                move.l     [A6 - 0xE0], [A7]+
00003308  4267                     clr.w      -[A7]
0000330A  2F2D F670                move.l     -[A7], [A5 - 0x990]
0000330E  2F2E FF20                move.l     -[A7], [A6 - 0xE0]
00003312  486E FF26                pea.l      [A6 - 0xDA]
00003316  4EAD 1E1A                jsr        [A5 + 0x1E1A /* export_959, CODE:18 @ 00001390 */]
0000331A  101F                     move.b     D0, [A7]+
0000331C  660A                     bne        +0xC /* 00003328 */
0000331E  3F3C 00AA                move.w     -[A7], 0xAA
00003322  2F0E                     move.l     -[A7], A6
00003324  4EBA FAB8                jsr        [PC - 0x548 /* 00002DDE */]
label00003328:
00003328  52AE FF20                addq.l     [A6 - 0xE0], 1
0000332C  206E FFE2                movea.l    A0, [A6 - 0x1E]
00003330  2050                     movea.l    A0, [A0]
00003332  2D50 FFBA                move.l     [A6 - 0x46], [A0]
00003336  206E FFE2                movea.l    A0, [A6 - 0x1E]
0000333A  2050                     movea.l    A0, [A0]
0000333C  2D68 0008 FFB6           move.l     [A6 - 0x4A], [A0 + 0x8]
00003342  206E FFDE                movea.l    A0, [A6 - 0x22]
00003346  2F10                     move.l     -[A7], [A0]
00003348  206E FFE2                movea.l    A0, [A6 - 0x1E]
0000334C  2F10                     move.l     -[A7], [A0]
0000334E  2F2E FFB2                move.l     -[A7], [A6 - 0x4E]
00003352  4EAD 19B2                jsr        [A5 + 0x19B2 /* export_818, CODE:16 @ 000010BE */]
00003356  2F2E FFDE                move.l     -[A7], [A6 - 0x22]
0000335A  4EAD 1952                jsr        [A5 + 0x1952 /* export_806, CODE:16 @ 00000D00 */]
0000335E  7000                     moveq.l    D0, 0x00
00003360  2D40 FFDE                move.l     [A6 - 0x22], D0
00003364  206E FFE2                movea.l    A0, [A6 - 0x1E]
00003368  2050                     movea.l    A0, [A0]
0000336A  2D48 FF18                move.l     [A6 - 0xE8], A0
0000336E  20AE FFBA                move.l     [A0], [A6 - 0x46]
00003372  206E FF18                movea.l    A0, [A6 - 0xE8]
00003376  216E FFB6 0008           move.l     [A0 + 0x8], [A6 - 0x4A]
0000337C  206E FF18                movea.l    A0, [A6 - 0xE8]
00003380  216E FFC6 000C           move.l     [A0 + 0xC], [A6 - 0x3A]
00003386  206E FF18                movea.l    A0, [A6 - 0xE8]
0000338A  216E FFDA 0020           move.l     [A0 + 0x20], [A6 - 0x26]
00003390  206E FF18                movea.l    A0, [A6 - 0xE8]
00003394  7000                     moveq.l    D0, 0x00
00003396  2140 0014                move.l     [A0 + 0x14], D0
0000339A  206E FF18                movea.l    A0, [A6 - 0xE8]
0000339E  7000                     moveq.l    D0, 0x00
000033A0  2140 0018                move.l     [A0 + 0x18], D0
000033A4  206E FF18                movea.l    A0, [A6 - 0xE8]
000033A8  216D F4C4 001C           move.l     [A0 + 0x1C], [A5 - 0xB3C]
000033AE  2F2E FFE6                move.l     -[A7], [A6 - 0x1A]
000033B2  1F3C 0001                move.b     -[A7], 0x1
000033B6  4EAD 1EF2                jsr        [A5 + 0x1EF2 /* export_986, CODE:19 @ 00000450 */]
000033BA  7000                     moveq.l    D0, 0x00
000033BC  2D40 FFE2                move.l     [A6 - 0x1E], D0
000033C0  202D F668                move.l     D0, [A5 - 0x998]
000033C4  5280                     addq.l     D0, 1
000033C6  2B40 F668                move.l     [A5 - 0x998], D0
000033CA  1B7C 0001 F63B           move.b     [A5 - 0x9C5], 0x1
000033D0  42A7                     clr.l      -[A7]
000033D2  2F2E FFDA                move.l     -[A7], [A6 - 0x26]
000033D6  4EAD 1F6A                jsr        [A5 + 0x1F6A /* export_1001, CODE:19 @ 000016EC */]
000033DA  2D5F FFD6                move.l     [A6 - 0x2A], [A7]+
000033DE  206E FFD6                movea.l    A0, [A6 - 0x2A]
000033E2  2050                     movea.l    A0, [A0]
000033E4  2028 0014                move.l     D0, [A0 + 0x14]
000033E8  5280                     addq.l     D0, 1
000033EA  206E FFD6                movea.l    A0, [A6 - 0x2A]
000033EE  2050                     movea.l    A0, [A0]
000033F0  2140 0014                move.l     [A0 + 0x14], D0
000033F4  2F2E FFDA                move.l     -[A7], [A6 - 0x26]
000033F8  1F3C 0001                move.b     -[A7], 0x1
000033FC  4EAD 1EE2                jsr        [A5 + 0x1EE2 /* export_984, CODE:19 @ 00000414 */]
00003400  7000                     moveq.l    D0, 0x00
00003402  2D40 FFD6                move.l     [A6 - 0x2A], D0
00003406  2F2D F670                move.l     -[A7], [A5 - 0x990]
0000340A  2F2E FF20                move.l     -[A7], [A6 - 0xE0]
0000340E  1F3C 0001                move.b     -[A7], 0x1
00003412  4EAD 1EC2                jsr        [A5 + 0x1EC2 /* export_980, CODE:18 @ 00003918 */]
00003416  2F2D F670                move.l     -[A7], [A5 - 0x990]
0000341A  202E FF20                move.l     D0, [A6 - 0xE0]
0000341E  5280                     addq.l     D0, 1
00003420  2F00                     move.l     -[A7], D0
00003422  1F3C 0001                move.b     -[A7], 0x1
00003426  4EAD 1EC2                jsr        [A5 + 0x1EC2 /* export_980, CODE:18 @ 00003918 */]
0000342A  41ED E2F2                lea.l      A0, [A5 - 0x1D0E]
0000342E  43ED ED82                lea.l      A1, [A5 - 0x127E]
00003432  20D9                     move.l     [A0]+, [A1]+
00003434  20D9                     move.l     [A0]+, [A1]+
00003436  2F2E FFE6                move.l     -[A7], [A6 - 0x1A]
0000343A  487A 0060                pea.l      [PC + 0x60 /* 0000349C, value 0x424D 'BM', cstring "" */]
0000343E  4EBA DF48                jsr        [PC - 0x20B8 /* 00001388 */]
label00003442:
00003442  4FEE FEF8                lea.l      A7, [A6 - 0x108]
00003446  4AAE FFDE                tst.l      [A6 - 0x22]
0000344A  6708                     beq        +0xA /* 00003454 */
0000344C  2F2E FFDE                move.l     -[A7], [A6 - 0x22]
00003450  4EAD 1952                jsr        [A5 + 0x1952 /* export_806, CODE:16 @ 00000D00 */]
label00003454:
00003454  4AAE FFCA                tst.l      [A6 - 0x36]
00003458  6708                     beq        +0xA /* 00003462 */
0000345A  2F2E FFCA                move.l     -[A7], [A6 - 0x36]
0000345E  4EAD 1952                jsr        [A5 + 0x1952 /* export_806, CODE:16 @ 00000D00 */]
label00003462:
00003462  4AAE FFBE                tst.l      [A6 - 0x42]
00003466  6708                     beq        +0xA /* 00003470 */
00003468  2F2E FFBE                move.l     -[A7], [A6 - 0x42]
0000346C  4EAD 1952                jsr        [A5 + 0x1952 /* export_806, CODE:16 @ 00000D00 */]
label00003470:
00003470  4AAE FFE2                tst.l      [A6 - 0x1E]
00003474  670C                     beq        +0xE /* 00003482 */
00003476  2F2E FFE6                move.l     -[A7], [A6 - 0x1A]
0000347A  1F3C 0001                move.b     -[A7], 0x1
0000347E  4EAD 1EF2                jsr        [A5 + 0x1EF2 /* export_986, CODE:19 @ 00000450 */]
label00003482:
00003482  4AAE FFD6                tst.l      [A6 - 0x2A]
00003486  670C                     beq        +0xE /* 00003494 */
00003488  2F2E FFDA                move.l     -[A7], [A6 - 0x26]
0000348C  1F3C 0001                move.b     -[A7], 0x1
00003490  4EAD 1EE2                jsr        [A5 + 0x1EE2 /* export_984, CODE:19 @ 00000414 */]
label00003494:
00003494  4CDF 1CF8                movem.l    D3,D4,D5,D6,D7,A2,A3,A4, [A7]+
00003498  4E5E                     unlink     A6
0000349A  4E75                     rts
0000349C  0000 424D                ori.b      D0, 0x4D /* 'M' */
000034A0  4150                     chk.w      D0, [A0]
000034A2  4350                     chk.w      D1, [A0]
000034A4  4943                     chk.w      D4, D3
000034A6  424B                     clr.w      A3
000034A8  4744                     chk.w      D3, D4
000034AA  4250                     clr.w      [A0]
000034AC  4943                     chk.w      D4, D3
000034AE  4341                     chk.w      D1, D1
000034B0  5244                     addq.w     D4, 1
fn000034B2:
000034B2  4E56 FFF8                link       A6, -0x0008
000034B6  48E7 0108                movem.l    -[A7], D7,A4
000034BA  286E 000E                movea.l    A4, [A6 + 0xE]
000034BE  3D6E 000C FFF8           move.w     [A6 - 0x8], [A6 + 0xC]
000034C4  7E01                     moveq.l    D7, 0x01
000034C6  601A                     bra        +0x1C /* 000034E2 */
label000034C8:
000034C8  202C 0004                move.l     D0, [A4 + 0x4]
000034CC  206E 0008                movea.l    A0, [A6 + 0x8]
000034D0  B0A8 0008                cmp.l      D0, [A0 + 0x8]
000034D4  6606                     bne        +0x8 /* 000034DC */
000034D6  296D F4E0 0004           move.l     [A4 + 0x4], [A5 - 0xB20]
label000034DC:
000034DC  508C                     addq.l     A4, 8
000034DE  5247                     addq.w     D7, 1
000034E0  6906                     bvs        +0x8 /* 000034E8 */
label000034E2:
000034E2  BE6E FFF8                cmp.w      D7, [A6 - 0x8]
000034E6  6FE0                     ble        -0x1E /* 000034C8 */
label000034E8:
000034E8  4CDF 1080                movem.l    D7,A4, [A7]+
000034EC  4E5E                     unlink     A6
000034EE  205F                     movea.l    A0, [A7]+
000034F0  DEFC 000A                add.w      A7, 0xA /* '\n' */
000034F4  4ED0                     jmp        [A0]
export_1063:
000034F6  4E56 FF00                link       A6, -0x0100
000034FA  486D E668                pea.l      [A5 - 0x1998]
000034FE  3F3C 00C8                move.w     -[A7], 0xC8
00003502  2F0E                     move.l     -[A7], A6
00003504  4EBA FFAC                jsr        [PC - 0x54 /* 000034B2 */]
00003508  486D E470                pea.l      [A5 - 0x1B90]
0000350C  3F3C 002A                move.w     -[A7], 0x2A /* '*' */
00003510  2F0E                     move.l     -[A7], A6
00003512  4EBA FF9E                jsr        [PC - 0x62 /* 000034B2 */]
00003516  4A6D FD8A                tst.w      [A5 - 0x276]
0000351A  6D1E                     blt        +0x20 /* 0000353A */
0000351C  2F2D EDC8                move.l     -[A7], [A5 - 0x1238]
00003520  486D FC48                pea.l      [A5 - 0x3B8]
00003524  486D FD48                pea.l      [A5 - 0x2B8]
00003528  486E FF00                pea.l      [A6 - 0x100]
0000352C  3F3C 0002                move.w     -[A7], 0x2
00003530  4EAD 050A                jsr        [A5 + 0x50A /* export_157, CODE:1 @ 0000531E */]
00003534  486E FF00                pea.l      [A6 - 0x100]
00003538  A91A                     syscall    SetWTitle
label0000353A:
0000353A  4E5E                     unlink     A6
0000353C  2E9F                     move.l     [A7], [A7]+
0000353E  4E75                     rts
fn00003540:
00003540  4E56 FFFC                link       A6, -0x0004
00003544  48E7 0308                movem.l    -[A7], D6,D7,A4
00003548  286E 0008                movea.l    A4, [A6 + 0x8]
0000354C  7004                     moveq.l    D0, 0x04
0000354E  B014                     cmp.b      D0, [A4]
00003550  665C                     bne        +0x5E /* 000035AE */
00003552  7002                     moveq.l    D0, 0x02
00003554  B02C 000A                cmp.b      D0, [A4 + 0xA]
00003558  6604                     bne        +0x6 /* 0000355E */
0000355A  7C01                     moveq.l    D6, 0x01
0000355C  600E                     bra        +0x10 /* 0000356C */
label0000355E:
0000355E  7001                     moveq.l    D0, 0x01
00003560  B02C 000A                cmp.b      D0, [A4 + 0xA]
00003564  6604                     bne        +0x6 /* 0000356A */
00003566  7CFF                     moveq.l    D6, 0xFFFFFFFF
00003568  6002                     bra        +0x4 /* 0000356C */
label0000356A:
0000356A  6042                     bra        +0x44 /* 000035AE */
label0000356C:
0000356C  3E2D E666                move.w     D7, [A5 - 0x199A]
label00003570:
00003570  DE46                     add.w      D7, D6
00003572  7001                     moveq.l    D0, 0x01
00003574  B047                     cmp.w      D0, D7
00003576  6F04                     ble        +0x6 /* 0000357C */
00003578  3E3C 00C8                move.w     D7, 0xC8
label0000357C:
0000357C  0C47 00C8                cmpi.w     D7, 0xC8
00003580  6F02                     ble        +0x4 /* 00003584 */
00003582  7E01                     moveq.l    D7, 0x01
label00003584:
00003584  3007                     move.w     D0, D7
00003586  5340                     subq.w     D0, 1
00003588  41ED E668                lea.l      A0, [A5 - 0x1998]
0000358C  E740                     asl        D0.w, 3
0000358E  4AB0 0000                tst.l      [A0 + D0.w]
00003592  56C0                     sne        D0
00003594  BE6D E666                cmp.w      D7, [A5 - 0x199A]
00003598  57C1                     seq        D1
0000359A  8001                     or.b       D0, D1
0000359C  67D2                     beq        -0x2C /* 00003570 */
0000359E  3007                     move.w     D0, D7
000035A0  5340                     subq.w     D0, 1
000035A2  41ED E668                lea.l      A0, [A5 - 0x1998]
000035A6  E740                     asl        D0.w, 3
000035A8  2970 0004 0058           move.l     [A4 + 0x58], [A0 + D0.w + 0x4]
label000035AE:
000035AE  4CDF 10C0                movem.l    D6,D7,A4, [A7]+
000035B2  4E5E                     unlink     A6
000035B4  2E9F                     move.l     [A7], [A7]+
000035B6  4E75                     rts
export_1064:
000035B8  4E56 FFFC                link       A6, -0x0004
000035BC  48E7 0018                movem.l    -[A7], A3,A4
000035C0  266E 000C                movea.l    A3, [A6 + 0xC]
000035C4  422E 0014                clr.b      [A6 + 0x14]
000035C8  7001                     moveq.l    D0, 0x01
000035CA  B053                     cmp.w      D0, [A3]
000035CC  6628                     bne        +0x2A /* 000035F6 */
000035CE  286E 0010                movea.l    A4, [A6 + 0x10]
000035D2  4267                     clr.w      -[A7]
000035D4  2F2B 000A                move.l     -[A7], [A3 + 0xA]
000035D8  2F2C 0072                move.l     -[A7], [A4 + 0x72]
000035DC  A8E8                     syscall    PtInRgn
000035DE  101F                     move.b     D0, [A7]+
000035E0  6614                     bne        +0x16 /* 000035F6 */
000035E2  2B6B 000A DED0           move.l     [A5 - 0x2130], [A3 + 0xA]
000035E8  206E 0008                movea.l    A0, [A6 + 0x8]
000035EC  30BC 0004                move.w     [A0], 0x4
000035F0  1D7C 0001 0014           move.b     [A6 + 0x14], 0x1
label000035F6:
000035F6  4CDF 1800                movem.l    A3,A4, [A7]+
000035FA  4E5E                     unlink     A6
000035FC  205F                     movea.l    A0, [A7]+
000035FE  DEFC 000C                add.w      A7, 0xC
00003602  4ED0                     jmp        [A0]
export_1065:
fn00003604:
00003604  4E56 FFFC                link       A6, -0x0004
00003608  426E 000C                clr.w      [A6 + 0xC]
0000360C  4267                     clr.w      -[A7]
0000360E  2F2E 0008                move.l     -[A7], [A6 + 0x8]
00003612  486D EF38                pea.l      [A5 - 0x10C8]
00003616  A8AD                     syscall    PtInRect
00003618  101F                     move.b     D0, [A7]+
0000361A  672E                     beq        +0x30 /* 0000364A */
0000361C  302E 0008                move.w     D0, [A6 + 0x8]
00003620  48C0                     ext.l      D0
00003622  81FC 000D                divs.w     D0, 0xD /* '\r' */
00003626  3D40 FFFC                move.w     [A6 - 0x4], D0
0000362A  302E 000A                move.w     D0, [A6 + 0xA]
0000362E  48C0                     ext.l      D0
00003630  81FC 0012                divs.w     D0, 0x12
00003634  3D40 FFFE                move.w     [A6 - 0x2], D0
00003638  302E FFFC                move.w     D0, [A6 - 0x4]
0000363C  5240                     addq.w     D0, 1
0000363E  720A                     moveq.l    D1, 0x0A
00003640  C3EE FFFE                muls.w     D1, [A6 - 0x2]
00003644  D240                     add.w      D1, D0
00003646  3D41 000C                move.w     [A6 + 0xC], D1
label0000364A:
0000364A  4E5E                     unlink     A6
0000364C  2E9F                     move.l     [A7], [A7]+
0000364E  4E75                     rts
fn00003650:
00003650  4E56 FFF4                link       A6, -0x000C
00003654  7001                     moveq.l    D0, 0x01
00003656  B06E 000C                cmp.w      D0, [A6 + 0xC]
0000365A  5EC0                     sgt        D0
0000365C  7228                     moveq.l    D1, 0x28
0000365E  B26E 000C                cmp.w      D1, [A6 + 0xC]
00003662  5DC1                     slt        D1
00003664  8001                     or.b       D0, D1
00003666  6702                     beq        +0x4 /* 0000366A */
00003668  604C                     bra        +0x4E /* 000036B6 */
label0000366A:
0000366A  3F2E 000C                move.w     -[A7], [A6 + 0xC]
0000366E  486E FFF8                pea.l      [A6 - 0x8]
00003672  4EAD 15A2                jsr        [A5 + 0x15A2 /* export_688, CODE:15 @ 000009C4 */]
00003676  486E FFF8                pea.l      [A6 - 0x8]
0000367A  226E 0008                movea.l    A1, [A6 + 0x8]
0000367E  2069 0010                movea.l    A0, [A1 + 0x10]
00003682  3F28 0002                move.w     -[A7], [A0 + 0x2]
00003686  226E 0008                movea.l    A1, [A6 + 0x8]
0000368A  2069 0010                movea.l    A0, [A1 + 0x10]
0000368E  3F10                     move.w     -[A7], [A0]
00003690  A8A8                     syscall    OffsetRect
00003692  A89E                     syscall    PenNormal
00003694  3F3C 000A                move.w     -[A7], 0xA /* '\n' */
00003698  A89C                     syscall    PenMode
0000369A  2F3C 0002 0002           move.l     -[A7], 0x20002
000036A0  A89B                     syscall    PenSize
000036A2  486E FFF8                pea.l      [A6 - 0x8]
000036A6  2F3C FFFF FFFF           move.l     -[A7], 0xFFFFFFFF
000036AC  A8A9                     syscall    InsetRect
000036AE  486E FFF8                pea.l      [A6 - 0x8]
000036B2  A8A1                     syscall    FrameRect
000036B4  A89E                     syscall    PenNormal
label000036B6:
000036B6  4E5E                     unlink     A6
000036B8  205F                     movea.l    A0, [A7]+
000036BA  5C4F                     addq.w     A7, 6
000036BC  4ED0                     jmp        [A0]
export_1066:
000036BE  4E56 FFDC                link       A6, -0x0024
000036C2  48E7 0F18                movem.l    -[A7], D4,D5,D6,D7,A3,A4
000036C6  2C2E 0008                move.l     D6, [A6 + 0x8]
000036CA  382E 0018                move.w     D4, [A6 + 0x18]
000036CE  2F0D                     move.l     -[A7], A5
000036D0  2A78 0904                movea.l    A5, [0x00000904 /* CurrentA5 */]
000036D4  4A44                     tst.w      D4
000036D6  6612                     bne        +0x14 /* 000036EA */
000036D8  2F2E 0010                move.l     -[A7], [A6 + 0x10]
000036DC  4EAD 16C2                jsr        [A5 + 0x16C2 /* export_724, CODE:15 @ 00003DD2 */]
000036E0  1B7C 0001 E08A           move.b     [A5 - 0x1F76], 0x1
000036E6  6000 01AA                bra        +0x1AC /* 00003892 */
label000036EA:
000036EA  7001                     moveq.l    D0, 0x01
000036EC  B044                     cmp.w      D0, D4
000036EE  6600 0184                bne        +0x186 /* 00003874 */
000036F2  2D6E 000C FFDE           move.l     [A6 - 0x22], [A6 + 0xC]
000036F8  206E 0010                movea.l    A0, [A6 + 0x10]
000036FC  2F10                     move.l     -[A7], [A0]
000036FE  486E FFDE                pea.l      [A6 - 0x22]
00003702  A87F                     syscall    SubPt
00003704  4267                     clr.w      -[A7]
00003706  2F2E FFDE                move.l     -[A7], [A6 - 0x22]
0000370A  4EBA FEF8                jsr        [PC - 0x108 /* 00003604 */]
0000370E  3E1F                     move.w     D7, [A7]+
00003710  4267                     clr.w      -[A7]
00003712  A974                     syscall    Button
00003714  101F                     move.b     D0, [A7]+
00003716  0A00 0001                xori.b     D0, 0x1
0000371A  C02D E08A                and.b      D0, [A5 - 0x1F76]
0000371E  4A47                     tst.w      D7
00003720  56C1                     sne        D1
00003722  C001                     and.b      D0, D1
00003724  671E                     beq        +0x20 /* 00003744 */
00003726  3A2D EF42                move.w     D5, [A5 - 0x10BE]
0000372A  3F07                     move.w     -[A7], D7
0000372C  4267                     clr.w      -[A7]
0000372E  4EAD 15E2                jsr        [A5 + 0x15E2 /* export_696, CODE:15 @ 00000D72 */]
00003732  2F2E 0010                move.l     -[A7], [A6 + 0x10]
00003736  4EAD 16C2                jsr        [A5 + 0x16C2 /* export_724, CODE:15 @ 00003DD2 */]
0000373A  3B45 EF42                move.w     [A5 - 0x10BE], D5
0000373E  422D E08A                clr.b      [A5 - 0x1F76]
00003742  6018                     bra        +0x1A /* 0000375C */
label00003744:
00003744  2046                     movea.l    A0, D6
00003746  3F10                     move.w     -[A7], [A0]
00003748  2F0E                     move.l     -[A7], A6
0000374A  4EBA FF04                jsr        [PC - 0xFC /* 00003650 */]
0000374E  2046                     movea.l    A0, D6
00003750  BE50                     cmp.w      D7, [A0]
00003752  6608                     bne        +0xA /* 0000375C */
00003754  3F3C 0002                move.w     -[A7], 0x2
00003758  4EAD 1872                jsr        [A5 + 0x1872 /* export_778, CODE:16 @ 000004E4 */]
label0000375C:
0000375C  3F07                     move.w     -[A7], D7
0000375E  2F0E                     move.l     -[A7], A6
00003760  4EBA FEEE                jsr        [PC - 0x112 /* 00003650 */]
00003764  2046                     movea.l    A0, D6
00003766  BE50                     cmp.w      D7, [A0]
00003768  6608                     bne        +0xA /* 00003772 */
0000376A  3F3C 0002                move.w     -[A7], 0x2
0000376E  4EAD 1872                jsr        [A5 + 0x1872 /* export_778, CODE:16 @ 000004E4 */]
label00003772:
00003772  2046                     movea.l    A0, D6
00003774  3087                     move.w     [A0], D7
00003776  A89E                     syscall    PenNormal
00003778  206E 0010                movea.l    A0, [A6 + 0x10]
0000377C  43EE FFE2                lea.l      A1, [A6 - 0x1E]
00003780  22D8                     move.l     [A1]+, [A0]+
00003782  22D8                     move.l     [A1]+, [A0]+
00003784  486E FFE2                pea.l      [A6 - 0x1E]
00003788  2F3C FFF1 FFF1           move.l     -[A7], 0xFFF1FFF1
0000378E  A8A9                     syscall    InsetRect
00003790  426D E088                clr.w      [A5 - 0x1F78]
00003794  7032                     moveq.l    D0, 0x32
00003796  B06E 000C                cmp.w      D0, [A6 + 0xC]
0000379A  5DC0                     slt        D0
0000379C  2F00                     move.l     -[A7], D0
0000379E  4267                     clr.w      -[A7]
000037A0  2F2E 000C                move.l     -[A7], [A6 + 0xC]
000037A4  486E FFE2                pea.l      [A6 - 0x1E]
000037A8  A8AD                     syscall    PtInRect
000037AA  121F                     move.b     D1, [A7]+
000037AC  201F                     move.l     D0, [A7]+
000037AE  0A01 0001                xori.b     D1, 0x1
000037B2  C001                     and.b      D0, D1
000037B4  6700 00BC                beq        +0xBE /* 00003872 */
000037B8  3B7C 0009 E088           move.w     [A5 - 0x1F78], 0x9 /* '\t' */
000037BE  206D FEA8                movea.l    A0, [A5 - 0x158]
000037C2  2668 001C                movea.l    A3, [A0 + 0x1C]
000037C6  42A7                     clr.l      -[A7]
000037C8  A8D8                     syscall    NewRgn
000037CA  285F                     movea.l    A4, [A7]+
000037CC  2054                     movea.l    A0, [A4]
000037CE  5488                     addq.l     A0, 2
000037D0  43ED FE34                lea.l      A1, [A5 - 0x1CC]
000037D4  20D9                     move.l     [A0]+, [A1]+
000037D6  20D9                     move.l     [A0]+, [A1]+
000037D8  2053                     movea.l    A0, [A3]
000037DA  2254                     movea.l    A1, [A4]
000037DC  3368 0002 0002           move.w     [A1 + 0x2], [A0 + 0x2]
000037E2  206D FEA8                movea.l    A0, [A5 - 0x158]
000037E6  214C 001C                move.l     [A0 + 0x1C], A4
000037EA  302E 000E                move.w     D0, [A6 + 0xE]
000037EE  907C 0023                sub.w      D0, 0x23 /* '#' */
000037F2  3D40 FFEC                move.w     [A6 - 0x14], D0
000037F6  302E 000C                move.w     D0, [A6 + 0xC]
000037FA  907C 0040                sub.w      D0, 0x40 /* '@' */
000037FE  3D40 FFEA                move.w     [A6 - 0x16], D0
00003802  7016                     moveq.l    D0, 0x16
00003804  B06E FFEA                cmp.w      D0, [A6 - 0x16]
00003808  6F06                     ble        +0x8 /* 00003810 */
0000380A  3D7C 0016 FFEA           move.w     [A6 - 0x16], 0x16
label00003810:
00003810  302E FFEC                move.w     D0, [A6 - 0x14]
00003814  D07C 0047                add.w      D0, 0x47 /* 'G' */
00003818  5640                     addq.w     D0, 3
0000381A  3D40 FFF0                move.w     [A6 - 0x10], D0
0000381E  302E FFEA                move.w     D0, [A6 - 0x16]
00003822  D07C 0081                add.w      D0, 0x81
00003826  D07C 0015                add.w      D0, 0x15
0000382A  3D40 FFEE                move.w     [A6 - 0x12], D0
0000382E  486D FE90                pea.l      [A5 - 0x170]
00003832  A89D                     syscall    PenPat
00003834  3F3C 000E                move.w     -[A7], 0xE
00003838  A89C                     syscall    PenMode
0000383A  486E FFEA                pea.l      [A6 - 0x16]
0000383E  A8A1                     syscall    FrameRect
00003840  3F3C 0002                move.w     -[A7], 0x2
00003844  4EAD 1872                jsr        [A5 + 0x1872 /* export_778, CODE:16 @ 000004E4 */]
00003848  486E FFEA                pea.l      [A6 - 0x16]
0000384C  A8A1                     syscall    FrameRect
0000384E  A89E                     syscall    PenNormal
00003850  2F0C                     move.l     -[A7], A4
00003852  A8D9                     syscall    DisposRgn/DisposeRgn
00003854  206D FEA8                movea.l    A0, [A5 - 0x158]
00003858  214B 001C                move.l     [A0 + 0x1C], A3
0000385C  302E FFEC                move.w     D0, [A6 - 0x14]
00003860  5240                     addq.w     D0, 1
00003862  3B40 E086                move.w     [A5 - 0x1F7A], D0
00003866  302E FFEA                move.w     D0, [A6 - 0x16]
0000386A  D07C 000B                add.w      D0, 0xB
0000386E  3B40 E084                move.w     [A5 - 0x1F7C], D0
label00003872:
00003872  601E                     bra        +0x20 /* 00003892 */
label00003874:
00003874  7002                     moveq.l    D0, 0x02
00003876  B044                     cmp.w      D0, D4
00003878  6618                     bne        +0x1A /* 00003892 */
0000387A  206E 0014                movea.l    A0, [A6 + 0x14]
0000387E  2050                     movea.l    A0, [A0]
00003880  317C 0047 0002           move.w     [A0 + 0x2], 0x47 /* 'G' */
00003886  206E 0014                movea.l    A0, [A6 + 0x14]
0000388A  2050                     movea.l    A0, [A0]
0000388C  317C 0081 0004           move.w     [A0 + 0x4], 0x81
label00003892:
00003892  2A5F                     movea.l    A5, [A7]+
00003894  4CDF 18F0                movem.l    D4,D5,D6,D7,A3,A4, [A7]+
00003898  4E5E                     unlink     A6
0000389A  205F                     movea.l    A0, [A7]+
0000389C  DEFC 0012                add.w      A7, 0x12
000038A0  4ED0                     jmp        [A0]
export_1067:
fn000038A2:
000038A2  4E56 FDF4                link       A6, -0x020C
000038A6  2F0C                     move.l     -[A7], A4
000038A8  206E 0008                movea.l    A0, [A6 + 0x8]
000038AC  43EE FF00                lea.l      A1, [A6 - 0x100]
000038B0  703F                     moveq.l    D0, 0x3F
label000038B2:
000038B2  22D8                     move.l     [A1]+, [A0]+
000038B4  51C8 FFFC                dbf        D0, -0x6 /* 000038B2 */
000038B8  486E FEFC                pea.l      [A6 - 0x104]
000038BC  A874                     syscall    GetPort
000038BE  2F2D EDB8                move.l     -[A7], [A5 - 0x1248]
000038C2  A873                     syscall    SetPort
000038C4  4EAD 160A                jsr        [A5 + 0x160A /* export_701, CODE:15 @ 00001282 */]
000038C8  486E FDF4                pea.l      [A6 - 0x20C]
000038CC  4EAD 17A2                jsr        [A5 + 0x17A2 /* export_752, CODE:15 @ 00006424 */]
000038D0  205F                     movea.l    A0, [A7]+
000038D2  486E FF00                pea.l      [A6 - 0x100]
000038D6  2F08                     move.l     -[A7], A0
000038D8  4EAD 052A                jsr        [A5 + 0x52A /* export_161, CODE:1 @ 0000543C */]
000038DC  101F                     move.b     D0, [A7]+
000038DE  672C                     beq        +0x2E /* 0000390C */
000038E0  42A7                     clr.l      -[A7]
000038E2  486E FF00                pea.l      [A6 - 0x100]
000038E6  4EAD 1B52                jsr        [A5 + 0x1B52 /* export_870, CODE:16 @ 00001EBC */]
000038EA  285F                     movea.l    A4, [A7]+
000038EC  2D4C FEF4                move.l     [A6 - 0x10C], A4
000038F0  486E FEF4                pea.l      [A6 - 0x10C]
000038F4  4EAD 1AA2                jsr        [A5 + 0x1AA2 /* export_848, CODE:16 @ 00001A3E */]
000038F8  2F0C                     move.l     -[A7], A4
000038FA  202E FEF4                move.l     D0, [A6 - 0x10C]
000038FE  908C                     sub.l      D0, A4
00003900  2F00                     move.l     -[A7], D0
00003902  2F2D EDAC                move.l     -[A7], [A5 - 0x1254]
00003906  A9CF                     syscall    TESetText
00003908  4EBA 268C                jsr        [PC + 0x268C /* 00005F96 */]
label0000390C:
0000390C  206D ED9A                movea.l    A0, [A5 - 0x1266]
00003910  1028 006E                move.b     D0, [A0 + 0x6E]
00003914  6608                     bne        +0xA /* 0000391E */
00003916  2F2D EDB8                move.l     -[A7], [A5 - 0x1248]
0000391A  4EBA 1AA2                jsr        [PC + 0x1AA2 /* 000053BE */]
label0000391E:
0000391E  422D EDAA                clr.b      [A5 - 0x1256]
00003922  2F2E FEFC                move.l     -[A7], [A6 - 0x104]
00003926  A873                     syscall    SetPort
00003928  285F                     movea.l    A4, [A7]+
0000392A  4E5E                     unlink     A6
0000392C  2E9F                     move.l     [A7], [A7]+
0000392E  4E75                     rts
export_1068:
fn00003930:
00003930  4E56 0000                link       A6, 0
00003934  4A6D FD8A                tst.w      [A5 - 0x276]
00003938  5CC0                     sge        D0
0000393A  C02D E0E7                and.b      D0, [A5 - 0x1F19]
0000393E  6706                     beq        +0x8 /* 00003946 */
00003940  4267                     clr.w      -[A7]
00003942  A938                     syscall    HiliteMenu
00003944  A937                     syscall    DrawMenuBar
label00003946:
00003946  2F2D EDC8                move.l     -[A7], [A5 - 0x1238]
0000394A  A873                     syscall    SetPort
0000394C  4E5E                     unlink     A6
0000394E  4E75                     rts
export_1069:
fn00003950:
00003950  4E56 FFFE                link       A6, -0x0002
00003954  102D F2B3                move.b     D0, [A5 - 0xD4D]
00003958  6716                     beq        +0x18 /* 00003970 */
0000395A  2F3C 0008 0000           move.l     -[A7], 0x80000
00003960  2F2D DC6C                move.l     -[A7], [A5 - 0x2394]
00003964  2F3C 8206 000A           move.l     -[A7], 0x8206000A
0000396A  A8B5                     syscall    ScriptUtil
0000396C  3D5F FFFE                move.w     [A6 - 0x2], [A7]+
label00003970:
00003970  4267                     clr.w      -[A7]
00003972  A887                     syscall    TextFont
00003974  4E5E                     unlink     A6
00003976  4E75                     rts
fn00003978:
00003978  4E56 FAF8                link       A6, -0x0508
0000397C  2F0C                     move.l     -[A7], A4
0000397E  206E 0008                movea.l    A0, [A6 + 0x8]
00003982  43EE FF00                lea.l      A1, [A6 - 0x100]
00003986  703F                     moveq.l    D0, 0x3F
label00003988:
00003988  22D8                     move.l     [A1]+, [A0]+
0000398A  51C8 FFFC                dbf        D0, -0x6 /* 00003988 */
0000398E  1D7C 0001 000C           move.b     [A6 + 0xC], 0x1
00003994  7000                     moveq.l    D0, 0x00
00003996  2840                     movea.l    A4, D0
00003998  4240                     clr.w      D0
0000399A  102E FF00                move.b     D0, [A6 - 0x100]
0000399E  4A40                     tst.w      D0
000039A0  6700 0114                beq        +0x116 /* 00003AB6 */
000039A4  4267                     clr.w      -[A7]
000039A6  486E FF00                pea.l      [A6 - 0x100]
000039AA  486D F5FE                pea.l      [A5 - 0xA02]
000039AE  4EAD 1AC2                jsr        [A5 + 0x1AC2 /* export_852, CODE:16 @ 00001B82 */]
000039B2  101F                     move.b     D0, [A7]+
000039B4  6728                     beq        +0x2A /* 000039DE */
000039B6  4267                     clr.w      -[A7]
000039B8  486D FD48                pea.l      [A5 - 0x2B8]
000039BC  486D F5FE                pea.l      [A5 - 0xA02]
000039C0  4EAD 1AC2                jsr        [A5 + 0x1AC2 /* export_852, CODE:16 @ 00001B82 */]
000039C4  4267                     clr.w      -[A7]
000039C6  486D FC48                pea.l      [A5 - 0x3B8]
000039CA  486D F4FE                pea.l      [A5 - 0xB02]
000039CE  4EAD 1AC2                jsr        [A5 + 0x1AC2 /* export_852, CODE:16 @ 00001B82 */]
000039D2  101F                     move.b     D0, [A7]+
000039D4  C01F                     and.b      D0, [A7]+
000039D6  1D40 000C                move.b     [A6 + 0xC], D0
000039DA  6000 00DA                bra        +0xDC /* 00003AB6 */
label000039DE:
000039DE  486E FF00                pea.l      [A6 - 0x100]
000039E2  486E FD00                pea.l      [A6 - 0x300]
000039E6  486E FC00                pea.l      [A6 - 0x400]
000039EA  4EAD 1FDA                jsr        [A5 + 0x1FDA /* export_1015, CODE:19 @ 000021B0 */]
000039EE  4267                     clr.w      -[A7]
000039F0  486E FC00                pea.l      [A6 - 0x400]
000039F4  486D FD48                pea.l      [A5 - 0x2B8]
000039F8  4EAD 1AC2                jsr        [A5 + 0x1AC2 /* export_852, CODE:16 @ 00001B82 */]
000039FC  101F                     move.b     D0, [A7]+
000039FE  6604                     bne        +0x6 /* 00003A04 */
00003A00  6000 00A6                bra        +0xA8 /* 00003AA8 */
label00003A04:
00003A04  4240                     clr.w      D0
00003A06  102E FD00                move.b     D0, [A6 - 0x300]
00003A0A  4A40                     tst.w      D0
00003A0C  6700 00A8                beq        +0xAA /* 00003AB6 */
00003A10  486D FC48                pea.l      [A5 - 0x3B8]
00003A14  486D FD48                pea.l      [A5 - 0x2B8]
00003A18  486E FAF8                pea.l      [A6 - 0x508]
00003A1C  3F3C 0002                move.w     -[A7], 0x2
00003A20  4EAD 050A                jsr        [A5 + 0x50A /* export_157, CODE:1 @ 0000531E */]
00003A24  41EE FE00                lea.l      A0, [A6 - 0x200]
00003A28  43EE FAF8                lea.l      A1, [A6 - 0x508]
00003A2C  703F                     moveq.l    D0, 0x3F
label00003A2E:
00003A2E  20D9                     move.l     [A0]+, [A1]+
00003A30  51C8 FFFC                dbf        D0, -0x6 /* 00003A2E */
00003A34  4267                     clr.w      -[A7]
00003A36  486E FF00                pea.l      [A6 - 0x100]
00003A3A  486E FE00                pea.l      [A6 - 0x200]
00003A3E  4EAD 1AC2                jsr        [A5 + 0x1AC2 /* export_852, CODE:16 @ 00001B82 */]
00003A42  101F                     move.b     D0, [A7]+
00003A44  6670                     bne        +0x72 /* 00003AB6 */
00003A46  42A7                     clr.l      -[A7]
00003A48  487A 0074                pea.l      [PC + 0x74 /* 00003ABE, value 0x6737461, pstring "stacks" */]
00003A4C  4EAD 0A0A                jsr        [A5 + 0xA0A /* export_317, CODE:8 @ 0000139A */]
00003A50  285F                     movea.l    A4, [A7]+
00003A52  2F0C                     move.l     -[A7], A4
00003A54  4EAD 0222                jsr        [A5 + 0x222 /* export_64, CODE:1 @ 00004678 */]
00003A58  2D54 FBF8                move.l     [A6 - 0x408], [A4]
label00003A5C:
00003A5C  486E FBF8                pea.l      [A6 - 0x408]
00003A60  486E FD00                pea.l      [A6 - 0x300]
00003A64  4EAD 189A                jsr        [A5 + 0x189A /* export_783, CODE:16 @ 000005D6 */]
00003A68  486E FD00                pea.l      [A6 - 0x300]
00003A6C  486E FF00                pea.l      [A6 - 0x100]
00003A70  486E FAF8                pea.l      [A6 - 0x508]
00003A74  3F3C 0002                move.w     -[A7], 0x2
00003A78  4EAD 050A                jsr        [A5 + 0x50A /* export_157, CODE:1 @ 0000531E */]
00003A7C  41EE FC00                lea.l      A0, [A6 - 0x400]
00003A80  43EE FAF8                lea.l      A1, [A6 - 0x508]
00003A84  703F                     moveq.l    D0, 0x3F
label00003A86:
00003A86  20D9                     move.l     [A0]+, [A1]+
00003A88  51C8 FFFC                dbf        D0, -0x6 /* 00003A86 */
00003A8C  4267                     clr.w      -[A7]
00003A8E  486E FC00                pea.l      [A6 - 0x400]
00003A92  486E FE00                pea.l      [A6 - 0x200]
00003A96  4EAD 1AC2                jsr        [A5 + 0x1AC2 /* export_852, CODE:16 @ 00001B82 */]
00003A9A  101F                     move.b     D0, [A7]+
00003A9C  660E                     bne        +0x10 /* 00003AAC */
00003A9E  4240                     clr.w      D0
00003AA0  102E FD00                move.b     D0, [A6 - 0x300]
00003AA4  4A40                     tst.w      D0
00003AA6  66B4                     bne        -0x4A /* 00003A5C */
label00003AA8:
00003AA8  422E 000C                clr.b      [A6 + 0xC]
label00003AAC:
00003AAC  200C                     move.l     D0, A4
00003AAE  6706                     beq        +0x8 /* 00003AB6 */
00003AB0  2F0C                     move.l     -[A7], A4
00003AB2  4EAD 18D2                jsr        [A5 + 0x18D2 /* export_790, CODE:16 @ 0000083E */]
label00003AB6:
00003AB6  285F                     movea.l    A4, [A7]+
00003AB8  4E5E                     unlink     A6
00003ABA  2E9F                     move.l     [A7], [A7]+
00003ABC  4E75                     rts
00003ABE  0673 7461 636B 7300 4... addi.w     [[A3 + 0x7300] + 0x4E56FAA8], 0x7461 /* 'ta' */
// begin alternate branch 00003AC6-00003ACA
export_1070:
00003AC6  4E56 FAA8                link       A6, -0x0558
// end alternate branch 00003AC6-00003ACA
export_1070: // at 00003AC6 (misaligned)
00003ACA  48E7 0F08                movem.l    -[A7], D4,D5,D6,D7,A4
00003ACE  4EBA 0BC8                jsr        [PC + 0xBC8 /* 00004698 */]
label00003AD2:
00003AD2  2F2D EDC8                move.l     -[A7], [A5 - 0x1238]
00003AD6  A873                     syscall    SetPort
00003AD8  2F2D ED72                move.l     -[A7], [A5 - 0x128E]
00003ADC  486E FBA8                pea.l      [A6 - 0x458]
00003AE0  3F3C 0018                move.w     -[A7], 0x18
00003AE4  4EBA D47A                jsr        [PC - 0x2B86 /* 00000F60 */]
00003AE8  486E FAA8                pea.l      [A6 - 0x558]
00003AEC  3F3C 0019                move.w     -[A7], 0x19
00003AF0  4EBA D46E                jsr        [PC - 0x2B92 /* 00000F60 */]
00003AF4  486D FD48                pea.l      [A5 - 0x2B8]
00003AF8  486E FCA8                pea.l      [A6 - 0x358]
00003AFC  3F3C 0002                move.w     -[A7], 0x2
00003B00  4EAD 050A                jsr        [A5 + 0x50A /* export_157, CODE:1 @ 0000531E */]
00003B04  486E FCA8                pea.l      [A6 - 0x358]
00003B08  42A7                     clr.l      -[A7]
00003B0A  486E FFAE                pea.l      [A6 - 0x52]
00003B0E  4EAD 03FA                jsr        [A5 + 0x3FA /* export_123, CODE:1 @ 00004D0A */]
00003B12  4EBA 226E                jsr        [PC + 0x226E /* 00005D82 */]
00003B16  102E FFAE                move.b     D0, [A6 - 0x52]
00003B1A  6604                     bne        +0x6 /* 00003B20 */
00003B1C  6000 03A2                bra        +0x3A4 /* 00003EC0 */
label00003B20:
00003B20  4240                     clr.w      D0
00003B22  102E FFB8                move.b     D0, [A6 - 0x48]
00003B26  721E                     moveq.l    D1, 0x1E
00003B28  B240                     cmp.w      D1, D0
00003B2A  6DA6                     blt        -0x58 /* 00003AD2 */
00003B2C  1F3C 0001                move.b     -[A7], 0x1
00003B30  4EAD 1542                jsr        [A5 + 0x1542 /* export_676, CODE:15 @ 00000000 */]
00003B34  42A7                     clr.l      -[A7]
00003B36  3F2D FD68                move.w     -[A7], [A5 - 0x298]
00003B3A  4EBA 158E                jsr        [PC + 0x158E /* 000050CA */]
00003B3E  2D5F FE9A                move.l     [A6 - 0x166], [A7]+
00003B42  42A7                     clr.l      -[A7]
00003B44  3F2D FC42                move.w     -[A7], [A5 - 0x3BE]
00003B48  4EBA 1580                jsr        [PC + 0x1580 /* 000050CA */]
00003B4C  2D5F FE96                move.l     [A6 - 0x16A], [A7]+
00003B50  42A7                     clr.l      -[A7]
00003B52  3F2E FFB4                move.w     -[A7], [A6 - 0x4C]
00003B56  4EAD 19F2                jsr        [A5 + 0x19F2 /* export_826, CODE:16 @ 000013B8 */]
00003B5A  281F                     move.l     D4, [A7]+
00003B5C  4267                     clr.w      -[A7]
00003B5E  486E FFB8                pea.l      [A6 - 0x48]
00003B62  3F2E FFB4                move.w     -[A7], [A6 - 0x4C]
00003B66  486E FFFA                pea.l      [A6 - 0x6]
00003B6A  4EAD 02EA                jsr        [A5 + 0x2EA /* export_89, CODE:1 @ 00004832 */]
00003B6E  3A1F                     move.w     D5, [A7]+
00003B70  4A45                     tst.w      D5
00003B72  57C0                     seq        D0
00003B74  4400                     neg.b      D0
00003B76  1D40 FDB9                move.b     [A6 - 0x247], D0
00003B7A  6700 0090                beq        +0x92 /* 00003C0C */
00003B7E  4267                     clr.w      -[A7]
00003B80  486E FFB8                pea.l      [A6 - 0x48]
00003B84  3F2E FFB4                move.w     -[A7], [A6 - 0x4C]
00003B88  486E FDA8                pea.l      [A6 - 0x258]
00003B8C  4EAD 0312                jsr        [A5 + 0x312 /* export_94, CODE:1 @ 00004908 */]
00003B90  3E1F                     move.w     D7, [A7]+
00003B92  41EE FDA8                lea.l      A0, [A6 - 0x258]
00003B96  43FA 0330                lea.l      A1, [PC + 0x330 /* 00003EC8, value 0x5354414B 'STAK', cstring "STAKWILDNV" */]
00003B9A  7003                     moveq.l    D0, 0x03
label00003B9C:
00003B9C  B109                     cmpm.b     [A0]+, [A1]+
00003B9E  56C8 FFFC                dbne       D0, -0x6 /* 00003B9C */
00003BA2  6726                     beq        +0x28 /* 00003BCA */
00003BA4  1B7C 0001 FD8C           move.b     [A5 - 0x274], 0x1
00003BAA  3F3C 0035                move.w     -[A7], 0x35 /* '5' */
00003BAE  4EAD 187A                jsr        [A5 + 0x187A /* export_779, CODE:16 @ 00000500 */]
00003BB2  422D FD8C                clr.b      [A5 - 0x274]
00003BB6  4EBA 21CA                jsr        [PC + 0x21CA /* 00005D82 */]
00003BBA  4267                     clr.w      -[A7]
00003BBC  3F2E FFFA                move.w     -[A7], [A6 - 0x6]
00003BC0  4EAD 02F2                jsr        [A5 + 0x2F2 /* export_90, CODE:1 @ 0000486A */]
00003BC4  3E1F                     move.w     D7, [A7]+
00003BC6  6000 FF0A                bra        -0xF4 /* 00003AD2 */
label00003BCA:
00003BCA  4267                     clr.w      -[A7]
00003BCC  486E FFB8                pea.l      [A6 - 0x48]
00003BD0  3F2E FFB4                move.w     -[A7], [A6 - 0x4C]
00003BD4  486E FFF8                pea.l      [A6 - 0x8]
00003BD8  4EAD 0342                jsr        [A5 + 0x342 /* export_100, CODE:1 @ 00004A10 */]
00003BDC  3E1F                     move.w     D7, [A7]+
00003BDE  42A7                     clr.l      -[A7]
00003BE0  3F2E FFFA                move.w     -[A7], [A6 - 0x6]
00003BE4  4EBA 14E4                jsr        [PC + 0x14E4 /* 000050CA */]
00003BE8  201F                     move.l     D0, [A7]+
00003BEA  D084                     add.l      D0, D4
00003BEC  2F00                     move.l     -[A7], D0
00003BEE  42A7                     clr.l      -[A7]
00003BF0  3F2E FFF8                move.w     -[A7], [A6 - 0x8]
00003BF4  4EBA 14D4                jsr        [PC + 0x14D4 /* 000050CA */]
00003BF8  221F                     move.l     D1, [A7]+
00003BFA  201F                     move.l     D0, [A7]+
00003BFC  2801                     move.l     D4, D1
00003BFE  D880                     add.l      D4, D0
00003C00  4267                     clr.w      -[A7]
00003C02  3F2E FFF8                move.w     -[A7], [A6 - 0x8]
00003C06  4EAD 02F2                jsr        [A5 + 0x2F2 /* export_90, CODE:1 @ 0000486A */]
00003C0A  3E1F                     move.w     D7, [A7]+
label00003C0C:
00003C0C  202E FE96                move.l     D0, [A6 - 0x16A]
00003C10  D0AE FE9A                add.l      D0, [A6 - 0x166]
00003C14  B880                     cmp.l      D4, D0
00003C16  6C26                     bge        +0x28 /* 00003C3E */
00003C18  1B7C 0001 FD8C           move.b     [A5 - 0x274], 0x1
00003C1E  3F3C 000C                move.w     -[A7], 0xC
00003C22  4EAD 187A                jsr        [A5 + 0x187A /* export_779, CODE:16 @ 00000500 */]
00003C26  422D FD8C                clr.b      [A5 - 0x274]
00003C2A  4EBA 2156                jsr        [PC + 0x2156 /* 00005D82 */]
00003C2E  4267                     clr.w      -[A7]
00003C30  3F2E FFFA                move.w     -[A7], [A6 - 0x6]
00003C34  4EAD 02F2                jsr        [A5 + 0x2F2 /* export_90, CODE:1 @ 0000486A */]
00003C38  3E1F                     move.w     D7, [A7]+
00003C3A  6000 FE96                bra        -0x168 /* 00003AD2 */
label00003C3E:
00003C3E  70D5                     moveq.l    D0, 0xFFFFFFD5
00003C40  B045                     cmp.w      D0, D5
00003C42  662C                     bne        +0x2E /* 00003C70 */
00003C44  4267                     clr.w      -[A7]
00003C46  486E FFB8                pea.l      [A6 - 0x48]
00003C4A  3F2E FFB4                move.w     -[A7], [A6 - 0x4C]
00003C4E  2F3A 027C                move.l     -[A7], [PC + 0x27C /* 00003ECC, value 0x57494C44 'WILD', cstring "WILDNV" */]
00003C52  2F3A 0274                move.l     -[A7], [PC + 0x274 /* 00003EC8, value 0x5354414B 'STAK', cstring "STAKWILDNV" */]
00003C56  4EAD 0332                jsr        [A5 + 0x332 /* export_98, CODE:1 @ 000049A8 */]
00003C5A  3E1F                     move.w     D7, [A7]+
00003C5C  4267                     clr.w      -[A7]
00003C5E  486E FFB8                pea.l      [A6 - 0x48]
00003C62  3F2E FFB4                move.w     -[A7], [A6 - 0x4C]
00003C66  486E FFFA                pea.l      [A6 - 0x6]
00003C6A  4EAD 02EA                jsr        [A5 + 0x2EA /* export_89, CODE:1 @ 00004832 */]
00003C6E  3A1F                     move.w     D5, [A7]+
label00003C70:
00003C70  4A45                     tst.w      D5
00003C72  671A                     beq        +0x1C /* 00003C8E */
00003C74  1B7C 0001 FD8C           move.b     [A5 - 0x274], 0x1
00003C7A  3F3C 000D                move.w     -[A7], 0xD /* '\r' */
00003C7E  4EAD 187A                jsr        [A5 + 0x187A /* export_779, CODE:16 @ 00000500 */]
00003C82  422D FD8C                clr.b      [A5 - 0x274]
00003C86  4EBA 20FA                jsr        [PC + 0x20FA /* 00005D82 */]
00003C8A  6000 FE46                bra        -0x1B8 /* 00003AD2 */
label00003C8E:
00003C8E  102E FDB9                move.b     D0, [A6 - 0x247]
00003C92  672E                     beq        +0x30 /* 00003CC2 */
00003C94  4267                     clr.w      -[A7]
00003C96  486E FFB8                pea.l      [A6 - 0x48]
00003C9A  3F2E FFB4                move.w     -[A7], [A6 - 0x4C]
00003C9E  486E FFF8                pea.l      [A6 - 0x8]
00003CA2  4EAD 0342                jsr        [A5 + 0x342 /* export_100, CODE:1 @ 00004A10 */]
00003CA6  3E1F                     move.w     D7, [A7]+
00003CA8  4267                     clr.w      -[A7]
00003CAA  3F2E FFF8                move.w     -[A7], [A6 - 0x8]
00003CAE  42A7                     clr.l      -[A7]
00003CB0  4EAD 035A                jsr        [A5 + 0x35A /* export_103, CODE:1 @ 00004AAA */]
00003CB4  3E1F                     move.w     D7, [A7]+
00003CB6  4267                     clr.w      -[A7]
00003CB8  3F2E FFF8                move.w     -[A7], [A6 - 0x8]
00003CBC  4EAD 02F2                jsr        [A5 + 0x2F2 /* export_90, CODE:1 @ 0000486A */]
00003CC0  3E1F                     move.w     D7, [A7]+
label00003CC2:
00003CC2  4EAD 1ED2                jsr        [A5 + 0x1ED2 /* export_982, CODE:19 @ 00000172 */]
00003CC6  42A7                     clr.l      -[A7]
00003CC8  486E FF9E                pea.l      [A6 - 0x62]
00003CCC  4EAD 01CA                jsr        [A5 + 0x1CA /* export_53, CODE:1 @ 0000439E */]
00003CD0  2C1F                     move.l     D6, [A7]+
00003CD2  9CBC 0000 2000           sub.l      D6, 0x2000 /* ' \0' */
00003CD8  0C86 0000 0400           cmpi.l     D6, 0x400
00003CDE  6C0A                     bge        +0xC /* 00003CEA */
00003CE0  2F3C 0000 0D9F           move.l     -[A7], 0xD9F
00003CE6  4EAD 185A                jsr        [A5 + 0x185A /* export_775, CODE:16 @ 0000042E */]
label00003CEA:
00003CEA  CCBC FFFF FC00           and.l      D6, 0xFFFFFC00
00003CF0  42A7                     clr.l      -[A7]
00003CF2  2F06                     move.l     -[A7], D6
00003CF4  4EAD 18DA                jsr        [A5 + 0x18DA /* export_791, CODE:16 @ 00000896 */]
00003CF8  285F                     movea.l    A4, [A7]+
00003CFA  4EAD 193A                jsr        [A5 + 0x193A /* export_803, CODE:16 @ 00000C72 */]
00003CFE  4267                     clr.w      -[A7]
00003D00  3F2D FD68                move.w     -[A7], [A5 - 0x298]
00003D04  3F3C 0001                move.w     -[A7], 0x1
00003D08  42A7                     clr.l      -[A7]
00003D0A  4EAD 036A                jsr        [A5 + 0x36A /* export_105, CODE:1 @ 00004AF0 */]
00003D0E  3E1F                     move.w     D7, [A7]+
00003D10  4267                     clr.w      -[A7]
00003D12  3F2E FFFA                move.w     -[A7], [A6 - 0x6]
00003D16  3F3C 0001                move.w     -[A7], 0x1
00003D1A  42A7                     clr.l      -[A7]
00003D1C  4EAD 036A                jsr        [A5 + 0x36A /* export_105, CODE:1 @ 00004AF0 */]
00003D20  3E1F                     move.w     D7, [A7]+
label00003D22:
00003D22  2D46 FFA2                move.l     [A6 - 0x5E], D6
00003D26  2F0C                     move.l     -[A7], A4
00003D28  4EAD 0222                jsr        [A5 + 0x222 /* export_64, CODE:1 @ 00004678 */]
00003D2C  4267                     clr.w      -[A7]
00003D2E  3F2D FD68                move.w     -[A7], [A5 - 0x298]
00003D32  486E FFA2                pea.l      [A6 - 0x5E]
00003D36  2F14                     move.l     -[A7], [A4]
00003D38  4EAD 02FA                jsr        [A5 + 0x2FA /* export_91, CODE:1 @ 00004886 */]
00003D3C  3E1F                     move.w     D7, [A7]+
00003D3E  4267                     clr.w      -[A7]
00003D40  3F2E FFFA                move.w     -[A7], [A6 - 0x6]
00003D44  486E FFA2                pea.l      [A6 - 0x5E]
00003D48  2F14                     move.l     -[A7], [A4]
00003D4A  4EAD 0302                jsr        [A5 + 0x302 /* export_92, CODE:1 @ 0000488A */]
00003D4E  3E1F                     move.w     D7, [A7]+
00003D50  2F0C                     move.l     -[A7], A4
00003D52  4EAD 022A                jsr        [A5 + 0x22A /* export_65, CODE:1 @ 00004682 */]
00003D56  4AAE FFA2                tst.l      [A6 - 0x5E]
00003D5A  66C6                     bne        -0x38 /* 00003D22 */
00003D5C  4267                     clr.w      -[A7]
00003D5E  3F2E FFFA                move.w     -[A7], [A6 - 0x6]
00003D62  2F2E FE9A                move.l     -[A7], [A6 - 0x166]
00003D66  4EAD 035A                jsr        [A5 + 0x35A /* export_103, CODE:1 @ 00004AAA */]
00003D6A  3E1F                     move.w     D7, [A7]+
00003D6C  4267                     clr.w      -[A7]
00003D6E  3F2E FFFA                move.w     -[A7], [A6 - 0x6]
00003D72  4EAD 02F2                jsr        [A5 + 0x2F2 /* export_90, CODE:1 @ 0000486A */]
00003D76  3E1F                     move.w     D7, [A7]+
00003D78  70FF                     moveq.l    D0, 0xFFFFFFFF
00003D7A  B06D FC42                cmp.w      D0, [A5 - 0x3BE]
00003D7E  6700 0090                beq        +0x92 /* 00003E10 */
00003D82  4267                     clr.w      -[A7]
00003D84  486E FFB8                pea.l      [A6 - 0x48]
00003D88  3F2E FFB4                move.w     -[A7], [A6 - 0x4C]
00003D8C  486E FFF8                pea.l      [A6 - 0x8]
00003D90  4EAD 0342                jsr        [A5 + 0x342 /* export_100, CODE:1 @ 00004A10 */]
00003D94  3E1F                     move.w     D7, [A7]+
00003D96  4267                     clr.w      -[A7]
00003D98  3F2D FC42                move.w     -[A7], [A5 - 0x3BE]
00003D9C  3F3C 0001                move.w     -[A7], 0x1
00003DA0  42A7                     clr.l      -[A7]
00003DA2  4EAD 036A                jsr        [A5 + 0x36A /* export_105, CODE:1 @ 00004AF0 */]
00003DA6  3E1F                     move.w     D7, [A7]+
00003DA8  4267                     clr.w      -[A7]
00003DAA  3F2E FFF8                move.w     -[A7], [A6 - 0x8]
00003DAE  3F3C 0001                move.w     -[A7], 0x1
00003DB2  42A7                     clr.l      -[A7]
00003DB4  4EAD 036A                jsr        [A5 + 0x36A /* export_105, CODE:1 @ 00004AF0 */]
00003DB8  3E1F                     move.w     D7, [A7]+
label00003DBA:
00003DBA  2D46 FFA2                move.l     [A6 - 0x5E], D6
00003DBE  2F0C                     move.l     -[A7], A4
00003DC0  4EAD 0222                jsr        [A5 + 0x222 /* export_64, CODE:1 @ 00004678 */]
00003DC4  4267                     clr.w      -[A7]
00003DC6  3F2D FC42                move.w     -[A7], [A5 - 0x3BE]
00003DCA  486E FFA2                pea.l      [A6 - 0x5E]
00003DCE  2F14                     move.l     -[A7], [A4]
00003DD0  4EAD 02FA                jsr        [A5 + 0x2FA /* export_91, CODE:1 @ 00004886 */]
00003DD4  3E1F                     move.w     D7, [A7]+
00003DD6  4267                     clr.w      -[A7]
00003DD8  3F2E FFF8                move.w     -[A7], [A6 - 0x8]
00003DDC  486E FFA2                pea.l      [A6 - 0x5E]
00003DE0  2F14                     move.l     -[A7], [A4]
00003DE2  4EAD 0302                jsr        [A5 + 0x302 /* export_92, CODE:1 @ 0000488A */]
00003DE6  3E1F                     move.w     D7, [A7]+
00003DE8  2F0C                     move.l     -[A7], A4
00003DEA  4EAD 022A                jsr        [A5 + 0x22A /* export_65, CODE:1 @ 00004682 */]
00003DEE  4AAE FFA2                tst.l      [A6 - 0x5E]
00003DF2  66C6                     bne        -0x38 /* 00003DBA */
00003DF4  4267                     clr.w      -[A7]
00003DF6  3F2E FFF8                move.w     -[A7], [A6 - 0x8]
00003DFA  2F2E FE96                move.l     -[A7], [A6 - 0x16A]
00003DFE  4EAD 035A                jsr        [A5 + 0x35A /* export_103, CODE:1 @ 00004AAA */]
00003E02  3E1F                     move.w     D7, [A7]+
00003E04  4267                     clr.w      -[A7]
00003E06  3F2E FFF8                move.w     -[A7], [A6 - 0x8]
00003E0A  4EAD 02F2                jsr        [A5 + 0x2F2 /* export_90, CODE:1 @ 0000486A */]
00003E0E  3E1F                     move.w     D7, [A7]+
label00003E10:
00003E10  41EE FE9E                lea.l      A0, [A6 - 0x162]
00003E14  43ED FD48                lea.l      A1, [A5 - 0x2B8]
00003E18  7007                     moveq.l    D0, 0x07
label00003E1A:
00003E1A  20D9                     move.l     [A0]+, [A1]+
00003E1C  51C8 FFFC                dbf        D0, -0x6 /* 00003E1A */
00003E20  486E FDBA                pea.l      [A6 - 0x246]
00003E24  706C                     moveq.l    D0, 0x6C
00003E26  2F00                     move.l     -[A7], D0
00003E28  4EAD 1B42                jsr        [A5 + 0x1B42 /* export_868, CODE:16 @ 00001E7C */]
00003E2C  41EE FE9E                lea.l      A0, [A6 - 0x162]
00003E30  2D48 FDCC                move.l     [A6 - 0x234], A0
00003E34  3D6D FC46 FDD0           move.w     [A6 - 0x230], [A5 - 0x3BA]
00003E3A  4267                     clr.w      -[A7]
00003E3C  486E FDBA                pea.l      [A6 - 0x246]
00003E40  4267                     clr.w      -[A7]
00003E42  4EAD 038A                jsr        [A5 + 0x38A /* export_109, CODE:1 @ 00004B5A */]
00003E46  3E1F                     move.w     D7, [A7]+
00003E48  486E FE26                pea.l      [A6 - 0x1DA]
00003E4C  706C                     moveq.l    D0, 0x6C
00003E4E  2F00                     move.l     -[A7], D0
00003E50  4EAD 1B42                jsr        [A5 + 0x1B42 /* export_868, CODE:16 @ 00001E7C */]
00003E54  41EE FFB8                lea.l      A0, [A6 - 0x48]
00003E58  2D48 FE38                move.l     [A6 - 0x1C8], A0
00003E5C  3D6E FFB4 FE3C           move.w     [A6 - 0x1C4], [A6 - 0x4C]
00003E62  4267                     clr.w      -[A7]
00003E64  486E FE26                pea.l      [A6 - 0x1DA]
00003E68  4267                     clr.w      -[A7]
00003E6A  4EAD 038A                jsr        [A5 + 0x38A /* export_109, CODE:1 @ 00004B5A */]
00003E6E  3E1F                     move.w     D7, [A7]+
00003E70  7000                     moveq.l    D0, 0x00
00003E72  2D40 FE56                move.l     [A6 - 0x1AA], D0
00003E76  426E FE3E                clr.w      [A6 - 0x1C2]
00003E7A  2D7C 5354 414B FE46      move.l     [A6 - 0x1BA], 0x5354414B /* 'STAK' */
00003E82  2D7C 5749 4C44 FE4A      move.l     [A6 - 0x1B6], 0x57494C44 /* 'WILD' */
00003E8A  2D6E FE02 FE6E           move.l     [A6 - 0x192], [A6 - 0x1FE]
00003E90  2D6E FE06 FE72           move.l     [A6 - 0x18E], [A6 - 0x1FA]
00003E96  4267                     clr.w      -[A7]
00003E98  486E FE26                pea.l      [A6 - 0x1DA]
00003E9C  4267                     clr.w      -[A7]
00003E9E  4EAD 0392                jsr        [A5 + 0x392 /* export_110, CODE:1 @ 00004B78 */]
00003EA2  3E1F                     move.w     D7, [A7]+
00003EA4  486D FD92                pea.l      [A5 - 0x26E]
00003EA8  4EAD 18E2                jsr        [A5 + 0x18E2 /* export_792, CODE:16 @ 000008AE */]
00003EAC  2F0C                     move.l     -[A7], A4
00003EAE  4EAD 18D2                jsr        [A5 + 0x18D2 /* export_790, CODE:16 @ 0000083E */]
00003EB2  4267                     clr.w      -[A7]
00003EB4  42A7                     clr.l      -[A7]
00003EB6  3F2E FFB4                move.w     -[A7], [A6 - 0x4C]
00003EBA  4EAD 032A                jsr        [A5 + 0x32A /* export_97, CODE:1 @ 00004986 */]
00003EBE  3E1F                     move.w     D7, [A7]+
label00003EC0:
00003EC0  4CDF 10F0                movem.l    D4,D5,D6,D7,A4, [A7]+
00003EC4  4E5E                     unlink     A6
00003EC6  4E75                     rts
00003EC8  5354 414B 5749 4C44      dc.b       "STAKWILD"
export_1071:
00003ED0  4E56 0000                link       A6, 0
00003ED4  206D EDAC                movea.l    A0, [A5 - 0x1254]
00003ED8  2050                     movea.l    A0, [A0]
00003EDA  3028 0020                move.w     D0, [A0 + 0x20]
00003EDE  48C0                     ext.l      D0
00003EE0  B0AE 000C                cmp.l      D0, [A6 + 0xC]
00003EE4  57C0                     seq        D0
00003EE6  C02D EDAB                and.b      D0, [A5 - 0x1255]
00003EEA  206D EDAC                movea.l    A0, [A5 - 0x1254]
00003EEE  2050                     movea.l    A0, [A0]
00003EF0  3228 0022                move.w     D1, [A0 + 0x22]
00003EF4  48C1                     ext.l      D1
00003EF6  B2AE 0008                cmp.l      D1, [A6 + 0x8]
00003EFA  57C1                     seq        D1
00003EFC  C001                     and.b      D0, D1
00003EFE  6702                     beq        +0x4 /* 00003F02 */
00003F00  602E                     bra        +0x30 /* 00003F30 */
label00003F02:
00003F02  102D EDAB                move.b     D0, [A5 - 0x1255]
00003F06  6604                     bne        +0x6 /* 00003F0C */
00003F08  4EBA C54E                jsr        [PC - 0x3AB2 /* 00000458 */]
label00003F0C:
00003F0C  206D ED9A                movea.l    A0, [A5 - 0x1266]
00003F10  1028 006E                move.b     D0, [A0 + 0x6E]
00003F14  6608                     bne        +0xA /* 00003F1E */
00003F16  2F2D EDB8                move.l     -[A7], [A5 - 0x1248]
00003F1A  4EBA 14A2                jsr        [PC + 0x14A2 /* 000053BE */]
label00003F1E:
00003F1E  2F2E 000C                move.l     -[A7], [A6 + 0xC]
00003F22  2F2E 0008                move.l     -[A7], [A6 + 0x8]
00003F26  2F2D EDAC                move.l     -[A7], [A5 - 0x1254]
00003F2A  A9D1                     syscall    TESetSelect
00003F2C  4EBA E4B4                jsr        [PC - 0x1B4C /* 000023E2 */]
label00003F30:
00003F30  4E5E                     unlink     A6
00003F32  205F                     movea.l    A0, [A7]+
00003F34  504F                     addq.w     A7, 8
00003F36  4ED0                     jmp        [A0]
export_1072:
00003F38  4E56 FFE0                link       A6, -0x0020
00003F3C  48E7 0300                movem.l    -[A7], D6,D7
00003F40  2C2E 000A                move.l     D6, [A6 + 0xA]
00003F44  7004                     moveq.l    D0, 0x04
00003F46  B06D F02C                cmp.w      D0, [A5 - 0xFD4]
00003F4A  6F04                     ble        +0x6 /* 00003F50 */
00003F4C  6000 00A6                bra        +0xA8 /* 00003FF4 */
label00003F50:
00003F50  BCAD F62A                cmp.l      D6, [A5 - 0x9D6]
00003F54  57C0                     seq        D0
00003F56  BCAD F622                cmp.l      D6, [A5 - 0x9DE]
00003F5A  57C1                     seq        D1
00003F5C  8001                     or.b       D0, D1
00003F5E  2F00                     move.l     -[A7], D0
00003F60  4267                     clr.w      -[A7]
00003F62  2F06                     move.l     -[A7], D6
00003F64  3F2E 0008                move.w     -[A7], [A6 + 0x8]
00003F68  486E FFE2                pea.l      [A6 - 0x1E]
00003F6C  4EAD 1DB2                jsr        [A5 + 0x1DB2 /* export_946, CODE:18 @ 00000D08 */]
00003F70  121F                     move.b     D1, [A7]+
00003F72  201F                     move.l     D0, [A7]+
00003F74  C001                     and.b      D0, D1
00003F76  4A2E FFE7                tst.b      [A6 - 0x19]
00003F7A  5CC1                     sge        D1
00003F7C  C001                     and.b      D0, D1
00003F7E  6774                     beq        +0x76 /* 00003FF4 */
00003F80  7E02                     moveq.l    D7, 0x02
00003F82  7002                     moveq.l    D0, 0x02
00003F84  B02E FFE6                cmp.b      D0, [A6 - 0x1A]
00003F88  6602                     bne        +0x4 /* 00003F8C */
00003F8A  7E03                     moveq.l    D7, 0x03
label00003F8C:
00003F8C  BE6D EFDC                cmp.w      D7, [A5 - 0x1024]
00003F90  6706                     beq        +0x8 /* 00003F98 */
00003F92  3F07                     move.w     -[A7], D7
00003F94  4EAD 15F2                jsr        [A5 + 0x15F2 /* export_698, CODE:15 @ 00000E4A */]
label00003F98:
00003F98  41ED E274                lea.l      A0, [A5 - 0x1D8C]
00003F9C  43EE FFE2                lea.l      A1, [A6 - 0x1E]
00003FA0  7006                     moveq.l    D0, 0x06
label00003FA2:
00003FA2  20D9                     move.l     [A0]+, [A1]+
00003FA4  51C8 FFFC                dbf        D0, -0x6 /* 00003FA2 */
00003FA8  3091                     move.w     [A0], [A1]
00003FAA  2B46 E270                move.l     [A5 - 0x1D90], D6
00003FAE  486D E27A                pea.l      [A5 - 0x1D86]
00003FB2  486D E2F2                pea.l      [A5 - 0x1D0E]
00003FB6  4EAD 1CEA                jsr        [A5 + 0x1CEA /* export_921, CODE:17 @ 00001DBA */]
00003FBA  486D EE38                pea.l      [A5 - 0x11C8]
00003FBE  A873                     syscall    SetPort
00003FC0  2F2D E270                move.l     -[A7], [A5 - 0x1D90]
00003FC4  3F2D E276                move.w     -[A7], [A5 - 0x1D8A]
00003FC8  4EAD 1682                jsr        [A5 + 0x1682 /* export_716, CODE:15 @ 00003082 */]
00003FCC  2F2D E270                move.l     -[A7], [A5 - 0x1D90]
00003FD0  3F2D E276                move.w     -[A7], [A5 - 0x1D8A]
00003FD4  4EAD 16A2                jsr        [A5 + 0x16A2 /* export_720, CODE:15 @ 00003A22 */]
00003FD8  486D E27A                pea.l      [A5 - 0x1D86]
00003FDC  486D E2F2                pea.l      [A5 - 0x1D0E]
00003FE0  4EAD 1CEA                jsr        [A5 + 0x1CEA /* export_921, CODE:17 @ 00001DBA */]
00003FE4  4EAD 1742                jsr        [A5 + 0x1742 /* export_740, CODE:15 @ 000050EE */]
00003FE8  41ED E2F2                lea.l      A0, [A5 - 0x1D0E]
00003FEC  43ED ED82                lea.l      A1, [A5 - 0x127E]
00003FF0  20D9                     move.l     [A0]+, [A1]+
00003FF2  20D9                     move.l     [A0]+, [A1]+
label00003FF4:
00003FF4  4CDF 00C0                movem.l    D6,D7, [A7]+
00003FF8  4E5E                     unlink     A6
00003FFA  205F                     movea.l    A0, [A7]+
00003FFC  5C4F                     addq.w     A7, 6
00003FFE  4ED0                     jmp        [A0]
export_1073:
00004000  4E56 FFDC                link       A6, -0x0024
00004004  48E7 0F00                movem.l    -[A7], D4,D5,D6,D7
00004008  2E2E 0012                move.l     D7, [A6 + 0x12]
0000400C  3C2E 0010                move.w     D6, [A6 + 0x10]
00004010  BEAD F62A                cmp.l      D7, [A5 - 0x9D6]
00004014  57C0                     seq        D0
00004016  BEAD F622                cmp.l      D7, [A5 - 0x9DE]
0000401A  57C1                     seq        D1
0000401C  8001                     or.b       D0, D1
0000401E  2F00                     move.l     -[A7], D0
00004020  4267                     clr.w      -[A7]
00004022  2F07                     move.l     -[A7], D7
00004024  3F06                     move.w     -[A7], D6
00004026  486E FFE2                pea.l      [A6 - 0x1E]
0000402A  4EAD 1DB2                jsr        [A5 + 0x1DB2 /* export_946, CODE:18 @ 00000D08 */]
0000402E  121F                     move.b     D1, [A7]+
00004030  201F                     move.l     D0, [A7]+
00004032  C001                     and.b      D0, D1
00004034  4A2E FFE7                tst.b      [A6 - 0x19]
00004038  5CC1                     sge        D1
0000403A  C001                     and.b      D0, D1
0000403C  676C                     beq        +0x6E /* 000040AA */
0000403E  4EAD 160A                jsr        [A5 + 0x160A /* export_701, CODE:15 @ 00001282 */]
00004042  7001                     moveq.l    D0, 0x01
00004044  B06D EFDC                cmp.w      D0, [A5 - 0x1024]
00004048  6708                     beq        +0xA /* 00004052 */
0000404A  3F3C 0001                move.w     -[A7], 0x1
0000404E  4EAD 15F2                jsr        [A5 + 0x15F2 /* export_698, CODE:15 @ 00000E4A */]
label00004052:
00004052  2A2D E24E                move.l     D5, [A5 - 0x1DB2]
00004056  382D E254                move.w     D4, [A5 - 0x1DAC]
0000405A  2F07                     move.l     -[A7], D7
0000405C  3F06                     move.w     -[A7], D6
0000405E  1F3C 0001                move.b     -[A7], 0x1
00004062  4EBA D9F6                jsr        [PC - 0x260A /* 00001A5A */]
00004066  BA87                     cmp.l      D5, D7
00004068  56C0                     sne        D0
0000406A  B846                     cmp.w      D4, D6
0000406C  56C1                     sne        D1
0000406E  8001                     or.b       D0, D1
00004070  6726                     beq        +0x28 /* 00004098 */
00004072  2F07                     move.l     -[A7], D7
00004074  3F06                     move.w     -[A7], D6
00004076  4EAD 1682                jsr        [A5 + 0x1682 /* export_716, CODE:15 @ 00003082 */]
0000407A  2F07                     move.l     -[A7], D7
0000407C  3F06                     move.w     -[A7], D6
0000407E  4EAD 169A                jsr        [A5 + 0x169A /* export_719, CODE:15 @ 0000371E */]
00004082  2F07                     move.l     -[A7], D7
00004084  3F06                     move.w     -[A7], D6
00004086  4EAD 16A2                jsr        [A5 + 0x16A2 /* export_720, CODE:15 @ 00003A22 */]
0000408A  1B7C 0001 E244           move.b     [A5 - 0x1DBC], 0x1
00004090  486D E258                pea.l      [A5 - 0x1DA8]
00004094  4EAD 16D2                jsr        [A5 + 0x16D2 /* export_726, CODE:15 @ 0000402E */]
label00004098:
00004098  2F2E 000C                move.l     -[A7], [A6 + 0xC]
0000409C  2F2E 0008                move.l     -[A7], [A6 + 0x8]
000040A0  2F2D E246                move.l     -[A7], [A5 - 0x1DBA]
000040A4  A9D1                     syscall    TESetSelect
000040A6  4EBA 2024                jsr        [PC + 0x2024 /* 000060CC */]
label000040AA:
000040AA  4CDF 00F0                movem.l    D4,D5,D6,D7, [A7]+
000040AE  4E5E                     unlink     A6
000040B0  205F                     movea.l    A0, [A7]+
000040B2  DEFC 000E                add.w      A7, 0xE
000040B6  4ED0                     jmp        [A0]
export_1074:
000040B8  4E56 FFCC                link       A6, -0x0034
000040BC  1D7C 0001 0008           move.b     [A6 + 0x8], 0x1
000040C2  7000                     moveq.l    D0, 0x00
000040C4  302D F026                move.w     D0, [A5 - 0xFDA]
000040C8  C0BC 0000 1000           and.l      D0, 0x1000
000040CE  4A80                     tst.l      D0
000040D0  6738                     beq        +0x3A /* 0000410A */
000040D2  487A 0256                pea.l      [PC + 0x256 /* 0000432A, value 0xB636F6E, pstring "controlKey " */]
000040D6  486E FFCC                pea.l      [A6 - 0x34]
000040DA  302D F00C                move.w     D0, [A5 - 0xFF4]
000040DE  48C0                     ext.l      D0
000040E0  2F00                     move.l     -[A7], D0
000040E2  4EAD 1902                jsr        [A5 + 0x1902 /* export_796, CODE:16 @ 000009D4 */]
000040E6  486E FFE0                pea.l      [A6 - 0x20]
000040EA  3F3C 0002                move.w     -[A7], 0x2
000040EE  4EAD 050A                jsr        [A5 + 0x50A /* export_157, CODE:1 @ 0000531E */]
000040F2  41ED E0E8                lea.l      A0, [A5 - 0x1F18]
000040F6  43EE FFE0                lea.l      A1, [A6 - 0x20]
000040FA  7007                     moveq.l    D0, 0x07
label000040FC:
000040FC  20D9                     move.l     [A0]+, [A1]+
000040FE  51C8 FFFC                dbf        D0, -0x6 /* 000040FC */
00004102  4EAD 0B8A                jsr        [A5 + 0xB8A /* export_365, CODE:8 @ 00003F30 */]
00004106  6000 01A8                bra        +0x1AA /* 000042B0 */
label0000410A:
0000410A  703D                     moveq.l    D0, 0x3D
0000410C  B06D F008                cmp.w      D0, [A5 - 0xFF8]
00004110  5FC0                     sle        D0
00004112  724B                     moveq.l    D1, 0x4B
00004114  B26D F008                cmp.w      D1, [A5 - 0xFF8]
00004118  5CC1                     sge        D1
0000411A  C001                     and.b      D0, D1
0000411C  673E                     beq        +0x40 /* 0000415C */
0000411E  487A 01FC                pea.l      [PC + 0x1FC /* 0000431C, value 0xC66756E, pstring "functionKey " */]
00004122  486E FFCC                pea.l      [A6 - 0x34]
00004126  302D F008                move.w     D0, [A5 - 0xFF8]
0000412A  5240                     addq.w     D0, 1
0000412C  907C 003D                sub.w      D0, 0x3D /* '=' */
00004130  48C0                     ext.l      D0
00004132  2F00                     move.l     -[A7], D0
00004134  4EAD 1902                jsr        [A5 + 0x1902 /* export_796, CODE:16 @ 000009D4 */]
00004138  486E FFE0                pea.l      [A6 - 0x20]
0000413C  3F3C 0002                move.w     -[A7], 0x2
00004140  4EAD 050A                jsr        [A5 + 0x50A /* export_157, CODE:1 @ 0000531E */]
00004144  41ED E0E8                lea.l      A0, [A5 - 0x1F18]
00004148  43EE FFE0                lea.l      A1, [A6 - 0x20]
0000414C  7007                     moveq.l    D0, 0x07
label0000414E:
0000414E  20D9                     move.l     [A0]+, [A1]+
00004150  51C8 FFFC                dbf        D0, -0x6 /* 0000414E */
00004154  4EAD 0B8A                jsr        [A5 + 0xB8A /* export_365, CODE:8 @ 00003F30 */]
00004158  6000 0156                bra        +0x158 /* 000042B0 */
label0000415C:
0000415C  7035                     moveq.l    D0, 0x35
0000415E  B06D F008                cmp.w      D0, [A5 - 0xFF8]
00004162  660E                     bne        +0x10 /* 00004172 */
00004164  2F3C 0003 0004           move.l     -[A7], 0x30004
0000416A  4EBA 01CA                jsr        [PC + 0x1CA /* 00004336 */]
0000416E  6000 0140                bra        +0x142 /* 000042B0 */
label00004172:
00004172  7036                     moveq.l    D0, 0x36
00004174  B06D F008                cmp.w      D0, [A5 - 0xFF8]
00004178  660E                     bne        +0x10 /* 00004188 */
0000417A  2F3C 0002 0004           move.l     -[A7], 0x20004
00004180  4EBA 01B4                jsr        [PC + 0x1B4 /* 00004336 */]
00004184  6000 012A                bra        +0x12C /* 000042B0 */
label00004188:
00004188  7037                     moveq.l    D0, 0x37
0000418A  B06D F008                cmp.w      D0, [A5 - 0xFF8]
0000418E  660E                     bne        +0x10 /* 0000419E */
00004190  2F3C 0009 0004           move.l     -[A7], 0x90004
00004196  4EBA 019E                jsr        [PC + 0x19E /* 00004336 */]
0000419A  6000 0114                bra        +0x116 /* 000042B0 */
label0000419E:
0000419E  7009                     moveq.l    D0, 0x09
000041A0  B06D F008                cmp.w      D0, [A5 - 0xFF8]
000041A4  664C                     bne        +0x4E /* 000041F2 */
000041A6  102D E245                move.b     D0, [A5 - 0x1DBB]
000041AA  6730                     beq        +0x32 /* 000041DC */
000041AC  1B6D F016 F012           move.b     [A5 - 0xFEE], [A5 - 0xFEA]
000041B2  41ED E0E8                lea.l      A0, [A5 - 0x1F18]
000041B6  43FA 0156                lea.l      A1, [PC + 0x156 /* 0000430E, value 0xD726574 '\rret', pstring "returnInField" */]
000041BA  20D9                     move.l     [A0]+, [A1]+
000041BC  20D9                     move.l     [A0]+, [A1]+
000041BE  20D9                     move.l     [A0]+, [A1]+
000041C0  3091                     move.w     [A0], [A1]
000041C2  2F2D E24E                move.l     -[A7], [A5 - 0x1DB2]
000041C6  3F2D E254                move.w     -[A7], [A5 - 0x1DAC]
000041CA  2F2D F62A                move.l     -[A7], [A5 - 0x9D6]
000041CE  2F2D F622                move.l     -[A7], [A5 - 0x9DE]
000041D2  4EAD 0B9A                jsr        [A5 + 0xB9A /* export_367, CODE:8 @ 00004010 */]
000041D6  422D F012                clr.b      [A5 - 0xFEE]
000041DA  6012                     bra        +0x14 /* 000041EE */
label000041DC:
000041DC  41ED E0E8                lea.l      A0, [A5 - 0x1F18]
000041E0  43FA 0122                lea.l      A1, [PC + 0x122 /* 00004304, value 0x9726574 '\tret', pstring "returnKey" */]
000041E4  20D9                     move.l     [A0]+, [A1]+
000041E6  20D9                     move.l     [A0]+, [A1]+
000041E8  3091                     move.w     [A0], [A1]
000041EA  4EAD 0B8A                jsr        [A5 + 0xB8A /* export_365, CODE:8 @ 00003F30 */]
label000041EE:
000041EE  6000 00C0                bra        +0xC2 /* 000042B0 */
label000041F2:
000041F2  700A                     moveq.l    D0, 0x0A
000041F4  B06D F008                cmp.w      D0, [A5 - 0xFF8]
000041F8  6640                     bne        +0x42 /* 0000423A */
000041FA  102D E245                move.b     D0, [A5 - 0x1DBB]
000041FE  6726                     beq        +0x28 /* 00004226 */
00004200  41ED E0E8                lea.l      A0, [A5 - 0x1F18]
00004204  43FA 00F0                lea.l      A1, [PC + 0xF0 /* 000042F6, value 0xC656E74, pstring "enterInField" */]
00004208  20D9                     move.l     [A0]+, [A1]+
0000420A  20D9                     move.l     [A0]+, [A1]+
0000420C  20D9                     move.l     [A0]+, [A1]+
0000420E  3091                     move.w     [A0], [A1]
00004210  2F2D E24E                move.l     -[A7], [A5 - 0x1DB2]
00004214  3F2D E254                move.w     -[A7], [A5 - 0x1DAC]
00004218  2F2D F62A                move.l     -[A7], [A5 - 0x9D6]
0000421C  2F2D F622                move.l     -[A7], [A5 - 0x9DE]
00004220  4EAD 0B9A                jsr        [A5 + 0xB9A /* export_367, CODE:8 @ 00004010 */]
00004224  6012                     bra        +0x14 /* 00004238 */
label00004226:
00004226  41ED E0E8                lea.l      A0, [A5 - 0x1F18]
0000422A  43FA 00C0                lea.l      A1, [PC + 0xC0 /* 000042EC, value 0x8656E74, pstring "enterKey" */]
0000422E  20D9                     move.l     [A0]+, [A1]+
00004230  20D9                     move.l     [A0]+, [A1]+
00004232  3091                     move.w     [A0], [A1]
00004234  4EAD 0B8A                jsr        [A5 + 0xB8A /* export_365, CODE:8 @ 00003F30 */]
label00004238:
00004238  6076                     bra        +0x78 /* 000042B0 */
label0000423A:
0000423A  422D E0E8                clr.b      [A5 - 0x1F18]
0000423E  7005                     moveq.l    D0, 0x05
00004240  B06D F008                cmp.w      D0, [A5 - 0xFF8]
00004244  6610                     bne        +0x12 /* 00004256 */
00004246  41ED E0E8                lea.l      A0, [A5 - 0x1F18]
0000424A  43FA 0092                lea.l      A1, [PC + 0x92 /* 000042DE, value 0xD617272 '\rarr', pstring "arrowKey left" */]
0000424E  20D9                     move.l     [A0]+, [A1]+
00004250  20D9                     move.l     [A0]+, [A1]+
00004252  20D9                     move.l     [A0]+, [A1]+
00004254  3091                     move.w     [A0], [A1]
label00004256:
00004256  7006                     moveq.l    D0, 0x06
00004258  B06D F008                cmp.w      D0, [A5 - 0xFF8]
0000425C  6610                     bne        +0x12 /* 0000426E */
0000425E  41ED E0E8                lea.l      A0, [A5 - 0x1F18]
00004262  43FA 006A                lea.l      A1, [PC + 0x6A /* 000042CE, value 0xE617272, pstring "arrowKey right" */]
00004266  20D9                     move.l     [A0]+, [A1]+
00004268  20D9                     move.l     [A0]+, [A1]+
0000426A  20D9                     move.l     [A0]+, [A1]+
0000426C  20D9                     move.l     [A0]+, [A1]+
label0000426E:
0000426E  7007                     moveq.l    D0, 0x07
00004270  B06D F008                cmp.w      D0, [A5 - 0xFF8]
00004274  660E                     bne        +0x10 /* 00004284 */
00004276  41ED E0E8                lea.l      A0, [A5 - 0x1F18]
0000427A  43FA 0046                lea.l      A1, [PC + 0x46 /* 000042C2, value 0xB617272, pstring "arrowKey up" */]
0000427E  20D9                     move.l     [A0]+, [A1]+
00004280  20D9                     move.l     [A0]+, [A1]+
00004282  20D9                     move.l     [A0]+, [A1]+
label00004284:
00004284  7008                     moveq.l    D0, 0x08
00004286  B06D F008                cmp.w      D0, [A5 - 0xFF8]
0000428A  6610                     bne        +0x12 /* 0000429C */
0000428C  41ED E0E8                lea.l      A0, [A5 - 0x1F18]
00004290  43FA 0022                lea.l      A1, [PC + 0x22 /* 000042B4, value 0xD617272 '\rarr', pstring "arrowKey down" */]
00004294  20D9                     move.l     [A0]+, [A1]+
00004296  20D9                     move.l     [A0]+, [A1]+
00004298  20D9                     move.l     [A0]+, [A1]+
0000429A  3091                     move.w     [A0], [A1]
label0000429C:
0000429C  4240                     clr.w      D0
0000429E  102D E0E8                move.b     D0, [A5 - 0x1F18]
000042A2  4A40                     tst.w      D0
000042A4  6706                     beq        +0x8 /* 000042AC */
000042A6  4EAD 0B8A                jsr        [A5 + 0xB8A /* export_365, CODE:8 @ 00003F30 */]
000042AA  6004                     bra        +0x6 /* 000042B0 */
label000042AC:
000042AC  422E 0008                clr.b      [A6 + 0x8]
label000042B0:
000042B0  4E5E                     unlink     A6
000042B2  4E75                     rts
000042B4  0D61                     bchg       -[A1], D6
000042B6  7272                     moveq.l    D1, 0x72
000042B8  6F77                     ble        +0x79 /* 00004331 */
000042BA  4B65                     chk.w      D5, -[A5]
000042BC  7920                     moveq.l    D4, 0x20
000042BE  646F                     bcc        +0x71 /* 0000432F */
000042C0  776E                     moveq.l    D3, 0x6E
000042C2  0B61                     bchg       -[A1], D5
000042C4  7272                     moveq.l    D1, 0x72
000042C6  6F77                     ble        +0x79 /* 0000433F */
000042C8  4B65                     chk.w      D5, -[A5]
000042CA  7920                     moveq.l    D4, 0x20
000042CC  7570                     moveq.l    D2, 0x70
000042CE  0E61 7272                .invalid.w -[A1], 0x7272 /* 'rr' */ // invalid immediate operation
000042D2  6F77                     ble        +0x79 /* 0000434B */
000042D4  4B65                     chk.w      D5, -[A5]
000042D6  7920                     moveq.l    D4, 0x20
000042D8  7269                     moveq.l    D1, 0x69
000042DA  6768                     beq        +0x6A /* 00004344 */
000042DC  7400                     moveq.l    D2, 0x00
000042DE  0D61                     bchg       -[A1], D6
000042E0  7272                     moveq.l    D1, 0x72
000042E2  6F77                     ble        +0x79 /* 0000435B */
000042E4  4B65                     chk.w      D5, -[A5]
000042E6  7920                     moveq.l    D4, 0x20
000042E8  6C65                     bge        +0x67 /* 0000434F */
000042EA  6674                     bne        +0x76 /* 00004360 */
000042EC  0865 6E74                bchg.b     -[A5], 0x74 /* 't' */
000042F0  6572                     bcs        +0x74 /* 00004364 */
000042F2  4B65                     chk.w      D5, -[A5]
000042F4  7900                     moveq.l    D4, 0x00
000042F6  0C65 6E74                cmpi.w     -[A5], 0x6E74 /* 'nt' */
000042FA  6572                     bcs        +0x74 /* 0000436E */
000042FC  496E 4669                chk.w      D4, [A6 + 0x4669]
00004300  656C                     bcs        +0x6E /* 0000436E */
00004302  6400 0972                bcc        +0x974 /* 00004C76 */
00004306  6574                     bcs        +0x76 /* 0000437C */
00004308  7572                     moveq.l    D2, 0x72
0000430A  6E4B                     bgt        +0x4D /* 00004357 */
0000430C  6579                     bcs        +0x7B /* 00004387 */
0000430E  0D72 6574                bchg       <<invalid full ext with I/IS == 4>>, D6
00004312  7572                     moveq.l    D2, 0x72
00004314  6E49                     bgt        +0x4B /* 0000435F */
00004316  6E46                     bgt        +0x48 /* 0000435E */
00004318  6965                     bvs        +0x67 /* 0000437F */
0000431A  6C64                     bge        +0x66 /* 00004380 */
0000431C  0C66 756E                cmpi.w     -[A6], 0x756E /* 'un' */
00004320  6374                     bls        +0x76 /* 00004396 */
00004322  696F                     bvs        +0x71 /* 00004393 */
00004324  6E4B                     bgt        +0x4D /* 00004371 */
00004326  6579                     bcs        +0x7B /* 000043A1 */
00004328  2000                     move.l     D0, D0
0000432A  0B63                     bchg       -[A3], D5
0000432C  6F6E                     ble        +0x70 /* 0000439C */
0000432E  7472                     moveq.l    D2, 0x72
00004330  6F6C                     ble        +0x6E /* 0000439E */
00004332  4B65                     chk.w      D5, -[A5]
00004334  7920                     moveq.l    D4, 0x20
export_1075:
fn00004336:
00004336  4E56 FDE8                link       A6, -0x0218
0000433A  48E7 0308                movem.l    -[A7], D6,D7,A4
0000433E  3E2E 000A                move.w     D7, [A6 + 0xA]
00004342  3C2E 0008                move.w     D6, [A6 + 0x8]
// begin alternate branch 00004344-00004348
label00004344:
00004344  0008 4A47                ori.b      A0, 0x47 /* 'G' */
// end alternate branch 00004344-00004348
label00004344: // (misaligned)
00004346  4A47                     tst.w      D7
00004348  57C0                     seq        D0
0000434A  4A46                     tst.w      D6
0000434C  57C1                     seq        D1
0000434E  8001                     or.b       D0, D1
00004350  6704                     beq        +0x6 /* 00004356 */
00004352  6000 00FE                bra        +0x100 /* 00004452 */
label00004356:
00004356  7005                     moveq.l    D0, 0x05
00004358  B047                     cmp.w      D0, D7
0000435A  6632                     bne        +0x34 /* 0000438E */
0000435C  487A 011A                pea.l      [PC + 0x11A /* 00004478, value 0xC63686F, pstring "choose tool " */]
// begin alternate branch 0000435E-00004360
label0000435E:
0000435E  011A                     btst       [A2]+, D0
// end alternate branch 0000435E-00004360
label0000435E: // (misaligned)
label00004360:
00004360  486E FDE8                pea.l      [A6 - 0x218]
label00004364:
00004364  3006                     move.w     D0, D6
00004366  48C0                     ext.l      D0
00004368  2F00                     move.l     -[A7], D0
0000436A  4EAD 1902                jsr        [A5 + 0x1902 /* export_796, CODE:16 @ 000009D4 */]
label0000436E:
0000436E  486E FEDC                pea.l      [A6 - 0x124]
00004372  3F3C 0002                move.w     -[A7], 0x2
00004376  4EAD 050A                jsr        [A5 + 0x50A /* export_157, CODE:1 @ 0000531E */]
0000437A  41ED E0E8                lea.l      A0, [A5 - 0x1F18]
// begin alternate branch 0000437C-00004380
label0000437C:
0000437C  E0E8 43EE                asr   .w   [A0 + 0x43EE]
// end alternate branch 0000437C-00004380
label0000437C: // (misaligned)
0000437E  43EE FEDC                lea.l      A1, [A6 - 0x124]
// begin alternate branch 00004380-00004384
label00004380:
00004380  FEDC 7007                .extension 0xEDC <<F/2-3/7>> // unimplemented
// end alternate branch 00004380-00004384
label00004380: // (misaligned)
00004382  7007                     moveq.l    D0, 0x07
label00004384:
00004384  20D9                     move.l     [A0]+, [A1]+
00004386  51C8 FFFC                dbf        D0, -0x6 /* 00004384 */
0000438A  6000 00B2                bra        +0xB4 /* 0000443E */
label0000438E:
0000438E  7009                     moveq.l    D0, 0x09
00004390  B047                     cmp.w      D0, D7
00004392  6630                     bne        +0x32 /* 000043C4 */
00004394  487A 00D2                pea.l      [PC + 0xD2 /* 00004468, value 0xF736574, pstring "set pattern to " */]
// begin alternate branch 00004396-00004398
label00004396:
00004396  00D2                     .incomplete
// end alternate branch 00004396-00004398
label00004396: // (misaligned)
00004398  486E FDE8                pea.l      [A6 - 0x218]
label0000439C:
0000439C  3006                     move.w     D0, D6
label0000439E:
0000439E  48C0                     ext.l      D0
000043A0  2F00                     move.l     -[A7], D0
000043A2  4EAD 1902                jsr        [A5 + 0x1902 /* export_796, CODE:16 @ 000009D4 */]
000043A6  486E FED8                pea.l      [A6 - 0x128]
000043AA  3F3C 0002                move.w     -[A7], 0x2
000043AE  4EAD 050A                jsr        [A5 + 0x50A /* export_157, CODE:1 @ 0000531E */]
000043B2  41ED E0E8                lea.l      A0, [A5 - 0x1F18]
000043B6  43EE FED8                lea.l      A1, [A6 - 0x128]
000043BA  7008                     moveq.l    D0, 0x08
label000043BC:
000043BC  20D9                     move.l     [A0]+, [A1]+
000043BE  51C8 FFFC                dbf        D0, -0x6 /* 000043BC */
000043C2  607A                     bra        +0x7C /* 0000443E */
label000043C4:
000043C4  7003                     moveq.l    D0, 0x03
000043C6  B047                     cmp.w      D0, D7
000043C8  6604                     bne        +0x6 /* 000043CE */
000043CA  4EAD 15CA                jsr        [A5 + 0x15CA /* export_693, CODE:15 @ 00000B34 */]
label000043CE:
000043CE  42A7                     clr.l      -[A7]
000043D0  3F07                     move.w     -[A7], D7
000043D2  A949                     syscall    GetMenuHandle
000043D4  285F                     movea.l    A4, [A7]+
000043D6  200C                     move.l     D0, A4
000043D8  6602                     bne        +0x4 /* 000043DC */
000043DA  6076                     bra        +0x78 /* 00004452 */
label000043DC:
000043DC  7001                     moveq.l    D0, 0x01
000043DE  B047                     cmp.w      D0, D7
000043E0  57C0                     seq        D0
000043E2  7201                     moveq.l    D1, 0x01
000043E4  B246                     cmp.w      D1, D6
000043E6  57C1                     seq        D1
000043E8  C001                     and.b      D0, D1
000043EA  7201                     moveq.l    D1, 0x01
000043EC  B247                     cmp.w      D1, D7
000043EE  5DC1                     slt        D1
000043F0  740C                     moveq.l    D2, 0x0C
000043F2  B447                     cmp.w      D2, D7
000043F4  5CC2                     sge        D2
000043F6  C202                     and.b      D1, D2
000043F8  8001                     or.b       D0, D1
000043FA  670E                     beq        +0x10 /* 0000440A */
000043FC  3007                     move.w     D0, D7
000043FE  5340                     subq.w     D0, 1
00004400  41ED EED4                lea.l      A0, [A5 - 0x112C]
00004404  E540                     asl        D0.w, 2
00004406  2870 0000                movea.l    A4, [A0 + D0.w]
label0000440A:
0000440A  2F0C                     move.l     -[A7], A4
0000440C  3F06                     move.w     -[A7], D6
0000440E  486E FEFC                pea.l      [A6 - 0x104]
00004412  4EAD 1762                jsr        [A5 + 0x1762 /* export_744, CODE:15 @ 0000551E */]
00004416  487A 0046                pea.l      [PC + 0x46 /* 0000445E, value 0x8646F4D, pstring "doMenu \"" */]
0000441A  486E FEFC                pea.l      [A6 - 0x104]
0000441E  487A 003C                pea.l      [PC + 0x3C /* 0000445C, value 0x1220864 */]
00004422  486E FDFC                pea.l      [A6 - 0x204]
00004426  3F3C 0003                move.w     -[A7], 0x3
0000442A  4EAD 050A                jsr        [A5 + 0x50A /* export_157, CODE:1 @ 0000531E */]
0000442E  41ED E0E8                lea.l      A0, [A5 - 0x1F18]
00004432  43EE FDFC                lea.l      A1, [A6 - 0x204]
00004436  703F                     moveq.l    D0, 0x3F
label00004438:
00004438  20D9                     move.l     [A0]+, [A1]+
0000443A  51C8 FFFC                dbf        D0, -0x6 /* 00004438 */
label0000443E:
0000443E  102D F017                move.b     D0, [A5 - 0xFE9]
00004442  0A00 0001                xori.b     D0, 0x1
00004446  1B40 F013                move.b     [A5 - 0xFED], D0
0000444A  4EAD 0B8A                jsr        [A5 + 0xB8A /* export_365, CODE:8 @ 00003F30 */]
0000444E  422D F013                clr.b      [A5 - 0xFED]
label00004452:
00004452  4CDF 10C0                movem.l    D6,D7,A4, [A7]+
00004456  4E5E                     unlink     A6
00004458  2E9F                     move.l     [A7], [A7]+
0000445A  4E75                     rts
0000445C  0122                     btst       -[A2], D0
0000445E  0864 6F4D                bchg.b     -[A4], 0x4D /* 'M' */
00004462  656E                     bcs        +0x70 /* 000044D2 */
00004464  7520                     moveq.l    D2, 0x20
00004466  2200                     move.l     D1, D0
00004468  0F73 6574                bchg       <<invalid full ext with I/IS == 4>>, D7
0000446C  2070 6174                movea.l    A0, <<invalid full ext with I/IS == 4>>
00004470  7465                     moveq.l    D2, 0x65
00004472  726E                     moveq.l    D1, 0x6E
00004474  2074 6F20 0C63           movea.l    A0, [A4 + 0xC63 + D6 * 8]
0000447A  686F                     bvc        +0x71 /* 000044EB */
0000447C  6F73                     ble        +0x75 /* 000044F1 */
0000447E  6520                     bcs        +0x22 /* 000044A0 */
00004480  746F                     moveq.l    D2, 0x6F
00004482  6F6C                     ble        +0x6E /* 000044F0 */
00004484  2000                     move.l     D0, D0
export_1076:
00004486  4E56 FFFE                link       A6, -0x0002
0000448A  2F07                     move.l     -[A7], D7
0000448C  102D F4CE                move.b     D0, [A5 - 0xB32]
00004490  6702                     beq        +0x4 /* 00004494 */
00004492  604A                     bra        +0x4C /* 000044DE */
label00004494:
00004494  102E 0008                move.b     D0, [A6 + 0x8]
00004498  6708                     beq        +0xA /* 000044A2 */
0000449A  08ED 0007 F688           bset.b     [A5 - 0x978], 0x7
label000044A0:
000044A0  6006                     bra        +0x8 /* 000044A8 */
label000044A2:
000044A2  08AD 0007 F688           bclr.b     [A5 - 0x978], 0x7
label000044A8:
000044A8  1B7C 0001 F63B           move.b     [A5 - 0x9C5], 0x1
000044AE  082D 0007 F688           btst.b     [A5 - 0x978], 0x7
000044B4  56C0                     sne        D0
000044B6  802D F4CE                or.b       D0, [A5 - 0xB32]
000044BA  0240 0001                andi.w     D0, 0x1
000044BE  1E00                     move.b     D7, D0
000044C0  BE2D F4CD                cmp.b      D7, [A5 - 0xB33]
000044C4  6718                     beq        +0x1A /* 000044DE */
000044C6  4EBA BF90                jsr        [PC - 0x4070 /* 00000458 */]
000044CA  1F3C 0001                move.b     -[A7], 0x1
000044CE  4EAD 1542                jsr        [A5 + 0x1542 /* export_676, CODE:15 @ 00000000 */]
label000044D2:
000044D2  4EAD 1FA2                jsr        [A5 + 0x1FA2 /* export_1008, CODE:19 @ 00001B96 */]
000044D6  1B47 F4CD                move.b     [A5 - 0xB33], D7
000044DA  4EBA F454                jsr        [PC - 0xBAC /* 00003930 */]
label000044DE:
000044DE  2E1F                     move.l     D7, [A7]+
000044E0  4E5E                     unlink     A6
000044E2  205F                     movea.l    A0, [A7]+
000044E4  544F                     addq.w     A7, 2
000044E6  4ED0                     jmp        [A0]
export_1077:
000044E8  4E56 0000                link       A6, 0
000044EC  102D F4CE                move.b     D0, [A5 - 0xB32]
label000044F0:
000044F0  6702                     beq        +0x4 /* 000044F4 */
000044F2  601A                     bra        +0x1C /* 0000450E */
label000044F4:
000044F4  102E 0008                move.b     D0, [A6 + 0x8]
000044F8  6708                     beq        +0xA /* 00004502 */
000044FA  08ED 0006 F688           bset.b     [A5 - 0x978], 0x6
00004500  6006                     bra        +0x8 /* 00004508 */
label00004502:
00004502  08AD 0006 F688           bclr.b     [A5 - 0x978], 0x6
label00004508:
00004508  1B7C 0001 F63B           move.b     [A5 - 0x9C5], 0x1
label0000450E:
0000450E  4E5E                     unlink     A6
00004510  205F                     movea.l    A0, [A7]+
00004512  544F                     addq.w     A7, 2
00004514  4ED0                     jmp        [A0]
export_1078:
fn00004516:
00004516  4E56 FFFE                link       A6, -0x0002
0000451A  102D F2B3                move.b     D0, [A5 - 0xD4D]
0000451E  671E                     beq        +0x20 /* 0000453E */
00004520  4267                     clr.w      -[A7]
00004522  3F2E 0008                move.w     -[A7], [A6 + 0x8]
00004526  2F3C 8202 0006           move.l     -[A7], 0x82020006
0000452C  A8B5                     syscall    ScriptUtil
0000452E  3D5F FFFE                move.w     [A6 - 0x2], [A7]+
00004532  3F2E FFFE                move.w     -[A7], [A6 - 0x2]
00004536  2F3C 8002 0004           move.l     -[A7], 0x80020004
0000453C  A8B5                     syscall    ScriptUtil
label0000453E:
0000453E  4E5E                     unlink     A6
00004540  205F                     movea.l    A0, [A7]+
00004542  544F                     addq.w     A7, 2
00004544  4ED0                     jmp        [A0]
export_1079:
fn00004546:
00004546  4E56 FFFE                link       A6, -0x0002
0000454A  3F3C 017F                move.w     -[A7], 0x17F
0000454E  A887                     syscall    TextFont
00004550  3F3C 000C                move.w     -[A7], 0xC
00004554  A88A                     syscall    TextSize
00004556  3F3A 003A                move.w     -[A7], [PC + 0x3A /* 00004592, value 0x0, cstring "" */]
0000455A  A888                     syscall    TextFace
0000455C  3F3C 0001                move.w     -[A7], 0x1
00004560  A889                     syscall    TextMode
00004562  102D F2B3                move.b     D0, [A5 - 0xD4D]
00004566  6726                     beq        +0x28 /* 0000458E */
00004568  42A7                     clr.l      -[A7]
0000456A  3F3C 0008                move.w     -[A7], 0x8
0000456E  2F3C 8402 0008           move.l     -[A7], 0x84020008
00004574  A8B5                     syscall    ScriptUtil
00004576  2B5F DC6C                move.l     [A5 - 0x2394], [A7]+
0000457A  2F3C 0008 0000           move.l     -[A7], 0x80000
00004580  42A7                     clr.l      -[A7]
00004582  2F3C 8206 000A           move.l     -[A7], 0x8206000A
00004588  A8B5                     syscall    ScriptUtil
0000458A  3D5F FFFE                move.w     [A6 - 0x2], [A7]+
label0000458E:
0000458E  4E5E                     unlink     A6
00004590  4E75                     rts
00004592  0000 4E56                ori.b      D0, 0x56 /* 'V' */
// begin alternate branch 00004594-00004598
export_1080:
fn00004594:
00004594  4E56 FFF2                link       A6, -0x000E
// end alternate branch 00004594-00004598
export_1080: // at 00004594 (misaligned)
fn00004594: // (misaligned)
00004596  FFF2                     .invalid   <<F/7/7>>
00004598  48E7 0718                movem.l    -[A7], D5,D6,D7,A3,A4
0000459C  3A2E 0008                move.w     D5, [A6 + 0x8]
000045A0  49ED DC78                lea.l      A4, [A5 - 0x2388]
000045A4  264C                     movea.l    A3, A4
000045A6  2E2B 000C                move.l     D7, [A3 + 0xC]
000045AA  7C01                     moveq.l    D6, 0x01
000045AC  6058                     bra        +0x5A /* 00004606 */
label000045AE:
000045AE  302C 0008                move.w     D0, [A4 + 0x8]
000045B2  B06E 000A                cmp.w      D0, [A6 + 0xA]
000045B6  57C0                     seq        D0
000045B8  4A00                     tst.b      D0
000045BA  6738                     beq        +0x3A /* 000045F4 */
000045BC  2214                     move.l     D1, [A4]
000045BE  B2AD F62A                cmp.l      D1, [A5 - 0x9D6]
000045C2  57C1                     seq        D1
000045C4  C001                     and.b      D0, D1
000045C6  672C                     beq        +0x2E /* 000045F4 */
000045C8  222C 0004                move.l     D1, [A4 + 0x4]
000045CC  B2AD F4E0                cmp.l      D1, [A5 - 0xB20]
000045D0  57C1                     seq        D1
000045D2  C001                     and.b      D0, D1
000045D4  671E                     beq        +0x20 /* 000045F4 */
000045D6  4A45                     tst.w      D5
000045D8  660C                     bne        +0xE /* 000045E6 */
000045DA  2F0C                     move.l     -[A7], A4
000045DC  7010                     moveq.l    D0, 0x10
000045DE  2F00                     move.l     -[A7], D0
000045E0  4EAD 1B42                jsr        [A5 + 0x1B42 /* export_868, CODE:16 @ 00001E7C */]
000045E4  6046                     bra        +0x48 /* 0000462C */
label000045E6:
000045E6  3945 000A                move.w     [A4 + 0xA], D5
000045EA  42A7                     clr.l      -[A7]
000045EC  A975                     syscall    TickCount
000045EE  295F 000C                move.l     [A4 + 0xC], [A7]+
000045F2  6038                     bra        +0x3A /* 0000462C */
label000045F4:
000045F4  BEAC 000C                cmp.l      D7, [A4 + 0xC]
000045F8  6F06                     ble        +0x8 /* 00004600 */
000045FA  264C                     movea.l    A3, A4
000045FC  2E2B 000C                move.l     D7, [A3 + 0xC]
label00004600:
00004600  7010                     moveq.l    D0, 0x10
00004602  D9C0                     add.l      A4, D0
00004604  5246                     addq.w     D6, 1
label00004606:
00004606  701E                     moveq.l    D0, 0x1E
00004608  B046                     cmp.w      D0, D6
0000460A  6CA2                     bge        -0x5C /* 000045AE */
0000460C  4A45                     tst.w      D5
0000460E  671C                     beq        +0x1E /* 0000462C */
00004610  376E 000A 0008           move.w     [A3 + 0x8], [A6 + 0xA]
00004616  26AD F62A                move.l     [A3], [A5 - 0x9D6]
0000461A  276D F4E0 0004           move.l     [A3 + 0x4], [A5 - 0xB20]
00004620  3745 000A                move.w     [A3 + 0xA], D5
00004624  42A7                     clr.l      -[A7]
00004626  A975                     syscall    TickCount
00004628  275F 000C                move.l     [A3 + 0xC], [A7]+
label0000462C:
0000462C  4CDF 18E0                movem.l    D5,D6,D7,A3,A4, [A7]+
00004630  4E5E                     unlink     A6
00004632  2E9F                     move.l     [A7], [A7]+
00004634  4E75                     rts
export_1081:
00004636  4E56 FFFA                link       A6, -0x0006
0000463A  48E7 0018                movem.l    -[A7], A3,A4
0000463E  266E 0008                movea.l    A3, [A6 + 0x8]
00004642  422E 000C                clr.b      [A6 + 0xC]
00004646  7000                     moveq.l    D0, 0x00
00004648  2840                     movea.l    A4, D0
0000464A  102D EDAB                move.b     D0, [A5 - 0x1255]
0000464E  6704                     beq        +0x6 /* 00004654 */
00004650  286D EDAC                movea.l    A4, [A5 - 0x1254]
label00004654:
00004654  102D E245                move.b     D0, [A5 - 0x1DBB]
00004658  6704                     beq        +0x6 /* 0000465E */
0000465A  286D E246                movea.l    A4, [A5 - 0x1DBA]
label0000465E:
0000465E  200C                     move.l     D0, A4
00004660  672C                     beq        +0x2E /* 0000468E */
00004662  2F0C                     move.l     -[A7], A4
00004664  A9D7                     syscall    TEDelete
00004666  2F0B                     move.l     -[A7], A3
00004668  486E FFFB                pea.l      [A6 - 0x5]
0000466C  4EAD 1922                jsr        [A5 + 0x1922 /* export_800, CODE:16 @ 00000C02 */]
00004670  2F13                     move.l     -[A7], [A3]
00004672  42A7                     clr.l      -[A7]
00004674  2F13                     move.l     -[A7], [A3]
00004676  4EAD 1ADA                jsr        [A5 + 0x1ADA /* export_855, CODE:16 @ 00001C66 */]
0000467A  2F0C                     move.l     -[A7], A4
0000467C  A9DE                     syscall    TEInsert
0000467E  2F0B                     move.l     -[A7], A3
00004680  1F2E FFFB                move.b     -[A7], [A6 - 0x5]
00004684  4EAD 03F2                jsr        [A5 + 0x3F2 /* export_122, CODE:1 @ 00004D00 */]
00004688  1D7C 0001 000C           move.b     [A6 + 0xC], 0x1
label0000468E:
0000468E  4CDF 1800                movem.l    A3,A4, [A7]+
00004692  4E5E                     unlink     A6
00004694  2E9F                     move.l     [A7], [A7]+
00004696  4E75                     rts
export_1082:
fn00004698:
00004698  4E56 FF8C                link       A6, -0x0074
0000469C  48E7 0018                movem.l    -[A7], A3,A4
000046A0  287C 0000 0214           movea.l    A4, 0x214
000046A6  302D FC44                move.w     D0, [A5 - 0x3BC]
000046AA  4440                     neg.w      D0
000046AC  3880                     move.w     [A4], D0
000046AE  486E FF94                pea.l      [A6 - 0x6C]
000046B2  706C                     moveq.l    D0, 0x6C
000046B4  2F00                     move.l     -[A7], D0
000046B6  4EAD 1B42                jsr        [A5 + 0x1B42 /* export_868, CODE:16 @ 00001E7C */]
000046BA  41ED FC48                lea.l      A0, [A5 - 0x3B8]
000046BE  2D48 FFA6                move.l     [A6 - 0x5A], A0
000046C2  4267                     clr.w      -[A7]
000046C4  486E FF94                pea.l      [A6 - 0x6C]
000046C8  4267                     clr.w      -[A7]
000046CA  4EAD 038A                jsr        [A5 + 0x38A /* export_109, CODE:1 @ 00004B5A */]
000046CE  4A5F                     tst.w      [A7]+
000046D0  660A                     bne        +0xC /* 000046DC */
000046D2  267C 0000 0398           movea.l    A3, 0x398
000046D8  26AE FFC4                move.l     [A3], [A6 - 0x3C]
label000046DC:
000046DC  4CDF 1800                movem.l    A3,A4, [A7]+
000046E0  4E5E                     unlink     A6
000046E2  4E75                     rts
export_1083:
fn000046E4:
000046E4  4E56 FFF0                link       A6, -0x0010
000046E8  48E7 0F18                movem.l    -[A7], D4,D5,D6,D7,A3,A4
000046EC  2E2E 000C                move.l     D7, [A6 + 0xC]
000046F0  660A                     bne        +0xC /* 000046FC */
000046F2  2F3C 0000 340D           move.l     -[A7], 0x340D /* '4\r' */
000046F8  4EAD 185A                jsr        [A5 + 0x185A /* export_775, CODE:16 @ 0000042E */]
label000046FC:
000046FC  BEAD F62A                cmp.l      D7, [A5 - 0x9D6]
00004700  6604                     bne        +0x6 /* 00004706 */
00004702  6000 00E6                bra        +0xE8 /* 000047EA */
label00004706:
00004706  4AAE 0008                tst.l      [A6 + 0x8]
0000470A  6C0A                     bge        +0xC /* 00004716 */
0000470C  2F3C 0000 340E           move.l     -[A7], 0x340E
00004712  4EAD 185A                jsr        [A5 + 0x185A /* export_775, CODE:16 @ 0000042E */]
label00004716:
00004716  202E 0008                move.l     D0, [A6 + 0x8]
0000471A  B0AD F668                cmp.l      D0, [A5 - 0x998]
0000471E  6F0A                     ble        +0xC /* 0000472A */
00004720  2F3C 0000 340F           move.l     -[A7], 0x340F
00004726  4EAD 185A                jsr        [A5 + 0x185A /* export_775, CODE:16 @ 0000042E */]
label0000472A:
0000472A  282D F62A                move.l     D4, [A5 - 0x9D6]
0000472E  2A2D F622                move.l     D5, [A5 - 0x9DE]
00004732  B887                     cmp.l      D4, D7
00004734  56C0                     sne        D0
00004736  122D E2EF                move.b     D1, [A5 - 0x1D11]
0000473A  0A01 0001                xori.b     D1, 0x1
0000473E  C001                     and.b      D0, D1
00004740  6720                     beq        +0x22 /* 00004762 */
00004742  4267                     clr.w      -[A7]
00004744  4EAD 1542                jsr        [A5 + 0x1542 /* export_676, CODE:15 @ 00000000 */]
00004748  4EBA BBF0                jsr        [PC - 0x4410 /* 0000033A */]
0000474C  422D E2FB                clr.b      [A5 - 0x1D05]
00004750  41ED E2F2                lea.l      A0, [A5 - 0x1D0E]
00004754  43ED ED82                lea.l      A1, [A5 - 0x127E]
00004758  20D9                     move.l     [A0]+, [A1]+
0000475A  20D9                     move.l     [A0]+, [A1]+
0000475C  1B7C 0001 E303           move.b     [A5 - 0x1CFD], 0x1
label00004762:
00004762  42A7                     clr.l      -[A7]
00004764  2F07                     move.l     -[A7], D7
00004766  4EAD 1F7A                jsr        [A5 + 0x1F7A /* export_1003, CODE:19 @ 00001744 */]
0000476A  265F                     movea.l    A3, [A7]+
0000476C  200B                     move.l     D0, A3
0000476E  6606                     bne        +0x8 /* 00004776 */
00004770  4EAD 1812                jsr        [A5 + 0x1812 /* export_766, CODE:16 @ 00000208 */]
00004774  602E                     bra        +0x30 /* 000047A4 */
label00004776:
00004776  2853                     movea.l    A4, [A3]
00004778  2B47 F62A                move.l     [A5 - 0x9D6], D7
0000477C  2B6E 0008 F626           move.l     [A5 - 0x9DA], [A6 + 0x8]
00004782  2B6C 0020 F622           move.l     [A5 - 0x9DE], [A4 + 0x20]
00004788  2B6C 000C E2EA           move.l     [A5 - 0x1D16], [A4 + 0xC]
0000478E  082C 0005 0010           btst.b     [A4 + 0x10], 0x5
00004794  56C0                     sne        D0
00004796  4400                     neg.b      D0
00004798  1B40 E2E5                move.b     [A5 - 0x1D1B], D0
0000479C  2F07                     move.l     -[A7], D7
0000479E  4267                     clr.w      -[A7]
000047A0  4EAD 1EF2                jsr        [A5 + 0x1EF2 /* export_986, CODE:19 @ 00000450 */]
label000047A4:
000047A4  BAAD F622                cmp.l      D5, [A5 - 0x9DE]
000047A8  6740                     beq        +0x42 /* 000047EA */
000047AA  42A7                     clr.l      -[A7]
000047AC  2F2D F622                move.l     -[A7], [A5 - 0x9DE]
000047B0  4EAD 1F6A                jsr        [A5 + 0x1F6A /* export_1001, CODE:19 @ 000016EC */]
000047B4  2C1F                     move.l     D6, [A7]+
000047B6  6606                     bne        +0x8 /* 000047BE */
000047B8  4EAD 1812                jsr        [A5 + 0x1812 /* export_766, CODE:16 @ 00000208 */]
000047BC  6022                     bra        +0x24 /* 000047E0 */
label000047BE:
000047BE  2046                     movea.l    A0, D6
000047C0  2850                     movea.l    A4, [A0]
000047C2  2B6C 000C E2E6           move.l     [A5 - 0x1D1A], [A4 + 0xC]
000047C8  082C 0005 0010           btst.b     [A4 + 0x10], 0x5
000047CE  56C0                     sne        D0
000047D0  4400                     neg.b      D0
000047D2  1B40 E2E4                move.b     [A5 - 0x1D1C], D0
000047D6  2F2D F622                move.l     -[A7], [A5 - 0x9DE]
000047DA  4267                     clr.w      -[A7]
000047DC  4EAD 1EE2                jsr        [A5 + 0x1EE2 /* export_984, CODE:19 @ 00000414 */]
label000047E0:
000047E0  102D E2EF                move.b     D0, [A5 - 0x1D11]
000047E4  6604                     bne        +0x6 /* 000047EA */
000047E6  422D E2FC                clr.b      [A5 - 0x1D04]
label000047EA:
000047EA  4CDF 18F0                movem.l    D4,D5,D6,D7,A3,A4, [A7]+
000047EE  4E5E                     unlink     A6
000047F0  205F                     movea.l    A0, [A7]+
000047F2  504F                     addq.w     A7, 8
000047F4  4ED0                     jmp        [A0]
export_1084:
000047F6  4E56 FFFA                link       A6, -0x0006
000047FA  48E7 1300                movem.l    -[A7], D3,D6,D7
000047FE  3C2E 0008                move.w     D6, [A6 + 0x8]
00004802  7003                     moveq.l    D0, 0x03
00004804  B06D F02C                cmp.w      D0, [A5 - 0xFD4]
00004808  5EC0                     sgt        D0
0000480A  7201                     moveq.l    D1, 0x01
0000480C  B246                     cmp.w      D1, D6
0000480E  5DC1                     slt        D1
00004810  C001                     and.b      D0, D1
00004812  7203                     moveq.l    D1, 0x03
00004814  B26D F02C                cmp.w      D1, [A5 - 0xFD4]
00004818  57C1                     seq        D1
0000481A  7403                     moveq.l    D2, 0x03
0000481C  B446                     cmp.w      D2, D6
0000481E  57C2                     seq        D2
00004820  7602                     moveq.l    D3, 0x02
00004822  B646                     cmp.w      D3, D6
00004824  57C3                     seq        D3
00004826  8403                     or.b       D2, D3
00004828  C202                     and.b      D1, D2
0000482A  8001                     or.b       D0, D1
0000482C  670C                     beq        +0xE /* 0000483A */
0000482E  3F3C 0024                move.w     -[A7], 0x24 /* '$' */
00004832  4EAD 187A                jsr        [A5 + 0x187A /* export_779, CODE:16 @ 00000500 */]
00004836  6000 0096                bra        +0x98 /* 000048CE */
label0000483A:
0000483A  4247                     clr.w      D7
0000483C  7003                     moveq.l    D0, 0x03
0000483E  B046                     cmp.w      D0, D6
00004840  6C02                     bge        +0x4 /* 00004844 */
00004842  7E01                     moveq.l    D7, 0x01
label00004844:
00004844  486E FFFC                pea.l      [A6 - 0x4]
00004848  A874                     syscall    GetPort
0000484A  2F2D EDC4                move.l     -[A7], [A5 - 0x123C]
0000484E  A873                     syscall    SetPort
00004850  BC6D EFDC                cmp.w      D6, [A5 - 0x1024]
00004854  670C                     beq        +0xE /* 00004862 */
00004856  4EBA B7A8                jsr        [PC - 0x4858 /* 00000000 */]
0000485A  3B46 EFDC                move.w     [A5 - 0x1024], D6
0000485E  4EBA B7A0                jsr        [PC - 0x4860 /* 00000000 */]
label00004862:
00004862  BE6D EFDA                cmp.w      D7, [A5 - 0x1026]
00004866  672E                     beq        +0x30 /* 00004896 */
00004868  4EAD 193A                jsr        [A5 + 0x193A /* export_803, CODE:16 @ 00000C72 */]
0000486C  4A6D EFDA                tst.w      [A5 - 0x1026]
00004870  6604                     bne        +0x6 /* 00004876 */
00004872  4EAD 004A                jsr        [A5 + 0x4A /* export_5, CODE:1 @ 000010EA */]
label00004876:
00004876  7001                     moveq.l    D0, 0x01
00004878  B06D EFDA                cmp.w      D0, [A5 - 0x1026]
0000487C  6604                     bne        +0x6 /* 00004882 */
0000487E  4EAD 1342                jsr        [A5 + 0x1342 /* export_612, CODE:12 @ 00000EDE */]
label00004882:
00004882  4A47                     tst.w      D7
00004884  6606                     bne        +0x8 /* 0000488C */
00004886  4EAD 00AA                jsr        [A5 + 0xAA /* export_17, CODE:1 @ 00002D90 */]
0000488A  600A                     bra        +0xC /* 00004896 */
label0000488C:
0000488C  7001                     moveq.l    D0, 0x01
0000488E  B047                     cmp.w      D0, D7
00004890  6604                     bne        +0x6 /* 00004896 */
00004892  4EAD 135A                jsr        [A5 + 0x135A /* export_615, CODE:12 @ 00003DD6 */]
label00004896:
00004896  7001                     moveq.l    D0, 0x01
00004898  B06D EFDA                cmp.w      D0, [A5 - 0x1026]
0000489C  6626                     bne        +0x28 /* 000048C4 */
0000489E  302D EFDC                move.w     D0, [A5 - 0x1024]
000048A2  6B18                     bmi        +0x1A /* 000048BC */
000048A4  B07C 001F                cmp.w      D0, 0x1F
000048A8  6E12                     bgt        +0x14 /* 000048BC */
000048AA  41FA 0032                lea.l      A0, [PC + 0x32 /* 000048DE, value 0x4E56FFE8 */]
000048AE  3200                     move.w     D1, D0
000048B0  E649                     lsr        D1.w, 3
000048B2  4441                     neg.w      D1
000048B4  0130 10FF                btst       [A0 + D1.w - 0x1], D0
000048B8  0A3C 0004                xori.b     ccr, 4
label000048BC:
000048BC  57C0                     seq        D0
000048BE  4400                     neg.b      D0
000048C0  1B40 EFD9                move.b     [A5 - 0x1027], D0
label000048C4:
000048C4  4EBA 0018                jsr        [PC + 0x18 /* 000048DE */]
000048C8  2F2E FFFC                move.l     -[A7], [A6 - 0x4]
000048CC  A873                     syscall    SetPort
label000048CE:
000048CE  4CDF 00C8                movem.l    D3,D6,D7, [A7]+
000048D2  4E5E                     unlink     A6
000048D4  205F                     movea.l    A0, [A7]+
000048D6  544F                     addq.w     A7, 2
000048D8  4ED0                     jmp        [A0]
000048DA  0007 5A10                ori.b      D7, 0x10
export_1085:
fn000048DE:
000048DE  4E56 FFE8                link       A6, -0x0018
000048E2  48E7 0F00                movem.l    -[A7], D4,D5,D6,D7
000048E6  1B7C 0001 FDD7           move.b     [A5 - 0x229], 0x1
000048EC  41ED EF94                lea.l      A0, [A5 - 0x106C]
000048F0  43ED FE3C                lea.l      A1, [A5 - 0x1C4]
000048F4  7010                     moveq.l    D0, 0x10
label000048F6:
000048F6  20D9                     move.l     [A0]+, [A1]+
000048F8  51C8 FFFC                dbf        D0, -0x6 /* 000048F6 */
000048FC  7808                     moveq.l    D4, 0x08
000048FE  7A08                     moveq.l    D5, 0x08
00004900  4246                     clr.w      D6
00004902  422E FFE9                clr.b      [A6 - 0x17]
00004906  102D EFE0                move.b     D0, [A5 - 0x1020]
0000490A  6708                     beq        +0xA /* 00004914 */
0000490C  7E47                     moveq.l    D7, 0x47
0000490E  7C6D                     moveq.l    D6, 0x6D
00004910  6000 00BE                bra        +0xC0 /* 000049D0 */
label00004914:
00004914  302D EFDC                move.w     D0, [A5 - 0x1024]
00004918  5340                     subq.w     D0, 1
0000491A  6B00 00AE                bmi        +0xB0 /* 000049CA */
0000491E  0C40 000F                cmpi.w     D0, 0xF
00004922  6E00 00A6                bgt        +0xA8 /* 000049CA */
00004926  D040                     add.w      D0, D0
00004928  303B 0006                move.w     D0, [PC + D0.w + 0x6]
0000492C  4EFB 0000                jmp        [PC + D0.w]
00004930  0022 004A                ori.b      -[A2], 0x4A /* 'J' */
00004934  004A 006A                ori.w      A2, 0x6A /* 'j' */
00004938  0062 008C                ori.w      -[A2], 0x8C
0000493C  0082 0096 009C           ori.l      D2, 0x96009C
00004942  007E 009C                ori.w      <<invalid special address>>, 0x9C
00004946  009C 0074 009C           ori.l      [A4]+, 0x74009C
0000494C  009C 006E 102D           ori.l      [A4]+, 0x6E102D
00004952  EFE8 6714 41ED           bfins      [A0 + 0x41ED] {28:20}, D6
00004958  EF94                     roxl       D4, 7
0000495A  43ED EF50                lea.l      A1, [A5 - 0x10B0]
0000495E  7010                     moveq.l    D0, 0x10
label00004960:
00004960  20D9                     move.l     [A0]+, [A1]+
00004962  51C8 FFFC                dbf        D0, -0x6 /* 00004960 */
00004966  6000 012E                bra        +0x130 /* 00004A96 */
0000496A  3E3C 0098                move.w     D7, 0x98
0000496E  3C3C 0099                move.w     D6, 0x99
00004972  7807                     moveq.l    D4, 0x07
00004974  4245                     clr.w      D5
00004976  6058                     bra        +0x5A /* 000049D0 */
00004978  102D EFEB                move.b     D0, [A5 - 0x1015]
0000497C  0A00 0001                xori.b     D0, 0x1
00004980  C02D EFEA                and.b      D0, [A5 - 0x1016]
00004984  6704                     beq        +0x6 /* 0000498A */
00004986  7E59                     moveq.l    D7, 0x59
00004988  6046                     bra        +0x48 /* 000049D0 */
label0000498A:
0000498A  6000 010A                bra        +0x10C /* 00004A96 */
0000498E  6040                     bra        +0x42 /* 000049D0 */
00004990  7E5E                     moveq.l    D7, 0x5E
00004992  7802                     moveq.l    D4, 0x02
00004994  7A0F                     moveq.l    D5, 0x0F
00004996  6038                     bra        +0x3A /* 000049D0 */
00004998  7E72                     moveq.l    D7, 0x72
0000499A  6034                     bra        +0x36 /* 000049D0 */
0000499C  7E6E                     moveq.l    D7, 0x6E
0000499E  7A0C                     moveq.l    D5, 0x0C
000049A0  602E                     bra        +0x30 /* 000049D0 */
000049A2  7E5C                     moveq.l    D7, 0x5C
000049A4  7C5D                     moveq.l    D6, 0x5D
000049A6  780D                     moveq.l    D4, 0x0D
000049A8  7A10                     moveq.l    D5, 0x10
000049AA  6024                     bra        +0x26 /* 000049D0 */
000049AC  7E6F                     moveq.l    D7, 0x6F
000049AE  6020                     bra        +0x22 /* 000049D0 */
000049B0  3E2D EF4C                move.w     D7, [A5 - 0x10B4]
000049B4  DE7C 0077                add.w      D7, 0x77 /* 'w' */
000049B8  6016                     bra        +0x18 /* 000049D0 */
000049BA  7E73                     moveq.l    D7, 0x73
000049BC  7C74                     moveq.l    D6, 0x74
000049BE  7803                     moveq.l    D4, 0x03
000049C0  7A10                     moveq.l    D5, 0x10
000049C2  600C                     bra        +0xE /* 000049D0 */
000049C4  7E77                     moveq.l    D7, 0x77
000049C6  7C78                     moveq.l    D6, 0x78
000049C8  6006                     bra        +0x8 /* 000049D0 */
label000049CA:
000049CA  1D7C 0001 FFE9           move.b     [A6 - 0x17], 0x1
label000049D0:
000049D0  486D EF94                pea.l      [A5 - 0x106C]
000049D4  7011                     moveq.l    D0, 0x11
000049D6  2F00                     move.l     -[A7], D0
000049D8  4EAD 1B4A                jsr        [A5 + 0x1B4A /* export_869, CODE:16 @ 00001E9C */]
000049DC  3B44 EFD6                move.w     [A5 - 0x102A], D4
000049E0  3B45 EFD4                move.w     [A5 - 0x102C], D5
000049E4  486D EE38                pea.l      [A5 - 0x11C8]
000049E8  A873                     syscall    SetPort
000049EA  41EE FFEA                lea.l      A0, [A6 - 0x16]
000049EE  43ED EE3A                lea.l      A1, [A5 - 0x11C6]
000049F2  20D9                     move.l     [A0]+, [A1]+
000049F4  20D9                     move.l     [A0]+, [A1]+
000049F6  20D9                     move.l     [A0]+, [A1]+
000049F8  3091                     move.w     [A0], [A1]
000049FA  41ED EF94                lea.l      A0, [A5 - 0x106C]
000049FE  2B48 EE3A                move.l     [A5 - 0x11C6], A0
00004A02  3B7C 0002 EE3E           move.w     [A5 - 0x11C2], 0x2
00004A08  426D EE42                clr.w      [A5 - 0x11BE]
00004A0C  3B7C 0010 EE46           move.w     [A5 - 0x11BA], 0x10
00004A12  426D EE40                clr.w      [A5 - 0x11C0]
00004A16  3B7C 0010 EE44           move.w     [A5 - 0x11BC], 0x10
00004A1C  102E FFE9                move.b     D0, [A6 - 0x17]
00004A20  6738                     beq        +0x3A /* 00004A5A */
00004A22  A89E                     syscall    PenNormal
00004A24  3F2D EF1A                move.w     -[A7], [A5 - 0x10E6]
00004A28  3F2D EF1A                move.w     -[A7], [A5 - 0x10E6]
00004A2C  A89B                     syscall    PenSize
00004A2E  4267                     clr.w      -[A7]
00004A30  7008                     moveq.l    D0, 0x08
00004A32  906D EF18                sub.w      D0, [A5 - 0x10E8]
00004A36  3F00                     move.w     -[A7], D0
00004A38  A893                     syscall    MoveTo
00004A3A  2F3C 0000 0010           move.l     -[A7], 0x10
00004A40  A892                     syscall    Line
00004A42  7008                     moveq.l    D0, 0x08
00004A44  906D EF18                sub.w      D0, [A5 - 0x10E8]
00004A48  3F00                     move.w     -[A7], D0
00004A4A  4267                     clr.w      -[A7]
00004A4C  A893                     syscall    MoveTo
00004A4E  2F3C 0010 0000           move.l     -[A7], 0x100000
00004A54  A892                     syscall    Line
00004A56  A89E                     syscall    PenNormal
00004A58  602C                     bra        +0x2E /* 00004A86 */
label00004A5A:
00004A5A  4EBA FAEA                jsr        [PC - 0x516 /* 00004546 */]
00004A5E  2F3C 0010 0000           move.l     -[A7], 0x100000
00004A64  A893                     syscall    MoveTo
00004A66  3F07                     move.w     -[A7], D7
00004A68  A883                     syscall    DrawChar
00004A6A  4A46                     tst.w      D6
00004A6C  6714                     beq        +0x16 /* 00004A82 */
00004A6E  41ED EFB4                lea.l      A0, [A5 - 0x104C]
00004A72  2B48 EE3A                move.l     [A5 - 0x11C6], A0
00004A76  2F3C 0010 0000           move.l     -[A7], 0x100000
00004A7C  A893                     syscall    MoveTo
00004A7E  3F06                     move.w     -[A7], D6
00004A80  A883                     syscall    DrawChar
label00004A82:
00004A82  4EBA EECC                jsr        [PC - 0x1134 /* 00003950 */]
label00004A86:
00004A86  41ED EE3A                lea.l      A0, [A5 - 0x11C6]
00004A8A  43EE FFEA                lea.l      A1, [A6 - 0x16]
00004A8E  20D9                     move.l     [A0]+, [A1]+
00004A90  20D9                     move.l     [A0]+, [A1]+
00004A92  20D9                     move.l     [A0]+, [A1]+
00004A94  3091                     move.w     [A0], [A1]
label00004A96:
00004A96  4CDF 00F0                movem.l    D4,D5,D6,D7, [A7]+
00004A9A  4E5E                     unlink     A6
00004A9C  4E75                     rts
export_1086:
fn00004A9E:
00004A9E  4E56 FFFA                link       A6, -0x0006
00004AA2  48E7 1700                movem.l    -[A7], D3,D5,D6,D7
00004AA6  4267                     clr.w      -[A7]
00004AA8  3F2E 0008                move.w     -[A7], [A6 + 0x8]
00004AAC  2F3C 0005 0001           move.l     -[A7], 0x50001
00004AB2  4EAD 1A8A                jsr        [A5 + 0x1A8A /* export_845, CODE:16 @ 000019F8 */]
00004AB6  3B5F F02A                move.w     [A5 - 0xFD6], [A7]+
00004ABA  4267                     clr.w      -[A7]
00004ABC  3F2D F02A                move.w     -[A7], [A5 - 0xFD6]
00004AC0  3F2D F684                move.w     -[A7], [A5 - 0x97C]
00004AC4  4EAD 18C2                jsr        [A5 + 0x18C2 /* export_788, CODE:16 @ 000007E6 */]
00004AC8  3A1F                     move.w     D5, [A7]+
00004ACA  BA6D F02C                cmp.w      D5, [A5 - 0xFD4]
00004ACE  6602                     bne        +0x4 /* 00004AD2 */
00004AD0  6068                     bra        +0x6A /* 00004B3A */
label00004AD2:
00004AD2  7E01                     moveq.l    D7, 0x01
00004AD4  7003                     moveq.l    D0, 0x03
00004AD6  B06D F02C                cmp.w      D0, [A5 - 0xFD4]
00004ADA  6602                     bne        +0x4 /* 00004ADE */
00004ADC  7E02                     moveq.l    D7, 0x02
label00004ADE:
00004ADE  7003                     moveq.l    D0, 0x03
00004AE0  B06D F02C                cmp.w      D0, [A5 - 0xFD4]
00004AE4  6C02                     bge        +0x4 /* 00004AE8 */
00004AE6  7E03                     moveq.l    D7, 0x03
label00004AE8:
00004AE8  3B45 F02C                move.w     [A5 - 0xFD4], D5
00004AEC  7C01                     moveq.l    D6, 0x01
00004AEE  7003                     moveq.l    D0, 0x03
00004AF0  B06D F02C                cmp.w      D0, [A5 - 0xFD4]
00004AF4  6602                     bne        +0x4 /* 00004AF8 */
00004AF6  7C02                     moveq.l    D6, 0x02
label00004AF8:
00004AF8  7003                     moveq.l    D0, 0x03
00004AFA  B06D F02C                cmp.w      D0, [A5 - 0xFD4]
00004AFE  6C02                     bge        +0x4 /* 00004B02 */
00004B00  7C03                     moveq.l    D6, 0x03
label00004B02:
00004B02  BE46                     cmp.w      D7, D6
00004B04  6704                     beq        +0x6 /* 00004B0A */
00004B06  4EBA 1378                jsr        [PC + 0x1378 /* 00005E80 */]
label00004B0A:
00004B0A  7003                     moveq.l    D0, 0x03
00004B0C  B06D F02C                cmp.w      D0, [A5 - 0xFD4]
00004B10  5EC0                     sgt        D0
00004B12  7203                     moveq.l    D1, 0x03
00004B14  B26D F02C                cmp.w      D1, [A5 - 0xFD4]
00004B18  57C1                     seq        D1
00004B1A  7403                     moveq.l    D2, 0x03
00004B1C  B46D EFDC                cmp.w      D2, [A5 - 0x1024]
00004B20  57C2                     seq        D2
00004B22  7602                     moveq.l    D3, 0x02
00004B24  B66D EFDC                cmp.w      D3, [A5 - 0x1024]
00004B28  57C3                     seq        D3
00004B2A  8403                     or.b       D2, D3
00004B2C  C202                     and.b      D1, D2
00004B2E  8001                     or.b       D0, D1
00004B30  6708                     beq        +0xA /* 00004B3A */
00004B32  3F3C 0001                move.w     -[A7], 0x1
00004B36  4EAD 15F2                jsr        [A5 + 0x15F2 /* export_698, CODE:15 @ 00000E4A */]
label00004B3A:
00004B3A  4CDF 00E8                movem.l    D3,D5,D6,D7, [A7]+
00004B3E  4E5E                     unlink     A6
00004B40  205F                     movea.l    A0, [A7]+
00004B42  544F                     addq.w     A7, 2
00004B44  4ED0                     jmp        [A0]
export_1087:
00004B46  4E56 FFF0                link       A6, -0x0010
00004B4A  102D F017                move.b     D0, [A5 - 0xFE9]
00004B4E  6708                     beq        +0xA /* 00004B58 */
00004B50  1D6D DEAA 0008           move.b     [A6 + 0x8], [A5 - 0x2156]
00004B56  601A                     bra        +0x1C /* 00004B72 */
label00004B58:
00004B58  486E FFF0                pea.l      [A6 - 0x10]
00004B5C  A976                     syscall    GetKeys
00004B5E  7038                     moveq.l    D0, 0x38
00004B60  3200                     move.w     D1, D0
00004B62  E641                     asr        D1.w, 3
00004B64  0136 10F0                btst       [A6 + D1.w - 0x10], D0
00004B68  56C0                     sne        D0
00004B6A  0240 0001                andi.w     D0, 0x1
00004B6E  1D40 0008                move.b     [A6 + 0x8], D0
label00004B72:
00004B72  4E5E                     unlink     A6
00004B74  4E75                     rts
export_1088:
fn00004B76:
00004B76  4E56 0000                link       A6, 0
00004B7A  4A6D E222                tst.w      [A5 - 0x1DDE]
00004B7E  56C0                     sne        D0
00004B80  4A6D FD8A                tst.w      [A5 - 0x276]
00004B84  57C1                     seq        D1
00004B86  C001                     and.b      D0, D1
00004B88  670C                     beq        +0xE /* 00004B96 */
00004B8A  2F2D EDC8                move.l     -[A7], [A5 - 0x1238]
00004B8E  A873                     syscall    SetPort
00004B90  486D E212                pea.l      [A5 - 0x1DEE]
00004B94  A8A1                     syscall    FrameRect
label00004B96:
00004B96  4E5E                     unlink     A6
00004B98  4E75                     rts
export_1089:
00004B9A  4E56 FFF8                link       A6, -0x0008
00004B9E  48E7 0318                movem.l    -[A7], D6,D7,A3,A4
00004BA2  2C2E 000A                move.l     D6, [A6 + 0xA]
00004BA6  42A7                     clr.l      -[A7]
00004BA8  2F06                     move.l     -[A7], D6
00004BAA  4EAD 1F6A                jsr        [A5 + 0x1F6A /* export_1001, CODE:19 @ 000016EC */]
00004BAE  265F                     movea.l    A3, [A7]+
00004BB0  200B                     move.l     D0, A3
00004BB2  6606                     bne        +0x8 /* 00004BBA */
00004BB4  4EAD 1812                jsr        [A5 + 0x1812 /* export_766, CODE:16 @ 00000208 */]
00004BB8  6062                     bra        +0x64 /* 00004C1C */
label00004BBA:
00004BBA  7E00                     moveq.l    D7, 0x00
00004BBC  2853                     movea.l    A4, [A3]
00004BBE  082C 0005 0010           btst.b     [A4 + 0x10], 0x5
00004BC4  56C0                     sne        D0
00004BC6  4400                     neg.b      D0
00004BC8  B02E 0008                cmp.b      D0, [A6 + 0x8]
00004BCC  6604                     bne        +0x6 /* 00004BD2 */
00004BCE  08C7 001D                bset.b     D7, 0x1D
label00004BD2:
00004BD2  2007                     move.l     D0, D7
00004BD4  222C 0010                move.l     D1, [A4 + 0x10]
00004BD8  B380                     xor.l      D0, D1
00004BDA  2940 0010                move.l     [A4 + 0x10], D0
00004BDE  2F06                     move.l     -[A7], D6
00004BE0  4A87                     tst.l      D7
00004BE2  56C0                     sne        D0
00004BE4  4400                     neg.b      D0
00004BE6  1F00                     move.b     -[A7], D0
00004BE8  4EAD 1EE2                jsr        [A5 + 0x1EE2 /* export_984, CODE:19 @ 00000414 */]
00004BEC  BCAD F622                cmp.l      D6, [A5 - 0x9DE]
00004BF0  662A                     bne        +0x2C /* 00004C1C */
00004BF2  102E 0008                move.b     D0, [A6 + 0x8]
00004BF6  0A00 0001                xori.b     D0, 0x1
00004BFA  1B40 E2E4                move.b     [A5 - 0x1D1C], D0
00004BFE  4A87                     tst.l      D7
00004C00  56C0                     sne        D0
00004C02  4AAD E2E6                tst.l      [A5 - 0x1D1A]
00004C06  56C1                     sne        D1
00004C08  822D E2E3                or.b       D1, [A5 - 0x1D1D]
00004C0C  C001                     and.b      D0, D1
00004C0E  0240 0001                andi.w     D0, 0x1
00004C12  6708                     beq        +0xA /* 00004C1C */
00004C14  4EBA BF82                jsr        [PC - 0x407E /* 00000B98 */]
00004C18  4EBA 0C6C                jsr        [PC + 0xC6C /* 00005886 */]
label00004C1C:
00004C1C  4CDF 18C0                movem.l    D6,D7,A3,A4, [A7]+
00004C20  4E5E                     unlink     A6
00004C22  205F                     movea.l    A0, [A7]+
00004C24  5C4F                     addq.w     A7, 6
00004C26  4ED0                     jmp        [A0]
export_1090:
00004C28  4E56 FFF8                link       A6, -0x0008
00004C2C  48E7 0318                movem.l    -[A7], D6,D7,A3,A4
00004C30  2C2E 000A                move.l     D6, [A6 + 0xA]
00004C34  42A7                     clr.l      -[A7]
00004C36  2F06                     move.l     -[A7], D6
00004C38  4EAD 1F7A                jsr        [A5 + 0x1F7A /* export_1003, CODE:19 @ 00001744 */]
00004C3C  265F                     movea.l    A3, [A7]+
00004C3E  200B                     move.l     D0, A3
00004C40  6606                     bne        +0x8 /* 00004C48 */
00004C42  4EAD 1812                jsr        [A5 + 0x1812 /* export_766, CODE:16 @ 00000208 */]
00004C46  6068                     bra        +0x6A /* 00004CB0 */
label00004C48:
00004C48  7E00                     moveq.l    D7, 0x00
00004C4A  2853                     movea.l    A4, [A3]
00004C4C  082C 0005 0010           btst.b     [A4 + 0x10], 0x5
00004C52  56C0                     sne        D0
00004C54  4400                     neg.b      D0
00004C56  B02E 0008                cmp.b      D0, [A6 + 0x8]
00004C5A  6604                     bne        +0x6 /* 00004C60 */
00004C5C  08C7 001D                bset.b     D7, 0x1D
label00004C60:
00004C60  2007                     move.l     D0, D7
00004C62  222C 0010                move.l     D1, [A4 + 0x10]
00004C66  B380                     xor.l      D0, D1
00004C68  2940 0010                move.l     [A4 + 0x10], D0
00004C6C  2F06                     move.l     -[A7], D6
00004C6E  4A87                     tst.l      D7
00004C70  56C0                     sne        D0
00004C72  4400                     neg.b      D0
00004C74  1F00                     move.b     -[A7], D0
label00004C76:
00004C76  4EAD 1EF2                jsr        [A5 + 0x1EF2 /* export_986, CODE:19 @ 00000450 */]
00004C7A  BCAD F62A                cmp.l      D6, [A5 - 0x9D6]
00004C7E  6630                     bne        +0x32 /* 00004CB0 */
00004C80  102E 0008                move.b     D0, [A6 + 0x8]
00004C84  0A00 0001                xori.b     D0, 0x1
00004C88  1B40 E2E5                move.b     [A5 - 0x1D1B], D0
00004C8C  4A87                     tst.l      D7
00004C8E  56C0                     sne        D0
00004C90  122D EFDF                move.b     D1, [A5 - 0x1021]
00004C94  0A01 0001                xori.b     D1, 0x1
00004C98  C001                     and.b      D0, D1
00004C9A  4AAD E2EA                tst.l      [A5 - 0x1D16]
00004C9E  56C1                     sne        D1
00004CA0  822D E2E3                or.b       D1, [A5 - 0x1D1D]
00004CA4  C001                     and.b      D0, D1
00004CA6  6708                     beq        +0xA /* 00004CB0 */
00004CA8  4EBA BEEE                jsr        [PC - 0x4112 /* 00000B98 */]
00004CAC  4EBA 0BD8                jsr        [PC + 0xBD8 /* 00005886 */]
label00004CB0:
00004CB0  4CDF 18C0                movem.l    D6,D7,A3,A4, [A7]+
00004CB4  4E5E                     unlink     A6
00004CB6  205F                     movea.l    A0, [A7]+
00004CB8  5C4F                     addq.w     A7, 6
00004CBA  4ED0                     jmp        [A0]
export_1091:
00004CBC  4E56 FFE0                link       A6, -0x0020
00004CC0  48E7 0718                movem.l    -[A7], D5,D6,D7,A3,A4
00004CC4  102D E0E7                move.b     D0, [A5 - 0x1F19]
00004CC8  6704                     beq        +0x6 /* 00004CCE */
00004CCA  6000 009E                bra        +0xA0 /* 00004D6A */
label00004CCE:
00004CCE  1B7C 0001 E0E7           move.b     [A5 - 0x1F19], 0x1
00004CD4  2A3C 0000 0BAA           move.l     D5, 0xBAA
00004CDA  2045                     movea.l    A0, D5
00004CDC  30AD E0E4                move.w     [A0], [A5 - 0x1F1C]
00004CE0  287C 0000 09EE           movea.l    A4, 0x9EE
00004CE6  2F14                     move.l     -[A7], [A4]
00004CE8  A8D9                     syscall    DisposRgn/DisposeRgn
00004CEA  28AD E0E0                move.l     [A4], [A5 - 0x1F20]
00004CEE  41EE FFF0                lea.l      A0, [A6 - 0x10]
00004CF2  43ED FE34                lea.l      A1, [A5 - 0x1CC]
00004CF6  20D9                     move.l     [A0]+, [A1]+
00004CF8  20D9                     move.l     [A0]+, [A1]+
00004CFA  302D E0E4                move.w     D0, [A5 - 0x1F1C]
00004CFE  D06E FFF0                add.w      D0, [A6 - 0x10]
00004D02  3D40 FFF4                move.w     [A6 - 0xC], D0
00004D06  42A7                     clr.l      -[A7]
00004D08  A8D8                     syscall    NewRgn
00004D0A  265F                     movea.l    A3, [A7]+
00004D0C  2F0B                     move.l     -[A7], A3
00004D0E  486E FFF0                pea.l      [A6 - 0x10]
00004D12  A8DF                     syscall    RectRgn
00004D14  42A7                     clr.l      -[A7]
00004D16  A924                     syscall    FrontWindow
00004D18  A909                     syscall    CalcVis
00004D1A  42A7                     clr.l      -[A7]
00004D1C  A924                     syscall    FrontWindow
00004D1E  2F0B                     move.l     -[A7], A3
00004D20  A90A                     syscall    CalcVBehind
00004D22  2F0B                     move.l     -[A7], A3
00004D24  A8D9                     syscall    DisposRgn/DisposeRgn
00004D26  42A7                     clr.l      -[A7]
00004D28  A8D8                     syscall    NewRgn
00004D2A  2E1F                     move.l     D7, [A7]+
00004D2C  2F07                     move.l     -[A7], D7
00004D2E  486D FE34                pea.l      [A5 - 0x1CC]
00004D32  A8DF                     syscall    RectRgn
00004D34  42A7                     clr.l      -[A7]
00004D36  A8D8                     syscall    NewRgn
00004D38  2C1F                     move.l     D6, [A7]+
00004D3A  2F07                     move.l     -[A7], D7
00004D3C  2F14                     move.l     -[A7], [A4]
00004D3E  2F06                     move.l     -[A7], D6
00004D40  A8E6                     syscall    DiffRgn
00004D42  486E FFE0                pea.l      [A6 - 0x20]
00004D46  A910                     syscall    GetWMgrPort
00004D48  2F2E FFE0                move.l     -[A7], [A6 - 0x20]
00004D4C  A873                     syscall    SetPort
00004D4E  486D FE34                pea.l      [A5 - 0x1CC]
00004D52  A87B                     syscall    ClipRect
00004D54  2F06                     move.l     -[A7], D6
00004D56  486D FE98                pea.l      [A5 - 0x168]
00004D5A  A8D6                     syscall    FillRgn
00004D5C  2F07                     move.l     -[A7], D7
00004D5E  A8D9                     syscall    DisposRgn/DisposeRgn
00004D60  2F06                     move.l     -[A7], D6
00004D62  A8D9                     syscall    DisposRgn/DisposeRgn
00004D64  4267                     clr.w      -[A7]
00004D66  A938                     syscall    HiliteMenu
00004D68  A937                     syscall    DrawMenuBar
label00004D6A:
00004D6A  4CDF 18E0                movem.l    D5,D6,D7,A3,A4, [A7]+
00004D6E  4E5E                     unlink     A6
00004D70  4E75                     rts
fn00004D72:
00004D72  4E56 FFFE                link       A6, -0x0002
00004D76  2F0C                     move.l     -[A7], A4
00004D78  286E 0008                movea.l    A4, [A6 + 0x8]
00004D7C  41EC FFE8                lea.l      A0, [A4 - 0x18]
00004D80  43ED E468                lea.l      A1, [A5 - 0x1B98]
00004D84  20D9                     move.l     [A0]+, [A1]+
00004D86  20D9                     move.l     [A0]+, [A1]+
00004D88  486C FFE8                pea.l      [A4 - 0x18]
00004D8C  2F2C FFDA                move.l     -[A7], [A4 - 0x26]
00004D90  A8A8                     syscall    OffsetRect
00004D92  486D E462                pea.l      [A5 - 0x1B9E]
00004D96  206C FFF2                movea.l    A0, [A4 - 0xE]
00004D9A  4868 0002                pea.l      [A0 + 0x2]
00004D9E  486D E468                pea.l      [A5 - 0x1B98]
00004DA2  486C FFE8                pea.l      [A4 - 0x18]
00004DA6  4267                     clr.w      -[A7]
00004DA8  42A7                     clr.l      -[A7]
00004DAA  A8EC                     syscall    CopyBits
00004DAC  302C FFF6                move.w     D0, [A4 - 0xA]
00004DB0  5340                     subq.w     D0, 1
00004DB2  48C0                     ext.l      D0
00004DB4  81FC 0007                divs.w     D0, 0x7
00004DB8  3940 FFF8                move.w     [A4 - 0x8], D0
00004DBC  302C FFF6                move.w     D0, [A4 - 0xA]
00004DC0  5340                     subq.w     D0, 1
00004DC2  48C0                     ext.l      D0
00004DC4  81FC 0007                divs.w     D0, 0x7
00004DC8  4840                     swap.w     D0
00004DCA  4A40                     tst.w      D0
00004DCC  3940 FFFA                move.w     [A4 - 0x6], D0
00004DD0  41EC FFE8                lea.l      A0, [A4 - 0x18]
00004DD4  43ED E45A                lea.l      A1, [A5 - 0x1BA6]
00004DD8  20D9                     move.l     [A0]+, [A1]+
00004DDA  20D9                     move.l     [A0]+, [A1]+
00004DDC  486C FFE8                pea.l      [A4 - 0x18]
00004DE0  302C FFFA                move.w     D0, [A4 - 0x6]
00004DE4  ED40                     asl        D0.w, 6
00004DE6  D06C FFDC                add.w      D0, [A4 - 0x24]
00004DEA  3F00                     move.w     -[A7], D0
00004DEC  302C FFF8                move.w     D0, [A4 - 0x8]
00004DF0  C1FC 002A                muls.w     D0, 0x2A /* '*' */
00004DF4  D06C FFDA                add.w      D0, [A4 - 0x26]
00004DF8  3F00                     move.w     -[A7], D0
00004DFA  A8A8                     syscall    OffsetRect
00004DFC  486C FFE8                pea.l      [A4 - 0x18]
00004E00  2F3C FFFB FFFB           move.l     -[A7], 0xFFFBFFFB
00004E06  A8A9                     syscall    InsetRect
00004E08  A89E                     syscall    PenNormal
00004E0A  486C FFE8                pea.l      [A4 - 0x18]
00004E0E  A8A1                     syscall    FrameRect
00004E10  486C FFE8                pea.l      [A4 - 0x18]
00004E14  2F3C 0001 0001           move.l     -[A7], 0x10001
00004E1A  A8A9                     syscall    InsetRect
00004E1C  2F3C 0004 0004           move.l     -[A7], 0x40004
00004E22  A89B                     syscall    PenSize
00004E24  486D FEA0                pea.l      [A5 - 0x160]
00004E28  A89D                     syscall    PenPat
00004E2A  486C FFE8                pea.l      [A4 - 0x18]
00004E2E  A8A1                     syscall    FrameRect
00004E30  A89E                     syscall    PenNormal
00004E32  285F                     movea.l    A4, [A7]+
00004E34  4E5E                     unlink     A6
00004E36  2E9F                     move.l     [A7], [A7]+
00004E38  4E75                     rts
export_1092:
00004E3A  4E56 FF78                link       A6, -0x0088
00004E3E  48E7 0108                movem.l    -[A7], D7,A4
00004E42  4EBA BFDC                jsr        [PC - 0x4024 /* 00000E20 */]
00004E46  4EAD 1862                jsr        [A5 + 0x1862 /* export_776, CODE:16 @ 00000474 */]
00004E4A  42A7                     clr.l      -[A7]
00004E4C  3F3C 381B                move.w     -[A7], 0x381B
00004E50  42A7                     clr.l      -[A7]
00004E52  70FF                     moveq.l    D0, 0xFFFFFFFF
00004E54  2F00                     move.l     -[A7], D0
00004E56  A97C                     syscall    GetNewDialog
00004E58  2D5F FFF2                move.l     [A6 - 0xE], [A7]+
00004E5C  2F2E FFF2                move.l     -[A7], [A6 - 0xE]
00004E60  4EAD 182A                jsr        [A5 + 0x182A /* export_769, CODE:16 @ 000002AC */]
00004E64  2F2E FFF2                move.l     -[A7], [A6 - 0xE]
00004E68  A873                     syscall    SetPort
00004E6A  2F2E FFF2                move.l     -[A7], [A6 - 0xE]
00004E6E  A915                     syscall    ShowWindow
00004E70  2F2E FFF2                move.l     -[A7], [A6 - 0xE]
00004E74  A981                     syscall    DrawDialog
00004E76  206E FFF2                movea.l    A0, [A6 - 0xE]
00004E7A  4868 0010                pea.l      [A0 + 0x10]
00004E7E  A92A                     syscall    ValidRect
00004E80  206E FFF2                movea.l    A0, [A6 - 0xE]
00004E84  43EE FFE8                lea.l      A1, [A6 - 0x18]
00004E88  41E8 0010                lea.l      A0, [A0 + 0x10]
00004E8C  22D8                     move.l     [A1]+, [A0]+
00004E8E  22D8                     move.l     [A1]+, [A0]+
00004E90  486E FFE8                pea.l      [A6 - 0x18]
00004E94  2F3C 0002 0002           move.l     -[A7], 0x20002
00004E9A  A8A9                     syscall    InsetRect
00004E9C  A89E                     syscall    PenNormal
00004E9E  2F3C 0002 0002           move.l     -[A7], 0x20002
00004EA4  A89B                     syscall    PenSize
00004EA6  486E FFE8                pea.l      [A6 - 0x18]
00004EAA  A8A1                     syscall    FrameRect
00004EAC  2F2E FFF2                move.l     -[A7], [A6 - 0xE]
00004EB0  3F3C 0002                move.w     -[A7], 0x2
00004EB4  486E FFE6                pea.l      [A6 - 0x1A]
00004EB8  486E FFE2                pea.l      [A6 - 0x1E]
00004EBC  486E FFDA                pea.l      [A6 - 0x26]
00004EC0  A98D                     syscall    GetDialogItem/GetDItem
00004EC2  3D7C 0001 FFF6           move.w     [A6 - 0xA], 0x1
00004EC8  602A                     bra        +0x2C /* 00004EF4 */
label00004ECA:
00004ECA  302E FFF6                move.w     D0, [A6 - 0xA]
00004ECE  5340                     subq.w     D0, 1
00004ED0  41ED E470                lea.l      A0, [A5 - 0x1B90]
00004ED4  E740                     asl        D0.w, 3
00004ED6  49F0 0000                lea.l      A4, [A0 + D0.w]
00004EDA  2014                     move.l     D0, [A4]
00004EDC  B0AD F62A                cmp.l      D0, [A5 - 0x9D6]
00004EE0  57C0                     seq        D0
00004EE2  222C 0004                move.l     D1, [A4 + 0x4]
00004EE6  B2AD F4E0                cmp.l      D1, [A5 - 0xB20]
00004EEA  57C1                     seq        D1
00004EEC  C001                     and.b      D0, D1
00004EEE  660C                     bne        +0xE /* 00004EFC */
00004EF0  526E FFF6                addq.w     [A6 - 0xA], 1
label00004EF4:
00004EF4  702A                     moveq.l    D0, 0x2A
00004EF6  B06E FFF6                cmp.w      D0, [A6 - 0xA]
00004EFA  6CCE                     bge        -0x30 /* 00004ECA */
label00004EFC:
00004EFC  2F0E                     move.l     -[A7], A6
00004EFE  4EBA FE72                jsr        [PC - 0x18E /* 00004D72 */]
00004F02  42A7                     clr.l      -[A7]
00004F04  486E FFF0                pea.l      [A6 - 0x10]
00004F08  A991                     syscall    ModalDialog
00004F0A  7002                     moveq.l    D0, 0x02
00004F0C  B06E FFF0                cmp.w      D0, [A6 - 0x10]
00004F10  670C                     beq        +0xE /* 00004F1E */
00004F12  2F2E FFF2                move.l     -[A7], [A6 - 0xE]
00004F16  4EBA B3E2                jsr        [PC - 0x4C1E /* 000002FA */]
00004F1A  6000 00CC                bra        +0xCE /* 00004FE8 */
label00004F1E:
00004F1E  486E FFFC                pea.l      [A6 - 0x4]
00004F22  A972                     syscall    GetMouse
00004F24  4267                     clr.w      -[A7]
00004F26  302E FFFE                move.w     D0, [A6 - 0x2]
00004F2A  906E FFDC                sub.w      D0, [A6 - 0x24]
00004F2E  48C0                     ext.l      D0
00004F30  81FC 0040                divs.w     D0, 0x40 /* '@' */
00004F34  3F00                     move.w     -[A7], D0
00004F36  2F3C 0006 0000           move.l     -[A7], 0x60000
00004F3C  4EAD 1A8A                jsr        [A5 + 0x1A8A /* export_845, CODE:16 @ 000019F8 */]
00004F40  3D5F FFFA                move.w     [A6 - 0x6], [A7]+
00004F44  4267                     clr.w      -[A7]
00004F46  302E FFFC                move.w     D0, [A6 - 0x4]
00004F4A  906E FFDA                sub.w      D0, [A6 - 0x26]
00004F4E  48C0                     ext.l      D0
00004F50  81FC 002A                divs.w     D0, 0x2A /* '*' */
00004F54  3F00                     move.w     -[A7], D0
00004F56  2F3C 0005 0000           move.l     -[A7], 0x50000
00004F5C  4EAD 1A8A                jsr        [A5 + 0x1A8A /* export_845, CODE:16 @ 000019F8 */]
00004F60  3D5F FFF8                move.w     [A6 - 0x8], [A7]+
00004F64  302E FFFA                move.w     D0, [A6 - 0x6]
00004F68  5240                     addq.w     D0, 1
00004F6A  7207                     moveq.l    D1, 0x07
00004F6C  C3EE FFF8                muls.w     D1, [A6 - 0x8]
00004F70  D240                     add.w      D1, D0
00004F72  3D41 FFF6                move.w     [A6 - 0xA], D1
00004F76  422E FF7E                clr.b      [A6 - 0x82]
00004F7A  302E FFF6                move.w     D0, [A6 - 0xA]
00004F7E  5340                     subq.w     D0, 1
00004F80  41ED E470                lea.l      A0, [A5 - 0x1B90]
00004F84  E740                     asl        D0.w, 3
00004F86  2D70 0000 FF80           move.l     [A6 - 0x80], [A0 + D0.w]
00004F8C  1D7C 0005 FFAA           move.b     [A6 - 0x56], 0x5
00004F92  302E FFF6                move.w     D0, [A6 - 0xA]
00004F96  5340                     subq.w     D0, 1
00004F98  41ED E470                lea.l      A0, [A5 - 0x1B90]
00004F9C  E740                     asl        D0.w, 3
00004F9E  2D70 0004 FFD6           move.l     [A6 - 0x2A], [A0 + D0.w + 0x4]
00004FA4  4AAE FF80                tst.l      [A6 - 0x80]
00004FA8  6718                     beq        +0x1A /* 00004FC2 */
00004FAA  486E FFE8                pea.l      [A6 - 0x18]
00004FAE  2F3C FFFF FFFF           move.l     -[A7], 0xFFFFFFFF
00004FB4  A8A9                     syscall    InsetRect
00004FB6  486E FFE8                pea.l      [A6 - 0x18]
00004FBA  A8A3                     syscall    EraseRect
00004FBC  2F0E                     move.l     -[A7], A6
00004FBE  4EBA FDB2                jsr        [PC - 0x24E /* 00004D72 */]
label00004FC2:
00004FC2  4267                     clr.w      -[A7]
00004FC4  A973                     syscall    StillDown
00004FC6  101F                     move.b     D0, [A7]+
00004FC8  0A00 0001                xori.b     D0, 0x1
00004FCC  67F4                     beq        -0xA /* 00004FC2 */
00004FCE  2F2E FFF2                move.l     -[A7], [A6 - 0xE]
00004FD2  4EBA B326                jsr        [PC - 0x4CDA /* 000002FA */]
00004FD6  4AAE FF80                tst.l      [A6 - 0x80]
00004FDA  670C                     beq        +0xE /* 00004FE8 */
00004FDC  4267                     clr.w      -[A7]
00004FDE  486E FF7E                pea.l      [A6 - 0x82]
00004FE2  4EBA BFE8                jsr        [PC - 0x4018 /* 00000FCC */]
00004FE6  1E1F                     move.b     D7, [A7]+
label00004FE8:
00004FE8  4CDF 1080                movem.l    D7,A4, [A7]+
00004FEC  4E5E                     unlink     A6
00004FEE  4E75                     rts
export_1093:
00004FF0  4E56 FCFE                link       A6, -0x0302
00004FF4  4EBA B462                jsr        [PC - 0x4B9E /* 00000458 */]
00004FF8  102E 0008                move.b     D0, [A6 + 0x8]
00004FFC  6700 00A4                beq        +0xA6 /* 000050A2 */
00005000  206D ED9A                movea.l    A0, [A5 - 0x1266]
00005004  1028 006E                move.b     D0, [A0 + 0x6E]
00005008  0A00 0001                xori.b     D0, 0x1
0000500C  1D40 FFFF                move.b     [A6 - 0x1], D0
00005010  102D F005                move.b     D0, [A5 - 0xFFB]
00005014  671C                     beq        +0x1E /* 00005032 */
00005016  486E FCFE                pea.l      [A6 - 0x302]
0000501A  3F3C 001F                move.w     -[A7], 0x1F
0000501E  4EBA BF40                jsr        [PC - 0x40C0 /* 00000F60 */]
00005022  205F                     movea.l    A0, [A7]+
00005024  43EE FEFE                lea.l      A1, [A6 - 0x102]
00005028  703F                     moveq.l    D0, 0x3F
label0000502A:
0000502A  22D8                     move.l     [A1]+, [A0]+
0000502C  51C8 FFFC                dbf        D0, -0x6 /* 0000502A */
00005030  601A                     bra        +0x1C /* 0000504C */
label00005032:
00005032  486E FCFE                pea.l      [A6 - 0x302]
00005036  3F3C 001B                move.w     -[A7], 0x1B
0000503A  4EBA BF24                jsr        [PC - 0x40DC /* 00000F60 */]
0000503E  205F                     movea.l    A0, [A7]+
00005040  43EE FEFE                lea.l      A1, [A6 - 0x102]
00005044  703F                     moveq.l    D0, 0x3F
label00005046:
00005046  22D8                     move.l     [A1]+, [A0]+
00005048  51C8 FFFC                dbf        D0, -0x6 /* 00005046 */
label0000504C:
0000504C  486E FEFE                pea.l      [A6 - 0x102]
00005050  486D F2C0                pea.l      [A5 - 0xD40]
00005054  486E FCFE                pea.l      [A6 - 0x302]
00005058  3F3C 0021                move.w     -[A7], 0x21 /* '!' */
0000505C  4EBA BF02                jsr        [PC - 0x40FE /* 00000F60 */]
00005060  486E FDFE                pea.l      [A6 - 0x202]
00005064  3F3C 0003                move.w     -[A7], 0x3
00005068  4EAD 050A                jsr        [A5 + 0x50A /* export_157, CODE:1 @ 0000531E */]
0000506C  486E FDFE                pea.l      [A6 - 0x202]
00005070  4EBA E830                jsr        [PC - 0x17D0 /* 000038A2 */]
00005074  4240                     clr.w      D0
00005076  102E FEFE                move.b     D0, [A6 - 0x102]
0000507A  48C0                     ext.l      D0
0000507C  2F00                     move.l     -[A7], D0
0000507E  4240                     clr.w      D0
00005080  102E FEFE                move.b     D0, [A6 - 0x102]
00005084  4241                     clr.w      D1
00005086  122D F2C0                move.b     D1, [A5 - 0xD40]
0000508A  D240                     add.w      D1, D0
0000508C  48C1                     ext.l      D1
0000508E  2F01                     move.l     -[A7], D1
00005090  2F2D EDAC                move.l     -[A7], [A5 - 0x1254]
00005094  A9D1                     syscall    TESetSelect
00005096  4EBA D34A                jsr        [PC - 0x2CB6 /* 000023E2 */]
0000509A  1B6E FFFF EDAA           move.b     [A5 - 0x1256], [A6 - 0x1]
000050A0  6020                     bra        +0x22 /* 000050C2 */
label000050A2:
000050A2  4EAD 160A                jsr        [A5 + 0x160A /* export_701, CODE:15 @ 00001282 */]
000050A6  2F2D EDB8                move.l     -[A7], [A5 - 0x1248]
000050AA  4EBA 0312                jsr        [PC + 0x312 /* 000053BE */]
000050AE  206D EDAC                movea.l    A0, [A5 - 0x1254]
000050B2  2050                     movea.l    A0, [A0]
000050B4  4A68 003C                tst.w      [A0 + 0x3C]
000050B8  6604                     bne        +0x6 /* 000050BE */
000050BA  4EBA D326                jsr        [PC - 0x2CDA /* 000023E2 */]
label000050BE:
000050BE  422D EDAA                clr.b      [A5 - 0x1256]
label000050C2:
000050C2  4E5E                     unlink     A6
000050C4  205F                     movea.l    A0, [A7]+
000050C6  544F                     addq.w     A7, 2
000050C8  4ED0                     jmp        [A0]
export_1094:
fn000050CA:
000050CA  4E56 FFFC                link       A6, -0x0004
000050CE  7000                     moveq.l    D0, 0x00
000050D0  2D40 000A                move.l     [A6 + 0xA], D0
000050D4  4267                     clr.w      -[A7]
000050D6  3F2E 0008                move.w     -[A7], [A6 + 0x8]
000050DA  486E FFFC                pea.l      [A6 - 0x4]
000050DE  4EAD 0352                jsr        [A5 + 0x352 /* export_102, CODE:1 @ 00004A86 */]
000050E2  4A5F                     tst.w      [A7]+
000050E4  6606                     bne        +0x8 /* 000050EC */
000050E6  2D6E FFFC 000A           move.l     [A6 + 0xA], [A6 - 0x4]
label000050EC:
000050EC  4E5E                     unlink     A6
000050EE  205F                     movea.l    A0, [A7]+
000050F0  544F                     addq.w     A7, 2
000050F2  4ED0                     jmp        [A0]
export_1095:
000050F4  4E56 FFDC                link       A6, -0x0024
000050F8  48E7 0300                movem.l    -[A7], D6,D7
000050FC  422E 0010                clr.b      [A6 + 0x10]
00005100  206E 0008                movea.l    A0, [A6 + 0x8]
00005104  4210                     clr.b      [A0]
00005106  206E 000C                movea.l    A0, [A6 + 0xC]
0000510A  43EE FFE2                lea.l      A1, [A6 - 0x1E]
0000510E  7006                     moveq.l    D0, 0x06
label00005110:
00005110  22D8                     move.l     [A1]+, [A0]+
00005112  51C8 FFFC                dbf        D0, -0x6 /* 00005110 */
00005116  3290                     move.w     [A1], [A0]
00005118  700D                     moveq.l    D0, 0x0D
0000511A  B06D F008                cmp.w      D0, [A5 - 0xFF8]
0000511E  6600 010C                bne        +0x10E /* 0000522C */
00005122  1D7C 0001 0010           move.b     [A6 + 0x10], 0x1
00005128  102D F003                move.b     D0, [A5 - 0xFFD]
0000512C  6728                     beq        +0x2A /* 00005156 */
0000512E  206E 000C                movea.l    A0, [A6 + 0xC]
00005132  226E 000C                movea.l    A1, [A6 + 0xC]
00005136  3028 001C                move.w     D0, [A0 + 0x1C]
0000513A  B069 0018                cmp.w      D0, [A1 + 0x18]
0000513E  6F12                     ble        +0x14 /* 00005152 */
00005140  206E 000C                movea.l    A0, [A6 + 0xC]
00005144  3028 001C                move.w     D0, [A0 + 0x1C]
00005148  5340                     subq.w     D0, 1
0000514A  206E 000C                movea.l    A0, [A6 + 0xC]
0000514E  3140 001C                move.w     [A0 + 0x1C], D0
label00005152:
00005152  6000 00D8                bra        +0xDA /* 0000522C */
label00005156:
00005156  102D F005                move.b     D0, [A5 - 0xFFB]
0000515A  6700 0088                beq        +0x8A /* 000051E4 */
0000515E  4EBA 0C4A                jsr        [PC + 0xC4A /* 00005DAA */]
00005162  3D6D DEC4 FFDC           move.w     [A6 - 0x24], [A5 - 0x213C]
00005168  7C02                     moveq.l    D6, 0x02
0000516A  6070                     bra        +0x72 /* 000051DC */
label0000516C:
0000516C  206E 000C                movea.l    A0, [A6 + 0xC]
00005170  226D DEC0                movea.l    A1, [A5 - 0x2140]
00005174  2251                     movea.l    A1, [A1]
00005176  3006                     move.w     D0, D6
00005178  D040                     add.w      D0, D0
0000517A  3228 0016                move.w     D1, [A0 + 0x16]
0000517E  B271 00FE                cmp.w      D1, [A1 + D0.w - 0x2]
00005182  6654                     bne        +0x56 /* 000051D8 */
00005184  206D DEC0                movea.l    A0, [A5 - 0x2140]
00005188  2050                     movea.l    A0, [A0]
0000518A  3006                     move.w     D0, D6
0000518C  5340                     subq.w     D0, 1
0000518E  D040                     add.w      D0, D0
00005190  226E 000C                movea.l    A1, [A6 + 0xC]
00005194  3370 00FE 0016           move.w     [A1 + 0x16], [A0 + D0.w - 0x2]
0000519A  206E 000C                movea.l    A0, [A6 + 0xC]
0000519E  2F08                     move.l     -[A7], A0
000051A0  4267                     clr.w      -[A7]
000051A2  226E 000C                movea.l    A1, [A6 + 0xC]
000051A6  3F29 0016                move.w     -[A7], [A1 + 0x16]
000051AA  226E 000C                movea.l    A1, [A6 + 0xC]
000051AE  3F29 0018                move.w     -[A7], [A1 + 0x18]
000051B2  4EAD 17AA                jsr        [A5 + 0x17AA /* export_753, CODE:15 @ 0000649A */]
000051B6  301F                     move.w     D0, [A7]+
000051B8  205F                     movea.l    A0, [A7]+
000051BA  3140 0018                move.w     [A0 + 0x18], D0
000051BE  206E 000C                movea.l    A0, [A6 + 0xC]
000051C2  3028 0018                move.w     D0, [A0 + 0x18]
000051C6  E540                     asl        D0.w, 2
000051C8  48C0                     ext.l      D0
000051CA  81FC 0003                divs.w     D0, 0x3
000051CE  206E 000C                movea.l    A0, [A6 + 0xC]
000051D2  3140 001C                move.w     [A0 + 0x1C], D0
000051D6  6054                     bra        +0x56 /* 0000522C */
label000051D8:
000051D8  5246                     addq.w     D6, 1
000051DA  6906                     bvs        +0x8 /* 000051E2 */
label000051DC:
000051DC  BC6E FFDC                cmp.w      D6, [A6 - 0x24]
000051E0  6F8A                     ble        -0x74 /* 0000516C */
label000051E2:
000051E2  6048                     bra        +0x4A /* 0000522C */
label000051E4:
000051E4  4EBA 0BC4                jsr        [PC + 0xBC4 /* 00005DAA */]
000051E8  206E 000C                movea.l    A0, [A6 + 0xC]
000051EC  3028 0018                move.w     D0, [A0 + 0x18]
000051F0  5340                     subq.w     D0, 1
000051F2  3E00                     move.w     D7, D0
000051F4  6030                     bra        +0x32 /* 00005226 */
label000051F6:
000051F6  4267                     clr.w      -[A7]
000051F8  206E 000C                movea.l    A0, [A6 + 0xC]
000051FC  3F28 0016                move.w     -[A7], [A0 + 0x16]
00005200  3F07                     move.w     -[A7], D7
00005202  A902                     syscall    RealFont
00005204  101F                     move.b     D0, [A7]+
00005206  671C                     beq        +0x1E /* 00005224 */
00005208  206E 000C                movea.l    A0, [A6 + 0xC]
0000520C  3147 0018                move.w     [A0 + 0x18], D7
00005210  3007                     move.w     D0, D7
00005212  E540                     asl        D0.w, 2
00005214  48C0                     ext.l      D0
00005216  81FC 0003                divs.w     D0, 0x3
0000521A  206E 000C                movea.l    A0, [A6 + 0xC]
0000521E  3140 001C                move.w     [A0 + 0x1C], D0
00005222  6008                     bra        +0xA /* 0000522C */
label00005224:
00005224  5347                     subq.w     D7, 1
label00005226:
00005226  7001                     moveq.l    D0, 0x01
00005228  B047                     cmp.w      D0, D7
0000522A  6FCA                     ble        -0x34 /* 000051F6 */
label0000522C:
0000522C  700E                     moveq.l    D0, 0x0E
0000522E  B06D F008                cmp.w      D0, [A5 - 0xFF8]
00005232  6600 00F8                bne        +0xFA /* 0000532C */
00005236  1D7C 0001 0010           move.b     [A6 + 0x10], 0x1
0000523C  102D F003                move.b     D0, [A5 - 0xFFD]
00005240  6716                     beq        +0x18 /* 00005258 */
00005242  206E 000C                movea.l    A0, [A6 + 0xC]
00005246  3028 001C                move.w     D0, [A0 + 0x1C]
0000524A  5240                     addq.w     D0, 1
0000524C  206E 000C                movea.l    A0, [A6 + 0xC]
00005250  3140 001C                move.w     [A0 + 0x1C], D0
00005254  6000 00D6                bra        +0xD8 /* 0000532C */
label00005258:
00005258  102D F005                move.b     D0, [A5 - 0xFFB]
0000525C  6700 0086                beq        +0x88 /* 000052E4 */
00005260  4EBA 0B48                jsr        [PC + 0xB48 /* 00005DAA */]
00005264  302D DEC4                move.w     D0, [A5 - 0x213C]
00005268  5340                     subq.w     D0, 1
0000526A  3C00                     move.w     D6, D0
0000526C  606E                     bra        +0x70 /* 000052DC */
label0000526E:
0000526E  206E 000C                movea.l    A0, [A6 + 0xC]
00005272  226D DEC0                movea.l    A1, [A5 - 0x2140]
00005276  2251                     movea.l    A1, [A1]
00005278  3006                     move.w     D0, D6
0000527A  D040                     add.w      D0, D0
0000527C  3228 0016                move.w     D1, [A0 + 0x16]
00005280  B271 00FE                cmp.w      D1, [A1 + D0.w - 0x2]
00005284  6654                     bne        +0x56 /* 000052DA */
00005286  206D DEC0                movea.l    A0, [A5 - 0x2140]
0000528A  2050                     movea.l    A0, [A0]
0000528C  3006                     move.w     D0, D6
0000528E  5240                     addq.w     D0, 1
00005290  D040                     add.w      D0, D0
00005292  226E 000C                movea.l    A1, [A6 + 0xC]
00005296  3370 00FE 0016           move.w     [A1 + 0x16], [A0 + D0.w - 0x2]
0000529C  206E 000C                movea.l    A0, [A6 + 0xC]
000052A0  2F08                     move.l     -[A7], A0
000052A2  4267                     clr.w      -[A7]
000052A4  226E 000C                movea.l    A1, [A6 + 0xC]
000052A8  3F29 0016                move.w     -[A7], [A1 + 0x16]
000052AC  226E 000C                movea.l    A1, [A6 + 0xC]
000052B0  3F29 0018                move.w     -[A7], [A1 + 0x18]
000052B4  4EAD 17AA                jsr        [A5 + 0x17AA /* export_753, CODE:15 @ 0000649A */]
000052B8  301F                     move.w     D0, [A7]+
000052BA  205F                     movea.l    A0, [A7]+
000052BC  3140 0018                move.w     [A0 + 0x18], D0
000052C0  206E 000C                movea.l    A0, [A6 + 0xC]
000052C4  3028 0018                move.w     D0, [A0 + 0x18]
000052C8  E540                     asl        D0.w, 2
000052CA  48C0                     ext.l      D0
000052CC  81FC 0003                divs.w     D0, 0x3
000052D0  206E 000C                movea.l    A0, [A6 + 0xC]
000052D4  3140 001C                move.w     [A0 + 0x1C], D0
000052D8  6052                     bra        +0x54 /* 0000532C */
label000052DA:
000052DA  5346                     subq.w     D6, 1
label000052DC:
000052DC  7001                     moveq.l    D0, 0x01
000052DE  B046                     cmp.w      D0, D6
000052E0  6F8C                     ble        -0x72 /* 0000526E */
000052E2  6048                     bra        +0x4A /* 0000532C */
label000052E4:
000052E4  4EBA 0AC4                jsr        [PC + 0xAC4 /* 00005DAA */]
000052E8  206E 000C                movea.l    A0, [A6 + 0xC]
000052EC  3028 0018                move.w     D0, [A0 + 0x18]
000052F0  5240                     addq.w     D0, 1
000052F2  3E00                     move.w     D7, D0
000052F4  6030                     bra        +0x32 /* 00005326 */
label000052F6:
000052F6  4267                     clr.w      -[A7]
000052F8  206E 000C                movea.l    A0, [A6 + 0xC]
000052FC  3F28 0016                move.w     -[A7], [A0 + 0x16]
00005300  3F07                     move.w     -[A7], D7
00005302  A902                     syscall    RealFont
00005304  101F                     move.b     D0, [A7]+
00005306  671C                     beq        +0x1E /* 00005324 */
00005308  206E 000C                movea.l    A0, [A6 + 0xC]
0000530C  3147 0018                move.w     [A0 + 0x18], D7
00005310  3007                     move.w     D0, D7
00005312  E540                     asl        D0.w, 2
00005314  48C0                     ext.l      D0
00005316  81FC 0003                divs.w     D0, 0x3
0000531A  206E 000C                movea.l    A0, [A6 + 0xC]
0000531E  3140 001C                move.w     [A0 + 0x1C], D0
00005322  6008                     bra        +0xA /* 0000532C */
label00005324:
00005324  5247                     addq.w     D7, 1
label00005326:
00005326  7030                     moveq.l    D0, 0x30
00005328  B047                     cmp.w      D0, D7
0000532A  6CCA                     bge        -0x34 /* 000052F6 */
label0000532C:
0000532C  206E 0008                movea.l    A0, [A6 + 0x8]
00005330  2F08                     move.l     -[A7], A0
00005332  4267                     clr.w      -[A7]
00005334  2F2E 000C                move.l     -[A7], [A6 + 0xC]
00005338  486E FFE2                pea.l      [A6 - 0x1E]
0000533C  3F3C 001E                move.w     -[A7], 0x1E
00005340  4EAD 19FA                jsr        [A5 + 0x19FA /* export_827, CODE:16 @ 00001412 */]
00005344  101F                     move.b     D0, [A7]+
00005346  205F                     movea.l    A0, [A7]+
00005348  0A00 0001                xori.b     D0, 0x1
0000534C  1080                     move.b     [A0], D0
0000534E  4CDF 00C0                movem.l    D6,D7, [A7]+
00005352  4E5E                     unlink     A6
00005354  205F                     movea.l    A0, [A7]+
00005356  504F                     addq.w     A7, 8
00005358  4ED0                     jmp        [A0]
export_1096:
0000535A  4E56 0000                link       A6, 0
0000535E  3F2D F2BC                move.w     -[A7], [A5 - 0xD44]
00005362  A887                     syscall    TextFont
00005364  3F2D F2BA                move.w     -[A7], [A5 - 0xD46]
00005368  A88A                     syscall    TextSize
0000536A  3F3A 000E                move.w     -[A7], [PC + 0xE /* 0000537A, value 0x0, cstring "" */]
0000536E  A888                     syscall    TextFace
00005370  3F3C 0001                move.w     -[A7], 0x1
00005374  A889                     syscall    TextMode
00005376  4E5E                     unlink     A6
00005378  4E75                     rts
0000537A  0000 4E56                ori.b      D0, 0x56 /* 'V' */
// begin alternate branch 0000537C-00005386
export_1097:
fn0000537C:
0000537C  4E56 0000                link       A6, 0
00005380  4A6D EFDA                tst.w      [A5 - 0x1026]
00005384  6606                     bne        +0x8 /* 0000538C */
// end alternate branch 0000537C-00005386
export_1097: // at 0000537C (misaligned)
fn0000537C: // (misaligned)
0000537E  0000 4A6D                ori.b      D0, 0x6D /* 'm' */
00005382  EFDA 6606                bfins      [A2]+ {24:6}, D6
00005386  4EAD 08BA                jsr        [A5 + 0x8BA /* export_275, CODE:7 @ 000037D8 */]
0000538A  6004                     bra        +0x6 /* 00005390 */
label0000538C:
0000538C  4EAD 13AA                jsr        [A5 + 0x13AA /* export_625, CODE:12 @ 00005190 */]
label00005390:
00005390  4E5E                     unlink     A6
00005392  4E75                     rts
export_1098:
00005394  4E56 0000                link       A6, 0
00005398  0A2D 0001 EF41           xori.b     [A5 - 0x10BF], 0x1
0000539E  4EBA 0E20                jsr        [PC + 0xE20 /* 000061C0 */]
000053A2  206D EDA6                movea.l    A0, [A5 - 0x125A]
000053A6  1028 006E                move.b     D0, [A0 + 0x6E]
000053AA  670E                     beq        +0x10 /* 000053BA */
000053AC  2F2D EDC4                move.l     -[A7], [A5 - 0x123C]
000053B0  A873                     syscall    SetPort
000053B2  486D EF2A                pea.l      [A5 - 0x10D6]
000053B6  4EAD 16DA                jsr        [A5 + 0x16DA /* export_727, CODE:15 @ 00004190 */]
label000053BA:
000053BA  4E5E                     unlink     A6
000053BC  4E75                     rts
export_1099:
fn000053BE:
000053BE  4E56 FFFC                link       A6, -0x0004
000053C2  48E7 0018                movem.l    -[A7], A3,A4
000053C6  286E 0008                movea.l    A4, [A6 + 0x8]
000053CA  264C                     movea.l    A3, A4
000053CC  102B 006E                move.b     D0, [A3 + 0x6E]
000053D0  6714                     beq        +0x16 /* 000053E6 */
000053D2  B9ED EDB8                cmpa.l     A4, [A5 - 0x1248]
000053D6  6604                     bne        +0x6 /* 000053DC */
000053D8  4EAD 160A                jsr        [A5 + 0x160A /* export_701, CODE:15 @ 00001282 */]
label000053DC:
000053DC  2F0C                     move.l     -[A7], A4
000053DE  A916                     syscall    HideWindow
000053E0  4EBA 09A0                jsr        [PC + 0x9A0 /* 00005D82 */]
000053E4  6032                     bra        +0x34 /* 00005418 */
label000053E6:
000053E6  2F0C                     move.l     -[A7], A4
000053E8  A915                     syscall    ShowWindow
000053EA  2F0C                     move.l     -[A7], A4
000053EC  A91F                     syscall    SelectWindow
000053EE  2F0C                     move.l     -[A7], A4
000053F0  A873                     syscall    SetPort
000053F2  B9ED EDB8                cmpa.l     A4, [A5 - 0x1248]
000053F6  6604                     bne        +0x6 /* 000053FC */
000053F8  4EAD 16B2                jsr        [A5 + 0x16B2 /* export_722, CODE:15 @ 00003B86 */]
label000053FC:
000053FC  B9ED EDC4                cmpa.l     A4, [A5 - 0x123C]
00005400  6608                     bne        +0xA /* 0000540A */
00005402  486D EF2A                pea.l      [A5 - 0x10D6]
00005406  4EAD 16DA                jsr        [A5 + 0x16DA /* export_727, CODE:15 @ 00004190 */]
label0000540A:
0000540A  B9ED EDC0                cmpa.l     A4, [A5 - 0x1240]
0000540E  6608                     bne        +0xA /* 00005418 */
00005410  486D EF38                pea.l      [A5 - 0x10C8]
00005414  4EAD 16C2                jsr        [A5 + 0x16C2 /* export_724, CODE:15 @ 00003DD2 */]
label00005418:
00005418  4CDF 1800                movem.l    A3,A4, [A7]+
0000541C  4E5E                     unlink     A6
0000541E  2E9F                     move.l     [A7], [A7]+
00005420  4E75                     rts
fn00005422:
00005422  4E56 FFF4                link       A6, -0x000C
00005426  48E7 0708                movem.l    -[A7], D5,D6,D7,A4
0000542A  3E2E 000C                move.w     D7, [A6 + 0xC]
0000542E  286E 0008                movea.l    A4, [A6 + 0x8]
00005432  7001                     moveq.l    D0, 0x01
00005434  B047                     cmp.w      D0, D7
00005436  5EC0                     sgt        D0
00005438  7218                     moveq.l    D1, 0x18
0000543A  B247                     cmp.w      D1, D7
0000543C  5DC1                     slt        D1
0000543E  8001                     or.b       D0, D1
00005440  6704                     beq        +0x6 /* 00005446 */
00005442  6000 0096                bra        +0x98 /* 000054DA */
label00005446:
00005446  5347                     subq.w     D7, 1
00005448  3007                     move.w     D0, D7
0000544A  48C0                     ext.l      D0
0000544C  81FC 0003                divs.w     D0, 0x3
00005450  3C00                     move.w     D6, D0
00005452  3007                     move.w     D0, D7
00005454  48C0                     ext.l      D0
00005456  81FC 0003                divs.w     D0, 0x3
0000545A  4840                     swap.w     D0
0000545C  4A40                     tst.w      D0
0000545E  3A00                     move.w     D5, D0
00005460  206C 0010                movea.l    A0, [A4 + 0x10]
00005464  3005                     move.w     D0, D5
00005466  C1FC 0017                muls.w     D0, 0x17
0000546A  D068 0002                add.w      D0, [A0 + 0x2]
0000546E  3D40 FFFA                move.w     [A6 - 0x6], D0
00005472  206C 0010                movea.l    A0, [A4 + 0x10]
00005476  3006                     move.w     D0, D6
00005478  C1FC 0015                muls.w     D0, 0x15
0000547C  D050                     add.w      D0, [A0]
0000547E  3D40 FFF8                move.w     [A6 - 0x8], D0
00005482  4A46                     tst.w      D6
00005484  6F0A                     ble        +0xC /* 00005490 */
00005486  302E FFF8                move.w     D0, [A6 - 0x8]
0000548A  5840                     addq.w     D0, 4
0000548C  3D40 FFF8                move.w     [A6 - 0x8], D0
label00005490:
00005490  302E FFFA                move.w     D0, [A6 - 0x6]
00005494  D07C 0017                add.w      D0, 0x17
00005498  5340                     subq.w     D0, 1
0000549A  3D40 FFFE                move.w     [A6 - 0x2], D0
0000549E  302E FFF8                move.w     D0, [A6 - 0x8]
000054A2  D07C 0015                add.w      D0, 0x15
000054A6  5340                     subq.w     D0, 1
000054A8  3D40 FFFC                move.w     [A6 - 0x4], D0
000054AC  102C FFF9                move.b     D0, [A4 - 0x7]
000054B0  6708                     beq        +0xA /* 000054BA */
000054B2  486E FFF8                pea.l      [A6 - 0x8]
000054B6  A8A4                     syscall    InvertRect
000054B8  6020                     bra        +0x22 /* 000054DA */
label000054BA:
000054BA  3F3C 000A                move.w     -[A7], 0xA /* '\n' */
000054BE  A89C                     syscall    PenMode
000054C0  2F3C 0002 0002           move.l     -[A7], 0x20002
000054C6  A89B                     syscall    PenSize
000054C8  486E FFF8                pea.l      [A6 - 0x8]
000054CC  2F3C FFFF FFFF           move.l     -[A7], 0xFFFFFFFF
000054D2  A8A9                     syscall    InsetRect
000054D4  486E FFF8                pea.l      [A6 - 0x8]
000054D8  A8A1                     syscall    FrameRect
label000054DA:
000054DA  4CDF 10E0                movem.l    D5,D6,D7,A4, [A7]+
000054DE  4E5E                     unlink     A6
000054E0  205F                     movea.l    A0, [A7]+
000054E2  5C4F                     addq.w     A7, 6
000054E4  4ED0                     jmp        [A0]
export_1100:
000054E6  4E56 FFE0                link       A6, -0x0020
000054EA  48E7 0F18                movem.l    -[A7], D4,D5,D6,D7,A3,A4
000054EE  2A2E 0008                move.l     D5, [A6 + 0x8]
000054F2  2F0D                     move.l     -[A7], A5
000054F4  2A78 0904                movea.l    A5, [0x00000904 /* CurrentA5 */]
000054F8  4A6E 0018                tst.w      [A6 + 0x18]
000054FC  6622                     bne        +0x24 /* 00005520 */
000054FE  2F2E 0010                move.l     -[A7], [A6 + 0x10]
00005502  4EAD 16DA                jsr        [A5 + 0x16DA /* export_727, CODE:15 @ 00004190 */]
00005506  1D7C 0001 FFF9           move.b     [A6 - 0x7], 0x1
0000550C  3F2D EFDC                move.w     -[A7], [A5 - 0x1024]
00005510  2F0E                     move.l     -[A7], A6
00005512  4EBA FF0E                jsr        [PC - 0xF2 /* 00005422 */]
00005516  1B7C 0001 E08B           move.b     [A5 - 0x1F75], 0x1
0000551C  6000 01C8                bra        +0x1CA /* 000056E6 */
label00005520:
00005520  7001                     moveq.l    D0, 0x01
00005522  B06E 0018                cmp.w      D0, [A6 + 0x18]
00005526  6600 019E                bne        +0x1A0 /* 000056C6 */
0000552A  4247                     clr.w      D7
0000552C  4267                     clr.w      -[A7]
0000552E  2F2E 000C                move.l     -[A7], [A6 + 0xC]
00005532  2F2E 0010                move.l     -[A7], [A6 + 0x10]
00005536  A8AD                     syscall    PtInRect
00005538  101F                     move.b     D0, [A7]+
0000553A  6734                     beq        +0x36 /* 00005570 */
0000553C  206E 0010                movea.l    A0, [A6 + 0x10]
00005540  302E 000C                move.w     D0, [A6 + 0xC]
00005544  9050                     sub.w      D0, [A0]
00005546  5940                     subq.w     D0, 4
00005548  48C0                     ext.l      D0
0000554A  81FC 0015                divs.w     D0, 0x15
0000554E  3800                     move.w     D4, D0
00005550  206E 0010                movea.l    A0, [A6 + 0x10]
00005554  302E 000E                move.w     D0, [A6 + 0xE]
00005558  9068 0002                sub.w      D0, [A0 + 0x2]
0000555C  48C0                     ext.l      D0
0000555E  81FC 0017                divs.w     D0, 0x17
00005562  3C00                     move.w     D6, D0
00005564  5240                     addq.w     D0, 1
00005566  3204                     move.w     D1, D4
00005568  C3FC 0003                muls.w     D1, 0x3
0000556C  3E01                     move.w     D7, D1
0000556E  DE40                     add.w      D7, D0
label00005570:
00005570  4267                     clr.w      -[A7]
00005572  A974                     syscall    Button
00005574  101F                     move.b     D0, [A7]+
00005576  0A00 0001                xori.b     D0, 0x1
0000557A  1D40 FFF9                move.b     [A6 - 0x7], D0
0000557E  102D E08B                move.b     D0, [A5 - 0x1F75]
00005582  C02E FFF9                and.b      D0, [A6 - 0x7]
00005586  670E                     beq        +0x10 /* 00005596 */
00005588  3F2D EFDC                move.w     -[A7], [A5 - 0x1024]
0000558C  2F0E                     move.l     -[A7], A6
0000558E  4EBA FE92                jsr        [PC - 0x16E /* 00005422 */]
00005592  422D E08B                clr.b      [A5 - 0x1F75]
label00005596:
00005596  2045                     movea.l    A0, D5
00005598  3F10                     move.w     -[A7], [A0]
0000559A  2F0E                     move.l     -[A7], A6
0000559C  4EBA FE84                jsr        [PC - 0x17C /* 00005422 */]
000055A0  2045                     movea.l    A0, D5
000055A2  BE50                     cmp.w      D7, [A0]
000055A4  6608                     bne        +0xA /* 000055AE */
000055A6  3F3C 0002                move.w     -[A7], 0x2
000055AA  4EAD 1872                jsr        [A5 + 0x1872 /* export_778, CODE:16 @ 000004E4 */]
label000055AE:
000055AE  3F07                     move.w     -[A7], D7
000055B0  2F0E                     move.l     -[A7], A6
000055B2  4EBA FE6E                jsr        [PC - 0x192 /* 00005422 */]
000055B6  2045                     movea.l    A0, D5
000055B8  BE50                     cmp.w      D7, [A0]
000055BA  6608                     bne        +0xA /* 000055C4 */
000055BC  3F3C 0002                move.w     -[A7], 0x2
000055C0  4EAD 1872                jsr        [A5 + 0x1872 /* export_778, CODE:16 @ 000004E4 */]
label000055C4:
000055C4  2045                     movea.l    A0, D5
000055C6  3087                     move.w     [A0], D7
000055C8  A89E                     syscall    PenNormal
000055CA  206E 0010                movea.l    A0, [A6 + 0x10]
000055CE  43EE FFE0                lea.l      A1, [A6 - 0x20]
000055D2  22D8                     move.l     [A1]+, [A0]+
000055D4  22D8                     move.l     [A1]+, [A0]+
000055D6  486E FFE0                pea.l      [A6 - 0x20]
000055DA  2F3C FFF1 FFF1           move.l     -[A7], 0xFFF1FFF1
000055E0  A8A9                     syscall    InsetRect
000055E2  426D E088                clr.w      [A5 - 0x1F78]
000055E6  7032                     moveq.l    D0, 0x32
000055E8  B06E 000C                cmp.w      D0, [A6 + 0xC]
000055EC  5DC0                     slt        D0
000055EE  2F00                     move.l     -[A7], D0
000055F0  4267                     clr.w      -[A7]
000055F2  2F2E 000C                move.l     -[A7], [A6 + 0xC]
000055F6  486E FFE0                pea.l      [A6 - 0x20]
000055FA  A8AD                     syscall    PtInRect
000055FC  121F                     move.b     D1, [A7]+
000055FE  201F                     move.l     D0, [A7]+
00005600  0A01 0001                xori.b     D1, 0x1
00005604  C001                     and.b      D0, D1
00005606  6700 00BC                beq        +0xBE /* 000056C4 */
0000560A  3B7C 0005 E088           move.w     [A5 - 0x1F78], 0x5
00005610  206D FEA8                movea.l    A0, [A5 - 0x158]
00005614  2668 001C                movea.l    A3, [A0 + 0x1C]
00005618  42A7                     clr.l      -[A7]
0000561A  A8D8                     syscall    NewRgn
0000561C  285F                     movea.l    A4, [A7]+
0000561E  2054                     movea.l    A0, [A4]
00005620  5488                     addq.l     A0, 2
00005622  43ED FE34                lea.l      A1, [A5 - 0x1CC]
00005626  20D9                     move.l     [A0]+, [A1]+
00005628  20D9                     move.l     [A0]+, [A1]+
0000562A  2053                     movea.l    A0, [A3]
0000562C  2254                     movea.l    A1, [A4]
0000562E  3368 0002 0002           move.w     [A1 + 0x2], [A0 + 0x2]
00005634  206D FEA8                movea.l    A0, [A5 - 0x158]
00005638  214C 001C                move.l     [A0 + 0x1C], A4
0000563C  302E 000E                move.w     D0, [A6 + 0xE]
00005640  907C 0022                sub.w      D0, 0x22 /* '\"' */
00005644  3D40 FFEA                move.w     [A6 - 0x16], D0
00005648  302E 000C                move.w     D0, [A6 + 0xC]
0000564C  907C 0040                sub.w      D0, 0x40 /* '@' */
00005650  3D40 FFE8                move.w     [A6 - 0x18], D0
00005654  7016                     moveq.l    D0, 0x16
00005656  B06E FFE8                cmp.w      D0, [A6 - 0x18]
0000565A  6F06                     ble        +0x8 /* 00005662 */
0000565C  3D7C 0016 FFE8           move.w     [A6 - 0x18], 0x16
label00005662:
00005662  302E FFEA                move.w     D0, [A6 - 0x16]
00005666  D07C 0044                add.w      D0, 0x44 /* 'D' */
0000566A  5640                     addq.w     D0, 3
0000566C  3D40 FFEE                move.w     [A6 - 0x12], D0
00005670  302E FFE8                move.w     D0, [A6 - 0x18]
00005674  D07C 0081                add.w      D0, 0x81
00005678  D07C 0015                add.w      D0, 0x15
0000567C  3D40 FFEC                move.w     [A6 - 0x14], D0
00005680  486D FE90                pea.l      [A5 - 0x170]
00005684  A89D                     syscall    PenPat
00005686  3F3C 000E                move.w     -[A7], 0xE
0000568A  A89C                     syscall    PenMode
0000568C  486E FFE8                pea.l      [A6 - 0x18]
00005690  A8A1                     syscall    FrameRect
00005692  3F3C 0002                move.w     -[A7], 0x2
00005696  4EAD 1872                jsr        [A5 + 0x1872 /* export_778, CODE:16 @ 000004E4 */]
0000569A  486E FFE8                pea.l      [A6 - 0x18]
0000569E  A8A1                     syscall    FrameRect
000056A0  A89E                     syscall    PenNormal
000056A2  2F0C                     move.l     -[A7], A4
000056A4  A8D9                     syscall    DisposRgn/DisposeRgn
000056A6  206D FEA8                movea.l    A0, [A5 - 0x158]
000056AA  214B 001C                move.l     [A0 + 0x1C], A3
000056AE  302E FFEA                move.w     D0, [A6 - 0x16]
000056B2  5240                     addq.w     D0, 1
000056B4  3B40 E086                move.w     [A5 - 0x1F7A], D0
000056B8  302E FFE8                move.w     D0, [A6 - 0x18]
000056BC  D07C 000B                add.w      D0, 0xB
000056C0  3B40 E084                move.w     [A5 - 0x1F7C], D0
label000056C4:
000056C4  6020                     bra        +0x22 /* 000056E6 */
label000056C6:
000056C6  7002                     moveq.l    D0, 0x02
000056C8  B06E 0018                cmp.w      D0, [A6 + 0x18]
000056CC  6618                     bne        +0x1A /* 000056E6 */
000056CE  206E 0014                movea.l    A0, [A6 + 0x14]
000056D2  2050                     movea.l    A0, [A0]
000056D4  317C 0044 0002           move.w     [A0 + 0x2], 0x44 /* 'D' */
000056DA  206E 0014                movea.l    A0, [A6 + 0x14]
000056DE  2050                     movea.l    A0, [A0]
000056E0  317C 0081 0004           move.w     [A0 + 0x4], 0x81
label000056E6:
000056E6  2A5F                     movea.l    A5, [A7]+
000056E8  4CDF 18F0                movem.l    D4,D5,D6,D7,A3,A4, [A7]+
000056EC  4E5E                     unlink     A6
000056EE  205F                     movea.l    A0, [A7]+
000056F0  DEFC 0012                add.w      A7, 0x12
000056F4  4ED0                     jmp        [A0]
export_1101:
000056F6  4E56 FF64                link       A6, -0x009C
000056FA  48E7 0F18                movem.l    -[A7], D4,D5,D6,D7,A3,A4
000056FE  4AAD DC66                tst.l      [A5 - 0x239A]
00005702  56C0                     sne        D0
00005704  4400                     neg.b      D0
00005706  1D40 0008                move.b     [A6 + 0x8], D0
0000570A  4AAD DC66                tst.l      [A5 - 0x239A]
0000570E  57C0                     seq        D0
00005710  222D F4E0                move.l     D1, [A5 - 0xB20]
00005714  B2AD DC56                cmp.l      D1, [A5 - 0x23AA]
00005718  56C1                     sne        D1
0000571A  8001                     or.b       D0, D1
0000571C  6600 0140                bne        +0x142 /* 0000585E */
00005720  42A7                     clr.l      -[A7]
00005722  2F2D DC66                move.l     -[A7], [A5 - 0x239A]
00005726  4EAD 1F7A                jsr        [A5 + 0x1F7A /* export_1003, CODE:19 @ 00001744 */]
0000572A  265F                     movea.l    A3, [A7]+
0000572C  200B                     move.l     D0, A3
0000572E  6700 012E                beq        +0x130 /* 0000585E */
00005732  2053                     movea.l    A0, [A3]
00005734  2E28 0020                move.l     D7, [A0 + 0x20]
00005738  2F2D DC66                move.l     -[A7], [A5 - 0x239A]
0000573C  4267                     clr.w      -[A7]
0000573E  4EAD 1EF2                jsr        [A5 + 0x1EF2 /* export_986, CODE:19 @ 00000450 */]
00005742  486E FF7C                pea.l      [A6 - 0x84]
00005746  2F3C 0000 0084           move.l     -[A7], 0x84
0000574C  4EAD 1B42                jsr        [A5 + 0x1B42 /* export_868, CODE:16 @ 00001E7C */]
00005750  2D6D DC66 FF7C           move.l     [A6 - 0x84], [A5 - 0x239A]
00005756  4267                     clr.w      -[A7]
00005758  2F2D F670                move.l     -[A7], [A5 - 0x990]
0000575C  202D DC5A                move.l     D0, [A5 - 0x23A6]
00005760  5380                     subq.l     D0, 1
00005762  2F00                     move.l     -[A7], D0
00005764  486E FF7C                pea.l      [A6 - 0x84]
00005768  4EAD 1E1A                jsr        [A5 + 0x1E1A /* export_959, CODE:18 @ 00001390 */]
0000576C  101F                     move.b     D0, [A7]+
0000576E  6604                     bne        +0x6 /* 00005774 */
00005770  6000 00EC                bra        +0xEE /* 0000585E */
label00005774:
00005774  2F2D F670                move.l     -[A7], [A5 - 0x990]
00005778  2F2D DC5A                move.l     -[A7], [A5 - 0x23A6]
0000577C  1F3C 0001                move.b     -[A7], 0x1
00005780  4EAD 1EC2                jsr        [A5 + 0x1EC2 /* export_980, CODE:18 @ 00003918 */]
00005784  2F2D F670                move.l     -[A7], [A5 - 0x990]
00005788  202D DC5A                move.l     D0, [A5 - 0x23A6]
0000578C  5280                     addq.l     D0, 1
0000578E  2F00                     move.l     -[A7], D0
00005790  1F3C 0001                move.b     -[A7], 0x1
00005794  4EAD 1EC2                jsr        [A5 + 0x1EC2 /* export_980, CODE:18 @ 00003918 */]
00005798  202D F668                move.l     D0, [A5 - 0x998]
0000579C  5280                     addq.l     D0, 1
0000579E  2B40 F668                move.l     [A5 - 0x998], D0
000057A2  7001                     moveq.l    D0, 0x01
000057A4  B0AD DC5A                cmp.l      D0, [A5 - 0x23A6]
000057A8  6606                     bne        +0x8 /* 000057B0 */
000057AA  2B6D DC66 F66C           move.l     [A5 - 0x994], [A5 - 0x239A]
label000057B0:
000057B0  1B7C 0001 F63B           move.b     [A5 - 0x9C5], 0x1
000057B6  42A7                     clr.l      -[A7]
000057B8  2F07                     move.l     -[A7], D7
000057BA  4EAD 1F6A                jsr        [A5 + 0x1F6A /* export_1001, CODE:19 @ 000016EC */]
000057BE  285F                     movea.l    A4, [A7]+
000057C0  2054                     movea.l    A0, [A4]
000057C2  2028 0014                move.l     D0, [A0 + 0x14]
000057C6  5280                     addq.l     D0, 1
000057C8  2054                     movea.l    A0, [A4]
000057CA  2140 0014                move.l     [A0 + 0x14], D0
000057CE  2054                     movea.l    A0, [A4]
000057D0  2C28 001C                move.l     D6, [A0 + 0x1C]
000057D4  2054                     movea.l    A0, [A4]
000057D6  2A28 0018                move.l     D5, [A0 + 0x18]
000057DA  2F07                     move.l     -[A7], D7
000057DC  1F3C 0001                move.b     -[A7], 0x1
000057E0  4EAD 1EE2                jsr        [A5 + 0x1EE2 /* export_984, CODE:19 @ 00000414 */]
000057E4  4AAD DC62                tst.l      [A5 - 0x239E]
000057E8  6760                     beq        +0x62 /* 0000584A */
000057EA  BEAD DC62                cmp.l      D7, [A5 - 0x239E]
000057EE  670A                     beq        +0xC /* 000057FA */
000057F0  2F3C 0004 7F8E           move.l     -[A7], 0x47F8E
000057F6  4EAD 185A                jsr        [A5 + 0x185A /* export_775, CODE:16 @ 0000042E */]
label000057FA:
000057FA  202D F660                move.l     D0, [A5 - 0x9A0]
000057FE  5280                     addq.l     D0, 1
00005800  2B40 F660                move.l     [A5 - 0x9A0], D0
00005804  2B6D DC5E F664           move.l     [A5 - 0x99C], [A5 - 0x23A2]
0000580A  42A7                     clr.l      -[A7]
0000580C  2F06                     move.l     -[A7], D6
0000580E  4EAD 1F6A                jsr        [A5 + 0x1F6A /* export_1001, CODE:19 @ 000016EC */]
00005812  285F                     movea.l    A4, [A7]+
00005814  200C                     move.l     D0, A4
00005816  6712                     beq        +0x14 /* 0000582A */
00005818  2054                     movea.l    A0, [A4]
0000581A  216D DC62 0018           move.l     [A0 + 0x18], [A5 - 0x239E]
00005820  2F06                     move.l     -[A7], D6
00005822  1F3C 0001                move.b     -[A7], 0x1
00005826  4EAD 1EE2                jsr        [A5 + 0x1EE2 /* export_984, CODE:19 @ 00000414 */]
label0000582A:
0000582A  42A7                     clr.l      -[A7]
0000582C  2F05                     move.l     -[A7], D5
0000582E  4EAD 1F6A                jsr        [A5 + 0x1F6A /* export_1001, CODE:19 @ 000016EC */]
00005832  285F                     movea.l    A4, [A7]+
00005834  200C                     move.l     D0, A4
00005836  6712                     beq        +0x14 /* 0000584A */
00005838  2054                     movea.l    A0, [A4]
0000583A  216D DC62 001C           move.l     [A0 + 0x1C], [A5 - 0x239E]
00005840  2F05                     move.l     -[A7], D5
00005842  1F3C 0001                move.b     -[A7], 0x1
00005846  4EAD 1EE2                jsr        [A5 + 0x1EE2 /* export_984, CODE:19 @ 00000414 */]
label0000584A:
0000584A  282D DC66                move.l     D4, [A5 - 0x239A]
0000584E  7000                     moveq.l    D0, 0x00
00005850  2B40 DC66                move.l     [A5 - 0x239A], D0
00005854  2F04                     move.l     -[A7], D4
00005856  487A 002C                pea.l      [PC + 0x2C /* 00005884, value 0x4E56 'NV', cstring "" */]
0000585A  4EBA BB2C                jsr        [PC - 0x44D4 /* 00001388 */]
label0000585E:
0000585E  7000                     moveq.l    D0, 0x00
00005860  2B40 DC66                move.l     [A5 - 0x239A], D0
00005864  7000                     moveq.l    D0, 0x00
00005866  2B40 DC5A                move.l     [A5 - 0x23A6], D0
0000586A  7000                     moveq.l    D0, 0x00
0000586C  2B40 DC56                move.l     [A5 - 0x23AA], D0
00005870  7000                     moveq.l    D0, 0x00
00005872  2B40 DC62                move.l     [A5 - 0x239E], D0
00005876  7000                     moveq.l    D0, 0x00
00005878  2B40 DC5E                move.l     [A5 - 0x23A2], D0
0000587C  4CDF 18F0                movem.l    D4,D5,D6,D7,A3,A4, [A7]+
00005880  4E5E                     unlink     A6
00005882  4E75                     rts
00005884  0000 4E56                ori.b      D0, 0x56 /* 'V' */
// begin alternate branch 00005886-0000588E
export_1102:
fn00005886:
00005886  4E56 FCFC                link       A6, -0x0304
0000588A  4A6D FD8A                tst.w      [A5 - 0x276]
// end alternate branch 00005886-0000588E
export_1102: // at 00005886 (misaligned)
fn00005886: // (misaligned)
00005888  FCFC 4A6D                .extension 0xCFC <<F/2-3/6>> // unimplemented
0000588C  FD8A                     .invalid   <<F/6/6>>
0000588E  6D04                     blt        +0x6 /* 00005894 */
00005890  6000 014C                bra        +0x14E /* 000059DE */
label00005894:
00005894  70FF                     moveq.l    D0, 0xFFFFFFFF
00005896  B06D FD8A                cmp.w      D0, [A5 - 0x276]
0000589A  57C0                     seq        D0
0000589C  4A6D EFDA                tst.w      [A5 - 0x1026]
000058A0  57C1                     seq        D1
000058A2  C001                     and.b      D0, D1
000058A4  6708                     beq        +0xA /* 000058AE */
000058A6  1F3C 0001                move.b     -[A7], 0x1
000058AA  4EAD 1602                jsr        [A5 + 0x1602 /* export_700, CODE:15 @ 0000114C */]
label000058AE:
000058AE  526D FD8A                addq.w     [A5 - 0x276], 1
000058B2  4A6D FD8A                tst.w      [A5 - 0x276]
000058B6  6600 0126                bne        +0x128 /* 000059DE */
000058BA  7001                     moveq.l    D0, 0x01
000058BC  B06D EFDA                cmp.w      D0, [A5 - 0x1026]
000058C0  661E                     bne        +0x20 /* 000058E0 */
000058C2  1B7C 0001 E2F1           move.b     [A5 - 0x1D0F], 0x1
000058C8  1B7C 0001 E2F0           move.b     [A5 - 0x1D10], 0x1
000058CE  41ED E2F2                lea.l      A0, [A5 - 0x1D0E]
000058D2  43ED ED82                lea.l      A1, [A5 - 0x127E]
000058D6  20D9                     move.l     [A0]+, [A1]+
000058D8  20D9                     move.l     [A0]+, [A1]+
000058DA  4EAD 134A                jsr        [A5 + 0x134A /* export_613, CODE:12 @ 00000F88 */]
000058DE  6034                     bra        +0x36 /* 00005914 */
label000058E0:
000058E0  102D E097                move.b     D0, [A5 - 0x1F69]
000058E4  6716                     beq        +0x18 /* 000058FC */
000058E6  4EAD 0032                jsr        [A5 + 0x32 /* export_2, CODE:1 @ 00000196 */]
000058EA  41ED E2F2                lea.l      A0, [A5 - 0x1D0E]
000058EE  43ED ED82                lea.l      A1, [A5 - 0x127E]
000058F2  20D9                     move.l     [A0]+, [A1]+
000058F4  20D9                     move.l     [A0]+, [A1]+
000058F6  4EAD 002A                jsr        [A5 + 0x2A /* export_1, CODE:1 @ 000000B0 */]
000058FA  6018                     bra        +0x1A /* 00005914 */
label000058FC:
000058FC  486D ED82                pea.l      [A5 - 0x127E]
00005900  4EAD 16D2                jsr        [A5 + 0x16D2 /* export_726, CODE:15 @ 0000402E */]
00005904  2F2D ECE4                move.l     -[A7], [A5 - 0x131C]
00005908  486D ED82                pea.l      [A5 - 0x127E]
0000590C  4EAD 158A                jsr        [A5 + 0x158A /* export_685, CODE:15 @ 000006FE */]
00005910  4EBA F264                jsr        [PC - 0xD9C /* 00004B76 */]
label00005914:
00005914  486E FFFC                pea.l      [A6 - 0x4]
00005918  A874                     syscall    GetPort
0000591A  4267                     clr.w      -[A7]
0000591C  2F2D E080                move.l     -[A7], [A5 - 0x1F80]
00005920  2F38 0A1C                move.l     -[A7], [0x00000A1C /* MenuList */]
00005924  4EAD 188A                jsr        [A5 + 0x188A /* export_781, CODE:16 @ 00000552 */]
00005928  101F                     move.b     D0, [A7]+
0000592A  0A00 0001                xori.b     D0, 0x1
0000592E  122D EFDF                move.b     D1, [A5 - 0x1021]
00005932  B22D E07E                cmp.b      D1, [A5 - 0x1F82]
00005936  56C1                     sne        D1
00005938  8001                     or.b       D0, D1
0000593A  122D E07F                move.b     D1, [A5 - 0x1F81]
0000593E  B22D F4CD                cmp.b      D1, [A5 - 0xB33]
00005942  56C1                     sne        D1
00005944  8001                     or.b       D0, D1
00005946  0240 0001                andi.w     D0, 0x1
0000594A  6704                     beq        +0x6 /* 00005950 */
0000594C  4EBA DFE2                jsr        [PC - 0x201E /* 00003930 */]
label00005950:
00005950  102D E0E7                move.b     D0, [A5 - 0x1F19]
00005954  6704                     beq        +0x6 /* 0000595A */
00005956  4267                     clr.w      -[A7]
00005958  A938                     syscall    HiliteMenu
label0000595A:
0000595A  486D FC48                pea.l      [A5 - 0x3B8]
0000595E  486D FD48                pea.l      [A5 - 0x2B8]
00005962  486E FCFC                pea.l      [A6 - 0x304]
00005966  3F3C 0002                move.w     -[A7], 0x2
0000596A  4EAD 050A                jsr        [A5 + 0x50A /* export_157, CODE:1 @ 0000531E */]
0000596E  41EE FEFC                lea.l      A0, [A6 - 0x104]
00005972  43EE FCFC                lea.l      A1, [A6 - 0x304]
00005976  703F                     moveq.l    D0, 0x3F
label00005978:
00005978  20D9                     move.l     [A0]+, [A1]+
0000597A  51C8 FFFC                dbf        D0, -0x6 /* 00005978 */
0000597E  2F2D EDC8                move.l     -[A7], [A5 - 0x1238]
00005982  486E FDFC                pea.l      [A6 - 0x204]
00005986  A919                     syscall    GetWTitle
00005988  486E FDFC                pea.l      [A6 - 0x204]
0000598C  486E FEFC                pea.l      [A6 - 0x104]
00005990  4EAD 052A                jsr        [A5 + 0x52A /* export_161, CODE:1 @ 0000543C */]
00005994  101F                     move.b     D0, [A7]+
00005996  670A                     beq        +0xC /* 000059A2 */
00005998  2F2D EDC8                move.l     -[A7], [A5 - 0x1238]
0000599C  486E FEFC                pea.l      [A6 - 0x104]
000059A0  A91A                     syscall    SetWTitle
label000059A2:
000059A2  102D DC54                move.b     D0, [A5 - 0x23AC]
000059A6  6712                     beq        +0x14 /* 000059BA */
000059A8  2F2D EDC4                move.l     -[A7], [A5 - 0x123C]
000059AC  A873                     syscall    SetPort
000059AE  486D EF2A                pea.l      [A5 - 0x10D6]
000059B2  4EAD 16DA                jsr        [A5 + 0x16DA /* export_727, CODE:15 @ 00004190 */]
000059B6  422D DC54                clr.b      [A5 - 0x23AC]
label000059BA:
000059BA  102D DC53                move.b     D0, [A5 - 0x23AD]
000059BE  6712                     beq        +0x14 /* 000059D2 */
000059C0  2F2D EDC0                move.l     -[A7], [A5 - 0x1240]
000059C4  A873                     syscall    SetPort
000059C6  486D EF38                pea.l      [A5 - 0x10C8]
000059CA  4EAD 16C2                jsr        [A5 + 0x16C2 /* export_724, CODE:15 @ 00003DD2 */]
000059CE  422D DC53                clr.b      [A5 - 0x23AD]
label000059D2:
000059D2  1B7C 0001 FDD7           move.b     [A5 - 0x229], 0x1
000059D8  2F2E FFFC                move.l     -[A7], [A6 - 0x4]
000059DC  A873                     syscall    SetPort
label000059DE:
000059DE  4E5E                     unlink     A6
000059E0  4E75                     rts
export_1103:
000059E2  4E56 FE7C                link       A6, -0x0184
000059E6  48E7 0F18                movem.l    -[A7], D4,D5,D6,D7,A3,A4
000059EA  206E 000A                movea.l    A0, [A6 + 0xA]
000059EE  43EE FFF8                lea.l      A1, [A6 - 0x8]
000059F2  22D8                     move.l     [A1]+, [A0]+
000059F4  22D8                     move.l     [A1]+, [A0]+
000059F6  4267                     clr.w      -[A7]
000059F8  486D ED82                pea.l      [A5 - 0x127E]
000059FC  486E FFF8                pea.l      [A6 - 0x8]
00005A00  486E FFF8                pea.l      [A6 - 0x8]
00005A04  A8AA                     syscall    SectRect
00005A06  101F                     move.b     D0, [A7]+
00005A08  6604                     bne        +0x6 /* 00005A0E */
00005A0A  6000 0368                bra        +0x36A /* 00005D74 */
label00005A0E:
00005A0E  302E FFFC                move.w     D0, [A6 - 0x4]
00005A12  906E FFF8                sub.w      D0, [A6 - 0x8]
00005A16  3D40 FFF4                move.w     [A6 - 0xC], D0
00005A1A  7000                     moveq.l    D0, 0x00
00005A1C  302E FFFA                move.w     D0, [A6 - 0x6]
00005A20  EA88                     lsr        D0, 5
00005A22  2D40 FFE2                move.l     [A6 - 0x1E], D0
00005A26  7000                     moveq.l    D0, 0x00
00005A28  322E FFFE                move.w     D1, [A6 - 0x2]
00005A2C  D27C 001F                add.w      D1, 0x1F
00005A30  3001                     move.w     D0, D1
00005A32  EA88                     lsr        D0, 5
00005A34  2E00                     move.l     D7, D0
00005A36  9EAE FFE2                sub.l      D7, [A6 - 0x1E]
00005A3A  2007                     move.l     D0, D7
00005A3C  E580                     asl        D0, 2
00005A3E  2D40 FFEE                move.l     [A6 - 0x12], D0
00005A42  49EE FEC6                lea.l      A4, [A6 - 0x13A]
00005A46  41EE FF1E                lea.l      A0, [A6 - 0xE2]
00005A4A  2D48 FEBA                move.l     [A6 - 0x146], A0
00005A4E  41EE FF76                lea.l      A0, [A6 - 0x8A]
00005A52  2D48 FEBE                move.l     [A6 - 0x142], A0
00005A56  2F0C                     move.l     -[A7], A4
00005A58  2F07                     move.l     -[A7], D7
00005A5A  4EAD 1B4A                jsr        [A5 + 0x1B4A /* export_869, CODE:16 @ 00001E9C */]
00005A5E  2F2E FEBA                move.l     -[A7], [A6 - 0x146]
00005A62  2F07                     move.l     -[A7], D7
00005A64  4EAD 1B4A                jsr        [A5 + 0x1B4A /* export_869, CODE:16 @ 00001E9C */]
00005A68  2F2E FEBE                move.l     -[A7], [A6 - 0x142]
00005A6C  2F07                     move.l     -[A7], D7
00005A6E  4EAD 1B4A                jsr        [A5 + 0x1B4A /* export_869, CODE:16 @ 00001E9C */]
00005A72  2D7C AAAA AAAA FE8C      move.l     [A6 - 0x174], 0xAAAAAAAA
00005A7A  2D7C 5555 5555 FE90      move.l     [A6 - 0x170], 0x55555555 /* 'UUUU' */
00005A82  2D7C AAAA AAAA FE94      move.l     [A6 - 0x16C], 0xAAAAAAAA
00005A8A  2D7C 5555 5555 FE98      move.l     [A6 - 0x168], 0x55555555 /* 'UUUU' */
00005A92  2D7C AAAA AAAA FE9C      move.l     [A6 - 0x164], 0xAAAAAAAA
00005A9A  2D7C 5555 5555 FEA0      move.l     [A6 - 0x160], 0x55555555 /* 'UUUU' */
00005AA2  2D7C AAAA AAAA FEA4      move.l     [A6 - 0x15C], 0xAAAAAAAA
00005AAA  2D7C 5555 5555 FEA8      move.l     [A6 - 0x158], 0x55555555 /* 'UUUU' */
00005AB2  47EE FE8C                lea.l      A3, [A6 - 0x174]
00005AB6  200B                     move.l     D0, A3
00005AB8  7220                     moveq.l    D1, 0x20
00005ABA  D081                     add.l      D0, D1
00005ABC  2D40 FE88                move.l     [A6 - 0x178], D0
00005AC0  4246                     clr.w      D6
00005AC2  4245                     clr.w      D5
00005AC4  426E FEAE                clr.w      [A6 - 0x152]
00005AC8  426E FEB0                clr.w      [A6 - 0x150]
00005ACC  2D6E 0012 FFCE           move.l     [A6 - 0x32], [A6 + 0x12]
00005AD2  202E FFE2                move.l     D0, [A6 - 0x1E]
00005AD6  E580                     asl        D0, 2
00005AD8  D0AE 000E                add.l      D0, [A6 + 0xE]
00005ADC  322E FFF8                move.w     D1, [A6 - 0x8]
00005AE0  48C1                     ext.l      D1
00005AE2  ED81                     asl        D1, 6
00005AE4  D280                     add.l      D1, D0
00005AE6  2D41 FFD2                move.l     [A6 - 0x2E], D1
00005AEA  422E FE7F                clr.b      [A6 - 0x181]
00005AEE  3D6E FFF4 FE7C           move.w     [A6 - 0x184], [A6 - 0xC]
00005AF4  3D7C 0001 FFF2           move.w     [A6 - 0xE], 0x1
00005AFA  6000 026C                bra        +0x26E /* 00005D68 */
label00005AFE:
00005AFE  102E FE7F                move.b     D0, [A6 - 0x181]
00005B02  6600 0208                bne        +0x20A /* 00005D0C */
00005B06  2D6E FFCE FFDE           move.l     [A6 - 0x22], [A6 - 0x32]
00005B0C  2D6E FEBE FEC2           move.l     [A6 - 0x13E], [A6 - 0x142]
00005B12  2D6E FEBA FEBE           move.l     [A6 - 0x142], [A6 - 0x146]
00005B18  2D4C FEBA                move.l     [A6 - 0x146], A4
00005B1C  286E FEC2                movea.l    A4, [A6 - 0x13E]
00005B20  422E FEAD                clr.b      [A6 - 0x153]
label00005B24:
00005B24  4A6E FEAE                tst.w      [A6 - 0x152]
00005B28  6F0A                     ble        +0xC /* 00005B34 */
00005B2A  382E FEB0                move.w     D4, [A6 - 0x150]
00005B2E  536E FEAE                subq.w     [A6 - 0x152], 1
00005B32  6026                     bra        +0x28 /* 00005B5A */
label00005B34:
00005B34  7000                     moveq.l    D0, 0x00
00005B36  206E FFCE                movea.l    A0, [A6 - 0x32]
00005B3A  1010                     move.b     D0, [A0]
00005B3C  C0BC 0000 00FF           and.l      D0, 0xFF
00005B42  3800                     move.w     D4, D0
00005B44  0C44 0080                cmpi.w     D4, 0x80
00005B48  5DC0                     slt        D0
00005B4A  0C44 00C0                cmpi.w     D4, 0xC0
00005B4E  5CC1                     sge        D1
00005B50  8001                     or.b       D0, D1
00005B52  6600 014E                bne        +0x150 /* 00005CA2 */
00005B56  52AE FFCE                addq.l     [A6 - 0x32], 1
label00005B5A:
00005B5A  0C44 00A0                cmpi.w     D4, 0xA0
00005B5E  6D26                     blt        +0x28 /* 00005B86 */
00005B60  7000                     moveq.l    D0, 0x00
00005B62  3004                     move.w     D0, D4
00005B64  C0BC 0000 001F           and.l      D0, 0x1F
00005B6A  3D40 FEAE                move.w     [A6 - 0x152], D0
00005B6E  7000                     moveq.l    D0, 0x00
00005B70  206E FFCE                movea.l    A0, [A6 - 0x32]
00005B74  1010                     move.b     D0, [A0]
00005B76  C0BC 0000 00FF           and.l      D0, 0xFF
00005B7C  3D40 FEB0                move.w     [A6 - 0x150], D0
00005B80  52AE FFCE                addq.l     [A6 - 0x32], 1
00005B84  609E                     bra        -0x60 /* 00005B24 */
label00005B86:
00005B86  3004                     move.w     D0, D4
00005B88  0440 0080                subi.w     D0, 0x80
00005B8C  6B00 0104                bmi        +0x106 /* 00005C92 */
00005B90  0C40 000F                cmpi.w     D0, 0xF
00005B94  6E00 00FC                bgt        +0xFE /* 00005C92 */
00005B98  D040                     add.w      D0, D0
00005B9A  303B 0006                move.w     D0, [PC + D0.w + 0x6]
00005B9E  4EFB 0000                jmp        [PC + D0.w]
00005BA2  0022 003C                ori.b      -[A2], 0x3C /* '<' */
00005BA6  004E 005E                ori.w      A6, 0x5E /* '^' */
00005BAA  008A 0096 00A4           ori.l      A2, 0x9600A4
00005BB0  00F2                     .incomplete
00005BB2  00B2 00BA 00C2 00CA      ori.l      [A2 + D0.w - 0x36], 0xBA00C2
00005BBA  00D2                     .incomplete
00005BBC  00DA                     .incomplete
00005BBE  00E2                     .incomplete
00005BC0  00EA                     .incomplete
00005BC2  2F2E FFCE                move.l     -[A7], [A6 - 0x32]
00005BC6  2F0C                     move.l     -[A7], A4
00005BC8  2F2E FFEE                move.l     -[A7], [A6 - 0x12]
00005BCC  4EAD 19B2                jsr        [A5 + 0x19B2 /* export_818, CODE:16 @ 000010BE */]
00005BD0  202E FFEE                move.l     D0, [A6 - 0x12]
00005BD4  D1AE FFCE                add.l      [A6 - 0x32], D0
00005BD8  6000 0132                bra        +0x134 /* 00005D0C */
00005BDC  2F0C                     move.l     -[A7], A4
00005BDE  2F07                     move.l     -[A7], D7
00005BE0  4EAD 1B4A                jsr        [A5 + 0x1B4A /* export_869, CODE:16 @ 00001E9C */]
00005BE4  1D7C 0001 FEAD           move.b     [A6 - 0x153], 0x1
00005BEA  6000 0120                bra        +0x122 /* 00005D0C */
00005BEE  2F0C                     move.l     -[A7], A4
00005BF0  70FF                     moveq.l    D0, 0xFFFFFFFF
00005BF2  2F00                     move.l     -[A7], D0
00005BF4  3F07                     move.w     -[A7], D7
00005BF6  4EAD 1A12                jsr        [A5 + 0x1A12 /* export_830, CODE:16 @ 0000145A */]
00005BFA  6000 0110                bra        +0x112 /* 00005D0C */
00005BFE  486E FE80                pea.l      [A6 - 0x180]
00005C02  206E FFCE                movea.l    A0, [A6 - 0x32]
00005C06  1010                     move.b     D0, [A0]
00005C08  4880                     ext.w      D0
00005C0A  3F00                     move.w     -[A7], D0
00005C0C  3F3C 0004                move.w     -[A7], 0x4
00005C10  4EAD 1A0A                jsr        [A5 + 0x1A0A /* export_829, CODE:16 @ 00001448 */]
00005C14  52AE FFCE                addq.l     [A6 - 0x32], 1
00005C18  26AE FE80                move.l     [A3], [A6 - 0x180]
00005C1C  2F0C                     move.l     -[A7], A4
00005C1E  2F2E FE80                move.l     -[A7], [A6 - 0x180]
00005C22  3F07                     move.w     -[A7], D7
00005C24  4EAD 1A12                jsr        [A5 + 0x1A12 /* export_830, CODE:16 @ 0000145A */]
00005C28  6076                     bra        +0x78 /* 00005CA0 */
00005C2A  2F0C                     move.l     -[A7], A4
00005C2C  2F13                     move.l     -[A7], [A3]
00005C2E  3F07                     move.w     -[A7], D7
00005C30  4EAD 1A12                jsr        [A5 + 0x1A12 /* export_830, CODE:16 @ 0000145A */]
00005C34  606A                     bra        +0x6C /* 00005CA0 */
00005C36  2F2E FEBA                move.l     -[A7], [A6 - 0x146]
00005C3A  2F0C                     move.l     -[A7], A4
00005C3C  2F07                     move.l     -[A7], D7
00005C3E  4EAD 19BA                jsr        [A5 + 0x19BA /* export_819, CODE:16 @ 000010F8 */]
00005C42  605C                     bra        +0x5E /* 00005CA0 */
00005C44  2F2E FEBE                move.l     -[A7], [A6 - 0x142]
00005C48  2F0C                     move.l     -[A7], A4
00005C4A  2F07                     move.l     -[A7], D7
00005C4C  4EAD 19BA                jsr        [A5 + 0x19BA /* export_819, CODE:16 @ 000010F8 */]
00005C50  604E                     bra        +0x50 /* 00005CA0 */
00005C52  7C10                     moveq.l    D6, 0x10
00005C54  4245                     clr.w      D5
00005C56  6000 FECC                bra        -0x132 /* 00005B24 */
00005C5A  4246                     clr.w      D6
00005C5C  4245                     clr.w      D5
00005C5E  6000 FEC4                bra        -0x13A /* 00005B24 */
00005C62  4246                     clr.w      D6
00005C64  7A01                     moveq.l    D5, 0x01
00005C66  6000 FEBC                bra        -0x142 /* 00005B24 */
00005C6A  4246                     clr.w      D6
00005C6C  7A02                     moveq.l    D5, 0x02
00005C6E  6000 FEB4                bra        -0x14A /* 00005B24 */
00005C72  7C01                     moveq.l    D6, 0x01
00005C74  4245                     clr.w      D5
00005C76  6000 FEAC                bra        -0x152 /* 00005B24 */
00005C7A  7C01                     moveq.l    D6, 0x01
00005C7C  7A01                     moveq.l    D5, 0x01
00005C7E  6000 FEA4                bra        -0x15A /* 00005B24 */
00005C82  7C02                     moveq.l    D6, 0x02
00005C84  7A02                     moveq.l    D5, 0x02
00005C86  6000 FE9C                bra        -0x162 /* 00005B24 */
00005C8A  7C08                     moveq.l    D6, 0x08
00005C8C  4245                     clr.w      D5
00005C8E  6000 FE94                bra        -0x16A /* 00005B24 */
label00005C92:
00005C92  2F0C                     move.l     -[A7], A4
00005C94  2F07                     move.l     -[A7], D7
00005C96  4EAD 1B4A                jsr        [A5 + 0x1B4A /* export_869, CODE:16 @ 00001E9C */]
00005C9A  1D7C 0001 FE7F           move.b     [A6 - 0x181], 0x1
label00005CA0:
00005CA0  606A                     bra        +0x6C /* 00005D0C */
label00005CA2:
00005CA2  2F0C                     move.l     -[A7], A4
00005CA4  2F07                     move.l     -[A7], D7
00005CA6  4EAD 1B4A                jsr        [A5 + 0x1B4A /* export_869, CODE:16 @ 00001E9C */]
00005CAA  2D4C FFDA                move.l     [A6 - 0x26], A4
00005CAE  486E FFCE                pea.l      [A6 - 0x32]
00005CB2  486E FFDA                pea.l      [A6 - 0x26]
00005CB6  3F2E FFF0                move.w     -[A7], [A6 - 0x10]
00005CBA  4EAD 1CF2                jsr        [A5 + 0x1CF2 /* export_922, CODE:17 @ 00001E20 */]
00005CBE  202E FFDA                move.l     D0, [A6 - 0x26]
00005CC2  908C                     sub.l      D0, A4
00005CC4  B0AE FFEE                cmp.l      D0, [A6 - 0x12]
00005CC8  6710                     beq        +0x12 /* 00005CDA */
00005CCA  2F0C                     move.l     -[A7], A4
00005CCC  2F07                     move.l     -[A7], D7
00005CCE  4EAD 1B4A                jsr        [A5 + 0x1B4A /* export_869, CODE:16 @ 00001E9C */]
00005CD2  1D7C 0001 FE7F           move.b     [A6 - 0x181], 0x1
00005CD8  6032                     bra        +0x34 /* 00005D0C */
label00005CDA:
00005CDA  4A46                     tst.w      D6
00005CDC  670A                     beq        +0xC /* 00005CE8 */
00005CDE  2F0C                     move.l     -[A7], A4
00005CE0  3F06                     move.w     -[A7], D6
00005CE2  3F07                     move.w     -[A7], D7
00005CE4  4EAD 1C42                jsr        [A5 + 0x1C42 /* export_900, CODE:17 @ 00000AE2 */]
label00005CE8:
00005CE8  7001                     moveq.l    D0, 0x01
00005CEA  B045                     cmp.w      D0, D5
00005CEC  660C                     bne        +0xE /* 00005CFA */
00005CEE  2F2E FEBA                move.l     -[A7], [A6 - 0x146]
00005CF2  2F0C                     move.l     -[A7], A4
00005CF4  3F07                     move.w     -[A7], D7
00005CF6  4EAD 1B3A                jsr        [A5 + 0x1B3A /* export_867, CODE:16 @ 00001E66 */]
label00005CFA:
00005CFA  7002                     moveq.l    D0, 0x02
00005CFC  B045                     cmp.w      D0, D5
00005CFE  660C                     bne        +0xE /* 00005D0C */
00005D00  2F2E FEBE                move.l     -[A7], [A6 - 0x142]
00005D04  2F0C                     move.l     -[A7], A4
00005D06  3F07                     move.w     -[A7], D7
00005D08  4EAD 1B3A                jsr        [A5 + 0x1B3A /* export_867, CODE:16 @ 00001E66 */]
label00005D0C:
00005D0C  302E 0008                move.w     D0, [A6 + 0x8]
00005D10  670A                     beq        +0xC /* 00005D1C */
00005D12  5340                     subq.w     D0, 1
00005D14  6714                     beq        +0x16 /* 00005D2A */
00005D16  5540                     subq.w     D0, 2
00005D18  6724                     beq        +0x26 /* 00005D3E */
00005D1A  6034                     bra        +0x36 /* 00005D50 */
label00005D1C:
00005D1C  2F0C                     move.l     -[A7], A4
00005D1E  2F2E FFD2                move.l     -[A7], [A6 - 0x2E]
00005D22  2F07                     move.l     -[A7], D7
00005D24  4EAD 19BA                jsr        [A5 + 0x19BA /* export_819, CODE:16 @ 000010F8 */]
00005D28  6026                     bra        +0x28 /* 00005D50 */
label00005D2A:
00005D2A  102E FEAD                move.b     D0, [A6 - 0x153]
00005D2E  660C                     bne        +0xE /* 00005D3C */
00005D30  2F0C                     move.l     -[A7], A4
00005D32  2F2E FFD2                move.l     -[A7], [A6 - 0x2E]
00005D36  3F07                     move.w     -[A7], D7
00005D38  4EAD 1A82                jsr        [A5 + 0x1A82 /* export_844, CODE:16 @ 000019E2 */]
label00005D3C:
00005D3C  6012                     bra        +0x14 /* 00005D50 */
label00005D3E:
00005D3E  102E FEAD                move.b     D0, [A6 - 0x153]
00005D42  660C                     bne        +0xE /* 00005D50 */
00005D44  2F0C                     move.l     -[A7], A4
00005D46  2F2E FFD2                move.l     -[A7], [A6 - 0x2E]
00005D4A  3F07                     move.w     -[A7], D7
00005D4C  4EAD 199A                jsr        [A5 + 0x199A /* export_815, CODE:16 @ 0000105C */]
label00005D50:
00005D50  7040                     moveq.l    D0, 0x40
00005D52  D1AE FFD2                add.l      [A6 - 0x2E], D0
00005D56  588B                     addq.l     A3, 4
00005D58  B7EE FE88                cmpa.l     A3, [A6 - 0x178]
00005D5C  6604                     bne        +0x6 /* 00005D62 */
00005D5E  47EE FE8C                lea.l      A3, [A6 - 0x174]
label00005D62:
00005D62  526E FFF2                addq.w     [A6 - 0xE], 1
00005D66  690C                     bvs        +0xE /* 00005D74 */
label00005D68:
00005D68  302E FFF2                move.w     D0, [A6 - 0xE]
00005D6C  B06E FE7C                cmp.w      D0, [A6 - 0x184]
00005D70  6F00 FD8C                ble        -0x272 /* 00005AFE */
label00005D74:
00005D74  4CDF 18F0                movem.l    D4,D5,D6,D7,A3,A4, [A7]+
00005D78  4E5E                     unlink     A6
00005D7A  205F                     movea.l    A0, [A7]+
00005D7C  DEFC 000E                add.w      A7, 0xE
00005D80  4ED0                     jmp        [A0]
export_1104:
fn00005D82:
00005D82  4E56 0000                link       A6, 0
00005D86  2F2D EDC8                move.l     -[A7], [A5 - 0x1238]
00005D8A  4EBA 05AE                jsr        [PC + 0x5AE /* 0000633A */]
00005D8E  2F2D EDB8                move.l     -[A7], [A5 - 0x1248]
00005D92  4EBA 05A6                jsr        [PC + 0x5A6 /* 0000633A */]
00005D96  2F2D EDC4                move.l     -[A7], [A5 - 0x123C]
00005D9A  4EBA 059E                jsr        [PC + 0x59E /* 0000633A */]
00005D9E  2F2D EDC0                move.l     -[A7], [A5 - 0x1240]
00005DA2  4EBA 0596                jsr        [PC + 0x596 /* 0000633A */]
00005DA6  4E5E                     unlink     A6
00005DA8  4E75                     rts
export_1105:
fn00005DAA:
00005DAA  4E56 FEFA                link       A6, -0x0106
00005DAE  2F07                     move.l     -[A7], D7
00005DB0  202D F4E0                move.l     D0, [A5 - 0xB20]
00005DB4  B0AD DECC                cmp.l      D0, [A5 - 0x2134]
00005DB8  6604                     bne        +0x6 /* 00005DBE */
00005DBA  6000 00B4                bra        +0xB6 /* 00005E70 */
label00005DBE:
00005DBE  2B6D F4E0 DECC           move.l     [A5 - 0x2134], [A5 - 0xB20]
00005DC4  4A6D FC3C                tst.w      [A5 - 0x3C4]
00005DC8  57C0                     seq        D0
00005DCA  4A6D DECA                tst.w      [A5 - 0x2136]
00005DCE  57C1                     seq        D1
00005DD0  C001                     and.b      D0, D1
00005DD2  6704                     beq        +0x6 /* 00005DD8 */
00005DD4  6000 009A                bra        +0x9C /* 00005E70 */
label00005DD8:
00005DD8  3B6D FC3C DECA           move.w     [A5 - 0x2136], [A5 - 0x3C4]
00005DDE  4AAD DEC6                tst.l      [A5 - 0x213A]
00005DE2  6706                     beq        +0x8 /* 00005DEA */
00005DE4  2F2D DEC6                move.l     -[A7], [A5 - 0x213A]
00005DE8  A932                     syscall    DisposeMenu
label00005DEA:
00005DEA  42A7                     clr.l      -[A7]
00005DEC  3F3C 0063                move.w     -[A7], 0x63 /* 'c' */
00005DF0  487A 0088                pea.l      [PC + 0x88 /* 00005E7A, value 0x5466F6E, pstring "Fonts" */]
00005DF4  A931                     syscall    NewMenu
00005DF6  2B5F DEC6                move.l     [A5 - 0x213A], [A7]+
00005DFA  2F2D DEC6                move.l     -[A7], [A5 - 0x213A]
00005DFE  2F3A 0076                move.l     -[A7], [PC + 0x76 /* 00005E76, value 0x464F4E54 'FONT' */]
00005E02  A94D                     syscall    AppendResMenu/AddResMenu
00005E04  4267                     clr.w      -[A7]
00005E06  2F2D DEC6                move.l     -[A7], [A5 - 0x213A]
00005E0A  A950                     syscall    CountMItems
00005E0C  3B5F DEC4                move.w     [A5 - 0x213C], [A7]+
00005E10  2F2D DEC0                move.l     -[A7], [A5 - 0x2140]
00005E14  302D DEC4                move.w     D0, [A5 - 0x213C]
00005E18  E340                     asl        D0.w, 1
00005E1A  48C0                     ext.l      D0
00005E1C  2F00                     move.l     -[A7], D0
00005E1E  4EAD 1982                jsr        [A5 + 0x1982 /* export_812, CODE:16 @ 00000EAC */]
00005E22  4267                     clr.w      -[A7]
00005E24  3EB8 0220                move.w     [A7], [0x00000220 /* MemErr */]
00005E28  4A5F                     tst.w      [A7]+
00005E2A  670A                     beq        +0xC /* 00005E36 */
00005E2C  2F3C 0000 B109           move.l     -[A7], 0xB109
00005E32  4EAD 185A                jsr        [A5 + 0x185A /* export_775, CODE:16 @ 0000042E */]
label00005E36:
00005E36  3D6D DEC4 FEFA           move.w     [A6 - 0x106], [A5 - 0x213C]
00005E3C  7E01                     moveq.l    D7, 0x01
00005E3E  602A                     bra        +0x2C /* 00005E6A */
label00005E40:
00005E40  2F2D DEC6                move.l     -[A7], [A5 - 0x213A]
00005E44  3F07                     move.w     -[A7], D7
00005E46  486E FEFC                pea.l      [A6 - 0x104]
00005E4A  A946                     syscall    GetMenuItemText/GetItem
00005E4C  486E FEFC                pea.l      [A6 - 0x104]
00005E50  486E FFFE                pea.l      [A6 - 0x2]
00005E54  A900                     syscall    GetFNum
00005E56  206D DEC0                movea.l    A0, [A5 - 0x2140]
00005E5A  2050                     movea.l    A0, [A0]
00005E5C  3007                     move.w     D0, D7
00005E5E  D040                     add.w      D0, D0
00005E60  31AE FFFE 00FE           move.w     [A0 + D0.w - 0x2], [A6 - 0x2]
00005E66  5247                     addq.w     D7, 1
00005E68  6906                     bvs        +0x8 /* 00005E70 */
label00005E6A:
00005E6A  BE6E FEFA                cmp.w      D7, [A6 - 0x106]
00005E6E  6FD0                     ble        -0x2E /* 00005E40 */
label00005E70:
00005E70  2E1F                     move.l     D7, [A7]+
00005E72  4E5E                     unlink     A6
00005E74  4E75                     rts
00005E76  464F                     not.w      A7
00005E78  4E54 0546                link       A4, -0xFFFFFABA
00005E7C  6F6E                     ble        +0x70 /* 00005EEC */
00005E7E  7473                     moveq.l    D2, 0x73
export_1106:
fn00005E80:
00005E80  4E56 FFF6                link       A6, -0x000A
00005E84  48E7 0708                movem.l    -[A7], D5,D6,D7,A4
00005E88  7A01                     moveq.l    D5, 0x01
00005E8A  6006                     bra        +0x8 /* 00005E92 */
label00005E8C:
00005E8C  3F05                     move.w     -[A7], D5
00005E8E  A936                     syscall    DeleteMenu
00005E90  5245                     addq.w     D5, 1
label00005E92:
00005E92  700C                     moveq.l    D0, 0x0C
00005E94  B045                     cmp.w      D0, D5
00005E96  6CF4                     bge        -0xA /* 00005E8C */
00005E98  2F3C 0001 0000           move.l     -[A7], 0x10000
00005E9E  4EAD 1A22                jsr        [A5 + 0x1A22 /* export_832, CODE:16 @ 0000148E */]
00005EA2  3E1F                     move.w     D7, [A7]+
00005EA4  0C47 C160                cmpi.w     D7, 0xC160
00005EA8  6602                     bne        +0x4 /* 00005EAC */
00005EAA  4247                     clr.w      D7
label00005EAC:
00005EAC  3C07                     move.w     D6, D7
00005EAE  4A46                     tst.w      D6
00005EB0  6C10                     bge        +0x12 /* 00005EC2 */
00005EB2  42A7                     clr.l      -[A7]
00005EB4  3F06                     move.w     -[A7], D6
00005EB6  A949                     syscall    GetMenuHandle
00005EB8  285F                     movea.l    A4, [A7]+
00005EBA  3E3C 301A                move.w     D7, 0x301A
00005EBE  2054                     movea.l    A0, [A4]
00005EC0  3087                     move.w     [A0], D7
label00005EC2:
00005EC2  2F2D EEA4                move.l     -[A7], [A5 - 0x115C]
00005EC6  3F07                     move.w     -[A7], D7
00005EC8  A935                     syscall    InsertMenu
00005ECA  7003                     moveq.l    D0, 0x03
00005ECC  B06D F02C                cmp.w      D0, [A5 - 0xFD4]
00005ED0  6F3E                     ble        +0x40 /* 00005F10 */
00005ED2  2F2D EEC8                move.l     -[A7], [A5 - 0x1138]
00005ED6  3F07                     move.w     -[A7], D7
00005ED8  A935                     syscall    InsertMenu
00005EDA  2F2D EECC                move.l     -[A7], [A5 - 0x1134]
00005EDE  3F07                     move.w     -[A7], D7
00005EE0  A935                     syscall    InsertMenu
00005EE2  2F2D EEB0                move.l     -[A7], [A5 - 0x1150]
00005EE6  3F07                     move.w     -[A7], D7
00005EE8  A935                     syscall    InsertMenu
00005EEA  206D EDA6                movea.l    A0, [A5 - 0x125A]
// begin alternate branch 00005EEC-00005EEE
label00005EEC:
00005EEC  EDA6                     asl        D6, D6
// end alternate branch 00005EEC-00005EEE
label00005EEC: // (misaligned)
00005EEE  1028 006E                move.b     D0, [A0 + 0x6E]
00005EF2  6708                     beq        +0xA /* 00005EFC */
00005EF4  2F2D EDC4                move.l     -[A7], [A5 - 0x123C]
00005EF8  4EBA F4C4                jsr        [PC - 0xB3C /* 000053BE */]
label00005EFC:
00005EFC  206D EDA2                movea.l    A0, [A5 - 0x125E]
00005F00  1028 006E                move.b     D0, [A0 + 0x6E]
00005F04  6708                     beq        +0xA /* 00005F0E */
00005F06  2F2D EDC0                move.l     -[A7], [A5 - 0x1240]
00005F0A  4EBA F4B2                jsr        [PC - 0xB4E /* 000053BE */]
label00005F0E:
00005F0E  6072                     bra        +0x74 /* 00005F82 */
label00005F10:
00005F10  7001                     moveq.l    D0, 0x01
00005F12  B06D EFDA                cmp.w      D0, [A5 - 0x1026]
00005F16  663A                     bne        +0x3C /* 00005F52 */
00005F18  2F2D EED0                move.l     -[A7], [A5 - 0x1130]
00005F1C  3F07                     move.w     -[A7], D7
00005F1E  A935                     syscall    InsertMenu
00005F20  2F2D EEAC                move.l     -[A7], [A5 - 0x1154]
00005F24  3F07                     move.w     -[A7], D7
00005F26  A935                     syscall    InsertMenu
00005F28  2F2D EEB0                move.l     -[A7], [A5 - 0x1150]
00005F2C  3F07                     move.w     -[A7], D7
00005F2E  A935                     syscall    InsertMenu
00005F30  2F2D EEB4                move.l     -[A7], [A5 - 0x114C]
00005F34  3F07                     move.w     -[A7], D7
00005F36  A935                     syscall    InsertMenu
00005F38  2F2D EEBC                move.l     -[A7], [A5 - 0x1144]
00005F3C  3F07                     move.w     -[A7], D7
00005F3E  A935                     syscall    InsertMenu
00005F40  2F2D EEC0                move.l     -[A7], [A5 - 0x1140]
00005F44  3F07                     move.w     -[A7], D7
00005F46  A935                     syscall    InsertMenu
00005F48  2F2D EEC4                move.l     -[A7], [A5 - 0x113C]
00005F4C  3F07                     move.w     -[A7], D7
00005F4E  A935                     syscall    InsertMenu
00005F50  6030                     bra        +0x32 /* 00005F82 */
label00005F52:
00005F52  2F2D EEA8                move.l     -[A7], [A5 - 0x1158]
00005F56  3F07                     move.w     -[A7], D7
00005F58  A935                     syscall    InsertMenu
00005F5A  2F2D EEAC                move.l     -[A7], [A5 - 0x1154]
00005F5E  3F07                     move.w     -[A7], D7
00005F60  A935                     syscall    InsertMenu
00005F62  2F2D EEB0                move.l     -[A7], [A5 - 0x1150]
00005F66  3F07                     move.w     -[A7], D7
00005F68  A935                     syscall    InsertMenu
00005F6A  2F2D EEB4                move.l     -[A7], [A5 - 0x114C]
00005F6E  3F07                     move.w     -[A7], D7
00005F70  A935                     syscall    InsertMenu
00005F72  7004                     moveq.l    D0, 0x04
00005F74  B06D F02C                cmp.w      D0, [A5 - 0xFD4]
00005F78  6E08                     bgt        +0xA /* 00005F82 */
00005F7A  2F2D EEB8                move.l     -[A7], [A5 - 0x1148]
00005F7E  3F07                     move.w     -[A7], D7
00005F80  A935                     syscall    InsertMenu
label00005F82:
00005F82  4A46                     tst.w      D6
00005F84  6C04                     bge        +0x6 /* 00005F8A */
00005F86  2054                     movea.l    A0, [A4]
00005F88  3086                     move.w     [A0], D6
label00005F8A:
00005F8A  4EBA D9A4                jsr        [PC - 0x265C /* 00003930 */]
00005F8E  4CDF 10E0                movem.l    D5,D6,D7,A4, [A7]+
00005F92  4E5E                     unlink     A6
00005F94  4E75                     rts
export_1107:
fn00005F96:
00005F96  4E56 FFFC                link       A6, -0x0004
00005F9A  486E FFFC                pea.l      [A6 - 0x4]
00005F9E  A874                     syscall    GetPort
00005FA0  2F2D EDB8                move.l     -[A7], [A5 - 0x1248]
00005FA4  A873                     syscall    SetPort
00005FA6  486D EDB0                pea.l      [A5 - 0x1250]
00005FAA  A8A3                     syscall    EraseRect
00005FAC  486D EDB0                pea.l      [A5 - 0x1250]
00005FB0  2F2D EDAC                move.l     -[A7], [A5 - 0x1254]
00005FB4  A9D3                     syscall    TEUpdate
00005FB6  2F2E FFFC                move.l     -[A7], [A6 - 0x4]
00005FBA  A873                     syscall    SetPort
00005FBC  4E5E                     unlink     A6
00005FBE  4E75                     rts
export_1108:
00005FC0  4E56 FFDE                link       A6, -0x0022
00005FC4  2F07                     move.l     -[A7], D7
00005FC6  2E2E 000C                move.l     D7, [A6 + 0xC]
00005FCA  4A6D FD8A                tst.w      [A5 - 0x276]
00005FCE  6C04                     bge        +0x6 /* 00005FD4 */
00005FD0  6000 00F0                bra        +0xF2 /* 000060C2 */
label00005FD4:
00005FD4  BEAD F62A                cmp.l      D7, [A5 - 0x9D6]
00005FD8  56C0                     sne        D0
00005FDA  BEAD F622                cmp.l      D7, [A5 - 0x9DE]
00005FDE  56C1                     sne        D1
00005FE0  C001                     and.b      D0, D1
00005FE2  6704                     beq        +0x6 /* 00005FE8 */
00005FE4  6000 00DC                bra        +0xDE /* 000060C2 */
label00005FE8:
00005FE8  4267                     clr.w      -[A7]
00005FEA  2F07                     move.l     -[A7], D7
00005FEC  3F2E 000A                move.w     -[A7], [A6 + 0xA]
00005FF0  486E FFE2                pea.l      [A6 - 0x1E]
00005FF4  4EAD 1DB2                jsr        [A5 + 0x1DB2 /* export_946, CODE:18 @ 00000D08 */]
00005FF8  101F                     move.b     D0, [A7]+
00005FFA  6608                     bne        +0xA /* 00006004 */
00005FFC  4EAD 1812                jsr        [A5 + 0x1812 /* export_766, CODE:16 @ 00000208 */]
00006000  6000 00C0                bra        +0xC2 /* 000060C2 */
label00006004:
00006004  486E FFDE                pea.l      [A6 - 0x22]
00006008  A874                     syscall    GetPort
0000600A  486D EE38                pea.l      [A5 - 0x11C8]
0000600E  A873                     syscall    SetPort
00006010  7001                     moveq.l    D0, 0x01
00006012  B06D EFDA                cmp.w      D0, [A5 - 0x1026]
00006016  6630                     bne        +0x32 /* 00006048 */
00006018  BEAD F62A                cmp.l      D7, [A5 - 0x9D6]
0000601C  57C0                     seq        D0
0000601E  802D EFDF                or.b       D0, [A5 - 0x1021]
00006022  0240 0001                andi.w     D0, 0x1
00006026  6708                     beq        +0xA /* 00006030 */
00006028  1B7C 0001 E2F1           move.b     [A5 - 0x1D0F], 0x1
0000602E  6006                     bra        +0x8 /* 00006036 */
label00006030:
00006030  1B7C 0001 E2F0           move.b     [A5 - 0x1D10], 0x1
label00006036:
00006036  486E FFE8                pea.l      [A6 - 0x18]
0000603A  486D E2F2                pea.l      [A5 - 0x1D0E]
0000603E  4EAD 1CEA                jsr        [A5 + 0x1CEA /* export_921, CODE:17 @ 00001DBA */]
00006042  4EAD 134A                jsr        [A5 + 0x134A /* export_613, CODE:12 @ 00000F88 */]
00006046  6074                     bra        +0x76 /* 000060BC */
label00006048:
00006048  1F3C 0001                move.b     -[A7], 0x1
0000604C  4EAD 1602                jsr        [A5 + 0x1602 /* export_700, CODE:15 @ 0000114C */]
00006050  102D E245                move.b     D0, [A5 - 0x1DBB]
00006054  6706                     beq        +0x8 /* 0000605C */
00006056  4267                     clr.w      -[A7]
00006058  4EAD 1602                jsr        [A5 + 0x1602 /* export_700, CODE:15 @ 0000114C */]
label0000605C:
0000605C  4267                     clr.w      -[A7]
0000605E  486D E2F2                pea.l      [A5 - 0x1D0E]
00006062  A8AE                     syscall    EmptyRect
00006064  101F                     move.b     D0, [A7]+
00006066  6604                     bne        +0x6 /* 0000606C */
00006068  422E 0008                clr.b      [A6 + 0x8]
label0000606C:
0000606C  BEAD F62A                cmp.l      D7, [A5 - 0x9D6]
00006070  57C0                     seq        D0
00006072  C02E 0008                and.b      D0, [A6 + 0x8]
00006076  6730                     beq        +0x32 /* 000060A8 */
00006078  206D EE50                movea.l    A0, [A5 - 0x11B0]
0000607C  2050                     movea.l    A0, [A0]
0000607E  5488                     addq.l     A0, 2
00006080  43EE FFE8                lea.l      A1, [A6 - 0x18]
00006084  20D9                     move.l     [A0]+, [A1]+
00006086  20D9                     move.l     [A0]+, [A1]+
00006088  3F2E 000A                move.w     -[A7], [A6 + 0xA]
0000608C  2F3C 0000 0005           move.l     -[A7], 0x5
00006092  4EAD 16BA                jsr        [A5 + 0x16BA /* export_723, CODE:15 @ 00003BDC */]
00006096  206D EE50                movea.l    A0, [A5 - 0x11B0]
0000609A  2050                     movea.l    A0, [A0]
0000609C  5488                     addq.l     A0, 2
0000609E  43ED ED82                lea.l      A1, [A5 - 0x127E]
000060A2  20D9                     move.l     [A0]+, [A1]+
000060A4  20D9                     move.l     [A0]+, [A1]+
000060A6  6008                     bra        +0xA /* 000060B0 */
label000060A8:
000060A8  486E FFE8                pea.l      [A6 - 0x18]
000060AC  4EAD 16D2                jsr        [A5 + 0x16D2 /* export_726, CODE:15 @ 0000402E */]
label000060B0:
000060B0  2F2D ECE4                move.l     -[A7], [A5 - 0x131C]
000060B4  486E FFE8                pea.l      [A6 - 0x18]
000060B8  4EAD 158A                jsr        [A5 + 0x158A /* export_685, CODE:15 @ 000006FE */]
label000060BC:
000060BC  2F2E FFDE                move.l     -[A7], [A6 - 0x22]
000060C0  A873                     syscall    SetPort
label000060C2:
000060C2  2E1F                     move.l     D7, [A7]+
000060C4  4E5E                     unlink     A6
000060C6  205F                     movea.l    A0, [A7]+
000060C8  504F                     addq.w     A7, 8
000060CA  4ED0                     jmp        [A0]
export_1109:
fn000060CC:
000060CC  4E56 FFE0                link       A6, -0x0020
000060D0  48E7 0F08                movem.l    -[A7], D4,D5,D6,D7,A4
000060D4  102D E209                move.b     D0, [A5 - 0x1DF7]
000060D8  6604                     bne        +0x6 /* 000060DE */
000060DA  6000 00DC                bra        +0xDE /* 000061B8 */
label000060DE:
000060DE  486E FFEA                pea.l      [A6 - 0x16]
000060E2  A874                     syscall    GetPort
000060E4  7A00                     moveq.l    D5, 0x00
000060E6  206D E246                movea.l    A0, [A5 - 0x1DBA]
000060EA  2850                     movea.l    A4, [A0]
000060EC  302C 005E                move.w     D0, [A4 + 0x5E]
000060F0  C1ED E26E                muls.w     D0, [A5 - 0x1D92]
000060F4  322C 000C                move.w     D1, [A4 + 0xC]
000060F8  926C 0008                sub.w      D1, [A4 + 0x8]
000060FC  3800                     move.w     D4, D0
000060FE  9841                     sub.w      D4, D1
00006100  3E2C 0008                move.w     D7, [A4 + 0x8]
00006104  9E54                     sub.w      D7, [A4]
00006106  7000                     moveq.l    D0, 0x00
00006108  302D E260                move.w     D0, [A5 - 0x1DA0]
0000610C  C0BC 0000 2000           and.l      D0, 0x2000 /* ' \0' */
00006112  4A80                     tst.l      D0
00006114  56C0                     sne        D0
00006116  4400                     neg.b      D0
00006118  1D40 FFFF                move.b     [A6 - 0x1], D0
0000611C  6702                     beq        +0x4 /* 00006120 */
0000611E  5847                     addq.w     D7, 4
label00006120:
00006120  4A44                     tst.w      D4
00006122  6C0C                     bge        +0xE /* 00006130 */
00006124  4267                     clr.w      -[A7]
00006126  3F07                     move.w     -[A7], D7
00006128  2F2D E246                move.l     -[A7], [A5 - 0x1DBA]
0000612C  A812                     syscall    TEPinScroll
0000612E  600A                     bra        +0xC /* 0000613A */
label00006130:
00006130  42A7                     clr.l      -[A7]
00006132  3F07                     move.w     -[A7], D7
00006134  3F04                     move.w     -[A7], D4
00006136  A869                     syscall    FixRatio
00006138  2A1F                     move.l     D5, [A7]+
label0000613A:
0000613A  486D EE38                pea.l      [A5 - 0x11C8]
0000613E  A873                     syscall    SetPort
00006140  486D ED36                pea.l      [A5 - 0x12CA]
00006144  A875                     syscall    SetPBits/SetPortBits
00006146  486D E258                pea.l      [A5 - 0x1DA8]
0000614A  2F05                     move.l     -[A7], D5
0000614C  4EAD 16CA                jsr        [A5 + 0x16CA /* export_725, CODE:15 @ 00003E7A */]
00006150  486D ED44                pea.l      [A5 - 0x12BC]
00006154  A875                     syscall    SetPBits/SetPortBits
00006156  41EE FFEE                lea.l      A0, [A6 - 0x12]
0000615A  43ED E258                lea.l      A1, [A5 - 0x1DA8]
0000615E  20D9                     move.l     [A0]+, [A1]+
00006160  20D9                     move.l     [A0]+, [A1]+
00006162  302E FFF4                move.w     D0, [A6 - 0xC]
00006166  907C 0010                sub.w      D0, 0x10
0000616A  3D40 FFF0                move.w     [A6 - 0x10], D0
0000616E  486D EDCC                pea.l      [A5 - 0x1234]
00006172  A873                     syscall    SetPort
00006174  206D EDE8                movea.l    A0, [A5 - 0x1218]
00006178  2050                     movea.l    A0, [A0]
0000617A  43EE FFE2                lea.l      A1, [A6 - 0x1E]
0000617E  5488                     addq.l     A0, 2
00006180  22D8                     move.l     [A1]+, [A0]+
00006182  22D8                     move.l     [A1]+, [A0]+
00006184  486D ED82                pea.l      [A5 - 0x127E]
00006188  A87B                     syscall    ClipRect
0000618A  486E FFEE                pea.l      [A6 - 0x12]
0000618E  A8A3                     syscall    EraseRect
00006190  486E FFE2                pea.l      [A6 - 0x1E]
00006194  A87B                     syscall    ClipRect
00006196  3C2D E254                move.w     D6, [A5 - 0x1DAC]
0000619A  202D E24E                move.l     D0, [A5 - 0x1DB2]
0000619E  B0AD F62A                cmp.l      D0, [A5 - 0x9D6]
000061A2  6606                     bne        +0x8 /* 000061AA */
000061A4  3006                     move.w     D0, D6
000061A6  4440                     neg.w      D0
000061A8  3C00                     move.w     D6, D0
label000061AA:
000061AA  3F06                     move.w     -[A7], D6
000061AC  3F07                     move.w     -[A7], D7
000061AE  4EBA E3E4                jsr        [PC - 0x1C1C /* 00004594 */]
000061B2  2F2E FFEA                move.l     -[A7], [A6 - 0x16]
000061B6  A873                     syscall    SetPort
label000061B8:
000061B8  4CDF 10F0                movem.l    D4,D5,D6,D7,A4, [A7]+
000061BC  4E5E                     unlink     A6
000061BE  4E75                     rts
export_1110:
fn000061C0:
000061C0  4E56 FFEC                link       A6, -0x0014
000061C4  48E7 0F08                movem.l    -[A7], D4,D5,D6,D7,A4
000061C8  102D EF41                move.b     D0, [A5 - 0x10BF]
000061CC  6726                     beq        +0x28 /* 000061F4 */
000061CE  3B7C 0050 DE74           move.w     [A5 - 0x218C], 0x50 /* 'P' */
000061D4  3B7C 0052 DE76           move.w     [A5 - 0x218A], 0x52 /* 'R' */
000061DA  3B7C 0054 DE7A           move.w     [A5 - 0x2186], 0x54 /* 'T' */
000061E0  3B7C 0056 DE7C           move.w     [A5 - 0x2184], 0x56 /* 'V' */
000061E6  3B7C 005B DE80           move.w     [A5 - 0x2180], 0x5B /* '[' */
000061EC  3B7C 0058 DE82           move.w     [A5 - 0x217E], 0x58 /* 'X' */
000061F2  6024                     bra        +0x26 /* 00006218 */
label000061F4:
000061F4  3B7C 004F DE74           move.w     [A5 - 0x218C], 0x4F /* 'O' */
000061FA  3B7C 0051 DE76           move.w     [A5 - 0x218A], 0x51 /* 'Q' */
00006200  3B7C 0053 DE7A           move.w     [A5 - 0x2186], 0x53 /* 'S' */
00006206  3B7C 0055 DE7C           move.w     [A5 - 0x2184], 0x55 /* 'U' */
0000620C  3B7C 005A DE80           move.w     [A5 - 0x2180], 0x5A /* 'Z' */
00006212  3B7C 0057 DE82           move.w     [A5 - 0x217E], 0x57 /* 'W' */
label00006218:
00006218  486D EE38                pea.l      [A5 - 0x11C8]
0000621C  A873                     syscall    SetPort
0000621E  486D EF24                pea.l      [A5 - 0x10DC]
00006222  A875                     syscall    SetPBits/SetPortBits
00006224  486D EF2A                pea.l      [A5 - 0x10D6]
00006228  A8A2                     syscall    PaintRect
0000622A  426E FFF2                clr.w      [A6 - 0xE]
0000622E  3D7C 0044 FFF6           move.w     [A6 - 0xA], 0x44 /* 'D' */
00006234  3D7C 0015 FFF0           move.w     [A6 - 0x10], 0x15
0000623A  302E FFF0                move.w     D0, [A6 - 0x10]
0000623E  5640                     addq.w     D0, 3
00006240  3D40 FFF4                move.w     [A6 - 0xC], D0
00006244  486E FFF0                pea.l      [A6 - 0x10]
00006248  A8A3                     syscall    EraseRect
0000624A  7016                     moveq.l    D0, 0x16
0000624C  C1ED EF28                muls.w     D0, [A5 - 0x10D8]
00006250  48C0                     ext.l      D0
00006252  2840                     movea.l    A4, D0
00006254  D9ED EF24                add.l      A4, [A5 - 0x10DC]
00006258  7E02                     moveq.l    D7, 0x02
label0000625A:
0000625A  7044                     moveq.l    D0, 0x44
0000625C  B047                     cmp.w      D0, D7
0000625E  6F0E                     ble        +0x10 /* 0000626E */
00006260  2F0C                     move.l     -[A7], A4
00006262  3007                     move.w     D0, D7
00006264  48C0                     ext.l      D0
00006266  2F00                     move.l     -[A7], D0
00006268  A85E                     syscall    BitSet
0000626A  5647                     addq.w     D7, 3
0000626C  60EC                     bra        -0x12 /* 0000625A */
label0000626E:
0000626E  4EBA E2D6                jsr        [PC - 0x1D2A /* 00004546 */]
00006272  7C01                     moveq.l    D6, 0x01
00006274  4245                     clr.w      D5
00006276  6074                     bra        +0x76 /* 000062EC */
label00006278:
00006278  3005                     move.w     D0, D5
0000627A  C1FC 0015                muls.w     D0, 0x15
0000627E  3D40 FFF0                move.w     [A6 - 0x10], D0
00006282  7003                     moveq.l    D0, 0x03
00006284  B046                     cmp.w      D0, D6
00006286  6C0A                     bge        +0xC /* 00006292 */
00006288  302E FFF0                move.w     D0, [A6 - 0x10]
0000628C  5840                     addq.w     D0, 4
0000628E  3D40 FFF0                move.w     [A6 - 0x10], D0
label00006292:
00006292  302E FFF0                move.w     D0, [A6 - 0x10]
00006296  D07C 0015                add.w      D0, 0x15
0000629A  5340                     subq.w     D0, 1
0000629C  3D40 FFF4                move.w     [A6 - 0xC], D0
000062A0  4244                     clr.w      D4
000062A2  6040                     bra        +0x42 /* 000062E4 */
label000062A4:
000062A4  3004                     move.w     D0, D4
000062A6  C1FC 0017                muls.w     D0, 0x17
000062AA  3D40 FFF2                move.w     [A6 - 0xE], D0
000062AE  D07C 0017                add.w      D0, 0x17
000062B2  5340                     subq.w     D0, 1
000062B4  3D40 FFF6                move.w     [A6 - 0xA], D0
000062B8  486E FFF0                pea.l      [A6 - 0x10]
000062BC  A8A3                     syscall    EraseRect
000062BE  302E FFF2                move.w     D0, [A6 - 0xE]
000062C2  5240                     addq.w     D0, 1
000062C4  3F00                     move.w     -[A7], D0
000062C6  302E FFF4                move.w     D0, [A6 - 0xC]
000062CA  5540                     subq.w     D0, 2
000062CC  3F00                     move.w     -[A7], D0
000062CE  A893                     syscall    MoveTo
000062D0  3006                     move.w     D0, D6
000062D2  5340                     subq.w     D0, 1
000062D4  41ED DE60                lea.l      A0, [A5 - 0x21A0]
000062D8  D040                     add.w      D0, D0
000062DA  3F30 0000                move.w     -[A7], [A0 + D0.w]
000062DE  A883                     syscall    DrawChar
000062E0  5246                     addq.w     D6, 1
000062E2  5244                     addq.w     D4, 1
label000062E4:
000062E4  7002                     moveq.l    D0, 0x02
000062E6  B044                     cmp.w      D0, D4
000062E8  6CBA                     bge        -0x44 /* 000062A4 */
000062EA  5245                     addq.w     D5, 1
label000062EC:
000062EC  7005                     moveq.l    D0, 0x05
000062EE  B045                     cmp.w      D0, D5
000062F0  6C86                     bge        -0x78 /* 00006278 */
000062F2  4EBA D65C                jsr        [PC - 0x29A4 /* 00003950 */]
000062F6  486D ED44                pea.l      [A5 - 0x12BC]
000062FA  A875                     syscall    SetPBits/SetPortBits
000062FC  4CDF 10F0                movem.l    D4,D5,D6,D7,A4, [A7]+
00006300  4E5E                     unlink     A6
00006302  4E75                     rts
export_1111:
00006304  4E56 0000                link       A6, 0
00006308  4267                     clr.w      -[A7]
0000630A  206D EDC8                movea.l    A0, [A5 - 0x1238]
0000630E  2F28 0018                move.l     -[A7], [A0 + 0x18]
00006312  2F2D ED6E                move.l     -[A7], [A5 - 0x1292]
00006316  A8E3                     syscall    EqualRgn
00006318  101F                     move.b     D0, [A7]+
0000631A  661A                     bne        +0x1C /* 00006336 */
0000631C  206D EDC8                movea.l    A0, [A5 - 0x1238]
00006320  2F28 0018                move.l     -[A7], [A0 + 0x18]
00006324  2F2D ED6E                move.l     -[A7], [A5 - 0x1292]
00006328  A8DC                     syscall    CopyRgn
0000632A  2F2D ED6E                move.l     -[A7], [A5 - 0x1292]
0000632E  2F2D ECEC                move.l     -[A7], [A5 - 0x1314]
00006332  4EAD 1C9A                jsr        [A5 + 0x1C9A /* export_911, CODE:17 @ 00001432 */]
label00006336:
00006336  4E5E                     unlink     A6
00006338  4E75                     rts
export_1112:
fn0000633A:
0000633A  4E56 0000                link       A6, 0
0000633E  2F0C                     move.l     -[A7], A4
00006340  286E 0008                movea.l    A4, [A6 + 0x8]
00006344  102C 006E                move.b     D0, [A4 + 0x6E]
00006348  672A                     beq        +0x2C /* 00006374 */
0000634A  2F0C                     move.l     -[A7], A4
0000634C  A922                     syscall    BeginUpdate
0000634E  4267                     clr.w      -[A7]
00006350  2F2C 0018                move.l     -[A7], [A4 + 0x18]
00006354  A8E2                     syscall    EmptyRgn
00006356  101F                     move.b     D0, [A7]+
00006358  6616                     bne        +0x18 /* 00006370 */
0000635A  7001                     moveq.l    D0, 0x01
0000635C  B06D EFDA                cmp.w      D0, [A5 - 0x1026]
00006360  6608                     bne        +0xA /* 0000636A */
00006362  2F0C                     move.l     -[A7], A4
00006364  4EAD 138A                jsr        [A5 + 0x138A /* export_621, CODE:12 @ 00004D34 */]
00006368  6006                     bra        +0x8 /* 00006370 */
label0000636A:
0000636A  2F0C                     move.l     -[A7], A4
0000636C  4EAD 0092                jsr        [A5 + 0x92 /* export_14, CODE:1 @ 000024F8 */]
label00006370:
00006370  2F0C                     move.l     -[A7], A4
00006372  A923                     syscall    EndUpdate
label00006374:
00006374  285F                     movea.l    A4, [A7]+
00006376  4E5E                     unlink     A6
00006378  2E9F                     move.l     [A7], [A7]+
0000637A  4E75                     rts
export_1113:
fn0000637C:
0000637C  4E56 FD0E                link       A6, -0x02F2
00006380  2F07                     move.l     -[A7], D7
00006382  486E FE5E                pea.l      [A6 - 0x1A2]
00006386  7034                     moveq.l    D0, 0x34
00006388  2F00                     move.l     -[A7], D0
0000638A  4EAD 1B42                jsr        [A5 + 0x1B42 /* export_868, CODE:16 @ 00001E7C */]
0000638E  41EE FEFE                lea.l      A0, [A6 - 0x102]
00006392  2D48 FE70                move.l     [A6 - 0x190], A0
00006396  3D6E 000C FE74           move.w     [A6 - 0x18C], [A6 + 0xC]
0000639C  426E FE78                clr.w      [A6 - 0x188]
000063A0  4267                     clr.w      -[A7]
000063A2  486E FE5E                pea.l      [A6 - 0x1A2]
000063A6  4267                     clr.w      -[A7]
000063A8  4EAD 037A                jsr        [A5 + 0x37A /* export_107, CODE:1 @ 00004B2E */]
000063AC  3E1F                     move.w     D7, [A7]+
000063AE  4A47                     tst.w      D7
000063B0  667C                     bne        +0x7E /* 0000642E */
000063B2  206E 0008                movea.l    A0, [A6 + 0x8]
000063B6  4210                     clr.b      [A0]
000063B8  486E FE92                pea.l      [A6 - 0x16E]
000063BC  706C                     moveq.l    D0, 0x6C
000063BE  2F00                     move.l     -[A7], D0
000063C0  4EAD 1B42                jsr        [A5 + 0x1B42 /* export_868, CODE:16 @ 00001E7C */]
000063C4  2D6E FE8E FEC2           move.l     [A6 - 0x13E], [A6 - 0x172]
label000063CA:
000063CA  7001                     moveq.l    D0, 0x01
000063CC  B0AE FEC2                cmp.l      D0, [A6 - 0x13E]
000063D0  675A                     beq        +0x5C /* 0000642C */
000063D2  41EE FEFE                lea.l      A0, [A6 - 0x102]
000063D6  2D48 FEA4                move.l     [A6 - 0x15C], A0
000063DA  3D7C FFFF FEAE           move.w     [A6 - 0x152], 0xFFFF
000063E0  3D6E FE7E FEA8           move.w     [A6 - 0x158], [A6 - 0x182]
000063E6  4267                     clr.w      -[A7]
000063E8  486E FE92                pea.l      [A6 - 0x16E]
000063EC  4267                     clr.w      -[A7]
000063EE  4EAD 038A                jsr        [A5 + 0x38A /* export_109, CODE:1 @ 00004B5A */]
000063F2  4A5F                     tst.w      [A7]+
000063F4  6702                     beq        +0x4 /* 000063F8 */
000063F6  6060                     bra        +0x62 /* 00006458 */
label000063F8:
000063F8  206E 0008                movea.l    A0, [A6 + 0x8]
000063FC  2F08                     move.l     -[A7], A0
000063FE  486E FEFE                pea.l      [A6 - 0x102]
00006402  487A 005E                pea.l      [PC + 0x5E /* 00006462, value 0x13A4E56 */]
00006406  2F2E 0008                move.l     -[A7], [A6 + 0x8]
0000640A  486E FD0E                pea.l      [A6 - 0x2F2]
0000640E  3F3C 0003                move.w     -[A7], 0x3
00006412  4EAD 050A                jsr        [A5 + 0x50A /* export_157, CODE:1 @ 0000531E */]
00006416  205F                     movea.l    A0, [A7]+
00006418  43EE FD0E                lea.l      A1, [A6 - 0x2F2]
0000641C  703F                     moveq.l    D0, 0x3F
label0000641E:
0000641E  20D9                     move.l     [A0]+, [A1]+
00006420  51C8 FFFC                dbf        D0, -0x6 /* 0000641E */
00006424  2D6E FEF6 FEC2           move.l     [A6 - 0x13E], [A6 - 0x10A]
0000642A  609E                     bra        -0x60 /* 000063CA */
label0000642C:
0000642C  602A                     bra        +0x2C /* 00006458 */
label0000642E:
0000642E  486E FE0E                pea.l      [A6 - 0x1F2]
00006432  7050                     moveq.l    D0, 0x50
00006434  2F00                     move.l     -[A7], D0
00006436  4EAD 1B42                jsr        [A5 + 0x1B42 /* export_868, CODE:16 @ 00001E7C */]
0000643A  2D6E 0008 FE20           move.l     [A6 - 0x1E0], [A6 + 0x8]
00006440  426E FE2A                clr.w      [A6 - 0x1D6]
00006444  3D6E 000C FE24           move.w     [A6 - 0x1DC], [A6 + 0xC]
0000644A  4267                     clr.w      -[A7]
0000644C  486E FE0E                pea.l      [A6 - 0x1F2]
00006450  4267                     clr.w      -[A7]
00006452  4EAD 02CA                jsr        [A5 + 0x2CA /* export_85, CODE:1 @ 000047EA */]
00006456  3E1F                     move.w     D7, [A7]+
label00006458:
00006458  2E1F                     move.l     D7, [A7]+
0000645A  4E5E                     unlink     A6
0000645C  205F                     movea.l    A0, [A7]+
0000645E  5C4F                     addq.w     A7, 6
00006460  4ED0                     jmp        [A0]
00006462  013A 4E56                btst       [PC + 0x4E56 /* 0000B2BA */], D0
// begin alternate branch 00006464-0000646E
export_1114:
00006464  4E56 0000                link       A6, 0
00006468  486D FE3C                pea.l      [A5 - 0x1C4]
0000646C  A851                     syscall    SetCursor
// end alternate branch 00006464-0000646E
export_1114: // at 00006464 (misaligned)
00006466  0000 486D                ori.b      D0, 0x6D /* 'm' */
0000646A  FE3C A851                .unknown   0xFE3C 0xA851 (W = 7)
0000646E  1B7C 0001 FDD7           move.b     [A5 - 0x229], 0x1
label00006474:
00006474  4267                     clr.w      -[A7]
00006476  A974                     syscall    Button
00006478  101F                     move.b     D0, [A7]+
0000647A  67F8                     beq        -0x6 /* 00006474 */
label0000647C:
0000647C  4267                     clr.w      -[A7]
0000647E  A974                     syscall    Button
00006480  101F                     move.b     D0, [A7]+
00006482  0A00 0001                xori.b     D0, 0x1
00006486  67F4                     beq        -0xA /* 0000647C */
00006488  2F3C 0000 0006           move.l     -[A7], 0x6
0000648E  201F                     move.l     D0, [A7]+
00006490  A032                     syscall    FlushEvents
00006492  4E5E                     unlink     A6
00006494  4E75                     rts
export_1115:
fn00006496:
00006496  4E56 FC82                link       A6, -0x037E
0000649A  2F07                     move.l     -[A7], D7
0000649C  206E 0008                movea.l    A0, [A6 + 0x8]
000064A0  43EE FF00                lea.l      A1, [A6 - 0x100]
000064A4  703F                     moveq.l    D0, 0x3F
label000064A6:
000064A6  22D8                     move.l     [A1]+, [A0]+
000064A8  51C8 FFFC                dbf        D0, -0x6 /* 000064A6 */
000064AC  206E 0010                movea.l    A0, [A6 + 0x10]
000064B0  4210                     clr.b      [A0]
000064B2  4EAD 1862                jsr        [A5 + 0x1862 /* export_776, CODE:16 @ 00000474 */]
000064B6  2D6E 000C FEEE           move.l     [A6 - 0x112], [A6 + 0xC]
000064BC  7E01                     moveq.l    D7, 0x01
000064BE  41EE 000C                lea.l      A0, [A6 + 0xC]
000064C2  43FA 0112                lea.l      A1, [PC + 0x112 /* 000065D6, value 0x616E7920 'any ', pstring "ny " */]
000064C6  7003                     moveq.l    D0, 0x03
label000064C8:
000064C8  B109                     cmpm.b     [A0]+, [A1]+
000064CA  56C8 FFFC                dbne       D0, -0x6 /* 000064C8 */
000064CE  6602                     bne        +0x4 /* 000064D2 */
000064D0  7EFF                     moveq.l    D7, 0xFFFFFFFF
label000064D2:
000064D2  486E FF00                pea.l      [A6 - 0x100]
000064D6  487A 00FC                pea.l      [PC + 0xFC /* 000065D4, value 0x616E 'an', cstring "" */]
000064DA  487A 00F8                pea.l      [PC + 0xF8 /* 000065D4, value 0x616E 'an', cstring "" */]
000064DE  487A 00F4                pea.l      [PC + 0xF4 /* 000065D4, value 0x616E 'an', cstring "" */]
000064E2  A98B                     syscall    ParamText
000064E4  2F2D ED72                move.l     -[A7], [A5 - 0x128E]
000064E8  487A 00E8                pea.l      [PC + 0xE8 /* 000065D2, value 0x1200000 */]
000064EC  42A7                     clr.l      -[A7]
000064EE  3F07                     move.w     -[A7], D7
000064F0  486E FEEE                pea.l      [A6 - 0x112]
000064F4  42A7                     clr.l      -[A7]
000064F6  486E FEA4                pea.l      [A6 - 0x15C]
000064FA  3F3C 0FA0                move.w     -[A7], 0xFA0
000064FE  42A7                     clr.l      -[A7]
00006500  4EAD 0412                jsr        [A5 + 0x412 /* export_126, CODE:1 @ 00004D20 */]
00006504  102E FEA4                move.b     D0, [A6 - 0x15C]
00006508  6700 0096                beq        +0x98 /* 000065A0 */
0000650C  3F2E FEAA                move.w     -[A7], [A6 - 0x156]
00006510  486E FDA4                pea.l      [A6 - 0x25C]
00006514  4EBA FE66                jsr        [PC - 0x19A /* 0000637C */]
00006518  206E 0010                movea.l    A0, [A6 + 0x10]
0000651C  2F08                     move.l     -[A7], A0
0000651E  486E FDA4                pea.l      [A6 - 0x25C]
00006522  486E FEAE                pea.l      [A6 - 0x152]
00006526  486E FC82                pea.l      [A6 - 0x37E]
0000652A  3F3C 0002                move.w     -[A7], 0x2
0000652E  4EAD 050A                jsr        [A5 + 0x50A /* export_157, CODE:1 @ 0000531E */]
00006532  205F                     movea.l    A0, [A7]+
00006534  43EE FC82                lea.l      A1, [A6 - 0x37E]
00006538  703F                     moveq.l    D0, 0x3F
label0000653A:
0000653A  20D9                     move.l     [A0]+, [A1]+
0000653C  51C8 FFFC                dbf        D0, -0x6 /* 0000653A */
00006540  102D F02E                move.b     D0, [A5 - 0xFD2]
00006544  675A                     beq        +0x5C /* 000065A0 */
00006546  41EE FD84                lea.l      A0, [A6 - 0x27C]
0000654A  43FA 007C                lea.l      A1, [PC + 0x7C /* 000065C8, value 0x9646F63 '\tdoc', pstring "documents" */]
0000654E  20D9                     move.l     [A0]+, [A1]+
00006550  20D9                     move.l     [A0]+, [A1]+
00006552  3091                     move.w     [A0], [A1]
00006554  41EE 000C                lea.l      A0, [A6 + 0xC]
00006558  43FA 006A                lea.l      A1, [PC + 0x6A /* 000065C4, value 0x5354414B 'STAK' */]
0000655C  7003                     moveq.l    D0, 0x03
label0000655E:
0000655E  B109                     cmpm.b     [A0]+, [A1]+
00006560  56C8 FFFC                dbne       D0, -0x6 /* 0000655E */
00006564  660C                     bne        +0xE /* 00006572 */
00006566  41EE FD84                lea.l      A0, [A6 - 0x27C]
0000656A  43FA 0050                lea.l      A1, [PC + 0x50 /* 000065BC, value 0x6737461, pstring "stacks" */]
0000656E  20D9                     move.l     [A0]+, [A1]+
00006570  20D9                     move.l     [A0]+, [A1]+
label00006572:
00006572  41EE 000C                lea.l      A0, [A6 + 0xC]
00006576  43FA 0040                lea.l      A1, [PC + 0x40 /* 000065B8, value 0x4150504C 'APPL' */]
0000657A  7003                     moveq.l    D0, 0x03
label0000657C:
0000657C  B109                     cmpm.b     [A0]+, [A1]+
0000657E  56C8 FFFC                dbne       D0, -0x6 /* 0000657C */
00006582  6610                     bne        +0x12 /* 00006594 */
00006584  41EE FD84                lea.l      A0, [A6 - 0x27C]
00006588  43FA 0020                lea.l      A1, [PC + 0x20 /* 000065AA, value 0xC617070, pstring "applications" */]
0000658C  20D9                     move.l     [A0]+, [A1]+
0000658E  20D9                     move.l     [A0]+, [A1]+
00006590  20D9                     move.l     [A0]+, [A1]+
00006592  3091                     move.w     [A0], [A1]
label00006594:
00006594  486E FD84                pea.l      [A6 - 0x27C]
00006598  486E FDA4                pea.l      [A6 - 0x25C]
0000659C  4EAD 1562                jsr        [A5 + 0x1562 /* export_680, CODE:15 @ 0000026A */]
label000065A0:
000065A0  2E1F                     move.l     D7, [A7]+
000065A2  4E5E                     unlink     A6
000065A4  205F                     movea.l    A0, [A7]+
000065A6  504F                     addq.w     A7, 8
000065A8  4ED0                     jmp        [A0]
000065AA  0C61 7070                cmpi.w     -[A1], 0x7070 /* 'pp' */
000065AE  6C69                     bge        +0x6B /* 00006619 */
000065B0  6361                     bls        +0x63 /* 00006613 */
000065B2  7469                     moveq.l    D2, 0x69
000065B4  6F6E                     ble        +0x70 /* 00006624 */
000065B6  7300                     moveq.l    D1, 0x00
000065B8  4150                     chk.w      D0, [A0]
000065BA  504C                     addq.w     A4, 8
000065BC  0673 7461 636B 7300 5... addi.w     [[A3 + 0x7300] + 0x5354414B], 0x7461 /* 'ta' */
000065C8  0964                     bchg       -[A4], D4
000065CA  6F63                     ble        +0x65 /* 0000662F */
000065CC  756D                     moveq.l    D2, 0x6D
000065CE  656E                     bcs        +0x70 /* 0000663E */
000065D0  7473                     moveq.l    D2, 0x73
000065D2  0120                     btst       -[A0], D0
000065D4  0000 616E                ori.b      D0, 0x6E /* 'n' */
000065D8  7920                     moveq.l    D4, 0x20
