# near model CODE resource
# jump table entries: 1448-1449 (2 of them)
fn00000000:
00000000  4E56 0000                link       A6, 0
00000004  4EAD 220A                jsr        [A5 + 0x220A /* export_1085, CODE:20 @ 000048DE */]
00000008  486D FFD8                pea.l      [A5 - 0x28]
0000000C  701E                     moveq.l    D0, 0x1E
0000000E  2F00                     move.l     -[A7], D0
00000010  4EAD 1B42                jsr        [A5 + 0x1B42 /* export_868, CODE:16 @ 00001E7C */]
00000014  7000                     moveq.l    D0, 0x00
00000016  2B40 FFD4                move.l     [A5 - 0x2C], D0
0000001A  7000                     moveq.l    D0, 0x00
0000001C  2B40 FFD0                move.l     [A5 - 0x30], D0
00000020  7000                     moveq.l    D0, 0x00
00000022  2B40 FFCC                move.l     [A5 - 0x34], D0
00000026  7000                     moveq.l    D0, 0x00
00000028  2B40 FFC8                move.l     [A5 - 0x38], D0
0000002C  486D E274                pea.l      [A5 - 0x1D8C]
00000030  701E                     moveq.l    D0, 0x1E
00000032  2F00                     move.l     -[A7], D0
00000034  4EAD 1B42                jsr        [A5 + 0x1B42 /* export_868, CODE:16 @ 00001E7C */]
00000038  7000                     moveq.l    D0, 0x00
0000003A  2B40 E270                move.l     [A5 - 0x1D90], D0
0000003E  486D FF7A                pea.l      [A5 - 0x86]
00000042  701E                     moveq.l    D0, 0x1E
00000044  2F00                     move.l     -[A7], D0
00000046  4EAD 1B42                jsr        [A5 + 0x1B42 /* export_868, CODE:16 @ 00001E7C */]
0000004A  7000                     moveq.l    D0, 0x00
0000004C  2B40 FF76                move.l     [A5 - 0x8A], D0
00000050  486D E252                pea.l      [A5 - 0x1DAE]
00000054  701E                     moveq.l    D0, 0x1E
00000056  2F00                     move.l     -[A7], D0
00000058  4EAD 1B42                jsr        [A5 + 0x1B42 /* export_868, CODE:16 @ 00001E7C */]
0000005C  7000                     moveq.l    D0, 0x00
0000005E  2B40 E24E                move.l     [A5 - 0x1DB2], D0
00000062  486D FFA8                pea.l      [A5 - 0x58]
00000066  701E                     moveq.l    D0, 0x1E
00000068  2F00                     move.l     -[A7], D0
0000006A  4EAD 1B42                jsr        [A5 + 0x1B42 /* export_868, CODE:16 @ 00001E7C */]
0000006E  7000                     moveq.l    D0, 0x00
00000070  2B40 FFA4                move.l     [A5 - 0x5C], D0
00000074  7000                     moveq.l    D0, 0x00
00000076  2B40 FFA0                move.l     [A5 - 0x60], D0
0000007A  7000                     moveq.l    D0, 0x00
0000007C  2B40 FF9C                move.l     [A5 - 0x64], D0
00000080  7000                     moveq.l    D0, 0x00
00000082  2B40 FF98                move.l     [A5 - 0x68], D0
00000086  2F2D EDC8                move.l     -[A7], [A5 - 0x1238]
0000008A  A873                     syscall    SetPort
0000008C  42A7                     clr.l      -[A7]
0000008E  A8D8                     syscall    NewRgn
00000090  2B5F FFFC                move.l     [A5 - 0x4], [A7]+
00000094  422D EDAA                clr.b      [A5 - 0x1256]
00000098  4E5E                     unlink     A6
0000009A  4E75                     rts
fn0000009C:
0000009C  4E56 0000                link       A6, 0
000000A0  2F3C 0000 FFFF           move.l     -[A7], 0xFFFF
000000A6  201F                     move.l     D0, [A7]+
000000A8  A032                     syscall    FlushEvents
000000AA  422D FD8D                clr.b      [A5 - 0x273]
000000AE  4E5E                     unlink     A6
000000B0  2E9F                     move.l     [A7], [A7]+
000000B2  4E75                     rts
fn000000B4:
000000B4  4E56 0000                link       A6, 0
000000B8  42A7                     clr.l      -[A7]
000000BA  3F2E 000E                move.w     -[A7], [A6 + 0xE]
000000BE  1F2E 000C                move.b     -[A7], [A6 + 0xC]
000000C2  4EAD 0272                jsr        [A5 + 0x272 /* export_74, CODE:1 @ 00004700 */]
000000C6  42A7                     clr.l      -[A7]
000000C8  3F3C A89F                move.w     -[A7], 0xA89F
000000CC  4EAD 0262                jsr        [A5 + 0x262 /* export_72, CODE:1 @ 000046EC */]
000000D0  201F                     move.l     D0, [A7]+
000000D2  B09F                     cmp.l      D0, [A7]+
000000D4  56C0                     sne        D0
000000D6  4400                     neg.b      D0
000000D8  1D40 0010                move.b     [A6 + 0x10], D0
000000DC  4E5E                     unlink     A6
000000DE  205F                     movea.l    A0, [A7]+
000000E0  504F                     addq.w     A7, 8
000000E2  4ED0                     jmp        [A0]
export_181:
000000E4  4E56 F876                link       A6, -0x078A
000000E8  48E7 0F08                movem.l    -[A7], D4,D5,D6,D7,A4
000000EC  4EAD 18A2                jsr        [A5 + 0x18A2 /* export_784, CODE:16 @ 0000063A */]
000000F0  422E 0008                clr.b      [A6 + 0x8]
000000F4  422D FFFB                clr.b      [A5 - 0x5]
000000F8  422D F02E                clr.b      [A5 - 0xFD2]
000000FC  7000                     moveq.l    D0, 0x00
000000FE  2B40 F4F4                move.l     [A5 - 0xB0C], D0
00000102  3B7C FFFF F4F8           move.w     [A5 - 0xB08], 0xFFFF
00000108  422D D479                clr.b      [A5 - 0x2B87]
0000010C  2F3C 0001 0000           move.l     -[A7], 0x10000
00000112  486E FA7E                pea.l      [A6 - 0x582]
00000116  4EAD 04A2                jsr        [A5 + 0x4A2 /* export_144, CODE:1 @ 00004EF6 */]
0000011A  3A1F                     move.w     D5, [A7]+
0000011C  2F3C A88F 0000           move.l     -[A7], 0xA88F0000
00000122  1F3C 0001                move.b     -[A7], 0x1
00000126  2F0E                     move.l     -[A7], A6
00000128  4EBA FF8A                jsr        [PC - 0x76 /* 000000B4 */]
0000012C  1B5F FD89                move.b     [A5 - 0x277], [A7]+
00000130  422D F031                clr.b      [A5 - 0xFCF]
00000134  4A6E FA80                tst.w      [A6 - 0x580]
00000138  6D14                     blt        +0x16 /* 0000014E */
0000013A  2F3C A860 0000           move.l     -[A7], 0xA8600000
00000140  1F3C 0001                move.b     -[A7], 0x1
00000144  2F0E                     move.l     -[A7], A6
00000146  4EBA FF6C                jsr        [PC - 0x94 /* 000000B4 */]
0000014A  1B5F F031                move.b     [A5 - 0xFCF], [A7]+
label0000014E:
0000014E  2F3C A05D 0000           move.l     -[A7], 0xA05D0000
00000154  4267                     clr.w      -[A7]
00000156  2F0E                     move.l     -[A7], A6
00000158  4EBA FF5A                jsr        [PC - 0xA6 /* 000000B4 */]
0000015C  1B5F FF75                move.b     [A5 - 0x8B], [A7]+
00000160  486D FEA8                pea.l      [A5 - 0x158]
00000164  A86E                     syscall    InitGraf
00000166  A8FE                     syscall    InitFonts
00000168  A912                     syscall    InitWindows
0000016A  2F3C 0000 FFFF           move.l     -[A7], 0xFFFF
00000170  201F                     move.l     D0, [A7]+
00000172  A032                     syscall    FlushEvents
00000174  A9CC                     syscall    TEInit
00000176  42A7                     clr.l      -[A7]
00000178  A97B                     syscall    InitDialogs
0000017A  42A7                     clr.l      -[A7]
0000017C  2F3A 04E8                move.l     -[A7], [PC + 0x4E8 /* 00000666, value 0x76657273 'vers', cstring "versNV" */]
00000180  3F3C 0001                move.w     -[A7], 0x1
00000184  4EAD 1892                jsr        [A5 + 0x1892 /* export_782, CODE:16 @ 000005A6 */]
00000188  285F                     movea.l    A4, [A7]+
0000018A  200C                     move.l     D0, A4
0000018C  6700 0496                beq        +0x498 /* 00000624 */
00000190  2054                     movea.l    A0, [A4]
00000192  2B50 F4BE                move.l     [A5 - 0xB42], [A0]
00000196  4267                     clr.w      -[A7]
00000198  4EAD 18F2                jsr        [A5 + 0x18F2 /* export_794, CODE:16 @ 00000900 */]
0000019C  101F                     move.b     D0, [A7]+
0000019E  660C                     bne        +0xE /* 000001AC */
000001A0  3F3C 0BBA                move.w     -[A7], 0xBBA
000001A4  4EAD 1942                jsr        [A5 + 0x1942 /* export_804, CODE:16 @ 00000C94 */]
000001A8  6000 047A                bra        +0x47C /* 00000624 */
label000001AC:
000001AC  4267                     clr.w      -[A7]
000001AE  4EAD 1A7A                jsr        [A5 + 0x1A7A /* export_843, CODE:16 @ 000019D0 */]
000001B2  101F                     move.b     D0, [A7]+
000001B4  660C                     bne        +0xE /* 000001C2 */
000001B6  3F3C 0BB8                move.w     -[A7], 0xBB8
000001BA  4EAD 1942                jsr        [A5 + 0x1942 /* export_804, CODE:16 @ 00000C94 */]
000001BE  6000 0464                bra        +0x466 /* 00000624 */
label000001C2:
000001C2  2B78 0156 FE2A           move.l     [A5 - 0x1D6], [0x00000156 /* RndSeed */]
000001C8  1F3C 0001                move.b     -[A7], 0x1
000001CC  A834                     syscall    SetFScaleDisable
000001CE  4267                     clr.w      -[A7]
000001D0  4EAD 0492                jsr        [A5 + 0x492 /* export_142, CODE:1 @ 00004EB0 */]
000001D4  2F3C 0000 0938           move.l     -[A7], 0x938 /* '\t8' */
000001DA  7001                     moveq.l    D0, 0x01
000001DC  2F00                     move.l     -[A7], D0
000001DE  A85F                     syscall    BitClr
000001E0  4AAD E090                tst.l      [A5 - 0x1F70]
000001E4  660C                     bne        +0xE /* 000001F2 */
000001E6  3F3C 0BB9                move.w     -[A7], 0xBB9
000001EA  4EAD 1942                jsr        [A5 + 0x1942 /* export_804, CODE:16 @ 00000C94 */]
000001EE  6000 0434                bra        +0x436 /* 00000624 */
label000001F2:
000001F2  486E F878                pea.l      [A6 - 0x788]
000001F6  3F3C 0001                move.w     -[A7], 0x1
000001FA  4EAD 209A                jsr        [A5 + 0x209A /* export_1039, CODE:20 @ 00000F60 */]
000001FE  205F                     movea.l    A0, [A7]+
00000200  43ED F5FE                lea.l      A1, [A5 - 0xA02]
00000204  7007                     moveq.l    D0, 0x07
label00000206:
00000206  22D8                     move.l     [A1]+, [A0]+
00000208  51C8 FFFC                dbf        D0, -0x6 /* 00000206 */
0000020C  422D F4FE                clr.b      [A5 - 0xB02]
00000210  4EBA 2948                jsr        [PC + 0x2948 /* 00002B5A */]
00000214  4EAD 1E12                jsr        [A5 + 0x1E12 /* export_958, CODE:18 @ 000012AA */]
00000218  4EBA 1F2C                jsr        [PC + 0x1F2C /* 00002146 */]
0000021C  4EBA 1CA8                jsr        [PC + 0x1CA8 /* 00001EC6 */]
00000220  4EBA 1C5C                jsr        [PC + 0x1C5C /* 00001E7E */]
00000224  4EBA FDDA                jsr        [PC - 0x226 /* 00000000 */]
00000228  422D DC50                clr.b      [A5 - 0x23B0]
0000022C  1B7C 0001 FFFB           move.b     [A5 - 0x5], 0x1
00000232  422E FD8E                clr.b      [A6 - 0x272]
00000236  422E FC8E                clr.b      [A6 - 0x372]
0000023A  486E FFF6                pea.l      [A6 - 0xA]
0000023E  486E FFF4                pea.l      [A6 - 0xC]
00000242  4EAD 03BA                jsr        [A5 + 0x3BA /* export_115, CODE:1 @ 00004C30 */]
00000246  3D6E FFF4 F876           move.w     [A6 - 0x78A], [A6 - 0xC]
0000024C  7E01                     moveq.l    D7, 0x01
0000024E  6044                     bra        +0x46 /* 00000294 */
label00000250:
00000250  3F07                     move.w     -[A7], D7
00000252  486E FEEC                pea.l      [A6 - 0x114]
00000256  4EAD 03C2                jsr        [A5 + 0x3C2 /* export_116, CODE:1 @ 00004C54 */]
0000025A  41EE FEEE                lea.l      A0, [A6 - 0x112]
0000025E  43FA 0402                lea.l      A1, [PC + 0x402 /* 00000662, value 0x5354414B 'STAK', cstring "STAKversNV" */]
00000262  7003                     moveq.l    D0, 0x03
label00000264:
00000264  B109                     cmpm.b     [A0]+, [A1]+
00000266  56C8 FFFC                dbne       D0, -0x6 /* 00000264 */
0000026A  6624                     bne        +0x26 /* 00000290 */
0000026C  41EE FD8E                lea.l      A0, [A6 - 0x272]
00000270  43EE FEF4                lea.l      A1, [A6 - 0x10C]
00000274  703F                     moveq.l    D0, 0x3F
label00000276:
00000276  20D9                     move.l     [A0]+, [A1]+
00000278  51C8 FFFC                dbf        D0, -0x6 /* 00000276 */
0000027C  3F2E FEEC                move.w     -[A7], [A6 - 0x114]
00000280  486E FC8E                pea.l      [A6 - 0x372]
00000284  4EAD 22EA                jsr        [A5 + 0x22EA /* export_1113, CODE:20 @ 0000637C */]
00000288  3F07                     move.w     -[A7], D7
0000028A  4EAD 03CA                jsr        [A5 + 0x3CA /* export_117, CODE:1 @ 00004C9A */]
0000028E  600E                     bra        +0x10 /* 0000029E */
label00000290:
00000290  5247                     addq.w     D7, 1
00000292  6906                     bvs        +0x8 /* 0000029A */
label00000294:
00000294  BE6E F876                cmp.w      D7, [A6 - 0x78A]
00000298  6FB6                     ble        -0x48 /* 00000250 */
label0000029A:
0000029A  426E FFF6                clr.w      [A6 - 0xA]
label0000029E:
0000029E  4A45                     tst.w      D5
000002A0  6646                     bne        +0x48 /* 000002E8 */
000002A2  3F2E FA8C                move.w     -[A7], [A6 - 0x574]
000002A6  486D F4FE                pea.l      [A5 - 0xB02]
000002AA  4EAD 22EA                jsr        [A5 + 0x22EA /* export_1113, CODE:20 @ 0000637C */]
000002AE  42A7                     clr.l      -[A7]
000002B0  486D F4FE                pea.l      [A5 - 0xB02]
000002B4  486D F5FE                pea.l      [A5 - 0xA02]
000002B8  486E F978                pea.l      [A6 - 0x688]
000002BC  3F3C 0002                move.w     -[A7], 0x2
000002C0  4EAD 050A                jsr        [A5 + 0x50A /* export_157, CODE:1 @ 0000531E */]
000002C4  486E F978                pea.l      [A6 - 0x688]
000002C8  4EAD 1FE2                jsr        [A5 + 0x1FE2 /* export_1016, CODE:19 @ 0000227C */]
000002CC  2B5F F4F0                move.l     [A5 - 0xB10], [A7]+
000002D0  4267                     clr.w      -[A7]
000002D2  486D F5FE                pea.l      [A5 - 0xA02]
000002D6  4EAD 2132                jsr        [A5 + 0x2132 /* export_1058, CODE:20 @ 00001E1E */]
000002DA  101F                     move.b     D0, [A7]+
000002DC  6600 015E                bne        +0x160 /* 0000043C */
000002E0  102D E300                move.b     D0, [A5 - 0x1D00]
000002E4  6600 033E                bne        +0x340 /* 00000624 */
label000002E8:
000002E8  486E FC8E                pea.l      [A6 - 0x372]
000002EC  487A 0372                pea.l      [PC + 0x372 /* 00000660, value 0x5354 'ST', cstring "" */]
000002F0  4EAD 052A                jsr        [A5 + 0x52A /* export_161, CODE:1 @ 0000543C */]
000002F4  101F                     move.b     D0, [A7]+
000002F6  674A                     beq        +0x4C /* 00000342 */
000002F8  41ED F4FE                lea.l      A0, [A5 - 0xB02]
000002FC  43EE FC8E                lea.l      A1, [A6 - 0x372]
00000300  703F                     moveq.l    D0, 0x3F
label00000302:
00000302  20D9                     move.l     [A0]+, [A1]+
00000304  51C8 FFFC                dbf        D0, -0x6 /* 00000302 */
00000308  42A7                     clr.l      -[A7]
0000030A  486D F4FE                pea.l      [A5 - 0xB02]
0000030E  486D F5FE                pea.l      [A5 - 0xA02]
00000312  486E F978                pea.l      [A6 - 0x688]
00000316  3F3C 0002                move.w     -[A7], 0x2
0000031A  4EAD 050A                jsr        [A5 + 0x50A /* export_157, CODE:1 @ 0000531E */]
0000031E  486E F978                pea.l      [A6 - 0x688]
00000322  4EAD 1FE2                jsr        [A5 + 0x1FE2 /* export_1016, CODE:19 @ 0000227C */]
00000326  2B5F F4F0                move.l     [A5 - 0xB10], [A7]+
0000032A  4267                     clr.w      -[A7]
0000032C  486D F5FE                pea.l      [A5 - 0xA02]
00000330  4EAD 2132                jsr        [A5 + 0x2132 /* export_1058, CODE:20 @ 00001E1E */]
00000334  101F                     move.b     D0, [A7]+
00000336  6600 0104                bne        +0x106 /* 0000043C */
0000033A  102D E300                move.b     D0, [A5 - 0x1D00]
0000033E  6600 02E4                bne        +0x2E6 /* 00000624 */
label00000342:
00000342  422D F4FE                clr.b      [A5 - 0xB02]
00000346  42A7                     clr.l      -[A7]
00000348  486D F4FE                pea.l      [A5 - 0xB02]
0000034C  486D F5FE                pea.l      [A5 - 0xA02]
00000350  486E F978                pea.l      [A6 - 0x688]
00000354  3F3C 0002                move.w     -[A7], 0x2
00000358  4EAD 050A                jsr        [A5 + 0x50A /* export_157, CODE:1 @ 0000531E */]
0000035C  486E F978                pea.l      [A6 - 0x688]
00000360  4EAD 1FE2                jsr        [A5 + 0x1FE2 /* export_1016, CODE:19 @ 0000227C */]
00000364  2B5F F4F0                move.l     [A5 - 0xB10], [A7]+
00000368  4267                     clr.w      -[A7]
0000036A  486D F5FE                pea.l      [A5 - 0xA02]
0000036E  4EAD 2132                jsr        [A5 + 0x2132 /* export_1058, CODE:20 @ 00001E1E */]
00000372  101F                     move.b     D0, [A7]+
00000374  6600 00C6                bne        +0xC8 /* 0000043C */
00000378  102D E300                move.b     D0, [A5 - 0x1D00]
0000037C  6600 02A6                bne        +0x2A8 /* 00000624 */
00000380  486E F878                pea.l      [A6 - 0x788]
00000384  3F3C 0002                move.w     -[A7], 0x2
00000388  4EAD 209A                jsr        [A5 + 0x209A /* export_1039, CODE:20 @ 00000F60 */]
0000038C  205F                     movea.l    A0, [A7]+
0000038E  43ED F4FE                lea.l      A1, [A5 - 0xB02]
00000392  703F                     moveq.l    D0, 0x3F
label00000394:
00000394  22D8                     move.l     [A1]+, [A0]+
00000396  51C8 FFFC                dbf        D0, -0x6 /* 00000394 */
0000039A  42A7                     clr.l      -[A7]
0000039C  486D F4FE                pea.l      [A5 - 0xB02]
000003A0  486D F5FE                pea.l      [A5 - 0xA02]
000003A4  486E F978                pea.l      [A6 - 0x688]
000003A8  3F3C 0002                move.w     -[A7], 0x2
000003AC  4EAD 050A                jsr        [A5 + 0x50A /* export_157, CODE:1 @ 0000531E */]
000003B0  486E F978                pea.l      [A6 - 0x688]
000003B4  4EAD 1FE2                jsr        [A5 + 0x1FE2 /* export_1016, CODE:19 @ 0000227C */]
000003B8  2B5F F4F0                move.l     [A5 - 0xB10], [A7]+
000003BC  4267                     clr.w      -[A7]
000003BE  486D F5FE                pea.l      [A5 - 0xA02]
000003C2  4EAD 2132                jsr        [A5 + 0x2132 /* export_1058, CODE:20 @ 00001E1E */]
000003C6  101F                     move.b     D0, [A7]+
000003C8  6672                     bne        +0x74 /* 0000043C */
000003CA  102D E300                move.b     D0, [A5 - 0x1D00]
000003CE  6600 0254                bne        +0x256 /* 00000624 */
000003D2  486E F878                pea.l      [A6 - 0x788]
000003D6  2F3A 028A                move.l     -[A7], [PC + 0x28A /* 00000662, value 0x5354414B 'STAK', cstring "STAKversNV" */]
000003DA  486D F5FE                pea.l      [A5 - 0xA02]
000003DE  4EAD 22FA                jsr        [A5 + 0x22FA /* export_1115, CODE:20 @ 00006496 */]
000003E2  205F                     movea.l    A0, [A7]+
000003E4  43EE FB8E                lea.l      A1, [A6 - 0x472]
000003E8  703F                     moveq.l    D0, 0x3F
label000003EA:
000003EA  22D8                     move.l     [A1]+, [A0]+
000003EC  51C8 FFFC                dbf        D0, -0x6 /* 000003EA */
000003F0  4240                     clr.w      D0
000003F2  102E FB8E                move.b     D0, [A6 - 0x472]
000003F6  4A40                     tst.w      D0
000003F8  6700 022A                beq        +0x22C /* 00000624 */
000003FC  486E FB8E                pea.l      [A6 - 0x472]
00000400  486D F4FE                pea.l      [A5 - 0xB02]
00000404  486E FA8E                pea.l      [A6 - 0x572]
00000408  4EAD 1FDA                jsr        [A5 + 0x1FDA /* export_1015, CODE:19 @ 000021B0 */]
0000040C  4267                     clr.w      -[A7]
0000040E  486E FA8E                pea.l      [A6 - 0x572]
00000412  486D F5FE                pea.l      [A5 - 0xA02]
00000416  4EAD 1AC2                jsr        [A5 + 0x1AC2 /* export_852, CODE:16 @ 00001B82 */]
0000041A  101F                     move.b     D0, [A7]+
0000041C  660C                     bne        +0xE /* 0000042A */
0000041E  3F3C 000A                move.w     -[A7], 0xA /* '\n' */
00000422  4EAD 187A                jsr        [A5 + 0x187A /* export_779, CODE:16 @ 00000500 */]
00000426  6000 01FC                bra        +0x1FE /* 00000624 */
label0000042A:
0000042A  4267                     clr.w      -[A7]
0000042C  486D F5FE                pea.l      [A5 - 0xA02]
00000430  4EAD 2132                jsr        [A5 + 0x2132 /* export_1058, CODE:20 @ 00001E1E */]
00000434  101F                     move.b     D0, [A7]+
00000436  6604                     bne        +0x6 /* 0000043C */
00000438  6000 01EA                bra        +0x1EC /* 00000624 */
label0000043C:
0000043C  1B7C 0001 F02E           move.b     [A5 - 0xFD2], 0x1
00000442  42A7                     clr.l      -[A7]
00000444  2F2D F670                move.l     -[A7], [A5 - 0x990]
00000448  7001                     moveq.l    D0, 0x01
0000044A  2F00                     move.l     -[A7], D0
0000044C  4EAD 1E22                jsr        [A5 + 0x1E22 /* export_960, CODE:18 @ 00001CCC */]
00000450  2B5F F61E                move.l     [A5 - 0x9E2], [A7]+
00000454  41ED F5FE                lea.l      A0, [A5 - 0xA02]
00000458  43ED FD48                lea.l      A1, [A5 - 0x2B8]
0000045C  7007                     moveq.l    D0, 0x07
label0000045E:
0000045E  20D9                     move.l     [A0]+, [A1]+
00000460  51C8 FFFC                dbf        D0, -0x6 /* 0000045E */
00000464  41ED F4FE                lea.l      A0, [A5 - 0xB02]
00000468  43ED FC48                lea.l      A1, [A5 - 0x3B8]
0000046C  703F                     moveq.l    D0, 0x3F
label0000046E:
0000046E  20D9                     move.l     [A0]+, [A1]+
00000470  51C8 FFFC                dbf        D0, -0x6 /* 0000046E */
00000474  3B6D FC46 F4FC           move.w     [A5 - 0xB04], [A5 - 0x3BA]
0000047A  2B6D F4E0 F4F0           move.l     [A5 - 0xB10], [A5 - 0xB20]
00000480  3B6D FC44 F4FA           move.w     [A5 - 0xB06], [A5 - 0x3BC]
00000486  3B6D FC42 F4F8           move.w     [A5 - 0xB08], [A5 - 0x3BE]
0000048C  3B6D FC40 F4EE           move.w     [A5 - 0xB12], [A5 - 0x3C0]
00000492  3B6D FC3E F4EC           move.w     [A5 - 0xB14], [A5 - 0x3C2]
00000498  2B6D F636 F4F4           move.l     [A5 - 0xB0C], [A5 - 0x9CA]
0000049E  4267                     clr.w      -[A7]
000004A0  486D F4F4                pea.l      [A5 - 0xB0C]
000004A4  4EAD 0462                jsr        [A5 + 0x462 /* export_136, CODE:1 @ 00004DBC */]
000004A8  4A5F                     tst.w      [A7]+
000004AA  6600 0178                bne        +0x17A /* 00000624 */
000004AE  1D7C 0001 FE8E           move.b     [A6 - 0x172], 0x1
000004B4  7001                     moveq.l    D0, 0x01
000004B6  2D40 FE94                move.l     [A6 - 0x16C], D0
000004BA  1D7C 0005 FEBA           move.b     [A6 - 0x146], 0x5
000004C0  42A7                     clr.l      -[A7]
000004C2  487A 019C                pea.l      [PC + 0x19C /* 00000660, value 0x5354 'ST', cstring "" */]
000004C6  4EAD 1FE2                jsr        [A5 + 0x1FE2 /* export_1016, CODE:19 @ 0000227C */]
000004CA  2D5F FEE6                move.l     [A6 - 0x11A], [A7]+
000004CE  4AAD F7F8                tst.l      [A5 - 0x808]
000004D2  56C6                     sne        D6
000004D4  4406                     neg.b      D6
000004D6  1006                     move.b     D0, D6
000004D8  6728                     beq        +0x2A /* 00000502 */
000004DA  426E FFF6                clr.w      [A6 - 0xA]
000004DE  422E FE8E                clr.b      [A6 - 0x172]
000004E2  2D6D F7F8 FE90           move.l     [A6 - 0x170], [A5 - 0x808]
000004E8  7000                     moveq.l    D0, 0x00
000004EA  2B40 F7F8                move.l     [A5 - 0x808], D0
000004EE  4EAD 1FFA                jsr        [A5 + 0x1FFA /* export_1019, CODE:19 @ 000024DE */]
000004F2  486D F7FC                pea.l      [A5 - 0x804]
000004F6  486E FC8E                pea.l      [A6 - 0x372]
000004FA  486E FD8E                pea.l      [A6 - 0x272]
000004FE  4EAD 1FDA                jsr        [A5 + 0x1FDA /* export_1015, CODE:19 @ 000021B0 */]
label00000502:
00000502  486E FD8E                pea.l      [A6 - 0x272]
00000506  487A 0158                pea.l      [PC + 0x158 /* 00000660, value 0x5354 'ST', cstring "" */]
0000050A  4EAD 052A                jsr        [A5 + 0x52A /* export_161, CODE:1 @ 0000543C */]
0000050E  101F                     move.b     D0, [A7]+
00000510  673C                     beq        +0x3E /* 0000054E */
00000512  2F00                     move.l     -[A7], D0
00000514  4267                     clr.w      -[A7]
00000516  486E FD8E                pea.l      [A6 - 0x272]
0000051A  486D F5FE                pea.l      [A5 - 0xA02]
0000051E  4EAD 1AC2                jsr        [A5 + 0x1AC2 /* export_852, CODE:16 @ 00001B82 */]
00000522  121F                     move.b     D1, [A7]+
00000524  201F                     move.l     D0, [A7]+
00000526  0A01 0001                xori.b     D1, 0x1
0000052A  C001                     and.b      D0, D1
0000052C  6720                     beq        +0x22 /* 0000054E */
0000052E  4267                     clr.w      -[A7]
00000530  486E FC8E                pea.l      [A6 - 0x372]
00000534  486E FD8E                pea.l      [A6 - 0x272]
00000538  486E F978                pea.l      [A6 - 0x688]
0000053C  3F3C 0002                move.w     -[A7], 0x2
00000540  4EAD 050A                jsr        [A5 + 0x50A /* export_157, CODE:1 @ 0000531E */]
00000544  486E F978                pea.l      [A6 - 0x688]
00000548  4EAD 2132                jsr        [A5 + 0x2132 /* export_1058, CODE:20 @ 00001E1E */]
0000054C  181F                     move.b     D4, [A7]+
label0000054E:
0000054E  4267                     clr.w      -[A7]
00000550  486E FE8E                pea.l      [A6 - 0x172]
00000554  4EAD 204A                jsr        [A5 + 0x204A /* export_1029, CODE:20 @ 000004A6 */]
00000558  101F                     move.b     D0, [A7]+
0000055A  6604                     bne        +0x6 /* 00000560 */
0000055C  6000 00C6                bra        +0xC8 /* 00000624 */
label00000560:
00000560  422D E2FC                clr.b      [A5 - 0x1D04]
00000564  422D E2FB                clr.b      [A5 - 0x1D05]
00000568  486D ED82                pea.l      [A5 - 0x127E]
0000056C  4EAD 16D2                jsr        [A5 + 0x16D2 /* export_726, CODE:15 @ 0000402E */]
00000570  4267                     clr.w      -[A7]
00000572  4EAD 1D0A                jsr        [A5 + 0x1D0A /* export_925, CODE:17 @ 00002B30 */]
00000576  2F2D EDC8                move.l     -[A7], [A5 - 0x1238]
0000057A  A915                     syscall    ShowWindow
0000057C  1F3C 0001                move.b     -[A7], 0x1
00000580  4EAD 1D0A                jsr        [A5 + 0x1D0A /* export_925, CODE:17 @ 00002B30 */]
00000584  2F2D EDC8                move.l     -[A7], [A5 - 0x1238]
00000588  A873                     syscall    SetPort
0000058A  486D ED82                pea.l      [A5 - 0x127E]
0000058E  4EAD 00BA                jsr        [A5 + 0xBA /* export_19, CODE:1 @ 00003970 */]
00000592  486D ED82                pea.l      [A5 - 0x127E]
00000596  A92A                     syscall    ValidRect
00000598  7001                     moveq.l    D0, 0x01
0000059A  B06E FFF6                cmp.w      D0, [A6 - 0xA]
0000059E  6610                     bne        +0x12 /* 000005B0 */
000005A0  3F3C 0005                move.w     -[A7], 0x5
000005A4  4EAD 0052                jsr        [A5 + 0x52 /* export_6, CODE:1 @ 00001512 */]
000005A8  1B7C 0001 F030           move.b     [A5 - 0xFD0], 0x1
000005AE  606E                     bra        +0x70 /* 0000061E */
label000005B0:
000005B0  41ED E0E8                lea.l      A0, [A5 - 0x1F18]
000005B4  43FA 00A0                lea.l      A1, [PC + 0xA0 /* 00000656, value 0x96F7065 '\tope', pstring "openStack" */]
000005B8  20D9                     move.l     [A0]+, [A1]+
000005BA  20D9                     move.l     [A0]+, [A1]+
000005BC  3091                     move.w     [A0], [A1]
000005BE  4EAD 0B8A                jsr        [A5 + 0xB8A /* export_365, CODE:8 @ 00003F30 */]
000005C2  2F0E                     move.l     -[A7], A6
000005C4  4EBA FAD6                jsr        [PC - 0x52A /* 0000009C */]
000005C8  41ED E0E8                lea.l      A0, [A5 - 0x1F18]
000005CC  43FA 0078                lea.l      A1, [PC + 0x78 /* 00000646, value 0xE6F7065, pstring "openBackground" */]
000005D0  20D9                     move.l     [A0]+, [A1]+
000005D2  20D9                     move.l     [A0]+, [A1]+
000005D4  20D9                     move.l     [A0]+, [A1]+
000005D6  20D9                     move.l     [A0]+, [A1]+
000005D8  4EAD 0B8A                jsr        [A5 + 0xB8A /* export_365, CODE:8 @ 00003F30 */]
000005DC  2F0E                     move.l     -[A7], A6
000005DE  4EBA FABC                jsr        [PC - 0x544 /* 0000009C */]
000005E2  41ED E0E8                lea.l      A0, [A5 - 0x1F18]
000005E6  43FA 0054                lea.l      A1, [PC + 0x54 /* 0000063C, value 0x86F7065, pstring "openCard" */]
000005EA  20D9                     move.l     [A0]+, [A1]+
000005EC  20D9                     move.l     [A0]+, [A1]+
000005EE  3091                     move.w     [A0], [A1]
000005F0  4EAD 0B8A                jsr        [A5 + 0xB8A /* export_365, CODE:8 @ 00003F30 */]
000005F4  2F0E                     move.l     -[A7], A6
000005F6  4EBA FAA4                jsr        [PC - 0x55C /* 0000009C */]
000005FA  41ED E0E8                lea.l      A0, [A5 - 0x1F18]
000005FE  43FA 0034                lea.l      A1, [PC + 0x34 /* 00000634, value 0x7737461, pstring "startup" */]
00000602  20D9                     move.l     [A0]+, [A1]+
00000604  20D9                     move.l     [A0]+, [A1]+
00000606  1006                     move.b     D0, D6
00000608  670C                     beq        +0xE /* 00000616 */
0000060A  41ED E0E8                lea.l      A0, [A5 - 0x1F18]
0000060E  43FA 001C                lea.l      A1, [PC + 0x1C /* 0000062C, value 0x6726573, pstring "resume" */]
00000612  20D9                     move.l     [A0]+, [A1]+
00000614  20D9                     move.l     [A0]+, [A1]+
label00000616:
00000616  4EAD 0B8A                jsr        [A5 + 0xB8A /* export_365, CODE:8 @ 00003F30 */]
0000061A  4EAD 2092                jsr        [A5 + 0x2092 /* export_1038, CODE:20 @ 00000E20 */]
label0000061E:
0000061E  1D7C 0001 0008           move.b     [A6 + 0x8], 0x1
label00000624:
00000624  4CDF 10F0                movem.l    D4,D5,D6,D7,A4, [A7]+
00000628  4E5E                     unlink     A6
0000062A  4E75                     rts
0000062C  0672 6573 756D           addi.w     <<invalid full ext with IS == 1 and I/IS == 5>>, 0x6573 /* 'es' */
00000632  6500 0773                bcs        +0x775 /* 00000DA7 */
00000636  7461                     moveq.l    D2, 0x61
00000638  7274                     moveq.l    D1, 0x74
0000063A  7570                     moveq.l    D2, 0x70
0000063C  086F 7065 6E43           bchg.b     [A7 + 0x6E43], 0x65 /* 'e' */
00000642  6172                     bsr        +0x74 /* 000006B6 */
00000644  6400 0E6F                bcc        +0xE71 /* 000014B5 */
00000648  7065                     moveq.l    D0, 0x65
0000064A  6E42                     bgt        +0x44 /* 0000068E */
0000064C  6163                     bsr        +0x65 /* 000006B1 */
0000064E  6B67                     bmi        +0x69 /* 000006B7 */
00000650  726F                     moveq.l    D1, 0x6F
00000652  756E                     moveq.l    D2, 0x6E
00000654  6400 096F                bcc        +0x971 /* 00000FC5 */
00000658  7065                     moveq.l    D0, 0x65
0000065A  6E53                     bgt        +0x55 /* 000006AF */
0000065C  7461                     moveq.l    D2, 0x61
0000065E  636B                     bls        +0x6D /* 000006CB */
00000660  0000 5354                ori.b      D0, 0x54 /* 'T' */
00000664  414B                     chk.w      D0, A3
00000666  7665                     moveq.l    D3, 0x65
00000668  7273                     moveq.l    D1, 0x73
fn0000066A:
0000066A  4E56 0000                link       A6, 0
0000066E  422D B10D                clr.b      [A5 - 0x4EF3]
00000672  7000                     moveq.l    D0, 0x00
00000674  2B40 B108                move.l     [A5 - 0x4EF8], D0
00000678  102D F2B2                move.b     D0, [A5 - 0xD4E]
0000067C  6742                     beq        +0x44 /* 000006C0 */
0000067E  42A7                     clr.l      -[A7]
00000680  2F3A 0044                move.l     -[A7], [PC + 0x44 /* 000006C6, value 0x44415445 'DATE' */]
00000684  4267                     clr.w      -[A7]
00000686  A9A0                     syscall    GetResource
00000688  2B5F B108                move.l     [A5 - 0x4EF8], [A7]+
0000068C  6732                     beq        +0x34 /* 000006C0 */
label0000068E:
0000068E  2F2D B108                move.l     -[A7], [A5 - 0x4EF8]
00000692  4EAD 023A                jsr        [A5 + 0x23A /* export_67, CODE:1 @ 00004696 */]
00000696  2F2D B108                move.l     -[A7], [A5 - 0x4EF8]
0000069A  4EAD 0222                jsr        [A5 + 0x222 /* export_64, CODE:1 @ 00004678 */]
0000069E  4267                     clr.w      -[A7]
000006A0  486D AF3A                pea.l      [A5 - 0x50C6]
000006A4  4267                     clr.w      -[A7]
000006A6  2F2D B108                move.l     -[A7], [A5 - 0x4EF8]
000006AA  4EAD 1BC2                jsr        [A5 + 0x1BC2 /* export_884, CODE:17 @ 00000624 */]
000006AE  4A5F                     tst.w      [A7]+
000006B0  57C0                     seq        D0
000006B2  4400                     neg.b      D0
000006B4  1B40 B10D                move.b     [A5 - 0x4EF3], D0
// begin alternate branch 000006B6-000006B8
fn000006B6:
000006B6  B10D                     cmpm.b     [A0]+, [A5]+
// end alternate branch 000006B6-000006B8
fn000006B6: // (misaligned)
000006B8  2F2D B108                move.l     -[A7], [A5 - 0x4EF8]
000006BC  4EAD 022A                jsr        [A5 + 0x22A /* export_65, CODE:1 @ 00004682 */]
label000006C0:
000006C0  4E5E                     unlink     A6
000006C2  2E9F                     move.l     [A7], [A7]+
000006C4  4E75                     rts
000006C6  4441                     neg.w      D1
000006C8  5445                     addq.w     D5, 2
fn000006CA:
000006CA  4E56 FFFE                link       A6, -0x0002
000006CE  2F07                     move.l     -[A7], D7
000006D0  7E30                     moveq.l    D7, 0x30
000006D2  600C                     bra        +0xE /* 000006E0 */
label000006D4:
000006D4  41ED BE02                lea.l      A0, [A5 - 0x41FE]
000006D8  11BC 0004 7000           move.b     [A0 + D7.w], 0x4
000006DE  5247                     addq.w     D7, 1
label000006E0:
000006E0  7039                     moveq.l    D0, 0x39
000006E2  B047                     cmp.w      D0, D7
000006E4  6CEE                     bge        -0x10 /* 000006D4 */
000006E6  7E41                     moveq.l    D7, 0x41
000006E8  600C                     bra        +0xE /* 000006F6 */
label000006EA:
000006EA  41ED BE02                lea.l      A0, [A5 - 0x41FE]
000006EE  11BC 0006 7000           move.b     [A0 + D7.w], 0x6
000006F4  5247                     addq.w     D7, 1
label000006F6:
000006F6  705A                     moveq.l    D0, 0x5A
000006F8  B047                     cmp.w      D0, D7
000006FA  6CEE                     bge        -0x10 /* 000006EA */
000006FC  7E61                     moveq.l    D7, 0x61
000006FE  600C                     bra        +0xE /* 0000070C */
label00000700:
00000700  41ED BE02                lea.l      A0, [A5 - 0x41FE]
00000704  11BC 0006 7000           move.b     [A0 + D7.w], 0x6
0000070A  5247                     addq.w     D7, 1
label0000070C:
0000070C  707A                     moveq.l    D0, 0x7A
0000070E  B047                     cmp.w      D0, D7
00000710  6CEE                     bge        -0x10 /* 00000700 */
00000712  1B7C 0006 BE61           move.b     [A5 - 0x419F], 0x6
00000718  3E3C 0080                move.w     D7, 0x80
0000071C  600C                     bra        +0xE /* 0000072A */
label0000071E:
0000071E  41ED BE02                lea.l      A0, [A5 - 0x41FE]
00000722  11BC 0006 7000           move.b     [A0 + D7.w], 0x6
00000728  5247                     addq.w     D7, 1
label0000072A:
0000072A  0C47 009F                cmpi.w     D7, 0x9F
0000072E  6FEE                     ble        -0x10 /* 0000071E */
00000730  1B7C 0006 BEA9           move.b     [A5 - 0x4157], 0x6
00000736  1B7C 0006 BEB0           move.b     [A5 - 0x4150], 0x6
0000073C  1B7C 0006 BEB1           move.b     [A5 - 0x414F], 0x6
00000742  1B7C 0006 BEC0           move.b     [A5 - 0x4140], 0x6
00000748  1B7C 0006 BEC1           move.b     [A5 - 0x413F], 0x6
0000074E  1B7C 0006 BECD           move.b     [A5 - 0x4133], 0x6
00000754  1B7C 0006 BECE           move.b     [A5 - 0x4132], 0x6
0000075A  1B7C 0006 BECF           move.b     [A5 - 0x4131], 0x6
00000760  1B7C 0006 BED0           move.b     [A5 - 0x4130], 0x6
00000766  1B7C 0006 BED1           move.b     [A5 - 0x412F], 0x6
0000076C  1B7C 0006 BEDA           move.b     [A5 - 0x4126], 0x6
00000772  1B7C 0005 BE30           move.b     [A5 - 0x41D0], 0x5
00000778  1B7C 0007 BE02           move.b     [A5 - 0x41FE], 0x7
0000077E  1B7C 0007 BE0F           move.b     [A5 - 0x41F1], 0x7
00000784  7000                     moveq.l    D0, 0x00
00000786  303C 0022                move.w     D0, 0x22 /* '\"' */
0000078A  C0BC 0000 00FF           and.l      D0, 0xFF
00000790  41ED BE02                lea.l      A0, [A5 - 0x41FE]
00000794  11BC 0003 0000           move.b     [A0 + D0.w], 0x3
0000079A  7000                     moveq.l    D0, 0x00
0000079C  303C 0026                move.w     D0, 0x26 /* '&' */
000007A0  C0BC 0000 00FF           and.l      D0, 0xFF
000007A6  41ED BE02                lea.l      A0, [A5 - 0x41FE]
000007AA  11BC 0001 0000           move.b     [A0 + D0.w], 0x1
000007B0  7000                     moveq.l    D0, 0x00
000007B2  303C 002F                move.w     D0, 0x2F /* '/' */
000007B6  C0BC 0000 00FF           and.l      D0, 0xFF
000007BC  41ED BE02                lea.l      A0, [A5 - 0x41FE]
000007C0  11BC 0001 0000           move.b     [A0 + D0.w], 0x1
000007C6  7000                     moveq.l    D0, 0x00
000007C8  303C 003D                move.w     D0, 0x3D /* '=' */
000007CC  C0BC 0000 00FF           and.l      D0, 0xFF
000007D2  41ED BE02                lea.l      A0, [A5 - 0x41FE]
000007D6  11BC 0001 0000           move.b     [A0 + D0.w], 0x1
000007DC  7000                     moveq.l    D0, 0x00
000007DE  303C 005E                move.w     D0, 0x5E /* '^' */
000007E2  C0BC 0000 00FF           and.l      D0, 0xFF
000007E8  41ED BE02                lea.l      A0, [A5 - 0x41FE]
000007EC  11BC 0001 0000           move.b     [A0 + D0.w], 0x1
000007F2  7000                     moveq.l    D0, 0x00
000007F4  303C 00B3                move.w     D0, 0xB3
000007F8  C0BC 0000 00FF           and.l      D0, 0xFF
000007FE  41ED BE02                lea.l      A0, [A5 - 0x41FE]
00000802  11BC 0001 0000           move.b     [A0 + D0.w], 0x1
00000808  7000                     moveq.l    D0, 0x00
0000080A  303C 003E                move.w     D0, 0x3E /* '>' */
0000080E  C0BC 0000 00FF           and.l      D0, 0xFF
00000814  41ED BE02                lea.l      A0, [A5 - 0x41FE]
00000818  11BC 0001 0000           move.b     [A0 + D0.w], 0x1
0000081E  7000                     moveq.l    D0, 0x00
00000820  303C 00B2                move.w     D0, 0xB2
00000824  C0BC 0000 00FF           and.l      D0, 0xFF
0000082A  41ED BE02                lea.l      A0, [A5 - 0x41FE]
0000082E  11BC 0001 0000           move.b     [A0 + D0.w], 0x1
00000834  7000                     moveq.l    D0, 0x00
00000836  303C 003C                move.w     D0, 0x3C /* '<' */
0000083A  C0BC 0000 00FF           and.l      D0, 0xFF
00000840  41ED BE02                lea.l      A0, [A5 - 0x41FE]
00000844  11BC 0001 0000           move.b     [A0 + D0.w], 0x1
0000084A  7000                     moveq.l    D0, 0x00
0000084C  303C 002D                move.w     D0, 0x2D /* '-' */
00000850  C0BC 0000 00FF           and.l      D0, 0xFF
00000856  41ED BE02                lea.l      A0, [A5 - 0x41FE]
0000085A  11BC 0001 0000           move.b     [A0 + D0.w], 0x1
00000860  7000                     moveq.l    D0, 0x00
00000862  303C 00AD                move.w     D0, 0xAD
00000866  C0BC 0000 00FF           and.l      D0, 0xFF
0000086C  41ED BE02                lea.l      A0, [A5 - 0x41FE]
00000870  11BC 0001 0000           move.b     [A0 + D0.w], 0x1
00000876  7000                     moveq.l    D0, 0x00
00000878  303C 002B                move.w     D0, 0x2B /* '+' */
0000087C  C0BC 0000 00FF           and.l      D0, 0xFF
00000882  41ED BE02                lea.l      A0, [A5 - 0x41FE]
00000886  11BC 0001 0000           move.b     [A0 + D0.w], 0x1
0000088C  7000                     moveq.l    D0, 0x00
0000088E  303C 002A                move.w     D0, 0x2A /* '*' */
00000892  C0BC 0000 00FF           and.l      D0, 0xFF
00000898  41ED BE02                lea.l      A0, [A5 - 0x41FE]
0000089C  11BC 0001 0000           move.b     [A0 + D0.w], 0x1
000008A2  7000                     moveq.l    D0, 0x00
000008A4  303C 0040                move.w     D0, 0x40 /* '@' */
000008A8  C0BC 0000 00FF           and.l      D0, 0xFF
000008AE  41ED BE02                lea.l      A0, [A5 - 0x41FE]
000008B2  11BC 0002 0000           move.b     [A0 + D0.w], 0x2
000008B8  7000                     moveq.l    D0, 0x00
000008BA  303C 003A                move.w     D0, 0x3A /* ':' */
000008BE  C0BC 0000 00FF           and.l      D0, 0xFF
000008C4  41ED BE02                lea.l      A0, [A5 - 0x41FE]
000008C8  11BC 0002 0000           move.b     [A0 + D0.w], 0x2
000008CE  7000                     moveq.l    D0, 0x00
000008D0  303C 002C                move.w     D0, 0x2C /* ',' */
000008D4  C0BC 0000 00FF           and.l      D0, 0xFF
000008DA  41ED BE02                lea.l      A0, [A5 - 0x41FE]
000008DE  11BC 0002 0000           move.b     [A0 + D0.w], 0x2
000008E4  7000                     moveq.l    D0, 0x00
000008E6  303C 00C2                move.w     D0, 0xC2
000008EA  C0BC 0000 00FF           and.l      D0, 0xFF
000008F0  41ED BE02                lea.l      A0, [A5 - 0x41FE]
000008F4  11BC 0002 0000           move.b     [A0 + D0.w], 0x2
000008FA  7000                     moveq.l    D0, 0x00
000008FC  303C 007B                move.w     D0, 0x7B /* '{' */
00000900  C0BC 0000 00FF           and.l      D0, 0xFF
00000906  41ED BE02                lea.l      A0, [A5 - 0x41FE]
0000090A  11BC 0002 0000           move.b     [A0 + D0.w], 0x2
00000910  7000                     moveq.l    D0, 0x00
00000912  303C 005B                move.w     D0, 0x5B /* '[' */
00000916  C0BC 0000 00FF           and.l      D0, 0xFF
0000091C  41ED BE02                lea.l      A0, [A5 - 0x41FE]
00000920  11BC 0002 0000           move.b     [A0 + D0.w], 0x2
00000926  7000                     moveq.l    D0, 0x00
00000928  303C 0028                move.w     D0, 0x28 /* '(' */
0000092C  C0BC 0000 00FF           and.l      D0, 0xFF
00000932  41ED BE02                lea.l      A0, [A5 - 0x41FE]
00000936  11BC 0002 0000           move.b     [A0 + D0.w], 0x2
0000093C  7000                     moveq.l    D0, 0x00
0000093E  303C 007D                move.w     D0, 0x7D /* '}' */
00000942  C0BC 0000 00FF           and.l      D0, 0xFF
00000948  41ED BE02                lea.l      A0, [A5 - 0x41FE]
0000094C  11BC 0002 0000           move.b     [A0 + D0.w], 0x2
00000952  7000                     moveq.l    D0, 0x00
00000954  303C 005D                move.w     D0, 0x5D /* ']' */
00000958  C0BC 0000 00FF           and.l      D0, 0xFF
0000095E  41ED BE02                lea.l      A0, [A5 - 0x41FE]
00000962  11BC 0002 0000           move.b     [A0 + D0.w], 0x2
00000968  7000                     moveq.l    D0, 0x00
0000096A  303C 0029                move.w     D0, 0x29 /* ')' */
0000096E  C0BC 0000 00FF           and.l      D0, 0xFF
00000974  41ED BE02                lea.l      A0, [A5 - 0x41FE]
00000978  11BC 0002 0000           move.b     [A0 + D0.w], 0x2
0000097E  7000                     moveq.l    D0, 0x00
00000980  303C 007C                move.w     D0, 0x7C /* '|' */
00000984  C0BC 0000 00FF           and.l      D0, 0xFF
0000098A  41ED BE02                lea.l      A0, [A5 - 0x41FE]
0000098E  11BC 0002 0000           move.b     [A0 + D0.w], 0x2
00000994  7000                     moveq.l    D0, 0x00
00000996  303C 0026                move.w     D0, 0x26 /* '&' */
0000099A  C0BC 0000 00FF           and.l      D0, 0xFF
000009A0  41ED BD02                lea.l      A0, [A5 - 0x42FE]
000009A4  11BC 0001 0000           move.b     [A0 + D0.w], 0x1
000009AA  7000                     moveq.l    D0, 0x00
000009AC  303C 002F                move.w     D0, 0x2F /* '/' */
000009B0  C0BC 0000 00FF           and.l      D0, 0xFF
000009B6  41ED BD02                lea.l      A0, [A5 - 0x42FE]
000009BA  11BC 0006 0000           move.b     [A0 + D0.w], 0x6
000009C0  7000                     moveq.l    D0, 0x00
000009C2  303C 003D                move.w     D0, 0x3D /* '=' */
000009C6  C0BC 0000 00FF           and.l      D0, 0xFF
000009CC  41ED BD02                lea.l      A0, [A5 - 0x42FE]
000009D0  11BC 0007 0000           move.b     [A0 + D0.w], 0x7
000009D6  7000                     moveq.l    D0, 0x00
000009D8  303C 005E                move.w     D0, 0x5E /* '^' */
000009DC  C0BC 0000 00FF           and.l      D0, 0xFF
000009E2  41ED BD02                lea.l      A0, [A5 - 0x42FE]
000009E6  11BC 0008 0000           move.b     [A0 + D0.w], 0x8
000009EC  7000                     moveq.l    D0, 0x00
000009EE  303C 00B3                move.w     D0, 0xB3
000009F2  C0BC 0000 00FF           and.l      D0, 0xFF
000009F8  41ED BD02                lea.l      A0, [A5 - 0x42FE]
000009FC  11BC 0009 0000           move.b     [A0 + D0.w], 0x9 /* '\t' */
00000A02  7000                     moveq.l    D0, 0x00
00000A04  303C 003E                move.w     D0, 0x3E /* '>' */
00000A08  C0BC 0000 00FF           and.l      D0, 0xFF
00000A0E  41ED BD02                lea.l      A0, [A5 - 0x42FE]
00000A12  11BC 000A 0000           move.b     [A0 + D0.w], 0xA /* '\n' */
00000A18  7000                     moveq.l    D0, 0x00
00000A1A  303C 00B2                move.w     D0, 0xB2
00000A1E  C0BC 0000 00FF           and.l      D0, 0xFF
00000A24  41ED BD02                lea.l      A0, [A5 - 0x42FE]
00000A28  11BC 000F 0000           move.b     [A0 + D0.w], 0xF
00000A2E  7000                     moveq.l    D0, 0x00
00000A30  303C 003C                move.w     D0, 0x3C /* '<' */
00000A34  C0BC 0000 00FF           and.l      D0, 0xFF
00000A3A  41ED BD02                lea.l      A0, [A5 - 0x42FE]
00000A3E  11BC 0010 0000           move.b     [A0 + D0.w], 0x10
00000A44  7000                     moveq.l    D0, 0x00
00000A46  303C 002D                move.w     D0, 0x2D /* '-' */
00000A4A  C0BC 0000 00FF           and.l      D0, 0xFF
00000A50  41ED BD02                lea.l      A0, [A5 - 0x42FE]
00000A54  11BC 0011 0000           move.b     [A0 + D0.w], 0x11
00000A5A  7000                     moveq.l    D0, 0x00
00000A5C  303C 00AD                move.w     D0, 0xAD
00000A60  C0BC 0000 00FF           and.l      D0, 0xFF
00000A66  41ED BD02                lea.l      A0, [A5 - 0x42FE]
00000A6A  11BC 0013 0000           move.b     [A0 + D0.w], 0x13
00000A70  7000                     moveq.l    D0, 0x00
00000A72  303C 002B                move.w     D0, 0x2B /* '+' */
00000A76  C0BC 0000 00FF           and.l      D0, 0xFF
00000A7C  41ED BD02                lea.l      A0, [A5 - 0x42FE]
00000A80  11BC 0015 0000           move.b     [A0 + D0.w], 0x15
00000A86  7000                     moveq.l    D0, 0x00
00000A88  303C 002A                move.w     D0, 0x2A /* '*' */
00000A8C  C0BC 0000 00FF           and.l      D0, 0xFF
00000A92  41ED BD02                lea.l      A0, [A5 - 0x42FE]
00000A96  11BC 0016 0000           move.b     [A0 + D0.w], 0x16
00000A9C  7000                     moveq.l    D0, 0x00
00000A9E  303C 0040                move.w     D0, 0x40 /* '@' */
00000AA2  C0BC 0000 00FF           and.l      D0, 0xFF
00000AA8  41ED BD02                lea.l      A0, [A5 - 0x42FE]
00000AAC  11BC 0001 0000           move.b     [A0 + D0.w], 0x1
00000AB2  7000                     moveq.l    D0, 0x00
00000AB4  303C 003A                move.w     D0, 0x3A /* ':' */
00000AB8  C0BC 0000 00FF           and.l      D0, 0xFF
00000ABE  41ED BD02                lea.l      A0, [A5 - 0x42FE]
00000AC2  11BC 0002 0000           move.b     [A0 + D0.w], 0x2
00000AC8  7000                     moveq.l    D0, 0x00
00000ACA  303C 002C                move.w     D0, 0x2C /* ',' */
00000ACE  C0BC 0000 00FF           and.l      D0, 0xFF
00000AD4  41ED BD02                lea.l      A0, [A5 - 0x42FE]
00000AD8  11BC 0003 0000           move.b     [A0 + D0.w], 0x3
00000ADE  7000                     moveq.l    D0, 0x00
00000AE0  303C 00C2                move.w     D0, 0xC2
00000AE4  C0BC 0000 00FF           and.l      D0, 0xFF
00000AEA  41ED BD02                lea.l      A0, [A5 - 0x42FE]
00000AEE  11BC 0004 0000           move.b     [A0 + D0.w], 0x4
00000AF4  7000                     moveq.l    D0, 0x00
00000AF6  303C 007B                move.w     D0, 0x7B /* '{' */
00000AFA  C0BC 0000 00FF           and.l      D0, 0xFF
00000B00  41ED BD02                lea.l      A0, [A5 - 0x42FE]
00000B04  11BC 0005 0000           move.b     [A0 + D0.w], 0x5
00000B0A  7000                     moveq.l    D0, 0x00
00000B0C  303C 005B                move.w     D0, 0x5B /* '[' */
00000B10  C0BC 0000 00FF           and.l      D0, 0xFF
00000B16  41ED BD02                lea.l      A0, [A5 - 0x42FE]
00000B1A  11BC 0006 0000           move.b     [A0 + D0.w], 0x6
00000B20  7000                     moveq.l    D0, 0x00
00000B22  303C 0028                move.w     D0, 0x28 /* '(' */
00000B26  C0BC 0000 00FF           and.l      D0, 0xFF
00000B2C  41ED BD02                lea.l      A0, [A5 - 0x42FE]
00000B30  11BC 0007 0000           move.b     [A0 + D0.w], 0x7
00000B36  7000                     moveq.l    D0, 0x00
00000B38  303C 007D                move.w     D0, 0x7D /* '}' */
00000B3C  C0BC 0000 00FF           and.l      D0, 0xFF
00000B42  41ED BD02                lea.l      A0, [A5 - 0x42FE]
00000B46  11BC 0008 0000           move.b     [A0 + D0.w], 0x8
00000B4C  7000                     moveq.l    D0, 0x00
00000B4E  303C 005D                move.w     D0, 0x5D /* ']' */
00000B52  C0BC 0000 00FF           and.l      D0, 0xFF
00000B58  41ED BD02                lea.l      A0, [A5 - 0x42FE]
00000B5C  11BC 0009 0000           move.b     [A0 + D0.w], 0x9 /* '\t' */
00000B62  7000                     moveq.l    D0, 0x00
00000B64  303C 0029                move.w     D0, 0x29 /* ')' */
00000B68  C0BC 0000 00FF           and.l      D0, 0xFF
00000B6E  41ED BD02                lea.l      A0, [A5 - 0x42FE]
00000B72  11BC 000A 0000           move.b     [A0 + D0.w], 0xA /* '\n' */
00000B78  7000                     moveq.l    D0, 0x00
00000B7A  303C 007C                move.w     D0, 0x7C /* '|' */
00000B7E  C0BC 0000 00FF           and.l      D0, 0xFF
00000B84  41ED BD02                lea.l      A0, [A5 - 0x42FE]
00000B88  11BC 000B 0000           move.b     [A0 + D0.w], 0xB
00000B8E  2E1F                     move.l     D7, [A7]+
00000B90  4E5E                     unlink     A6
00000B92  2E9F                     move.l     [A7], [A7]+
00000B94  4E75                     rts
fn00000B96:
00000B96  4E56 0000                link       A6, 0
00000B9A  1B7C 0032 BCEC           move.b     [A5 - 0x4314], 0x32 /* '2' */
00000BA0  1B7C 0032 BCED           move.b     [A5 - 0x4313], 0x32 /* '2' */
00000BA6  1B7C 0014 BCEE           move.b     [A5 - 0x4312], 0x14
00000BAC  1B7C 0028 BCEF           move.b     [A5 - 0x4311], 0x28 /* '(' */
00000BB2  1B7C 0046 BCF0           move.b     [A5 - 0x4310], 0x46 /* 'F' */
00000BB8  1B7C 0046 BCF1           move.b     [A5 - 0x430F], 0x46 /* 'F' */
00000BBE  1B7C 001E BCF2           move.b     [A5 - 0x430E], 0x1E
00000BC4  1B7C 0050 BCF3           move.b     [A5 - 0x430D], 0x50 /* 'P' */
00000BCA  1B7C 0028 BCF4           move.b     [A5 - 0x430C], 0x28 /* '(' */
00000BD0  1B7C 0028 BCF5           move.b     [A5 - 0x430B], 0x28 /* '(' */
00000BD6  1B7C 0028 BCF6           move.b     [A5 - 0x430A], 0x28 /* '(' */
00000BDC  1B7C 0028 BCF7           move.b     [A5 - 0x4309], 0x28 /* '(' */
00000BE2  1B7C 0028 BCF8           move.b     [A5 - 0x4308], 0x28 /* '(' */
00000BE8  1B7C 0028 BCF9           move.b     [A5 - 0x4307], 0x28 /* '(' */
00000BEE  1B7C 0028 BCFA           move.b     [A5 - 0x4306], 0x28 /* '(' */
00000BF4  1B7C 0028 BCFB           move.b     [A5 - 0x4305], 0x28 /* '(' */
00000BFA  1B7C 003C BCFC           move.b     [A5 - 0x4304], 0x3C /* '<' */
00000C00  1B7C 0046 BCFD           move.b     [A5 - 0x4303], 0x46 /* 'F' */
00000C06  1B7C 001E BCFE           move.b     [A5 - 0x4302], 0x1E
00000C0C  1B7C 000A BCFF           move.b     [A5 - 0x4301], 0xA /* '\n' */
00000C12  1B7C 003C BD00           move.b     [A5 - 0x4300], 0x3C /* '<' */
00000C18  1B7C 0046 BD01           move.b     [A5 - 0x42FF], 0x46 /* 'F' */
00000C1E  41ED 115A                lea.l      A0, [A5 + 0x115A /* export_551, CODE:10 @ 00000B0C */]
00000C22  2B48 BC94                move.l     [A5 - 0x436C], A0
00000C26  41ED 115A                lea.l      A0, [A5 + 0x115A /* export_551, CODE:10 @ 00000B0C */]
00000C2A  2B48 BC98                move.l     [A5 - 0x4368], A0
00000C2E  41ED 1182                lea.l      A0, [A5 + 0x1182 /* export_556, CODE:10 @ 0000101A */]
00000C32  2B48 BC9C                move.l     [A5 - 0x4364], A0
00000C36  41ED 115A                lea.l      A0, [A5 + 0x115A /* export_551, CODE:10 @ 00000B0C */]
00000C3A  2B48 BCA0                move.l     [A5 - 0x4360], A0
00000C3E  41ED 117A                lea.l      A0, [A5 + 0x117A /* export_555, CODE:10 @ 00000FAE */]
00000C42  2B48 BCA4                move.l     [A5 - 0x435C], A0
00000C46  41ED 1172                lea.l      A0, [A5 + 0x1172 /* export_554, CODE:10 @ 00000DDE */]
00000C4A  2B48 BCA8                move.l     [A5 - 0x4358], A0
00000C4E  7000                     moveq.l    D0, 0x00
00000C50  2B40 BCAC                move.l     [A5 - 0x4354], D0
00000C54  41ED 1172                lea.l      A0, [A5 + 0x1172 /* export_554, CODE:10 @ 00000DDE */]
00000C58  2B48 BCB0                move.l     [A5 - 0x4350], A0
00000C5C  7000                     moveq.l    D0, 0x00
00000C5E  2B40 BCB4                move.l     [A5 - 0x434C], D0
00000C62  7000                     moveq.l    D0, 0x00
00000C64  2B40 BCB8                move.l     [A5 - 0x4348], D0
00000C68  41ED 115A                lea.l      A0, [A5 + 0x115A /* export_551, CODE:10 @ 00000B0C */]
00000C6C  2B48 BCBC                move.l     [A5 - 0x4344], A0
00000C70  41ED 115A                lea.l      A0, [A5 + 0x115A /* export_551, CODE:10 @ 00000B0C */]
00000C74  2B48 BCC0                move.l     [A5 - 0x4340], A0
00000C78  7000                     moveq.l    D0, 0x00
00000C7A  2B40 BCC4                move.l     [A5 - 0x433C], D0
00000C7E  7000                     moveq.l    D0, 0x00
00000C80  2B40 BCC8                move.l     [A5 - 0x4338], D0
00000C84  7000                     moveq.l    D0, 0x00
00000C86  2B40 BCCC                move.l     [A5 - 0x4334], D0
00000C8A  7000                     moveq.l    D0, 0x00
00000C8C  2B40 BCD0                move.l     [A5 - 0x4330], D0
00000C90  41ED 116A                lea.l      A0, [A5 + 0x116A /* export_553, CODE:10 @ 00000D80 */]
00000C94  2B48 BCD4                move.l     [A5 - 0x432C], A0
00000C98  41ED 116A                lea.l      A0, [A5 + 0x116A /* export_553, CODE:10 @ 00000D80 */]
00000C9C  2B48 BCD8                move.l     [A5 - 0x4328], A0
00000CA0  7000                     moveq.l    D0, 0x00
00000CA2  2B40 BCDC                move.l     [A5 - 0x4324], D0
00000CA6  41ED 1182                lea.l      A0, [A5 + 0x1182 /* export_556, CODE:10 @ 0000101A */]
00000CAA  2B48 BCE0                move.l     [A5 - 0x4320], A0
00000CAE  41ED 116A                lea.l      A0, [A5 + 0x116A /* export_553, CODE:10 @ 00000D80 */]
00000CB2  2B48 BCE4                move.l     [A5 - 0x431C], A0
00000CB6  41ED 116A                lea.l      A0, [A5 + 0x116A /* export_553, CODE:10 @ 00000D80 */]
00000CBA  2B48 BCE8                move.l     [A5 - 0x4318], A0
00000CBE  41ED 110A                lea.l      A0, [A5 + 0x110A /* export_541, CODE:10 @ 00000574 */]
00000CC2  2B48 BC58                move.l     [A5 - 0x43A8], A0
00000CC6  41ED 1152                lea.l      A0, [A5 + 0x1152 /* export_550, CODE:10 @ 00000A42 */]
00000CCA  2B48 BC90                move.l     [A5 - 0x4370], A0
00000CCE  41ED 1102                lea.l      A0, [A5 + 0x1102 /* export_540, CODE:10 @ 00000538 */]
00000CD2  2B48 BC50                move.l     [A5 - 0x43B0], A0
00000CD6  41ED 10FA                lea.l      A0, [A5 + 0x10FA /* export_539, CODE:10 @ 000004FE */]
00000CDA  2B48 BC4C                move.l     [A5 - 0x43B4], A0
00000CDE  41ED 113A                lea.l      A0, [A5 + 0x113A /* export_547, CODE:10 @ 00000864 */]
00000CE2  2B48 BC80                move.l     [A5 - 0x4380], A0
00000CE6  41ED 114A                lea.l      A0, [A5 + 0x114A /* export_549, CODE:10 @ 0000097C */]
00000CEA  2B48 BC8C                move.l     [A5 - 0x4374], A0
00000CEE  41ED 1132                lea.l      A0, [A5 + 0x1132 /* export_546, CODE:10 @ 0000079C */]
00000CF2  2B48 BC7C                move.l     [A5 - 0x4384], A0
00000CF6  41ED 10D2                lea.l      A0, [A5 + 0x10D2 /* export_534, CODE:10 @ 00000000 */]
00000CFA  2B48 BC3C                move.l     [A5 - 0x43C4], A0
00000CFE  41ED 10DA                lea.l      A0, [A5 + 0x10DA /* export_535, CODE:10 @ 0000008A */]
00000D02  2B48 BC40                move.l     [A5 - 0x43C0], A0
00000D06  41ED 10EA                lea.l      A0, [A5 + 0x10EA /* export_537, CODE:10 @ 0000013E */]
00000D0A  2B48 BC60                move.l     [A5 - 0x43A0], A0
00000D0E  41ED 10EA                lea.l      A0, [A5 + 0x10EA /* export_537, CODE:10 @ 0000013E */]
00000D12  2B48 BC78                move.l     [A5 - 0x4388], A0
00000D16  41ED 10EA                lea.l      A0, [A5 + 0x10EA /* export_537, CODE:10 @ 0000013E */]
00000D1A  2B48 BC5C                move.l     [A5 - 0x43A4], A0
00000D1E  41ED 10EA                lea.l      A0, [A5 + 0x10EA /* export_537, CODE:10 @ 0000013E */]
00000D22  2B48 BC74                move.l     [A5 - 0x438C], A0
00000D26  41ED 10F2                lea.l      A0, [A5 + 0x10F2 /* export_538, CODE:10 @ 000004BA */]
00000D2A  2B48 BC48                move.l     [A5 - 0x43B8], A0
00000D2E  41ED 1112                lea.l      A0, [A5 + 0x1112 /* export_542, CODE:10 @ 000005A6 */]
00000D32  2B48 BC64                move.l     [A5 - 0x439C], A0
00000D36  41ED 111A                lea.l      A0, [A5 + 0x111A /* export_543, CODE:10 @ 000005EA */]
00000D3A  2B48 BC68                move.l     [A5 - 0x4398], A0
00000D3E  41ED 112A                lea.l      A0, [A5 + 0x112A /* export_545, CODE:10 @ 00000710 */]
00000D42  2B48 BC6C                move.l     [A5 - 0x4394], A0
00000D46  41ED 1122                lea.l      A0, [A5 + 0x1122 /* export_544, CODE:10 @ 000005FA */]
00000D4A  2B48 BC70                move.l     [A5 - 0x4390], A0
00000D4E  41ED 10EA                lea.l      A0, [A5 + 0x10EA /* export_537, CODE:10 @ 0000013E */]
00000D52  2B48 BC54                move.l     [A5 - 0x43AC], A0
00000D56  41ED 10EA                lea.l      A0, [A5 + 0x10EA /* export_537, CODE:10 @ 0000013E */]
00000D5A  2B48 BC84                move.l     [A5 - 0x437C], A0
00000D5E  41ED 10E2                lea.l      A0, [A5 + 0x10E2 /* export_536, CODE:10 @ 00000120 */]
00000D62  2B48 BC44                move.l     [A5 - 0x43BC], A0
00000D66  41ED 1142                lea.l      A0, [A5 + 0x1142 /* export_548, CODE:10 @ 0000095E */]
00000D6A  2B48 BC88                move.l     [A5 - 0x4378], A0
00000D6E  3B7C 015E BA5A           move.w     [A5 - 0x45A6], 0x15E
00000D74  3B7C 012A BC1A           move.w     [A5 - 0x43E6], 0x12A
00000D7A  3B7C 012F BA1A           move.w     [A5 - 0x45E6], 0x12F
00000D80  2B7C 0364 6976 B9FA      move.l     [A5 - 0x4606], 0x3646976
00000D88  2B7C 036D 6F64 BB9A      move.l     [A5 - 0x4466], 0x36D6F64
00000D90  3B7C 012B BBFA           move.w     [A5 - 0x4406], 0x12B
00000D96  3B7C 012D BB7A           move.w     [A5 - 0x4486], 0x12D
00000D9C  3B7C 0126 B97A           move.w     [A5 - 0x4686], 0x126
00000DA2  2B7C 0226 2620 B99A      move.l     [A5 - 0x4666], 0x2262620
00000DAA  3B7C 013E BA9A           move.w     [A5 - 0x4566], 0x13E
00000DB0  3B7C 013C BB5A           move.w     [A5 - 0x44A6], 0x13C
00000DB6  2B7C 023E 3D20 BA7A      move.l     [A5 - 0x4586], 0x23E3D20
00000DBE  2B7C 023C 3D20 BB3A      move.l     [A5 - 0x44C6], 0x23C3D20
00000DC6  41ED B9DA                lea.l      A0, [A5 - 0x4626]
00000DCA  43FA 008C                lea.l      A1, [PC + 0x8C /* 00000E58, value 0x8636F6E, pstring "contains" */]
00000DCE  20D9                     move.l     [A0]+, [A1]+
00000DD0  20D9                     move.l     [A0]+, [A1]+
00000DD2  3091                     move.w     [A0], [A1]
00000DD4  41ED BABA                lea.l      A0, [A5 - 0x4546]
00000DD8  43FA 0078                lea.l      A1, [PC + 0x78 /* 00000E52, value 0x5697320, pstring "is in" */]
00000DDC  20D9                     move.l     [A0]+, [A1]+
00000DDE  3091                     move.w     [A0], [A1]
00000DE0  41ED BADA                lea.l      A0, [A5 - 0x4526]
00000DE4  43FA 0062                lea.l      A1, [PC + 0x62 /* 00000E48, value 0x9697320 '\tis ', pstring "is not in" */]
00000DE8  20D9                     move.l     [A0]+, [A1]+
00000DEA  20D9                     move.l     [A0]+, [A1]+
00000DEC  3091                     move.w     [A0], [A1]
00000DEE  41ED BAFA                lea.l      A0, [A5 - 0x4506]
00000DF2  43FA 004A                lea.l      A1, [PC + 0x4A /* 00000E3E, value 0x9697320 '\tis ', pstring "is within" */]
00000DF6  20D9                     move.l     [A0]+, [A1]+
00000DF8  20D9                     move.l     [A0]+, [A1]+
00000DFA  3091                     move.w     [A0], [A1]
00000DFC  41ED BB1A                lea.l      A0, [A5 - 0x44E6]
00000E00  43FA 002E                lea.l      A1, [PC + 0x2E /* 00000E30, value 0xD697320 '\ris ', pstring "is not within" */]
00000E04  20D9                     move.l     [A0]+, [A1]+
00000E06  20D9                     move.l     [A0]+, [A1]+
00000E08  20D9                     move.l     [A0]+, [A1]+
00000E0A  3091                     move.w     [A0], [A1]
00000E0C  3B7C 013D BA3A           move.w     [A5 - 0x45C6], 0x13D
00000E12  2B7C 023C 3E20 BBBA      move.l     [A5 - 0x4446], 0x23C3E20
00000E1A  2B7C 0361 6E64 B9BA      move.l     [A5 - 0x4646], 0x3616E64
00000E22  2B7C 026F 7220 BBDA      move.l     [A5 - 0x4426], 0x26F7220
00000E2A  4E5E                     unlink     A6
00000E2C  2E9F                     move.l     [A7], [A7]+
00000E2E  4E75                     rts
00000E30  0D69 7320                bchg       [A1 + 0x7320], D6
00000E34  6E6F                     bgt        +0x71 /* 00000EA5 */
00000E36  7420                     moveq.l    D2, 0x20
00000E38  7769                     moveq.l    D3, 0x69
00000E3A  7468                     moveq.l    D2, 0x68
00000E3C  696E                     bvs        +0x70 /* 00000EAC */
00000E3E  0969 7320                bchg       [A1 + 0x7320], D4
00000E42  7769                     moveq.l    D3, 0x69
00000E44  7468                     moveq.l    D2, 0x68
00000E46  696E                     bvs        +0x70 /* 00000EB6 */
00000E48  0969 7320                bchg       [A1 + 0x7320], D4
00000E4C  6E6F                     bgt        +0x71 /* 00000EBD */
00000E4E  7420                     moveq.l    D2, 0x20
00000E50  696E                     bvs        +0x70 /* 00000EC0 */
00000E52  0569 7320                bchg       [A1 + 0x7320], D2
00000E56  696E                     bvs        +0x70 /* 00000EC6 */
00000E58  0863 6F6E                bchg.b     -[A3], 0x6E /* 'n' */
00000E5C  7461                     moveq.l    D2, 0x61
00000E5E  696E                     bvs        +0x70 /* 00000ECE */
00000E60  7300                     moveq.l    D1, 0x00
fn00000E62:
00000E62  4E56 FEE2                link       A6, -0x011E
00000E66  48E7 0708                movem.l    -[A7], D5,D6,D7,A4
00000E6A  486D 9A76                pea.l      [A5 - 0x658A]
00000E6E  41ED D474                lea.l      A0, [A5 - 0x2B8C]
00000E72  43ED 9A76                lea.l      A1, [A5 - 0x658A]
00000E76  2008                     move.l     D0, A0
00000E78  9089                     sub.l      D0, A1
00000E7A  E488                     lsr        D0, 2
00000E7C  2F00                     move.l     -[A7], D0
00000E7E  4EAD 1B4A                jsr        [A5 + 0x1B4A /* export_869, CODE:16 @ 00001E9C */]
00000E82  1B7C 0001 9AD5           move.b     [A5 - 0x652B], 0x1
00000E88  422D 9AD4                clr.b      [A5 - 0x652C]
00000E8C  42A7                     clr.l      -[A7]
00000E8E  7001                     moveq.l    D0, 0x01
00000E90  2F00                     move.l     -[A7], D0
00000E92  4EAD 18DA                jsr        [A5 + 0x18DA /* export_791, CODE:16 @ 00000896 */]
00000E96  2B5F B534                move.l     [A5 - 0x4ACC], [A7]+
00000E9A  206D B534                movea.l    A0, [A5 - 0x4ACC]
00000E9E  2050                     movea.l    A0, [A0]
00000EA0  4210                     clr.b      [A0]
00000EA2  7000                     moveq.l    D0, 0x00
00000EA4  2B40 D470                move.l     [A5 - 0x2B90], D0
00000EA8  426D CF6A                clr.w      [A5 - 0x3096]
label00000EAC:
00000EAC  2B7C 0000 07D0 B670      move.l     [A5 - 0x4990], 0x7D0
00000EB4  42A7                     clr.l      -[A7]
label00000EB6:
00000EB6  2F3C 0000 07D0           move.l     -[A7], 0x7D0
00000EBC  4EAD 18DA                jsr        [A5 + 0x18DA /* export_791, CODE:16 @ 00000896 */]
label00000EC0:
00000EC0  2B5F B66C                move.l     [A5 - 0x4994], [A7]+
00000EC4  660A                     bne        +0xC /* 00000ED0 */
label00000EC6:
00000EC6  2F3C 0000 1A53           move.l     -[A7], 0x1A53
00000ECC  4EAD 185A                jsr        [A5 + 0x185A /* export_775, CODE:16 @ 0000042E */]
// begin alternate branch 00000ECE-00000ED0
label00000ECE:
00000ECE  185A                     movea.b    A4, [A2]+
// end alternate branch 00000ECE-00000ED0
label00000ECE: // (misaligned)
label00000ED0:
00000ED0  422D B66B                clr.b      [A5 - 0x4995]
00000ED4  4EAD 0A4A                jsr        [A5 + 0xA4A /* export_325, CODE:8 @ 00002D88 */]
00000ED8  41ED 9A82                lea.l      A0, [A5 - 0x657E]
00000EDC  2B48 A80C                move.l     [A5 - 0x57F4], A0
00000EE0  486D B652                pea.l      [A5 - 0x49AE]
00000EE4  4EAD 09B2                jsr        [A5 + 0x9B2 /* export_306, CODE:8 @ 00000CFE */]
00000EE8  41ED B63A                lea.l      A0, [A5 - 0x49C6]
00000EEC  43ED B652                lea.l      A1, [A5 - 0x49AE]
00000EF0  7005                     moveq.l    D0, 0x05
label00000EF2:
00000EF2  20D9                     move.l     [A0]+, [A1]+
00000EF4  51C8 FFFC                dbf        D0, -0x6 /* 00000EF2 */
00000EF8  486D D458                pea.l      [A5 - 0x2BA8]
00000EFC  4EAD 0A52                jsr        [A5 + 0xA52 /* export_326, CODE:8 @ 00002DDE */]
00000F00  41ED D458                lea.l      A0, [A5 - 0x2BA8]
00000F04  2B48 D466                move.l     [A5 - 0x2B9A], A0
00000F08  426D C210                clr.w      [A5 - 0x3DF0]
00000F0C  426D C20E                clr.w      [A5 - 0x3DF2]
00000F10  1B7C 0001 A37A           move.b     [A5 - 0x5C86], 0x1
00000F16  1B7C 0002 A39C           move.b     [A5 - 0x5C64], 0x2
00000F1C  7000                     moveq.l    D0, 0x00
00000F1E  2B40 B42A                move.l     [A5 - 0x4BD6], D0
00000F22  41ED B42E                lea.l      A0, [A5 - 0x4BD2]
00000F26  43FA 02C0                lea.l      A1, [PC + 0x2C0 /* 000011E8, value 0x7456E67, pstring "English" */]
00000F2A  20D9                     move.l     [A0]+, [A1]+
00000F2C  20D9                     move.l     [A0]+, [A1]+
00000F2E  41ED B10E                lea.l      A0, [A5 - 0x4EF2]
00000F32  43FA 0272                lea.l      A1, [PC + 0x272 /* 000011A6, value 0x41646F20 'Ado ', pstring "do else end exit function global if next on pass repeat send then" */]
00000F36  700F                     moveq.l    D0, 0x0F
label00000F38:
00000F38  20D9                     move.l     [A0]+, [A1]+
00000F3A  51C8 FFFC                dbf        D0, -0x6 /* 00000F38 */
00000F3E  3091                     move.w     [A0], [A1]
00000F40  42A7                     clr.l      -[A7]
00000F42  486D B10E                pea.l      [A5 - 0x4EF2]
00000F46  4EAD 1B52                jsr        [A5 + 0x1B52 /* export_870, CODE:16 @ 00001EBC */]
00000F4A  4EAD 0BC2                jsr        [A5 + 0xBC2 /* export_372, CODE:8 @ 00004196 */]
00000F4E  487A 024C                pea.l      [PC + 0x24C /* 0000119C, value 0x8302E23, pstring "0.######" */]
00000F52  4EAD 0BE2                jsr        [A5 + 0xBE2 /* export_376, CODE:8 @ 000044B6 */]
00000F56  3B7C 0001 AADC           move.w     [A5 - 0x5524], 0x1
00000F5C  7000                     moveq.l    D0, 0x00
00000F5E  2B40 FD8E                move.l     [A5 - 0x272], D0
00000F62  42A7                     clr.l      -[A7]
00000F64  7002                     moveq.l    D0, 0x02
00000F66  2F00                     move.l     -[A7], D0
00000F68  4EAD 18DA                jsr        [A5 + 0x18DA /* export_791, CODE:16 @ 00000896 */]
00000F6C  2B5F AADE                move.l     [A5 - 0x5522], [A7]+
00000F70  206D AADE                movea.l    A0, [A5 - 0x5522]
00000F74  2050                     movea.l    A0, [A0]
00000F76  4250                     clr.w      [A0]
00000F78  426D E222                clr.w      [A5 - 0x1DDE]
00000F7C  7000                     moveq.l    D0, 0x00
00000F7E  2B40 E21E                move.l     [A5 - 0x1DE2], D0
00000F82  426D E21C                clr.w      [A5 - 0x1DE4]
00000F86  426D E21A                clr.w      [A5 - 0x1DE6]
00000F8A  41ED E212                lea.l      A0, [A5 - 0x1DEE]
00000F8E  43ED ED8A                lea.l      A1, [A5 - 0x1276]
00000F92  20D9                     move.l     [A0]+, [A1]+
00000F94  20D9                     move.l     [A0]+, [A1]+
00000F96  42A7                     clr.l      -[A7]
00000F98  42A7                     clr.l      -[A7]
00000F9A  4EAD 18DA                jsr        [A5 + 0x18DA /* export_791, CODE:16 @ 00000896 */]
00000F9E  2B5F A708                move.l     [A5 - 0x58F8], [A7]+
00000FA2  1B7C 0001 AF18           move.b     [A5 - 0x50E8], 0x1
00000FA8  70FF                     moveq.l    D0, 0xFFFFFFFF
00000FAA  2B40 AF1A                move.l     [A5 - 0x50E6], D0
00000FAE  70FF                     moveq.l    D0, 0xFFFFFFFF
00000FB0  2B40 AF1E                move.l     [A5 - 0x50E2], D0
00000FB4  70FF                     moveq.l    D0, 0xFFFFFFFF
00000FB6  2B40 AF22                move.l     [A5 - 0x50DE], D0
00000FBA  70FF                     moveq.l    D0, 0xFFFFFFFF
00000FBC  2B40 AF26                move.l     [A5 - 0x50DA], D0
00000FC0  70FF                     moveq.l    D0, 0xFFFFFFFF
00000FC2  2B40 AF2A                move.l     [A5 - 0x50D6], D0
00000FC6  70FF                     moveq.l    D0, 0xFFFFFFFF
00000FC8  2B40 AF2E                move.l     [A5 - 0x50D2], D0
00000FCC  70FF                     moveq.l    D0, 0xFFFFFFFF
00000FCE  2B40 AF32                move.l     [A5 - 0x50CE], D0
00000FD2  70FF                     moveq.l    D0, 0xFFFFFFFF
00000FD4  2B40 AF36                move.l     [A5 - 0x50CA], D0
00000FD8  7C00                     moveq.l    D6, 0x00
00000FDA  102D FD85                move.b     D0, [A5 - 0x27B]
00000FDE  6724                     beq        +0x26 /* 00001004 */
00000FE0  2F3C 0001 0000           move.l     -[A7], 0x10000
00000FE6  486E FFE4                pea.l      [A6 - 0x1C]
00000FEA  4EAD 04A2                jsr        [A5 + 0x4A2 /* export_144, CODE:1 @ 00004EF6 */]
00000FEE  3A1F                     move.w     D5, [A7]+
00000FF0  3B7C 08B9 AAE4           move.w     [A5 - 0x551C], 0x8B9
00000FF6  7001                     moveq.l    D0, 0x01
00000FF8  B06E FFEA                cmp.w      D0, [A6 - 0x16]
00000FFC  6604                     bne        +0x6 /* 00001002 */
00000FFE  426D AAE4                clr.w      [A5 - 0x551C]
label00001002:
00001002  602C                     bra        +0x2E /* 00001030 */
label00001004:
00001004  287C 0000 016A           movea.l    A4, 0x16A
0000100A  2E14                     move.l     D7, [A4]
label0000100C:
0000100C  BE94                     cmp.l      D7, [A4]
0000100E  67FC                     beq        -0x2 /* 0000100C */
00001010  2E14                     move.l     D7, [A4]
label00001012:
00001012  5286                     addq.l     D6, 1
00001014  BE94                     cmp.l      D7, [A4]
00001016  67FA                     beq        -0x4 /* 00001012 */
00001018  2006                     move.l     D0, D6
0000101A  E488                     lsr        D0, 2
0000101C  90BC 0000 02A0           sub.l      D0, 0x2A0
00001022  3B40 AAE4                move.w     [A5 - 0x551C], D0
00001026  4A6D AAE4                tst.w      [A5 - 0x551C]
0000102A  6C04                     bge        +0x6 /* 00001030 */
0000102C  426D AAE4                clr.w      [A5 - 0x551C]
label00001030:
00001030  426D A892                clr.w      [A5 - 0x576E]
00001034  422D A811                clr.b      [A5 - 0x57EF]
00001038  426D AAD4                clr.w      [A5 - 0x552C]
0000103C  41ED A496                lea.l      A0, [A5 - 0x5B6A]
00001040  43FA 0154                lea.l      A1, [PC + 0x154 /* 00001196, value 0x4646F77, pstring "down" */]
00001044  20D9                     move.l     [A0]+, [A1]+
00001046  3091                     move.w     [A0], [A1]
00001048  422D A4B6                clr.b      [A5 - 0x5B4A]
0000104C  41ED A456                lea.l      A0, [A5 - 0x5BAA]
00001050  43FA 013E                lea.l      A1, [PC + 0x13E /* 00001190, value 0x566616C, pstring "false" */]
00001054  20D9                     move.l     [A0]+, [A1]+
00001056  3091                     move.w     [A0], [A1]
00001058  1B7C 0001 A4D6           move.b     [A5 - 0x5B2A], 0x1
0000105E  1B7C 000D A4D7           move.b     [A5 - 0x5B29], 0xD /* '\r' */
00001064  41ED A436                lea.l      A0, [A5 - 0x5BCA]
00001068  43FA 0120                lea.l      A1, [PC + 0x120 /* 0000118A, value 0x4747275, pstring "true" */]
0000106C  20D9                     move.l     [A0]+, [A1]+
0000106E  3091                     move.w     [A0], [A1]
00001070  2B7C 0275 7020 A476      move.l     [A5 - 0x5B8A], 0x2757020
00001078  42A7                     clr.l      -[A7]
0000107A  486D A496                pea.l      [A5 - 0x5B6A]
0000107E  4EAD 1B52                jsr        [A5 + 0x1B52 /* export_870, CODE:16 @ 00001EBC */]
00001082  2B5F A42E                move.l     [A5 - 0x5BD2], [A7]+
00001086  42A7                     clr.l      -[A7]
00001088  486D A4B6                pea.l      [A5 - 0x5B4A]
0000108C  4EAD 1B52                jsr        [A5 + 0x1B52 /* export_870, CODE:16 @ 00001EBC */]
00001090  2B5F A432                move.l     [A5 - 0x5BCE], [A7]+
00001094  42A7                     clr.l      -[A7]
00001096  486D A456                pea.l      [A5 - 0x5BAA]
0000109A  4EAD 1B52                jsr        [A5 + 0x1B52 /* export_870, CODE:16 @ 00001EBC */]
0000109E  2B5F A426                move.l     [A5 - 0x5BDA], [A7]+
000010A2  42A7                     clr.l      -[A7]
000010A4  486D A436                pea.l      [A5 - 0x5BCA]
000010A8  4EAD 1B52                jsr        [A5 + 0x1B52 /* export_870, CODE:16 @ 00001EBC */]
000010AC  2B5F A422                move.l     [A5 - 0x5BDE], [A7]+
000010B0  42A7                     clr.l      -[A7]
000010B2  486D A476                pea.l      [A5 - 0x5B8A]
000010B6  4EAD 1B52                jsr        [A5 + 0x1B52 /* export_870, CODE:16 @ 00001EBC */]
000010BA  2B5F A42A                move.l     [A5 - 0x5BD6], [A7]+
000010BE  1B7C 0002 A2F0           move.b     [A5 - 0x5D10], 0x2
000010C4  422D A2F1                clr.b      [A5 - 0x5D0F]
000010C8  426D A2F2                clr.w      [A5 - 0x5D0E]
000010CC  426D A2F4                clr.w      [A5 - 0x5D0C]
000010D0  1B7C 0005 A2F6           move.b     [A5 - 0x5D0A], 0x5
000010D6  1B7C 0007 A2F7           move.b     [A5 - 0x5D09], 0x7
000010DC  1B7C 0005 A2FC           move.b     [A5 - 0x5D04], 0x5
000010E2  1B7C 0013 A2FD           move.b     [A5 - 0x5D03], 0x13
000010E8  1B7C 0005 A302           move.b     [A5 - 0x5CFE], 0x5
000010EE  1B7C 000B A303           move.b     [A5 - 0x5CFD], 0xB
000010F4  1B7C 0005 A308           move.b     [A5 - 0x5CF8], 0x5
000010FA  1B7C 000C A309           move.b     [A5 - 0x5CF7], 0xC
00001100  1B7C 0005 A30E           move.b     [A5 - 0x5CF2], 0x5
00001106  1B7C 000D A30F           move.b     [A5 - 0x5CF1], 0xD /* '\r' */
0000110C  1B7C 0005 A314           move.b     [A5 - 0x5CEC], 0x5
00001112  1B7C 000E A315           move.b     [A5 - 0x5CEB], 0xE
00001118  41ED A2EA                lea.l      A0, [A5 - 0x5D16]
0000111C  43ED A2F0                lea.l      A1, [A5 - 0x5D10]
00001120  20D9                     move.l     [A0]+, [A1]+
00001122  3091                     move.w     [A0], [A1]
00001124  1B7C 0001 A2EB           move.b     [A5 - 0x5D15], 0x1
0000112A  422D A2E4                clr.b      [A5 - 0x5D1C]
0000112E  1B7C 0001 A378           move.b     [A5 - 0x5C88], 0x1
00001134  486E FEE2                pea.l      [A6 - 0x11E]
00001138  3F3C 0060                move.w     -[A7], 0x60 /* '`' */
0000113C  4EAD 09E2                jsr        [A5 + 0x9E2 /* export_312, CODE:8 @ 00000FF0 */]
00001140  205F                     movea.l    A0, [A7]+
00001142  1B68 0001 A379           move.b     [A5 - 0x5C87], [A0 + 0x1]
00001148  42A7                     clr.l      -[A7]
0000114A  2F3A 003A                move.l     -[A7], [PC + 0x3A /* 00001186, value 0x58434D44 'XCMD' */]
0000114E  3F2D F4DE                move.w     -[A7], [A5 - 0xB22]
00001152  3F2D FD86                move.w     -[A7], [A5 - 0x27A]
00001156  4267                     clr.w      -[A7]
00001158  4EAD 091A                jsr        [A5 + 0x91A /* export_287, CODE:8 @ 00000540 */]
0000115C  2B5F 9A7A                move.l     [A5 - 0x6586], [A7]+
00001160  42A7                     clr.l      -[A7]
00001162  2F3A 001E                move.l     -[A7], [PC + 0x1E /* 00001182, value 0x5846434E 'XFCN' */]
00001166  3F2D F4DC                move.w     -[A7], [A5 - 0xB24]
0000116A  3F2D FD86                move.w     -[A7], [A5 - 0x27A]
0000116E  4267                     clr.w      -[A7]
00001170  4EAD 091A                jsr        [A5 + 0x91A /* export_287, CODE:8 @ 00000540 */]
00001174  2B5F 9A7E                move.l     [A5 - 0x6582], [A7]+
00001178  4CDF 10E0                movem.l    D5,D6,D7,A4, [A7]+
0000117C  4E5E                     unlink     A6
0000117E  2E9F                     move.l     [A7], [A7]+
00001180  4E75                     rts
00001182  5846 434E 5843 4D44      dc.b       "XFCNXCMD"
0000118A  0474 7275 6500           subi.w     [A4 + <<invalid base displacement size>> + D6 * 4], 0x7275 /* 'ru' */
00001190  0566                     bchg       -[A6], D2
00001192  616C                     bsr        +0x6E /* 00001200 */
00001194  7365                     moveq.l    D1, 0x65
00001196  0464 6F77                subi.w     -[A4], 0x6F77 /* 'ow' */
0000119A  6E00 0830                bgt        +0x832 /* 000019CC */
0000119E  2E23                     move.l     D7, -[A3]
000011A0  2323                     move.l     -[A1], -[A3]
000011A2  2323                     move.l     -[A1], -[A3]
000011A4  2300                     move.l     -[A1], D0
000011A6  4164                     chk.w      D0, -[A4]
000011A8  6F20                     ble        +0x22 /* 000011CA */
000011AA  656C                     bcs        +0x6E /* 00001218 */
000011AC  7365                     moveq.l    D1, 0x65
000011AE  2065                     movea.l    A0, -[A5]
000011B0  6E64                     bgt        +0x66 /* 00001216 */
000011B2  2065                     movea.l    A0, -[A5]
000011B4  7869                     moveq.l    D4, 0x69
000011B6  7420                     moveq.l    D2, 0x20
000011B8  6675                     bne        +0x77 /* 0000122F */
000011BA  6E63                     bgt        +0x65 /* 0000121F */
000011BC  7469                     moveq.l    D2, 0x69
000011BE  6F6E                     ble        +0x70 /* 0000122E */
000011C0  2067                     movea.l    A0, -[A7]
000011C2  6C6F                     bge        +0x71 /* 00001233 */
000011C4  6261                     bhi        +0x63 /* 00001227 */
000011C6  6C20                     bge        +0x22 /* 000011E8 */
000011C8  6966                     bvs        +0x68 /* 00001230 */
label000011CA:
000011CA  206E 6578                movea.l    A0, [A6 + 0x6578]
000011CE  7420                     moveq.l    D2, 0x20
000011D0  6F6E                     ble        +0x70 /* 00001240 */
000011D2  2070 6173 7320 7265 7... movea.l    A0, [[A0 + 0x73207265] + 0x70656174]
000011DE  2073 656E                movea.l    A0, <<invalid full ext with IS == 1 and I/IS == 6>>
000011E2  6420                     bcc        +0x22 /* 00001204 */
000011E4  7468                     moveq.l    D2, 0x68
000011E6  656E                     bcs        +0x70 /* 00001256 */
label000011E8:
000011E8  0745                     bchg       D5, D3
000011EA  6E67                     bgt        +0x69 /* 00001253 */
000011EC  6C69                     bge        +0x6B /* 00001257 */
000011EE  7368                     moveq.l    D1, 0x68
fn000011F0:
000011F0  4E56 FFFE                link       A6, -0x0002
000011F4  4EAD 0A1A                jsr        [A5 + 0xA1A /* export_319, CODE:8 @ 0000174C */]
000011F8  42A7                     clr.l      -[A7]
000011FA  2F3A 0082                move.l     -[A7], [PC + 0x82 /* 0000127E, value 0x736E6420 'snd ', cstring "snd NV" */]
000011FE  487A 0076                pea.l      [PC + 0x76 /* 00001276, value 0x753696C, pstring "Silence" */]
// begin alternate branch 00001200-00001208
fn00001200:
00001200  0076 A9A1 2B5F           ori.w      <<invalid full ext with IS == 1 and I/IS == 7>>, 0xA9A1
label00001204: // (misaligned)
00001206  AAEA                     syscall    0xAEA
// end alternate branch 00001200-00001208
fn00001200: // (misaligned)
00001202  A9A1                     syscall    GetNamedResource
label00001204:
00001204  2B5F AAEA                move.l     [A5 - 0x5516], [A7]+
00001208  660C                     bne        +0xE /* 00001216 */
0000120A  2F3C 0000 1417           move.l     -[A7], 0x1417
00001210  4EAD 185A                jsr        [A5 + 0x185A /* export_775, CODE:16 @ 0000042E */]
00001214  603C                     bra        +0x3E /* 00001252 */
label00001216:
00001216  2F2D AAEA                move.l     -[A7], [A5 - 0x5516]
// begin alternate branch 00001218-0000121A
label00001218:
00001218  AAEA                     syscall    0xAEA
// end alternate branch 00001218-0000121A
label00001218: // (misaligned)
0000121A  4EAD 0222                jsr        [A5 + 0x222 /* export_64, CODE:1 @ 00004678 */]
0000121E  2F2D AAEA                move.l     -[A7], [A5 - 0x5516]
00001222  4EAD 023A                jsr        [A5 + 0x23A /* export_67, CODE:1 @ 00004696 */]
00001226  102D D479                move.b     D0, [A5 - 0x2B87]
0000122A  6726                     beq        +0x28 /* 00001252 */
0000122C  4267                     clr.w      -[A7]
label0000122E:
0000122E  2F2D AF14                move.l     -[A7], [A5 - 0x50EC]
// begin alternate branch 00001230-00001232
label00001230:
00001230  AF14                     syscall    PatDither, auto_pop
// end alternate branch 00001230-00001232
label00001230: // (misaligned)
00001232  2F2D AAEA                move.l     -[A7], [A5 - 0x5516]
00001236  1F3C 0001                move.b     -[A7], 0x1
0000123A  4EAD 0C52                jsr        [A5 + 0xC52 /* export_390, CODE:8 @ 00004914 */]
0000123E  3D5F FFFE                move.w     [A6 - 0x2], [A7]+
// begin alternate branch 00001240-00001242
label00001240:
00001240  FFFE                     .invalid   <<F/7/7>>
// end alternate branch 00001240-00001242
label00001240: // (misaligned)
00001242  2F2D AAEA                move.l     -[A7], [A5 - 0x5516]
00001246  4EAD 0222                jsr        [A5 + 0x222 /* export_64, CODE:1 @ 00004678 */]
0000124A  2F2D AAEA                move.l     -[A7], [A5 - 0x5516]
0000124E  4EAD 023A                jsr        [A5 + 0x23A /* export_67, CODE:1 @ 00004696 */]
label00001252:
00001252  4EAD 1C72                jsr        [A5 + 0x1C72 /* export_906, CODE:17 @ 0000123A */]
label00001256:
00001256  42A7                     clr.l      -[A7]
00001258  3F3C A9C8                move.w     -[A7], 0xA9C8
0000125C  4EAD 0262                jsr        [A5 + 0x262 /* export_72, CODE:1 @ 000046EC */]
00001260  2B5F AAE6                move.l     [A5 - 0x551A], [A7]+
00001264  486D 1C7A                pea.l      [A5 + 0x1C7A /* export_907, CODE:17 @ 00001246 */]
00001268  3F3C A9C8                move.w     -[A7], 0xA9C8
0000126C  4EAD 026A                jsr        [A5 + 0x26A /* export_73, CODE:1 @ 000046F6 */]
00001270  4E5E                     unlink     A6
00001272  2E9F                     move.l     [A7], [A7]+
00001274  4E75                     rts
00001276  0753                     bchg       [A3], D3
00001278  696C                     bvs        +0x6E /* 000012E6 */
0000127A  656E                     bcs        +0x70 /* 000012EA */
0000127C  6365                     bls        +0x67 /* 000012E3 */
0000127E  736E                     moveq.l    D1, 0x6E
00001280  6420                     bcc        +0x22 /* 000012A2 */
fn00001282:
00001282  4E56 0000                link       A6, 0
00001286  206E 0008                movea.l    A0, [A6 + 0x8]
0000128A  5268 FFFA                addq.w     [A0 - 0x6], 1
0000128E  206E 0008                movea.l    A0, [A6 + 0x8]
00001292  3028 FFFA                move.w     D0, [A0 - 0x6]
00001296  5340                     subq.w     D0, 1
00001298  41ED D098                lea.l      A0, [A5 - 0x2F68]
0000129C  E540                     asl        D0.w, 2
0000129E  21AE 000C 0000           move.l     [A0 + D0.w], [A6 + 0xC]
// begin alternate branch 000012A2-000012A6
label000012A2:
000012A2  0000 4E5E                ori.b      D0, 0x5E /* '^' */
// end alternate branch 000012A2-000012A6
label000012A2: // (misaligned)
000012A4  4E5E                     unlink     A6
000012A6  205F                     movea.l    A0, [A7]+
000012A8  504F                     addq.w     A7, 8
000012AA  4ED0                     jmp        [A0]
fn000012AC:
000012AC  4E56 0000                link       A6, 0
000012B0  2F0C                     move.l     -[A7], A4
000012B2  286E 0008                movea.l    A4, [A6 + 0x8]
000012B6  526C FFFC                addq.w     [A4 - 0x4], 1
000012BA  302C FFFC                move.w     D0, [A4 - 0x4]
000012BE  5340                     subq.w     D0, 1
000012C0  41ED CFA8                lea.l      A0, [A5 - 0x3058]
000012C4  E540                     asl        D0.w, 2
000012C6  21AE 000E 0000           move.l     [A0 + D0.w], [A6 + 0xE]
000012CC  302C FFFC                move.w     D0, [A4 - 0x4]
000012D0  5340                     subq.w     D0, 1
000012D2  41ED CF6C                lea.l      A0, [A5 - 0x3094]
000012D6  11AE 000C 0000           move.b     [A0 + D0.w], [A6 + 0xC]
000012DC  285F                     movea.l    A4, [A7]+
000012DE  4E5E                     unlink     A6
000012E0  205F                     movea.l    A0, [A7]+
000012E2  DEFC 000A                add.w      A7, 0xA /* '\n' */
label000012E6:
000012E6  4ED0                     jmp        [A0]
fn000012E8:
000012E8  4E56 0000                link       A6, 0
// begin alternate branch 000012EA-000012F2
label000012EA:
000012EA  0000 302E                ori.b      D0, 0x2E /* '.' */
000012EE  0010 5340                ori.b      [A0], 0x40 /* '@' */
// end alternate branch 000012EA-000012F2
label000012EA: // (misaligned)
000012EC  302E 0010                move.w     D0, [A6 + 0x10]
000012F0  5340                     subq.w     D0, 1
000012F2  41ED D158                lea.l      A0, [A5 - 0x2EA8]
000012F6  E540                     asl        D0.w, 2
000012F8  21AE 000C 0000           move.l     [A0 + D0.w], [A6 + 0xC]
000012FE  4E5E                     unlink     A6
00001300  205F                     movea.l    A0, [A7]+
00001302  DEFC 000A                add.w      A7, 0xA /* '\n' */
00001306  4ED0                     jmp        [A0]
fn00001308:
00001308  4E56 0000                link       A6, 0
0000130C  2F0C                     move.l     -[A7], A4
0000130E  286E 0008                movea.l    A4, [A6 + 0x8]
00001312  526C FFFE                addq.w     [A4 - 0x2], 1
00001316  7001                     moveq.l    D0, 0x01
00001318  B06C FFFE                cmp.w      D0, [A4 - 0x2]
0000131C  5EC0                     sgt        D0
0000131E  724B                     moveq.l    D1, 0x4B
00001320  B26C FFFE                cmp.w      D1, [A4 - 0x2]
00001324  5DC1                     slt        D1
00001326  8001                     or.b       D0, D1
00001328  670A                     beq        +0xC /* 00001334 */
0000132A  2F3C 0009 36CE           move.l     -[A7], 0x936CE
00001330  4EAD 185A                jsr        [A5 + 0x185A /* export_775, CODE:16 @ 0000042E */]
label00001334:
00001334  302C FFFE                move.w     D0, [A4 - 0x2]
00001338  5340                     subq.w     D0, 1
0000133A  41ED CD12                lea.l      A0, [A5 - 0x32EE]
0000133E  E540                     asl        D0.w, 2
00001340  21AE 0010 0000           move.l     [A0 + D0.w], [A6 + 0x10]
00001346  302C FFFE                move.w     D0, [A4 - 0x2]
0000134A  5340                     subq.w     D0, 1
0000134C  41ED CE3E                lea.l      A0, [A5 - 0x31C2]
00001350  E540                     asl        D0.w, 2
00001352  21AE 000C 0000           move.l     [A0 + D0.w], [A6 + 0xC]
00001358  285F                     movea.l    A4, [A7]+
0000135A  4E5E                     unlink     A6
0000135C  205F                     movea.l    A0, [A7]+
0000135E  DEFC 000C                add.w      A7, 0xC
00001362  4ED0                     jmp        [A0]
fn00001364:
00001364  4E56 FFFA                link       A6, -0x0006
00001368  3F3C 0001                move.w     -[A7], 0x1
0000136C  486D 13D2                pea.l      [A5 + 0x13D2 /* export_630, CODE:13 @ 00000A86 */]
00001370  2F0E                     move.l     -[A7], A6
00001372  4EBA FF74                jsr        [PC - 0x8C /* 000012E8 */]
00001376  3F3C 0002                move.w     -[A7], 0x2
0000137A  486D 13DA                pea.l      [A5 + 0x13DA /* export_631, CODE:13 @ 00000AA8 */]
0000137E  2F0E                     move.l     -[A7], A6
00001380  4EBA FF66                jsr        [PC - 0x9A /* 000012E8 */]
00001384  3F3C 0003                move.w     -[A7], 0x3
00001388  486D 13E2                pea.l      [A5 + 0x13E2 /* export_632, CODE:13 @ 00000B18 */]
0000138C  2F0E                     move.l     -[A7], A6
0000138E  4EBA FF58                jsr        [PC - 0xA8 /* 000012E8 */]
00001392  3F3C 0004                move.w     -[A7], 0x4
00001396  486D 13EA                pea.l      [A5 + 0x13EA /* export_633, CODE:13 @ 00000BFA */]
0000139A  2F0E                     move.l     -[A7], A6
0000139C  4EBA FF4A                jsr        [PC - 0xB6 /* 000012E8 */]
000013A0  3F3C 0005                move.w     -[A7], 0x5
000013A4  486D 13F2                pea.l      [A5 + 0x13F2 /* export_634, CODE:13 @ 00000C84 */]
000013A8  2F0E                     move.l     -[A7], A6
000013AA  4EBA FF3C                jsr        [PC - 0xC4 /* 000012E8 */]
000013AE  3F3C 0006                move.w     -[A7], 0x6
000013B2  486D 13FA                pea.l      [A5 + 0x13FA /* export_635, CODE:13 @ 00000D6E */]
000013B6  2F0E                     move.l     -[A7], A6
000013B8  4EBA FF2E                jsr        [PC - 0xD2 /* 000012E8 */]
000013BC  3F3C 0007                move.w     -[A7], 0x7
000013C0  486D 1402                pea.l      [A5 + 0x1402 /* export_636, CODE:13 @ 00000DCC */]
000013C4  2F0E                     move.l     -[A7], A6
000013C6  4EBA FF20                jsr        [PC - 0xE0 /* 000012E8 */]
000013CA  3F3C 0008                move.w     -[A7], 0x8
000013CE  486D 140A                pea.l      [A5 + 0x140A /* export_637, CODE:13 @ 00000E58 */]
000013D2  2F0E                     move.l     -[A7], A6
000013D4  4EBA FF12                jsr        [PC - 0xEE /* 000012E8 */]
000013D8  3F3C 0009                move.w     -[A7], 0x9 /* '\t' */
000013DC  486D 1412                pea.l      [A5 + 0x1412 /* export_638, CODE:13 @ 00000E94 */]
000013E0  2F0E                     move.l     -[A7], A6
000013E2  4EBA FF04                jsr        [PC - 0xFC /* 000012E8 */]
000013E6  3F3C 000A                move.w     -[A7], 0xA /* '\n' */
000013EA  486D 141A                pea.l      [A5 + 0x141A /* export_639, CODE:13 @ 00000FFE */]
000013EE  2F0E                     move.l     -[A7], A6
000013F0  4EBA FEF6                jsr        [PC - 0x10A /* 000012E8 */]
000013F4  3F3C 000B                move.w     -[A7], 0xB
000013F8  486D 1422                pea.l      [A5 + 0x1422 /* export_640, CODE:13 @ 0000102E */]
000013FC  2F0E                     move.l     -[A7], A6
000013FE  4EBA FEE8                jsr        [PC - 0x118 /* 000012E8 */]
00001402  3F3C 000C                move.w     -[A7], 0xC
00001406  486D 142A                pea.l      [A5 + 0x142A /* export_641, CODE:13 @ 000010B4 */]
0000140A  2F0E                     move.l     -[A7], A6
0000140C  4EBA FEDA                jsr        [PC - 0x126 /* 000012E8 */]
00001410  426E FFFA                clr.w      [A6 - 0x6]
00001414  486D 11AA                pea.l      [A5 + 0x11AA /* export_561, CODE:11 @ 00000000 */]
00001418  2F0E                     move.l     -[A7], A6
0000141A  4EBA FE66                jsr        [PC - 0x19A /* 00001282 */]
0000141E  486D 11B2                pea.l      [A5 + 0x11B2 /* export_562, CODE:11 @ 00000044 */]
00001422  2F0E                     move.l     -[A7], A6
00001424  4EBA FE5C                jsr        [PC - 0x1A4 /* 00001282 */]
00001428  486D 11BA                pea.l      [A5 + 0x11BA /* export_563, CODE:11 @ 0000017E */]
0000142C  2F0E                     move.l     -[A7], A6
0000142E  4EBA FE52                jsr        [PC - 0x1AE /* 00001282 */]
00001432  486D 11C2                pea.l      [A5 + 0x11C2 /* export_564, CODE:11 @ 00000194 */]
00001436  2F0E                     move.l     -[A7], A6
00001438  4EBA FE48                jsr        [PC - 0x1B8 /* 00001282 */]
0000143C  486D 11CA                pea.l      [A5 + 0x11CA /* export_565, CODE:11 @ 000002FE */]
00001440  2F0E                     move.l     -[A7], A6
00001442  4EBA FE3E                jsr        [PC - 0x1C2 /* 00001282 */]
00001446  486D 11DA                pea.l      [A5 + 0x11DA /* export_567, CODE:11 @ 000003A8 */]
0000144A  2F0E                     move.l     -[A7], A6
0000144C  4EBA FE34                jsr        [PC - 0x1CC /* 00001282 */]
00001450  486D 11D2                pea.l      [A5 + 0x11D2 /* export_566, CODE:11 @ 0000034E */]
00001454  2F0E                     move.l     -[A7], A6
00001456  4EBA FE2A                jsr        [PC - 0x1D6 /* 00001282 */]
0000145A  486D 11E2                pea.l      [A5 + 0x11E2 /* export_568, CODE:11 @ 000003BE */]
0000145E  2F0E                     move.l     -[A7], A6
00001460  4EBA FE20                jsr        [PC - 0x1E0 /* 00001282 */]
00001464  486D 11EA                pea.l      [A5 + 0x11EA /* export_569, CODE:11 @ 00000440 */]
00001468  2F0E                     move.l     -[A7], A6
0000146A  4EBA FE16                jsr        [PC - 0x1EA /* 00001282 */]
0000146E  486D 11F2                pea.l      [A5 + 0x11F2 /* export_570, CODE:11 @ 00000672 */]
00001472  2F0E                     move.l     -[A7], A6
00001474  4EBA FE0C                jsr        [PC - 0x1F4 /* 00001282 */]
00001478  486D 11FA                pea.l      [A5 + 0x11FA /* export_571, CODE:11 @ 00000776 */]
0000147C  2F0E                     move.l     -[A7], A6
0000147E  4EBA FE02                jsr        [PC - 0x1FE /* 00001282 */]
00001482  486D 1202                pea.l      [A5 + 0x1202 /* export_572, CODE:11 @ 00000806 */]
00001486  2F0E                     move.l     -[A7], A6
00001488  4EBA FDF8                jsr        [PC - 0x208 /* 00001282 */]
0000148C  486D 120A                pea.l      [A5 + 0x120A /* export_573, CODE:11 @ 00000A7A */]
00001490  2F0E                     move.l     -[A7], A6
00001492  4EBA FDEE                jsr        [PC - 0x212 /* 00001282 */]
00001496  486D 1212                pea.l      [A5 + 0x1212 /* export_574, CODE:11 @ 00000C30 */]
0000149A  2F0E                     move.l     -[A7], A6
0000149C  4EBA FDE4                jsr        [PC - 0x21C /* 00001282 */]
000014A0  486D 121A                pea.l      [A5 + 0x121A /* export_575, CODE:11 @ 00000C94 */]
000014A4  2F0E                     move.l     -[A7], A6
000014A6  4EBA FDDA                jsr        [PC - 0x226 /* 00001282 */]
000014AA  486D 1222                pea.l      [A5 + 0x1222 /* export_576, CODE:11 @ 00000CF6 */]
000014AE  2F0E                     move.l     -[A7], A6
000014B0  4EBA FDD0                jsr        [PC - 0x230 /* 00001282 */]
000014B4  486D 122A                pea.l      [A5 + 0x122A /* export_577, CODE:11 @ 00000D60 */]
000014B8  2F0E                     move.l     -[A7], A6
000014BA  4EBA FDC6                jsr        [PC - 0x23A /* 00001282 */]
000014BE  486D 1232                pea.l      [A5 + 0x1232 /* export_578, CODE:11 @ 00000DB4 */]
000014C2  2F0E                     move.l     -[A7], A6
000014C4  4EBA FDBC                jsr        [PC - 0x244 /* 00001282 */]
000014C8  486D 123A                pea.l      [A5 + 0x123A /* export_579, CODE:11 @ 00000EB8 */]
000014CC  2F0E                     move.l     -[A7], A6
000014CE  4EBA FDB2                jsr        [PC - 0x24E /* 00001282 */]
000014D2  3B6E FFFA 9AE0           move.w     [A5 - 0x6520], [A6 - 0x6]
000014D8  486D 1242                pea.l      [A5 + 0x1242 /* export_580, CODE:11 @ 00000F70 */]
000014DC  2F0E                     move.l     -[A7], A6
000014DE  4EBA FDA2                jsr        [PC - 0x25E /* 00001282 */]
000014E2  486D 124A                pea.l      [A5 + 0x124A /* export_581, CODE:11 @ 0000116C */]
000014E6  2F0E                     move.l     -[A7], A6
000014E8  4EBA FD98                jsr        [PC - 0x268 /* 00001282 */]
000014EC  486D 1252                pea.l      [A5 + 0x1252 /* export_582, CODE:11 @ 000011C0 */]
000014F0  2F0E                     move.l     -[A7], A6
000014F2  4EBA FD8E                jsr        [PC - 0x272 /* 00001282 */]
000014F6  486D 125A                pea.l      [A5 + 0x125A /* export_583, CODE:11 @ 000011CC */]
000014FA  2F0E                     move.l     -[A7], A6
000014FC  4EBA FD84                jsr        [PC - 0x27C /* 00001282 */]
00001500  486D 1262                pea.l      [A5 + 0x1262 /* export_584, CODE:11 @ 000012E0 */]
00001504  2F0E                     move.l     -[A7], A6
00001506  4EBA FD7A                jsr        [PC - 0x286 /* 00001282 */]
0000150A  486D 126A                pea.l      [A5 + 0x126A /* export_585, CODE:11 @ 000012FC */]
0000150E  2F0E                     move.l     -[A7], A6
00001510  4EBA FD70                jsr        [PC - 0x290 /* 00001282 */]
00001514  486D 1272                pea.l      [A5 + 0x1272 /* export_586, CODE:11 @ 00001484 */]
00001518  2F0E                     move.l     -[A7], A6
0000151A  4EBA FD66                jsr        [PC - 0x29A /* 00001282 */]
0000151E  486D 127A                pea.l      [A5 + 0x127A /* export_587, CODE:11 @ 00001490 */]
00001522  2F0E                     move.l     -[A7], A6
00001524  4EBA FD5C                jsr        [PC - 0x2A4 /* 00001282 */]
00001528  486D 1282                pea.l      [A5 + 0x1282 /* export_588, CODE:11 @ 000015FA */]
0000152C  2F0E                     move.l     -[A7], A6
0000152E  4EBA FD52                jsr        [PC - 0x2AE /* 00001282 */]
00001532  486D 128A                pea.l      [A5 + 0x128A /* export_589, CODE:11 @ 00001636 */]
00001536  2F0E                     move.l     -[A7], A6
00001538  4EBA FD48                jsr        [PC - 0x2B8 /* 00001282 */]
0000153C  486D 1292                pea.l      [A5 + 0x1292 /* export_590, CODE:11 @ 00001A8A */]
00001540  2F0E                     move.l     -[A7], A6
00001542  4EBA FD3E                jsr        [PC - 0x2C2 /* 00001282 */]
00001546  486D 129A                pea.l      [A5 + 0x129A /* export_591, CODE:11 @ 00001C34 */]
0000154A  2F0E                     move.l     -[A7], A6
0000154C  4EBA FD34                jsr        [PC - 0x2CC /* 00001282 */]
00001550  486D 12A2                pea.l      [A5 + 0x12A2 /* export_592, CODE:11 @ 00001CC2 */]
00001554  2F0E                     move.l     -[A7], A6
00001556  4EBA FD2A                jsr        [PC - 0x2D6 /* 00001282 */]
0000155A  486D 12AA                pea.l      [A5 + 0x12AA /* export_593, CODE:11 @ 00001DE2 */]
0000155E  2F0E                     move.l     -[A7], A6
00001560  4EBA FD20                jsr        [PC - 0x2E0 /* 00001282 */]
00001564  486D 12B2                pea.l      [A5 + 0x12B2 /* export_594, CODE:11 @ 00001E82 */]
00001568  2F0E                     move.l     -[A7], A6
0000156A  4EBA FD16                jsr        [PC - 0x2EA /* 00001282 */]
0000156E  486D 12BA                pea.l      [A5 + 0x12BA /* export_595, CODE:11 @ 00001FCC */]
00001572  2F0E                     move.l     -[A7], A6
00001574  4EBA FD0C                jsr        [PC - 0x2F4 /* 00001282 */]
00001578  486D 12C2                pea.l      [A5 + 0x12C2 /* export_596, CODE:11 @ 00001FD8 */]
0000157C  2F0E                     move.l     -[A7], A6
0000157E  4EBA FD02                jsr        [PC - 0x2FE /* 00001282 */]
00001582  486D 12CA                pea.l      [A5 + 0x12CA /* export_597, CODE:11 @ 00001FE4 */]
00001586  2F0E                     move.l     -[A7], A6
00001588  4EBA FCF8                jsr        [PC - 0x308 /* 00001282 */]
0000158C  3B6E FFFA 9AE2           move.w     [A5 - 0x651E], [A6 - 0x6]
00001592  486D 12D2                pea.l      [A5 + 0x12D2 /* export_598, CODE:11 @ 0000202E */]
00001596  2F0E                     move.l     -[A7], A6
00001598  4EBA FCE8                jsr        [PC - 0x318 /* 00001282 */]
0000159C  486D 12DA                pea.l      [A5 + 0x12DA /* export_599, CODE:11 @ 0000363A */]
000015A0  2F0E                     move.l     -[A7], A6
000015A2  4EBA FCDE                jsr        [PC - 0x322 /* 00001282 */]
000015A6  486D 12E2                pea.l      [A5 + 0x12E2 /* export_600, CODE:11 @ 0000379E */]
000015AA  2F0E                     move.l     -[A7], A6
000015AC  4EBA FCD4                jsr        [PC - 0x32C /* 00001282 */]
000015B0  486D 12EA                pea.l      [A5 + 0x12EA /* export_601, CODE:11 @ 00003B64 */]
000015B4  2F0E                     move.l     -[A7], A6
000015B6  4EBA FCCA                jsr        [PC - 0x336 /* 00001282 */]
000015BA  3B6E FFFA 9ADC           move.w     [A5 - 0x6524], [A6 - 0x6]
000015C0  486D 12F2                pea.l      [A5 + 0x12F2 /* export_602, CODE:11 @ 0000423E */]
000015C4  2F0E                     move.l     -[A7], A6
000015C6  4EBA FCBA                jsr        [PC - 0x346 /* 00001282 */]
000015CA  486D 12FA                pea.l      [A5 + 0x12FA /* export_603, CODE:11 @ 00004292 */]
000015CE  2F0E                     move.l     -[A7], A6
000015D0  4EBA FCB0                jsr        [PC - 0x350 /* 00001282 */]
000015D4  486D 1302                pea.l      [A5 + 0x1302 /* export_604, CODE:11 @ 0000429E */]
000015D8  2F0E                     move.l     -[A7], A6
000015DA  4EBA FCA6                jsr        [PC - 0x35A /* 00001282 */]
000015DE  486D 130A                pea.l      [A5 + 0x130A /* export_605, CODE:11 @ 000042EC */]
000015E2  2F0E                     move.l     -[A7], A6
000015E4  4EBA FC9C                jsr        [PC - 0x364 /* 00001282 */]
000015E8  486D 1312                pea.l      [A5 + 0x1312 /* export_606, CODE:11 @ 00004324 */]
000015EC  2F0E                     move.l     -[A7], A6
000015EE  4EBA FC92                jsr        [PC - 0x36E /* 00001282 */]
000015F2  486D 131A                pea.l      [A5 + 0x131A /* export_607, CODE:11 @ 0000435C */]
000015F6  2F0E                     move.l     -[A7], A6
000015F8  4EBA FC88                jsr        [PC - 0x378 /* 00001282 */]
000015FC  3B6E FFFA 9ADE           move.w     [A5 - 0x6522], [A6 - 0x6]
00001602  486D 1322                pea.l      [A5 + 0x1322 /* export_608, CODE:11 @ 00004414 */]
00001606  2F0E                     move.l     -[A7], A6
00001608  4EBA FC78                jsr        [PC - 0x388 /* 00001282 */]
0000160C  426E FFFC                clr.w      [A6 - 0x4]
00001610  486D 0E92                pea.l      [A5 + 0xE92 /* export_462, CODE:9 @ 00002F36 */]
00001614  4267                     clr.w      -[A7]
00001616  2F0E                     move.l     -[A7], A6
00001618  4EBA FC92                jsr        [PC - 0x36E /* 000012AC */]
0000161C  486D 0E9A                pea.l      [A5 + 0xE9A /* export_463, CODE:9 @ 00002FA0 */]
00001620  1F3C 0001                move.b     -[A7], 0x1
00001624  2F0E                     move.l     -[A7], A6
00001626  4EBA FC84                jsr        [PC - 0x37C /* 000012AC */]
0000162A  486D 0EA2                pea.l      [A5 + 0xEA2 /* export_464, CODE:9 @ 00002FD2 */]
0000162E  4267                     clr.w      -[A7]
00001630  2F0E                     move.l     -[A7], A6
00001632  4EBA FC78                jsr        [PC - 0x388 /* 000012AC */]
00001636  486D 0EAA                pea.l      [A5 + 0xEAA /* export_465, CODE:9 @ 00002FE2 */]
0000163A  1F3C 0001                move.b     -[A7], 0x1
0000163E  2F0E                     move.l     -[A7], A6
00001640  4EBA FC6A                jsr        [PC - 0x396 /* 000012AC */]
00001644  486D 0EB2                pea.l      [A5 + 0xEB2 /* export_466, CODE:9 @ 000030B0 */]
00001648  4267                     clr.w      -[A7]
0000164A  2F0E                     move.l     -[A7], A6
0000164C  4EBA FC5E                jsr        [PC - 0x3A2 /* 000012AC */]
00001650  486D 0EBA                pea.l      [A5 + 0xEBA /* export_467, CODE:9 @ 000030E4 */]
00001654  4267                     clr.w      -[A7]
00001656  2F0E                     move.l     -[A7], A6
00001658  4EBA FC52                jsr        [PC - 0x3AE /* 000012AC */]
0000165C  486D 0EC2                pea.l      [A5 + 0xEC2 /* export_468, CODE:9 @ 0000310A */]
00001660  4267                     clr.w      -[A7]
00001662  2F0E                     move.l     -[A7], A6
00001664  4EBA FC46                jsr        [PC - 0x3BA /* 000012AC */]
00001668  486D 0ECA                pea.l      [A5 + 0xECA /* export_469, CODE:9 @ 00003134 */]
0000166C  4267                     clr.w      -[A7]
0000166E  2F0E                     move.l     -[A7], A6
00001670  4EBA FC3A                jsr        [PC - 0x3C6 /* 000012AC */]
00001674  486D 0ED2                pea.l      [A5 + 0xED2 /* export_470, CODE:9 @ 0000315A */]
00001678  4267                     clr.w      -[A7]
0000167A  2F0E                     move.l     -[A7], A6
0000167C  4EBA FC2E                jsr        [PC - 0x3D2 /* 000012AC */]
00001680  3B6E FFFC 9ADA           move.w     [A5 - 0x6526], [A6 - 0x4]
00001686  486D 0EDA                pea.l      [A5 + 0xEDA /* export_471, CODE:9 @ 0000317E */]
0000168A  1F3C 0001                move.b     -[A7], 0x1
0000168E  2F0E                     move.l     -[A7], A6
00001690  4EBA FC1A                jsr        [PC - 0x3E6 /* 000012AC */]
00001694  486D 0EE2                pea.l      [A5 + 0xEE2 /* export_472, CODE:9 @ 000031B0 */]
00001698  4267                     clr.w      -[A7]
0000169A  2F0E                     move.l     -[A7], A6
0000169C  4EBA FC0E                jsr        [PC - 0x3F2 /* 000012AC */]
000016A0  486D 0EEA                pea.l      [A5 + 0xEEA /* export_473, CODE:9 @ 000031C0 */]
000016A4  4267                     clr.w      -[A7]
000016A6  2F0E                     move.l     -[A7], A6
000016A8  4EBA FC02                jsr        [PC - 0x3FE /* 000012AC */]
000016AC  486D 0EF2                pea.l      [A5 + 0xEF2 /* export_474, CODE:9 @ 0000321A */]
000016B0  4267                     clr.w      -[A7]
000016B2  2F0E                     move.l     -[A7], A6
000016B4  4EBA FBF6                jsr        [PC - 0x40A /* 000012AC */]
000016B8  486D 0EFA                pea.l      [A5 + 0xEFA /* export_475, CODE:9 @ 00003230 */]
000016BC  4267                     clr.w      -[A7]
000016BE  2F0E                     move.l     -[A7], A6
000016C0  4EBA FBEA                jsr        [PC - 0x416 /* 000012AC */]
000016C4  486D 0F02                pea.l      [A5 + 0xF02 /* export_476, CODE:9 @ 00003240 */]
000016C8  4267                     clr.w      -[A7]
000016CA  2F0E                     move.l     -[A7], A6
000016CC  4EBA FBDE                jsr        [PC - 0x422 /* 000012AC */]
000016D0  486D 0F0A                pea.l      [A5 + 0xF0A /* export_477, CODE:9 @ 00003250 */]
000016D4  4267                     clr.w      -[A7]
000016D6  2F0E                     move.l     -[A7], A6
000016D8  4EBA FBD2                jsr        [PC - 0x42E /* 000012AC */]
000016DC  486D 0F12                pea.l      [A5 + 0xF12 /* export_478, CODE:9 @ 00003260 */]
000016E0  4267                     clr.w      -[A7]
000016E2  2F0E                     move.l     -[A7], A6
000016E4  4EBA FBC6                jsr        [PC - 0x43A /* 000012AC */]
000016E8  486D 0F1A                pea.l      [A5 + 0xF1A /* export_479, CODE:9 @ 00003278 */]
000016EC  4267                     clr.w      -[A7]
000016EE  2F0E                     move.l     -[A7], A6
000016F0  4EBA FBBA                jsr        [PC - 0x446 /* 000012AC */]
000016F4  486D 0F22                pea.l      [A5 + 0xF22 /* export_480, CODE:9 @ 00003290 */]
000016F8  4267                     clr.w      -[A7]
000016FA  2F0E                     move.l     -[A7], A6
000016FC  4EBA FBAE                jsr        [PC - 0x452 /* 000012AC */]
00001700  486D 0F2A                pea.l      [A5 + 0xF2A /* export_481, CODE:9 @ 000032A8 */]
00001704  4267                     clr.w      -[A7]
00001706  2F0E                     move.l     -[A7], A6
00001708  4EBA FBA2                jsr        [PC - 0x45E /* 000012AC */]
0000170C  486D 0F32                pea.l      [A5 + 0xF32 /* export_482, CODE:9 @ 000032C8 */]
00001710  4267                     clr.w      -[A7]
00001712  2F0E                     move.l     -[A7], A6
00001714  4EBA FB96                jsr        [PC - 0x46A /* 000012AC */]
00001718  486D 0F3A                pea.l      [A5 + 0xF3A /* export_483, CODE:9 @ 000032DA */]
0000171C  4267                     clr.w      -[A7]
0000171E  2F0E                     move.l     -[A7], A6
00001720  4EBA FB8A                jsr        [PC - 0x476 /* 000012AC */]
00001724  486D 0F42                pea.l      [A5 + 0xF42 /* export_484, CODE:9 @ 0000330C */]
00001728  4267                     clr.w      -[A7]
0000172A  2F0E                     move.l     -[A7], A6
0000172C  4EBA FB7E                jsr        [PC - 0x482 /* 000012AC */]
00001730  486D 0F4A                pea.l      [A5 + 0xF4A /* export_485, CODE:9 @ 0000331C */]
00001734  4267                     clr.w      -[A7]
00001736  2F0E                     move.l     -[A7], A6
00001738  4EBA FB72                jsr        [PC - 0x48E /* 000012AC */]
0000173C  486D 0F52                pea.l      [A5 + 0xF52 /* export_486, CODE:9 @ 0000332C */]
00001740  4267                     clr.w      -[A7]
00001742  2F0E                     move.l     -[A7], A6
00001744  4EBA FB66                jsr        [PC - 0x49A /* 000012AC */]
00001748  486D 0F5A                pea.l      [A5 + 0xF5A /* export_487, CODE:9 @ 0000333C */]
0000174C  1F3C 0001                move.b     -[A7], 0x1
00001750  2F0E                     move.l     -[A7], A6
00001752  4EBA FB58                jsr        [PC - 0x4A8 /* 000012AC */]
00001756  486D 0F62                pea.l      [A5 + 0xF62 /* export_488, CODE:9 @ 000033F0 */]
0000175A  1F3C 0001                move.b     -[A7], 0x1
0000175E  2F0E                     move.l     -[A7], A6
00001760  4EBA FB4A                jsr        [PC - 0x4B6 /* 000012AC */]
00001764  486D 0F6A                pea.l      [A5 + 0xF6A /* export_489, CODE:9 @ 000034A4 */]
00001768  4267                     clr.w      -[A7]
0000176A  2F0E                     move.l     -[A7], A6
0000176C  4EBA FB3E                jsr        [PC - 0x4C2 /* 000012AC */]
00001770  486D 0F72                pea.l      [A5 + 0xF72 /* export_490, CODE:9 @ 000034EA */]
00001774  4267                     clr.w      -[A7]
00001776  2F0E                     move.l     -[A7], A6
00001778  4EBA FB32                jsr        [PC - 0x4CE /* 000012AC */]
0000177C  486D 0F7A                pea.l      [A5 + 0xF7A /* export_491, CODE:9 @ 00003552 */]
00001780  4267                     clr.w      -[A7]
00001782  2F0E                     move.l     -[A7], A6
00001784  4EBA FB26                jsr        [PC - 0x4DA /* 000012AC */]
00001788  486D 0F82                pea.l      [A5 + 0xF82 /* export_492, CODE:9 @ 00003572 */]
0000178C  4267                     clr.w      -[A7]
0000178E  2F0E                     move.l     -[A7], A6
00001790  4EBA FB1A                jsr        [PC - 0x4E6 /* 000012AC */]
00001794  486D 0F8A                pea.l      [A5 + 0xF8A /* export_493, CODE:9 @ 000035C0 */]
00001798  4267                     clr.w      -[A7]
0000179A  2F0E                     move.l     -[A7], A6
0000179C  4EBA FB0E                jsr        [PC - 0x4F2 /* 000012AC */]
000017A0  486D 0F92                pea.l      [A5 + 0xF92 /* export_494, CODE:9 @ 000035E0 */]
000017A4  4267                     clr.w      -[A7]
000017A6  2F0E                     move.l     -[A7], A6
000017A8  4EBA FB02                jsr        [PC - 0x4FE /* 000012AC */]
000017AC  486D 0F9A                pea.l      [A5 + 0xF9A /* export_495, CODE:9 @ 00003826 */]
000017B0  4267                     clr.w      -[A7]
000017B2  2F0E                     move.l     -[A7], A6
000017B4  4EBA FAF6                jsr        [PC - 0x50A /* 000012AC */]
000017B8  486D 0FA2                pea.l      [A5 + 0xFA2 /* export_496, CODE:9 @ 00003848 */]
000017BC  1F3C 0001                move.b     -[A7], 0x1
000017C0  2F0E                     move.l     -[A7], A6
000017C2  4EBA FAE8                jsr        [PC - 0x518 /* 000012AC */]
000017C6  486D 0FAA                pea.l      [A5 + 0xFAA /* export_497, CODE:9 @ 0000389C */]
000017CA  4267                     clr.w      -[A7]
000017CC  2F0E                     move.l     -[A7], A6
000017CE  4EBA FADC                jsr        [PC - 0x524 /* 000012AC */]
000017D2  3B6E FFFC 9AD8           move.w     [A5 - 0x6528], [A6 - 0x4]
000017D8  486D 0FB2                pea.l      [A5 + 0xFB2 /* export_498, CODE:9 @ 000038C0 */]
000017DC  4267                     clr.w      -[A7]
000017DE  2F0E                     move.l     -[A7], A6
000017E0  4EBA FACA                jsr        [PC - 0x536 /* 000012AC */]
000017E4  486D 0FBA                pea.l      [A5 + 0xFBA /* export_499, CODE:9 @ 0000391A */]
000017E8  4267                     clr.w      -[A7]
000017EA  2F0E                     move.l     -[A7], A6
000017EC  4EBA FABE                jsr        [PC - 0x542 /* 000012AC */]
000017F0  486D 0FC2                pea.l      [A5 + 0xFC2 /* export_500, CODE:9 @ 0000395A */]
000017F4  4267                     clr.w      -[A7]
000017F6  2F0E                     move.l     -[A7], A6
000017F8  4EBA FAB2                jsr        [PC - 0x54E /* 000012AC */]
000017FC  486D 0FCA                pea.l      [A5 + 0xFCA /* export_501, CODE:9 @ 00003A50 */]
00001800  4267                     clr.w      -[A7]
00001802  2F0E                     move.l     -[A7], A6
00001804  4EBA FAA6                jsr        [PC - 0x55A /* 000012AC */]
00001808  486D 0FD2                pea.l      [A5 + 0xFD2 /* export_502, CODE:9 @ 00003A92 */]
0000180C  4267                     clr.w      -[A7]
0000180E  2F0E                     move.l     -[A7], A6
00001810  4EBA FA9A                jsr        [PC - 0x566 /* 000012AC */]
00001814  486D 0FDA                pea.l      [A5 + 0xFDA /* export_503, CODE:9 @ 00003AA2 */]
00001818  4267                     clr.w      -[A7]
0000181A  2F0E                     move.l     -[A7], A6
0000181C  4EBA FA8E                jsr        [PC - 0x572 /* 000012AC */]
00001820  486D 0FE2                pea.l      [A5 + 0xFE2 /* export_504, CODE:9 @ 00003AD8 */]
00001824  4267                     clr.w      -[A7]
00001826  2F0E                     move.l     -[A7], A6
00001828  4EBA FA82                jsr        [PC - 0x57E /* 000012AC */]
0000182C  486D 0FEA                pea.l      [A5 + 0xFEA /* export_505, CODE:9 @ 00003B42 */]
00001830  4267                     clr.w      -[A7]
00001832  2F0E                     move.l     -[A7], A6
00001834  4EBA FA76                jsr        [PC - 0x58A /* 000012AC */]
00001838  486D 0FF2                pea.l      [A5 + 0xFF2 /* export_506, CODE:9 @ 00003B70 */]
0000183C  4267                     clr.w      -[A7]
0000183E  2F0E                     move.l     -[A7], A6
00001840  4EBA FA6A                jsr        [PC - 0x596 /* 000012AC */]
00001844  486D 0FFA                pea.l      [A5 + 0xFFA /* export_507, CODE:9 @ 00003B88 */]
00001848  4267                     clr.w      -[A7]
0000184A  2F0E                     move.l     -[A7], A6
0000184C  4EBA FA5E                jsr        [PC - 0x5A2 /* 000012AC */]
00001850  486D 1002                pea.l      [A5 + 0x1002 /* export_508, CODE:9 @ 00003BA0 */]
00001854  4267                     clr.w      -[A7]
00001856  2F0E                     move.l     -[A7], A6
00001858  4EBA FA52                jsr        [PC - 0x5AE /* 000012AC */]
0000185C  486D 100A                pea.l      [A5 + 0x100A /* export_509, CODE:9 @ 00003BB8 */]
00001860  4267                     clr.w      -[A7]
00001862  2F0E                     move.l     -[A7], A6
00001864  4EBA FA46                jsr        [PC - 0x5BA /* 000012AC */]
00001868  486D 1012                pea.l      [A5 + 0x1012 /* export_510, CODE:9 @ 00003BD8 */]
0000186C  4267                     clr.w      -[A7]
0000186E  2F0E                     move.l     -[A7], A6
00001870  4EBA FA3A                jsr        [PC - 0x5C6 /* 000012AC */]
00001874  3B6E FFFC 9AD6           move.w     [A5 - 0x652A], [A6 - 0x4]
0000187A  486D 101A                pea.l      [A5 + 0x101A /* export_511, CODE:9 @ 00003BFC */]
0000187E  4267                     clr.w      -[A7]
00001880  2F0E                     move.l     -[A7], A6
00001882  4EBA FA28                jsr        [PC - 0x5D8 /* 000012AC */]
00001886  486D 1022                pea.l      [A5 + 0x1022 /* export_512, CODE:9 @ 00003C0C */]
0000188A  4267                     clr.w      -[A7]
0000188C  2F0E                     move.l     -[A7], A6
0000188E  4EBA FA1C                jsr        [PC - 0x5E4 /* 000012AC */]
00001892  486D 102A                pea.l      [A5 + 0x102A /* export_513, CODE:9 @ 00003C5E */]
00001896  4267                     clr.w      -[A7]
00001898  2F0E                     move.l     -[A7], A6
0000189A  4EBA FA10                jsr        [PC - 0x5F0 /* 000012AC */]
0000189E  486D 1032                pea.l      [A5 + 0x1032 /* export_514, CODE:9 @ 00003C8E */]
000018A2  4267                     clr.w      -[A7]
000018A4  2F0E                     move.l     -[A7], A6
000018A6  4EBA FA04                jsr        [PC - 0x5FC /* 000012AC */]
000018AA  486D 103A                pea.l      [A5 + 0x103A /* export_515, CODE:9 @ 00003CA0 */]
000018AE  4267                     clr.w      -[A7]
000018B0  2F0E                     move.l     -[A7], A6
000018B2  4EBA F9F8                jsr        [PC - 0x608 /* 000012AC */]
000018B6  486D 1042                pea.l      [A5 + 0x1042 /* export_516, CODE:9 @ 00003CB0 */]
000018BA  4267                     clr.w      -[A7]
000018BC  2F0E                     move.l     -[A7], A6
000018BE  4EBA F9EC                jsr        [PC - 0x614 /* 000012AC */]
000018C2  486D 104A                pea.l      [A5 + 0x104A /* export_517, CODE:9 @ 00003CC2 */]
000018C6  4267                     clr.w      -[A7]
000018C8  2F0E                     move.l     -[A7], A6
000018CA  4EBA F9E0                jsr        [PC - 0x620 /* 000012AC */]
000018CE  486D 1052                pea.l      [A5 + 0x1052 /* export_518, CODE:9 @ 00003CD2 */]
000018D2  4267                     clr.w      -[A7]
000018D4  2F0E                     move.l     -[A7], A6
000018D6  4EBA F9D4                jsr        [PC - 0x62C /* 000012AC */]
000018DA  486D 105A                pea.l      [A5 + 0x105A /* export_519, CODE:9 @ 00003D18 */]
000018DE  4267                     clr.w      -[A7]
000018E0  2F0E                     move.l     -[A7], A6
000018E2  4EBA F9C8                jsr        [PC - 0x638 /* 000012AC */]
000018E6  486D 1062                pea.l      [A5 + 0x1062 /* export_520, CODE:9 @ 00003D62 */]
000018EA  4267                     clr.w      -[A7]
000018EC  2F0E                     move.l     -[A7], A6
000018EE  4EBA F9BC                jsr        [PC - 0x644 /* 000012AC */]
000018F2  486D 106A                pea.l      [A5 + 0x106A /* export_521, CODE:9 @ 00003D9A */]
000018F6  4267                     clr.w      -[A7]
000018F8  2F0E                     move.l     -[A7], A6
000018FA  4EBA F9B0                jsr        [PC - 0x650 /* 000012AC */]
000018FE  426E FFFE                clr.w      [A6 - 0x2]
00001902  42A7                     clr.l      -[A7]
00001904  486D 0D5A                pea.l      [A5 + 0xD5A /* export_423, CODE:9 @ 0000078A */]
00001908  2F0E                     move.l     -[A7], A6
0000190A  4EBA F9FC                jsr        [PC - 0x604 /* 00001308 */]
0000190E  42A7                     clr.l      -[A7]
00001910  486D 0D62                pea.l      [A5 + 0xD62 /* export_424, CODE:9 @ 0000079E */]
00001914  2F0E                     move.l     -[A7], A6
00001916  4EBA F9F0                jsr        [PC - 0x610 /* 00001308 */]
0000191A  42A7                     clr.l      -[A7]
0000191C  486D 0DC2                pea.l      [A5 + 0xDC2 /* export_436, CODE:9 @ 00000A42 */]
00001920  2F0E                     move.l     -[A7], A6
00001922  4EBA F9E4                jsr        [PC - 0x61C /* 00001308 */]
00001926  42A7                     clr.l      -[A7]
00001928  486D 0DD2                pea.l      [A5 + 0xDD2 /* export_438, CODE:9 @ 00000A8C */]
0000192C  2F0E                     move.l     -[A7], A6
0000192E  4EBA F9D8                jsr        [PC - 0x628 /* 00001308 */]
00001932  42A7                     clr.l      -[A7]
00001934  486D 0D6A                pea.l      [A5 + 0xD6A /* export_425, CODE:9 @ 000007BE */]
00001938  2F0E                     move.l     -[A7], A6
0000193A  4EBA F9CC                jsr        [PC - 0x634 /* 00001308 */]
0000193E  42A7                     clr.l      -[A7]
00001940  486D 0D72                pea.l      [A5 + 0xD72 /* export_426, CODE:9 @ 000007D0 */]
00001944  2F0E                     move.l     -[A7], A6
00001946  4EBA F9C0                jsr        [PC - 0x640 /* 00001308 */]
0000194A  42A7                     clr.l      -[A7]
0000194C  486D 0D7A                pea.l      [A5 + 0xD7A /* export_427, CODE:9 @ 00000812 */]
00001950  2F0E                     move.l     -[A7], A6
00001952  4EBA F9B4                jsr        [PC - 0x64C /* 00001308 */]
00001956  42A7                     clr.l      -[A7]
00001958  486D 0D82                pea.l      [A5 + 0xD82 /* export_428, CODE:9 @ 00000850 */]
0000195C  2F0E                     move.l     -[A7], A6
0000195E  4EBA F9A8                jsr        [PC - 0x658 /* 00001308 */]
00001962  42A7                     clr.l      -[A7]
00001964  486D 0D8A                pea.l      [A5 + 0xD8A /* export_429, CODE:9 @ 00000866 */]
00001968  2F0E                     move.l     -[A7], A6
0000196A  4EBA F99C                jsr        [PC - 0x664 /* 00001308 */]
0000196E  42A7                     clr.l      -[A7]
00001970  486D 0DA2                pea.l      [A5 + 0xDA2 /* export_432, CODE:9 @ 0000090A */]
00001974  2F0E                     move.l     -[A7], A6
00001976  4EBA F990                jsr        [PC - 0x670 /* 00001308 */]
0000197A  42A7                     clr.l      -[A7]
0000197C  486D 115A                pea.l      [A5 + 0x115A /* export_551, CODE:10 @ 00000B0C */]
00001980  2F0E                     move.l     -[A7], A6
00001982  4EBA F984                jsr        [PC - 0x67C /* 00001308 */]
00001986  42A7                     clr.l      -[A7]
00001988  486D 0DEA                pea.l      [A5 + 0xDEA /* export_441, CODE:9 @ 00000B70 */]
0000198C  2F0E                     move.l     -[A7], A6
0000198E  4EBA F978                jsr        [PC - 0x688 /* 00001308 */]
00001992  42A7                     clr.l      -[A7]
00001994  486D 0DB2                pea.l      [A5 + 0xDB2 /* export_434, CODE:9 @ 0000094E */]
00001998  2F0E                     move.l     -[A7], A6
0000199A  4EBA F96C                jsr        [PC - 0x694 /* 00001308 */]
0000199E  42A7                     clr.l      -[A7]
000019A0  486D 0DAA                pea.l      [A5 + 0xDAA /* export_433, CODE:9 @ 00000920 */]
000019A4  2F0E                     move.l     -[A7], A6
000019A6  4EBA F960                jsr        [PC - 0x6A0 /* 00001308 */]
000019AA  42A7                     clr.l      -[A7]
000019AC  486D 0CF2                pea.l      [A5 + 0xCF2 /* export_410, CODE:9 @ 0000002C */]
000019B0  2F0E                     move.l     -[A7], A6
000019B2  4EBA F954                jsr        [PC - 0x6AC /* 00001308 */]
000019B6  42A7                     clr.l      -[A7]
000019B8  486D 0CEA                pea.l      [A5 + 0xCEA /* export_409, CODE:9 @ 00000000 */]
000019BC  2F0E                     move.l     -[A7], A6
000019BE  4EBA F948                jsr        [PC - 0x6B8 /* 00001308 */]
000019C2  42A7                     clr.l      -[A7]
000019C4  486D 0E7A                pea.l      [A5 + 0xE7A /* export_459, CODE:9 @ 0000164C */]
000019C8  2F0E                     move.l     -[A7], A6
000019CA  4EBA F93C                jsr        [PC - 0x6C4 /* 00001308 */]
// begin alternate branch 000019CC-000019CE
label000019CC:
000019CC  F93C                     .extension 0x93C <<F/4-5/4>> // unimplemented
// end alternate branch 000019CC-000019CE
label000019CC: // (misaligned)
000019CE  42A7                     clr.l      -[A7]
000019D0  486D 0DE2                pea.l      [A5 + 0xDE2 /* export_440, CODE:9 @ 00000B04 */]
000019D4  2F0E                     move.l     -[A7], A6
000019D6  4EBA F930                jsr        [PC - 0x6D0 /* 00001308 */]
000019DA  42A7                     clr.l      -[A7]
000019DC  486D 0CFA                pea.l      [A5 + 0xCFA /* export_411, CODE:9 @ 0000008E */]
000019E0  2F0E                     move.l     -[A7], A6
000019E2  4EBA F924                jsr        [PC - 0x6DC /* 00001308 */]
000019E6  42A7                     clr.l      -[A7]
000019E8  486D 115A                pea.l      [A5 + 0x115A /* export_551, CODE:10 @ 00000B0C */]
000019EC  2F0E                     move.l     -[A7], A6
000019EE  4EBA F918                jsr        [PC - 0x6E8 /* 00001308 */]
000019F2  42A7                     clr.l      -[A7]
000019F4  486D 116A                pea.l      [A5 + 0x116A /* export_553, CODE:10 @ 00000D80 */]
000019F8  2F0E                     move.l     -[A7], A6
000019FA  4EBA F90C                jsr        [PC - 0x6F4 /* 00001308 */]
000019FE  42A7                     clr.l      -[A7]
00001A00  486D 116A                pea.l      [A5 + 0x116A /* export_553, CODE:10 @ 00000D80 */]
00001A04  2F0E                     move.l     -[A7], A6
00001A06  4EBA F900                jsr        [PC - 0x700 /* 00001308 */]
00001A0A  42A7                     clr.l      -[A7]
00001A0C  486D 116A                pea.l      [A5 + 0x116A /* export_553, CODE:10 @ 00000D80 */]
00001A10  2F0E                     move.l     -[A7], A6
00001A12  4EBA F8F4                jsr        [PC - 0x70C /* 00001308 */]
00001A16  42A7                     clr.l      -[A7]
00001A18  486D 117A                pea.l      [A5 + 0x117A /* export_555, CODE:10 @ 00000FAE */]
00001A1C  2F0E                     move.l     -[A7], A6
00001A1E  4EBA F8E8                jsr        [PC - 0x718 /* 00001308 */]
00001A22  42A7                     clr.l      -[A7]
00001A24  486D 118A                pea.l      [A5 + 0x118A /* export_557, CODE:10 @ 000011D6 */]
00001A28  2F0E                     move.l     -[A7], A6
00001A2A  4EBA F8DC                jsr        [PC - 0x724 /* 00001308 */]
00001A2E  42A7                     clr.l      -[A7]
00001A30  486D 118A                pea.l      [A5 + 0x118A /* export_557, CODE:10 @ 000011D6 */]
00001A34  2F0E                     move.l     -[A7], A6
00001A36  4EBA F8D0                jsr        [PC - 0x730 /* 00001308 */]
00001A3A  42A7                     clr.l      -[A7]
00001A3C  486D 118A                pea.l      [A5 + 0x118A /* export_557, CODE:10 @ 000011D6 */]
00001A40  2F0E                     move.l     -[A7], A6
00001A42  4EBA F8C4                jsr        [PC - 0x73C /* 00001308 */]
00001A46  42A7                     clr.l      -[A7]
00001A48  486D 1172                pea.l      [A5 + 0x1172 /* export_554, CODE:10 @ 00000DDE */]
00001A4C  2F0E                     move.l     -[A7], A6
00001A4E  4EBA F8B8                jsr        [PC - 0x748 /* 00001308 */]
00001A52  42A7                     clr.l      -[A7]
00001A54  486D 1172                pea.l      [A5 + 0x1172 /* export_554, CODE:10 @ 00000DDE */]
00001A58  2F0E                     move.l     -[A7], A6
00001A5A  4EBA F8AC                jsr        [PC - 0x754 /* 00001308 */]
00001A5E  42A7                     clr.l      -[A7]
00001A60  486D 1182                pea.l      [A5 + 0x1182 /* export_556, CODE:10 @ 0000101A */]
00001A64  2F0E                     move.l     -[A7], A6
00001A66  4EBA F8A0                jsr        [PC - 0x760 /* 00001308 */]
00001A6A  42A7                     clr.l      -[A7]
00001A6C  486D 1182                pea.l      [A5 + 0x1182 /* export_556, CODE:10 @ 0000101A */]
00001A70  2F0E                     move.l     -[A7], A6
00001A72  4EBA F894                jsr        [PC - 0x76C /* 00001308 */]
00001A76  42A7                     clr.l      -[A7]
00001A78  486D 0E1A                pea.l      [A5 + 0xE1A /* export_447, CODE:9 @ 00000F3E */]
00001A7C  2F0E                     move.l     -[A7], A6
00001A7E  4EBA F888                jsr        [PC - 0x778 /* 00001308 */]
00001A82  42A7                     clr.l      -[A7]
00001A84  486D 0E22                pea.l      [A5 + 0xE22 /* export_448, CODE:9 @ 00000F72 */]
00001A88  2F0E                     move.l     -[A7], A6
00001A8A  4EBA F87C                jsr        [PC - 0x784 /* 00001308 */]
00001A8E  42A7                     clr.l      -[A7]
00001A90  486D 0E2A                pea.l      [A5 + 0xE2A /* export_449, CODE:9 @ 00000F8A */]
00001A94  2F0E                     move.l     -[A7], A6
00001A96  4EBA F870                jsr        [PC - 0x790 /* 00001308 */]
00001A9A  42A7                     clr.l      -[A7]
00001A9C  486D 0E12                pea.l      [A5 + 0xE12 /* export_446, CODE:9 @ 00000F12 */]
00001AA0  2F0E                     move.l     -[A7], A6
00001AA2  4EBA F864                jsr        [PC - 0x79C /* 00001308 */]
00001AA6  42A7                     clr.l      -[A7]
00001AA8  486D 0D9A                pea.l      [A5 + 0xD9A /* export_431, CODE:9 @ 000008BE */]
00001AAC  2F0E                     move.l     -[A7], A6
00001AAE  4EBA F858                jsr        [PC - 0x7A8 /* 00001308 */]
00001AB2  42A7                     clr.l      -[A7]
00001AB4  42A7                     clr.l      -[A7]
00001AB6  2F0E                     move.l     -[A7], A6
00001AB8  4EBA F84E                jsr        [PC - 0x7B2 /* 00001308 */]
00001ABC  42A7                     clr.l      -[A7]
00001ABE  486D 0C8A                pea.l      [A5 + 0xC8A /* export_397, CODE:8 @ 00004DA2 */]
00001AC2  2F0E                     move.l     -[A7], A6
00001AC4  4EBA F842                jsr        [PC - 0x7BE /* 00001308 */]
00001AC8  42A7                     clr.l      -[A7]
00001ACA  486D 0E02                pea.l      [A5 + 0xE02 /* export_444, CODE:9 @ 00000E2E */]
00001ACE  2F0E                     move.l     -[A7], A6
00001AD0  4EBA F836                jsr        [PC - 0x7CA /* 00001308 */]
00001AD4  42A7                     clr.l      -[A7]
00001AD6  486D 0DFA                pea.l      [A5 + 0xDFA /* export_443, CODE:9 @ 00000DAC */]
00001ADA  2F0E                     move.l     -[A7], A6
00001ADC  4EBA F82A                jsr        [PC - 0x7D6 /* 00001308 */]
00001AE0  42A7                     clr.l      -[A7]
00001AE2  42A7                     clr.l      -[A7]
00001AE4  2F0E                     move.l     -[A7], A6
00001AE6  4EBA F820                jsr        [PC - 0x7E0 /* 00001308 */]
00001AEA  42A7                     clr.l      -[A7]
00001AEC  42A7                     clr.l      -[A7]
00001AEE  2F0E                     move.l     -[A7], A6
00001AF0  4EBA F816                jsr        [PC - 0x7EA /* 00001308 */]
00001AF4  42A7                     clr.l      -[A7]
00001AF6  42A7                     clr.l      -[A7]
00001AF8  2F0E                     move.l     -[A7], A6
00001AFA  4EBA F80C                jsr        [PC - 0x7F4 /* 00001308 */]
00001AFE  42A7                     clr.l      -[A7]
00001B00  42A7                     clr.l      -[A7]
00001B02  2F0E                     move.l     -[A7], A6
00001B04  4EBA F802                jsr        [PC - 0x7FE /* 00001308 */]
00001B08  42A7                     clr.l      -[A7]
00001B0A  486D 0E82                pea.l      [A5 + 0xE82 /* export_460, CODE:9 @ 00001718 */]
00001B0E  2F0E                     move.l     -[A7], A6
00001B10  4EBA F7F6                jsr        [PC - 0x80A /* 00001308 */]
00001B14  42A7                     clr.l      -[A7]
00001B16  42A7                     clr.l      -[A7]
00001B18  2F0E                     move.l     -[A7], A6
00001B1A  4EBA F7EC                jsr        [PC - 0x814 /* 00001308 */]
00001B1E  42A7                     clr.l      -[A7]
00001B20  486D 0D02                pea.l      [A5 + 0xD02 /* export_412, CODE:9 @ 000000C6 */]
00001B24  2F0E                     move.l     -[A7], A6
00001B26  4EBA F7E0                jsr        [PC - 0x820 /* 00001308 */]
00001B2A  42A7                     clr.l      -[A7]
00001B2C  486D 0D12                pea.l      [A5 + 0xD12 /* export_414, CODE:9 @ 0000017C */]
00001B30  2F0E                     move.l     -[A7], A6
00001B32  4EBA F7D4                jsr        [PC - 0x82C /* 00001308 */]
00001B36  42A7                     clr.l      -[A7]
00001B38  486D 0D1A                pea.l      [A5 + 0xD1A /* export_415, CODE:9 @ 00000274 */]
00001B3C  2F0E                     move.l     -[A7], A6
00001B3E  4EBA F7C8                jsr        [PC - 0x838 /* 00001308 */]
00001B42  42A7                     clr.l      -[A7]
00001B44  486D 0E52                pea.l      [A5 + 0xE52 /* export_454, CODE:9 @ 00001208 */]
00001B48  2F0E                     move.l     -[A7], A6
00001B4A  4EBA F7BC                jsr        [PC - 0x844 /* 00001308 */]
00001B4E  42A7                     clr.l      -[A7]
00001B50  486D 0D42                pea.l      [A5 + 0xD42 /* export_420, CODE:9 @ 00000648 */]
00001B54  2F0E                     move.l     -[A7], A6
00001B56  4EBA F7B0                jsr        [PC - 0x850 /* 00001308 */]
00001B5A  42A7                     clr.l      -[A7]
00001B5C  486D 0DF2                pea.l      [A5 + 0xDF2 /* export_442, CODE:9 @ 00000C1C */]
00001B60  2F0E                     move.l     -[A7], A6
00001B62  4EBA F7A4                jsr        [PC - 0x85C /* 00001308 */]
00001B66  42A7                     clr.l      -[A7]
00001B68  486D 0D92                pea.l      [A5 + 0xD92 /* export_430, CODE:9 @ 00000898 */]
00001B6C  2F0E                     move.l     -[A7], A6
00001B6E  4EBA F798                jsr        [PC - 0x868 /* 00001308 */]
00001B72  42A7                     clr.l      -[A7]
00001B74  486D 0D0A                pea.l      [A5 + 0xD0A /* export_413, CODE:9 @ 00000156 */]
00001B78  2F0E                     move.l     -[A7], A6
00001B7A  4EBA F78C                jsr        [PC - 0x874 /* 00001308 */]
00001B7E  42A7                     clr.l      -[A7]
00001B80  486D 0E62                pea.l      [A5 + 0xE62 /* export_456, CODE:9 @ 00001322 */]
00001B84  2F0E                     move.l     -[A7], A6
00001B86  4EBA F780                jsr        [PC - 0x880 /* 00001308 */]
00001B8A  42A7                     clr.l      -[A7]
00001B8C  486D 0D22                pea.l      [A5 + 0xD22 /* export_416, CODE:9 @ 0000032C */]
00001B90  2F0E                     move.l     -[A7], A6
00001B92  4EBA F774                jsr        [PC - 0x88C /* 00001308 */]
00001B96  42A7                     clr.l      -[A7]
00001B98  486D 0E42                pea.l      [A5 + 0xE42 /* export_452, CODE:9 @ 000010F8 */]
00001B9C  2F0E                     move.l     -[A7], A6
00001B9E  4EBA F768                jsr        [PC - 0x898 /* 00001308 */]
00001BA2  42A7                     clr.l      -[A7]
00001BA4  486D 0D4A                pea.l      [A5 + 0xD4A /* export_421, CODE:9 @ 000006FC */]
00001BA8  2F0E                     move.l     -[A7], A6
00001BAA  4EBA F75C                jsr        [PC - 0x8A4 /* 00001308 */]
00001BAE  42A7                     clr.l      -[A7]
00001BB0  42A7                     clr.l      -[A7]
00001BB2  2F0E                     move.l     -[A7], A6
00001BB4  4EBA F752                jsr        [PC - 0x8AE /* 00001308 */]
00001BB8  42A7                     clr.l      -[A7]
00001BBA  42A7                     clr.l      -[A7]
00001BBC  2F0E                     move.l     -[A7], A6
00001BBE  4EBA F748                jsr        [PC - 0x8B8 /* 00001308 */]
00001BC2  42A7                     clr.l      -[A7]
00001BC4  42A7                     clr.l      -[A7]
00001BC6  2F0E                     move.l     -[A7], A6
00001BC8  4EBA F73E                jsr        [PC - 0x8C2 /* 00001308 */]
00001BCC  42A7                     clr.l      -[A7]
00001BCE  486D 0D52                pea.l      [A5 + 0xD52 /* export_422, CODE:9 @ 00000752 */]
00001BD2  2F0E                     move.l     -[A7], A6
00001BD4  4EBA F732                jsr        [PC - 0x8CE /* 00001308 */]
00001BD8  42A7                     clr.l      -[A7]
00001BDA  486D 0E6A                pea.l      [A5 + 0xE6A /* export_457, CODE:9 @ 000014F8 */]
00001BDE  2F0E                     move.l     -[A7], A6
00001BE0  4EBA F726                jsr        [PC - 0x8DA /* 00001308 */]
00001BE4  42A7                     clr.l      -[A7]
00001BE6  486D 0E0A                pea.l      [A5 + 0xE0A /* export_445, CODE:9 @ 00000EDC */]
00001BEA  2F0E                     move.l     -[A7], A6
00001BEC  4EBA F71A                jsr        [PC - 0x8E6 /* 00001308 */]
00001BF0  42A7                     clr.l      -[A7]
00001BF2  486D 0E32                pea.l      [A5 + 0xE32 /* export_450, CODE:9 @ 0000107E */]
00001BF6  2F0E                     move.l     -[A7], A6
00001BF8  4EBA F70E                jsr        [PC - 0x8F2 /* 00001308 */]
00001BFC  42A7                     clr.l      -[A7]
00001BFE  486D 0E3A                pea.l      [A5 + 0xE3A /* export_451, CODE:9 @ 000010CC */]
00001C02  2F0E                     move.l     -[A7], A6
00001C04  4EBA F702                jsr        [PC - 0x8FE /* 00001308 */]
00001C08  42A7                     clr.l      -[A7]
00001C0A  486D 0D32                pea.l      [A5 + 0xD32 /* export_418, CODE:9 @ 000005A4 */]
00001C0E  2F0E                     move.l     -[A7], A6
00001C10  4EBA F6F6                jsr        [PC - 0x90A /* 00001308 */]
00001C14  42A7                     clr.l      -[A7]
00001C16  486D 0D3A                pea.l      [A5 + 0xD3A /* export_419, CODE:9 @ 0000061C */]
00001C1A  2F0E                     move.l     -[A7], A6
00001C1C  4EBA F6EA                jsr        [PC - 0x916 /* 00001308 */]
00001C20  42A7                     clr.l      -[A7]
00001C22  486D 0DDA                pea.l      [A5 + 0xDDA /* export_439, CODE:9 @ 00000AD8 */]
00001C26  2F0E                     move.l     -[A7], A6
00001C28  4EBA F6DE                jsr        [PC - 0x922 /* 00001308 */]
00001C2C  42A7                     clr.l      -[A7]
00001C2E  486D 0D2A                pea.l      [A5 + 0xD2A /* export_417, CODE:9 @ 000004DC */]
00001C32  2F0E                     move.l     -[A7], A6
00001C34  4EBA F6D2                jsr        [PC - 0x92E /* 00001308 */]
00001C38  42A7                     clr.l      -[A7]
00001C3A  486D 0E72                pea.l      [A5 + 0xE72 /* export_458, CODE:9 @ 00001550 */]
00001C3E  2F0E                     move.l     -[A7], A6
00001C40  4EBA F6C6                jsr        [PC - 0x93A /* 00001308 */]
00001C44  42A7                     clr.l      -[A7]
00001C46  486D 0E5A                pea.l      [A5 + 0xE5A /* export_455, CODE:9 @ 0000122C */]
00001C4A  2F0E                     move.l     -[A7], A6
00001C4C  4EBA F6BA                jsr        [PC - 0x946 /* 00001308 */]
00001C50  42A7                     clr.l      -[A7]
00001C52  486D 0DBA                pea.l      [A5 + 0xDBA /* export_435, CODE:9 @ 000009BA */]
00001C56  2F0E                     move.l     -[A7], A6
00001C58  4EBA F6AE                jsr        [PC - 0x952 /* 00001308 */]
00001C5C  42A7                     clr.l      -[A7]
00001C5E  486D 0E4A                pea.l      [A5 + 0xE4A /* export_453, CODE:9 @ 00001176 */]
00001C62  2F0E                     move.l     -[A7], A6
00001C64  4EBA F6A2                jsr        [PC - 0x95E /* 00001308 */]
00001C68  42A7                     clr.l      -[A7]
00001C6A  486D 0DCA                pea.l      [A5 + 0xDCA /* export_437, CODE:9 @ 00000A60 */]
00001C6E  2F0E                     move.l     -[A7], A6
00001C70  4EBA F696                jsr        [PC - 0x96A /* 00001308 */]
00001C74  4E5E                     unlink     A6
00001C76  2E9F                     move.l     [A7], [A7]+
00001C78  4E75                     rts
fn00001C7A:
00001C7A  4E56 FFE0                link       A6, -0x0020
00001C7E  206E 000C                movea.l    A0, [A6 + 0xC]
00001C82  43EE FFE0                lea.l      A1, [A6 - 0x20]
00001C86  7007                     moveq.l    D0, 0x07
label00001C88:
00001C88  22D8                     move.l     [A1]+, [A0]+
00001C8A  51C8 FFFC                dbf        D0, -0x6 /* 00001C88 */
00001C8E  206E 0008                movea.l    A0, [A6 + 0x8]
00001C92  5268 FFBE                addq.w     [A0 - 0x42], 1
00001C96  206E 0008                movea.l    A0, [A6 + 0x8]
00001C9A  3028 FFBE                move.w     D0, [A0 - 0x42]
00001C9E  5340                     subq.w     D0, 1
00001CA0  41ED D188                lea.l      A0, [A5 - 0x2E78]
00001CA4  EB40                     asl        D0.w, 5
00001CA6  41F0 0000                lea.l      A0, [A0 + D0.w]
00001CAA  43EE FFE0                lea.l      A1, [A6 - 0x20]
00001CAE  7007                     moveq.l    D0, 0x07
label00001CB0:
00001CB0  20D9                     move.l     [A0]+, [A1]+
00001CB2  51C8 FFFC                dbf        D0, -0x6 /* 00001CB0 */
00001CB6  4E5E                     unlink     A6
00001CB8  205F                     movea.l    A0, [A7]+
00001CBA  504F                     addq.w     A7, 8
00001CBC  4ED0                     jmp        [A0]
fn00001CBE:
00001CBE  4E56 FFBE                link       A6, -0x0042
00001CC2  1D7C 0001 FFE0           move.b     [A6 - 0x20], 0x1
00001CC8  1D7C 0022 FFE1           move.b     [A6 - 0x1F], 0x22 /* '\"' */
00001CCE  1D7C 0001 FFC0           move.b     [A6 - 0x40], 0x1
00001CD4  1D7C 0009 FFC1           move.b     [A6 - 0x3F], 0x9 /* '\t' */
00001CDA  426E FFBE                clr.w      [A6 - 0x42]
00001CDE  486D A496                pea.l      [A5 - 0x5B6A]
00001CE2  2F0E                     move.l     -[A7], A6
00001CE4  4EBA FF94                jsr        [PC - 0x6C /* 00001C7A */]
00001CE8  487A 0120                pea.l      [PC + 0x120 /* 00001E0A, value 0x4E56 'NV', cstring "" */]
00001CEC  2F0E                     move.l     -[A7], A6
00001CEE  4EBA FF8A                jsr        [PC - 0x76 /* 00001C7A */]
00001CF2  486D A456                pea.l      [A5 - 0x5BAA]
00001CF6  2F0E                     move.l     -[A7], A6
00001CF8  4EBA FF80                jsr        [PC - 0x80 /* 00001C7A */]
00001CFC  1B7C 0001 A4F8           move.b     [A5 - 0x5B08], 0x1
00001D02  1B7C 000C A4F9           move.b     [A5 - 0x5B07], 0xC
00001D08  486D A4F8                pea.l      [A5 - 0x5B08]
00001D0C  2F0E                     move.l     -[A7], A6
00001D0E  4EBA FF6A                jsr        [PC - 0x96 /* 00001C7A */]
00001D12  1B7C 0001 A4F8           move.b     [A5 - 0x5B08], 0x1
00001D18  1B7C 000A A4F9           move.b     [A5 - 0x5B07], 0xA /* '\n' */
00001D1E  486D A4F8                pea.l      [A5 - 0x5B08]
00001D22  2F0E                     move.l     -[A7], A6
00001D24  4EBA FF54                jsr        [PC - 0xAC /* 00001C7A */]
00001D28  487A 00C8                pea.l      [PC + 0xC8 /* 00001DF2, value 0x16332E31, pstring "3.14159265358979323846" */]
00001D2C  2F0E                     move.l     -[A7], A6
00001D2E  4EBA FF4A                jsr        [PC - 0xB6 /* 00001C7A */]
00001D32  486E FFE0                pea.l      [A6 - 0x20]
00001D36  2F0E                     move.l     -[A7], A6
00001D38  4EBA FF40                jsr        [PC - 0xC0 /* 00001C7A */]
00001D3C  487A 00B2                pea.l      [PC + 0xB2 /* 00001DF0, value 0x1201633 */]
00001D40  2F0E                     move.l     -[A7], A6
00001D42  4EBA FF36                jsr        [PC - 0xCA /* 00001C7A */]
00001D46  486E FFC0                pea.l      [A6 - 0x40]
00001D4A  2F0E                     move.l     -[A7], A6
00001D4C  4EBA FF2C                jsr        [PC - 0xD4 /* 00001C7A */]
00001D50  486D A436                pea.l      [A5 - 0x5BCA]
00001D54  2F0E                     move.l     -[A7], A6
00001D56  4EBA FF22                jsr        [PC - 0xDE /* 00001C7A */]
00001D5A  486D A476                pea.l      [A5 - 0x5B8A]
00001D5E  2F0E                     move.l     -[A7], A6
00001D60  4EBA FF18                jsr        [PC - 0xE8 /* 00001C7A */]
00001D64  487A 0088                pea.l      [PC + 0x88 /* 00001DEE, value 0x1300120 */]
00001D68  2F0E                     move.l     -[A7], A6
00001D6A  4EBA FF0E                jsr        [PC - 0xF2 /* 00001C7A */]
00001D6E  487A 007C                pea.l      [PC + 0x7C /* 00001DEC, value 0x1310130 */]
00001D72  2F0E                     move.l     -[A7], A6
00001D74  4EBA FF04                jsr        [PC - 0xFC /* 00001C7A */]
00001D78  487A 0070                pea.l      [PC + 0x70 /* 00001DEA, value 0x1320131 */]
00001D7C  2F0E                     move.l     -[A7], A6
00001D7E  4EBA FEFA                jsr        [PC - 0x106 /* 00001C7A */]
00001D82  487A 0064                pea.l      [PC + 0x64 /* 00001DE8, value 0x1330132 */]
00001D86  2F0E                     move.l     -[A7], A6
00001D88  4EBA FEF0                jsr        [PC - 0x110 /* 00001C7A */]
00001D8C  487A 0058                pea.l      [PC + 0x58 /* 00001DE6, value 0x1340133 */]
00001D90  2F0E                     move.l     -[A7], A6
00001D92  4EBA FEE6                jsr        [PC - 0x11A /* 00001C7A */]
00001D96  487A 004C                pea.l      [PC + 0x4C /* 00001DE4, value 0x1350134 */]
00001D9A  2F0E                     move.l     -[A7], A6
00001D9C  4EBA FEDC                jsr        [PC - 0x124 /* 00001C7A */]
00001DA0  487A 0040                pea.l      [PC + 0x40 /* 00001DE2, value 0x1360135 */]
00001DA4  2F0E                     move.l     -[A7], A6
00001DA6  4EBA FED2                jsr        [PC - 0x12E /* 00001C7A */]
00001DAA  487A 0034                pea.l      [PC + 0x34 /* 00001DE0, value 0x1370136 */]
00001DAE  2F0E                     move.l     -[A7], A6
00001DB0  4EBA FEC8                jsr        [PC - 0x138 /* 00001C7A */]
00001DB4  487A 0028                pea.l      [PC + 0x28 /* 00001DDE, value 0x1380137 */]
00001DB8  2F0E                     move.l     -[A7], A6
00001DBA  4EBA FEBE                jsr        [PC - 0x142 /* 00001C7A */]
00001DBE  487A 001C                pea.l      [PC + 0x1C /* 00001DDC, value 0x1390138 */]
00001DC2  2F0E                     move.l     -[A7], A6
00001DC4  4EBA FEB4                jsr        [PC - 0x14C /* 00001C7A */]
00001DC8  487A 000E                pea.l      [PC + 0xE /* 00001DD8, value 0x2313000, pstring "10" */]
00001DCC  2F0E                     move.l     -[A7], A6
00001DCE  4EBA FEAA                jsr        [PC - 0x156 /* 00001C7A */]
00001DD2  4E5E                     unlink     A6
00001DD4  2E9F                     move.l     [A7], [A7]+
00001DD6  4E75                     rts
00001DD8  0231 3000 0139 0138 0137 andi.b     [[A1 + 0x1380137 + D0]], 0x0
00001DE2  0136 0135 0134 0133      btst       [[A6 + 0x1340133] + D0], D0
00001DEA  0132 0131 0130 0120      btst       [[A2 + 0x1300120 + D0]], D0
00001DF2  1633 2E31                move.b     D3, [A3 + D2 * 8 + 0x31]
00001DF6  3431 3539 3236 3533      move.w     D2, [[A1 + 0x32363533 + D3 * 4]]
00001DFE  3538 3937                move.w     -[A2], [0x00003937]
00001E02  3933 3233                move.w     -[A4], [A3 + D3.w * 2 + 0x33]
00001E06  3834 3600                move.w     D4, [A4 + D3.w * 8]
00001E0A  0000 4E56                ori.b      D0, 0x56 /* 'V' */
// begin alternate branch 00001E0C-00001E12
fn00001E0C:
00001E0C  4E56 0000                link       A6, 0
00001E10  42A7                     clr.l      -[A7]
// end alternate branch 00001E0C-00001E12
fn00001E0C: // (misaligned)
00001E0E  0000 42A7                ori.b      D0, 0xA7
00001E12  2F3A 0066                move.l     -[A7], [PC + 0x66 /* 00001E7A, value 0x57544C4B 'WTLK', cstring "WTLKNV" */]
00001E16  3F3C 0001                move.w     -[A7], 0x1
00001E1A  A9A0                     syscall    GetResource
00001E1C  2B5F D448                move.l     [A5 - 0x2BB8], [A7]+
00001E20  42A7                     clr.l      -[A7]
00001E22  2F3A 0056                move.l     -[A7], [PC + 0x56 /* 00001E7A, value 0x57544C4B 'WTLK', cstring "WTLKNV" */]
00001E26  3F3C 0002                move.w     -[A7], 0x2
00001E2A  A9A0                     syscall    GetResource
00001E2C  2B5F D454                move.l     [A5 - 0x2BAC], [A7]+
00001E30  42A7                     clr.l      -[A7]
00001E32  2F3A 0046                move.l     -[A7], [PC + 0x46 /* 00001E7A, value 0x57544C4B 'WTLK', cstring "WTLKNV" */]
00001E36  3F3C 0003                move.w     -[A7], 0x3
00001E3A  A9A0                     syscall    GetResource
00001E3C  2B5F D450                move.l     [A5 - 0x2BB0], [A7]+
00001E40  42A7                     clr.l      -[A7]
00001E42  2F3A 0036                move.l     -[A7], [PC + 0x36 /* 00001E7A, value 0x57544C4B 'WTLK', cstring "WTLKNV" */]
00001E46  3F3C 0004                move.w     -[A7], 0x4
00001E4A  A9A0                     syscall    GetResource
00001E4C  2B5F D44C                move.l     [A5 - 0x2BB4], [A7]+
00001E50  4AAD D448                tst.l      [A5 - 0x2BB8]
00001E54  56C0                     sne        D0
00001E56  4AAD D454                tst.l      [A5 - 0x2BAC]
00001E5A  56C1                     sne        D1
00001E5C  C001                     and.b      D0, D1
00001E5E  4AAD D450                tst.l      [A5 - 0x2BB0]
00001E62  56C1                     sne        D1
00001E64  C001                     and.b      D0, D1
00001E66  4AAD D44C                tst.l      [A5 - 0x2BB4]
00001E6A  56C1                     sne        D1
00001E6C  C001                     and.b      D0, D1
00001E6E  4400                     neg.b      D0
00001E70  1D40 000C                move.b     [A6 + 0xC], D0
00001E74  4E5E                     unlink     A6
00001E76  2E9F                     move.l     [A7], [A7]+
00001E78  4E75                     rts
00001E7A  5754                     subq.w     [A4], 3
00001E7C  4C4B 4E56                divsl.l    D6:D4, A3
// begin alternate branch 00001E7E-00001E84
fn00001E7E:
00001E7E  4E56 0000                link       A6, 0
00001E82  2F0E                     move.l     -[A7], A6
// end alternate branch 00001E7E-00001E84
fn00001E7E: // (misaligned)
00001E80  0000 2F0E                ori.b      D0, 0xE
00001E84  4EBA EFDC                jsr        [PC - 0x1024 /* 00000E62 */]
00001E88  2F0E                     move.l     -[A7], A6
00001E8A  4EBA E83E                jsr        [PC - 0x17C2 /* 000006CA */]
00001E8E  2F0E                     move.l     -[A7], A6
00001E90  4EBA ED04                jsr        [PC - 0x12FC /* 00000B96 */]
00001E94  2F0E                     move.l     -[A7], A6
00001E96  4EBA FE26                jsr        [PC - 0x1DA /* 00001CBE */]
00001E9A  2F0E                     move.l     -[A7], A6
00001E9C  4EBA F4C6                jsr        [PC - 0xB3A /* 00001364 */]
00001EA0  4267                     clr.w      -[A7]
00001EA2  2F0E                     move.l     -[A7], A6
00001EA4  4EBA FF66                jsr        [PC - 0x9A /* 00001E0C */]
00001EA8  101F                     move.b     D0, [A7]+
00001EAA  660A                     bne        +0xC /* 00001EB6 */
00001EAC  2F3C 0001 0B15           move.l     -[A7], 0x10B15
00001EB2  4EAD 185A                jsr        [A5 + 0x185A /* export_775, CODE:16 @ 0000042E */]
label00001EB6:
00001EB6  2F0E                     move.l     -[A7], A6
00001EB8  4EBA F336                jsr        [PC - 0xCCA /* 000011F0 */]
00001EBC  2F0E                     move.l     -[A7], A6
00001EBE  4EBA E7AA                jsr        [PC - 0x1856 /* 0000066A */]
00001EC2  4E5E                     unlink     A6
00001EC4  4E75                     rts
fn00001EC6:
00001EC6  4E56 0000                link       A6, 0
00001ECA  422D D47B                clr.b      [A5 - 0x2B85]
00001ECE  3B7C 0007 D71E           move.w     [A5 - 0x28E2], 0x7
00001ED4  422D EF23                clr.b      [A5 - 0x10DD]
00001ED8  3F3C 0001                move.w     -[A7], 0x1
00001EDC  4EAD 13B2                jsr        [A5 + 0x13B2 /* export_626, CODE:12 @ 00005F1E */]
00001EE0  422D EF41                clr.b      [A5 - 0x10BF]
00001EE4  486D D51A                pea.l      [A5 - 0x2AE6]
00001EE8  2F3C 0000 0158           move.l     -[A7], 0x158
00001EEE  4EAD 1B42                jsr        [A5 + 0x1B42 /* export_868, CODE:16 @ 00001E7C */]
00001EF2  41ED D51A                lea.l      A0, [A5 - 0x2AE6]
00001EF6  2B48 D672                move.l     [A5 - 0x298E], A0
00001EFA  3B7C 0008 D676           move.w     [A5 - 0x298A], 0x8
00001F00  2B6D ED7E D688           move.l     [A5 - 0x2978], [A5 - 0x1282]
00001F06  302D ED80                move.w     D0, [A5 - 0x1280]
00001F0A  907C 0020                sub.w      D0, 0x20 /* ' ' */
00001F0E  3B40 D67A                move.w     [A5 - 0x2986], D0
00001F12  302D ED7E                move.w     D0, [A5 - 0x1282]
00001F16  907C 0015                sub.w      D0, 0x15
00001F1A  3B40 D678                move.w     [A5 - 0x2988], D0
00001F1E  302D D67A                move.w     D0, [A5 - 0x2986]
00001F22  D07C 0040                add.w      D0, 0x40 /* '@' */
00001F26  3B40 D67E                move.w     [A5 - 0x2982], D0
00001F2A  302D D678                move.w     D0, [A5 - 0x2988]
00001F2E  D07C 002B                add.w      D0, 0x2B /* '+' */
00001F32  3B40 D67C                move.w     [A5 - 0x2984], D0
00001F36  302D ED84                move.w     D0, [A5 - 0x127C]
00001F3A  D07C 0020                add.w      D0, 0x20 /* ' ' */
00001F3E  3B40 D682                move.w     [A5 - 0x297E], D0
00001F42  302D ED82                move.w     D0, [A5 - 0x127E]
00001F46  D07C 0015                add.w      D0, 0x15
00001F4A  3B40 D680                move.w     [A5 - 0x2980], D0
00001F4E  302D ED88                move.w     D0, [A5 - 0x1278]
00001F52  907C 0020                sub.w      D0, 0x20 /* ' ' */
00001F56  3B40 D686                move.w     [A5 - 0x297A], D0
00001F5A  302D ED86                move.w     D0, [A5 - 0x127A]
00001F5E  907C 0016                sub.w      D0, 0x16
00001F62  3B40 D684                move.w     [A5 - 0x297C], D0
00001F66  422D D4E9                clr.b      [A5 - 0x2B17]
00001F6A  426D D4D6                clr.w      [A5 - 0x2B2A]
00001F6E  7000                     moveq.l    D0, 0x00
00001F70  2B40 D482                move.l     [A5 - 0x2B7E], D0
00001F74  7000                     moveq.l    D0, 0x00
00001F76  2B40 D47E                move.l     [A5 - 0x2B82], D0
00001F7A  426D E1FC                clr.w      [A5 - 0x1E04]
00001F7E  102D F2B9                move.b     D0, [A5 - 0xD47]
00001F82  6706                     beq        +0x8 /* 00001F8A */
00001F84  3B7C FFFF E1FC           move.w     [A5 - 0x1E04], 0xFFFF
label00001F8A:
00001F8A  3B6D F2BC E1FE           move.w     [A5 - 0x1E02], [A5 - 0xD44]
00001F90  3B6D F2BA E200           move.w     [A5 - 0x1E00], [A5 - 0xD46]
00001F96  422D E202                clr.b      [A5 - 0x1DFE]
00001F9A  302D E200                move.w     D0, [A5 - 0x1E00]
00001F9E  E540                     asl        D0.w, 2
00001FA0  48C0                     ext.l      D0
00001FA2  81FC 0003                divs.w     D0, 0x3
00001FA6  3B40 E204                move.w     [A5 - 0x1DFC], D0
00001FAA  422D E225                clr.b      [A5 - 0x1DDB]
00001FAE  422D EFE0                clr.b      [A5 - 0x1020]
00001FB2  422D E2E3                clr.b      [A5 - 0x1D1D]
00001FB6  422D D69F                clr.b      [A5 - 0x2961]
00001FBA  4EAD 133A                jsr        [A5 + 0x133A /* export_611, CODE:12 @ 00000DEC */]
00001FBE  422D EDAA                clr.b      [A5 - 0x1256]
00001FC2  422D D47A                clr.b      [A5 - 0x2B86]
00001FC6  42A7                     clr.l      -[A7]
00001FC8  4EAD 03E2                jsr        [A5 + 0x3E2 /* export_120, CODE:1 @ 00004CEE */]
00001FCC  2B5F D6AC                move.l     [A5 - 0x2954], [A7]+
00001FD0  42A7                     clr.l      -[A7]
00001FD2  4EAD 03E2                jsr        [A5 + 0x3E2 /* export_120, CODE:1 @ 00004CEE */]
00001FD6  2B5F D6A8                move.l     [A5 - 0x2958], [A7]+
00001FDA  42A7                     clr.l      -[A7]
00001FDC  4EAD 03E2                jsr        [A5 + 0x3E2 /* export_120, CODE:1 @ 00004CEE */]
00001FE0  2B5F D6A4                move.l     [A5 - 0x295C], [A7]+
00001FE4  42A7                     clr.l      -[A7]
00001FE6  4EAD 03E2                jsr        [A5 + 0x3E2 /* export_120, CODE:1 @ 00004CEE */]
00001FEA  2B5F D6A0                move.l     [A5 - 0x2960], [A7]+
00001FEE  4E5E                     unlink     A6
00001FF0  4E75                     rts
fn00001FF2:
00001FF2  4E56 FEF6                link       A6, -0x010A
00001FF6  48E7 0318                movem.l    -[A7], D6,D7,A3,A4
00001FFA  A930                     syscall    InitMenus
00001FFC  7E01                     moveq.l    D7, 0x01
00001FFE  6000 00EA                bra        +0xEC /* 000020EA */
label00002002:
00002002  42A7                     clr.l      -[A7]
00002004  3F07                     move.w     -[A7], D7
00002006  A9BF                     syscall    GetRMenu
00002008  265F                     movea.l    A3, [A7]+
0000200A  3007                     move.w     D0, D7
0000200C  5340                     subq.w     D0, 1
0000200E  41ED EEA4                lea.l      A0, [A5 - 0x115C]
00002012  E540                     asl        D0.w, 2
00002014  218B 0000                move.l     [A0 + D0.w], A3
00002018  3007                     move.w     D0, D7
0000201A  5340                     subq.w     D0, 1
0000201C  41ED EED4                lea.l      A0, [A5 - 0x112C]
00002020  E540                     asl        D0.w, 2
00002022  48E7 8080                movem.l    -[A7], D0,A0
00002026  42A7                     clr.l      -[A7]
00002028  3207                     move.w     D1, D7
0000202A  D27C 0064                add.w      D1, 0x64 /* 'd' */
0000202E  3F01                     move.w     -[A7], D1
00002030  A9BF                     syscall    GetRMenu
00002032  221F                     move.l     D1, [A7]+
00002034  4CDF 0101                movem.l    D0,A0, [A7]+
00002038  2181 0000                move.l     [A0 + D0.w], D1
0000203C  7001                     moveq.l    D0, 0x01
0000203E  B047                     cmp.w      D0, D7
00002040  6646                     bne        +0x48 /* 00002088 */
00002042  2F0B                     move.l     -[A7], A3
00002044  2F3A 00FC                move.l     -[A7], [PC + 0xFC /* 00002142, value 0x44525652 'DRVR' */]
00002048  A94D                     syscall    AppendResMenu/AddResMenu
0000204A  4267                     clr.w      -[A7]
0000204C  2F0B                     move.l     -[A7], A3
0000204E  A950                     syscall    CountMItems
00002050  3B5F DEBE                move.w     [A5 - 0x2142], [A7]+
00002054  3D6D DEBE FEF6           move.w     [A6 - 0x10A], [A5 - 0x2142]
0000205A  7C03                     moveq.l    D6, 0x03
0000205C  6024                     bra        +0x26 /* 00002082 */
label0000205E:
0000205E  2F0B                     move.l     -[A7], A3
00002060  3F06                     move.w     -[A7], D6
00002062  486E FEFC                pea.l      [A6 - 0x104]
00002066  A946                     syscall    GetMenuItemText/GetItem
00002068  4240                     clr.w      D0
0000206A  102E FEFC                move.b     D0, [A6 - 0x104]
0000206E  7202                     moveq.l    D1, 0x02
00002070  B240                     cmp.w      D1, D0
00002072  6F0A                     ble        +0xC /* 0000207E */
00002074  3006                     move.w     D0, D6
00002076  5340                     subq.w     D0, 1
00002078  3B40 DEBE                move.w     [A5 - 0x2142], D0
0000207C  600A                     bra        +0xC /* 00002088 */
label0000207E:
0000207E  5246                     addq.w     D6, 1
00002080  6906                     bvs        +0x8 /* 00002088 */
label00002082:
00002082  BC6E FEF6                cmp.w      D6, [A6 - 0x10A]
00002086  6FD6                     ble        -0x28 /* 0000205E */
label00002088:
00002088  7005                     moveq.l    D0, 0x05
0000208A  B047                     cmp.w      D0, D7
0000208C  662A                     bne        +0x2C /* 000020B8 */
0000208E  2853                     movea.l    A4, [A3]
00002090  397C 0044 0002           move.w     [A4 + 0x2], 0x44 /* 'D' */
00002096  397C 0081 0004           move.w     [A4 + 0x4], 0x81
0000209C  70FF                     moveq.l    D0, 0xFFFFFFFF
0000209E  2940 000A                move.l     [A4 + 0xA], D0
000020A2  2053                     movea.l    A0, [A3]
000020A4  2F08                     move.l     -[A7], A0
000020A6  42A7                     clr.l      -[A7]
000020A8  486D 2282                pea.l      [A5 + 0x2282 /* export_1100, CODE:20 @ 000054E6 */]
000020AC  4EAD 2072                jsr        [A5 + 0x2072 /* export_1034, CODE:20 @ 00000CC2 */]
000020B0  201F                     move.l     D0, [A7]+
000020B2  205F                     movea.l    A0, [A7]+
000020B4  2140 0006                move.l     [A0 + 0x6], D0
label000020B8:
000020B8  7009                     moveq.l    D0, 0x09
000020BA  B047                     cmp.w      D0, D7
000020BC  662A                     bne        +0x2C /* 000020E8 */
000020BE  2853                     movea.l    A4, [A3]
000020C0  397C 0047 0002           move.w     [A4 + 0x2], 0x47 /* 'G' */
000020C6  397C 0081 0004           move.w     [A4 + 0x4], 0x81
000020CC  70FF                     moveq.l    D0, 0xFFFFFFFF
000020CE  2940 000A                move.l     [A4 + 0xA], D0
000020D2  2053                     movea.l    A0, [A3]
000020D4  2F08                     move.l     -[A7], A0
000020D6  42A7                     clr.l      -[A7]
000020D8  486D 2172                pea.l      [A5 + 0x2172 /* export_1066, CODE:20 @ 000036BE */]
000020DC  4EAD 2072                jsr        [A5 + 0x2072 /* export_1034, CODE:20 @ 00000CC2 */]
000020E0  201F                     move.l     D0, [A7]+
000020E2  205F                     movea.l    A0, [A7]+
000020E4  2140 0006                move.l     [A0 + 0x6], D0
label000020E8:
000020E8  5247                     addq.w     D7, 1
label000020EA:
000020EA  700C                     moveq.l    D0, 0x0C
000020EC  B047                     cmp.w      D0, D7
000020EE  6C00 FF12                bge        -0xEC /* 00002002 */
000020F2  2F2D EEA4                move.l     -[A7], [A5 - 0x115C]
000020F6  4267                     clr.w      -[A7]
000020F8  A935                     syscall    InsertMenu
000020FA  2F2D EEC8                move.l     -[A7], [A5 - 0x1138]
000020FE  4267                     clr.w      -[A7]
00002100  A935                     syscall    InsertMenu
00002102  2F2D EECC                move.l     -[A7], [A5 - 0x1134]
00002106  4267                     clr.w      -[A7]
00002108  A935                     syscall    InsertMenu
0000210A  2F2D EEB0                move.l     -[A7], [A5 - 0x1150]
0000210E  4267                     clr.w      -[A7]
00002110  A935                     syscall    InsertMenu
00002112  2B78 0A1C E080           move.l     [A5 - 0x1F80], [0x00000A1C /* MenuList */]
00002118  4267                     clr.w      -[A7]
0000211A  486D E080                pea.l      [A5 - 0x1F80]
0000211E  4EAD 0462                jsr        [A5 + 0x462 /* export_136, CODE:1 @ 00004DBC */]
00002122  206E 0008                movea.l    A0, [A6 + 0x8]
00002126  315F FFDC                move.w     [A0 - 0x24], [A7]+
0000212A  1B7C 0001 E0E7           move.b     [A5 - 0x1F19], 0x1
00002130  422D F4CD                clr.b      [A5 - 0xB33]
00002134  4EAD 2182                jsr        [A5 + 0x2182 /* export_1068, CODE:20 @ 00003930 */]
00002138  4CDF 18C0                movem.l    D6,D7,A3,A4, [A7]+
0000213C  4E5E                     unlink     A6
0000213E  2E9F                     move.l     [A7], [A7]+
00002140  4E75                     rts
00002142  4452                     neg.w      [A2]
00002144  5652                     addq.w     [A2], 3
fn00002146:
00002146  4E56 FFD8                link       A6, -0x0028
0000214A  48E7 0F00                movem.l    -[A7], D4,D5,D6,D7
0000214E  486D E094                pea.l      [A5 - 0x1F6C]
00002152  41ED F028                lea.l      A0, [A5 - 0xFD8]
00002156  43ED E094                lea.l      A1, [A5 - 0x1F6C]
0000215A  2008                     move.l     D0, A0
0000215C  9089                     sub.l      D0, A1
0000215E  E488                     lsr        D0, 2
00002160  2F00                     move.l     -[A7], D0
00002162  4EAD 1B4A                jsr        [A5 + 0x1B4A /* export_869, CODE:16 @ 00001E9C */]
00002166  302D FE3A                move.w     D0, [A5 - 0x1C6]
0000216A  906D FE36                sub.w      D0, [A5 - 0x1CA]
0000216E  48C0                     ext.l      D0
00002170  81FC 0010                divs.w     D0, 0x10
00002174  3800                     move.w     D4, D0
00002176  907C 0020                sub.w      D0, 0x20 /* ' ' */
0000217A  48C0                     ext.l      D0
0000217C  81FC 0002                divs.w     D0, 0x2
00002180  E940                     asl        D0.w, 4
00002182  3B40 ED7C                move.w     [A5 - 0x1284], D0
00002186  3E2D FE38                move.w     D7, [A5 - 0x1C8]
0000218A  9E6D FE34                sub.w      D7, [A5 - 0x1CC]
0000218E  3007                     move.w     D0, D7
00002190  907C 0156                sub.w      D0, 0x156
00002194  48C0                     ext.l      D0
00002196  81FC 0002                divs.w     D0, 0x2
0000219A  3B40 ED7A                move.w     [A5 - 0x1286], D0
0000219E  3C38 0BAA                move.w     D6, [0x00000BAA /* MBarHeight */]
000021A2  E346                     asl        D6.w, 1
000021A4  0C47 01CC                cmpi.w     D7, 0x1CC
000021A8  5FC0                     sle        D0
000021AA  3206                     move.w     D1, D6
000021AC  D27C 0156                add.w      D1, 0x156
000021B0  B247                     cmp.w      D1, D7
000021B2  5FC1                     sle        D1
000021B4  C001                     and.b      D0, D1
000021B6  670C                     beq        +0xE /* 000021C4 */
000021B8  3006                     move.w     D0, D6
000021BA  48C0                     ext.l      D0
000021BC  81FC 0002                divs.w     D0, 0x2
000021C0  D16D ED7A                add.w      [A5 - 0x1286], D0
label000021C4:
000021C4  302D ED7C                move.w     D0, [A5 - 0x1284]
000021C8  D07C 0064                add.w      D0, 0x64 /* 'd' */
000021CC  3B40 ED74                move.w     [A5 - 0x128C], D0
000021D0  302D ED7A                move.w     D0, [A5 - 0x1286]
000021D4  D07C 0032                add.w      D0, 0x32 /* '2' */
000021D8  3B40 ED72                move.w     [A5 - 0x128E], D0
000021DC  486D ED8A                pea.l      [A5 - 0x1276]
000021E0  42A7                     clr.l      -[A7]
000021E2  42A7                     clr.l      -[A7]
000021E4  A8A7                     syscall    SetRect
000021E6  486D ED82                pea.l      [A5 - 0x127E]
000021EA  42A7                     clr.l      -[A7]
000021EC  2F3C 0156 0200           move.l     -[A7], 0x1560200
000021F2  A8A7                     syscall    SetRect
000021F4  3B7C 0100 ED80           move.w     [A5 - 0x1280], 0x100
000021FA  3B7C 00AB ED7E           move.w     [A5 - 0x1282], 0xAB
00002200  3B7C 0002 F02A           move.w     [A5 - 0xFD6], 0x2
00002206  3B7C 0002 F02C           move.w     [A5 - 0xFD4], 0x2
0000220C  422D F007                clr.b      [A5 - 0xFF9]
00002210  422D F006                clr.b      [A5 - 0xFFA]
00002214  42A7                     clr.l      -[A7]
00002216  3F3C A937                move.w     -[A7], 0xA937
0000221A  4EAD 0262                jsr        [A5 + 0x262 /* export_72, CODE:1 @ 000046EC */]
0000221E  2B5F E20E                move.l     [A5 - 0x1DF2], [A7]+
00002222  486D 1552                pea.l      [A5 + 0x1552 /* export_678, CODE:15 @ 00000146 */]
00002226  3F3C A937                move.w     -[A7], 0xA937
0000222A  4EAD 026A                jsr        [A5 + 0x26A /* export_73, CODE:1 @ 000046F6 */]
0000222E  2F0E                     move.l     -[A7], A6
00002230  4EBA FDC0                jsr        [PC - 0x240 /* 00001FF2 */]
00002234  422D DEBD                clr.b      [A5 - 0x2143]
00002238  3B7C 0001 EF1A           move.w     [A5 - 0x10E6], 0x1
0000223E  426D EF18                clr.w      [A5 - 0x10E8]
00002242  3B7C 0001 EF0C           move.w     [A5 - 0x10F4], 0x1
00002248  3B7C 0002 EF0E           move.w     [A5 - 0x10F2], 0x2
0000224E  3B7C 0003 EF10           move.w     [A5 - 0x10F0], 0x3
00002254  3B7C 0004 EF12           move.w     [A5 - 0x10EE], 0x4
0000225A  3B7C 0006 EF14           move.w     [A5 - 0x10EC], 0x6
00002260  3B7C 0008 EF16           move.w     [A5 - 0x10EA], 0x8
00002266  7000                     moveq.l    D0, 0x00
00002268  2B40 DECC                move.l     [A5 - 0x2134], D0
0000226C  3B7C FFFF DECA           move.w     [A5 - 0x2136], 0xFFFF
00002272  7000                     moveq.l    D0, 0x00
00002274  2B40 DEC6                move.l     [A5 - 0x213A], D0
00002278  426D DEC4                clr.w      [A5 - 0x213C]
0000227C  42A7                     clr.l      -[A7]
0000227E  700A                     moveq.l    D0, 0x0A
00002280  2F00                     move.l     -[A7], D0
00002282  4EAD 18DA                jsr        [A5 + 0x18DA /* export_791, CODE:16 @ 00000896 */]
00002286  2B5F DEC0                move.l     [A5 - 0x2140], [A7]+
0000228A  486D DEE4                pea.l      [A5 - 0x211C]
0000228E  487A 08B8                pea.l      [PC + 0x8B8 /* 00002B48, value 0x10343431, pstring "4411441144114411" */]
00002292  A866                     syscall    StuffHex
00002294  486D DEF4                pea.l      [A5 - 0x210C]
00002298  487A 089C                pea.l      [PC + 0x89C /* 00002B36, value 0x10333036, pstring "3060C08103060C18" */]
0000229C  A866                     syscall    StuffHex
0000229E  486D DEEC                pea.l      [A5 - 0x2114]
000022A2  2F3C 0008 00AA           move.l     -[A7], 0x800AA
000022A8  4EAD 1A0A                jsr        [A5 + 0x1A0A /* export_829, CODE:16 @ 00001448 */]
000022AC  42A7                     clr.l      -[A7]
000022AE  486D 2122                pea.l      [A5 + 0x2122 /* export_1056, CODE:20 @ 000017E2 */]
000022B2  4EAD 2072                jsr        [A5 + 0x2072 /* export_1034, CODE:20 @ 00000CC2 */]
000022B6  2B5F ED92                move.l     [A5 - 0x126E], [A7]+
000022BA  486E FFF2                pea.l      [A6 - 0xE]
000022BE  42A7                     clr.l      -[A7]
000022C0  2F3C 0081 0044           move.l     -[A7], 0x810044
000022C6  A8A7                     syscall    SetRect
000022C8  486E FFF2                pea.l      [A6 - 0xE]
000022CC  302D ED7C                move.w     D0, [A5 - 0x1284]
000022D0  D07C 00C8                add.w      D0, 0xC8
000022D4  3F00                     move.w     -[A7], D0
000022D6  302D ED7A                move.w     D0, [A5 - 0x1286]
000022DA  D07C 0046                add.w      D0, 0x46 /* 'F' */
000022DE  3F00                     move.w     -[A7], D0
000022E0  A8A8                     syscall    OffsetRect
000022E2  42A7                     clr.l      -[A7]
000022E4  42A7                     clr.l      -[A7]
000022E6  486E FFF2                pea.l      [A6 - 0xE]
000022EA  487A 0844                pea.l      [PC + 0x844 /* 00002B30, value 0x4546F6F, pstring "Tool" */]
000022EE  2F3C 0004 0000           move.l     -[A7], 0x40000
000022F4  70FF                     moveq.l    D0, 0xFFFFFFFF
000022F6  2F00                     move.l     -[A7], D0
000022F8  1F3C 0001                move.b     -[A7], 0x1
000022FC  7002                     moveq.l    D0, 0x02
000022FE  2F00                     move.l     -[A7], D0
00002300  A913                     syscall    NewWindow
00002302  2B5F EDC4                move.l     [A5 - 0x123C], [A7]+
00002306  2F2D EDC4                move.l     -[A7], [A5 - 0x123C]
0000230A  A873                     syscall    SetPort
0000230C  206D FEA8                movea.l    A0, [A5 - 0x158]
00002310  4868 0010                pea.l      [A0 + 0x10]
00002314  A87B                     syscall    ClipRect
00002316  2B6D EDC4 EDA6           move.l     [A5 - 0x125A], [A5 - 0x123C]
0000231C  206D EDA6                movea.l    A0, [A5 - 0x125A]
00002320  216D ED92 007E           move.l     [A0 + 0x7E], [A5 - 0x126E]
00002326  486E FFF2                pea.l      [A6 - 0xE]
0000232A  42A7                     clr.l      -[A7]
0000232C  2F3C 0081 0047           move.l     -[A7], 0x810047
00002332  A8A7                     syscall    SetRect
00002334  486E FFF2                pea.l      [A6 - 0xE]
00002338  302D ED7C                move.w     D0, [A5 - 0x1284]
0000233C  D07C 012C                add.w      D0, 0x12C
00002340  3F00                     move.w     -[A7], D0
00002342  302D ED7A                move.w     D0, [A5 - 0x1286]
00002346  D07C 0046                add.w      D0, 0x46 /* 'F' */
0000234A  3F00                     move.w     -[A7], D0
0000234C  A8A8                     syscall    OffsetRect
0000234E  42A7                     clr.l      -[A7]
00002350  42A7                     clr.l      -[A7]
00002352  486E FFF2                pea.l      [A6 - 0xE]
00002356  487A 07D0                pea.l      [PC + 0x7D0 /* 00002B28, value 0x7506174, pstring "Pattern" */]
0000235A  2F3C 0004 0000           move.l     -[A7], 0x40000
00002360  70FF                     moveq.l    D0, 0xFFFFFFFF
00002362  2F00                     move.l     -[A7], D0
00002364  1F3C 0001                move.b     -[A7], 0x1
00002368  7003                     moveq.l    D0, 0x03
0000236A  2F00                     move.l     -[A7], D0
0000236C  A913                     syscall    NewWindow
0000236E  2B5F EDC0                move.l     [A5 - 0x1240], [A7]+
00002372  2F2D EDC0                move.l     -[A7], [A5 - 0x1240]
00002376  A873                     syscall    SetPort
00002378  206D FEA8                movea.l    A0, [A5 - 0x158]
0000237C  4868 0010                pea.l      [A0 + 0x10]
00002380  A87B                     syscall    ClipRect
00002382  2B6D EDC0 EDA2           move.l     [A5 - 0x125E], [A5 - 0x1240]
00002388  206D EDA2                movea.l    A0, [A5 - 0x125E]
0000238C  216D ED92 007E           move.l     [A0 + 0x7E], [A5 - 0x126E]
00002392  486E FFF2                pea.l      [A6 - 0xE]
00002396  42A7                     clr.l      -[A7]
00002398  2F3C 002B 0040           move.l     -[A7], 0x2B0040 /* '+\0@' */
0000239E  A8A7                     syscall    SetRect
000023A0  486E FFF2                pea.l      [A6 - 0xE]
000023A4  302D ED7C                move.w     D0, [A5 - 0x1284]
000023A8  D07C 0009                add.w      D0, 0x9 /* '\t' */
000023AC  3F00                     move.w     -[A7], D0
000023AE  302D ED7A                move.w     D0, [A5 - 0x1286]
000023B2  D07C 011B                add.w      D0, 0x11B
000023B6  3F00                     move.w     -[A7], D0
000023B8  A8A8                     syscall    OffsetRect
000023BA  42A7                     clr.l      -[A7]
000023BC  42A7                     clr.l      -[A7]
000023BE  486E FFF2                pea.l      [A6 - 0xE]
000023C2  487A 075C                pea.l      [PC + 0x75C /* 00002B20, value 0x7466174, pstring "FatBits" */]
000023C6  2F3C 0004 0000           move.l     -[A7], 0x40000
000023CC  70FF                     moveq.l    D0, 0xFFFFFFFF
000023CE  2F00                     move.l     -[A7], D0
000023D0  1F3C 0001                move.b     -[A7], 0x1
000023D4  7004                     moveq.l    D0, 0x04
000023D6  2F00                     move.l     -[A7], D0
000023D8  A913                     syscall    NewWindow
000023DA  2B5F EDBC                move.l     [A5 - 0x1244], [A7]+
000023DE  2F2D EDBC                move.l     -[A7], [A5 - 0x1244]
000023E2  A873                     syscall    SetPort
000023E4  206D FEA8                movea.l    A0, [A5 - 0x158]
000023E8  4868 0010                pea.l      [A0 + 0x10]
000023EC  A87B                     syscall    ClipRect
000023EE  2B6D EDBC ED9E           move.l     [A5 - 0x1262], [A5 - 0x1244]
000023F4  206D ED9E                movea.l    A0, [A5 - 0x1262]
000023F8  216D ED92 007E           move.l     [A0 + 0x7E], [A5 - 0x126E]
000023FE  486E FFF2                pea.l      [A6 - 0xE]
00002402  42A7                     clr.l      -[A7]
00002404  2F3C 0023 01D8           move.l     -[A7], 0x2301D8
0000240A  A8A7                     syscall    SetRect
0000240C  486E FFF2                pea.l      [A6 - 0xE]
00002410  302D ED7C                move.w     D0, [A5 - 0x1284]
00002414  D07C 0016                add.w      D0, 0x16
00002418  3F00                     move.w     -[A7], D0
0000241A  302D ED7A                move.w     D0, [A5 - 0x1286]
0000241E  D07C 012C                add.w      D0, 0x12C
00002422  3F00                     move.w     -[A7], D0
00002424  A8A8                     syscall    OffsetRect
00002426  42A7                     clr.l      -[A7]
00002428  42A7                     clr.l      -[A7]
0000242A  486E FFF2                pea.l      [A6 - 0xE]
0000242E  487A 06E8                pea.l      [PC + 0x6E8 /* 00002B18, value 0x74D6573, pstring "Message" */]
00002432  2F3C 0004 0000           move.l     -[A7], 0x40000
00002438  70FF                     moveq.l    D0, 0xFFFFFFFF
0000243A  2F00                     move.l     -[A7], D0
0000243C  1F3C 0001                move.b     -[A7], 0x1
00002440  7005                     moveq.l    D0, 0x05
00002442  2F00                     move.l     -[A7], D0
00002444  A913                     syscall    NewWindow
00002446  2B5F EDB8                move.l     [A5 - 0x1248], [A7]+
0000244A  2F2D EDB8                move.l     -[A7], [A5 - 0x1248]
0000244E  A873                     syscall    SetPort
00002450  206D FEA8                movea.l    A0, [A5 - 0x158]
00002454  4868 0010                pea.l      [A0 + 0x10]
00002458  A87B                     syscall    ClipRect
0000245A  2B6D EDB8 ED9A           move.l     [A5 - 0x1266], [A5 - 0x1248]
00002460  206D ED9A                movea.l    A0, [A5 - 0x1266]
00002464  216D ED92 007E           move.l     [A0 + 0x7E], [A5 - 0x126E]
0000246A  41EE FFF2                lea.l      A0, [A6 - 0xE]
0000246E  43ED ED82                lea.l      A1, [A5 - 0x127E]
00002472  20D9                     move.l     [A0]+, [A1]+
00002474  20D9                     move.l     [A0]+, [A1]+
00002476  486E FFF2                pea.l      [A6 - 0xE]
0000247A  2F2D ED7A                move.l     -[A7], [A5 - 0x1286]
0000247E  A8A8                     syscall    OffsetRect
00002480  42A7                     clr.l      -[A7]
00002482  42A7                     clr.l      -[A7]
00002484  486E FFF2                pea.l      [A6 - 0xE]
00002488  487A 0688                pea.l      [PC + 0x688 /* 00002B12, value 0x4436172, pstring "Card" */]
0000248C  2F3C 0004 0000           move.l     -[A7], 0x40000
00002492  70FF                     moveq.l    D0, 0xFFFFFFFF
00002494  2F00                     move.l     -[A7], D0
00002496  4267                     clr.w      -[A7]
00002498  7001                     moveq.l    D0, 0x01
0000249A  2F00                     move.l     -[A7], D0
0000249C  A913                     syscall    NewWindow
0000249E  2B5F EDC8                move.l     [A5 - 0x1238], [A7]+
000024A2  2B6D EDC8 ED96           move.l     [A5 - 0x126A], [A5 - 0x1238]
000024A8  2F2D EDC8                move.l     -[A7], [A5 - 0x1238]
000024AC  A873                     syscall    SetPort
000024AE  486D ED82                pea.l      [A5 - 0x127E]
000024B2  A87B                     syscall    ClipRect
000024B4  4EAD 15B2                jsr        [A5 + 0x15B2 /* export_690, CODE:15 @ 00000A98 */]
000024B8  2F2D E090                move.l     -[A7], [A5 - 0x1F70]
000024BC  4EAD 01EA                jsr        [A5 + 0x1EA /* export_57, CODE:1 @ 00004620 */]
000024C0  486D ECC8                pea.l      [A5 - 0x1338]
000024C4  486D ECEC                pea.l      [A5 - 0x1314]
000024C8  486D ED60                pea.l      [A5 - 0x12A0]
000024CC  4EAD 206A                jsr        [A5 + 0x206A /* export_1033, CODE:20 @ 00000C3C */]
000024D0  486D ECC4                pea.l      [A5 - 0x133C]
000024D4  486D ECE8                pea.l      [A5 - 0x1318]
000024D8  486D ED52                pea.l      [A5 - 0x12AE]
000024DC  4EAD 206A                jsr        [A5 + 0x206A /* export_1033, CODE:20 @ 00000C3C */]
000024E0  486D ECC0                pea.l      [A5 - 0x1340]
000024E4  486D ECE4                pea.l      [A5 - 0x131C]
000024E8  486D ED44                pea.l      [A5 - 0x12BC]
000024EC  4EAD 206A                jsr        [A5 + 0x206A /* export_1033, CODE:20 @ 00000C3C */]
000024F0  486D ECBC                pea.l      [A5 - 0x1344]
000024F4  486D ECE0                pea.l      [A5 - 0x1320]
000024F8  486D ED36                pea.l      [A5 - 0x12CA]
000024FC  4EAD 206A                jsr        [A5 + 0x206A /* export_1033, CODE:20 @ 00000C3C */]
00002500  486D ECB8                pea.l      [A5 - 0x1348]
00002504  486D ECDC                pea.l      [A5 - 0x1324]
00002508  486D ED28                pea.l      [A5 - 0x12D8]
0000250C  4EAD 206A                jsr        [A5 + 0x206A /* export_1033, CODE:20 @ 00000C3C */]
00002510  486D ECB4                pea.l      [A5 - 0x134C]
00002514  486D ECD8                pea.l      [A5 - 0x1328]
00002518  486D ED1A                pea.l      [A5 - 0x12E6]
0000251C  4EAD 206A                jsr        [A5 + 0x206A /* export_1033, CODE:20 @ 00000C3C */]
00002520  486D ECB0                pea.l      [A5 - 0x1350]
00002524  486D ECD4                pea.l      [A5 - 0x132C]
00002528  486D ED0C                pea.l      [A5 - 0x12F4]
0000252C  4EAD 206A                jsr        [A5 + 0x206A /* export_1033, CODE:20 @ 00000C3C */]
00002530  486D ECAC                pea.l      [A5 - 0x1354]
00002534  486D ECD0                pea.l      [A5 - 0x1330]
00002538  486D ECFE                pea.l      [A5 - 0x1302]
0000253C  4EAD 206A                jsr        [A5 + 0x206A /* export_1033, CODE:20 @ 00000C3C */]
00002540  426D E5C0                clr.w      [A5 - 0x1A40]
00002544  426D E666                clr.w      [A5 - 0x199A]
00002548  426D E664                clr.w      [A5 - 0x199C]
0000254C  486D DC78                pea.l      [A5 - 0x2388]
00002550  7000                     moveq.l    D0, 0x00
00002552  303C 01E0                move.w     D0, 0x1E0
00002556  E488                     lsr        D0, 2
00002558  2F00                     move.l     -[A7], D0
0000255A  4EAD 1B4A                jsr        [A5 + 0x1B4A /* export_869, CODE:16 @ 00001E9C */]
0000255E  486D E668                pea.l      [A5 - 0x1998]
00002562  7000                     moveq.l    D0, 0x00
00002564  303C 0640                move.w     D0, 0x640
00002568  E488                     lsr        D0, 2
0000256A  2F00                     move.l     -[A7], D0
0000256C  4EAD 1B4A                jsr        [A5 + 0x1B4A /* export_869, CODE:16 @ 00001E9C */]
00002570  486D E470                pea.l      [A5 - 0x1B90]
00002574  7000                     moveq.l    D0, 0x00
00002576  303C 0150                move.w     D0, 0x150
0000257A  E488                     lsr        D0, 2
0000257C  2F00                     move.l     -[A7], D0
0000257E  4EAD 1B4A                jsr        [A5 + 0x1B4A /* export_869, CODE:16 @ 00001E9C */]
00002582  422D E663                clr.b      [A5 - 0x199D]
00002586  422D E301                clr.b      [A5 - 0x1CFF]
0000258A  422D E302                clr.b      [A5 - 0x1CFE]
0000258E  3B7C 0038 E466           move.w     [A5 - 0x1B9A], 0x38 /* '8' */
00002594  426D E46A                clr.w      [A5 - 0x1B96]
00002598  426D E468                clr.w      [A5 - 0x1B98]
0000259C  3B7C 01C0 E46E           move.w     [A5 - 0x1B92], 0x1C0
000025A2  3B7C 00FC E46C           move.w     [A5 - 0x1B94], 0xFC
000025A8  42A7                     clr.l      -[A7]
000025AA  2F3C 0000 3720           move.l     -[A7], 0x3720 /* '7 ' */
000025B0  4EAD 01E2                jsr        [A5 + 0x1E2 /* export_56, CODE:1 @ 00004614 */]
000025B4  2B5F E462                move.l     [A5 - 0x1B9E], [A7]+
000025B8  660A                     bne        +0xC /* 000025C4 */
000025BA  2F3C 0001 5EBB           move.l     -[A7], 0x15EBB
000025C0  4EAD 185A                jsr        [A5 + 0x185A /* export_775, CODE:16 @ 0000042E */]
label000025C4:
000025C4  2F2D E462                move.l     -[A7], [A5 - 0x1B9E]
000025C8  203C 0000 3720           move.l     D0, 0x3720 /* '7 ' */
000025CE  E488                     lsr        D0, 2
000025D0  2F00                     move.l     -[A7], D0
000025D2  4EAD 1B4A                jsr        [A5 + 0x1B4A /* export_869, CODE:16 @ 00001E9C */]
000025D6  486D EE38                pea.l      [A5 - 0x11C8]
000025DA  A86F                     syscall    OpenPort
000025DC  486D ED44                pea.l      [A5 - 0x12BC]
000025E0  A875                     syscall    SetPBits/SetPortBits
000025E2  4EAD 2262                jsr        [A5 + 0x2262 /* export_1096, CODE:20 @ 0000535A */]
000025E6  42A7                     clr.l      -[A7]
000025E8  486D ED82                pea.l      [A5 - 0x127E]
000025EC  486D ED82                pea.l      [A5 - 0x127E]
000025F0  A9D2                     syscall    TENew
000025F2  2B5F E08C                move.l     [A5 - 0x1F74], [A7]+
000025F6  41ED 19EA                lea.l      A0, [A5 + 0x19EA /* export_825, CODE:16 @ 00001240 */]
000025FA  226D E08C                movea.l    A1, [A5 - 0x1F74]
000025FE  2251                     movea.l    A1, [A1]
00002600  2348 0026                move.l     [A1 + 0x26], A0
00002604  486D EDCC                pea.l      [A5 - 0x1234]
00002608  A86F                     syscall    OpenPort
0000260A  486D ED44                pea.l      [A5 - 0x12BC]
0000260E  A875                     syscall    SetPBits/SetPortBits
00002610  4EAD 2262                jsr        [A5 + 0x2262 /* export_1096, CODE:20 @ 0000535A */]
00002614  42A7                     clr.l      -[A7]
00002616  486D ED82                pea.l      [A5 - 0x127E]
0000261A  486D ED82                pea.l      [A5 - 0x127E]
0000261E  A9D2                     syscall    TENew
00002620  2B5F E246                move.l     [A5 - 0x1DBA], [A7]+
00002624  41ED 19EA                lea.l      A0, [A5 + 0x19EA /* export_825, CODE:16 @ 00001240 */]
00002628  226D E246                movea.l    A1, [A5 - 0x1DBA]
0000262C  2251                     movea.l    A1, [A1]
0000262E  2348 0026                move.l     [A1 + 0x26], A0
00002632  422D E245                clr.b      [A5 - 0x1DBB]
00002636  422D E244                clr.b      [A5 - 0x1DBC]
0000263A  486D E04A                pea.l      [A5 - 0x1FB6]
0000263E  A8EA                     syscall    SetStdProcs
00002640  41ED 211A                lea.l      A0, [A5 + 0x211A /* export_1055, CODE:20 @ 00001770 */]
00002644  2B48 E04A                move.l     [A5 - 0x1FB6], A0
00002648  41ED 20F2                lea.l      A0, [A5 + 0x20F2 /* export_1050, CODE:20 @ 000015BC */]
0000264C  2B48 E052                move.l     [A5 - 0x1FAE], A0
00002650  41ED 20D2                lea.l      A0, [A5 + 0x20D2 /* export_1046, CODE:20 @ 000013D0 */]
00002654  2B48 E06A                move.l     [A5 - 0x1F96], A0
00002658  41ED 20FA                lea.l      A0, [A5 + 0x20FA /* export_1051, CODE:20 @ 0000161C */]
0000265C  2B48 E066                move.l     [A5 - 0x1F9A], A0
00002660  70FF                     moveq.l    D0, 0xFFFFFFFF
00002662  2B40 E04E                move.l     [A5 - 0x1FB2], D0
00002666  70FF                     moveq.l    D0, 0xFFFFFFFF
00002668  2B40 E056                move.l     [A5 - 0x1FAA], D0
0000266C  70FF                     moveq.l    D0, 0xFFFFFFFF
0000266E  2B40 E05A                move.l     [A5 - 0x1FA6], D0
00002672  70FF                     moveq.l    D0, 0xFFFFFFFF
00002674  2B40 E05E                move.l     [A5 - 0x1FA2], D0
00002678  70FF                     moveq.l    D0, 0xFFFFFFFF
0000267A  2B40 E062                move.l     [A5 - 0x1F9E], D0
0000267E  70FF                     moveq.l    D0, 0xFFFFFFFF
00002680  2B40 E06E                move.l     [A5 - 0x1F92], D0
00002684  70FF                     moveq.l    D0, 0xFFFFFFFF
00002686  2B40 E076                move.l     [A5 - 0x1F8A], D0
0000268A  70FF                     moveq.l    D0, 0xFFFFFFFF
0000268C  2B40 E07A                move.l     [A5 - 0x1F86], D0
00002690  41ED E04A                lea.l      A0, [A5 - 0x1FB6]
00002694  2B48 EE34                move.l     [A5 - 0x11CC], A0
00002698  206D EDC8                movea.l    A0, [A5 - 0x1238]
0000269C  43ED EDD4                lea.l      A1, [A5 - 0x122C]
000026A0  5088                     addq.l     A0, 8
000026A2  22D8                     move.l     [A1]+, [A0]+
000026A4  22D8                     move.l     [A1]+, [A0]+
000026A6  1B7C 0001 E049           move.b     [A5 - 0x1FB7], 0x1
000026AC  42A7                     clr.l      -[A7]
000026AE  3F3C A8EF                move.w     -[A7], 0xA8EF
000026B2  4EAD 0262                jsr        [A5 + 0x262 /* export_72, CODE:1 @ 000046EC */]
000026B6  2B5F E20A                move.l     [A5 - 0x1DF6], [A7]+
000026BA  486D 2102                pea.l      [A5 + 0x2102 /* export_1052, CODE:20 @ 00001682 */]
000026BE  3F3C A8EF                move.w     -[A7], 0xA8EF
000026C2  4EAD 026A                jsr        [A5 + 0x26A /* export_73, CODE:1 @ 000046F6 */]
000026C6  422D E209                clr.b      [A5 - 0x1DF7]
000026CA  42A7                     clr.l      -[A7]
000026CC  A8D8                     syscall    NewRgn
000026CE  2B5F ED6E                move.l     [A5 - 0x1292], [A7]+
000026D2  2F2D ECEC                move.l     -[A7], [A5 - 0x1314]
000026D6  70FF                     moveq.l    D0, 0xFFFFFFFF
000026D8  2F00                     move.l     -[A7], D0
000026DA  486D ED82                pea.l      [A5 - 0x127E]
000026DE  4EAD 1722                jsr        [A5 + 0x1722 /* export_736, CODE:15 @ 00004B16 */]
000026E2  7000                     moveq.l    D0, 0x00
000026E4  2B40 E2EA                move.l     [A5 - 0x1D16], D0
000026E8  7000                     moveq.l    D0, 0x00
000026EA  2B40 E2E6                move.l     [A5 - 0x1D1A], D0
000026EE  422D E2E5                clr.b      [A5 - 0x1D1B]
000026F2  422D E2E4                clr.b      [A5 - 0x1D1C]
000026F6  422D E2FC                clr.b      [A5 - 0x1D04]
000026FA  422D E2FB                clr.b      [A5 - 0x1D05]
000026FE  41ED E2F2                lea.l      A0, [A5 - 0x1D0E]
00002702  43ED ED82                lea.l      A1, [A5 - 0x127E]
00002706  20D9                     move.l     [A0]+, [A1]+
00002708  20D9                     move.l     [A0]+, [A1]+
0000270A  422D E2EF                clr.b      [A5 - 0x1D11]
0000270E  422D E2E3                clr.b      [A5 - 0x1D1D]
00002712  1B7C 0001 E2E2           move.b     [A5 - 0x1D1E], 0x1
00002718  1B7C 0001 E303           move.b     [A5 - 0x1CFD], 0x1
0000271E  41ED E304                lea.l      A0, [A5 - 0x1CFC]
00002722  2B48 E454                move.l     [A5 - 0x1BAC], A0
00002726  3B7C 0008 E458           move.w     [A5 - 0x1BA8], 0x8
0000272C  426D E45A                clr.w      [A5 - 0x1BA6]
00002730  426D E45C                clr.w      [A5 - 0x1BA4]
00002734  3B7C 0040 E460           move.w     [A5 - 0x1BA0], 0x40 /* '@' */
0000273A  3B7C 002A E45E           move.w     [A5 - 0x1BA2], 0x2A /* '*' */
00002740  2F3C 0000 00F8           move.l     -[A7], 0xF8
00002746  486D E2C0                pea.l      [A5 - 0x1D40]
0000274A  4EAD 1C2A                jsr        [A5 + 0x1C2A /* export_897, CODE:17 @ 00000A16 */]
0000274E  7000                     moveq.l    D0, 0x00
00002750  2B40 EFF6                move.l     [A5 - 0x100A], D0
00002754  426D EFF2                clr.w      [A5 - 0x100E]
00002758  426D EFF0                clr.w      [A5 - 0x1010]
0000275C  3B7C 0001 EFF4           move.w     [A5 - 0x100C], 0x1
00002762  422D EFEF                clr.b      [A5 - 0x1011]
00002766  422D EFEE                clr.b      [A5 - 0x1012]
0000276A  422D FD8D                clr.b      [A5 - 0x273]
0000276E  422D F030                clr.b      [A5 - 0xFD0]
00002772  1B7C 0001 EFED           move.b     [A5 - 0x1013], 0x1
00002778  422D F02F                clr.b      [A5 - 0xFD1]
0000277C  426D E088                clr.w      [A5 - 0x1F78]
00002780  42A7                     clr.l      -[A7]
00002782  3F3C 0001                move.w     -[A7], 0x1
00002786  A9B9                     syscall    GetCursor
00002788  205F                     movea.l    A0, [A7]+
0000278A  2050                     movea.l    A0, [A0]
0000278C  43ED EF50                lea.l      A1, [A5 - 0x10B0]
00002790  7010                     moveq.l    D0, 0x10
label00002792:
00002792  22D8                     move.l     [A1]+, [A0]+
00002794  51C8 FFFC                dbf        D0, -0x6 /* 00002792 */
00002798  3B7C 000A EF90           move.w     [A5 - 0x1070], 0xA /* '\n' */
0000279E  426D E09E                clr.w      [A5 - 0x1F62]
000027A2  422D E097                clr.b      [A5 - 0x1F69]
000027A6  422D E2FF                clr.b      [A5 - 0x1D01]
000027AA  422D E2FE                clr.b      [A5 - 0x1D02]
000027AE  422D E2FD                clr.b      [A5 - 0x1D03]
000027B2  422D F017                clr.b      [A5 - 0xFE9]
000027B6  422D F016                clr.b      [A5 - 0xFEA]
000027BA  422D F015                clr.b      [A5 - 0xFEB]
000027BE  422D F014                clr.b      [A5 - 0xFEC]
000027C2  422D F013                clr.b      [A5 - 0xFED]
000027C6  422D F012                clr.b      [A5 - 0xFEE]
000027CA  426D F010                clr.w      [A5 - 0xFF0]
000027CE  422D DEAB                clr.b      [A5 - 0x2155]
000027D2  1B7C 0001 FDD7           move.b     [A5 - 0x229], 0x1
000027D8  422D EFEC                clr.b      [A5 - 0x1014]
000027DC  422D EFEB                clr.b      [A5 - 0x1015]
000027E0  422D EFEA                clr.b      [A5 - 0x1016]
000027E4  422D EFE9                clr.b      [A5 - 0x1017]
000027E8  422D EFE8                clr.b      [A5 - 0x1018]
000027EC  422D EFE7                clr.b      [A5 - 0x1019]
000027F0  422D EFE6                clr.b      [A5 - 0x101A]
000027F4  422D EFE5                clr.b      [A5 - 0x101B]
000027F8  422D EDAB                clr.b      [A5 - 0x1255]
000027FC  422D EFE4                clr.b      [A5 - 0x101C]
00002800  422D EFE3                clr.b      [A5 - 0x101D]
00002804  1B7C 0001 EFE2           move.b     [A5 - 0x101E], 0x1
0000280A  422D EFE1                clr.b      [A5 - 0x101F]
0000280E  422D EFDF                clr.b      [A5 - 0x1021]
00002812  422D EF23                clr.b      [A5 - 0x10DD]
00002816  3B7C 0001 EFDC           move.w     [A5 - 0x1024], 0x1
0000281C  426D EFDA                clr.w      [A5 - 0x1026]
00002820  422D EFD9                clr.b      [A5 - 0x1027]
00002824  422D E208                clr.b      [A5 - 0x1DF8]
00002828  422D E207                clr.b      [A5 - 0x1DF9]
0000282C  422D EF4F                clr.b      [A5 - 0x10B1]
00002830  3B7C 0008 EF4C           move.w     [A5 - 0x10B4], 0x8
00002836  3B7C 0004 EF1C           move.w     [A5 - 0x10E4], 0x4
0000283C  3B7C 000C EF42           move.w     [A5 - 0x10BE], 0xC
00002842  302D EF42                move.w     D0, [A5 - 0x10BE]
00002846  5340                     subq.w     D0, 1
00002848  41ED F8FC                lea.l      A0, [A5 - 0x704]
0000284C  E740                     asl        D0.w, 3
0000284E  43ED EF44                lea.l      A1, [A5 - 0x10BC]
00002852  41F0 0000                lea.l      A0, [A0 + D0.w]
00002856  22D8                     move.l     [A1]+, [A0]+
00002858  22D8                     move.l     [A1]+, [A0]+
0000285A  422D EF41                clr.b      [A5 - 0x10BF]
0000285E  3B7C 0042 DE60           move.w     [A5 - 0x21A0], 0x42 /* 'B' */
00002864  3B7C 0043 DE62           move.w     [A5 - 0x219E], 0x43 /* 'C' */
0000286A  3B7C 0044 DE64           move.w     [A5 - 0x219C], 0x44 /* 'D' */
00002870  3B7C 0046 DE66           move.w     [A5 - 0x219A], 0x46 /* 'F' */
00002876  3B7C 0045 DE68           move.w     [A5 - 0x2198], 0x45 /* 'E' */
0000287C  3B7C 004C DE6A           move.w     [A5 - 0x2196], 0x4C /* 'L' */
00002882  3B7C 004B DE6C           move.w     [A5 - 0x2194], 0x4B /* 'K' */
00002888  3B7C 004E DE6E           move.w     [A5 - 0x2192], 0x4E /* 'N' */
0000288E  3B7C 004D DE70           move.w     [A5 - 0x2190], 0x4D /* 'M' */
00002894  3B7C 004A DE72           move.w     [A5 - 0x218E], 0x4A /* 'J' */
0000289A  3B7C 004F DE74           move.w     [A5 - 0x218C], 0x4F /* 'O' */
000028A0  3B7C 0051 DE76           move.w     [A5 - 0x218A], 0x51 /* 'Q' */
000028A6  3B7C 0049 DE78           move.w     [A5 - 0x2188], 0x49 /* 'I' */
000028AC  3B7C 0053 DE7A           move.w     [A5 - 0x2186], 0x53 /* 'S' */
000028B2  3B7C 0055 DE7C           move.w     [A5 - 0x2184], 0x55 /* 'U' */
000028B8  3B7C 0048 DE7E           move.w     [A5 - 0x2182], 0x48 /* 'H' */
000028BE  3B7C 005A DE80           move.w     [A5 - 0x2180], 0x5A /* 'Z' */
000028C4  3B7C 0057 DE82           move.w     [A5 - 0x217E], 0x57 /* 'W' */
000028CA  42A7                     clr.l      -[A7]
000028CC  2F3A 0240                move.l     -[A7], [PC + 0x240 /* 00002B0E, value 0x4F504552 'OPER' */]
000028D0  3F3C 0001                move.w     -[A7], 0x1
000028D4  4EAD 1892                jsr        [A5 + 0x1892 /* export_782, CODE:16 @ 000005A6 */]
000028D8  2B5F DC74                move.l     [A5 - 0x238C], [A7]+
000028DC  660A                     bne        +0xC /* 000028E8 */
000028DE  2F3C 0000 02F9           move.l     -[A7], 0x2F9
000028E4  4EAD 185A                jsr        [A5 + 0x185A /* export_775, CODE:16 @ 0000042E */]
label000028E8:
000028E8  7000                     moveq.l    D0, 0x00
000028EA  303C 0056                move.w     D0, 0x56 /* 'V' */
000028EE  E888                     lsr        D0, 4
000028F0  E380                     asl        D0, 1
000028F2  3B40 EF36                move.w     [A5 - 0x10CA], D0
000028F6  42A7                     clr.l      -[A7]
000028F8  303C 0081                move.w     D0, 0x81
000028FC  C1ED EF36                muls.w     D0, [A5 - 0x10CA]
00002900  48C0                     ext.l      D0
00002902  2F00                     move.l     -[A7], D0
00002904  4EAD 01E2                jsr        [A5 + 0x1E2 /* export_56, CODE:1 @ 00004614 */]
00002908  2B5F EF32                move.l     [A5 - 0x10CE], [A7]+
0000290C  426D EF3A                clr.w      [A5 - 0x10C6]
00002910  426D EF38                clr.w      [A5 - 0x10C8]
00002914  3B7C 0047 EF3E           move.w     [A5 - 0x10C2], 0x47 /* 'G' */
0000291A  3B7C 0081 EF3C           move.w     [A5 - 0x10C4], 0x81
00002920  4EAD 1592                jsr        [A5 + 0x1592 /* export_686, CODE:15 @ 000007D6 */]
00002924  7000                     moveq.l    D0, 0x00
00002926  303C 0053                move.w     D0, 0x53 /* 'S' */
0000292A  E888                     lsr        D0, 4
0000292C  E380                     asl        D0, 1
0000292E  3B40 EF28                move.w     [A5 - 0x10D8], D0
00002932  42A7                     clr.l      -[A7]
00002934  302D EF28                move.w     D0, [A5 - 0x10D8]
00002938  C1FC 0081                muls.w     D0, 0x81
0000293C  48C0                     ext.l      D0
0000293E  2F00                     move.l     -[A7], D0
00002940  4EAD 01E2                jsr        [A5 + 0x1E2 /* export_56, CODE:1 @ 00004614 */]
00002944  2B5F EF24                move.l     [A5 - 0x10DC], [A7]+
00002948  426D EF2C                clr.w      [A5 - 0x10D4]
0000294C  426D EF2A                clr.w      [A5 - 0x10D6]
00002950  302D EF2C                move.w     D0, [A5 - 0x10D4]
00002954  D07C 0044                add.w      D0, 0x44 /* 'D' */
00002958  3B40 EF30                move.w     [A5 - 0x10D0], D0
0000295C  302D EF2A                move.w     D0, [A5 - 0x10D6]
00002960  D07C 0081                add.w      D0, 0x81
00002964  3B40 EF2E                move.w     [A5 - 0x10D2], D0
00002968  4EAD 22D2                jsr        [A5 + 0x22D2 /* export_1110, CODE:20 @ 000061C0 */]
0000296C  422D DC54                clr.b      [A5 - 0x23AC]
00002970  422D DC53                clr.b      [A5 - 0x23AD]
00002974  2F2D EDB8                move.l     -[A7], [A5 - 0x1248]
00002978  A873                     syscall    SetPort
0000297A  4EAD 2262                jsr        [A5 + 0x2262 /* export_1096, CODE:20 @ 0000535A */]
0000297E  486D EDB0                pea.l      [A5 - 0x1250]
00002982  2F3C 0009 0000           move.l     -[A7], 0x90000 /* '\t\0\0' */
00002988  2F3C 0019 01D8           move.l     -[A7], 0x1901D8
0000298E  A8A7                     syscall    SetRect
00002990  41EE FFDE                lea.l      A0, [A6 - 0x22]
00002994  43ED EDB0                lea.l      A1, [A5 - 0x1250]
00002998  20D9                     move.l     [A0]+, [A1]+
0000299A  20D9                     move.l     [A0]+, [A1]+
0000299C  302E FFE0                move.w     D0, [A6 - 0x20]
000029A0  D07C 000C                add.w      D0, 0xC
000029A4  3D40 FFE0                move.w     [A6 - 0x20], D0
000029A8  302E FFE4                move.w     D0, [A6 - 0x1C]
000029AC  907C 000C                sub.w      D0, 0xC
000029B0  3D40 FFE4                move.w     [A6 - 0x1C], D0
000029B4  41EE FFE6                lea.l      A0, [A6 - 0x1A]
000029B8  43EE FFDE                lea.l      A1, [A6 - 0x22]
000029BC  20D9                     move.l     [A0]+, [A1]+
000029BE  20D9                     move.l     [A0]+, [A1]+
000029C0  42A7                     clr.l      -[A7]
000029C2  486E FFE6                pea.l      [A6 - 0x1A]
000029C6  486E FFDE                pea.l      [A6 - 0x22]
000029CA  A9D2                     syscall    TENew
000029CC  2B5F EDAC                move.l     [A5 - 0x1254], [A7]+
000029D0  41ED 19EA                lea.l      A0, [A5 + 0x19EA /* export_825, CODE:16 @ 00001240 */]
000029D4  226D EDAC                movea.l    A1, [A5 - 0x1254]
000029D8  2251                     movea.l    A1, [A1]
000029DA  2348 0026                move.l     [A1 + 0x26], A0
000029DE  1B7C 0001 E2BF           move.b     [A5 - 0x1D41], 0x1
000029E4  3B7C FFFF E2BC           move.w     [A5 - 0x1D44], 0xFFFF
000029EA  422D E2BB                clr.b      [A5 - 0x1D45]
000029EE  422D E2A6                clr.b      [A5 - 0x1D5A]
000029F2  422D E292                clr.b      [A5 - 0x1D6E]
000029F6  426D E00C                clr.w      [A5 - 0x1FF4]
000029FA  422D E00B                clr.b      [A5 - 0x1FF5]
000029FE  41ED DF7C                lea.l      A0, [A5 - 0x2084]
00002A02  2B48 DFFC                move.l     [A5 - 0x2004], A0
00002A06  3B7C 0004 E000           move.w     [A5 - 0x2000], 0x4
00002A0C  426D E002                clr.w      [A5 - 0x1FFE]
00002A10  426D E004                clr.w      [A5 - 0x1FFC]
00002A14  3B7C 0020 E006           move.w     [A5 - 0x1FFA], 0x20 /* ' ' */
00002A1A  3B7C 0020 E008           move.w     [A5 - 0x1FF8], 0x20 /* ' ' */
00002A20  422D DC73                clr.b      [A5 - 0x238D]
00002A24  422D DC72                clr.b      [A5 - 0x238E]
00002A28  422D DC71                clr.b      [A5 - 0x238F]
00002A2C  422D DC70                clr.b      [A5 - 0x2390]
00002A30  7000                     moveq.l    D0, 0x00
00002A32  2B40 ECA8                move.l     [A5 - 0x1358], D0
00002A36  422D E0DE                clr.b      [A5 - 0x1F22]
00002A3A  422D E0DD                clr.b      [A5 - 0x1F23]
00002A3E  4EAD 15D2                jsr        [A5 + 0x15D2 /* export_694, CODE:15 @ 00000B4E */]
00002A42  42A7                     clr.l      -[A7]
00002A44  3F3C 009F                move.w     -[A7], 0x9F
00002A48  4EAD 0262                jsr        [A5 + 0x262 /* export_72, CODE:1 @ 000046EC */]
00002A4C  2A1F                     move.l     D5, [A7]+
00002A4E  42A7                     clr.l      -[A7]
00002A50  3F3C A88F                move.w     -[A7], 0xA88F
00002A54  4EAD 0262                jsr        [A5 + 0x262 /* export_72, CODE:1 @ 000046EC */]
00002A58  BA9F                     cmp.l      D5, [A7]+
00002A5A  56C0                     sne        D0
00002A5C  4400                     neg.b      D0
00002A5E  1B40 E0DF                move.b     [A5 - 0x1F21], D0
00002A62  422D F2B3                clr.b      [A5 - 0xD4D]
00002A66  42A7                     clr.l      -[A7]
00002A68  3F3C 00B5                move.w     -[A7], 0xB5
00002A6C  4EAD 0262                jsr        [A5 + 0x262 /* export_72, CODE:1 @ 000046EC */]
00002A70  BA9F                     cmp.l      D5, [A7]+
00002A72  56C0                     sne        D0
00002A74  4400                     neg.b      D0
00002A76  1B40 F2B2                move.b     [A5 - 0xD4E], D0
00002A7A  671A                     beq        +0x1C /* 00002A96 */
00002A7C  42A7                     clr.l      -[A7]
00002A7E  3F3C 0004                move.w     -[A7], 0x4
00002A82  2F3C 8402 0008           move.l     -[A7], 0x84020008
00002A88  A8B5                     syscall    ScriptUtil
00002A8A  7001                     moveq.l    D0, 0x01
00002A8C  B09F                     cmp.l      D0, [A7]+
00002A8E  5DC0                     slt        D0
00002A90  4400                     neg.b      D0
00002A92  1B40 F2B3                move.b     [A5 - 0xD4D], D0
label00002A96:
00002A96  2F2D EDB8                move.l     -[A7], [A5 - 0x1248]
00002A9A  A873                     syscall    SetPort
00002A9C  102D F2B3                move.b     D0, [A5 - 0xD4D]
00002AA0  672C                     beq        +0x2E /* 00002ACE */
00002AA2  2F00                     move.l     -[A7], D0
00002AA4  42A7                     clr.l      -[A7]
00002AA6  2F00                     move.l     -[A7], D0
00002AA8  4267                     clr.w      -[A7]
00002AAA  2F3C 8200 0000           move.l     -[A7], 0x82000000
00002AB0  A8B5                     syscall    ScriptUtil
00002AB2  321F                     move.w     D1, [A7]+
00002AB4  201F                     move.l     D0, [A7]+
00002AB6  3F01                     move.w     -[A7], D1
00002AB8  3F3C 0006                move.w     -[A7], 0x6
00002ABC  2F3C 8404 000C           move.l     -[A7], 0x8404000C
00002AC2  A8B5                     syscall    ScriptUtil
00002AC4  221F                     move.l     D1, [A7]+
00002AC6  201F                     move.l     D0, [A7]+
00002AC8  4A81                     tst.l      D1
00002ACA  56C1                     sne        D1
00002ACC  C001                     and.b      D0, D1
label00002ACE:
00002ACE  1B40 F2B9                move.b     [A5 - 0xD47], D0
00002AD2  670C                     beq        +0xE /* 00002AE0 */
00002AD4  206D EDAC                movea.l    A0, [A5 - 0x1254]
00002AD8  2050                     movea.l    A0, [A0]
00002ADA  317C FFFF 003A           move.w     [A0 + 0x3A], 0xFFFF
label00002AE0:
00002AE0  422D DC6B                clr.b      [A5 - 0x2395]
00002AE4  422D F00B                clr.b      [A5 - 0xFF5]
00002AE8  7000                     moveq.l    D0, 0x00
00002AEA  2B40 DC66                move.l     [A5 - 0x239A], D0
00002AEE  7000                     moveq.l    D0, 0x00
00002AF0  2B40 DC5A                move.l     [A5 - 0x23A6], D0
00002AF4  7000                     moveq.l    D0, 0x00
00002AF6  2B40 DC56                move.l     [A5 - 0x23AA], D0
00002AFA  7000                     moveq.l    D0, 0x00
00002AFC  2B40 DC62                move.l     [A5 - 0x239E], D0
00002B00  7000                     moveq.l    D0, 0x00
00002B02  2B40 DC5E                move.l     [A5 - 0x23A2], D0
00002B06  4CDF 00F0                movem.l    D4,D5,D6,D7, [A7]+
00002B0A  4E5E                     unlink     A6
00002B0C  4E75                     rts
00002B0E  4F50                     chk.w      D7, [A0]
00002B10  4552                     chk.w      D2, [A2]
00002B12  0443 6172                subi.w     D3, 0x6172 /* 'ar' */
00002B16  6400 074D                bcc        +0x74F /* 00003265 */
00002B1A  6573                     bcs        +0x75 /* 00002B8F */
00002B1C  7361                     moveq.l    D1, 0x61
00002B1E  6765                     beq        +0x67 /* 00002B85 */
00002B20  0746                     bchg       D6, D3
00002B22  6174                     bsr        +0x76 /* 00002B98 */
00002B24  4269 7473                clr.w      [A1 + 0x7473]
00002B28  0750                     bchg       [A0], D3
00002B2A  6174                     bsr        +0x76 /* 00002BA0 */
00002B2C  7465                     moveq.l    D2, 0x65
00002B2E  726E                     moveq.l    D1, 0x6E
00002B30  0454 6F6F                subi.w     [A4], 0x6F6F /* 'oo' */
00002B34  6C00 1033                bge        +0x1035 /* 00003B69 */
00002B38  3036 3043                move.w     D0, [A6 + D3.w + 0x43]
00002B3C  3038 3130                move.w     D0, [0x00003130]
00002B40  3330 3630                move.w     -[A1], [A0 + D3.w * 8 + 0x30]
00002B44  4331 3800                .invalid   1, [A1 + D3] // invalid opcode 4 with b == 4
00002B48  1034 3431                move.b     D0, [A4 + D3.w * 4 + 0x31]
00002B4C  3134 3431                move.w     -[A0], [A4 + D3.w * 4 + 0x31]
00002B50  3134 3431                move.w     -[A0], [A4 + D3.w * 4 + 0x31]
00002B54  3134 3431                move.w     -[A0], [A4 + D3.w * 4 + 0x31]
00002B58  3100                     move.w     -[A0], D0
fn00002B5A:
00002B5A  4E56 FFF8                link       A6, -0x0008
00002B5E  48E7 0108                movem.l    -[A7], D7,A4
00002B62  42A7                     clr.l      -[A7]
00002B64  4EAD 01B2                jsr        [A5 + 0x1B2 /* export_50, CODE:1 @ 00004368 */]
00002B68  285F                     movea.l    A4, [A7]+
00002B6A  7000                     moveq.l    D0, 0x00
00002B6C  302C 0016                move.w     D0, [A4 + 0x16]
00002B70  80BC 0000 0800           or.l       D0, 0x800
00002B76  3940 0016                move.w     [A4 + 0x16], D0
00002B7A  42A7                     clr.l      -[A7]
00002B7C  4EAD 01C2                jsr        [A5 + 0x1C2 /* export_52, CODE:1 @ 00004394 */]
00002B80  2E1F                     move.l     D7, [A7]+
00002B82  2B7C 0000 0125 F4B8      move.l     [A5 - 0xB48], 0x125
00002B8A  0C87 0003 0D40           cmpi.l     D7, 0x30D40
00002B90  6F08                     ble        +0xA /* 00002B9A */
00002B92  2B7C 0000 025F F4B8      move.l     [A5 - 0xB48], 0x25F
// begin alternate branch 00002B98-00002B9A
fn00002B98:
00002B98  F4B8                     cpusha     INST
// end alternate branch 00002B98-00002B9A
fn00002B98: // (misaligned)
label00002B9A:
00002B9A  0C87 0006 1A80           cmpi.l     D7, 0x61A80
fn00002BA0:
00002BA0  6F08                     ble        +0xA /* 00002BAA */
00002BA2  2B7C 0000 0469 F4B8      move.l     [A5 - 0xB48], 0x469
label00002BAA:
00002BAA  0C87 000C 3500           cmpi.l     D7, 0xC3500
00002BB0  6F08                     ble        +0xA /* 00002BBA */
00002BB2  2B7C 0000 0C91 F4B8      move.l     [A5 - 0xB48], 0xC91
label00002BBA:
00002BBA  2F2D F4B8                move.l     -[A7], [A5 - 0xB48]
00002BBE  7003                     moveq.l    D0, 0x03
00002BC0  2F00                     move.l     -[A7], D0
00002BC2  4EAD 04EA                jsr        [A5 + 0x4EA /* export_153, CODE:1 @ 000051F0 */]
00002BC6  201F                     move.l     D0, [A7]+
00002BC8  E488                     lsr        D0, 2
00002BCA  2B40 F4B0                move.l     [A5 - 0xB50], D0
00002BCE  D0BC 0000 0200           add.l      D0, 0x200
00002BD4  3940 0014                move.w     [A4 + 0x14], D0
00002BD8  4EAD 0242                jsr        [A5 + 0x242 /* export_68, CODE:1 @ 000046A0 */]
00002BDC  397C 0040 0014           move.w     [A4 + 0x14], 0x40 /* '@' */
00002BE2  2F2D F4B8                move.l     -[A7], [A5 - 0xB48]
00002BE6  700C                     moveq.l    D0, 0x0C
00002BE8  2F00                     move.l     -[A7], D0
00002BEA  4EAD 04EA                jsr        [A5 + 0x4EA /* export_153, CODE:1 @ 000051F0 */]
00002BEE  2B5F F4B4                move.l     [A5 - 0xB4C], [A7]+
00002BF2  42A7                     clr.l      -[A7]
00002BF4  202D F4B4                move.l     D0, [A5 - 0xB4C]
00002BF8  5080                     addq.l     D0, 8
00002BFA  2F00                     move.l     -[A7], D0
00002BFC  4EAD 01E2                jsr        [A5 + 0x1E2 /* export_56, CODE:1 @ 00004614 */]
00002C00  2B5F F4AC                move.l     [A5 - 0xB54], [A7]+
00002C04  202D F4AC                move.l     D0, [A5 - 0xB54]
00002C08  5680                     addq.l     D0, 3
00002C0A  C0BC FFFF FFFC           and.l      D0, 0xFFFFFFFC
00002C10  2B40 F4AC                move.l     [A5 - 0xB54], D0
00002C14  202D F4B4                move.l     D0, [A5 - 0xB4C]
00002C18  D0AD F4AC                add.l      D0, [A5 - 0xB54]
00002C1C  2B40 F4A8                move.l     [A5 - 0xB58], D0
00002C20  2F2D F4AC                move.l     -[A7], [A5 - 0xB54]
00002C24  202D F4B4                move.l     D0, [A5 - 0xB4C]
00002C28  5680                     addq.l     D0, 3
00002C2A  E488                     lsr        D0, 2
00002C2C  2F00                     move.l     -[A7], D0
00002C2E  4EAD 1B4A                jsr        [A5 + 0x1B4A /* export_869, CODE:16 @ 00001E9C */]
00002C32  2B6D F4AC F4A4           move.l     [A5 - 0xB5C], [A5 - 0xB54]
00002C38  2B6D F4AC F4A0           move.l     [A5 - 0xB60], [A5 - 0xB54]
00002C3E  2B6D F4AC F49C           move.l     [A5 - 0xB64], [A5 - 0xB54]
00002C44  2B6D F4AC F498           move.l     [A5 - 0xB68], [A5 - 0xB54]
00002C4A  2B6D F4AC F494           move.l     [A5 - 0xB6C], [A5 - 0xB54]
00002C50  2B6D F4AC F490           move.l     [A5 - 0xB70], [A5 - 0xB54]
00002C56  2B6D F4AC F48C           move.l     [A5 - 0xB74], [A5 - 0xB54]
00002C5C  2B6D F4AC F488           move.l     [A5 - 0xB78], [A5 - 0xB54]
00002C62  2B6D F4AC F484           move.l     [A5 - 0xB7C], [A5 - 0xB54]
00002C68  2B6D F4AC F480           move.l     [A5 - 0xB80], [A5 - 0xB54]
00002C6E  7000                     moveq.l    D0, 0x00
00002C70  2B40 F4C4                move.l     [A5 - 0xB3C], D0
00002C74  7000                     moveq.l    D0, 0x00
00002C76  2B40 F4D8                move.l     [A5 - 0xB28], D0
00002C7A  7000                     moveq.l    D0, 0x00
00002C7C  2B40 F4D4                move.l     [A5 - 0xB2C], D0
00002C80  7000                     moveq.l    D0, 0x00
00002C82  2B40 F4D0                move.l     [A5 - 0xB30], D0
00002C86  422D F4CF                clr.b      [A5 - 0xB31]
00002C8A  422D F479                clr.b      [A5 - 0xB87]
00002C8E  422D FD88                clr.b      [A5 - 0x278]
00002C92  422D F4BD                clr.b      [A5 - 0xB43]
00002C96  486D 1F42                pea.l      [A5 + 0x1F42 /* export_996, CODE:19 @ 000011E2 */]
00002C9A  4EAD 01D2                jsr        [A5 + 0x1D2 /* export_54, CODE:1 @ 000043AE */]
00002C9E  486D F3C4                pea.l      [A5 - 0xC3C]
00002CA2  2F3C 0000 00B4           move.l     -[A7], 0xB4
00002CA8  4EAD 1B42                jsr        [A5 + 0x1B42 /* export_868, CODE:16 @ 00001E7C */]
00002CAC  3B7C 0001 F3C2           move.w     [A5 - 0xC3E], 0x1
00002CB2  42A7                     clr.l      -[A7]
00002CB4  7002                     moveq.l    D0, 0x02
00002CB6  2F00                     move.l     -[A7], D0
00002CB8  4EAD 18DA                jsr        [A5 + 0x18DA /* export_791, CODE:16 @ 00000896 */]
00002CBC  2B5F F4E8                move.l     [A5 - 0xB18], [A7]+
00002CC0  206D F4E8                movea.l    A0, [A5 - 0xB18]
00002CC4  2050                     movea.l    A0, [A0]
00002CC6  4250                     clr.w      [A0]
00002CC8  42A7                     clr.l      -[A7]
00002CCA  7002                     moveq.l    D0, 0x02
00002CCC  2F00                     move.l     -[A7], D0
00002CCE  4EAD 18DA                jsr        [A5 + 0x18DA /* export_791, CODE:16 @ 00000896 */]
00002CD2  2B5F F4E4                move.l     [A5 - 0xB1C], [A7]+
00002CD6  206D F4E4                movea.l    A0, [A5 - 0xB1C]
00002CDA  2050                     movea.l    A0, [A0]
00002CDC  4250                     clr.w      [A0]
00002CDE  426D FD68                clr.w      [A5 - 0x298]
00002CE2  426D FC44                clr.w      [A5 - 0x3BC]
00002CE6  3B7C FFFF FC42           move.w     [A5 - 0x3BE], 0xFFFF
00002CEC  422D FD48                clr.b      [A5 - 0x2B8]
00002CF0  422D FC48                clr.b      [A5 - 0x3B8]
00002CF4  42A7                     clr.l      -[A7]
00002CF6  487A 005C                pea.l      [PC + 0x5C /* 00002D54, value 0x48E7, cstring "" */]
00002CFA  4EAD 1FE2                jsr        [A5 + 0x1FE2 /* export_1016, CODE:19 @ 0000227C */]
00002CFE  2B5F F4E0                move.l     [A5 - 0xB20], [A7]+
00002D02  7000                     moveq.l    D0, 0x00
00002D04  2B40 F636                move.l     [A5 - 0x9CA], D0
00002D08  7000                     moveq.l    D0, 0x00
00002D0A  2B40 F632                move.l     [A5 - 0x9CE], D0
00002D0E  4267                     clr.w      -[A7]
00002D10  2F3A 003E                move.l     -[A7], [PC + 0x3E /* 00002D50, value 0x58434D44 'XCMD', cstring "XCMD" */]
00002D14  A99C                     syscall    CountResources
00002D16  3B5F F4DE                move.w     [A5 - 0xB22], [A7]+
00002D1A  4267                     clr.w      -[A7]
00002D1C  2F3A 002E                move.l     -[A7], [PC + 0x2E /* 00002D4C, value 0x5846434E 'XFCN', cstring "XFCNXCMD" */]
00002D20  A99C                     syscall    CountResources
00002D22  3B5F F4DC                move.w     [A5 - 0xB24], [A7]+
00002D26  422D F4CE                clr.b      [A5 - 0xB32]
00002D2A  422D F4CD                clr.b      [A5 - 0xB33]
00002D2E  422D F3C1                clr.b      [A5 - 0xC3F]
00002D32  7000                     moveq.l    D0, 0x00
00002D34  2B40 F4C8                move.l     [A5 - 0xB38], D0
00002D38  422D F4C3                clr.b      [A5 - 0xB3D]
00002D3C  422D F4C2                clr.b      [A5 - 0xB3E]
00002D40  422D F3C0                clr.b      [A5 - 0xC40]
00002D44  4CDF 1080                movem.l    D7,A4, [A7]+
00002D48  4E5E                     unlink     A6
00002D4A  4E75                     rts
00002D4C  5846 434E 5843 4D44      dc.b       "XFCNXCMD"
00002D54  0000 48E7                ori.b      D0, 0xE7
// begin alternate branch 00002D56-00002D5A
export_182:
00002D56  48E7 FFF0                movem.l    -[A7], D0,D1,D2,D3,D4,D5,D6,D7,A0,A1,A2,A3
// end alternate branch 00002D56-00002D5A
export_182: // at 00002D56 (misaligned)
00002D58  FFF0                     .invalid   <<F/7/7>>
00002D5A  4247                     clr.w      D7
00002D5C  41FA 00C0                lea.l      A0, [PC + 0xC0 /* 00002E1E, value 0x658A, cstring "" */]
00002D60  2218                     move.l     D1, [A0]+
00002D62  6F00 00A6                ble        +0xA8 /* 00002E0A */
00002D66  2A18                     move.l     D5, [A0]+
00002D68  6604                     bne        +0x6 /* 00002D6E */
00002D6A  2A0D                     move.l     D5, A5
00002D6C  9A81                     sub.l      D5, D1
label00002D6E:
00002D6E  2645                     movea.l    A3, D5
00002D70  244B                     movea.l    A2, A3
00002D72  E281                     asr        D1, 1
00002D74  6002                     bra        +0x4 /* 00002D78 */
label00002D76:
00002D76  425A                     clr.w      [A2]+
label00002D78:
00002D78  51C9 FFFC                dbf        D1, -0x6 /* 00002D76 */
00002D7C  3018                     move.w     D0, [A0]+
00002D7E  3E18                     move.w     D7, [A0]+
00002D80  6000 0084                bra        +0x86 /* 00002E06 */
label00002D84:
00002D84  7800                     moveq.l    D4, 0x00
00002D86  1818                     move.b     D4, [A0]+
00002D88  2204                     move.l     D1, D4
00002D8A  0201 000F                andi.b     D1, 0xF
00002D8E  0804 0004                btst.b     D4, 0x4
00002D92  670E                     beq        +0x10 /* 00002DA2 */
00002D94  E141                     asl        D1.w, 8
00002D96  1218                     move.b     D1, [A0]+
00002D98  0881 000B                bclr.b     D1, 0xB
00002D9C  6704                     beq        +0x6 /* 00002DA2 */
00002D9E  E181                     asl        D1, 8
00002DA0  1218                     move.b     D1, [A0]+
label00002DA2:
00002DA2  7401                     moveq.l    D2, 0x01
00002DA4  0804 0007                btst.b     D4, 0x7
00002DA8  6716                     beq        +0x18 /* 00002DC0 */
00002DAA  1418                     move.b     D2, [A0]+
00002DAC  0882 0007                bclr.b     D2, 0x7
00002DB0  670E                     beq        +0x10 /* 00002DC0 */
00002DB2  E142                     asl        D2.w, 8
00002DB4  1418                     move.b     D2, [A0]+
00002DB6  0882 000E                bclr.b     D2, 0xE
00002DBA  6704                     beq        +0x6 /* 00002DC0 */
label00002DBC:
00002DBC  E182                     asl        D2, 8
00002DBE  1418                     move.b     D2, [A0]+
label00002DC0:
00002DC0  7C02                     moveq.l    D6, 0x02
00002DC2  4EBA 004C                jsr        [PC + 0x4C /* 00002E10 */]
00002DC6  0885 000F                bclr.b     D5, 0xF
00002DCA  6704                     beq        +0x6 /* 00002DD0 */
00002DCC  E185                     asl        D5, 8
00002DCE  1A18                     move.b     D5, [A0]+
label00002DD0:
00002DD0  43F3 5800                lea.l      A1, [A3 + D5]
00002DD4  2449                     movea.l    A2, A1
00002DD6  0804 0005                btst.b     D4, 0x5
00002DDA  671C                     beq        +0x1E /* 00002DF8 */
00002DDC  2C01                     move.l     D6, D1
00002DDE  4EBA 0030                jsr        [PC + 0x30 /* 00002E10 */]
00002DE2  0C41 0002                cmpi.w     D1, 0x2
label00002DE6:
00002DE6  6706                     beq        +0x8 /* 00002DEE */
00002DE8  6D08                     blt        +0xA /* 00002DF2 */
00002DEA  DB92                     add.l      [A2], D5
00002DEC  600E                     bra        +0x10 /* 00002DFC */
label00002DEE:
00002DEE  DB52                     add.w      [A2], D5
00002DF0  600A                     bra        +0xC /* 00002DFC */
label00002DF2:
00002DF2  DB12                     add.b      [A2], D5
00002DF4  6006                     bra        +0x8 /* 00002DFC */
label00002DF6:
00002DF6  12D8                     move.b     [A1]+, [A0]+
label00002DF8:
00002DF8  51C9 FFFC                dbf        D1, -0x6 /* 00002DF6 */
label00002DFC:
00002DFC  0804 0006                btst.b     D4, 0x6
00002E00  6704                     beq        +0x6 /* 00002E06 */
00002E02  260D                     move.l     D3, A5
00002E04  D792                     add.l      [A2], D3
label00002E06:
00002E06  51C8 FF7C                dbf        D0, -0x86 /* 00002D84 */
label00002E0A:
00002E0A  4CDF 0FFF                movem.l    D0,D1,D2,D3,D4,D5,D6,D7,A0,A1,A2,A3, [A7]+
00002E0E  4E75                     rts
fn00002E10:
00002E10  7A00                     moveq.l    D5, 0x00
00002E12  6004                     bra        +0x6 /* 00002E18 */
label00002E14:
00002E14  E18D                     lsl        D5, 8
00002E16  1A18                     move.b     D5, [A0]+
label00002E18:
00002E18  51CE FFFA                dbf        D6, -0x8 /* 00002E14 */
00002E1C  4E75                     rts
00002E1E  0000 658A                ori.b      D0, 0x8A
00002E22  0000 0000                ori.b      D0, 0x0
00002E26  0005 0000                ori.b      D5, 0x0
00002E2A  101A                     move.b     D0, [A2]+
00002E2C  648E                     bcc        -0x70 /* 00002DBC */
00002E2E  5348                     subq.w     A0, 1
00002E30  0000 0000                ori.b      D0, 0x0
00002E34  FFFF                     .invalid   <<F/7/7>>
00002E36  FEAC FFFF                .extension 0xEAC <<F/2-3/7>> // unimplemented
00002E3A  FEB4 8100                .extension 0xEB4 <<F/2-3/7>> // unimplemented
00002E3E  0000 0000                ori.b      D0, 0x0
00002E42  0000 FFFF                ori.b      D0, 0xFF
00002E46  FEB8 6064                .extension 0xEB8 <<F/2-3/7>> // unimplemented
00002E4A  9460                     sub.w      D2, -[A0]
00002E4C  6498                     bcc        -0x66 /* 00002DE6 */
00002E4E  6064                     bra        +0x66 /* 00002EB4 */
00002E50  A401                     syscall    Close, flags=4
00002E52  64C5                     bcc        -0x39 /* 00002E19 */
00002E54  0100                     btst       D0, D0
00002E56  0000 2E22                ori.b      D0, 0x22 /* '\"' */
00002E5A  2541 3569                move.l     [A2 + 0x3569], D1
