# near model CODE resource
# jump table entries: 3272-3396 (125 of them)
export_409:
00000000  4E56 0000                link       A6, 0
00000004  422E 0008                clr.b      [A6 + 0x8]
00000008  700C                     moveq.l    D0, 0x0C
0000000A  B02D D46A                cmp.b      D0, [A5 - 0x2B96]
0000000E  6618                     bne        +0x1A /* 00000028 */
00000010  1D7C 0001 0008           move.b     [A6 + 0x8], 0x1
00000016  102D D46B                move.b     D0, [A5 - 0x2B95]
0000001A  4880                     ext.w      D0
0000001C  48C0                     ext.l      D0
0000001E  2F00                     move.l     -[A7], D0
00000020  4EAD 0B12                jsr        [A5 + 0xB12 /* export_350, CODE:8 @ 00003A4E */]
00000024  4EAD 08E2                jsr        [A5 + 0x8E2 /* export_280, CODE:8 @ 000000E0 */]
label00000028:
00000028  4E5E                     unlink     A6
0000002A  4E75                     rts
export_410:
0000002C  4E56 FFFE                link       A6, -0x0002
00000030  2F07                     move.l     -[A7], D7
00000032  422E 0008                clr.b      [A6 + 0x8]
00000036  4247                     clr.w      D7
label00000038:
00000038  42A7                     clr.l      -[A7]
0000003A  4EAD 119A                jsr        [A5 + 0x119A /* export_559, CODE:10 @ 00001D8C */]
0000003E  101F                     move.b     D0, [A7]+
00000040  6730                     beq        +0x32 /* 00000072 */
00000042  4267                     clr.w      -[A7]
00000044  4EAD 116A                jsr        [A5 + 0x116A /* export_553, CODE:10 @ 00000D80 */]
00000048  101F                     move.b     D0, [A7]+
0000004A  6602                     bne        +0x4 /* 0000004E */
0000004C  603A                     bra        +0x3C /* 00000088 */
label0000004E:
0000004E  5247                     addq.w     D7, 1
00000050  7006                     moveq.l    D0, 0x06
00000052  B02D D46A                cmp.b      D0, [A5 - 0x2B96]
00000056  57C0                     seq        D0
00000058  4A00                     tst.b      D0
0000005A  6712                     beq        +0x14 /* 0000006E */
0000005C  7203                     moveq.l    D1, 0x03
0000005E  B22D D46B                cmp.b      D1, [A5 - 0x2B95]
00000062  57C1                     seq        D1
00000064  C001                     and.b      D0, D1
00000066  6706                     beq        +0x8 /* 0000006E */
00000068  4EAD 08E2                jsr        [A5 + 0x8E2 /* export_280, CODE:8 @ 000000E0 */]
0000006C  6002                     bra        +0x4 /* 00000070 */
label0000006E:
0000006E  6002                     bra        +0x4 /* 00000072 */
label00000070:
00000070  60C6                     bra        -0x38 /* 00000038 */
label00000072:
00000072  4A47                     tst.w      D7
00000074  6602                     bne        +0x4 /* 00000078 */
00000076  6010                     bra        +0x12 /* 00000088 */
label00000078:
00000078  1D7C 0001 0008           move.b     [A6 + 0x8], 0x1
0000007E  3007                     move.w     D0, D7
00000080  48C0                     ext.l      D0
00000082  2F00                     move.l     -[A7], D0
00000084  4EAD 0B1A                jsr        [A5 + 0xB1A /* export_351, CODE:8 @ 00003A68 */]
label00000088:
00000088  2E1F                     move.l     D7, [A7]+
0000008A  4E5E                     unlink     A6
0000008C  4E75                     rts
export_411:
0000008E  4E56 FFFE                link       A6, -0x0002
00000092  1D6D B66B FFFF           move.b     [A6 - 0x1], [A5 - 0x4995]
00000098  422D B66B                clr.b      [A5 - 0x4995]
0000009C  700C                     moveq.l    D0, 0x0C
0000009E  B02D D46A                cmp.b      D0, [A5 - 0x2B96]
000000A2  660A                     bne        +0xC /* 000000AE */
000000A4  1B6D D46B B66B           move.b     [A5 - 0x4995], [A5 - 0x2B95]
000000AA  4EAD 08E2                jsr        [A5 + 0x8E2 /* export_280, CODE:8 @ 000000E0 */]
label000000AE:
000000AE  4267                     clr.w      -[A7]
000000B0  1F3C 0001                move.b     -[A7], 0x1
000000B4  4EAD 13C2                jsr        [A5 + 0x13C2 /* export_628, CODE:13 @ 000000A8 */]
000000B8  1D5F 0008                move.b     [A6 + 0x8], [A7]+
000000BC  1B6E FFFF B66B           move.b     [A5 - 0x4995], [A6 - 0x1]
000000C2  4E5E                     unlink     A6
000000C4  4E75                     rts
export_412:
000000C6  4E56 FFD4                link       A6, -0x002C
000000CA  1D7C 0001 0008           move.b     [A6 + 0x8], 0x1
000000D0  4267                     clr.w      -[A7]
000000D2  4EAD 08FA                jsr        [A5 + 0x8FA /* export_283, CODE:8 @ 000001A4 */]
000000D6  301F                     move.w     D0, [A7]+
000000D8  5340                     subq.w     D0, 1
000000DA  6712                     beq        +0x14 /* 000000EE */
000000DC  5340                     subq.w     D0, 1
000000DE  671E                     beq        +0x20 /* 000000FE */
000000E0  5340                     subq.w     D0, 1
000000E2  672C                     beq        +0x2E /* 00000110 */
000000E4  5340                     subq.w     D0, 1
000000E6  6738                     beq        +0x3A /* 00000120 */
000000E8  5540                     subq.w     D0, 2
000000EA  6744                     beq        +0x46 /* 00000130 */
000000EC  6054                     bra        +0x56 /* 00000142 */
label000000EE:
000000EE  422E FFD4                clr.b      [A6 - 0x2C]
000000F2  42A7                     clr.l      -[A7]
000000F4  4EAD 147A                jsr        [A5 + 0x147A /* export_651, CODE:13 @ 000016E8 */]
000000F8  2D5F FFD6                move.l     [A6 - 0x2A], [A7]+
000000FC  6044                     bra        +0x46 /* 00000142 */
label000000FE:
000000FE  1D7C 0001 FFD4           move.b     [A6 - 0x2C], 0x1
00000104  42A7                     clr.l      -[A7]
00000106  4EAD 1462                jsr        [A5 + 0x1462 /* export_648, CODE:13 @ 000015F4 */]
0000010A  2D5F FFDA                move.l     [A6 - 0x26], [A7]+
0000010E  6032                     bra        +0x34 /* 00000142 */
label00000110:
00000110  1D7C 0002 FFD4           move.b     [A6 - 0x2C], 0x2
00000116  422E FFDE                clr.b      [A6 - 0x22]
0000011A  4EAD 1432                jsr        [A5 + 0x1432 /* export_642, CODE:13 @ 000010F2 */]
0000011E  6022                     bra        +0x24 /* 00000142 */
label00000120:
00000120  1D7C 0003 FFD4           move.b     [A6 - 0x2C], 0x3
00000126  486E FFE0                pea.l      [A6 - 0x20]
0000012A  4EAD 148A                jsr        [A5 + 0x148A /* export_653, CODE:13 @ 0000172A */]
0000012E  6012                     bra        +0x14 /* 00000142 */
label00000130:
00000130  1D7C 0002 FFD4           move.b     [A6 - 0x2C], 0x2
00000136  42A7                     clr.l      -[A7]
00000138  4EAD 1462                jsr        [A5 + 0x1462 /* export_648, CODE:13 @ 000015F4 */]
0000013C  201F                     move.l     D0, [A7]+
0000013E  1D40 FFDE                move.b     [A6 - 0x22], D0
label00000142:
00000142  486E FFD4                pea.l      [A6 - 0x2C]
00000146  702C                     moveq.l    D0, 0x2C
00000148  2F00                     move.l     -[A7], D0
0000014A  1F3C 0001                move.b     -[A7], 0x1
0000014E  4EAD 0AC2                jsr        [A5 + 0xAC2 /* export_340, CODE:8 @ 000036D2 */]
00000152  4E5E                     unlink     A6
00000154  4E75                     rts
export_413:
00000156  4E56 FFFC                link       A6, -0x0004
0000015A  42A7                     clr.l      -[A7]
0000015C  1F3C 000A                move.b     -[A7], 0xA /* '\n' */
00000160  4EAD 08F2                jsr        [A5 + 0x8F2 /* export_282, CODE:8 @ 0000017A */]
00000164  2D5F FFFC                move.l     [A6 - 0x4], [A7]+
00000168  206E FFFC                movea.l    A0, [A6 - 0x4]
0000016C  7001                     moveq.l    D0, 0x01
0000016E  B050                     cmp.w      D0, [A0]
00000170  57C0                     seq        D0
00000172  4400                     neg.b      D0
00000174  1D40 0008                move.b     [A6 + 0x8], D0
00000178  4E5E                     unlink     A6
0000017A  4E75                     rts
export_414:
0000017C  4E56 FFA4                link       A6, -0x005C
00000180  1D7C 0001 0008           move.b     [A6 + 0x8], 0x1
00000186  1D7C 0005 FFD0           move.b     [A6 - 0x30], 0x5
0000018C  2D6D F4E0 FFFC           move.l     [A6 - 0x4], [A5 - 0xB20]
00000192  4267                     clr.w      -[A7]
00000194  4EAD 08FA                jsr        [A5 + 0x8FA /* export_283, CODE:8 @ 000001A4 */]
00000198  7007                     moveq.l    D0, 0x07
0000019A  B05F                     cmp.w      D0, [A7]+
0000019C  6614                     bne        +0x16 /* 000001B2 */
0000019E  1D7C 0004 FFA4           move.b     [A6 - 0x5C], 0x4
000001A4  1D7C 0001 FFAE           move.b     [A6 - 0x52], 0x1
000001AA  4EAD 1432                jsr        [A5 + 0x1432 /* export_642, CODE:13 @ 000010F2 */]
000001AE  6000 00B0                bra        +0xB2 /* 00000260 */
label000001B2:
000001B2  4267                     clr.w      -[A7]
000001B4  4EAD 08FA                jsr        [A5 + 0x8FA /* export_283, CODE:8 @ 000001A4 */]
000001B8  7009                     moveq.l    D0, 0x09
000001BA  B05F                     cmp.w      D0, [A7]+
000001BC  6614                     bne        +0x16 /* 000001D2 */
000001BE  1D7C 0004 FFA4           move.b     [A6 - 0x5C], 0x4
000001C4  1D7C 0002 FFAE           move.b     [A6 - 0x52], 0x2
000001CA  4EAD 1432                jsr        [A5 + 0x1432 /* export_642, CODE:13 @ 000010F2 */]
000001CE  6000 0090                bra        +0x92 /* 00000260 */
label000001D2:
000001D2  4267                     clr.w      -[A7]
000001D4  4EAD 08FA                jsr        [A5 + 0x8FA /* export_283, CODE:8 @ 000001A4 */]
000001D8  7008                     moveq.l    D0, 0x08
000001DA  B05F                     cmp.w      D0, [A7]+
000001DC  6610                     bne        +0x12 /* 000001EE */
000001DE  486E FFD0                pea.l      [A6 - 0x30]
000001E2  702C                     moveq.l    D0, 0x2C
000001E4  2F00                     move.l     -[A7], D0
000001E6  1F3C 0001                move.b     -[A7], 0x1
000001EA  4EAD 146A                jsr        [A5 + 0x146A /* export_649, CODE:13 @ 00001620 */]
label000001EE:
000001EE  4267                     clr.w      -[A7]
000001F0  4EAD 08FA                jsr        [A5 + 0x8FA /* export_283, CODE:8 @ 000001A4 */]
000001F4  301F                     move.w     D0, [A7]+
000001F6  5340                     subq.w     D0, 1
000001F8  6712                     beq        +0x14 /* 0000020C */
000001FA  5340                     subq.w     D0, 1
000001FC  671E                     beq        +0x20 /* 0000021C */
000001FE  5340                     subq.w     D0, 1
00000200  672C                     beq        +0x2E /* 0000022E */
00000202  5340                     subq.w     D0, 1
00000204  6738                     beq        +0x3A /* 0000023E */
00000206  5540                     subq.w     D0, 2
00000208  6744                     beq        +0x46 /* 0000024E */
0000020A  6054                     bra        +0x56 /* 00000260 */
label0000020C:
0000020C  422E FFA4                clr.b      [A6 - 0x5C]
00000210  42A7                     clr.l      -[A7]
00000212  4EAD 147A                jsr        [A5 + 0x147A /* export_651, CODE:13 @ 000016E8 */]
00000216  2D5F FFA6                move.l     [A6 - 0x5A], [A7]+
0000021A  6044                     bra        +0x46 /* 00000260 */
label0000021C:
0000021C  1D7C 0001 FFA4           move.b     [A6 - 0x5C], 0x1
00000222  42A7                     clr.l      -[A7]
00000224  4EAD 1462                jsr        [A5 + 0x1462 /* export_648, CODE:13 @ 000015F4 */]
00000228  2D5F FFAA                move.l     [A6 - 0x56], [A7]+
0000022C  6032                     bra        +0x34 /* 00000260 */
label0000022E:
0000022E  1D7C 0002 FFA4           move.b     [A6 - 0x5C], 0x2
00000234  422E FFAE                clr.b      [A6 - 0x52]
00000238  4EAD 1432                jsr        [A5 + 0x1432 /* export_642, CODE:13 @ 000010F2 */]
0000023C  6022                     bra        +0x24 /* 00000260 */
label0000023E:
0000023E  1D7C 0003 FFA4           move.b     [A6 - 0x5C], 0x3
00000244  486E FFB0                pea.l      [A6 - 0x50]
00000248  4EAD 148A                jsr        [A5 + 0x148A /* export_653, CODE:13 @ 0000172A */]
0000024C  6012                     bra        +0x14 /* 00000260 */
label0000024E:
0000024E  1D7C 0002 FFA4           move.b     [A6 - 0x5C], 0x2
00000254  42A7                     clr.l      -[A7]
00000256  4EAD 1462                jsr        [A5 + 0x1462 /* export_648, CODE:13 @ 000015F4 */]
0000025A  201F                     move.l     D0, [A7]+
0000025C  1D40 FFAE                move.b     [A6 - 0x52], D0
label00000260:
00000260  486E FFA4                pea.l      [A6 - 0x5C]
00000264  705C                     moveq.l    D0, 0x5C
00000266  2F00                     move.l     -[A7], D0
00000268  1F3C 0002                move.b     -[A7], 0x2
0000026C  4EAD 0AC2                jsr        [A5 + 0xAC2 /* export_340, CODE:8 @ 000036D2 */]
00000270  4E5E                     unlink     A6
00000272  4E75                     rts
export_415:
00000274  4E56 FF3A                link       A6, -0x00C6
00000278  1D7C 0001 0008           move.b     [A6 + 0x8], 0x1
0000027E  486E FFA4                pea.l      [A6 - 0x5C]
00000282  4EAD 179A                jsr        [A5 + 0x179A /* export_751, CODE:15 @ 000063EC */]
00000286  486E FF48                pea.l      [A6 - 0xB8]
0000028A  705C                     moveq.l    D0, 0x5C
0000028C  2F00                     move.l     -[A7], D0
0000028E  1F3C 0002                move.b     -[A7], 0x2
00000292  4EAD 146A                jsr        [A5 + 0x146A /* export_649, CODE:13 @ 00001620 */]
00000296  4267                     clr.w      -[A7]
00000298  486E FF48                pea.l      [A6 - 0xB8]
0000029C  4EAD 2042                jsr        [A5 + 0x2042 /* export_1028, CODE:20 @ 00000472 */]
000002A0  101F                     move.b     D0, [A7]+
000002A2  661E                     bne        +0x20 /* 000002C2 */
000002A4  422E 0008                clr.b      [A6 + 0x8]
000002A8  102D E2FE                move.b     D0, [A5 - 0x1D02]
000002AC  670A                     beq        +0xC /* 000002B8 */
000002AE  3F3C 0001                move.w     -[A7], 0x1
000002B2  4EAD 098A                jsr        [A5 + 0x98A /* export_301, CODE:8 @ 00000B58 */]
000002B6  6030                     bra        +0x32 /* 000002E8 */
label000002B8:
000002B8  3F3C 0002                move.w     -[A7], 0x2
000002BC  4EAD 098A                jsr        [A5 + 0x98A /* export_301, CODE:8 @ 00000B58 */]
000002C0  6026                     bra        +0x28 /* 000002E8 */
label000002C2:
000002C2  486E FF3C                pea.l      [A6 - 0xC4]
000002C6  4EAD 09BA                jsr        [A5 + 0x9BA /* export_307, CODE:8 @ 00000D3C */]
000002CA  486E FF3C                pea.l      [A6 - 0xC4]
000002CE  700C                     moveq.l    D0, 0x0C
000002D0  2F00                     move.l     -[A7], D0
000002D2  1F3C 0003                move.b     -[A7], 0x3
000002D6  4EAD 0AC2                jsr        [A5 + 0xAC2 /* export_340, CODE:8 @ 000036D2 */]
000002DA  4267                     clr.w      -[A7]
000002DC  486E FFA4                pea.l      [A6 - 0x5C]
000002E0  4EAD 2042                jsr        [A5 + 0x2042 /* export_1028, CODE:20 @ 00000472 */]
000002E4  1D5F FF3B                move.b     [A6 - 0xC5], [A7]+
label000002E8:
000002E8  4E5E                     unlink     A6
000002EA  4E75                     rts
fn000002EC:
000002EC  4E56 FFFE                link       A6, -0x0002
000002F0  422E 000C                clr.b      [A6 + 0xC]
000002F4  206D D470                movea.l    A0, [A5 - 0x2B90]
000002F8  3D68 0008 FFFE           move.w     [A6 - 0x2], [A0 + 0x8]
000002FE  42A7                     clr.l      -[A7]
00000300  4EAD 0B6A                jsr        [A5 + 0xB6A /* export_361, CODE:8 @ 00003E00 */]
00000304  101F                     move.b     D0, [A7]+
00000306  671E                     beq        +0x20 /* 00000326 */
00000308  4267                     clr.w      -[A7]
0000030A  4EAD 118A                jsr        [A5 + 0x118A /* export_557, CODE:10 @ 000011D6 */]
0000030E  101F                     move.b     D0, [A7]+
00000310  6708                     beq        +0xA /* 0000031A */
00000312  1D7C 0001 000C           move.b     [A6 + 0xC], 0x1
00000318  600C                     bra        +0xE /* 00000326 */
label0000031A:
0000031A  4EAD 1432                jsr        [A5 + 0x1432 /* export_642, CODE:13 @ 000010F2 */]
0000031E  3F2E FFFE                move.w     -[A7], [A6 - 0x2]
00000322  4EAD 0BD2                jsr        [A5 + 0xBD2 /* export_374, CODE:8 @ 000042A2 */]
label00000326:
00000326  4E5E                     unlink     A6
00000328  2E9F                     move.l     [A7], [A7]+
0000032A  4E75                     rts
export_416:
0000032C  4E56 FECC                link       A6, -0x0134
00000330  48E7 0F08                movem.l    -[A7], D4,D5,D6,D7,A4
00000334  422E 0008                clr.b      [A6 + 0x8]
00000338  700D                     moveq.l    D0, 0x0D
0000033A  B02D D46A                cmp.b      D0, [A5 - 0x2B96]
0000033E  56C0                     sne        D0
00000340  4A00                     tst.b      D0
00000342  670E                     beq        +0x10 /* 00000352 */
00000344  720A                     moveq.l    D1, 0x0A
00000346  B22D D46A                cmp.b      D1, [A5 - 0x2B96]
0000034A  56C1                     sne        D1
0000034C  C001                     and.b      D0, D1
0000034E  6600 0184                bne        +0x186 /* 000004D4 */
label00000352:
00000352  4205                     clr.b      D5
00000354  41EE FFDE                lea.l      A0, [A6 - 0x22]
00000358  43ED AF18                lea.l      A1, [A5 - 0x50E8]
0000035C  7007                     moveq.l    D0, 0x07
label0000035E:
0000035E  20D9                     move.l     [A0]+, [A1]+
00000360  51C8 FFFC                dbf        D0, -0x6 /* 0000035E */
00000364  3091                     move.w     [A0], [A1]
label00000366:
00000366  700D                     moveq.l    D0, 0x0D
00000368  B02D D46A                cmp.b      D0, [A5 - 0x2B96]
0000036C  6600 00D6                bne        +0xD8 /* 00000444 */
00000370  4A2D D46B                tst.b      [A5 - 0x2B95]
00000374  57C4                     seq        D4
00000376  4404                     neg.b      D4
00000378  41EE FFE0                lea.l      A0, [A6 - 0x20]
0000037C  102D D46B                move.b     D0, [A5 - 0x2B95]
00000380  4880                     ext.w      D0
00000382  48C0                     ext.l      D0
00000384  2840                     movea.l    A4, D0
00000386  D9C8                     add.l      A4, A0
00000388  4EAD 08E2                jsr        [A5 + 0x8E2 /* export_280, CODE:8 @ 000000E0 */]
0000038C  4267                     clr.w      -[A7]
0000038E  2F0E                     move.l     -[A7], A6
00000390  4EBA FF5A                jsr        [PC - 0xA6 /* 000002EC */]
00000394  101F                     move.b     D0, [A7]+
00000396  6614                     bne        +0x16 /* 000003AC */
00000398  3F3C 0003                move.w     -[A7], 0x3
0000039C  486E FECC                pea.l      [A6 - 0x134]
000003A0  4EAD 0C92                jsr        [A5 + 0xC92 /* export_398, CODE:8 @ 00004DD8 */]
000003A4  4EAD 097A                jsr        [A5 + 0x97A /* export_299, CODE:8 @ 00000AB2 */]
000003A8  6000 012A                bra        +0x12C /* 000004D4 */
label000003AC:
000003AC  42A7                     clr.l      -[A7]
000003AE  4EAD 147A                jsr        [A5 + 0x147A /* export_651, CODE:13 @ 000016E8 */]
000003B2  2E1F                     move.l     D7, [A7]+
000003B4  2887                     move.l     [A4], D7
000003B6  588C                     addq.l     A4, 4
000003B8  2887                     move.l     [A4], D7
000003BA  7016                     moveq.l    D0, 0x16
000003BC  B02D D46A                cmp.b      D0, [A5 - 0x2B96]
000003C0  57C0                     seq        D0
000003C2  4A00                     tst.b      D0
000003C4  6748                     beq        +0x4A /* 0000040E */
000003C6  720D                     moveq.l    D1, 0x0D
000003C8  B22D D46B                cmp.b      D1, [A5 - 0x2B95]
000003CC  57C1                     seq        D1
000003CE  C001                     and.b      D0, D1
000003D0  673C                     beq        +0x3E /* 0000040E */
000003D2  4EAD 08E2                jsr        [A5 + 0x8E2 /* export_280, CODE:8 @ 000000E0 */]
000003D6  4267                     clr.w      -[A7]
000003D8  2F0E                     move.l     -[A7], A6
000003DA  4EBA FF10                jsr        [PC - 0xF0 /* 000002EC */]
000003DE  101F                     move.b     D0, [A7]+
000003E0  6614                     bne        +0x16 /* 000003F6 */
000003E2  3F3C 0003                move.w     -[A7], 0x3
000003E6  486E FECC                pea.l      [A6 - 0x134]
000003EA  4EAD 0C92                jsr        [A5 + 0xC92 /* export_398, CODE:8 @ 00004DD8 */]
000003EE  4EAD 097A                jsr        [A5 + 0x97A /* export_299, CODE:8 @ 00000AB2 */]
000003F2  6000 00E0                bra        +0xE2 /* 000004D4 */
label000003F6:
000003F6  42A7                     clr.l      -[A7]
000003F8  4EAD 147A                jsr        [A5 + 0x147A /* export_651, CODE:13 @ 000016E8 */]
000003FC  2C1F                     move.l     D6, [A7]+
000003FE  BE86                     cmp.l      D7, D6
00000400  6F0A                     ble        +0xC /* 0000040C */
00000402  2C07                     move.l     D6, D7
00000404  1004                     move.b     D0, D4
00000406  6704                     beq        +0x6 /* 0000040C */
00000408  2C07                     move.l     D6, D7
0000040A  5386                     subq.l     D6, 1
label0000040C:
0000040C  2886                     move.l     [A4], D6
label0000040E:
0000040E  7016                     moveq.l    D0, 0x16
00000410  B02D D46A                cmp.b      D0, [A5 - 0x2B96]
00000414  57C0                     seq        D0
00000416  4A00                     tst.b      D0
00000418  6716                     beq        +0x18 /* 00000430 */
0000041A  7206                     moveq.l    D1, 0x06
0000041C  B22D D46B                cmp.b      D1, [A5 - 0x2B95]
00000420  57C1                     seq        D1
00000422  C001                     and.b      D0, D1
00000424  670A                     beq        +0xC /* 00000430 */
00000426  7A01                     moveq.l    D5, 0x01
00000428  4EAD 08E2                jsr        [A5 + 0x8E2 /* export_280, CODE:8 @ 000000E0 */]
0000042C  6000 FF38                bra        -0xC6 /* 00000366 */
label00000430:
00000430  3F3C 0005                move.w     -[A7], 0x5
00000434  486E FECC                pea.l      [A6 - 0x134]
00000438  4EAD 0C92                jsr        [A5 + 0xC92 /* export_398, CODE:8 @ 00004DD8 */]
0000043C  4EAD 097A                jsr        [A5 + 0x97A /* export_299, CODE:8 @ 00000AB2 */]
00000440  6000 0092                bra        +0x94 /* 000004D4 */
label00000444:
00000444  700A                     moveq.l    D0, 0x0A
00000446  B02D D46A                cmp.b      D0, [A5 - 0x2B96]
0000044A  666E                     bne        +0x70 /* 000004BA */
0000044C  102D D46B                move.b     D0, [A5 - 0x2B95]
00000450  4880                     ext.w      D0
00000452  48C0                     ext.l      D0
00000454  2E00                     move.l     D7, D0
00000456  4EAD 08E2                jsr        [A5 + 0x8E2 /* export_280, CODE:8 @ 000000E0 */]
0000045A  700D                     moveq.l    D0, 0x0D
0000045C  B02D D46A                cmp.b      D0, [A5 - 0x2B96]
00000460  670A                     beq        +0xC /* 0000046C */
00000462  4EAD 0B52                jsr        [A5 + 0xB52 /* export_358, CODE:8 @ 00003D5A */]
00000466  1005                     move.b     D0, D5
00000468  6650                     bne        +0x52 /* 000004BA */
0000046A  6068                     bra        +0x6A /* 000004D4 */
label0000046C:
0000046C  41EE FFE0                lea.l      A0, [A6 - 0x20]
00000470  102D D46B                move.b     D0, [A5 - 0x2B95]
00000474  4880                     ext.w      D0
00000476  48C0                     ext.l      D0
00000478  2840                     movea.l    A4, D0
0000047A  D9C8                     add.l      A4, A0
0000047C  4EAD 08E2                jsr        [A5 + 0x8E2 /* export_280, CODE:8 @ 000000E0 */]
00000480  2887                     move.l     [A4], D7
00000482  588C                     addq.l     A4, 4
00000484  2887                     move.l     [A4], D7
00000486  7016                     moveq.l    D0, 0x16
00000488  B02D D46A                cmp.b      D0, [A5 - 0x2B96]
0000048C  57C0                     seq        D0
0000048E  4A00                     tst.b      D0
00000490  6716                     beq        +0x18 /* 000004A8 */
00000492  7206                     moveq.l    D1, 0x06
00000494  B22D D46B                cmp.b      D1, [A5 - 0x2B95]
00000498  57C1                     seq        D1
0000049A  C001                     and.b      D0, D1
0000049C  670A                     beq        +0xC /* 000004A8 */
0000049E  7A01                     moveq.l    D5, 0x01
000004A0  4EAD 08E2                jsr        [A5 + 0x8E2 /* export_280, CODE:8 @ 000000E0 */]
000004A4  6000 FEC0                bra        -0x13E /* 00000366 */
label000004A8:
000004A8  3F3C 0005                move.w     -[A7], 0x5
000004AC  486E FECC                pea.l      [A6 - 0x134]
000004B0  4EAD 0C92                jsr        [A5 + 0xC92 /* export_398, CODE:8 @ 00004DD8 */]
000004B4  4EAD 097A                jsr        [A5 + 0x97A /* export_299, CODE:8 @ 00000AB2 */]
000004B8  601A                     bra        +0x1C /* 000004D4 */
label000004BA:
000004BA  1D7C 0001 0008           move.b     [A6 + 0x8], 0x1
000004C0  422E FFDE                clr.b      [A6 - 0x22]
000004C4  486E FFDE                pea.l      [A6 - 0x22]
000004C8  7022                     moveq.l    D0, 0x22
000004CA  2F00                     move.l     -[A7], D0
000004CC  1F3C 0004                move.b     -[A7], 0x4
000004D0  4EAD 0AC2                jsr        [A5 + 0xAC2 /* export_340, CODE:8 @ 000036D2 */]
label000004D4:
000004D4  4CDF 10F0                movem.l    D4,D5,D6,D7,A4, [A7]+
000004D8  4E5E                     unlink     A6
000004DA  4E75                     rts
export_417:
000004DC  4E56 FFE6                link       A6, -0x001A
000004E0  1D7C 0001 0008           move.b     [A6 + 0x8], 0x1
000004E6  4267                     clr.w      -[A7]
000004E8  4EAD 08FA                jsr        [A5 + 0x8FA /* export_283, CODE:8 @ 000001A4 */]
000004EC  7007                     moveq.l    D0, 0x07
000004EE  B05F                     cmp.w      D0, [A7]+
000004F0  663A                     bne        +0x3C /* 0000052C */
000004F2  42A7                     clr.l      -[A7]
000004F4  4EAD 147A                jsr        [A5 + 0x147A /* export_651, CODE:13 @ 000016E8 */]
000004F8  201F                     move.l     D0, [A7]+
000004FA  3D40 FFF8                move.w     [A6 - 0x8], D0
000004FE  7064                     moveq.l    D0, 0x64
00000500  B06E FFF8                cmp.w      D0, [A6 - 0x8]
00000504  6F0C                     ble        +0xE /* 00000512 */
00000506  302E FFF8                move.w     D0, [A6 - 0x8]
0000050A  D07C 076C                add.w      D0, 0x76C
0000050E  3D40 FFF8                move.w     [A6 - 0x8], D0
label00000512:
00000512  42A7                     clr.l      -[A7]
00000514  4EAD 147A                jsr        [A5 + 0x147A /* export_651, CODE:13 @ 000016E8 */]
00000518  201F                     move.l     D0, [A7]+
0000051A  3D40 FFFC                move.w     [A6 - 0x4], D0
0000051E  42A7                     clr.l      -[A7]
00000520  4EAD 147A                jsr        [A5 + 0x147A /* export_651, CODE:13 @ 000016E8 */]
00000524  201F                     move.l     D0, [A7]+
00000526  3D40 FFFA                move.w     [A6 - 0x6], D0
0000052A  6028                     bra        +0x2A /* 00000554 */
label0000052C:
0000052C  42A7                     clr.l      -[A7]
0000052E  4EAD 147A                jsr        [A5 + 0x147A /* export_651, CODE:13 @ 000016E8 */]
00000532  201F                     move.l     D0, [A7]+
00000534  3D40 FFF8                move.w     [A6 - 0x8], D0
00000538  42A7                     clr.l      -[A7]
0000053A  4EAD 147A                jsr        [A5 + 0x147A /* export_651, CODE:13 @ 000016E8 */]
0000053E  201F                     move.l     D0, [A7]+
00000540  3D40 FFFC                move.w     [A6 - 0x4], D0
00000544  42A7                     clr.l      -[A7]
00000546  4EAD 147A                jsr        [A5 + 0x147A /* export_651, CODE:13 @ 000016E8 */]
0000054A  201F                     move.l     D0, [A7]+
0000054C  3D40 FFFA                move.w     [A6 - 0x6], D0
00000550  4EAD 1432                jsr        [A5 + 0x1432 /* export_642, CODE:13 @ 000010F2 */]
label00000554:
00000554  486E FFEA                pea.l      [A6 - 0x16]
00000558  700E                     moveq.l    D0, 0x0E
0000055A  2F00                     move.l     -[A7], D0
0000055C  4EAD 1B42                jsr        [A5 + 0x1B42 /* export_868, CODE:16 @ 00001E7C */]
00000560  3D6E FFF8 FFEA           move.w     [A6 - 0x16], [A6 - 0x8]
00000566  3D6E FFFA FFEC           move.w     [A6 - 0x14], [A6 - 0x6]
0000056C  3D6E FFFC FFEE           move.w     [A6 - 0x12], [A6 - 0x4]
00000572  486E FFEA                pea.l      [A6 - 0x16]
00000576  486E FFE6                pea.l      [A6 - 0x1A]
0000057A  4EAD 028A                jsr        [A5 + 0x28A /* export_77, CODE:1 @ 00004732 */]
0000057E  2F2E FFE6                move.l     -[A7], [A6 - 0x1A]
00000582  486E FFEA                pea.l      [A6 - 0x16]
00000586  4EAD 0292                jsr        [A5 + 0x292 /* export_78, CODE:1 @ 00004742 */]
0000058A  3D6E FFF6 FFFE           move.w     [A6 - 0x2], [A6 - 0xA]
00000590  486E FFF8                pea.l      [A6 - 0x8]
00000594  7008                     moveq.l    D0, 0x08
00000596  2F00                     move.l     -[A7], D0
00000598  1F3C 0005                move.b     -[A7], 0x5
0000059C  4EAD 0AC2                jsr        [A5 + 0xAC2 /* export_340, CODE:8 @ 000036D2 */]
000005A0  4E5E                     unlink     A6
000005A2  4E75                     rts
export_418:
000005A4  4E56 FFF0                link       A6, -0x0010
000005A8  1D7C 0001 0008           move.b     [A6 + 0x8], 0x1
000005AE  1D7C 0001 FFF0           move.b     [A6 - 0x10], 0x1
000005B4  42A7                     clr.l      -[A7]
000005B6  4EAD 147A                jsr        [A5 + 0x147A /* export_651, CODE:13 @ 000016E8 */]
000005BA  201F                     move.l     D0, [A7]+
000005BC  3D40 FFFE                move.w     [A6 - 0x2], D0
000005C0  42A7                     clr.l      -[A7]
000005C2  4EAD 147A                jsr        [A5 + 0x147A /* export_651, CODE:13 @ 000016E8 */]
000005C6  201F                     move.l     D0, [A7]+
000005C8  3D40 FFFC                move.w     [A6 - 0x4], D0
000005CC  42A7                     clr.l      -[A7]
000005CE  4EAD 147A                jsr        [A5 + 0x147A /* export_651, CODE:13 @ 000016E8 */]
000005D2  201F                     move.l     D0, [A7]+
000005D4  3D40 FFFA                move.w     [A6 - 0x6], D0
000005D8  42A7                     clr.l      -[A7]
000005DA  4EAD 147A                jsr        [A5 + 0x147A /* export_651, CODE:13 @ 000016E8 */]
000005DE  201F                     move.l     D0, [A7]+
000005E0  3D40 FFF8                move.w     [A6 - 0x8], D0
000005E4  42A7                     clr.l      -[A7]
000005E6  4EAD 147A                jsr        [A5 + 0x147A /* export_651, CODE:13 @ 000016E8 */]
000005EA  201F                     move.l     D0, [A7]+
000005EC  3D40 FFF6                move.w     [A6 - 0xA], D0
000005F0  42A7                     clr.l      -[A7]
000005F2  4EAD 147A                jsr        [A5 + 0x147A /* export_651, CODE:13 @ 000016E8 */]
000005F6  201F                     move.l     D0, [A7]+
000005F8  3D40 FFF4                move.w     [A6 - 0xC], D0
000005FC  42A7                     clr.l      -[A7]
000005FE  4EAD 147A                jsr        [A5 + 0x147A /* export_651, CODE:13 @ 000016E8 */]
00000602  201F                     move.l     D0, [A7]+
00000604  3D40 FFF2                move.w     [A6 - 0xE], D0
00000608  486E FFF0                pea.l      [A6 - 0x10]
0000060C  7010                     moveq.l    D0, 0x10
0000060E  2F00                     move.l     -[A7], D0
00000610  1F3C 0006                move.b     -[A7], 0x6
00000614  4EAD 0AC2                jsr        [A5 + 0xAC2 /* export_340, CODE:8 @ 000036D2 */]
00000618  4E5E                     unlink     A6
0000061A  4E75                     rts
export_419:
0000061C  4E56 0000                link       A6, 0
00000620  422E 0008                clr.b      [A6 + 0x8]
00000624  700F                     moveq.l    D0, 0x0F
00000626  B02D D46A                cmp.b      D0, [A5 - 0x2B96]
0000062A  6618                     bne        +0x1A /* 00000644 */
0000062C  1D7C 0001 0008           move.b     [A6 + 0x8], 0x1
00000632  102D D46B                move.b     D0, [A5 - 0x2B95]
00000636  4880                     ext.w      D0
00000638  48C0                     ext.l      D0
0000063A  2F00                     move.l     -[A7], D0
0000063C  4EAD 0B12                jsr        [A5 + 0xB12 /* export_350, CODE:8 @ 00003A4E */]
00000640  4EAD 08E2                jsr        [A5 + 0x8E2 /* export_280, CODE:8 @ 000000E0 */]
label00000644:
00000644  4E5E                     unlink     A6
00000646  4E75                     rts
export_420:
00000648  4E56 FEA0                link       A6, -0x0160
0000064C  1D7C 0001 0008           move.b     [A6 + 0x8], 0x1
00000652  4267                     clr.w      -[A7]
00000654  4EAD 08FA                jsr        [A5 + 0x8FA /* export_283, CODE:8 @ 000001A4 */]
00000658  7003                     moveq.l    D0, 0x03
0000065A  B05F                     cmp.w      D0, [A7]+
0000065C  6708                     beq        +0xA /* 00000666 */
0000065E  2D6D F4E0 FFF8           move.l     [A6 - 0x8], [A5 - 0xB20]
00000664  6016                     bra        +0x18 /* 0000067C */
label00000666:
00000666  486E FEA0                pea.l      [A6 - 0x160]
0000066A  4EAD 1482                jsr        [A5 + 0x1482 /* export_652, CODE:13 @ 00001714 */]
0000066E  42A7                     clr.l      -[A7]
00000670  486E FEA0                pea.l      [A6 - 0x160]
00000674  4EAD 1FE2                jsr        [A5 + 0x1FE2 /* export_1016, CODE:19 @ 0000227C */]
00000678  2D5F FFF8                move.l     [A6 - 0x8], [A7]+
label0000067C:
0000067C  1D7C 0005 FFA0           move.b     [A6 - 0x60], 0x5
00000682  1D7C 0005 FFCC           move.b     [A6 - 0x34], 0x5
00000688  4267                     clr.w      -[A7]
0000068A  4EAD 08FA                jsr        [A5 + 0x8FA /* export_283, CODE:8 @ 000001A4 */]
0000068E  301F                     move.w     D0, [A7]+
00000690  670A                     beq        +0xC /* 0000069C */
00000692  5340                     subq.w     D0, 1
00000694  6728                     beq        +0x2A /* 000006BE */
00000696  5340                     subq.w     D0, 1
00000698  673E                     beq        +0x40 /* 000006D8 */
0000069A  605C                     bra        +0x5E /* 000006F8 */
label0000069C:
0000069C  1D7C 0001 FFA0           move.b     [A6 - 0x60], 0x1
000006A2  7001                     moveq.l    D0, 0x01
000006A4  2D40 FFA6                move.l     [A6 - 0x5A], D0
000006A8  4EAD 1432                jsr        [A5 + 0x1432 /* export_642, CODE:13 @ 000010F2 */]
000006AC  486E FFA0                pea.l      [A6 - 0x60]
000006B0  705C                     moveq.l    D0, 0x5C
000006B2  2F00                     move.l     -[A7], D0
000006B4  1F3C 0002                move.b     -[A7], 0x2
000006B8  4EAD 0AC2                jsr        [A5 + 0xAC2 /* export_340, CODE:8 @ 000036D2 */]
000006BC  603A                     bra        +0x3C /* 000006F8 */
label000006BE:
000006BE  42A7                     clr.l      -[A7]
000006C0  1F3C 0002                move.b     -[A7], 0x2
000006C4  4EAD 08F2                jsr        [A5 + 0x8F2 /* export_282, CODE:8 @ 0000017A */]
000006C8  2D5F FFFC                move.l     [A6 - 0x4], [A7]+
000006CC  206E FFFC                movea.l    A0, [A6 - 0x4]
000006D0  216E FFF8 0058           move.l     [A0 + 0x58], [A6 - 0x8]
000006D6  6020                     bra        +0x22 /* 000006F8 */
label000006D8:
000006D8  486E FFCC                pea.l      [A6 - 0x34]
000006DC  702C                     moveq.l    D0, 0x2C
000006DE  2F00                     move.l     -[A7], D0
000006E0  1F3C 0001                move.b     -[A7], 0x1
000006E4  4EAD 146A                jsr        [A5 + 0x146A /* export_649, CODE:13 @ 00001620 */]
000006E8  486E FFA0                pea.l      [A6 - 0x60]
000006EC  705C                     moveq.l    D0, 0x5C
000006EE  2F00                     move.l     -[A7], D0
000006F0  1F3C 0002                move.b     -[A7], 0x2
000006F4  4EAD 0AC2                jsr        [A5 + 0xAC2 /* export_340, CODE:8 @ 000036D2 */]
label000006F8:
000006F8  4E5E                     unlink     A6
000006FA  4E75                     rts
export_421:
000006FC  4E56 FFAA                link       A6, -0x0056
00000700  1D7C 0001 0008           move.b     [A6 + 0x8], 0x1
00000706  4267                     clr.w      -[A7]
00000708  4EAD 08FA                jsr        [A5 + 0x8FA /* export_283, CODE:8 @ 000001A4 */]
0000070C  7002                     moveq.l    D0, 0x02
0000070E  B05F                     cmp.w      D0, [A7]+
00000710  57C0                     seq        D0
00000712  4400                     neg.b      D0
00000714  1D40 FFAB                move.b     [A6 - 0x55], D0
00000718  486E FFAC                pea.l      [A6 - 0x54]
0000071C  7054                     moveq.l    D0, 0x54
0000071E  2F00                     move.l     -[A7], D0
00000720  1F3C 0007                move.b     -[A7], 0x7
00000724  4EAD 146A                jsr        [A5 + 0x146A /* export_649, CODE:13 @ 00001620 */]
00000728  102E FFAB                move.b     D0, [A6 - 0x55]
0000072C  6710                     beq        +0x12 /* 0000073E */
0000072E  486E FFAC                pea.l      [A6 - 0x54]
00000732  7022                     moveq.l    D0, 0x22
00000734  2F00                     move.l     -[A7], D0
00000736  1F3C 0004                move.b     -[A7], 0x4
0000073A  4EAD 146A                jsr        [A5 + 0x146A /* export_649, CODE:13 @ 00001620 */]
label0000073E:
0000073E  486E FFAC                pea.l      [A6 - 0x54]
00000742  7054                     moveq.l    D0, 0x54
00000744  2F00                     move.l     -[A7], D0
00000746  1F3C 0007                move.b     -[A7], 0x7
0000074A  4EAD 0AC2                jsr        [A5 + 0xAC2 /* export_340, CODE:8 @ 000036D2 */]
0000074E  4E5E                     unlink     A6
00000750  4E75                     rts
export_422:
00000752  4E56 0000                link       A6, 0
00000756  1D7C 0001 0008           move.b     [A6 + 0x8], 0x1
0000075C  4267                     clr.w      -[A7]
0000075E  4EAD 08FA                jsr        [A5 + 0x8FA /* export_283, CODE:8 @ 000001A4 */]
00000762  7001                     moveq.l    D0, 0x01
00000764  B05F                     cmp.w      D0, [A7]+
00000766  660E                     bne        +0x10 /* 00000776 */
00000768  4EAD 1432                jsr        [A5 + 0x1432 /* export_642, CODE:13 @ 000010F2 */]
0000076C  1F3C 0001                move.b     -[A7], 0x1
00000770  4EAD 0B02                jsr        [A5 + 0xB02 /* export_348, CODE:8 @ 00003A06 */]
00000774  6010                     bra        +0x12 /* 00000786 */
label00000776:
00000776  4267                     clr.w      -[A7]
00000778  4EAD 08FA                jsr        [A5 + 0x8FA /* export_283, CODE:8 @ 000001A4 */]
0000077C  7003                     moveq.l    D0, 0x03
0000077E  B05F                     cmp.w      D0, [A7]+
00000780  6604                     bne        +0x6 /* 00000786 */
00000782  4EAD 0A7A                jsr        [A5 + 0xA7A /* export_331, CODE:8 @ 000030AC */]
label00000786:
00000786  4E5E                     unlink     A6
00000788  4E75                     rts
export_423:
0000078A  4E56 0000                link       A6, 0
0000078E  1D7C 0001 0008           move.b     [A6 + 0x8], 0x1
00000794  42A7                     clr.l      -[A7]
00000796  4EAD 0B12                jsr        [A5 + 0xB12 /* export_350, CODE:8 @ 00003A4E */]
0000079A  4E5E                     unlink     A6
0000079C  4E75                     rts
export_424:
0000079E  4E56 0000                link       A6, 0
000007A2  422E 0008                clr.b      [A6 + 0x8]
000007A6  7002                     moveq.l    D0, 0x02
000007A8  B02D D46A                cmp.b      D0, [A5 - 0x2B96]
000007AC  660C                     bne        +0xE /* 000007BA */
000007AE  1D7C 0001 0008           move.b     [A6 + 0x8], 0x1
000007B4  42A7                     clr.l      -[A7]
000007B6  4EAD 0B12                jsr        [A5 + 0xB12 /* export_350, CODE:8 @ 00003A4E */]
label000007BA:
000007BA  4E5E                     unlink     A6
000007BC  4E75                     rts
export_425:
000007BE  4E56 0000                link       A6, 0
000007C2  42A7                     clr.l      -[A7]
000007C4  4EAD 119A                jsr        [A5 + 0x119A /* export_559, CODE:10 @ 00001D8C */]
000007C8  1D5F 0008                move.b     [A6 + 0x8], [A7]+
000007CC  4E5E                     unlink     A6
000007CE  4E75                     rts
export_426:
000007D0  4E56 0000                link       A6, 0
000007D4  422E 0008                clr.b      [A6 + 0x8]
000007D8  7002                     moveq.l    D0, 0x02
000007DA  B02D D46A                cmp.b      D0, [A5 - 0x2B96]
000007DE  57C0                     seq        D0
000007E0  7204                     moveq.l    D1, 0x04
000007E2  B22D D46A                cmp.b      D1, [A5 - 0x2B96]
000007E6  57C1                     seq        D1
000007E8  8001                     or.b       D0, D1
000007EA  6702                     beq        +0x4 /* 000007EE */
000007EC  6020                     bra        +0x22 /* 0000080E */
label000007EE:
000007EE  1D7C 0001 0008           move.b     [A6 + 0x8], 0x1
000007F4  536D AADC                subq.w     [A5 - 0x5524], 1
000007F8  42A7                     clr.l      -[A7]
000007FA  4EAD 0B6A                jsr        [A5 + 0xB6A /* export_361, CODE:8 @ 00003E00 */]
000007FE  101F                     move.b     D0, [A7]+
00000800  6608                     bne        +0xA /* 0000080A */
00000802  4EAD 0B42                jsr        [A5 + 0xB42 /* export_356, CODE:8 @ 00003C82 */]
00000806  422D AAE3                clr.b      [A5 - 0x551D]
label0000080A:
0000080A  526D AADC                addq.w     [A5 - 0x5524], 1
label0000080E:
0000080E  4E5E                     unlink     A6
00000810  4E75                     rts
export_427:
00000812  4E56 0000                link       A6, 0
00000816  1D7C 0001 0008           move.b     [A6 + 0x8], 0x1
0000081C  4267                     clr.w      -[A7]
0000081E  4EAD 08FA                jsr        [A5 + 0x8FA /* export_283, CODE:8 @ 000001A4 */]
00000822  7001                     moveq.l    D0, 0x01
00000824  B05F                     cmp.w      D0, [A7]+
00000826  6602                     bne        +0x4 /* 0000082A */
00000828  6022                     bra        +0x24 /* 0000084C */
label0000082A:
0000082A  7002                     moveq.l    D0, 0x02
0000082C  B02D D46A                cmp.b      D0, [A5 - 0x2B96]
00000830  57C0                     seq        D0
00000832  7204                     moveq.l    D1, 0x04
00000834  B22D D46A                cmp.b      D1, [A5 - 0x2B96]
00000838  57C1                     seq        D1
0000083A  8001                     or.b       D0, D1
0000083C  6706                     beq        +0x8 /* 00000844 */
0000083E  422E 0008                clr.b      [A6 + 0x8]
00000842  6008                     bra        +0xA /* 0000084C */
label00000844:
00000844  4EAD 1432                jsr        [A5 + 0x1432 /* export_642, CODE:13 @ 000010F2 */]
00000848  4EAD 0B4A                jsr        [A5 + 0xB4A /* export_357, CODE:8 @ 00003D42 */]
label0000084C:
0000084C  4E5E                     unlink     A6
0000084E  4E75                     rts
export_428:
00000850  4E56 0000                link       A6, 0
00000854  2F3C 0064 0000           move.l     -[A7], 0x640000 /* 'd\0\0' */
0000085A  4EAD 119A                jsr        [A5 + 0x119A /* export_559, CODE:10 @ 00001D8C */]
0000085E  1D5F 0008                move.b     [A6 + 0x8], [A7]+
00000862  4E5E                     unlink     A6
00000864  4E75                     rts
export_429:
00000866  4E56 0000                link       A6, 0
0000086A  1D7C 0001 0008           move.b     [A6 + 0x8], 0x1
00000870  4267                     clr.w      -[A7]
00000872  4EAD 08FA                jsr        [A5 + 0x8FA /* export_283, CODE:8 @ 000001A4 */]
00000876  7001                     moveq.l    D0, 0x01
00000878  B05F                     cmp.w      D0, [A7]+
0000087A  6602                     bne        +0x4 /* 0000087E */
0000087C  6016                     bra        +0x18 /* 00000894 */
label0000087E:
0000087E  7002                     moveq.l    D0, 0x02
00000880  B02D D46A                cmp.b      D0, [A5 - 0x2B96]
00000884  6606                     bne        +0x8 /* 0000088C */
00000886  422E 0008                clr.b      [A6 + 0x8]
0000088A  6008                     bra        +0xA /* 00000894 */
label0000088C:
0000088C  4EAD 1432                jsr        [A5 + 0x1432 /* export_642, CODE:13 @ 000010F2 */]
00000890  4EAD 0B4A                jsr        [A5 + 0xB4A /* export_357, CODE:8 @ 00003D42 */]
label00000894:
00000894  4E5E                     unlink     A6
00000896  4E75                     rts
export_430:
00000898  4E56 FFFC                link       A6, -0x0004
0000089C  42A7                     clr.l      -[A7]
0000089E  1F3C 000A                move.b     -[A7], 0xA /* '\n' */
000008A2  4EAD 08F2                jsr        [A5 + 0x8F2 /* export_282, CODE:8 @ 0000017A */]
000008A6  2D5F FFFC                move.l     [A6 - 0x4], [A7]+
000008AA  206E FFFC                movea.l    A0, [A6 - 0x4]
000008AE  7002                     moveq.l    D0, 0x02
000008B0  B050                     cmp.w      D0, [A0]
000008B2  57C0                     seq        D0
000008B4  4400                     neg.b      D0
000008B6  1D40 0008                move.b     [A6 + 0x8], D0
000008BA  4E5E                     unlink     A6
000008BC  4E75                     rts
export_431:
000008BE  4E56 FFFE                link       A6, -0x0002
000008C2  1D7C 0001 0008           move.b     [A6 + 0x8], 0x1
000008C8  42A7                     clr.l      -[A7]
000008CA  4EAD 1462                jsr        [A5 + 0x1462 /* export_648, CODE:13 @ 000015F4 */]
000008CE  201F                     move.l     D0, [A7]+
000008D0  1D40 FFFF                move.b     [A6 - 0x1], D0
000008D4  422E FFFE                clr.b      [A6 - 0x2]
000008D8  4267                     clr.w      -[A7]
000008DA  4EAD 08FA                jsr        [A5 + 0x8FA /* export_283, CODE:8 @ 000001A4 */]
000008DE  7001                     moveq.l    D0, 0x01
000008E0  B05F                     cmp.w      D0, [A7]+
000008E2  660E                     bne        +0x10 /* 000008F2 */
000008E4  42A7                     clr.l      -[A7]
000008E6  4EAD 1462                jsr        [A5 + 0x1462 /* export_648, CODE:13 @ 000015F4 */]
000008EA  201F                     move.l     D0, [A7]+
000008EC  1D40 FFFE                move.b     [A6 - 0x2], D0
000008F0  6004                     bra        +0x6 /* 000008F6 */
label000008F2:
000008F2  4EAD 1432                jsr        [A5 + 0x1432 /* export_642, CODE:13 @ 000010F2 */]
label000008F6:
000008F6  486E FFFE                pea.l      [A6 - 0x2]
000008FA  7002                     moveq.l    D0, 0x02
000008FC  2F00                     move.l     -[A7], D0
000008FE  1F3C 0008                move.b     -[A7], 0x8
00000902  4EAD 0AC2                jsr        [A5 + 0xAC2 /* export_340, CODE:8 @ 000036D2 */]
00000906  4E5E                     unlink     A6
00000908  4E75                     rts
export_432:
0000090A  4E56 0000                link       A6, 0
0000090E  4267                     clr.w      -[A7]
00000910  3F2D CF6A                move.w     -[A7], [A5 - 0x3096]
00000914  4EAD 119A                jsr        [A5 + 0x119A /* export_559, CODE:10 @ 00001D8C */]
00000918  1D5F 0008                move.b     [A6 + 0x8], [A7]+
0000091C  4E5E                     unlink     A6
0000091E  4E75                     rts
export_433:
00000920  4E56 0000                link       A6, 0
00000924  422E 0008                clr.b      [A6 + 0x8]
00000928  700E                     moveq.l    D0, 0x0E
0000092A  B02D D46A                cmp.b      D0, [A5 - 0x2B96]
0000092E  6C1A                     bge        +0x1C /* 0000094A */
00000930  1D7C 0001 0008           move.b     [A6 + 0x8], 0x1
00000936  486D D46C                pea.l      [A5 - 0x2B94]
0000093A  7004                     moveq.l    D0, 0x04
0000093C  2F00                     move.l     -[A7], D0
0000093E  1F3C 0009                move.b     -[A7], 0x9 /* '\t' */
00000942  4EAD 0AC2                jsr        [A5 + 0xAC2 /* export_340, CODE:8 @ 000036D2 */]
00000946  4EAD 08E2                jsr        [A5 + 0x8E2 /* export_280, CODE:8 @ 000000E0 */]
label0000094A:
0000094A  4E5E                     unlink     A6
0000094C  4E75                     rts
export_434:
0000094E  4E56 FFFE                link       A6, -0x0002
00000952  2F07                     move.l     -[A7], D7
00000954  422E 0008                clr.b      [A6 + 0x8]
00000958  4247                     clr.w      D7
label0000095A:
0000095A  700E                     moveq.l    D0, 0x0E
0000095C  B02D D46A                cmp.b      D0, [A5 - 0x2B96]
00000960  6C52                     bge        +0x54 /* 000009B4 */
00000962  5247                     addq.w     D7, 1
00000964  486D D46C                pea.l      [A5 - 0x2B94]
00000968  7004                     moveq.l    D0, 0x04
0000096A  2F00                     move.l     -[A7], D0
0000096C  1F3C 0009                move.b     -[A7], 0x9 /* '\t' */
00000970  4EAD 0AC2                jsr        [A5 + 0xAC2 /* export_340, CODE:8 @ 000036D2 */]
00000974  4EAD 08E2                jsr        [A5 + 0x8E2 /* export_280, CODE:8 @ 000000E0 */]
00000978  7002                     moveq.l    D0, 0x02
0000097A  B02D D46A                cmp.b      D0, [A5 - 0x2B96]
0000097E  6612                     bne        +0x14 /* 00000992 */
00000980  1D7C 0001 0008           move.b     [A6 + 0x8], 0x1
00000986  3007                     move.w     D0, D7
00000988  48C0                     ext.l      D0
0000098A  2F00                     move.l     -[A7], D0
0000098C  4EAD 0B1A                jsr        [A5 + 0xB1A /* export_351, CODE:8 @ 00003A68 */]
00000990  6022                     bra        +0x24 /* 000009B4 */
label00000992:
00000992  7006                     moveq.l    D0, 0x06
00000994  B02D D46A                cmp.b      D0, [A5 - 0x2B96]
00000998  57C0                     seq        D0
0000099A  4A00                     tst.b      D0
0000099C  6712                     beq        +0x14 /* 000009B0 */
0000099E  7203                     moveq.l    D1, 0x03
000009A0  B22D D46B                cmp.b      D1, [A5 - 0x2B95]
000009A4  57C1                     seq        D1
000009A6  C001                     and.b      D0, D1
000009A8  6706                     beq        +0x8 /* 000009B0 */
000009AA  4EAD 08E2                jsr        [A5 + 0x8E2 /* export_280, CODE:8 @ 000000E0 */]
000009AE  6002                     bra        +0x4 /* 000009B2 */
label000009B0:
000009B0  6002                     bra        +0x4 /* 000009B4 */
label000009B2:
000009B2  60A6                     bra        -0x58 /* 0000095A */
label000009B4:
000009B4  2E1F                     move.l     D7, [A7]+
000009B6  4E5E                     unlink     A6
000009B8  4E75                     rts
export_435:
000009BA  4E56 FEF0                link       A6, -0x0110
000009BE  422E 0008                clr.b      [A6 + 0x8]
000009C2  4EAD 0B42                jsr        [A5 + 0xB42 /* export_356, CODE:8 @ 00003C82 */]
000009C6  486E FEF0                pea.l      [A6 - 0x110]
000009CA  4EAD 1482                jsr        [A5 + 0x1482 /* export_652, CODE:13 @ 00001714 */]
000009CE  422E FFF0                clr.b      [A6 - 0x10]
000009D2  4267                     clr.w      -[A7]
000009D4  2F2D B108                move.l     -[A7], [A5 - 0x4EF8]
000009D8  4EAD 1912                jsr        [A5 + 0x1912 /* export_798, CODE:16 @ 00000BA6 */]
000009DC  101F                     move.b     D0, [A7]+
000009DE  6706                     beq        +0x8 /* 000009E6 */
000009E0  2F2D B108                move.l     -[A7], [A5 - 0x4EF8]
000009E4  A9A2                     syscall    LoadResource
label000009E6:
000009E6  2F2D B108                move.l     -[A7], [A5 - 0x4EF8]
000009EA  4EAD 0222                jsr        [A5 + 0x222 /* export_64, CODE:1 @ 00004678 */]
000009EE  42A7                     clr.l      -[A7]
000009F0  41EE FEF0                lea.l      A0, [A6 - 0x110]
000009F4  2008                     move.l     D0, A0
000009F6  5280                     addq.l     D0, 1
000009F8  2F00                     move.l     -[A7], D0
000009FA  4240                     clr.w      D0
000009FC  102E FEF0                move.b     D0, [A6 - 0x110]
00000A00  48C0                     ext.l      D0
00000A02  2F00                     move.l     -[A7], D0
00000A04  486D AF3A                pea.l      [A5 - 0x50C6]
00000A08  3F3C 0006                move.w     -[A7], 0x6
00000A0C  2F2D B108                move.l     -[A7], [A5 - 0x4EF8]
00000A10  4EAD 1BBA                jsr        [A5 + 0x1BBA /* export_883, CODE:17 @ 00000624 */]
00000A14  2D5F FFF2                move.l     [A6 - 0xE], [A7]+
00000A18  2F2D B108                move.l     -[A7], [A5 - 0x4EF8]
00000A1C  4EAD 022A                jsr        [A5 + 0x22A /* export_65, CODE:1 @ 00004682 */]
00000A20  70FF                     moveq.l    D0, 0xFFFFFFFF
00000A22  B0AE FFF2                cmp.l      D0, [A6 - 0xE]
00000A26  6716                     beq        +0x18 /* 00000A3E */
00000A28  1D7C 0001 0008           move.b     [A6 + 0x8], 0x1
00000A2E  486E FFF0                pea.l      [A6 - 0x10]
00000A32  7010                     moveq.l    D0, 0x10
00000A34  2F00                     move.l     -[A7], D0
00000A36  1F3C 0006                move.b     -[A7], 0x6
00000A3A  4EAD 0AC2                jsr        [A5 + 0xAC2 /* export_340, CODE:8 @ 000036D2 */]
label00000A3E:
00000A3E  4E5E                     unlink     A6
00000A40  4E75                     rts
export_436:
00000A42  4E56 0000                link       A6, 0
00000A46  422E 0008                clr.b      [A6 + 0x8]
00000A4A  7007                     moveq.l    D0, 0x07
00000A4C  B02D D46A                cmp.b      D0, [A5 - 0x2B96]
00000A50  660A                     bne        +0xC /* 00000A5C */
00000A52  1D7C 0001 0008           move.b     [A6 + 0x8], 0x1
00000A58  4EAD 0B4A                jsr        [A5 + 0xB4A /* export_357, CODE:8 @ 00003D42 */]
label00000A5C:
00000A5C  4E5E                     unlink     A6
00000A5E  4E75                     rts
export_437:
00000A60  4E56 FFFE                link       A6, -0x0002
00000A64  1D7C 0001 0008           move.b     [A6 + 0x8], 0x1
00000A6A  4267                     clr.w      -[A7]
00000A6C  4EAD 08FA                jsr        [A5 + 0x8FA /* export_283, CODE:8 @ 000001A4 */]
00000A70  3D5F FFFE                move.w     [A6 - 0x2], [A7]+
00000A74  4EAD 1432                jsr        [A5 + 0x1432 /* export_642, CODE:13 @ 000010F2 */]
00000A78  486E FFFE                pea.l      [A6 - 0x2]
00000A7C  7002                     moveq.l    D0, 0x02
00000A7E  2F00                     move.l     -[A7], D0
00000A80  1F3C 0014                move.b     -[A7], 0x14
00000A84  4EAD 0AC2                jsr        [A5 + 0xAC2 /* export_340, CODE:8 @ 000036D2 */]
00000A88  4E5E                     unlink     A6
00000A8A  4E75                     rts
export_438:
00000A8C  4E56 FE00                link       A6, -0x0200
00000A90  422E 0008                clr.b      [A6 + 0x8]
00000A94  41ED 9A82                lea.l      A0, [A5 - 0x657E]
00000A98  B1ED A80C                cmpa.l     A0, [A5 - 0x57F4]
00000A9C  6602                     bne        +0x4 /* 00000AA0 */
00000A9E  6034                     bra        +0x36 /* 00000AD4 */
label00000AA0:
00000AA0  206D A80C                movea.l    A0, [A5 - 0x57F4]
00000AA4  2F10                     move.l     -[A7], [A0]
00000AA6  486E FF00                pea.l      [A6 - 0x100]
00000AAA  4EAD 09FA                jsr        [A5 + 0x9FA /* export_315, CODE:8 @ 0000125A */]
00000AAE  4267                     clr.w      -[A7]
00000AB0  486E FE00                pea.l      [A6 - 0x200]
00000AB4  4EAD 0C92                jsr        [A5 + 0xC92 /* export_398, CODE:8 @ 00004DD8 */]
00000AB8  486E FF00                pea.l      [A6 - 0x100]
00000ABC  4EAD 1AC2                jsr        [A5 + 0x1AC2 /* export_852, CODE:16 @ 00001B82 */]
00000AC0  101F                     move.b     D0, [A7]+
00000AC2  6710                     beq        +0x12 /* 00000AD4 */
00000AC4  1D7C 0001 0008           move.b     [A6 + 0x8], 0x1
00000ACA  4EAD 08E2                jsr        [A5 + 0x8E2 /* export_280, CODE:8 @ 000000E0 */]
00000ACE  42A7                     clr.l      -[A7]
00000AD0  4EAD 0B12                jsr        [A5 + 0xB12 /* export_350, CODE:8 @ 00003A4E */]
label00000AD4:
00000AD4  4E5E                     unlink     A6
00000AD6  4E75                     rts
export_439:
00000AD8  4E56 0000                link       A6, 0
00000ADC  422E 0008                clr.b      [A6 + 0x8]
00000AE0  7010                     moveq.l    D0, 0x10
00000AE2  B02D D46A                cmp.b      D0, [A5 - 0x2B96]
00000AE6  6618                     bne        +0x1A /* 00000B00 */
00000AE8  1D7C 0001 0008           move.b     [A6 + 0x8], 0x1
00000AEE  102D D46B                move.b     D0, [A5 - 0x2B95]
00000AF2  4880                     ext.w      D0
00000AF4  48C0                     ext.l      D0
00000AF6  2F00                     move.l     -[A7], D0
00000AF8  4EAD 0B1A                jsr        [A5 + 0xB1A /* export_351, CODE:8 @ 00003A68 */]
00000AFC  4EAD 08E2                jsr        [A5 + 0x8E2 /* export_280, CODE:8 @ 000000E0 */]
label00000B00:
00000B00  4E5E                     unlink     A6
00000B02  4E75                     rts
export_440:
00000B04  4E56 FF00                link       A6, -0x0100
00000B08  1D7C 0001 0008           move.b     [A6 + 0x8], 0x1
00000B0E  700E                     moveq.l    D0, 0x0E
00000B10  B02D D46A                cmp.b      D0, [A5 - 0x2B96]
00000B14  6F16                     ble        +0x18 /* 00000B2C */
00000B16  7002                     moveq.l    D0, 0x02
00000B18  B02D D46A                cmp.b      D0, [A5 - 0x2B96]
00000B1C  6708                     beq        +0xA /* 00000B26 */
00000B1E  3F3C 0004                move.w     -[A7], 0x4
00000B22  4EAD 098A                jsr        [A5 + 0x98A /* export_301, CODE:8 @ 00000B58 */]
label00000B26:
00000B26  422E 0008                clr.b      [A6 + 0x8]
00000B2A  6040                     bra        +0x42 /* 00000B6C */
label00000B2C:
00000B2C  41ED 9A82                lea.l      A0, [A5 - 0x657E]
00000B30  B1ED A80C                cmpa.l     A0, [A5 - 0x57F4]
00000B34  6616                     bne        +0x18 /* 00000B4C */
00000B36  4EAD 08E2                jsr        [A5 + 0x8E2 /* export_280, CODE:8 @ 000000E0 */]
00000B3A  7002                     moveq.l    D0, 0x02
00000B3C  B02D D46A                cmp.b      D0, [A5 - 0x2B96]
00000B40  6706                     beq        +0x8 /* 00000B48 */
00000B42  422E 0008                clr.b      [A6 + 0x8]
00000B46  6024                     bra        +0x26 /* 00000B6C */
label00000B48:
00000B48  4EAD 0B52                jsr        [A5 + 0xB52 /* export_358, CODE:8 @ 00003D5A */]
label00000B4C:
00000B4C  4267                     clr.w      -[A7]
00000B4E  2F2D D466                move.l     -[A7], [A5 - 0x2B9A]
00000B52  486E FF00                pea.l      [A6 - 0x100]
00000B56  4EAD 0C92                jsr        [A5 + 0xC92 /* export_398, CODE:8 @ 00004DD8 */]
00000B5A  4EAD 0A8A                jsr        [A5 + 0xA8A /* export_333, CODE:8 @ 000031AC */]
00000B5E  301F                     move.w     D0, [A7]+
00000B60  48C0                     ext.l      D0
00000B62  2F00                     move.l     -[A7], D0
00000B64  4EAD 0B1A                jsr        [A5 + 0xB1A /* export_351, CODE:8 @ 00003A68 */]
00000B68  4EAD 08E2                jsr        [A5 + 0x8E2 /* export_280, CODE:8 @ 000000E0 */]
label00000B6C:
00000B6C  4E5E                     unlink     A6
00000B6E  4E75                     rts
export_441:
00000B70  4E56 0000                link       A6, 0
00000B74  422E 0008                clr.b      [A6 + 0x8]
00000B78  700A                     moveq.l    D0, 0x0A
00000B7A  B02D D46A                cmp.b      D0, [A5 - 0x2B96]
00000B7E  6618                     bne        +0x1A /* 00000B98 */
00000B80  1D7C 0001 0008           move.b     [A6 + 0x8], 0x1
00000B86  102D D46B                move.b     D0, [A5 - 0x2B95]
00000B8A  4880                     ext.w      D0
00000B8C  48C0                     ext.l      D0
00000B8E  2F00                     move.l     -[A7], D0
00000B90  4EAD 0B12                jsr        [A5 + 0xB12 /* export_350, CODE:8 @ 00003A4E */]
00000B94  4EAD 08E2                jsr        [A5 + 0x8E2 /* export_280, CODE:8 @ 000000E0 */]
label00000B98:
00000B98  4E5E                     unlink     A6
00000B9A  4E75                     rts
fn00000B9C:
00000B9C  4E56 FFE2                link       A6, -0x001E
00000BA0  48E7 0018                movem.l    -[A7], A3,A4
00000BA4  266E 0010                movea.l    A3, [A6 + 0x10]
00000BA8  422E 0014                clr.b      [A6 + 0x14]
00000BAC  7001                     moveq.l    D0, 0x01
00000BAE  B013                     cmp.b      D0, [A3]
00000BB0  6702                     beq        +0x4 /* 00000BB4 */
00000BB2  605A                     bra        +0x5C /* 00000C0E */
label00000BB4:
00000BB4  202B 0002                move.l     D0, [A3 + 0x2]
00000BB8  B0AD F4E0                cmp.l      D0, [A5 - 0xB20]
00000BBC  670A                     beq        +0xC /* 00000BC8 */
00000BBE  3F3C 0006                move.w     -[A7], 0x6
00000BC2  4EAD 098A                jsr        [A5 + 0x98A /* export_301, CODE:8 @ 00000B58 */]
00000BC6  6046                     bra        +0x48 /* 00000C0E */
label00000BC8:
00000BC8  286E 000C                movea.l    A4, [A6 + 0xC]
00000BCC  296B 0010 0002           move.l     [A4 + 0x2], [A3 + 0x10]
00000BD2  296B 0006 0006           move.l     [A4 + 0x6], [A3 + 0x6]
00000BD8  296B 000A 000A           move.l     [A4 + 0xA], [A3 + 0xA]
00000BDE  197C 0002 000E           move.b     [A4 + 0xE], 0x2
00000BE4  396B 000E 0010           move.w     [A4 + 0x10], [A3 + 0xE]
00000BEA  4267                     clr.w      -[A7]
00000BEC  2F2C 0002                move.l     -[A7], [A4 + 0x2]
00000BF0  3F2C 0010                move.w     -[A7], [A4 + 0x10]
00000BF4  486E FFE2                pea.l      [A6 - 0x1E]
00000BF8  4EAD 1DB2                jsr        [A5 + 0x1DB2 /* export_946, CODE:18 @ 00000D08 */]
00000BFC  101F                     move.b     D0, [A7]+
00000BFE  670E                     beq        +0x10 /* 00000C0E */
00000C00  102E FFE6                move.b     D0, [A6 - 0x1A]
00000C04  4880                     ext.w      D0
00000C06  3880                     move.w     [A4], D0
00000C08  1D7C 0001 0014           move.b     [A6 + 0x14], 0x1
label00000C0E:
00000C0E  4CDF 1800                movem.l    A3,A4, [A7]+
00000C12  4E5E                     unlink     A6
00000C14  205F                     movea.l    A0, [A7]+
00000C16  DEFC 000C                add.w      A7, 0xC
00000C1A  4ED0                     jmp        [A0]
export_442:
00000C1C  4E56 FFBA                link       A6, -0x0046
00000C20  422E 0008                clr.b      [A6 + 0x8]
00000C24  4267                     clr.w      -[A7]
00000C26  4EAD 08FA                jsr        [A5 + 0x8FA /* export_283, CODE:8 @ 000001A4 */]
00000C2A  7007                     moveq.l    D0, 0x07
00000C2C  B05F                     cmp.w      D0, [A7]+
00000C2E  661E                     bne        +0x20 /* 00000C4E */
00000C30  4EAD 1432                jsr        [A5 + 0x1432 /* export_642, CODE:13 @ 000010F2 */]
00000C34  4267                     clr.w      -[A7]
00000C36  486D B63A                pea.l      [A5 - 0x49C6]
00000C3A  486E FFD0                pea.l      [A6 - 0x30]
00000C3E  2F0E                     move.l     -[A7], A6
00000C40  4EBA FF5A                jsr        [PC - 0xA6 /* 00000B9C */]
00000C44  101F                     move.b     D0, [A7]+
00000C46  6600 014A                bne        +0x14C /* 00000D92 */
00000C4A  6000 015C                bra        +0x15E /* 00000DA8 */
label00000C4E:
00000C4E  4267                     clr.w      -[A7]
00000C50  4EAD 08FA                jsr        [A5 + 0x8FA /* export_283, CODE:8 @ 000001A4 */]
00000C54  7008                     moveq.l    D0, 0x08
00000C56  B05F                     cmp.w      D0, [A7]+
00000C58  6636                     bne        +0x38 /* 00000C90 */
00000C5A  4EAD 1432                jsr        [A5 + 0x1432 /* export_642, CODE:13 @ 000010F2 */]
00000C5E  41ED 9A82                lea.l      A0, [A5 - 0x657E]
00000C62  B1ED A80C                cmpa.l     A0, [A5 - 0x57F4]
00000C66  56C0                     sne        D0
00000C68  4A00                     tst.b      D0
00000C6A  6720                     beq        +0x22 /* 00000C8C */
00000C6C  2F00                     move.l     -[A7], D0
00000C6E  4267                     clr.w      -[A7]
00000C70  206D A80C                movea.l    A0, [A5 - 0x57F4]
00000C74  4868 0020                pea.l      [A0 + 0x20]
00000C78  486E FFD0                pea.l      [A6 - 0x30]
00000C7C  2F0E                     move.l     -[A7], A6
00000C7E  4EBA FF1C                jsr        [PC - 0xE4 /* 00000B9C */]
00000C82  121F                     move.b     D1, [A7]+
00000C84  201F                     move.l     D0, [A7]+
00000C86  C001                     and.b      D0, D1
00000C88  6600 0108                bne        +0x10A /* 00000D92 */
label00000C8C:
00000C8C  6000 011A                bra        +0x11C /* 00000DA8 */
label00000C90:
00000C90  4267                     clr.w      -[A7]
00000C92  4EAD 08FA                jsr        [A5 + 0x8FA /* export_283, CODE:8 @ 000001A4 */]
00000C96  7006                     moveq.l    D0, 0x06
00000C98  B05F                     cmp.w      D0, [A7]+
00000C9A  6612                     bne        +0x14 /* 00000CAE */
00000C9C  486E FFBA                pea.l      [A6 - 0x46]
00000CA0  700C                     moveq.l    D0, 0x0C
00000CA2  2F00                     move.l     -[A7], D0
00000CA4  1F3C 0003                move.b     -[A7], 0x3
00000CA8  4EAD 146A                jsr        [A5 + 0x146A /* export_649, CODE:13 @ 00001620 */]
00000CAC  6008                     bra        +0xA /* 00000CB6 */
label00000CAE:
00000CAE  486E FFBA                pea.l      [A6 - 0x46]
00000CB2  4EAD 09BA                jsr        [A5 + 0x9BA /* export_307, CODE:8 @ 00000D3C */]
label00000CB6:
00000CB6  4267                     clr.w      -[A7]
00000CB8  4EAD 08FA                jsr        [A5 + 0x8FA /* export_283, CODE:8 @ 000001A4 */]
00000CBC  301F                     move.w     D0, [A7]+
00000CBE  5540                     subq.w     D0, 2
00000CC0  670A                     beq        +0xC /* 00000CCC */
00000CC2  5540                     subq.w     D0, 2
00000CC4  6728                     beq        +0x2A /* 00000CEE */
00000CC6  5340                     subq.w     D0, 1
00000CC8  6748                     beq        +0x4A /* 00000D12 */
00000CCA  607E                     bra        +0x80 /* 00000D4A */
label00000CCC:
00000CCC  1D7C 0001 FFDE           move.b     [A6 - 0x22], 0x1
00000CD2  486E FFCE                pea.l      [A6 - 0x32]
00000CD6  7002                     moveq.l    D0, 0x02
00000CD8  2F00                     move.l     -[A7], D0
00000CDA  1F3C 0015                move.b     -[A7], 0x15
00000CDE  4EAD 146A                jsr        [A5 + 0x146A /* export_649, CODE:13 @ 00001620 */]
00000CE2  42A7                     clr.l      -[A7]
00000CE4  4EAD 1462                jsr        [A5 + 0x1462 /* export_648, CODE:13 @ 000015F4 */]
00000CE8  2D5F FFE0                move.l     [A6 - 0x20], [A7]+
00000CEC  605C                     bra        +0x5E /* 00000D4A */
label00000CEE:
00000CEE  1D7C 0002 FFDE           move.b     [A6 - 0x22], 0x2
00000CF4  42A7                     clr.l      -[A7]
00000CF6  4EAD 147A                jsr        [A5 + 0x147A /* export_651, CODE:13 @ 000016E8 */]
00000CFA  201F                     move.l     D0, [A7]+
00000CFC  3D40 FFE0                move.w     [A6 - 0x20], D0
00000D00  486E FFCE                pea.l      [A6 - 0x32]
00000D04  7002                     moveq.l    D0, 0x02
00000D06  2F00                     move.l     -[A7], D0
00000D08  1F3C 0015                move.b     -[A7], 0x15
00000D0C  4EAD 146A                jsr        [A5 + 0x146A /* export_649, CODE:13 @ 00001620 */]
00000D10  6038                     bra        +0x3A /* 00000D4A */
label00000D12:
00000D12  4267                     clr.w      -[A7]
00000D14  4EAD 118A                jsr        [A5 + 0x118A /* export_557, CODE:10 @ 000011D6 */]
00000D18  101F                     move.b     D0, [A7]+
00000D1A  6712                     beq        +0x14 /* 00000D2E */
00000D1C  1D7C 0001 FFDE           move.b     [A6 - 0x22], 0x1
00000D22  42A7                     clr.l      -[A7]
00000D24  4EAD 147A                jsr        [A5 + 0x147A /* export_651, CODE:13 @ 000016E8 */]
00000D28  2D5F FFE0                move.l     [A6 - 0x20], [A7]+
00000D2C  600C                     bra        +0xE /* 00000D3A */
label00000D2E:
00000D2E  422E FFDE                clr.b      [A6 - 0x22]
00000D32  486E FFE0                pea.l      [A6 - 0x20]
00000D36  4EAD 148A                jsr        [A5 + 0x148A /* export_653, CODE:13 @ 0000172A */]
label00000D3A:
00000D3A  486E FFCE                pea.l      [A6 - 0x32]
00000D3E  7002                     moveq.l    D0, 0x02
00000D40  2F00                     move.l     -[A7], D0
00000D42  1F3C 0015                move.b     -[A7], 0x15
00000D46  4EAD 146A                jsr        [A5 + 0x146A /* export_649, CODE:13 @ 00001620 */]
label00000D4A:
00000D4A  202E FFC2                move.l     D0, [A6 - 0x3E]
00000D4E  B0AD F4E0                cmp.l      D0, [A5 - 0xB20]
00000D52  670A                     beq        +0xC /* 00000D5E */
00000D54  3F3C 0006                move.w     -[A7], 0x6
00000D58  4EAD 098A                jsr        [A5 + 0x98A /* export_301, CODE:8 @ 00000B58 */]
00000D5C  604A                     bra        +0x4C /* 00000DA8 */
label00000D5E:
00000D5E  2D6E FFBA FFDA           move.l     [A6 - 0x26], [A6 - 0x46]
00000D64  2D6E FFBE FFD6           move.l     [A6 - 0x2A], [A6 - 0x42]
00000D6A  102E FFCE                move.b     D0, [A6 - 0x32]
00000D6E  6708                     beq        +0xA /* 00000D78 */
00000D70  2D6E FFD6 FFD2           move.l     [A6 - 0x2E], [A6 - 0x2A]
00000D76  6006                     bra        +0x8 /* 00000D7E */
label00000D78:
00000D78  2D6E FFDA FFD2           move.l     [A6 - 0x2E], [A6 - 0x26]
label00000D7E:
00000D7E  102E FFCF                move.b     D0, [A6 - 0x31]
00000D82  6708                     beq        +0xA /* 00000D8C */
00000D84  3D7C 0001 FFD0           move.w     [A6 - 0x30], 0x1
00000D8A  6006                     bra        +0x8 /* 00000D92 */
label00000D8C:
00000D8C  3D7C 0002 FFD0           move.w     [A6 - 0x30], 0x2
label00000D92:
00000D92  1D7C 0001 0008           move.b     [A6 + 0x8], 0x1
00000D98  486E FFD0                pea.l      [A6 - 0x30]
00000D9C  7030                     moveq.l    D0, 0x30
00000D9E  2F00                     move.l     -[A7], D0
00000DA0  1F3C 000A                move.b     -[A7], 0xA /* '\n' */
00000DA4  4EAD 0AC2                jsr        [A5 + 0xAC2 /* export_340, CODE:8 @ 000036D2 */]
label00000DA8:
00000DA8  4E5E                     unlink     A6
00000DAA  4E75                     rts
export_443:
00000DAC  4E56 FFFE                link       A6, -0x0002
00000DB0  48E7 0300                movem.l    -[A7], D6,D7
00000DB4  1D7C 0001 0008           move.b     [A6 + 0x8], 0x1
00000DBA  4267                     clr.w      -[A7]
00000DBC  4EAD 08FA                jsr        [A5 + 0x8FA /* export_283, CODE:8 @ 000001A4 */]
00000DC0  7004                     moveq.l    D0, 0x04
00000DC2  B05F                     cmp.w      D0, [A7]+
00000DC4  57C6                     seq        D6
00000DC6  4406                     neg.b      D6
00000DC8  4EAD 1432                jsr        [A5 + 0x1432 /* export_642, CODE:13 @ 000010F2 */]
00000DCC  4267                     clr.w      -[A7]
00000DCE  4EAD 08FA                jsr        [A5 + 0x8FA /* export_283, CODE:8 @ 000001A4 */]
00000DD2  301F                     move.w     D0, [A7]+
00000DD4  5340                     subq.w     D0, 1
00000DD6  670A                     beq        +0xC /* 00000DE2 */
00000DD8  5340                     subq.w     D0, 1
00000DDA  670A                     beq        +0xC /* 00000DE6 */
00000DDC  5340                     subq.w     D0, 1
00000DDE  670A                     beq        +0xC /* 00000DEA */
00000DE0  600E                     bra        +0x10 /* 00000DF0 */
label00000DE2:
00000DE2  4207                     clr.b      D7
00000DE4  600A                     bra        +0xC /* 00000DF0 */
label00000DE6:
00000DE6  7E01                     moveq.l    D7, 0x01
00000DE8  6006                     bra        +0x8 /* 00000DF0 */
label00000DEA:
00000DEA  1E06                     move.b     D7, D6
00000DEC  0A07 0001                xori.b     D7, 0x1
label00000DF0:
00000DF0  4EAD 1432                jsr        [A5 + 0x1432 /* export_642, CODE:13 @ 000010F2 */]
00000DF4  1006                     move.b     D0, D6
00000DF6  6718                     beq        +0x1A /* 00000E10 */
00000DF8  1007                     move.b     D0, D7
00000DFA  670A                     beq        +0xC /* 00000E06 */
00000DFC  7002                     moveq.l    D0, 0x02
00000DFE  2F00                     move.l     -[A7], D0
00000E00  4EAD 0B1A                jsr        [A5 + 0xB1A /* export_351, CODE:8 @ 00003A68 */]
00000E04  6020                     bra        +0x22 /* 00000E26 */
label00000E06:
00000E06  7001                     moveq.l    D0, 0x01
00000E08  2F00                     move.l     -[A7], D0
00000E0A  4EAD 0B1A                jsr        [A5 + 0xB1A /* export_351, CODE:8 @ 00003A68 */]
00000E0E  6016                     bra        +0x18 /* 00000E26 */
label00000E10:
00000E10  1007                     move.b     D0, D7
00000E12  670A                     beq        +0xC /* 00000E1E */
00000E14  7004                     moveq.l    D0, 0x04
00000E16  2F00                     move.l     -[A7], D0
00000E18  4EAD 0B1A                jsr        [A5 + 0xB1A /* export_351, CODE:8 @ 00003A68 */]
00000E1C  6008                     bra        +0xA /* 00000E26 */
label00000E1E:
00000E1E  7003                     moveq.l    D0, 0x03
00000E20  2F00                     move.l     -[A7], D0
00000E22  4EAD 0B1A                jsr        [A5 + 0xB1A /* export_351, CODE:8 @ 00003A68 */]
label00000E26:
00000E26  4CDF 00C0                movem.l    D6,D7, [A7]+
00000E2A  4E5E                     unlink     A6
00000E2C  4E75                     rts
export_444:
00000E2E  4E56 FFFE                link       A6, -0x0002
00000E32  422E 0008                clr.b      [A6 + 0x8]
00000E36  7016                     moveq.l    D0, 0x16
00000E38  B02D D46A                cmp.b      D0, [A5 - 0x2B96]
00000E3C  6704                     beq        +0x6 /* 00000E42 */
00000E3E  6000 0098                bra        +0x9A /* 00000ED8 */
label00000E42:
00000E42  102D D46B                move.b     D0, [A5 - 0x2B95]
00000E46  4880                     ext.w      D0
00000E48  5340                     subq.w     D0, 1
00000E4A  6726                     beq        +0x28 /* 00000E72 */
00000E4C  5540                     subq.w     D0, 2
00000E4E  670A                     beq        +0xC /* 00000E5A */
00000E50  5340                     subq.w     D0, 1
00000E52  671E                     beq        +0x20 /* 00000E72 */
00000E54  5340                     subq.w     D0, 1
00000E56  6702                     beq        +0x4 /* 00000E5A */
00000E58  607E                     bra        +0x80 /* 00000ED8 */
label00000E5A:
00000E5A  7003                     moveq.l    D0, 0x03
00000E5C  B02D D46B                cmp.b      D0, [A5 - 0x2B95]
00000E60  57C0                     seq        D0
00000E62  4400                     neg.b      D0
00000E64  1D40 FFFF                move.b     [A6 - 0x1], D0
00000E68  0A00 0001                xori.b     D0, 0x1
00000E6C  1D40 FFFE                move.b     [A6 - 0x2], D0
00000E70  604C                     bra        +0x4E /* 00000EBE */
label00000E72:
00000E72  7001                     moveq.l    D0, 0x01
00000E74  B02D D46B                cmp.b      D0, [A5 - 0x2B95]
00000E78  57C0                     seq        D0
00000E7A  4400                     neg.b      D0
00000E7C  1D40 FFFE                move.b     [A6 - 0x2], D0
00000E80  4EAD 08E2                jsr        [A5 + 0x8E2 /* export_280, CODE:8 @ 000000E0 */]
00000E84  7016                     moveq.l    D0, 0x16
00000E86  B02D D46A                cmp.b      D0, [A5 - 0x2B96]
00000E8A  56C0                     sne        D0
00000E8C  4A00                     tst.b      D0
00000E8E  661A                     bne        +0x1C /* 00000EAA */
00000E90  7205                     moveq.l    D1, 0x05
00000E92  B22D D46B                cmp.b      D1, [A5 - 0x2B95]
00000E96  56C1                     sne        D1
00000E98  4A01                     tst.b      D1
00000E9A  6710                     beq        +0x12 /* 00000EAC */
00000E9C  7403                     moveq.l    D2, 0x03
00000E9E  B42D D46B                cmp.b      D2, [A5 - 0x2B95]
00000EA2  56C2                     sne        D2
00000EA4  C202                     and.b      D1, D2
00000EA6  8001                     or.b       D0, D1
00000EA8  6702                     beq        +0x4 /* 00000EAC */
label00000EAA:
00000EAA  602C                     bra        +0x2E /* 00000ED8 */
label00000EAC:
00000EAC  7003                     moveq.l    D0, 0x03
00000EAE  B02D D46B                cmp.b      D0, [A5 - 0x2B95]
00000EB2  57C0                     seq        D0
00000EB4  4400                     neg.b      D0
00000EB6  1D40 FFFF                move.b     [A6 - 0x1], D0
00000EBA  6002                     bra        +0x4 /* 00000EBE */
00000EBC  601A                     bra        +0x1C /* 00000ED8 */
label00000EBE:
00000EBE  4EAD 08E2                jsr        [A5 + 0x8E2 /* export_280, CODE:8 @ 000000E0 */]
00000EC2  1D7C 0001 0008           move.b     [A6 + 0x8], 0x1
00000EC8  486E FFFE                pea.l      [A6 - 0x2]
00000ECC  7002                     moveq.l    D0, 0x02
00000ECE  2F00                     move.l     -[A7], D0
00000ED0  1F3C 0015                move.b     -[A7], 0x15
00000ED4  4EAD 0AC2                jsr        [A5 + 0xAC2 /* export_340, CODE:8 @ 000036D2 */]
label00000ED8:
00000ED8  4E5E                     unlink     A6
00000EDA  4E75                     rts
export_445:
00000EDC  4E56 FFFC                link       A6, -0x0004
00000EE0  1D7C 0001 0008           move.b     [A6 + 0x8], 0x1
00000EE6  42A7                     clr.l      -[A7]
00000EE8  4EAD 1462                jsr        [A5 + 0x1462 /* export_648, CODE:13 @ 000015F4 */]
00000EEC  201F                     move.l     D0, [A7]+
00000EEE  3D40 FFFC                move.w     [A6 - 0x4], D0
00000EF2  42A7                     clr.l      -[A7]
00000EF4  4EAD 1462                jsr        [A5 + 0x1462 /* export_648, CODE:13 @ 000015F4 */]
00000EF8  201F                     move.l     D0, [A7]+
00000EFA  3D40 FFFE                move.w     [A6 - 0x2], D0
00000EFE  486E FFFC                pea.l      [A6 - 0x4]
00000F02  7004                     moveq.l    D0, 0x04
00000F04  2F00                     move.l     -[A7], D0
00000F06  1F3C 000B                move.b     -[A7], 0xB
00000F0A  4EAD 0AC2                jsr        [A5 + 0xAC2 /* export_340, CODE:8 @ 000036D2 */]
00000F0E  4E5E                     unlink     A6
00000F10  4E75                     rts
export_446:
00000F12  4E56 0000                link       A6, 0
00000F16  422E 0008                clr.b      [A6 + 0x8]
00000F1A  700B                     moveq.l    D0, 0x0B
00000F1C  B02D D46A                cmp.b      D0, [A5 - 0x2B96]
00000F20  6618                     bne        +0x1A /* 00000F3A */
00000F22  1D7C 0001 0008           move.b     [A6 + 0x8], 0x1
00000F28  102D D46B                move.b     D0, [A5 - 0x2B95]
00000F2C  4880                     ext.w      D0
00000F2E  48C0                     ext.l      D0
00000F30  2F00                     move.l     -[A7], D0
00000F32  4EAD 0B12                jsr        [A5 + 0xB12 /* export_350, CODE:8 @ 00003A4E */]
00000F36  4EAD 08E2                jsr        [A5 + 0x8E2 /* export_280, CODE:8 @ 000000E0 */]
label00000F3A:
00000F3A  4E5E                     unlink     A6
00000F3C  4E75                     rts
export_447:
fn00000F3E:
00000F3E  4E56 FFFE                link       A6, -0x0002
00000F42  422E 0008                clr.b      [A6 + 0x8]
00000F46  7014                     moveq.l    D0, 0x14
00000F48  B02D D46A                cmp.b      D0, [A5 - 0x2B96]
00000F4C  6620                     bne        +0x22 /* 00000F6E */
00000F4E  1D7C 0001 0008           move.b     [A6 + 0x8], 0x1
00000F54  1D6D D46B FFFF           move.b     [A6 - 0x1], [A5 - 0x2B95]
00000F5A  486E FFFF                pea.l      [A6 - 0x1]
00000F5E  7001                     moveq.l    D0, 0x01
00000F60  2F00                     move.l     -[A7], D0
00000F62  1F3C 0016                move.b     -[A7], 0x16
00000F66  4EAD 0AC2                jsr        [A5 + 0xAC2 /* export_340, CODE:8 @ 000036D2 */]
00000F6A  4EAD 08E2                jsr        [A5 + 0x8E2 /* export_280, CODE:8 @ 000000E0 */]
label00000F6E:
00000F6E  4E5E                     unlink     A6
00000F70  4E75                     rts
export_448:
00000F72  4E56 0000                link       A6, 0
00000F76  1B6D D46B B533           move.b     [A5 - 0x4ACD], [A5 - 0x2B95]
00000F7C  4267                     clr.w      -[A7]
00000F7E  4EBA FFBE                jsr        [PC - 0x42 /* 00000F3E */]
00000F82  1D5F 0008                move.b     [A6 + 0x8], [A7]+
00000F86  4E5E                     unlink     A6
00000F88  4E75                     rts
export_449:
00000F8A  4E56 FFFE                link       A6, -0x0002
00000F8E  48E7 0108                movem.l    -[A7], D7,A4
00000F92  422E 0008                clr.b      [A6 + 0x8]
00000F96  206D D450                movea.l    A0, [A5 - 0x2BB0]
00000F9A  2850                     movea.l    A4, [A0]
00000F9C  102D B533                move.b     D0, [A5 - 0x4ACD]
00000FA0  4880                     ext.w      D0
00000FA2  6B00 00BC                bmi        +0xBE /* 00001060 */
00000FA6  0C40 0038                cmpi.w     D0, 0x38 /* '8' */
00000FAA  6E00 00B4                bgt        +0xB6 /* 00001060 */
00000FAE  D040                     add.w      D0, D0
00000FB0  303B 0006                move.w     D0, [PC + D0.w + 0x6]
00000FB4  4EFB 0000                jmp        [PC + D0.w]
00000FB8  0074 00AA 0098           ori.w      [A4 + D0.w - 0x68], 0xAA
00000FBE  0092 008C 009E           ori.l      [A2], 0x8C009E
00000FC4  0074 0080 00A4           ori.w      [A4 + D0.w - 0x5C], 0x80
00000FCA  0080 00AA 0074           ori.l      D0, 0xAA0074
00000FD0  0086 0086 0086           ori.l      D6, 0x860086
00000FD6  0086 0080 0086           ori.l      D6, 0x800086
00000FDC  0086 0074 0080           ori.l      D6, 0x740080
00000FE2  0086 0086 0080           ori.l      D6, 0x860080
00000FE8  0086 0086 0086           ori.l      D6, 0x860086
00000FEE  0080 0080 0080           ori.l      D0, 0x800080
00000FF4  0080 0086 0086           ori.l      D0, 0x860086
00000FFA  0074 0086 0086           ori.w      [A4 + D0.w - 0x7A], 0x86
00001000  0086 0074 0080           ori.l      D6, 0x740080
00001006  0074 0086 0086           ori.w      [A4 + D0.w - 0x7A], 0x86
0000100C  0086 0086 0086           ori.l      D6, 0x860086
00001012  0086 0086 0086           ori.l      D6, 0x860086
00001018  00AA 007A 007A 007A      ori.l      [A2 + 0x7A], 0x7A007A /* 'z\0z' */
00001020  007A 008C 008C           ori.w      [PC + 0x8C /* 000010AE, value 0x4EAD */], 0x8C
00001026  007A 007A 3E2C           ori.w      [PC + 0x3E2C /* 00004E54, value 0x4EBA */], 0x7A /* 'z' */
0000102C  0194                     bclr       [A4], D0
0000102E  603A                     bra        +0x3C /* 0000106A */
00001030  3E2C 0190                move.w     D7, [A4 + 0x190]
00001034  6034                     bra        +0x36 /* 0000106A */
00001036  3E2C 0192                move.w     D7, [A4 + 0x192]
0000103A  602E                     bra        +0x30 /* 0000106A */
0000103C  3E2C 018E                move.w     D7, [A4 + 0x18E]
00001040  6028                     bra        +0x2A /* 0000106A */
00001042  3E2C 018C                move.w     D7, [A4 + 0x18C]
00001046  6022                     bra        +0x24 /* 0000106A */
00001048  3E2C 018A                move.w     D7, [A4 + 0x18A]
0000104C  601C                     bra        +0x1E /* 0000106A */
0000104E  3E2C 0188                move.w     D7, [A4 + 0x188]
00001052  6016                     bra        +0x18 /* 0000106A */
00001054  3E2C 0186                move.w     D7, [A4 + 0x186]
00001058  6010                     bra        +0x12 /* 0000106A */
0000105A  3E2C 0196                move.w     D7, [A4 + 0x196]
0000105E  600A                     bra        +0xC /* 0000106A */
label00001060:
00001060  3F3C 0007                move.w     -[A7], 0x7
00001064  4EAD 098A                jsr        [A5 + 0x98A /* export_301, CODE:8 @ 00000B58 */]
00001068  600C                     bra        +0xE /* 00001076 */
label0000106A:
0000106A  4267                     clr.w      -[A7]
0000106C  3F07                     move.w     -[A7], D7
0000106E  4EAD 090A                jsr        [A5 + 0x90A /* export_285, CODE:8 @ 000002B2 */]
00001072  1D5F 0008                move.b     [A6 + 0x8], [A7]+
label00001076:
00001076  4CDF 1080                movem.l    D7,A4, [A7]+
0000107A  4E5E                     unlink     A6
0000107C  4E75                     rts
export_450:
0000107E  4E56 FFF8                link       A6, -0x0008
00001082  1D7C 0001 0008           move.b     [A6 + 0x8], 0x1
00001088  42A7                     clr.l      -[A7]
0000108A  4EAD 1462                jsr        [A5 + 0x1462 /* export_648, CODE:13 @ 000015F4 */]
0000108E  201F                     move.l     D0, [A7]+
00001090  3D40 FFFC                move.w     [A6 - 0x4], D0
00001094  42A7                     clr.l      -[A7]
00001096  4EAD 1462                jsr        [A5 + 0x1462 /* export_648, CODE:13 @ 000015F4 */]
0000109A  201F                     move.l     D0, [A7]+
0000109C  3D40 FFFE                move.w     [A6 - 0x2], D0
000010A0  42A7                     clr.l      -[A7]
000010A2  4EAD 1462                jsr        [A5 + 0x1462 /* export_648, CODE:13 @ 000015F4 */]
000010A6  201F                     move.l     D0, [A7]+
000010A8  3D40 FFF8                move.w     [A6 - 0x8], D0
000010AC  42A7                     clr.l      -[A7]
000010AE  4EAD 1462                jsr        [A5 + 0x1462 /* export_648, CODE:13 @ 000015F4 */]
000010B2  201F                     move.l     D0, [A7]+
000010B4  3D40 FFFA                move.w     [A6 - 0x6], D0
000010B8  486E FFF8                pea.l      [A6 - 0x8]
000010BC  7008                     moveq.l    D0, 0x08
000010BE  2F00                     move.l     -[A7], D0
000010C0  1F3C 000C                move.b     -[A7], 0xC
000010C4  4EAD 0AC2                jsr        [A5 + 0xAC2 /* export_340, CODE:8 @ 000036D2 */]
000010C8  4E5E                     unlink     A6
000010CA  4E75                     rts
export_451:
000010CC  4E56 FFF0                link       A6, -0x0010
000010D0  1D7C 0001 0008           move.b     [A6 + 0x8], 0x1
000010D6  422E FFF0                clr.b      [A6 - 0x10]
000010DA  42A7                     clr.l      -[A7]
000010DC  4EAD 147A                jsr        [A5 + 0x147A /* export_651, CODE:13 @ 000016E8 */]
000010E0  2D5F FFF2                move.l     [A6 - 0xE], [A7]+
000010E4  486E FFF0                pea.l      [A6 - 0x10]
000010E8  7010                     moveq.l    D0, 0x10
000010EA  2F00                     move.l     -[A7], D0
000010EC  1F3C 0006                move.b     -[A7], 0x6
000010F0  4EAD 0AC2                jsr        [A5 + 0xAC2 /* export_340, CODE:8 @ 000036D2 */]
000010F4  4E5E                     unlink     A6
000010F6  4E75                     rts
export_452:
000010F8  4E56 FFAC                link       A6, -0x0054
000010FC  1D7C 0001 0008           move.b     [A6 + 0x8], 0x1
00001102  1D7C 0001 FFAC           move.b     [A6 - 0x54], 0x1
00001108  4267                     clr.w      -[A7]
0000110A  4EAD 08FA                jsr        [A5 + 0x8FA /* export_283, CODE:8 @ 000001A4 */]
0000110E  301F                     move.w     D0, [A7]+
00001110  5540                     subq.w     D0, 2
00001112  670E                     beq        +0x10 /* 00001122 */
00001114  5340                     subq.w     D0, 1
00001116  6716                     beq        +0x18 /* 0000112E */
00001118  5340                     subq.w     D0, 1
0000111A  6728                     beq        +0x2A /* 00001144 */
0000111C  5340                     subq.w     D0, 1
0000111E  6738                     beq        +0x3A /* 00001158 */
00001120  6040                     bra        +0x42 /* 00001162 */
label00001122:
00001122  1D7C 0002 FFCE           move.b     [A6 - 0x32], 0x2
00001128  4EAD 1432                jsr        [A5 + 0x1432 /* export_642, CODE:13 @ 000010F2 */]
0000112C  6034                     bra        +0x36 /* 00001162 */
label0000112E:
0000112E  422E FFCE                clr.b      [A6 - 0x32]
00001132  486E FFD0                pea.l      [A6 - 0x30]
00001136  7030                     moveq.l    D0, 0x30
00001138  2F00                     move.l     -[A7], D0
0000113A  1F3C 000A                move.b     -[A7], 0xA /* '\n' */
0000113E  4EAD 146A                jsr        [A5 + 0x146A /* export_649, CODE:13 @ 00001620 */]
00001142  601E                     bra        +0x20 /* 00001162 */
label00001144:
00001144  1D7C 0001 FFCE           move.b     [A6 - 0x32], 0x1
0000114A  42A7                     clr.l      -[A7]
0000114C  4EAD 147A                jsr        [A5 + 0x147A /* export_651, CODE:13 @ 000016E8 */]
00001150  201F                     move.l     D0, [A7]+
00001152  3D40 FFD0                move.w     [A6 - 0x30], D0
00001156  600A                     bra        +0xC /* 00001162 */
label00001158:
00001158  1D7C 0003 FFCE           move.b     [A6 - 0x32], 0x3
0000115E  4EAD 1432                jsr        [A5 + 0x1432 /* export_642, CODE:13 @ 000010F2 */]
label00001162:
00001162  486E FFAC                pea.l      [A6 - 0x54]
00001166  7054                     moveq.l    D0, 0x54
00001168  2F00                     move.l     -[A7], D0
0000116A  1F3C 0007                move.b     -[A7], 0x7
0000116E  4EAD 0AC2                jsr        [A5 + 0xAC2 /* export_340, CODE:8 @ 000036D2 */]
00001172  4E5E                     unlink     A6
00001174  4E75                     rts
export_453:
00001176  4E56 FFFC                link       A6, -0x0004
0000117A  422E 0008                clr.b      [A6 + 0x8]
0000117E  486E FFFC                pea.l      [A6 - 0x4]
00001182  7004                     moveq.l    D0, 0x04
00001184  2F00                     move.l     -[A7], D0
00001186  4EAD 1B42                jsr        [A5 + 0x1B42 /* export_868, CODE:16 @ 00001E7C */]
label0000118A:
0000118A  7013                     moveq.l    D0, 0x13
0000118C  B02D D46A                cmp.b      D0, [A5 - 0x2B96]
00001190  6672                     bne        +0x74 /* 00001204 */
00001192  102D D46B                move.b     D0, [A5 - 0x2B95]
00001196  4880                     ext.w      D0
00001198  B06D 9AD6                cmp.w      D0, [A5 - 0x652A]
0000119C  6608                     bne        +0xA /* 000011A6 */
0000119E  1D7C 0001 FFFC           move.b     [A6 - 0x4], 0x1
000011A4  602A                     bra        +0x2C /* 000011D0 */
label000011A6:
000011A6  102D D46B                move.b     D0, [A5 - 0x2B95]
000011AA  4880                     ext.w      D0
000011AC  B06D 9AD8                cmp.w      D0, [A5 - 0x6528]
000011B0  6608                     bne        +0xA /* 000011BA */
000011B2  1D7C 0001 FFFD           move.b     [A6 - 0x3], 0x1
000011B8  6016                     bra        +0x18 /* 000011D0 */
label000011BA:
000011BA  102D D46B                move.b     D0, [A5 - 0x2B95]
000011BE  4880                     ext.w      D0
000011C0  B06D 9ADA                cmp.w      D0, [A5 - 0x6526]
000011C4  6608                     bne        +0xA /* 000011CE */
000011C6  1D7C 0001 FFFE           move.b     [A6 - 0x2], 0x1
000011CC  6002                     bra        +0x4 /* 000011D0 */
label000011CE:
000011CE  6034                     bra        +0x36 /* 00001204 */
label000011D0:
000011D0  4EAD 08E2                jsr        [A5 + 0x8E2 /* export_280, CODE:8 @ 000000E0 */]
000011D4  7006                     moveq.l    D0, 0x06
000011D6  B02D D46A                cmp.b      D0, [A5 - 0x2B96]
000011DA  57C0                     seq        D0
000011DC  7203                     moveq.l    D1, 0x03
000011DE  B22D D46B                cmp.b      D1, [A5 - 0x2B95]
000011E2  57C1                     seq        D1
000011E4  C001                     and.b      D0, D1
000011E6  6706                     beq        +0x8 /* 000011EE */
000011E8  4EAD 08E2                jsr        [A5 + 0x8E2 /* export_280, CODE:8 @ 000000E0 */]
000011EC  609C                     bra        -0x62 /* 0000118A */
label000011EE:
000011EE  486E FFFC                pea.l      [A6 - 0x4]
000011F2  7004                     moveq.l    D0, 0x04
000011F4  2F00                     move.l     -[A7], D0
000011F6  1F3C 000D                move.b     -[A7], 0xD /* '\r' */
000011FA  4EAD 0AC2                jsr        [A5 + 0xAC2 /* export_340, CODE:8 @ 000036D2 */]
000011FE  1D7C 0001 0008           move.b     [A6 + 0x8], 0x1
label00001204:
00001204  4E5E                     unlink     A6
00001206  4E75                     rts
export_454:
00001208  4E56 0000                link       A6, 0
0000120C  1D7C 0001 0008           move.b     [A6 + 0x8], 0x1
00001212  4267                     clr.w      -[A7]
00001214  4EAD 08FA                jsr        [A5 + 0x8FA /* export_283, CODE:8 @ 000001A4 */]
00001218  4A5F                     tst.w      [A7]+
0000121A  660C                     bne        +0xE /* 00001228 */
0000121C  4EAD 1432                jsr        [A5 + 0x1432 /* export_642, CODE:13 @ 000010F2 */]
00001220  486D FD48                pea.l      [A5 - 0x2B8]
00001224  4EAD 0B2A                jsr        [A5 + 0xB2A /* export_353, CODE:8 @ 00003ACC */]
label00001228:
00001228  4E5E                     unlink     A6
0000122A  4E75                     rts
export_455:
0000122C  4E56 FFDE                link       A6, -0x0022
00001230  1D7C 0001 0008           move.b     [A6 + 0x8], 0x1
00001236  1D7C 0001 FFE2           move.b     [A6 - 0x1E], 0x1
0000123C  486E FFF2                pea.l      [A6 - 0xE]
00001240  7006                     moveq.l    D0, 0x06
00001242  2F00                     move.l     -[A7], D0
00001244  4EAD 1B42                jsr        [A5 + 0x1B42 /* export_868, CODE:16 @ 00001E7C */]
00001248  486E FFF8                pea.l      [A6 - 0x8]
0000124C  7008                     moveq.l    D0, 0x08
0000124E  2F00                     move.l     -[A7], D0
00001250  4EAD 1B42                jsr        [A5 + 0x1B42 /* export_868, CODE:16 @ 00001E7C */]
00001254  4267                     clr.w      -[A7]
00001256  4EAD 08FA                jsr        [A5 + 0x8FA /* export_283, CODE:8 @ 000001A4 */]
0000125A  7004                     moveq.l    D0, 0x04
0000125C  B05F                     cmp.w      D0, [A7]+
0000125E  6610                     bne        +0x12 /* 00001270 */
00001260  486E FFF8                pea.l      [A6 - 0x8]
00001264  7008                     moveq.l    D0, 0x08
00001266  2F00                     move.l     -[A7], D0
00001268  1F3C 0005                move.b     -[A7], 0x5
0000126C  4EAD 146A                jsr        [A5 + 0x146A /* export_649, CODE:13 @ 00001620 */]
label00001270:
00001270  4267                     clr.w      -[A7]
00001272  4EAD 08FA                jsr        [A5 + 0x8FA /* export_283, CODE:8 @ 000001A4 */]
00001276  7002                     moveq.l    D0, 0x02
00001278  B05F                     cmp.w      D0, [A7]+
0000127A  6610                     bne        +0x12 /* 0000128C */
0000127C  486E FFF2                pea.l      [A6 - 0xE]
00001280  7006                     moveq.l    D0, 0x06
00001282  2F00                     move.l     -[A7], D0
00001284  1F3C 0010                move.b     -[A7], 0x10
00001288  4EAD 146A                jsr        [A5 + 0x146A /* export_649, CODE:13 @ 00001620 */]
label0000128C:
0000128C  4267                     clr.w      -[A7]
0000128E  4EAD 08FA                jsr        [A5 + 0x8FA /* export_283, CODE:8 @ 000001A4 */]
00001292  7003                     moveq.l    D0, 0x03
00001294  B05F                     cmp.w      D0, [A7]+
00001296  6610                     bne        +0x12 /* 000012A8 */
00001298  486E FFF2                pea.l      [A6 - 0xE]
0000129C  7006                     moveq.l    D0, 0x06
0000129E  2F00                     move.l     -[A7], D0
000012A0  1F3C 0010                move.b     -[A7], 0x10
000012A4  4EAD 146A                jsr        [A5 + 0x146A /* export_649, CODE:13 @ 00001620 */]
label000012A8:
000012A8  4267                     clr.w      -[A7]
000012AA  4EAD 08FA                jsr        [A5 + 0x8FA /* export_283, CODE:8 @ 000001A4 */]
000012AE  7001                     moveq.l    D0, 0x01
000012B0  B05F                     cmp.w      D0, [A7]+
000012B2  6610                     bne        +0x12 /* 000012C4 */
000012B4  486E FFF8                pea.l      [A6 - 0x8]
000012B8  7008                     moveq.l    D0, 0x08
000012BA  2F00                     move.l     -[A7], D0
000012BC  1F3C 0005                move.b     -[A7], 0x5
000012C0  4EAD 146A                jsr        [A5 + 0x146A /* export_649, CODE:13 @ 00001620 */]
label000012C4:
000012C4  4EAD 1432                jsr        [A5 + 0x1432 /* export_642, CODE:13 @ 000010F2 */]
000012C8  4A6E FFF8                tst.w      [A6 - 0x8]
000012CC  6616                     bne        +0x18 /* 000012E4 */
000012CE  486E FFDE                pea.l      [A6 - 0x22]
000012D2  4EAD 0282                jsr        [A5 + 0x282 /* export_76, CODE:1 @ 00004728 */]
000012D6  2F2E FFDE                move.l     -[A7], [A6 - 0x22]
000012DA  486E FFE4                pea.l      [A6 - 0x1C]
000012DE  4EAD 0292                jsr        [A5 + 0x292 /* export_78, CODE:1 @ 00004742 */]
000012E2  6018                     bra        +0x1A /* 000012FC */
label000012E4:
000012E4  3D6E FFF8 FFE4           move.w     [A6 - 0x1C], [A6 - 0x8]
000012EA  3D6E FFFA FFE6           move.w     [A6 - 0x1A], [A6 - 0x6]
000012F0  3D6E FFFC FFE8           move.w     [A6 - 0x18], [A6 - 0x4]
000012F6  3D6E FFFE FFF0           move.w     [A6 - 0x10], [A6 - 0x2]
label000012FC:
000012FC  3D6E FFF2 FFEA           move.w     [A6 - 0x16], [A6 - 0xE]
00001302  3D6E FFF4 FFEC           move.w     [A6 - 0x14], [A6 - 0xC]
00001308  3D6E FFF6 FFEE           move.w     [A6 - 0x12], [A6 - 0xA]
0000130E  486E FFE2                pea.l      [A6 - 0x1E]
00001312  7010                     moveq.l    D0, 0x10
00001314  2F00                     move.l     -[A7], D0
00001316  1F3C 0006                move.b     -[A7], 0x6
0000131A  4EAD 0AC2                jsr        [A5 + 0xAC2 /* export_340, CODE:8 @ 000036D2 */]
0000131E  4E5E                     unlink     A6
00001320  4E75                     rts
export_456:
00001322  4E56 FDF2                link       A6, -0x020E
00001326  422E 0008                clr.b      [A6 + 0x8]
0000132A  486E FFE8                pea.l      [A6 - 0x18]
0000132E  4EAD 09B2                jsr        [A5 + 0x9B2 /* export_306, CODE:8 @ 00000CFE */]
00001332  4267                     clr.w      -[A7]
00001334  4EAD 08FA                jsr        [A5 + 0x8FA /* export_283, CODE:8 @ 000001A4 */]
00001338  301F                     move.w     D0, [A7]+
0000133A  5340                     subq.w     D0, 1
0000133C  6B00 019A                bmi        +0x19C /* 000014D8 */
00001340  0C40 0006                cmpi.w     D0, 0x6
00001344  6E00 0192                bgt        +0x194 /* 000014D8 */
00001348  D040                     add.w      D0, D0
0000134A  303B 0006                move.w     D0, [PC + D0.w + 0x6]
0000134E  4EFB 0000                jmp        [PC + D0.w]
00001352  0010 001E                ori.b      [A0], 0x1E
00001356  007C 00A2                ori.w      sr, 162
0000135A  00E8                     .incomplete
0000135C  00E8                     .incomplete
0000135E  0174 1D7C                bchg       <<invalid full ext with I/IS == 4>>, D0
00001362  0005 FFE8                ori.b      D5, 0xE8
00001366  4EAD 1432                jsr        [A5 + 0x1432 /* export_642, CODE:13 @ 000010F2 */]
0000136A  6000 016C                bra        +0x16E /* 000014D8 */
0000136E  1D7C 0004 FFE8           move.b     [A6 - 0x18], 0x4
00001374  486E FDF4                pea.l      [A6 - 0x20C]
00001378  4EAD 1482                jsr        [A5 + 0x1482 /* export_652, CODE:13 @ 00001714 */]
0000137C  4267                     clr.w      -[A7]
0000137E  486E FDF4                pea.l      [A6 - 0x20C]
00001382  487A 016E                pea.l      [PC + 0x16E /* 000014F2, value 0x4486F6D, pstring "Home" */]
00001386  4EAD 1AC2                jsr        [A5 + 0x1AC2 /* export_852, CODE:16 @ 00001B82 */]
0000138A  4267                     clr.w      -[A7]
0000138C  486E FDF4                pea.l      [A6 - 0x20C]
00001390  486D F5FE                pea.l      [A5 - 0xA02]
00001394  4EAD 1AC2                jsr        [A5 + 0x1AC2 /* export_852, CODE:16 @ 00001B82 */]
00001398  101F                     move.b     D0, [A7]+
0000139A  801F                     or.b       D0, [A7]+
0000139C  6714                     beq        +0x16 /* 000013B2 */
0000139E  2D6D F4F0 FFEA           move.l     [A6 - 0x16], [A5 - 0xB10]
000013A4  3D6D F4EE FFFC           move.w     [A6 - 0x4], [A5 - 0xB12]
000013AA  3D6D F4EC FFFE           move.w     [A6 - 0x2], [A5 - 0xB14]
000013B0  6016                     bra        +0x18 /* 000013C8 */
label000013B2:
000013B2  4267                     clr.w      -[A7]
000013B4  486E FDF4                pea.l      [A6 - 0x20C]
000013B8  486E FFE8                pea.l      [A6 - 0x18]
000013BC  4EAD 0C6A                jsr        [A5 + 0xC6A /* export_393, CODE:8 @ 00004A50 */]
000013C0  101F                     move.b     D0, [A7]+
000013C2  6604                     bne        +0x6 /* 000013C8 */
000013C4  6000 0128                bra        +0x12A /* 000014EE */
label000013C8:
000013C8  6000 010E                bra        +0x110 /* 000014D8 */
000013CC  41ED 9A82                lea.l      A0, [A5 - 0x657E]
000013D0  B1ED A80C                cmpa.l     A0, [A5 - 0x57F4]
000013D4  6714                     beq        +0x16 /* 000013EA */
000013D6  206D A80C                movea.l    A0, [A5 - 0x57F4]
000013DA  43EE FFE8                lea.l      A1, [A6 - 0x18]
000013DE  41E8 0020                lea.l      A0, [A0 + 0x20]
000013E2  7005                     moveq.l    D0, 0x05
label000013E4:
000013E4  22D8                     move.l     [A1]+, [A0]+
000013E6  51C8 FFFC                dbf        D0, -0x6 /* 000013E4 */
label000013EA:
000013EA  4EAD 1432                jsr        [A5 + 0x1432 /* export_642, CODE:13 @ 000010F2 */]
000013EE  6000 00E8                bra        +0xEA /* 000014D8 */
000013F2  1D7C 0001 FFE8           move.b     [A6 - 0x18], 0x1
000013F8  486E FFB8                pea.l      [A6 - 0x48]
000013FC  7030                     moveq.l    D0, 0x30
000013FE  2F00                     move.l     -[A7], D0
00001400  1F3C 000A                move.b     -[A7], 0xA /* '\n' */
00001404  4EAD 146A                jsr        [A5 + 0x146A /* export_649, CODE:13 @ 00001620 */]
00001408  2D6E FFBA FFF8           move.l     [A6 - 0x8], [A6 - 0x46]
0000140E  4267                     clr.w      -[A7]
00001410  486E FFB8                pea.l      [A6 - 0x48]
00001414  4267                     clr.w      -[A7]
00001416  4EAD 0AAA                jsr        [A5 + 0xAAA /* export_337, CODE:8 @ 00003552 */]
0000141A  3D5F FFF6                move.w     [A6 - 0xA], [A7]+
0000141E  2D6E FFC2 FFF2           move.l     [A6 - 0xE], [A6 - 0x3E]
00001424  2D6E FFBE FFEE           move.l     [A6 - 0x12], [A6 - 0x42]
0000142A  4A6E FFF6                tst.w      [A6 - 0xA]
0000142E  6604                     bne        +0x6 /* 00001434 */
00001430  6000 00BC                bra        +0xBE /* 000014EE */
label00001434:
00001434  6000 00A2                bra        +0xA4 /* 000014D8 */
00001438  486E FF00                pea.l      [A6 - 0x100]
0000143C  4EAD 179A                jsr        [A5 + 0x179A /* export_751, CODE:15 @ 000063EC */]
00001440  486E FF5C                pea.l      [A6 - 0xA4]
00001444  4EAD 179A                jsr        [A5 + 0x179A /* export_751, CODE:15 @ 000063EC */]
00001448  4267                     clr.w      -[A7]
0000144A  4EAD 08FA                jsr        [A5 + 0x8FA /* export_283, CODE:8 @ 000001A4 */]
0000144E  7005                     moveq.l    D0, 0x05
00001450  B05F                     cmp.w      D0, [A7]+
00001452  6620                     bne        +0x22 /* 00001474 */
00001454  422E FDF3                clr.b      [A6 - 0x20D]
00001458  422E FF5C                clr.b      [A6 - 0xA4]
0000145C  486E FEF4                pea.l      [A6 - 0x10C]
00001460  700C                     moveq.l    D0, 0x0C
00001462  2F00                     move.l     -[A7], D0
00001464  1F3C 0003                move.b     -[A7], 0x3
00001468  4EAD 146A                jsr        [A5 + 0x146A /* export_649, CODE:13 @ 00001620 */]
0000146C  2D6E FEF4 FF5E           move.l     [A6 - 0xA2], [A6 - 0x10C]
00001472  601C                     bra        +0x1E /* 00001490 */
label00001474:
00001474  1D7C 0001 FDF3           move.b     [A6 - 0x20D], 0x1
0000147A  486E FF88                pea.l      [A6 - 0x78]
0000147E  702C                     moveq.l    D0, 0x2C
00001480  2F00                     move.l     -[A7], D0
00001482  1F3C 0001                move.b     -[A7], 0x1
00001486  4EAD 146A                jsr        [A5 + 0x146A /* export_649, CODE:13 @ 00001620 */]
0000148A  1D7C 0005 FF5C           move.b     [A6 - 0xA4], 0x5
label00001490:
00001490  4267                     clr.w      -[A7]
00001492  486E FF5C                pea.l      [A6 - 0xA4]
00001496  4EAD 2042                jsr        [A5 + 0x2042 /* export_1028, CODE:20 @ 00000472 */]
0000149A  101F                     move.b     D0, [A7]+
0000149C  6602                     bne        +0x4 /* 000014A0 */
0000149E  604E                     bra        +0x50 /* 000014EE */
label000014A0:
000014A0  486E FFE8                pea.l      [A6 - 0x18]
000014A4  4EAD 09B2                jsr        [A5 + 0x9B2 /* export_306, CODE:8 @ 00000CFE */]
000014A8  102E FDF3                move.b     D0, [A6 - 0x20D]
000014AC  6706                     beq        +0x8 /* 000014B4 */
000014AE  1D7C 0003 FFE8           move.b     [A6 - 0x18], 0x3
label000014B4:
000014B4  4267                     clr.w      -[A7]
000014B6  486E FF00                pea.l      [A6 - 0x100]
000014BA  4EAD 2042                jsr        [A5 + 0x2042 /* export_1028, CODE:20 @ 00000472 */]
000014BE  1D5F FDF2                move.b     [A6 - 0x20E], [A7]+
000014C2  6014                     bra        +0x16 /* 000014D8 */
000014C4  41EE FFE8                lea.l      A0, [A6 - 0x18]
000014C8  43ED B63A                lea.l      A1, [A5 - 0x49C6]
000014CC  7005                     moveq.l    D0, 0x05
label000014CE:
000014CE  20D9                     move.l     [A0]+, [A1]+
000014D0  51C8 FFFC                dbf        D0, -0x6 /* 000014CE */
000014D4  4EAD 1432                jsr        [A5 + 0x1432 /* export_642, CODE:13 @ 000010F2 */]
label000014D8:
000014D8  1D7C 0001 0008           move.b     [A6 + 0x8], 0x1
000014DE  486E FFE8                pea.l      [A6 - 0x18]
000014E2  7018                     moveq.l    D0, 0x18
000014E4  2F00                     move.l     -[A7], D0
000014E6  1F3C 000F                move.b     -[A7], 0xF
000014EA  4EAD 0AC2                jsr        [A5 + 0xAC2 /* export_340, CODE:8 @ 000036D2 */]
label000014EE:
000014EE  4E5E                     unlink     A6
000014F0  4E75                     rts
000014F2  0448 6F6D                subi.w     A0, 0x6F6D /* 'om' */
000014F6  6500 4E56                bcs        +0x4E58 /* 0000634E */
// begin alternate branch 000014F8-000014FC
export_457:
000014F8  4E56 FFFC                link       A6, -0x0004
// end alternate branch 000014F8-000014FC
export_457: // at 000014F8 (misaligned)
000014FA  FFFC                     .invalid   <<F/7/7>>
000014FC  2F07                     move.l     -[A7], D7
000014FE  422E 0008                clr.b      [A6 + 0x8]
00001502  7E00                     moveq.l    D7, 0x00
label00001504:
00001504  4267                     clr.w      -[A7]
00001506  206D D450                movea.l    A0, [A5 - 0x2BB0]
0000150A  2050                     movea.l    A0, [A0]
0000150C  3F28 0198                move.w     -[A7], [A0 + 0x198]
00001510  4EAD 090A                jsr        [A5 + 0x90A /* export_285, CODE:8 @ 000002B2 */]
00001514  101F                     move.b     D0, [A7]+
00001516  670A                     beq        +0xC /* 00001522 */
00001518  42A7                     clr.l      -[A7]
0000151A  4EAD 147A                jsr        [A5 + 0x147A /* export_651, CODE:13 @ 000016E8 */]
0000151E  8E9F                     or.l       D7, [A7]+
00001520  6002                     bra        +0x4 /* 00001524 */
label00001522:
00001522  6026                     bra        +0x28 /* 0000154A */
label00001524:
00001524  7006                     moveq.l    D0, 0x06
00001526  B02D D46A                cmp.b      D0, [A5 - 0x2B96]
0000152A  57C0                     seq        D0
0000152C  7203                     moveq.l    D1, 0x03
0000152E  B22D D46B                cmp.b      D1, [A5 - 0x2B95]
00001532  57C1                     seq        D1
00001534  C001                     and.b      D0, D1
00001536  6706                     beq        +0x8 /* 0000153E */
00001538  4EAD 08E2                jsr        [A5 + 0x8E2 /* export_280, CODE:8 @ 000000E0 */]
0000153C  60C6                     bra        -0x38 /* 00001504 */
label0000153E:
0000153E  1D7C 0001 0008           move.b     [A6 + 0x8], 0x1
00001544  2F07                     move.l     -[A7], D7
00001546  4EAD 0B12                jsr        [A5 + 0xB12 /* export_350, CODE:8 @ 00003A4E */]
label0000154A:
0000154A  2E1F                     move.l     D7, [A7]+
0000154C  4E5E                     unlink     A6
0000154E  4E75                     rts
export_458:
00001550  4E56 FFF8                link       A6, -0x0008
00001554  1D7C 0001 0008           move.b     [A6 + 0x8], 0x1
0000155A  4267                     clr.w      -[A7]
0000155C  4EAD 08FA                jsr        [A5 + 0x8FA /* export_283, CODE:8 @ 000001A4 */]
00001560  7005                     moveq.l    D0, 0x05
00001562  B05F                     cmp.w      D0, [A7]+
00001564  57C0                     seq        D0
00001566  4400                     neg.b      D0
00001568  1D40 FFF8                move.b     [A6 - 0x8], D0
0000156C  4267                     clr.w      -[A7]
0000156E  4EAD 08FA                jsr        [A5 + 0x8FA /* export_283, CODE:8 @ 000001A4 */]
00001572  7004                     moveq.l    D0, 0x04
00001574  B05F                     cmp.w      D0, [A7]+
00001576  57C0                     seq        D0
00001578  4400                     neg.b      D0
0000157A  1D40 FFF9                move.b     [A6 - 0x7], D0
0000157E  4EAD 1432                jsr        [A5 + 0x1432 /* export_642, CODE:13 @ 000010F2 */]
00001582  4267                     clr.w      -[A7]
00001584  4EAD 08FA                jsr        [A5 + 0x8FA /* export_283, CODE:8 @ 000001A4 */]
00001588  7003                     moveq.l    D0, 0x03
0000158A  B05F                     cmp.w      D0, [A7]+
0000158C  660E                     bne        +0x10 /* 0000159C */
0000158E  42A7                     clr.l      -[A7]
00001590  4EAD 147A                jsr        [A5 + 0x147A /* export_651, CODE:13 @ 000016E8 */]
00001594  201F                     move.l     D0, [A7]+
00001596  3D40 FFFE                move.w     [A6 - 0x2], D0
0000159A  6004                     bra        +0x6 /* 000015A0 */
label0000159C:
0000159C  426E FFFE                clr.w      [A6 - 0x2]
label000015A0:
000015A0  42A7                     clr.l      -[A7]
000015A2  4EAD 147A                jsr        [A5 + 0x147A /* export_651, CODE:13 @ 000016E8 */]
000015A6  201F                     move.l     D0, [A7]+
000015A8  3D40 FFFC                move.w     [A6 - 0x4], D0
000015AC  42A7                     clr.l      -[A7]
000015AE  4EAD 147A                jsr        [A5 + 0x147A /* export_651, CODE:13 @ 000016E8 */]
000015B2  201F                     move.l     D0, [A7]+
000015B4  3D40 FFFA                move.w     [A6 - 0x6], D0
000015B8  700C                     moveq.l    D0, 0x0C
000015BA  B06E FFFA                cmp.w      D0, [A6 - 0x6]
000015BE  660C                     bne        +0xE /* 000015CC */
000015C0  102E FFF9                move.b     D0, [A6 - 0x7]
000015C4  6704                     beq        +0x6 /* 000015CA */
000015C6  426E FFFA                clr.w      [A6 - 0x6]
label000015CA:
000015CA  6012                     bra        +0x14 /* 000015DE */
label000015CC:
000015CC  102E FFF8                move.b     D0, [A6 - 0x8]
000015D0  670C                     beq        +0xE /* 000015DE */
000015D2  302E FFFA                move.w     D0, [A6 - 0x6]
000015D6  D07C 000C                add.w      D0, 0xC
000015DA  3D40 FFFA                move.w     [A6 - 0x6], D0
label000015DE:
000015DE  486E FFFA                pea.l      [A6 - 0x6]
000015E2  7006                     moveq.l    D0, 0x06
000015E4  2F00                     move.l     -[A7], D0
000015E6  1F3C 0010                move.b     -[A7], 0x10
000015EA  4EAD 0AC2                jsr        [A5 + 0xAC2 /* export_340, CODE:8 @ 000036D2 */]
000015EE  4E5E                     unlink     A6
000015F0  4E75                     rts
fn000015F2:
000015F2  4E56 0000                link       A6, 0
000015F6  2F0C                     move.l     -[A7], A4
000015F8  286D D470                movea.l    A4, [A5 - 0x2B90]
000015FC  302C 0014                move.w     D0, [A4 + 0x14]
00001600  D06C 0012                add.w      D0, [A4 + 0x12]
00001604  0C40 0200                cmpi.w     D0, 0x200
00001608  6D02                     blt        +0x4 /* 0000160C */
0000160A  6036                     bra        +0x38 /* 00001642 */
label0000160C:
0000160C  302C 0014                move.w     D0, [A4 + 0x14]
00001610  D06C 0012                add.w      D0, [A4 + 0x12]
00001614  5340                     subq.w     D0, 1
00001616  41ED 9AE4                lea.l      A0, [A5 - 0x651C]
0000161A  E540                     asl        D0.w, 2
0000161C  31AE 000C 0002           move.w     [A0 + D0.w + 0x2], [A6 + 0xC]
00001622  302C 0014                move.w     D0, [A4 + 0x14]
00001626  D06C 0012                add.w      D0, [A4 + 0x12]
0000162A  5340                     subq.w     D0, 1
0000162C  41ED 9AE4                lea.l      A0, [A5 - 0x651C]
00001630  E540                     asl        D0.w, 2
00001632  31AC 0008 0000           move.w     [A0 + D0.w], [A4 + 0x8]
00001638  302C 0014                move.w     D0, [A4 + 0x14]
0000163C  5240                     addq.w     D0, 1
0000163E  3940 0014                move.w     [A4 + 0x14], D0
label00001642:
00001642  285F                     movea.l    A4, [A7]+
00001644  4E5E                     unlink     A6
00001646  205F                     movea.l    A0, [A7]+
00001648  5C4F                     addq.w     A7, 6
0000164A  4ED0                     jmp        [A0]
export_459:
0000164C  4E56 FEEE                link       A6, -0x0112
00001650  48E7 0718                movem.l    -[A7], D5,D6,D7,A3,A4
00001654  4247                     clr.w      D7
00001656  286D D470                movea.l    A4, [A5 - 0x2B90]
0000165A  302C 0014                move.w     D0, [A4 + 0x14]
0000165E  5340                     subq.w     D0, 1
00001660  3D40 FFF0                move.w     [A6 - 0x10], D0
00001664  4246                     clr.w      D6
00001666  6030                     bra        +0x32 /* 00001698 */
label00001668:
00001668  3006                     move.w     D0, D6
0000166A  D06C 0012                add.w      D0, [A4 + 0x12]
0000166E  5340                     subq.w     D0, 1
00001670  41ED 9AE4                lea.l      A0, [A5 - 0x651C]
00001674  E540                     asl        D0.w, 2
00001676  3230 0000                move.w     D1, [A0 + D0.w]
0000167A  B26C 0008                cmp.w      D1, [A4 + 0x8]
0000167E  6614                     bne        +0x16 /* 00001694 */
00001680  3006                     move.w     D0, D6
00001682  D06C 0012                add.w      D0, [A4 + 0x12]
00001686  5340                     subq.w     D0, 1
00001688  41ED 9AE4                lea.l      A0, [A5 - 0x651C]
0000168C  E540                     asl        D0.w, 2
0000168E  3E30 0002                move.w     D7, [A0 + D0.w + 0x2]
00001692  6068                     bra        +0x6A /* 000016FC */
label00001694:
00001694  5246                     addq.w     D6, 1
00001696  6906                     bvs        +0x8 /* 0000169E */
label00001698:
00001698  BC6E FFF0                cmp.w      D6, [A6 - 0x10]
0000169C  6FCA                     ble        -0x34 /* 00001668 */
label0000169E:
0000169E  206D D466                movea.l    A0, [A5 - 0x2B9A]
000016A2  4AA8 0006                tst.l      [A0 + 0x6]
000016A6  674E                     beq        +0x50 /* 000016F6 */
000016A8  4267                     clr.w      -[A7]
000016AA  486E FEF0                pea.l      [A6 - 0x110]
000016AE  4EAD 0C92                jsr        [A5 + 0xC92 /* export_398, CODE:8 @ 00004DD8 */]
000016B2  206D D466                movea.l    A0, [A5 - 0x2B9A]
000016B6  2F28 0006                move.l     -[A7], [A0 + 0x6]
000016BA  4EAD 1AD2                jsr        [A5 + 0x1AD2 /* export_854, CODE:16 @ 00001BF0 */]
000016BE  3A1F                     move.w     D5, [A7]+
000016C0  4A45                     tst.w      D5
000016C2  6732                     beq        +0x34 /* 000016F6 */
000016C4  206D D466                movea.l    A0, [A5 - 0x2B9A]
000016C8  2068 000A                movea.l    A0, [A0 + 0xA]
000016CC  2650                     movea.l    A3, [A0]
000016CE  286D D466                movea.l    A4, [A5 - 0x2B9A]
000016D2  3D54 FEEE                move.w     [A6 - 0x112], [A4]
000016D6  7E01                     moveq.l    D7, 0x01
000016D8  6016                     bra        +0x18 /* 000016F0 */
label000016DA:
000016DA  BA53                     cmp.w      D5, [A3]
000016DC  660A                     bne        +0xC /* 000016E8 */
000016DE  3F07                     move.w     -[A7], D7
000016E0  2F0E                     move.l     -[A7], A6
000016E2  4EBA FF0E                jsr        [PC - 0xF2 /* 000015F2 */]
000016E6  6014                     bra        +0x16 /* 000016FC */
label000016E8:
000016E8  700E                     moveq.l    D0, 0x0E
000016EA  D7C0                     add.l      A3, D0
000016EC  5247                     addq.w     D7, 1
000016EE  6906                     bvs        +0x8 /* 000016F6 */
label000016F0:
000016F0  BE6E FEEE                cmp.w      D7, [A6 - 0x112]
000016F4  6FE4                     ble        -0x1A /* 000016DA */
label000016F6:
000016F6  422E 0008                clr.b      [A6 + 0x8]
000016FA  6014                     bra        +0x16 /* 00001710 */
label000016FC:
000016FC  1D7C 0001 0008           move.b     [A6 + 0x8], 0x1
00001702  3007                     move.w     D0, D7
00001704  48C0                     ext.l      D0
00001706  2F00                     move.l     -[A7], D0
00001708  4EAD 0B1A                jsr        [A5 + 0xB1A /* export_351, CODE:8 @ 00003A68 */]
0000170C  4EAD 08E2                jsr        [A5 + 0x8E2 /* export_280, CODE:8 @ 000000E0 */]
label00001710:
00001710  4CDF 18E0                movem.l    D5,D6,D7,A3,A4, [A7]+
00001714  4E5E                     unlink     A6
00001716  4E75                     rts
export_460:
00001718  4E56 FFFA                link       A6, -0x0006
0000171C  1D7C 0001 0008           move.b     [A6 + 0x8], 0x1
00001722  422E FFFE                clr.b      [A6 - 0x2]
00001726  3D6D AAE4 FFFC           move.w     [A6 - 0x4], [A5 - 0x551C]
0000172C  4267                     clr.w      -[A7]
0000172E  4EAD 08FA                jsr        [A5 + 0x8FA /* export_283, CODE:8 @ 000001A4 */]
00001732  7003                     moveq.l    D0, 0x03
00001734  B05F                     cmp.w      D0, [A7]+
00001736  660C                     bne        +0xE /* 00001744 */
00001738  42A7                     clr.l      -[A7]
0000173A  4EAD 1462                jsr        [A5 + 0x1462 /* export_648, CODE:13 @ 000015F4 */]
0000173E  201F                     move.l     D0, [A7]+
00001740  1D40 FFFE                move.b     [A6 - 0x2], D0
label00001744:
00001744  4267                     clr.w      -[A7]
00001746  4EAD 08FA                jsr        [A5 + 0x8FA /* export_283, CODE:8 @ 000001A4 */]
0000174A  7002                     moveq.l    D0, 0x02
0000174C  B05F                     cmp.w      D0, [A7]+
0000174E  6640                     bne        +0x42 /* 00001790 */
00001750  42A7                     clr.l      -[A7]
00001752  4EAD 1462                jsr        [A5 + 0x1462 /* export_648, CODE:13 @ 000015F4 */]
00001756  201F                     move.l     D0, [A7]+
00001758  5340                     subq.w     D0, 1
0000175A  670A                     beq        +0xC /* 00001766 */
0000175C  5340                     subq.w     D0, 1
0000175E  6718                     beq        +0x1A /* 00001778 */
00001760  5340                     subq.w     D0, 1
00001762  6728                     beq        +0x2A /* 0000178C */
00001764  602A                     bra        +0x2C /* 00001790 */
label00001766:
00001766  302D AAE4                move.w     D0, [A5 - 0x551C]
0000176A  C1FC 0003                muls.w     D0, 0x3
0000176E  D07C 03E8                add.w      D0, 0x3E8
00001772  3D40 FFFC                move.w     [A6 - 0x4], D0
00001776  6018                     bra        +0x1A /* 00001790 */
label00001778:
00001778  302D AAE4                move.w     D0, [A5 - 0x551C]
0000177C  C1FC 0003                muls.w     D0, 0x3
00001780  D07C 03E8                add.w      D0, 0x3E8
00001784  E540                     asl        D0.w, 2
00001786  3D40 FFFC                move.w     [A6 - 0x4], D0
0000178A  6004                     bra        +0x6 /* 00001790 */
label0000178C:
0000178C  426E FFFC                clr.w      [A6 - 0x4]
label00001790:
00001790  42A7                     clr.l      -[A7]
00001792  4EAD 1462                jsr        [A5 + 0x1462 /* export_648, CODE:13 @ 000015F4 */]
00001796  201F                     move.l     D0, [A7]+
00001798  3D40 FFFA                move.w     [A6 - 0x6], D0
0000179C  486E FFFA                pea.l      [A6 - 0x6]
000017A0  7006                     moveq.l    D0, 0x06
000017A2  2F00                     move.l     -[A7], D0
000017A4  1F3C 0018                move.b     -[A7], 0x18
000017A8  4EAD 0AC2                jsr        [A5 + 0xAC2 /* export_340, CODE:8 @ 000036D2 */]
000017AC  4E5E                     unlink     A6
000017AE  4E75                     rts
fn000017B0:
000017B0  4E56 FFEC                link       A6, -0x0014
000017B4  486E FFF6                pea.l      [A6 - 0xA]
000017B8  4EAD 1452                jsr        [A5 + 0x1452 /* export_646, CODE:13 @ 00001556 */]
000017BC  302E 0008                move.w     D0, [A6 + 0x8]
000017C0  5340                     subq.w     D0, 1
000017C2  6B00 015C                bmi        +0x15E /* 00001920 */
000017C6  0C40 0009                cmpi.w     D0, 0x9 /* '\t' */
000017CA  6E00 0154                bgt        +0x156 /* 00001920 */
000017CE  D040                     add.w      D0, D0
000017D0  303B 0006                move.w     D0, [PC + D0.w + 0x6]
000017D4  4EFB 0000                jmp        [PC + D0.w]
000017D8  0016 0036                ori.b      [A6], 0x36 /* '6' */
000017DC  0056 0076                ori.w      [A6], 0x76 /* 'v' */
000017E0  0096 00B6 00D4           ori.l      [A6], 0xB600D4
000017E6  00F2                     .incomplete
000017E8  0110                     btst       [A0], D0
000017EA  012E 486E                btst       [A6 + 0x486E], D0
000017EE  FFEC                     .invalid   <<F/7/7>>
000017F0  486E FFF6                pea.l      [A6 - 0xA]
000017F4  4EAD 04C2                jsr        [A5 + 0x4C2 /* export_148, CODE:1 @ 00005188 */]
000017F8  588F                     addq.l     A7, 4
000017FA  41EE FFF6                lea.l      A0, [A6 - 0xA]
000017FE  43EE FFEC                lea.l      A1, [A6 - 0x14]
00001802  20D9                     move.l     [A0]+, [A1]+
00001804  20D9                     move.l     [A0]+, [A1]+
00001806  3091                     move.w     [A0], [A1]
00001808  6000 0116                bra        +0x118 /* 00001920 */
0000180C  486E FFEC                pea.l      [A6 - 0x14]
00001810  486E FFF6                pea.l      [A6 - 0xA]
00001814  4EAD 04E2                jsr        [A5 + 0x4E2 /* export_152, CODE:1 @ 0000518C */]
00001818  588F                     addq.l     A7, 4
0000181A  41EE FFF6                lea.l      A0, [A6 - 0xA]
0000181E  43EE FFEC                lea.l      A1, [A6 - 0x14]
00001822  20D9                     move.l     [A0]+, [A1]+
00001824  20D9                     move.l     [A0]+, [A1]+
00001826  3091                     move.w     [A0], [A1]
00001828  6000 00F6                bra        +0xF8 /* 00001920 */
0000182C  486E FFEC                pea.l      [A6 - 0x14]
00001830  486E FFF6                pea.l      [A6 - 0xA]
00001834  4EAD 058A                jsr        [A5 + 0x58A /* export_173, CODE:2 @ 00000286 */]
00001838  588F                     addq.l     A7, 4
0000183A  41EE FFF6                lea.l      A0, [A6 - 0xA]
0000183E  43EE FFEC                lea.l      A1, [A6 - 0x14]
00001842  20D9                     move.l     [A0]+, [A1]+
00001844  20D9                     move.l     [A0]+, [A1]+
00001846  3091                     move.w     [A0], [A1]
00001848  6000 00D6                bra        +0xD8 /* 00001920 */
0000184C  486E FFEC                pea.l      [A6 - 0x14]
00001850  486E FFF6                pea.l      [A6 - 0xA]
00001854  4EAD 04DA                jsr        [A5 + 0x4DA /* export_151, CODE:1 @ 00005190 */]
00001858  588F                     addq.l     A7, 4
0000185A  41EE FFF6                lea.l      A0, [A6 - 0xA]
0000185E  43EE FFEC                lea.l      A1, [A6 - 0x14]
00001862  20D9                     move.l     [A0]+, [A1]+
00001864  20D9                     move.l     [A0]+, [A1]+
00001866  3091                     move.w     [A0], [A1]
00001868  6000 00B6                bra        +0xB8 /* 00001920 */
0000186C  486E FFEC                pea.l      [A6 - 0x14]
00001870  486E FFF6                pea.l      [A6 - 0xA]
00001874  4EAD 04D2                jsr        [A5 + 0x4D2 /* export_150, CODE:1 @ 00005194 */]
00001878  588F                     addq.l     A7, 4
0000187A  41EE FFF6                lea.l      A0, [A6 - 0xA]
0000187E  43EE FFEC                lea.l      A1, [A6 - 0x14]
00001882  20D9                     move.l     [A0]+, [A1]+
00001884  20D9                     move.l     [A0]+, [A1]+
00001886  3091                     move.w     [A0], [A1]
00001888  6000 0096                bra        +0x98 /* 00001920 */
0000188C  486E FFEC                pea.l      [A6 - 0x14]
00001890  486E FFF6                pea.l      [A6 - 0xA]
00001894  4EAD 05A2                jsr        [A5 + 0x5A2 /* export_176, CODE:2 @ 0000027A */]
00001898  588F                     addq.l     A7, 4
0000189A  41EE FFF6                lea.l      A0, [A6 - 0xA]
0000189E  43EE FFEC                lea.l      A1, [A6 - 0x14]
000018A2  20D9                     move.l     [A0]+, [A1]+
000018A4  20D9                     move.l     [A0]+, [A1]+
000018A6  3091                     move.w     [A0], [A1]
000018A8  6076                     bra        +0x78 /* 00001920 */
000018AA  486E FFEC                pea.l      [A6 - 0x14]
000018AE  486E FFF6                pea.l      [A6 - 0xA]
000018B2  4EAD 0582                jsr        [A5 + 0x582 /* export_172, CODE:2 @ 00000276 */]
000018B6  588F                     addq.l     A7, 4
000018B8  41EE FFF6                lea.l      A0, [A6 - 0xA]
000018BC  43EE FFEC                lea.l      A1, [A6 - 0x14]
000018C0  20D9                     move.l     [A0]+, [A1]+
000018C2  20D9                     move.l     [A0]+, [A1]+
000018C4  3091                     move.w     [A0], [A1]
000018C6  6058                     bra        +0x5A /* 00001920 */
000018C8  486E FFEC                pea.l      [A6 - 0x14]
000018CC  486E FFF6                pea.l      [A6 - 0xA]
000018D0  4EAD 04CA                jsr        [A5 + 0x4CA /* export_149, CODE:1 @ 00005198 */]
000018D4  588F                     addq.l     A7, 4
000018D6  41EE FFF6                lea.l      A0, [A6 - 0xA]
000018DA  43EE FFEC                lea.l      A1, [A6 - 0x14]
000018DE  20D9                     move.l     [A0]+, [A1]+
000018E0  20D9                     move.l     [A0]+, [A1]+
000018E2  3091                     move.w     [A0], [A1]
000018E4  603A                     bra        +0x3C /* 00001920 */
000018E6  486E FFEC                pea.l      [A6 - 0x14]
000018EA  486E FFF6                pea.l      [A6 - 0xA]
000018EE  4EAD 0592                jsr        [A5 + 0x592 /* export_174, CODE:2 @ 00000282 */]
000018F2  588F                     addq.l     A7, 4
000018F4  41EE FFF6                lea.l      A0, [A6 - 0xA]
000018F8  43EE FFEC                lea.l      A1, [A6 - 0x14]
000018FC  20D9                     move.l     [A0]+, [A1]+
000018FE  20D9                     move.l     [A0]+, [A1]+
00001900  3091                     move.w     [A0], [A1]
00001902  601C                     bra        +0x1E /* 00001920 */
00001904  486E FFEC                pea.l      [A6 - 0x14]
00001908  486E FFF6                pea.l      [A6 - 0xA]
0000190C  4EAD 059A                jsr        [A5 + 0x59A /* export_175, CODE:2 @ 0000027E */]
00001910  588F                     addq.l     A7, 4
00001912  41EE FFF6                lea.l      A0, [A6 - 0xA]
00001916  43EE FFEC                lea.l      A1, [A6 - 0x14]
0000191A  20D9                     move.l     [A0]+, [A1]+
0000191C  20D9                     move.l     [A0]+, [A1]+
0000191E  3091                     move.w     [A0], [A1]
label00001920:
00001920  486E FFF6                pea.l      [A6 - 0xA]
00001924  4EAD 0AFA                jsr        [A5 + 0xAFA /* export_347, CODE:8 @ 000039DE */]
00001928  4E5E                     unlink     A6
0000192A  205F                     movea.l    A0, [A7]+
0000192C  544F                     addq.w     A7, 2
0000192E  4ED0                     jmp        [A0]
fn00001930:
00001930  4E56 0000                link       A6, 0
00001934  1B7C 0001 FD8C           move.b     [A5 - 0x274], 0x1
0000193A  4EAD 15BA                jsr        [A5 + 0x15BA /* export_691, CODE:15 @ 00000AE6 */]
0000193E  422D FD8C                clr.b      [A5 - 0x274]
00001942  4E5E                     unlink     A6
00001944  2E9F                     move.l     [A7], [A7]+
00001946  4E75                     rts
fn00001948:
00001948  4E56 FFFC                link       A6, -0x0004
0000194C  48E7 0018                movem.l    -[A7], A3,A4
00001950  2F2D A6F8                move.l     -[A7], [A5 - 0x5908]
00001954  4EAD 0222                jsr        [A5 + 0x222 /* export_64, CODE:1 @ 00004678 */]
00001958  206D A6F8                movea.l    A0, [A5 - 0x5908]
0000195C  2850                     movea.l    A4, [A0]
0000195E  2F2C 003E                move.l     -[A7], [A4 + 0x3E]
00001962  42A7                     clr.l      -[A7]
00001964  2F2C 003E                move.l     -[A7], [A4 + 0x3E]
00001968  4EAD 0202                jsr        [A5 + 0x202 /* export_60, CODE:1 @ 00004640 */]
0000196C  201F                     move.l     D0, [A7]+
0000196E  5280                     addq.l     D0, 1
00001970  2F00                     move.l     -[A7], D0
00001972  4EAD 020A                jsr        [A5 + 0x20A /* export_61, CODE:1 @ 00004654 */]
00001976  206C 003E                movea.l    A0, [A4 + 0x3E]
0000197A  2F08                     move.l     -[A7], A0
0000197C  42A7                     clr.l      -[A7]
0000197E  2F2C 003E                move.l     -[A7], [A4 + 0x3E]
00001982  4EAD 0202                jsr        [A5 + 0x202 /* export_60, CODE:1 @ 00004640 */]
00001986  201F                     move.l     D0, [A7]+
00001988  205F                     movea.l    A0, [A7]+
0000198A  D090                     add.l      D0, [A0]
0000198C  2640                     movea.l    A3, D0
0000198E  97FC 0000 0001           sub.l      A3, 0x1
00001994  4213                     clr.b      [A3]
00001996  2F2D A6F8                move.l     -[A7], [A5 - 0x5908]
0000199A  4EAD 022A                jsr        [A5 + 0x22A /* export_65, CODE:1 @ 00004682 */]
0000199E  4CDF 1800                movem.l    A3,A4, [A7]+
000019A2  4E5E                     unlink     A6
000019A4  2E9F                     move.l     [A7], [A7]+
000019A6  4E75                     rts
fn000019A8:
000019A8  4E56 0000                link       A6, 0
000019AC  2F0C                     move.l     -[A7], A4
000019AE  206D A6F8                movea.l    A0, [A5 - 0x5908]
000019B2  2850                     movea.l    A4, [A0]
000019B4  2F2C 003E                move.l     -[A7], [A4 + 0x3E]
000019B8  42A7                     clr.l      -[A7]
000019BA  2F2C 003E                move.l     -[A7], [A4 + 0x3E]
000019BE  4EAD 0202                jsr        [A5 + 0x202 /* export_60, CODE:1 @ 00004640 */]
000019C2  201F                     move.l     D0, [A7]+
000019C4  5380                     subq.l     D0, 1
000019C6  2F00                     move.l     -[A7], D0
000019C8  4EAD 020A                jsr        [A5 + 0x20A /* export_61, CODE:1 @ 00004654 */]
000019CC  285F                     movea.l    A4, [A7]+
000019CE  4E5E                     unlink     A6
000019D0  2E9F                     move.l     [A7], [A7]+
000019D2  4E75                     rts
fn000019D4:
000019D4  4E56 FFFE                link       A6, -0x0002
000019D8  48E7 0118                movem.l    -[A7], D7,A3,A4
000019DC  266E 0008                movea.l    A3, [A6 + 0x8]
000019E0  206D A6F8                movea.l    A0, [A5 - 0x5908]
000019E4  2850                     movea.l    A4, [A0]
000019E6  3E2C 005E                move.w     D7, [A4 + 0x5E]
000019EA  BE6B FEDA                cmp.w      D7, [A3 - 0x126]
000019EE  6F0C                     ble        +0xE /* 000019FC */
000019F0  3007                     move.w     D0, D7
000019F2  906B FEDA                sub.w      D0, [A3 - 0x126]
000019F6  3D40 000C                move.w     [A6 + 0xC], D0
000019FA  6004                     bra        +0x6 /* 00001A00 */
label000019FC:
000019FC  426E 000C                clr.w      [A6 + 0xC]
label00001A00:
00001A00  4CDF 1880                movem.l    D7,A3,A4, [A7]+
00001A04  4E5E                     unlink     A6
00001A06  2E9F                     move.l     [A7], [A7]+
00001A08  4E75                     rts
fn00001A0A:
00001A0A  4E56 FFF8                link       A6, -0x0008
00001A0E  48E7 0118                movem.l    -[A7], D7,A3,A4
00001A12  206D A6F8                movea.l    A0, [A5 - 0x5908]
00001A16  2850                     movea.l    A4, [A0]
00001A18  47EC 0060                lea.l      A3, [A4 + 0x60]
00001A1C  3D6C 005E FFF8           move.w     [A6 - 0x8], [A4 + 0x5E]
00001A22  7E01                     moveq.l    D7, 0x01
00001A24  602A                     bra        +0x2C /* 00001A50 */
label00001A26:
00001A26  548B                     addq.l     A3, 2
00001A28  3013                     move.w     D0, [A3]
00001A2A  B06C 0020                cmp.w      D0, [A4 + 0x20]
00001A2E  6F1C                     ble        +0x1E /* 00001A4C */
00001A30  3007                     move.w     D0, D7
00001A32  5240                     addq.w     D0, 1
00001A34  2F00                     move.l     -[A7], D0
00001A36  4267                     clr.w      -[A7]
00001A38  4EAD 0A5A                jsr        [A5 + 0xA5A /* export_327, CODE:8 @ 00002DF4 */]
00001A3C  321F                     move.w     D1, [A7]+
00001A3E  201F                     move.l     D0, [A7]+
00001A40  9041                     sub.w      D0, D1
00001A42  C1EC 0018                muls.w     D0, [A4 + 0x18]
00001A46  3D40 000C                move.w     [A6 + 0xC], D0
00001A4A  6026                     bra        +0x28 /* 00001A72 */
label00001A4C:
00001A4C  5247                     addq.w     D7, 1
00001A4E  6906                     bvs        +0x8 /* 00001A56 */
label00001A50:
00001A50  BE6E FFF8                cmp.w      D7, [A6 - 0x8]
00001A54  6FD0                     ble        -0x2E /* 00001A26 */
label00001A56:
00001A56  302C 005E                move.w     D0, [A4 + 0x5E]
00001A5A  5240                     addq.w     D0, 1
00001A5C  2F00                     move.l     -[A7], D0
00001A5E  4267                     clr.w      -[A7]
00001A60  4EAD 0A5A                jsr        [A5 + 0xA5A /* export_327, CODE:8 @ 00002DF4 */]
00001A64  321F                     move.w     D1, [A7]+
00001A66  201F                     move.l     D0, [A7]+
00001A68  9041                     sub.w      D0, D1
00001A6A  C1EC 0018                muls.w     D0, [A4 + 0x18]
00001A6E  3D40 000C                move.w     [A6 + 0xC], D0
label00001A72:
00001A72  4CDF 1880                movem.l    D7,A3,A4, [A7]+
00001A76  4E5E                     unlink     A6
00001A78  2E9F                     move.l     [A7], [A7]+
00001A7A  4E75                     rts
fn00001A7C:
00001A7C  4E56 FFFA                link       A6, -0x0006
00001A80  48E7 0708                movem.l    -[A7], D5,D6,D7,A4
00001A84  4267                     clr.w      -[A7]
00001A86  2F2E 0008                move.l     -[A7], [A6 + 0x8]
00001A8A  4EBA FF48                jsr        [PC - 0xB8 /* 000019D4 */]
00001A8E  3A1F                     move.w     D5, [A7]+
00001A90  4267                     clr.w      -[A7]
00001A92  2F2D A6FC                move.l     -[A7], [A5 - 0x5904]
00001A96  A962                     syscall    GetControlMaximum/GetMaxCtl
00001A98  BA5F                     cmp.w      D5, [A7]+
00001A9A  6708                     beq        +0xA /* 00001AA4 */
00001A9C  2F2D A6FC                move.l     -[A7], [A5 - 0x5904]
00001AA0  3F05                     move.w     -[A7], D5
00001AA2  A965                     syscall    SetControlMaximum/SetMaxCtl
label00001AA4:
00001AA4  4267                     clr.w      -[A7]
00001AA6  2F2E 0008                move.l     -[A7], [A6 + 0x8]
00001AAA  4EBA FF5E                jsr        [PC - 0xA2 /* 00001A0A */]
00001AAE  3E1F                     move.w     D7, [A7]+
00001AB0  206D A6F8                movea.l    A0, [A5 - 0x5908]
00001AB4  2850                     movea.l    A4, [A0]
00001AB6  302C 000C                move.w     D0, [A4 + 0xC]
00001ABA  906C 0018                sub.w      D0, [A4 + 0x18]
00001ABE  B047                     cmp.w      D0, D7
00001AC0  5FC0                     sle        D0
00001AC2  322C 0018                move.w     D1, [A4 + 0x18]
00001AC6  D26C 0008                add.w      D1, [A4 + 0x8]
00001ACA  B247                     cmp.w      D1, D7
00001ACC  5CC1                     sge        D1
00001ACE  8001                     or.b       D0, D1
00001AD0  672E                     beq        +0x30 /* 00001B00 */
00001AD2  302C 000C                move.w     D0, [A4 + 0xC]
00001AD6  906C 0008                sub.w      D0, [A4 + 0x8]
00001ADA  48C0                     ext.l      D0
00001ADC  81FC 0002                divs.w     D0, 0x2
00001AE0  D06C 0008                add.w      D0, [A4 + 0x8]
00001AE4  3C00                     move.w     D6, D0
00001AE6  9C47                     sub.w      D6, D7
00001AE8  3006                     move.w     D0, D6
00001AEA  48C0                     ext.l      D0
00001AEC  81EC 0018                divs.w     D0, [A4 + 0x18]
00001AF0  3C00                     move.w     D6, D0
00001AF2  CDEC 0018                muls.w     D6, [A4 + 0x18]
00001AF6  4267                     clr.w      -[A7]
00001AF8  3F06                     move.w     -[A7], D6
00001AFA  2F2D A6F8                move.l     -[A7], [A5 - 0x5908]
00001AFE  A812                     syscall    TEPinScroll
label00001B00:
00001B00  2F2D A6FC                move.l     -[A7], [A5 - 0x5904]
00001B04  4267                     clr.w      -[A7]
00001B06  4EAD 0A5A                jsr        [A5 + 0xA5A /* export_327, CODE:8 @ 00002DF4 */]
00001B0A  A963                     syscall    SetControlValue/SetCtlValue
00001B0C  4EAD 08EA                jsr        [A5 + 0x8EA /* export_281, CODE:8 @ 0000013C */]
00001B10  4CDF 10E0                movem.l    D5,D6,D7,A4, [A7]+
00001B14  4E5E                     unlink     A6
00001B16  2E9F                     move.l     [A7], [A7]+
00001B18  4E75                     rts
fn00001B1A:
00001B1A  4E56 FFFE                link       A6, -0x0002
00001B1E  2F2E 0008                move.l     -[A7], [A6 + 0x8]
00001B22  4EBA FE24                jsr        [PC - 0x1DC /* 00001948 */]
00001B26  206D A6F8                movea.l    A0, [A5 - 0x5908]
00001B2A  2050                     movea.l    A0, [A0]
00001B2C  3D68 0020 FFFE           move.w     [A6 - 0x2], [A0 + 0x20]
00001B32  206D A6F8                movea.l    A0, [A5 - 0x5908]
00001B36  2050                     movea.l    A0, [A0]
00001B38  2F28 003E                move.l     -[A7], [A0 + 0x3E]
00001B3C  2F2D A708                move.l     -[A7], [A5 - 0x58F8]
00001B40  486E FFFE                pea.l      [A6 - 0x2]
00001B44  4267                     clr.w      -[A7]
00001B46  4EAD 09C2                jsr        [A5 + 0x9C2 /* export_308, CODE:8 @ 00000D5E */]
00001B4A  2F2D A708                move.l     -[A7], [A5 - 0x58F8]
00001B4E  2F2D A6F8                move.l     -[A7], [A5 - 0x5908]
00001B52  4EAD 19D2                jsr        [A5 + 0x19D2 /* export_822, CODE:16 @ 00001188 */]
00001B56  302E FFFE                move.w     D0, [A6 - 0x2]
00001B5A  48C0                     ext.l      D0
00001B5C  2F00                     move.l     -[A7], D0
00001B5E  302E FFFE                move.w     D0, [A6 - 0x2]
00001B62  48C0                     ext.l      D0
00001B64  2F00                     move.l     -[A7], D0
00001B66  2F2D A6F8                move.l     -[A7], [A5 - 0x5908]
00001B6A  A9D1                     syscall    TESetSelect
00001B6C  206E 0008                movea.l    A0, [A6 + 0x8]
00001B70  4868 FEEC                pea.l      [A0 - 0x114]
00001B74  A928                     syscall    InvalRect
00001B76  2F2D A708                move.l     -[A7], [A5 - 0x58F8]
00001B7A  42A7                     clr.l      -[A7]
00001B7C  4EAD 020A                jsr        [A5 + 0x20A /* export_61, CODE:1 @ 00004654 */]
00001B80  2F2E 0008                move.l     -[A7], [A6 + 0x8]
00001B84  4EBA FEF6                jsr        [PC - 0x10A /* 00001A7C */]
00001B88  4E5E                     unlink     A6
00001B8A  2E9F                     move.l     [A7], [A7]+
00001B8C  4E75                     rts
fn00001B8E:
00001B8E  4E56 0000                link       A6, 0
00001B92  2F0C                     move.l     -[A7], A4
00001B94  286E 0008                movea.l    A4, [A6 + 0x8]
00001B98  486C FED2                pea.l      [A4 - 0x12E]
00001B9C  A8A1                     syscall    FrameRect
00001B9E  3F2C FED4                move.w     -[A7], [A4 - 0x12C]
00001BA2  302C FED2                move.w     D0, [A4 - 0x12E]
00001BA6  907C 000A                sub.w      D0, 0xA /* '\n' */
00001BAA  3F00                     move.w     -[A7], D0
00001BAC  A893                     syscall    MoveTo
00001BAE  4267                     clr.w      -[A7]
00001BB0  A887                     syscall    TextFont
00001BB2  3F3C 000C                move.w     -[A7], 0xC
00001BB6  A88A                     syscall    TextSize
00001BB8  486C FF00                pea.l      [A4 - 0x100]
00001BBC  A884                     syscall    DrawString
00001BBE  285F                     movea.l    A4, [A7]+
00001BC0  4E5E                     unlink     A6
00001BC2  2E9F                     move.l     [A7], [A7]+
00001BC4  4E75                     rts
fn00001BC6:
00001BC6  4E56 0000                link       A6, 0
00001BCA  2F0C                     move.l     -[A7], A4
00001BCC  286E 0008                movea.l    A4, [A6 + 0x8]
00001BD0  2F2C FEFC                move.l     -[A7], [A4 - 0x104]
00001BD4  A873                     syscall    SetPort
00001BD6  2F2C FEFC                move.l     -[A7], [A4 - 0x104]
00001BDA  A922                     syscall    BeginUpdate
00001BDC  2F2E 0008                move.l     -[A7], [A6 + 0x8]
00001BE0  4EBA FFAC                jsr        [PC - 0x54 /* 00001B8E */]
00001BE4  486C FEEC                pea.l      [A4 - 0x114]
00001BE8  A8A3                     syscall    EraseRect
00001BEA  486C FEEC                pea.l      [A4 - 0x114]
00001BEE  2F2D A6F8                move.l     -[A7], [A5 - 0x5908]
00001BF2  A9D3                     syscall    TEUpdate
00001BF4  2F2C FEFC                move.l     -[A7], [A4 - 0x104]
00001BF8  A969                     syscall    DrawControls
00001BFA  2F2C FEFC                move.l     -[A7], [A4 - 0x104]
00001BFE  A923                     syscall    EndUpdate
00001C00  285F                     movea.l    A4, [A7]+
00001C02  4E5E                     unlink     A6
00001C04  2E9F                     move.l     [A7], [A7]+
00001C06  4E75                     rts
fn00001C08:
00001C08  4E56 FDC0                link       A6, -0x0240
00001C0C  48E7 0F18                movem.l    -[A7], D4,D5,D6,D7,A3,A4
00001C10  286E 0008                movea.l    A4, [A6 + 0x8]
00001C14  206E 0008                movea.l    A0, [A6 + 0x8]
00001C18  4228 0012                clr.b      [A0 + 0x12]
00001C1C  426E FEEA                clr.w      [A6 - 0x116]
00001C20  41ED 9A82                lea.l      A0, [A5 - 0x657E]
00001C24  B1ED A80C                cmpa.l     A0, [A5 - 0x57F4]
00001C28  56C0                     sne        D0
00001C2A  C02C 0008                and.b      D0, [A4 + 0x8]
00001C2E  6738                     beq        +0x3A /* 00001C68 */
00001C30  206D A80C                movea.l    A0, [A5 - 0x57F4]
00001C34  47E8 003A                lea.l      A3, [A0 + 0x3A]
00001C38  2D6D D470 FEDE           move.l     [A6 - 0x122], [A5 - 0x2B90]
00001C3E  4A6B 000A                tst.w      [A3 + 0xA]
00001C42  6706                     beq        +0x8 /* 00001C4A */
00001C44  376B 000A 0008           move.w     [A3 + 0x8], [A3 + 0xA]
label00001C4A:
00001C4A  206D A80C                movea.l    A0, [A5 - 0x57F4]
00001C4E  4868 003A                pea.l      [A0 + 0x3A]
00001C52  4267                     clr.w      -[A7]
00001C54  4EAD 0BCA                jsr        [A5 + 0xBCA /* export_373, CODE:8 @ 00004222 */]
00001C58  3D6D D46C FEEA           move.w     [A6 - 0x116], [A5 - 0x2B94]
00001C5E  2F2E FEDE                move.l     -[A7], [A6 - 0x122]
00001C62  4267                     clr.w      -[A7]
00001C64  4EAD 0BCA                jsr        [A5 + 0xBCA /* export_373, CODE:8 @ 00004222 */]
label00001C68:
00001C68  206C 000A                movea.l    A0, [A4 + 0xA]
00001C6C  2050                     movea.l    A0, [A0]
00001C6E  4A10                     tst.b      [A0]
00001C70  57C0                     seq        D0
00001C72  2F00                     move.l     -[A7], D0
00001C74  2F00                     move.l     -[A7], D0
00001C76  486E FDC2                pea.l      [A6 - 0x23E]
00001C7A  3F3C 0030                move.w     -[A7], 0x30 /* '0' */
00001C7E  4EAD 09E2                jsr        [A5 + 0x9E2 /* export_312, CODE:8 @ 00000FF0 */]
00001C82  221F                     move.l     D1, [A7]+
00001C84  201F                     move.l     D0, [A7]+
00001C86  2F01                     move.l     -[A7], D1
00001C88  486C FF00                pea.l      [A4 - 0x100]
00001C8C  4EAD 0502                jsr        [A5 + 0x502 /* export_156, CODE:1 @ 000052D2 */]
00001C90  321F                     move.w     D1, [A7]+
00001C92  201F                     move.l     D0, [A7]+
00001C94  4A41                     tst.w      D1
00001C96  56C1                     sne        D1
00001C98  C001                     and.b      D0, D1
00001C9A  6776                     beq        +0x78 /* 00001D12 */
00001C9C  41EE FEEC                lea.l      A0, [A6 - 0x114]
00001CA0  43FA 04EC                lea.l      A1, [PC + 0x4EC /* 0000218E, value 0x186F6E20, pstring "on mouseUp??end mouseUp?" */]
00001CA4  7005                     moveq.l    D0, 0x05
label00001CA6:
00001CA6  20D9                     move.l     [A0]+, [A1]+
00001CA8  51C8 FFFC                dbf        D0, -0x6 /* 00001CA6 */
00001CAC  3091                     move.w     [A0], [A1]
00001CAE  487A 04DC                pea.l      [PC + 0x4DC /* 0000218C, value 0x13F186F */]
00001CB2  486E FEEC                pea.l      [A6 - 0x114]
00001CB6  4EAD 0502                jsr        [A5 + 0x502 /* export_156, CODE:1 @ 000052D2 */]
00001CBA  3D5F FEEA                move.w     [A6 - 0x116], [A7]+
00001CBE  4240                     clr.w      D0
00001CC0  102E FEEC                move.b     D0, [A6 - 0x114]
00001CC4  3D40 FDC0                move.w     [A6 - 0x240], D0
00001CC8  3D7C 0001 FEE6           move.w     [A6 - 0x11A], 0x1
00001CCE  6028                     bra        +0x2A /* 00001CF8 */
label00001CD0:
00001CD0  302E FEE6                move.w     D0, [A6 - 0x11A]
00001CD4  4241                     clr.w      D1
00001CD6  41EE FEEC                lea.l      A0, [A6 - 0x114]
00001CDA  1230 0000                move.b     D1, [A0 + D0.w]
00001CDE  703F                     moveq.l    D0, 0x3F
00001CE0  B041                     cmp.w      D0, D1
00001CE2  660E                     bne        +0x10 /* 00001CF2 */
00001CE4  302E FEE6                move.w     D0, [A6 - 0x11A]
00001CE8  41EE FEEC                lea.l      A0, [A6 - 0x114]
00001CEC  11BC 000D 0000           move.b     [A0 + D0.w], 0xD /* '\r' */
label00001CF2:
00001CF2  526E FEE6                addq.w     [A6 - 0x11A], 1
00001CF6  690A                     bvs        +0xC /* 00001D02 */
label00001CF8:
00001CF8  302E FEE6                move.w     D0, [A6 - 0x11A]
00001CFC  B06E FDC0                cmp.w      D0, [A6 - 0x240]
00001D00  6FCE                     ble        -0x30 /* 00001CD0 */
label00001D02:
00001D02  42A7                     clr.l      -[A7]
00001D04  486E FEEC                pea.l      [A6 - 0x114]
00001D08  4EAD 190A                jsr        [A5 + 0x190A /* export_797, CODE:16 @ 00000A44 */]
00001D0C  2D5F FFFC                move.l     [A6 - 0x4], [A7]+
00001D10  604C                     bra        +0x4E /* 00001D5E */
label00001D12:
00001D12  2D6C 000A FFFC           move.l     [A6 - 0x4], [A4 + 0xA]
00001D18  4267                     clr.w      -[A7]
00001D1A  486E FFFC                pea.l      [A6 - 0x4]
00001D1E  4EAD 0462                jsr        [A5 + 0x462 /* export_136, CODE:1 @ 00004DBC */]
00001D22  4A5F                     tst.w      [A7]+
00001D24  671E                     beq        +0x20 /* 00001D44 */
00001D26  3F3C 002D                move.w     -[A7], 0x2D /* '-' */
00001D2A  4EAD 098A                jsr        [A5 + 0x98A /* export_301, CODE:8 @ 00000B58 */]
00001D2E  42A7                     clr.l      -[A7]
00001D30  7001                     moveq.l    D0, 0x01
00001D32  2F00                     move.l     -[A7], D0
00001D34  4EAD 18DA                jsr        [A5 + 0x18DA /* export_791, CODE:16 @ 00000896 */]
00001D38  2D5F FFFC                move.l     [A6 - 0x4], [A7]+
00001D3C  206E FFFC                movea.l    A0, [A6 - 0x4]
00001D40  2050                     movea.l    A0, [A0]
00001D42  4210                     clr.b      [A0]
label00001D44:
00001D44  102D F2B3                move.b     D0, [A5 - 0xD4D]
00001D48  6714                     beq        +0x16 /* 00001D5E */
00001D4A  206E FFFC                movea.l    A0, [A6 - 0x4]
00001D4E  2F10                     move.l     -[A7], [A0]
00001D50  2F3C 000D 00C2           move.l     -[A7], 0xD00C2
00001D56  3F3C 007E                move.w     -[A7], 0x7E /* '~' */
00001D5A  4EAD 0CDA                jsr        [A5 + 0xCDA /* export_407, CODE:8 @ 000057BE */]
label00001D5E:
00001D5E  4AAD B42A                tst.l      [A5 - 0x4BD6]
00001D62  6736                     beq        +0x38 /* 00001D9A */
00001D64  3B7C 0003 B3D4           move.w     [A5 - 0x4C2C], 0x3
00001D6A  2B6E FFFC B3D8           move.l     [A5 - 0x4C28], [A6 - 0x4]
00001D70  42A7                     clr.l      -[A7]
00001D72  42A7                     clr.l      -[A7]
00001D74  4EAD 18DA                jsr        [A5 + 0x18DA /* export_791, CODE:16 @ 00000896 */]
00001D78  2B5F B3DC                move.l     [A5 - 0x4C24], [A7]+
00001D7C  3B6E FEEA B3E0           move.w     [A5 - 0x4C20], [A6 - 0x116]
00001D82  4EAD 0922                jsr        [A5 + 0x922 /* export_288, CODE:8 @ 000005FA */]
00001D86  3D6D B3E0 FEEA           move.w     [A6 - 0x116], [A5 - 0x4C20]
00001D8C  2F2E FFFC                move.l     -[A7], [A6 - 0x4]
00001D90  4EAD 18D2                jsr        [A5 + 0x18D2 /* export_790, CODE:16 @ 0000083E */]
00001D94  2D6D B3DC FFFC           move.l     [A6 - 0x4], [A5 - 0x4C24]
label00001D9A:
00001D9A  2F2E FFFC                move.l     -[A7], [A6 - 0x4]
00001D9E  2F2D A708                move.l     -[A7], [A5 - 0x58F8]
00001DA2  486E FEEA                pea.l      [A6 - 0x116]
00001DA6  1F3C 0001                move.b     -[A7], 0x1
00001DAA  4EAD 09C2                jsr        [A5 + 0x9C2 /* export_308, CODE:8 @ 00000D5E */]
00001DAE  2F2E FFFC                move.l     -[A7], [A6 - 0x4]
00001DB2  4EAD 18D2                jsr        [A5 + 0x18D2 /* export_790, CODE:16 @ 0000083E */]
00001DB6  42A7                     clr.l      -[A7]
00001DB8  2F2D A708                move.l     -[A7], [A5 - 0x58F8]
00001DBC  4EAD 0202                jsr        [A5 + 0x202 /* export_60, CODE:1 @ 00004640 */]
00001DC0  0C9F 0000 7FFF           cmpi.l     [A7]+, 0x7FFF
00001DC6  6F2E                     ble        +0x30 /* 00001DF6 */
00001DC8  4EAD 1812                jsr        [A5 + 0x1812 /* export_766, CODE:16 @ 00000208 */]
00001DCC  42A7                     clr.l      -[A7]
00001DCE  206D A708                movea.l    A0, [A5 - 0x58F8]
00001DD2  2F10                     move.l     -[A7], [A0]
00001DD4  4EAD 1ADA                jsr        [A5 + 0x1ADA /* export_855, CODE:16 @ 00001C66 */]
00001DD8  0C9F 0000 7FFF           cmpi.l     [A7]+, 0x7FFF
00001DDE  6F16                     ble        +0x18 /* 00001DF6 */
00001DE0  2F2D A708                move.l     -[A7], [A5 - 0x58F8]
00001DE4  42A7                     clr.l      -[A7]
00001DE6  4EAD 020A                jsr        [A5 + 0x20A /* export_61, CODE:1 @ 00004654 */]
00001DEA  206E 0008                movea.l    A0, [A6 + 0x8]
00001DEE  2C48                     movea.l    A6, A0
00001DF0  4EFA 0D00                jmp        [PC + 0xD00 /* 00002AF2 */]
00001DF4  0000 41EE                ori.b      D0, 0xEE
// begin alternate branch 00001DF6-00001DFA
label00001DF6:
00001DF6  41EE FFF4                lea.l      A0, [A6 - 0xC]
// end alternate branch 00001DF6-00001DFA
label00001DF6: // (misaligned)
00001DF8  FFF4                     .invalid   <<F/7/7>>
00001DFA  43ED FE34                lea.l      A1, [A5 - 0x1CC]
00001DFE  20D9                     move.l     [A0]+, [A1]+
00001E00  20D9                     move.l     [A0]+, [A1]+
00001E02  302E FFF4                move.w     D0, [A6 - 0xC]
00001E06  D07C 0014                add.w      D0, 0x14
00001E0A  3D40 FFF4                move.w     [A6 - 0xC], D0
00001E0E  486E FFF4                pea.l      [A6 - 0xC]
00001E12  302E FFFA                move.w     D0, [A6 - 0x6]
00001E16  906E FFF6                sub.w      D0, [A6 - 0xA]
00001E1A  907C 01E0                sub.w      D0, 0x1E0
00001E1E  48C0                     ext.l      D0
00001E20  81FC 0002                divs.w     D0, 0x2
00001E24  3F00                     move.w     -[A7], D0
00001E26  3F3C 0012                move.w     -[A7], 0x12
00001E2A  A8A9                     syscall    InsetRect
00001E2C  42A7                     clr.l      -[A7]
00001E2E  42A7                     clr.l      -[A7]
00001E30  486E FFF4                pea.l      [A6 - 0xC]
00001E34  487A 0354                pea.l      [PC + 0x354 /* 0000218A, value 0x13F, cstring "" */]
00001E38  1F3C 0001                move.b     -[A7], 0x1
00001E3C  3F3C 0001                move.w     -[A7], 0x1
00001E40  70FF                     moveq.l    D0, 0xFFFFFFFF
00001E42  2F00                     move.l     -[A7], D0
00001E44  4267                     clr.w      -[A7]
00001E46  7001                     moveq.l    D0, 0x01
00001E48  2F00                     move.l     -[A7], D0
00001E4A  A913                     syscall    NewWindow
00001E4C  295F FEFC                move.l     [A4 - 0x104], [A7]+
00001E50  2F2C FEFC                move.l     -[A7], [A4 - 0x104]
00001E54  A873                     syscall    SetPort
00001E56  102D F2B3                move.b     D0, [A5 - 0xD4D]
00001E5A  6730                     beq        +0x32 /* 00001E8C */
00001E5C  3F2D F2BC                move.w     -[A7], [A5 - 0xD44]
00001E60  A887                     syscall    TextFont
00001E62  3F2D F2BA                move.w     -[A7], [A5 - 0xD46]
00001E66  A88A                     syscall    TextSize
00001E68  486E FED2                pea.l      [A6 - 0x12E]
00001E6C  A88B                     syscall    GetFontInfo
00001E6E  3D6E FED2 FEDA           move.w     [A6 - 0x126], [A6 - 0x12E]
00001E74  302E FED4                move.w     D0, [A6 - 0x12C]
00001E78  D06E FED2                add.w      D0, [A6 - 0x12E]
00001E7C  3A2E FED8                move.w     D5, [A6 - 0x128]
00001E80  DA40                     add.w      D5, D0
00001E82  3F2D F2BC                move.w     -[A7], [A5 - 0xD44]
00001E86  4EAD 21D2                jsr        [A5 + 0x21D2 /* export_1078, CODE:20 @ 00004516 */]
00001E8A  6014                     bra        +0x16 /* 00001EA0 */
label00001E8C:
00001E8C  3F3C 0004                move.w     -[A7], 0x4
00001E90  A887                     syscall    TextFont
00001E92  3F3C 0009                move.w     -[A7], 0x9 /* '\t' */
00001E96  A88A                     syscall    TextSize
00001E98  7A0C                     moveq.l    D5, 0x0C
00001E9A  3D7C 0008 FEDA           move.w     [A6 - 0x126], 0x8
label00001EA0:
00001EA0  206C FEFC                movea.l    A0, [A4 - 0x104]
00001EA4  43ED A700                lea.l      A1, [A5 - 0x5900]
00001EA8  41E8 0010                lea.l      A0, [A0 + 0x10]
00001EAC  22D8                     move.l     [A1]+, [A0]+
00001EAE  22D8                     move.l     [A1]+, [A0]+
00001EB0  47ED A700                lea.l      A3, [A5 - 0x5900]
00001EB4  3013                     move.w     D0, [A3]
00001EB6  D07C 000F                add.w      D0, 0xF
00001EBA  3680                     move.w     [A3], D0
00001EBC  302B 0004                move.w     D0, [A3 + 0x4]
00001EC0  907C 001E                sub.w      D0, 0x1E
00001EC4  3740 0004                move.w     [A3 + 0x4], D0
00001EC8  486D A700                pea.l      [A5 - 0x5900]
00001ECC  2F3C 000C 000C           move.l     -[A7], 0xC000C
00001ED2  A8A9                     syscall    InsetRect
00001ED4  302D A704                move.w     D0, [A5 - 0x58FC]
00001ED8  906D A700                sub.w      D0, [A5 - 0x5900]
00001EDC  48C0                     ext.l      D0
00001EDE  81C5                     divs.w     D0, D5
00001EE0  3940 FEDA                move.w     [A4 - 0x126], D0
00001EE4  102C FEDB                move.b     D0, [A4 - 0x125]
00001EE8  0240 0001                andi.w     D0, 0x1
00001EEC  6704                     beq        +0x6 /* 00001EF2 */
00001EEE  536C FEDA                subq.w     [A4 - 0x126], 1
label00001EF2:
00001EF2  3005                     move.w     D0, D5
00001EF4  C1EC FEDA                muls.w     D0, [A4 - 0x126]
00001EF8  D06D A700                add.w      D0, [A5 - 0x5900]
00001EFC  5840                     addq.w     D0, 4
00001EFE  3B40 A704                move.w     [A5 - 0x58FC], D0
00001F02  41EC FED2                lea.l      A0, [A4 - 0x12E]
00001F06  43ED A700                lea.l      A1, [A5 - 0x5900]
00001F0A  20D9                     move.l     [A0]+, [A1]+
00001F0C  20D9                     move.l     [A0]+, [A1]+
00001F0E  302D A706                move.w     D0, [A5 - 0x58FA]
00001F12  907C 0010                sub.w      D0, 0x10
00001F16  3B40 A706                move.w     [A5 - 0x58FA], D0
00001F1A  42A7                     clr.l      -[A7]
00001F1C  3F3C 0259                move.w     -[A7], 0x259
00001F20  2F2C FEFC                move.l     -[A7], [A4 - 0x104]
00001F24  A9BE                     syscall    GetNewControl
00001F26  295F FEE0                move.l     [A4 - 0x120], [A7]+
00001F2A  42A7                     clr.l      -[A7]
00001F2C  3F3C 025A                move.w     -[A7], 0x25A
00001F30  2F2C FEFC                move.l     -[A7], [A4 - 0x104]
00001F34  A9BE                     syscall    GetNewControl
00001F36  295F FEDC                move.l     [A4 - 0x124], [A7]+
00001F3A  42A7                     clr.l      -[A7]
00001F3C  3F3C 025B                move.w     -[A7], 0x25B
00001F40  2F2C FEFC                move.l     -[A7], [A4 - 0x104]
00001F44  A9BE                     syscall    GetNewControl
00001F46  295F FEE8                move.l     [A4 - 0x118], [A7]+
00001F4A  42A7                     clr.l      -[A7]
00001F4C  3F3C 025C                move.w     -[A7], 0x25C
00001F50  2F2C FEFC                move.l     -[A7], [A4 - 0x104]
00001F54  A9BE                     syscall    GetNewControl
00001F56  295F FEE4                move.l     [A4 - 0x11C], [A7]+
00001F5A  206C FEE0                movea.l    A0, [A4 - 0x120]
00001F5E  2050                     movea.l    A0, [A0]
00001F60  5088                     addq.l     A0, 8
00001F62  2E08                     move.l     D7, A0
00001F64  206C FEDC                movea.l    A0, [A4 - 0x124]
00001F68  2050                     movea.l    A0, [A0]
00001F6A  5088                     addq.l     A0, 8
00001F6C  2808                     move.l     D4, A0
00001F6E  206C FEE8                movea.l    A0, [A4 - 0x118]
00001F72  2050                     movea.l    A0, [A0]
00001F74  5088                     addq.l     A0, 8
00001F76  2C08                     move.l     D6, A0
00001F78  206C FEE4                movea.l    A0, [A4 - 0x11C]
00001F7C  2050                     movea.l    A0, [A0]
00001F7E  5088                     addq.l     A0, 8
00001F80  2D48 FECE                move.l     [A6 - 0x132], A0
00001F84  2F07                     move.l     -[A7], D7
00001F86  4267                     clr.w      -[A7]
00001F88  302D A704                move.w     D0, [A5 - 0x58FC]
00001F8C  D07C 000E                add.w      D0, 0xE
00001F90  2047                     movea.l    A0, D7
00001F92  9050                     sub.w      D0, [A0]
00001F94  3F00                     move.w     -[A7], D0
00001F96  A8A8                     syscall    OffsetRect
00001F98  2F04                     move.l     -[A7], D4
00001F9A  4267                     clr.w      -[A7]
00001F9C  302D A704                move.w     D0, [A5 - 0x58FC]
00001FA0  D07C 000E                add.w      D0, 0xE
00001FA4  2044                     movea.l    A0, D4
00001FA6  9050                     sub.w      D0, [A0]
00001FA8  3F00                     move.w     -[A7], D0
00001FAA  A8A8                     syscall    OffsetRect
00001FAC  2F06                     move.l     -[A7], D6
00001FAE  4267                     clr.w      -[A7]
00001FB0  302D A704                move.w     D0, [A5 - 0x58FC]
00001FB4  D07C 000E                add.w      D0, 0xE
00001FB8  2046                     movea.l    A0, D6
00001FBA  9050                     sub.w      D0, [A0]
00001FBC  3F00                     move.w     -[A7], D0
00001FBE  A8A8                     syscall    OffsetRect
00001FC0  2F2E FECE                move.l     -[A7], [A6 - 0x132]
00001FC4  4267                     clr.w      -[A7]
00001FC6  302D A704                move.w     D0, [A5 - 0x58FC]
00001FCA  D07C 000E                add.w      D0, 0xE
00001FCE  206E FECE                movea.l    A0, [A6 - 0x132]
00001FD2  9050                     sub.w      D0, [A0]
00001FD4  3F00                     move.w     -[A7], D0
00001FD6  A8A8                     syscall    OffsetRect
00001FD8  2F06                     move.l     -[A7], D6
00001FDA  2046                     movea.l    A0, D6
00001FDC  302D A702                move.w     D0, [A5 - 0x58FE]
00001FE0  9068 0002                sub.w      D0, [A0 + 0x2]
00001FE4  3F00                     move.w     -[A7], D0
00001FE6  4267                     clr.w      -[A7]
00001FE8  A8A8                     syscall    OffsetRect
00001FEA  2F2E FECE                move.l     -[A7], [A6 - 0x132]
00001FEE  2046                     movea.l    A0, D6
00001FF0  226E FECE                movea.l    A1, [A6 - 0x132]
00001FF4  3028 0006                move.w     D0, [A0 + 0x6]
00001FF8  9069 0002                sub.w      D0, [A1 + 0x2]
00001FFC  D07C 0010                add.w      D0, 0x10
00002000  3F00                     move.w     -[A7], D0
00002002  4267                     clr.w      -[A7]
00002004  A8A8                     syscall    OffsetRect
00002006  2F07                     move.l     -[A7], D7
00002008  2047                     movea.l    A0, D7
0000200A  302D A706                move.w     D0, [A5 - 0x58FA]
0000200E  9068 0006                sub.w      D0, [A0 + 0x6]
00002012  3F00                     move.w     -[A7], D0
00002014  4267                     clr.w      -[A7]
00002016  A8A8                     syscall    OffsetRect
00002018  2F04                     move.l     -[A7], D4
0000201A  2047                     movea.l    A0, D7
0000201C  2244                     movea.l    A1, D4
0000201E  3028 0002                move.w     D0, [A0 + 0x2]
00002022  9069 0006                sub.w      D0, [A1 + 0x6]
00002026  907C 0010                sub.w      D0, 0x10
0000202A  3F00                     move.w     -[A7], D0
0000202C  4267                     clr.w      -[A7]
0000202E  A8A8                     syscall    OffsetRect
00002030  2F2C FEE0                move.l     -[A7], [A4 - 0x120]
00002034  A957                     syscall    ShowControl
00002036  2F2C FEDC                move.l     -[A7], [A4 - 0x124]
0000203A  A957                     syscall    ShowControl
0000203C  2F2C FEE8                move.l     -[A7], [A4 - 0x118]
00002040  A957                     syscall    ShowControl
00002042  2F2C FEE4                move.l     -[A7], [A4 - 0x11C]
00002046  A957                     syscall    ShowControl
00002048  42A7                     clr.l      -[A7]
0000204A  3F3C 0004                move.w     -[A7], 0x4
0000204E  A9B9                     syscall    GetCursor
00002050  205F                     movea.l    A0, [A7]+
00002052  2F10                     move.l     -[A7], [A0]
00002054  A851                     syscall    SetCursor
00002056  41EC FEEC                lea.l      A0, [A4 - 0x114]
0000205A  43ED A700                lea.l      A1, [A5 - 0x5900]
0000205E  20D9                     move.l     [A0]+, [A1]+
00002060  20D9                     move.l     [A0]+, [A1]+
00002062  486C FEEC                pea.l      [A4 - 0x114]
00002066  2F3C 0002 0002           move.l     -[A7], 0x20002
0000206C  A8A9                     syscall    InsetRect
0000206E  302C FEF2                move.w     D0, [A4 - 0x10E]
00002072  5240                     addq.w     D0, 1
00002074  3940 FEF2                move.w     [A4 - 0x10E], D0
00002078  41EC FEF4                lea.l      A0, [A4 - 0x10C]
0000207C  43EC FEEC                lea.l      A1, [A4 - 0x114]
00002080  20D9                     move.l     [A0]+, [A1]+
00002082  20D9                     move.l     [A0]+, [A1]+
00002084  302C FEF6                move.w     D0, [A4 - 0x10A]
00002088  5840                     addq.w     D0, 4
0000208A  3940 FEF6                move.w     [A4 - 0x10A], D0
0000208E  302C FEFA                move.w     D0, [A4 - 0x106]
00002092  5D40                     subq.w     D0, 6
00002094  3940 FEFA                move.w     [A4 - 0x106], D0
00002098  42A7                     clr.l      -[A7]
0000209A  486C FEF4                pea.l      [A4 - 0x10C]
0000209E  486C FEEC                pea.l      [A4 - 0x114]
000020A2  A9D2                     syscall    TENew
000020A4  2B5F A6F8                move.l     [A5 - 0x5908], [A7]+
000020A8  41ED 19EA                lea.l      A0, [A5 + 0x19EA /* export_825, CODE:16 @ 00001240 */]
000020AC  226D A6F8                movea.l    A1, [A5 - 0x5908]
000020B0  2251                     movea.l    A1, [A1]
000020B2  2348 0026                move.l     [A1 + 0x26], A0
000020B6  206D A6F8                movea.l    A0, [A5 - 0x5908]
000020BA  2650                     movea.l    A3, [A0]
000020BC  3745 0018                move.w     [A3 + 0x18], D5
000020C0  376E FEDA 001A           move.w     [A3 + 0x1A], [A6 - 0x126]
000020C6  377C FFFF 0048           move.w     [A3 + 0x48], 0xFFFF
000020CC  486D 1492                pea.l      [A5 + 0x1492 /* export_654, CODE:13 @ 00001802 */]
000020D0  2F2D A6F8                move.l     -[A7], [A5 - 0x5908]
000020D4  4EAD 0482                jsr        [A5 + 0x482 /* export_140, CODE:1 @ 00004E44 */]
000020D8  2F2E 0008                move.l     -[A7], [A6 + 0x8]
000020DC  4EBA FAB0                jsr        [PC - 0x550 /* 00001B8E */]
000020E0  2F2D A708                move.l     -[A7], [A5 - 0x58F8]
000020E4  2F2D A6F8                move.l     -[A7], [A5 - 0x5908]
000020E8  4EAD 19D2                jsr        [A5 + 0x19D2 /* export_822, CODE:16 @ 00001188 */]
000020EC  302E FEEA                move.w     D0, [A6 - 0x116]
000020F0  48C0                     ext.l      D0
000020F2  2F00                     move.l     -[A7], D0
000020F4  302E FEEA                move.w     D0, [A6 - 0x116]
000020F8  48C0                     ext.l      D0
000020FA  2F00                     move.l     -[A7], D0
000020FC  2F2D A6F8                move.l     -[A7], [A5 - 0x5908]
00002100  A9D1                     syscall    TESetSelect
00002102  2F2D A6F8                move.l     -[A7], [A5 - 0x5908]
00002106  A9D8                     syscall    TEActivate
00002108  2F2D A708                move.l     -[A7], [A5 - 0x58F8]
0000210C  42A7                     clr.l      -[A7]
0000210E  4EAD 020A                jsr        [A5 + 0x20A /* export_61, CODE:1 @ 00004654 */]
00002112  41EE FFEC                lea.l      A0, [A6 - 0x14]
00002116  43ED A700                lea.l      A1, [A5 - 0x5900]
0000211A  20D9                     move.l     [A0]+, [A1]+
0000211C  20D9                     move.l     [A0]+, [A1]+
0000211E  3D6D A706 FFEE           move.w     [A6 - 0x12], [A5 - 0x58FA]
00002124  302E FFEE                move.w     D0, [A6 - 0x12]
00002128  D07C 0010                add.w      D0, 0x10
0000212C  3D40 FFF2                move.w     [A6 - 0xE], D0
00002130  42A7                     clr.l      -[A7]
00002132  2F2C FEFC                move.l     -[A7], [A4 - 0x104]
00002136  486E FFEC                pea.l      [A6 - 0x14]
0000213A  487A 004E                pea.l      [PC + 0x4E /* 0000218A, value 0x13F, cstring "" */]
0000213E  1F3C 0001                move.b     -[A7], 0x1
00002142  4267                     clr.w      -[A7]
00002144  4EAD 0A5A                jsr        [A5 + 0xA5A /* export_327, CODE:8 @ 00002DF4 */]
00002148  42A7                     clr.l      -[A7]
0000214A  2F2E 0008                move.l     -[A7], [A6 + 0x8]
0000214E  4EBA F884                jsr        [PC - 0x77C /* 000019D4 */]
00002152  3F3C 0010                move.w     -[A7], 0x10
00002156  42A7                     clr.l      -[A7]
00002158  A954                     syscall    NewControl
0000215A  2B5F A6FC                move.l     [A5 - 0x5904], [A7]+
0000215E  2F2D A6FC                move.l     -[A7], [A5 - 0x5904]
00002162  4267                     clr.w      -[A7]
00002164  A95D                     syscall    HiliteControl
00002166  2F2E 0008                move.l     -[A7], [A6 + 0x8]
0000216A  4EBA F910                jsr        [PC - 0x6F0 /* 00001A7C */]
0000216E  2F2E 0008                move.l     -[A7], [A6 + 0x8]
00002172  4EBA FA52                jsr        [PC - 0x5AE /* 00001BC6 */]
00002176  197C 0001 FED0           move.b     [A4 - 0x130], 0x1
0000217C  422C FED1                clr.b      [A4 - 0x12F]
00002180  4CDF 18F0                movem.l    D4,D5,D6,D7,A3,A4, [A7]+
00002184  4E5E                     unlink     A6
00002186  2E9F                     move.l     [A7], [A7]+
00002188  4E75                     rts
0000218A  0000 013F                ori.b      D0, 0x3F /* '?' */
0000218E  186F 6E20                movea.b    A4, [A7 + 0x6E20]
00002192  6D6F                     blt        +0x71 /* 00002203 */
00002194  7573                     moveq.l    D2, 0x73
00002196  6555                     bcs        +0x57 /* 000021ED */
00002198  703F                     moveq.l    D0, 0x3F
0000219A  3F65 6E64                move.w     [A7 + 0x6E64], -[A5]
0000219E  206D 6F75                movea.l    A0, [A5 + 0x6F75]
000021A2  7365                     moveq.l    D1, 0x65
000021A4  5570 3F00                subq.w     [A0 + <<invalid base displacement size>> + D3 * 8], 2
fn000021A8:
000021A8  4E56 FFFC                link       A6, -0x0004
000021AC  48E7 0108                movem.l    -[A7], D7,A4
000021B0  286E 0008                movea.l    A4, [A6 + 0x8]
000021B4  2F2C FEFC                move.l     -[A7], [A4 - 0x104]
000021B8  A914                     syscall    DisposeWindow
000021BA  2F2E 0008                move.l     -[A7], [A6 + 0x8]
000021BE  4EBA F788                jsr        [PC - 0x878 /* 00001948 */]
000021C2  4AAD B42A                tst.l      [A5 - 0x4BD6]
000021C6  6658                     bne        +0x5A /* 00002220 */
000021C8  42A7                     clr.l      -[A7]
000021CA  206D A6F8                movea.l    A0, [A5 - 0x5908]
000021CE  2050                     movea.l    A0, [A0]
000021D0  2068 003E                movea.l    A0, [A0 + 0x3E]
000021D4  2F10                     move.l     -[A7], [A0]
000021D6  4EAD 1ADA                jsr        [A5 + 0x1ADA /* export_855, CODE:16 @ 00001C66 */]
000021DA  201F                     move.l     D0, [A7]+
000021DC  5280                     addq.l     D0, 1
000021DE  3E00                     move.w     D7, D0
000021E0  2F2C 000A                move.l     -[A7], [A4 + 0xA]
000021E4  3007                     move.w     D0, D7
000021E6  48C0                     ext.l      D0
000021E8  2F00                     move.l     -[A7], D0
000021EA  4EAD 1982                jsr        [A5 + 0x1982 /* export_812, CODE:16 @ 00000EAC */]
000021EE  4267                     clr.w      -[A7]
000021F0  3EB8 0220                move.w     [A7], [0x00000220 /* MemErr */]
000021F4  4A5F                     tst.w      [A7]+
000021F6  670A                     beq        +0xC /* 00002202 */
000021F8  3F3C 002D                move.w     -[A7], 0x2D /* '-' */
000021FC  4EAD 098A                jsr        [A5 + 0x98A /* export_301, CODE:8 @ 00000B58 */]
00002200  604E                     bra        +0x50 /* 00002250 */
label00002202:
00002202  206D A6F8                movea.l    A0, [A5 - 0x5908]
00002206  2050                     movea.l    A0, [A0]
00002208  2068 003E                movea.l    A0, [A0 + 0x3E]
0000220C  2F10                     move.l     -[A7], [A0]
0000220E  206C 000A                movea.l    A0, [A4 + 0xA]
00002212  2F10                     move.l     -[A7], [A0]
00002214  3007                     move.w     D0, D7
00002216  48C0                     ext.l      D0
00002218  2F00                     move.l     -[A7], D0
0000221A  4EAD 0C0A                jsr        [A5 + 0xC0A /* export_381, CODE:8 @ 00004612 */]
0000221E  6030                     bra        +0x32 /* 00002250 */
label00002220:
00002220  102C FED0                move.b     D0, [A4 - 0x130]
00002224  672A                     beq        +0x2C /* 00002250 */
00002226  3B7C 0002 B3D4           move.w     [A5 - 0x4C2C], 0x2
0000222C  206D A6F8                movea.l    A0, [A5 - 0x5908]
00002230  2050                     movea.l    A0, [A0]
00002232  2B68 003E B3D8           move.l     [A5 - 0x4C28], [A0 + 0x3E]
00002238  2B6C 000A B3DC           move.l     [A5 - 0x4C24], [A4 + 0xA]
0000223E  4EAD 0922                jsr        [A5 + 0x922 /* export_288, CODE:8 @ 000005FA */]
00002242  4A6D B3D6                tst.w      [A5 - 0x4C2A]
00002246  6708                     beq        +0xA /* 00002250 */
00002248  3F3C 002C                move.w     -[A7], 0x2C /* ',' */
0000224C  4EAD 098A                jsr        [A5 + 0x98A /* export_301, CODE:8 @ 00000B58 */]
label00002250:
00002250  102C FED0                move.b     D0, [A4 - 0x130]
00002254  6708                     beq        +0xA /* 0000225E */
00002256  2F2C 000A                move.l     -[A7], [A4 + 0xA]
0000225A  4EAD 0CAA                jsr        [A5 + 0xCAA /* export_401, CODE:8 @ 00004ECA */]
label0000225E:
0000225E  102D F2B3                move.b     D0, [A5 - 0xD4D]
00002262  6714                     beq        +0x16 /* 00002278 */
00002264  206C 000A                movea.l    A0, [A4 + 0xA]
00002268  2F10                     move.l     -[A7], [A0]
0000226A  2F3C 000D 007E           move.l     -[A7], 0xD007E /* '\r\0~' */
00002270  3F3C 00C2                move.w     -[A7], 0xC2
00002274  4EAD 0CDA                jsr        [A5 + 0xCDA /* export_407, CODE:8 @ 000057BE */]
label00002278:
00002278  2F2D A6F8                move.l     -[A7], [A5 - 0x5908]
0000227C  A9CD                     syscall    TEDispose
0000227E  2F2D EDC8                move.l     -[A7], [A5 - 0x1238]
00002282  A873                     syscall    SetPort
00002284  4EAD 1862                jsr        [A5 + 0x1862 /* export_776, CODE:16 @ 00000474 */]
00002288  4EAD 22A2                jsr        [A5 + 0x22A2 /* export_1104, CODE:20 @ 00005D82 */]
0000228C  4CDF 1080                movem.l    D7,A4, [A7]+
00002290  4E5E                     unlink     A6
00002292  2E9F                     move.l     [A7], [A7]+
00002294  4E75                     rts
fn00002296:
00002296  4E56 0000                link       A6, 0
0000229A  4EAD 156A                jsr        [A5 + 0x156A /* export_681, CODE:15 @ 000003C8 */]
0000229E  4EAD 0742                jsr        [A5 + 0x742 /* export_228, CODE:4 @ 00002584 */]
000022A2  2F2D A6F8                move.l     -[A7], [A5 - 0x5908]
000022A6  206E 0008                movea.l    A0, [A6 + 0x8]
000022AA  4868 FF00                pea.l      [A0 - 0x100]
000022AE  4EAD 0782                jsr        [A5 + 0x782 /* export_236, CODE:4 @ 0000399A */]
000022B2  4EAD 0602                jsr        [A5 + 0x602 /* export_188, CODE:4 @ 0000051C */]
000022B6  4EAD 155A                jsr        [A5 + 0x155A /* export_679, CODE:15 @ 00000242 */]
000022BA  2F2E 0008                move.l     -[A7], [A6 + 0x8]
000022BE  4EBA F906                jsr        [PC - 0x6FA /* 00001BC6 */]
000022C2  4E5E                     unlink     A6
000022C4  2E9F                     move.l     [A7], [A7]+
000022C6  4E75                     rts
fn000022C8:
000022C8  4E56 FFDC                link       A6, -0x0024
000022CC  48E7 0F18                movem.l    -[A7], D4,D5,D6,D7,A3,A4
000022D0  3D7C 0001 FFFA           move.w     [A6 - 0x6], 0x1
000022D6  102E 000C                move.b     D0, [A6 + 0xC]
000022DA  6754                     beq        +0x56 /* 00002330 */
000022DC  206D A6F8                movea.l    A0, [A5 - 0x5908]
000022E0  2850                     movea.l    A4, [A0]
000022E2  206C 003E                movea.l    A0, [A4 + 0x3E]
000022E6  302C 0020                move.w     D0, [A4 + 0x20]
000022EA  48C0                     ext.l      D0
000022EC  2C00                     move.l     D6, D0
000022EE  DC90                     add.l      D6, [A0]
000022F0  3E2C 0022                move.w     D7, [A4 + 0x22]
000022F4  9E6C 0020                sub.w      D7, [A4 + 0x20]
000022F8  4A47                     tst.w      D7
000022FA  6604                     bne        +0x6 /* 00002300 */
000022FC  6000 013E                bra        +0x140 /* 0000243C */
label00002300:
00002300  0C47 00FF                cmpi.w     D7, 0xFF
00002304  6F04                     ble        +0x6 /* 0000230A */
00002306  3E3C 00FF                move.w     D7, 0xFF
label0000230A:
0000230A  1B47 A70C                move.b     [A5 - 0x58F4], D7
0000230E  3D47 FFDC                move.w     [A6 - 0x24], D7
00002312  7A01                     moveq.l    D5, 0x01
00002314  6014                     bra        +0x16 /* 0000232A */
label00002316:
00002316  2046                     movea.l    A0, D6
00002318  1010                     move.b     D0, [A0]
0000231A  4880                     ext.w      D0
0000231C  41ED A70C                lea.l      A0, [A5 - 0x58F4]
00002320  1180 5000                move.b     [A0 + D5.w], D0
00002324  5286                     addq.l     D6, 1
00002326  5245                     addq.w     D5, 1
00002328  6906                     bvs        +0x8 /* 00002330 */
label0000232A:
0000232A  BA6E FFDC                cmp.w      D5, [A6 - 0x24]
0000232E  6FE6                     ble        -0x18 /* 00002316 */
label00002330:
00002330  102E 000E                move.b     D0, [A6 + 0xE]
00002334  6700 008C                beq        +0x8E /* 000023C2 */
00002338  4EAD 1862                jsr        [A5 + 0x1862 /* export_776, CODE:16 @ 00000474 */]
0000233C  42A7                     clr.l      -[A7]
0000233E  3F3C 75D3                move.w     -[A7], 0x75D3
00002342  42A7                     clr.l      -[A7]
00002344  70FF                     moveq.l    D0, 0xFFFFFFFF
00002346  2F00                     move.l     -[A7], D0
00002348  A97C                     syscall    GetNewDialog
0000234A  265F                     movea.l    A3, [A7]+
0000234C  2F0B                     move.l     -[A7], A3
0000234E  4EAD 182A                jsr        [A5 + 0x182A /* export_769, CODE:16 @ 000002AC */]
00002352  2F0B                     move.l     -[A7], A3
00002354  A915                     syscall    ShowWindow
00002356  2F0B                     move.l     -[A7], A3
00002358  4EAD 186A                jsr        [A5 + 0x186A /* export_777, CODE:16 @ 00000490 */]
0000235C  2F0B                     move.l     -[A7], A3
0000235E  3F3C 0003                move.w     -[A7], 0x3
00002362  486E FFF8                pea.l      [A6 - 0x8]
00002366  486E FFF4                pea.l      [A6 - 0xC]
0000236A  486E FFEC                pea.l      [A6 - 0x14]
0000236E  A98D                     syscall    GetDialogItem/GetDItem
00002370  2F2E FFF4                move.l     -[A7], [A6 - 0xC]
00002374  486D A70C                pea.l      [A5 - 0x58F4]
00002378  A98F                     syscall    SetDialogItemText/SetIText
0000237A  2F0B                     move.l     -[A7], A3
0000237C  2F3C 0000 0003           move.l     -[A7], 0x3
00002382  3F3C 7FFF                move.w     -[A7], 0x7FFF
00002386  A97E                     syscall    SelectDialogItemText/SelIText
label00002388:
00002388  486D 17EA                pea.l      [A5 + 0x17EA /* export_761, CODE:16 @ 00000000 */]
0000238C  486E FFFA                pea.l      [A6 - 0x6]
00002390  A991                     syscall    ModalDialog
00002392  4267                     clr.w      -[A7]
00002394  4EAD 17FA                jsr        [A5 + 0x17FA /* export_763, CODE:16 @ 0000009E */]
00002398  7001                     moveq.l    D0, 0x01
0000239A  B06E FFFA                cmp.w      D0, [A6 - 0x6]
0000239E  57C0                     seq        D0
000023A0  801F                     or.b       D0, [A7]+
000023A2  7202                     moveq.l    D1, 0x02
000023A4  B26E FFFA                cmp.w      D1, [A6 - 0x6]
000023A8  57C1                     seq        D1
000023AA  8001                     or.b       D0, D1
000023AC  0240 0001                andi.w     D0, 0x1
000023B0  67D6                     beq        -0x28 /* 00002388 */
000023B2  2F2E FFF4                move.l     -[A7], [A6 - 0xC]
000023B6  486D A70C                pea.l      [A5 - 0x58F4]
000023BA  A990                     syscall    GetDialogItemText/GetIText
000023BC  2F0B                     move.l     -[A7], A3
000023BE  4EAD 201A                jsr        [A5 + 0x201A /* export_1023, CODE:20 @ 000002FA */]
label000023C2:
000023C2  7001                     moveq.l    D0, 0x01
000023C4  B06E FFFA                cmp.w      D0, [A6 - 0x6]
000023C8  6672                     bne        +0x74 /* 0000243C */
000023CA  2F2E 0008                move.l     -[A7], [A6 + 0x8]
000023CE  4EBA F578                jsr        [PC - 0xA88 /* 00001948 */]
000023D2  206D A6F8                movea.l    A0, [A5 - 0x5908]
000023D6  2850                     movea.l    A4, [A0]
000023D8  206C 003E                movea.l    A0, [A4 + 0x3E]
000023DC  302C 0022                move.w     D0, [A4 + 0x22]
000023E0  48C0                     ext.l      D0
000023E2  2C00                     move.l     D6, D0
000023E4  DC90                     add.l      D6, [A0]
000023E6  42A7                     clr.l      -[A7]
000023E8  486D A70C                pea.l      [A5 - 0x58F4]
000023EC  2F06                     move.l     -[A7], D6
000023EE  4EAD 1AE2                jsr        [A5 + 0x1AE2 /* export_856, CODE:16 @ 00001C78 */]
000023F2  281F                     move.l     D4, [A7]+
000023F4  206D A6F8                movea.l    A0, [A5 - 0x5908]
000023F8  2050                     movea.l    A0, [A0]
000023FA  2068 003E                movea.l    A0, [A0 + 0x3E]
000023FE  2004                     move.l     D0, D4
00002400  9090                     sub.l      D0, [A0]
00002402  3D40 FFE2                move.w     [A6 - 0x1E], D0
00002406  2F2E 0008                move.l     -[A7], [A6 + 0x8]
0000240A  4EBA F59C                jsr        [PC - 0xA64 /* 000019A8 */]
0000240E  4A84                     tst.l      D4
00002410  6606                     bne        +0x8 /* 00002418 */
00002412  4EAD 1812                jsr        [A5 + 0x1812 /* export_766, CODE:16 @ 00000208 */]
00002416  6024                     bra        +0x26 /* 0000243C */
label00002418:
00002418  302E FFE2                move.w     D0, [A6 - 0x1E]
0000241C  48C0                     ext.l      D0
0000241E  2F00                     move.l     -[A7], D0
00002420  4240                     clr.w      D0
00002422  102D A70C                move.b     D0, [A5 - 0x58F4]
00002426  D06E FFE2                add.w      D0, [A6 - 0x1E]
0000242A  48C0                     ext.l      D0
0000242C  2F00                     move.l     -[A7], D0
0000242E  2F2D A6F8                move.l     -[A7], [A5 - 0x5908]
00002432  A9D1                     syscall    TESetSelect
00002434  2F2E 0008                move.l     -[A7], [A6 + 0x8]
00002438  4EBA F642                jsr        [PC - 0x9BE /* 00001A7C */]
label0000243C:
0000243C  4CDF 18F0                movem.l    D4,D5,D6,D7,A3,A4, [A7]+
00002440  4E5E                     unlink     A6
00002442  205F                     movea.l    A0, [A7]+
00002444  504F                     addq.w     A7, 8
00002446  4ED0                     jmp        [A0]
fn00002448:
00002448  4E56 0000                link       A6, 0
0000244C  102D F4CD                move.b     D0, [A5 - 0xB33]
00002450  670A                     beq        +0xC /* 0000245C */
00002452  2F2E 0008                move.l     -[A7], [A6 + 0x8]
00002456  4EBA F4D8                jsr        [PC - 0xB28 /* 00001930 */]
0000245A  6016                     bra        +0x18 /* 00002472 */
label0000245C:
0000245C  206E 0008                movea.l    A0, [A6 + 0x8]
00002460  117C 0001 FED1           move.b     [A0 - 0x12F], 0x1
00002466  3F2E 000C                move.w     -[A7], [A6 + 0xC]
0000246A  2F2D A6F8                move.l     -[A7], [A5 - 0x5908]
0000246E  4EAD 2112                jsr        [A5 + 0x2112 /* export_1054, CODE:20 @ 0000172C */]
label00002472:
00002472  4E5E                     unlink     A6
00002474  205F                     movea.l    A0, [A7]+
00002476  5C4F                     addq.w     A7, 6
00002478  4ED0                     jmp        [A0]
fn0000247A:
0000247A  4E56 FFF6                link       A6, -0x000A
0000247E  102D F4CD                move.b     D0, [A5 - 0xB33]
00002482  670A                     beq        +0xC /* 0000248E */
00002484  2F2E 0008                move.l     -[A7], [A6 + 0x8]
00002488  4EBA F4A6                jsr        [PC - 0xB5A /* 00001930 */]
0000248C  6058                     bra        +0x5A /* 000024E6 */
label0000248E:
0000248E  206E 0008                movea.l    A0, [A6 + 0x8]
00002492  117C 0001 FED1           move.b     [A0 - 0x12F], 0x1
00002498  42A7                     clr.l      -[A7]
0000249A  42A7                     clr.l      -[A7]
0000249C  2F3A 004E                move.l     -[A7], [PC + 0x4E /* 000024EC, value 0x54455854 'TEXT' */]
000024A0  486E FFF8                pea.l      [A6 - 0x8]
000024A4  A9FD                     syscall    GetScrap
000024A6  2D5F FFFC                move.l     [A6 - 0x4], [A7]+
000024AA  206D A6F8                movea.l    A0, [A5 - 0x5908]
000024AE  2050                     movea.l    A0, [A0]
000024B0  3028 003C                move.w     D0, [A0 + 0x3C]
000024B4  48C0                     ext.l      D0
000024B6  D0AE FFFC                add.l      D0, [A6 - 0x4]
000024BA  0C80 0000 7D00           cmpi.l     D0, 0x7D00 /* '}\0' */
000024C0  6F06                     ble        +0x8 /* 000024C8 */
000024C2  4EAD 1812                jsr        [A5 + 0x1812 /* export_766, CODE:16 @ 00000208 */]
000024C6  601E                     bra        +0x20 /* 000024E6 */
label000024C8:
000024C8  4AAE FFFC                tst.l      [A6 - 0x4]
000024CC  6F10                     ble        +0x12 /* 000024DE */
000024CE  4267                     clr.w      -[A7]
000024D0  4EAD 0472                jsr        [A5 + 0x472 /* export_138, CODE:1 @ 00004DEE */]
000024D4  3D5F FFF6                move.w     [A6 - 0xA], [A7]+
000024D8  2F2D A6F8                move.l     -[A7], [A5 - 0x5908]
000024DC  A9DB                     syscall    TEPaste
label000024DE:
000024DE  2F2E 0008                move.l     -[A7], [A6 + 0x8]
000024E2  4EBA F598                jsr        [PC - 0xA68 /* 00001A7C */]
label000024E6:
000024E6  4E5E                     unlink     A6
000024E8  2E9F                     move.l     [A7], [A7]+
000024EA  4E75                     rts
000024EC  5445                     addq.w     D5, 2
000024EE  5854                     addq.w     [A4], 4
fn000024F0:
000024F0  4E56 FFFE                link       A6, -0x0002
000024F4  206D A6F8                movea.l    A0, [A5 - 0x5908]
000024F8  2050                     movea.l    A0, [A0]
000024FA  226D A6F8                movea.l    A1, [A5 - 0x5908]
000024FE  2251                     movea.l    A1, [A1]
00002500  3028 0020                move.w     D0, [A0 + 0x20]
00002504  B069 0022                cmp.w      D0, [A1 + 0x22]
00002508  6D06                     blt        +0x8 /* 00002510 */
0000250A  4EAD 1812                jsr        [A5 + 0x1812 /* export_766, CODE:16 @ 00000208 */]
0000250E  604A                     bra        +0x4C /* 0000255A */
label00002510:
00002510  102E 000C                move.b     D0, [A6 + 0xC]
00002514  672A                     beq        +0x2C /* 00002540 */
00002516  102D F4CD                move.b     D0, [A5 - 0xB33]
0000251A  670A                     beq        +0xC /* 00002526 */
0000251C  2F2E 0008                move.l     -[A7], [A6 + 0x8]
00002520  4EBA F40E                jsr        [PC - 0xBF2 /* 00001930 */]
00002524  6020                     bra        +0x22 /* 00002546 */
label00002526:
00002526  206E 0008                movea.l    A0, [A6 + 0x8]
0000252A  117C 0001 FED1           move.b     [A0 - 0x12F], 0x1
00002530  2F2D A6F8                move.l     -[A7], [A5 - 0x5908]
00002534  A9D6                     syscall    TECut
00002536  2F2E 0008                move.l     -[A7], [A6 + 0x8]
0000253A  4EBA F540                jsr        [PC - 0xAC0 /* 00001A7C */]
0000253E  6006                     bra        +0x8 /* 00002546 */
label00002540:
00002540  2F2D A6F8                move.l     -[A7], [A5 - 0x5908]
00002544  A9D5                     syscall    TECopy
label00002546:
00002546  42A7                     clr.l      -[A7]
00002548  A9FC                     syscall    ZeroScrap
0000254A  201F                     move.l     D0, [A7]+
0000254C  3D40 FFFE                move.w     [A6 - 0x2], D0
00002550  4267                     clr.w      -[A7]
00002552  4EAD 047A                jsr        [A5 + 0x47A /* export_139, CODE:1 @ 00004E1C */]
00002556  3D5F FFFE                move.w     [A6 - 0x2], [A7]+
label0000255A:
0000255A  4E5E                     unlink     A6
0000255C  205F                     movea.l    A0, [A7]+
0000255E  5C4F                     addq.w     A7, 6
00002560  4ED0                     jmp        [A0]
fn00002562:
00002562  4E56 FFF8                link       A6, -0x0008
label00002566:
00002566  42A7                     clr.l      -[A7]
00002568  A975                     syscall    TickCount
0000256A  2D5F FFF8                move.l     [A6 - 0x8], [A7]+
0000256E  486E FFFC                pea.l      [A6 - 0x4]
00002572  A972                     syscall    GetMouse
00002574  4267                     clr.w      -[A7]
00002576  2F2D A6FC                move.l     -[A7], [A5 - 0x5904]
0000257A  2F2E FFFC                move.l     -[A7], [A6 - 0x4]
0000257E  A966                     syscall    TestControl
00002580  301F                     move.w     D0, [A7]+
00002582  B06E 000E                cmp.w      D0, [A6 + 0xE]
00002586  661A                     bne        +0x1C /* 000025A2 */
00002588  2F2D A6FC                move.l     -[A7], [A5 - 0x5904]
0000258C  4267                     clr.w      -[A7]
0000258E  2F2D A6FC                move.l     -[A7], [A5 - 0x5904]
00002592  A960                     syscall    GetControlValue/GetCtlValue
00002594  302E 000C                move.w     D0, [A6 + 0xC]
00002598  D05F                     add.w      D0, [A7]+
0000259A  3F00                     move.w     -[A7], D0
0000259C  A963                     syscall    SetControlValue/SetCtlValue
0000259E  4EAD 08EA                jsr        [A5 + 0x8EA /* export_281, CODE:8 @ 0000013C */]
label000025A2:
000025A2  42A7                     clr.l      -[A7]
000025A4  A975                     syscall    TickCount
000025A6  201F                     move.l     D0, [A7]+
000025A8  90AE FFF8                sub.l      D0, [A6 - 0x8]
000025AC  720A                     moveq.l    D1, 0x0A
000025AE  B280                     cmp.l      D1, D0
000025B0  6CF0                     bge        -0xE /* 000025A2 */
000025B2  4267                     clr.w      -[A7]
000025B4  A973                     syscall    StillDown
000025B6  101F                     move.b     D0, [A7]+
000025B8  0A00 0001                xori.b     D0, 0x1
000025BC  67A8                     beq        -0x56 /* 00002566 */
000025BE  4E5E                     unlink     A6
000025C0  205F                     movea.l    A0, [A7]+
000025C2  504F                     addq.w     A7, 8
000025C4  4ED0                     jmp        [A0]
fn000025C6:
000025C6  4E56 FFFE                link       A6, -0x0002
000025CA  48E7 0308                movem.l    -[A7], D6,D7,A4
000025CE  3C2E 000C                move.w     D6, [A6 + 0xC]
000025D2  286E 0008                movea.l    A4, [A6 + 0x8]
000025D6  3006                     move.w     D0, D6
000025D8  0440 0014                subi.w     D0, 0x14
000025DC  6714                     beq        +0x16 /* 000025F2 */
000025DE  5340                     subq.w     D0, 1
000025E0  6724                     beq        +0x26 /* 00002606 */
000025E2  5340                     subq.w     D0, 1
000025E4  6734                     beq        +0x36 /* 0000261A */
000025E6  5340                     subq.w     D0, 1
000025E8  6744                     beq        +0x46 /* 0000262E */
000025EA  0440 006A                subi.w     D0, 0x6A /* 'j' */
000025EE  674E                     beq        +0x50 /* 0000263E */
000025F0  6060                     bra        +0x62 /* 00002652 */
label000025F2:
000025F2  4267                     clr.w      -[A7]
000025F4  2F2D A6FC                move.l     -[A7], [A5 - 0x5904]
000025F8  2F2E 000E                move.l     -[A7], [A6 + 0xE]
000025FC  486D 149A                pea.l      [A5 + 0x149A /* export_655, CODE:13 @ 0000184A */]
00002600  A968                     syscall    TrackControl
00002602  3E1F                     move.w     D7, [A7]+
00002604  604C                     bra        +0x4E /* 00002652 */
label00002606:
00002606  4267                     clr.w      -[A7]
00002608  2F2D A6FC                move.l     -[A7], [A5 - 0x5904]
0000260C  2F2E 000E                move.l     -[A7], [A6 + 0xE]
00002610  486D 149A                pea.l      [A5 + 0x149A /* export_655, CODE:13 @ 0000184A */]
00002614  A968                     syscall    TrackControl
00002616  3E1F                     move.w     D7, [A7]+
00002618  6038                     bra        +0x3A /* 00002652 */
label0000261A:
0000261A  3F06                     move.w     -[A7], D6
0000261C  302C FEDA                move.w     D0, [A4 - 0x126]
00002620  4440                     neg.w      D0
00002622  3F00                     move.w     -[A7], D0
00002624  2F2E 0008                move.l     -[A7], [A6 + 0x8]
00002628  4EBA FF38                jsr        [PC - 0xC8 /* 00002562 */]
0000262C  6024                     bra        +0x26 /* 00002652 */
label0000262E:
0000262E  3F06                     move.w     -[A7], D6
00002630  3F2C FEDA                move.w     -[A7], [A4 - 0x126]
00002634  2F2E 0008                move.l     -[A7], [A6 + 0x8]
00002638  4EBA FF28                jsr        [PC - 0xD8 /* 00002562 */]
0000263C  6014                     bra        +0x16 /* 00002652 */
label0000263E:
0000263E  4267                     clr.w      -[A7]
00002640  2F2D A6FC                move.l     -[A7], [A5 - 0x5904]
00002644  2F2E 000E                move.l     -[A7], [A6 + 0xE]
00002648  42A7                     clr.l      -[A7]
0000264A  A968                     syscall    TrackControl
0000264C  3E1F                     move.w     D7, [A7]+
0000264E  4EAD 08EA                jsr        [A5 + 0x8EA /* export_281, CODE:8 @ 0000013C */]
label00002652:
00002652  4CDF 10C0                movem.l    D6,D7,A4, [A7]+
00002656  4E5E                     unlink     A6
00002658  205F                     movea.l    A0, [A7]+
0000265A  DEFC 000A                add.w      A7, 0xA /* '\n' */
0000265E  4ED0                     jmp        [A0]
fn00002660:
00002660  4E56 FFFC                link       A6, -0x0004
00002664  4267                     clr.w      -[A7]
00002666  4EAD 1612                jsr        [A5 + 0x1612 /* export_702, CODE:15 @ 00001296 */]
0000266A  4267                     clr.w      -[A7]
0000266C  4EAD 2142                jsr        [A5 + 0x2142 /* export_1060, CODE:20 @ 000023F6 */]
00002670  101F                     move.b     D0, [A7]+
00002672  C01F                     and.b      D0, [A7]+
00002674  6710                     beq        +0x12 /* 00002686 */
00002676  42A7                     clr.l      -[A7]
00002678  3F3C 0004                move.w     -[A7], 0x4
0000267C  A9B9                     syscall    GetCursor
0000267E  205F                     movea.l    A0, [A7]+
00002680  2F10                     move.l     -[A7], [A0]
00002682  A851                     syscall    SetCursor
00002684  6024                     bra        +0x26 /* 000026AA */
label00002686:
00002686  486E FFFC                pea.l      [A6 - 0x4]
0000268A  A972                     syscall    GetMouse
0000268C  4267                     clr.w      -[A7]
0000268E  2F2E FFFC                move.l     -[A7], [A6 - 0x4]
00002692  486D A700                pea.l      [A5 - 0x5900]
00002696  A8AD                     syscall    PtInRect
00002698  101F                     move.b     D0, [A7]+
0000269A  6708                     beq        +0xA /* 000026A4 */
0000269C  486D EF50                pea.l      [A5 - 0x10B0]
000026A0  A851                     syscall    SetCursor
000026A2  6006                     bra        +0x8 /* 000026AA */
label000026A4:
000026A4  486D FE3C                pea.l      [A5 - 0x1C4]
000026A8  A851                     syscall    SetCursor
label000026AA:
000026AA  4E5E                     unlink     A6
000026AC  2E9F                     move.l     [A7], [A7]+
000026AE  4E75                     rts
fn000026B0:
000026B0  4E56 0000                link       A6, 0
000026B4  48E7 0018                movem.l    -[A7], A3,A4
000026B8  266E 000C                movea.l    A3, [A6 + 0xC]
000026BC  286E 0008                movea.l    A4, [A6 + 0x8]
000026C0  286C 0008                movea.l    A4, [A4 + 0x8]
000026C4  B7EC FEE8                cmpa.l     A3, [A4 - 0x118]
000026C8  6614                     bne        +0x16 /* 000026DE */
000026CA  1F3C 0001                move.b     -[A7], 0x1
000026CE  4267                     clr.w      -[A7]
000026D0  206E 0008                movea.l    A0, [A6 + 0x8]
000026D4  2F28 0008                move.l     -[A7], [A0 + 0x8]
000026D8  4EBA FBEE                jsr        [PC - 0x412 /* 000022C8 */]
000026DC  6050                     bra        +0x52 /* 0000272E */
label000026DE:
000026DE  B7EC FEE4                cmpa.l     A3, [A4 - 0x11C]
000026E2  660E                     bne        +0x10 /* 000026F2 */
000026E4  206E 0008                movea.l    A0, [A6 + 0x8]
000026E8  2F28 0008                move.l     -[A7], [A0 + 0x8]
000026EC  4EBA FBA8                jsr        [PC - 0x458 /* 00002296 */]
000026F0  603C                     bra        +0x3E /* 0000272E */
label000026F2:
000026F2  B7EC FEDC                cmpa.l     A3, [A4 - 0x124]
000026F6  57C0                     seq        D0
000026F8  B7EC FEE0                cmpa.l     A3, [A4 - 0x120]
000026FC  57C1                     seq        D1
000026FE  8001                     or.b       D0, D1
00002700  6728                     beq        +0x2A /* 0000272A */
00002702  206E 0008                movea.l    A0, [A6 + 0x8]
00002706  117C 0001 FFFF           move.b     [A0 - 0x1], 0x1
0000270C  B7EC FEDC                cmpa.l     A3, [A4 - 0x124]
00002710  57C0                     seq        D0
00002712  C02C FED1                and.b      D0, [A4 - 0x12F]
00002716  1940 FED0                move.b     [A4 - 0x130], D0
0000271A  206E 0008                movea.l    A0, [A6 + 0x8]
0000271E  2068 0008                movea.l    A0, [A0 + 0x8]
00002722  116C FED0 0012           move.b     [A0 + 0x12], [A4 - 0x130]
00002728  6004                     bra        +0x6 /* 0000272E */
label0000272A:
0000272A  4EAD 1812                jsr        [A5 + 0x1812 /* export_766, CODE:16 @ 00000208 */]
label0000272E:
0000272E  4CDF 1800                movem.l    A3,A4, [A7]+
00002732  4E5E                     unlink     A6
00002734  205F                     movea.l    A0, [A7]+
00002736  504F                     addq.w     A7, 8
00002738  4ED0                     jmp        [A0]
fn0000273A:
0000273A  4E56 FFCE                link       A6, -0x0032
0000273E  48E7 0F08                movem.l    -[A7], D4,D5,D6,D7,A4
00002742  286E 0008                movea.l    A4, [A6 + 0x8]
00002746  422E FFFF                clr.b      [A6 - 0x1]
label0000274A:
0000274A  A9B4                     syscall    SystemTask
0000274C  102D F4CD                move.b     D0, [A5 - 0xB33]
00002750  6606                     bne        +0x8 /* 00002758 */
00002752  2F2D A6F8                move.l     -[A7], [A5 - 0x5908]
00002756  A9DA                     syscall    TEIdle
label00002758:
00002758  2F2E 0008                move.l     -[A7], [A6 + 0x8]
0000275C  4EBA FF02                jsr        [PC - 0xFE /* 00002660 */]
00002760  2F3C FFFF 0000           move.l     -[A7], 0xFFFF0000
00002766  486E FFEE                pea.l      [A6 - 0x12]
0000276A  4EAD 20E2                jsr        [A5 + 0x20E2 /* export_1048, CODE:20 @ 000014FC */]
0000276E  101F                     move.b     D0, [A7]+
00002770  6700 0344                beq        +0x346 /* 00002AB6 */
00002774  4267                     clr.w      -[A7]
00002776  4EAD 1612                jsr        [A5 + 0x1612 /* export_702, CODE:15 @ 00001296 */]
0000277A  4267                     clr.w      -[A7]
0000277C  4EAD 2142                jsr        [A5 + 0x2142 /* export_1060, CODE:20 @ 000023F6 */]
00002780  101F                     move.b     D0, [A7]+
00002782  C01F                     and.b      D0, [A7]+
00002784  7201                     moveq.l    D1, 0x01
00002786  B26E FFEE                cmp.w      D1, [A6 - 0x12]
0000278A  57C1                     seq        D1
0000278C  7403                     moveq.l    D2, 0x03
0000278E  B46E FFEE                cmp.w      D2, [A6 - 0x12]
00002792  57C2                     seq        D2
00002794  8202                     or.b       D1, D2
00002796  C001                     and.b      D0, D1
00002798  673C                     beq        +0x3E /* 000027D6 */
0000279A  1D7C 0001 FFFF           move.b     [A6 - 0x1], 0x1
000027A0  196C FED1 FED0           move.b     [A4 - 0x130], [A4 - 0x12F]
000027A6  102C FED1                move.b     D0, [A4 - 0x12F]
000027AA  671C                     beq        +0x1E /* 000027C8 */
000027AC  1B7C 0001 FD8C           move.b     [A5 - 0x274], 0x1
000027B2  2F3C 002F 0000           move.l     -[A7], 0x2F0000 /* '/\0\0' */
000027B8  4EAD 1852                jsr        [A5 + 0x1852 /* export_774, CODE:16 @ 00000400 */]
000027BC  101F                     move.b     D0, [A7]+
000027BE  6604                     bne        +0x6 /* 000027C4 */
000027C0  422C FED0                clr.b      [A4 - 0x130]
label000027C4:
000027C4  422D FD8C                clr.b      [A5 - 0x274]
label000027C8:
000027C8  206E 0008                movea.l    A0, [A6 + 0x8]
000027CC  116C FED0 0012           move.b     [A0 + 0x12], [A4 - 0x130]
000027D2  6000 02E2                bra        +0x2E4 /* 00002AB6 */
label000027D6:
000027D6  302E FFEE                move.w     D0, [A6 - 0x12]
000027DA  5340                     subq.w     D0, 1
000027DC  6716                     beq        +0x18 /* 000027F4 */
000027DE  5540                     subq.w     D0, 2
000027E0  6700 00D8                beq        +0xDA /* 000028BA */
000027E4  5540                     subq.w     D0, 2
000027E6  6700 00D2                beq        +0xD4 /* 000028BA */
000027EA  5340                     subq.w     D0, 1
000027EC  6700 02C0                beq        +0x2C2 /* 00002AAE */
000027F0  6000 02C4                bra        +0x2C6 /* 00002AB6 */
label000027F4:
000027F4  4267                     clr.w      -[A7]
000027F6  2F2E FFF8                move.l     -[A7], [A6 - 0x8]
000027FA  486E FFE8                pea.l      [A6 - 0x18]
000027FE  A92C                     syscall    FindWindow
00002800  3A1F                     move.w     D5, [A7]+
00002802  486E FFF8                pea.l      [A6 - 0x8]
00002806  A871                     syscall    GlobalToLocal
00002808  202E FFE8                move.l     D0, [A6 - 0x18]
0000280C  B0AC FEFC                cmp.l      D0, [A4 - 0x104]
00002810  57C0                     seq        D0
00002812  7203                     moveq.l    D1, 0x03
00002814  B245                     cmp.w      D1, D5
00002816  57C1                     seq        D1
00002818  C001                     and.b      D0, D1
0000281A  6700 0096                beq        +0x98 /* 000028B2 */
0000281E  4267                     clr.w      -[A7]
00002820  2F2E FFF8                move.l     -[A7], [A6 - 0x8]
00002824  486D A700                pea.l      [A5 - 0x5900]
00002828  A8AD                     syscall    PtInRect
0000282A  101F                     move.b     D0, [A7]+
0000282C  6732                     beq        +0x34 /* 00002860 */
0000282E  7000                     moveq.l    D0, 0x00
00002830  302E FFFC                move.w     D0, [A6 - 0x4]
00002834  C0BC 0000 0200           and.l      D0, 0x200
0000283A  4A80                     tst.l      D0
0000283C  56C4                     sne        D4
0000283E  4404                     neg.b      D4
00002840  1F3C 0001                move.b     -[A7], 0x1
00002844  2F2D A6F8                move.l     -[A7], [A5 - 0x5908]
00002848  A813                     syscall    TEAutoView
0000284A  2F2E FFF8                move.l     -[A7], [A6 - 0x8]
0000284E  1F04                     move.b     -[A7], D4
00002850  2F2D A6F8                move.l     -[A7], [A5 - 0x5908]
00002854  A9D4                     syscall    TEClick
00002856  4267                     clr.w      -[A7]
00002858  2F2D A6F8                move.l     -[A7], [A5 - 0x5908]
0000285C  A813                     syscall    TEAutoView
0000285E  6056                     bra        +0x58 /* 000028B6 */
label00002860:
00002860  4267                     clr.w      -[A7]
00002862  2F2E FFF8                move.l     -[A7], [A6 - 0x8]
00002866  2F2C FEFC                move.l     -[A7], [A4 - 0x104]
0000286A  486E FFE2                pea.l      [A6 - 0x1E]
0000286E  A96C                     syscall    FindControl
00002870  3A1F                     move.w     D5, [A7]+
00002872  202E FFE2                move.l     D0, [A6 - 0x1E]
00002876  B0AD A6FC                cmp.l      D0, [A5 - 0x5904]
0000287A  6610                     bne        +0x12 /* 0000288C */
0000287C  2F2E FFF8                move.l     -[A7], [A6 - 0x8]
00002880  3F05                     move.w     -[A7], D5
00002882  2F2E 0008                move.l     -[A7], [A6 + 0x8]
00002886  4EBA FD3E                jsr        [PC - 0x2C2 /* 000025C6 */]
0000288A  602A                     bra        +0x2C /* 000028B6 */
label0000288C:
0000288C  4AAE FFE2                tst.l      [A6 - 0x1E]
00002890  671E                     beq        +0x20 /* 000028B0 */
00002892  4267                     clr.w      -[A7]
00002894  2F2E FFE2                move.l     -[A7], [A6 - 0x1E]
00002898  2F2E FFF8                move.l     -[A7], [A6 - 0x8]
0000289C  42A7                     clr.l      -[A7]
0000289E  A968                     syscall    TrackControl
000028A0  3A1F                     move.w     D5, [A7]+
000028A2  4A45                     tst.w      D5
000028A4  670A                     beq        +0xC /* 000028B0 */
000028A6  2F2E FFE2                move.l     -[A7], [A6 - 0x1E]
000028AA  2F0E                     move.l     -[A7], A6
000028AC  4EBA FE02                jsr        [PC - 0x1FE /* 000026B0 */]
label000028B0:
000028B0  6004                     bra        +0x6 /* 000028B6 */
label000028B2:
000028B2  4EAD 1812                jsr        [A5 + 0x1812 /* export_766, CODE:16 @ 00000208 */]
label000028B6:
000028B6  6000 01FE                bra        +0x200 /* 00002AB6 */
label000028BA:
000028BA  202E FFF0                move.l     D0, [A6 - 0x10]
000028BE  C0BC 0000 00FF           and.l      D0, 0xFF
000028C4  3E00                     move.w     D7, D0
000028C6  4267                     clr.w      -[A7]
000028C8  3F2E FFF2                move.w     -[A7], [A6 - 0xE]
000028CC  4EAD 200A                jsr        [A5 + 0x200A /* export_1021, CODE:20 @ 0000008A */]
000028D0  3C1F                     move.w     D6, [A7]+
000028D2  7009                     moveq.l    D0, 0x09
000028D4  B047                     cmp.w      D0, D7
000028D6  660C                     bne        +0xE /* 000028E4 */
000028D8  2F2E 0008                move.l     -[A7], [A6 + 0x8]
000028DC  4EBA F23C                jsr        [PC - 0xDC4 /* 00001B1A */]
000028E0  6000 01D4                bra        +0x1D6 /* 00002AB6 */
label000028E4:
000028E4  7003                     moveq.l    D0, 0x03
000028E6  B047                     cmp.w      D0, D7
000028E8  660E                     bne        +0x10 /* 000028F8 */
000028EA  2F2C FEDC                move.l     -[A7], [A4 - 0x124]
000028EE  2F0E                     move.l     -[A7], A6
000028F0  4EBA FDBE                jsr        [PC - 0x242 /* 000026B0 */]
000028F4  6000 01C0                bra        +0x1C2 /* 00002AB6 */
label000028F8:
000028F8  42A7                     clr.l      -[A7]
000028FA  302E FFFC                move.w     D0, [A6 - 0x4]
000028FE  48C0                     ext.l      D0
00002900  2F00                     move.l     -[A7], D0
00002902  2F3C 0000 0100           move.l     -[A7], 0x100
00002908  A858                     syscall    BitAnd
0000290A  4A9F                     tst.l      [A7]+
0000290C  6700 00DE                beq        +0xE0 /* 000029EC */
00002910  3007                     move.w     D0, D7
00002912  0440 002E                subi.w     D0, 0x2E /* '.' */
00002916  6700 00BC                beq        +0xBE /* 000029D4 */
0000291A  0440 0013                subi.w     D0, 0x13
0000291E  6700 009C                beq        +0x9E /* 000029BC */
00002922  5540                     subq.w     D0, 2
00002924  674C                     beq        +0x4E /* 00002972 */
00002926  5740                     subq.w     D0, 3
00002928  675E                     beq        +0x60 /* 00002988 */
0000292A  5340                     subq.w     D0, 1
0000292C  6766                     beq        +0x68 /* 00002994 */
0000292E  5340                     subq.w     D0, 1
00002930  676E                     beq        +0x70 /* 000029A0 */
00002932  5140                     subq.w     D0, 8
00002934  677A                     beq        +0x7C /* 000029B0 */
00002936  5D40                     subq.w     D0, 6
00002938  6744                     beq        +0x46 /* 0000297E */
0000293A  5540                     subq.w     D0, 2
0000293C  6726                     beq        +0x28 /* 00002964 */
0000293E  0440 0009                subi.w     D0, 0x9 /* '\t' */
00002942  6778                     beq        +0x7A /* 000029BC */
00002944  5540                     subq.w     D0, 2
00002946  672A                     beq        +0x2C /* 00002972 */
00002948  5740                     subq.w     D0, 3
0000294A  673C                     beq        +0x3E /* 00002988 */
0000294C  5340                     subq.w     D0, 1
0000294E  6744                     beq        +0x46 /* 00002994 */
00002950  5340                     subq.w     D0, 1
00002952  674C                     beq        +0x4E /* 000029A0 */
00002954  5140                     subq.w     D0, 8
00002956  6758                     beq        +0x5A /* 000029B0 */
00002958  5D40                     subq.w     D0, 6
0000295A  6722                     beq        +0x24 /* 0000297E */
0000295C  5540                     subq.w     D0, 2
0000295E  6704                     beq        +0x6 /* 00002964 */
00002960  6000 0082                bra        +0x84 /* 000029E4 */
label00002964:
00002964  1F3C 0001                move.b     -[A7], 0x1
00002968  2F2E 0008                move.l     -[A7], [A6 + 0x8]
0000296C  4EBA FB82                jsr        [PC - 0x47E /* 000024F0 */]
00002970  6076                     bra        +0x78 /* 000029E8 */
label00002972:
00002972  4267                     clr.w      -[A7]
00002974  2F2E 0008                move.l     -[A7], [A6 + 0x8]
00002978  4EBA FB76                jsr        [PC - 0x48A /* 000024F0 */]
0000297C  606A                     bra        +0x6C /* 000029E8 */
label0000297E:
0000297E  2F2E 0008                move.l     -[A7], [A6 + 0x8]
00002982  4EBA FAF6                jsr        [PC - 0x50A /* 0000247A */]
00002986  6060                     bra        +0x62 /* 000029E8 */
label00002988:
00002988  2F2C FEE8                move.l     -[A7], [A4 - 0x118]
0000298C  2F0E                     move.l     -[A7], A6
0000298E  4EBA FD20                jsr        [PC - 0x2E0 /* 000026B0 */]
00002992  6054                     bra        +0x56 /* 000029E8 */
label00002994:
00002994  42A7                     clr.l      -[A7]
00002996  2F2E 0008                move.l     -[A7], [A6 + 0x8]
0000299A  4EBA F92C                jsr        [PC - 0x6D4 /* 000022C8 */]
0000299E  6048                     bra        +0x4A /* 000029E8 */
label000029A0:
000029A0  4267                     clr.w      -[A7]
000029A2  1F3C 0001                move.b     -[A7], 0x1
000029A6  2F2E 0008                move.l     -[A7], [A6 + 0x8]
000029AA  4EBA F91C                jsr        [PC - 0x6E4 /* 000022C8 */]
000029AE  6038                     bra        +0x3A /* 000029E8 */
label000029B0:
000029B0  2F2C FEE4                move.l     -[A7], [A4 - 0x11C]
000029B4  2F0E                     move.l     -[A7], A6
000029B6  4EBA FCF8                jsr        [PC - 0x308 /* 000026B0 */]
000029BA  602C                     bra        +0x2E /* 000029E8 */
label000029BC:
000029BC  42A7                     clr.l      -[A7]
000029BE  2F3C 0000 7FFF           move.l     -[A7], 0x7FFF
000029C4  2F2D A6F8                move.l     -[A7], [A5 - 0x5908]
000029C8  A9D1                     syscall    TESetSelect
000029CA  2F2E 0008                move.l     -[A7], [A6 + 0x8]
000029CE  4EBA F0AC                jsr        [PC - 0xF54 /* 00001A7C */]
000029D2  6014                     bra        +0x16 /* 000029E8 */
label000029D4:
000029D4  4EAD 192A                jsr        [A5 + 0x192A /* export_801, CODE:16 @ 00000C2C */]
000029D8  2F2C FEE0                move.l     -[A7], [A4 - 0x120]
000029DC  2F0E                     move.l     -[A7], A6
000029DE  4EBA FCD0                jsr        [PC - 0x330 /* 000026B0 */]
000029E2  6004                     bra        +0x6 /* 000029E8 */
label000029E4:
000029E4  4EAD 1812                jsr        [A5 + 0x1812 /* export_766, CODE:16 @ 00000208 */]
label000029E8:
000029E8  6000 00CC                bra        +0xCE /* 00002AB6 */
label000029EC:
000029EC  42A7                     clr.l      -[A7]
000029EE  302E FFFC                move.w     D0, [A6 - 0x4]
000029F2  48C0                     ext.l      D0
000029F4  2F00                     move.l     -[A7], D0
000029F6  2F3C 0000 0800           move.l     -[A7], 0x800
000029FC  A858                     syscall    BitAnd
000029FE  4A9F                     tst.l      [A7]+
00002A00  56C0                     sne        D0
00002A02  720D                     moveq.l    D1, 0x0D
00002A04  B247                     cmp.w      D1, D7
00002A06  57C1                     seq        D1
00002A08  C001                     and.b      D0, D1
00002A0A  6720                     beq        +0x22 /* 00002A2C */
00002A0C  102D F2B3                move.b     D0, [A5 - 0xD4D]
00002A10  670E                     beq        +0x10 /* 00002A20 */
00002A12  3F3C 007E                move.w     -[A7], 0x7E /* '~' */
00002A16  2F2E 0008                move.l     -[A7], [A6 + 0x8]
00002A1A  4EBA FA2C                jsr        [PC - 0x5D4 /* 00002448 */]
00002A1E  600C                     bra        +0xE /* 00002A2C */
label00002A20:
00002A20  3F3C 00C2                move.w     -[A7], 0xC2
00002A24  2F2E 0008                move.l     -[A7], [A6 + 0x8]
00002A28  4EBA FA1E                jsr        [PC - 0x5E2 /* 00002448 */]
label00002A2C:
00002A2C  7000                     moveq.l    D0, 0x00
00002A2E  3007                     move.w     D0, D7
00002A30  C0BC 0000 00FF           and.l      D0, 0xFF
00002A36  7220                     moveq.l    D1, 0x20
00002A38  B280                     cmp.l      D1, D0
00002A3A  5FC0                     sle        D0
00002A3C  7209                     moveq.l    D1, 0x09
00002A3E  B246                     cmp.w      D1, D6
00002A40  57C1                     seq        D1
00002A42  8001                     or.b       D0, D1
00002A44  7204                     moveq.l    D1, 0x04
00002A46  B246                     cmp.w      D1, D6
00002A48  57C1                     seq        D1
00002A4A  8001                     or.b       D0, D1
00002A4C  7205                     moveq.l    D1, 0x05
00002A4E  B246                     cmp.w      D1, D6
00002A50  57C1                     seq        D1
00002A52  8001                     or.b       D0, D1
00002A54  7206                     moveq.l    D1, 0x06
00002A56  B246                     cmp.w      D1, D6
00002A58  57C1                     seq        D1
00002A5A  8001                     or.b       D0, D1
00002A5C  7207                     moveq.l    D1, 0x07
00002A5E  B246                     cmp.w      D1, D6
00002A60  57C1                     seq        D1
00002A62  8001                     or.b       D0, D1
00002A64  7208                     moveq.l    D1, 0x08
00002A66  B246                     cmp.w      D1, D6
00002A68  57C1                     seq        D1
00002A6A  8001                     or.b       D0, D1
00002A6C  670C                     beq        +0xE /* 00002A7A */
00002A6E  3F07                     move.w     -[A7], D7
00002A70  2F2E 0008                move.l     -[A7], [A6 + 0x8]
00002A74  4EBA F9D2                jsr        [PC - 0x62E /* 00002448 */]
00002A78  6004                     bra        +0x6 /* 00002A7E */
label00002A7A:
00002A7A  4EAD 1812                jsr        [A5 + 0x1812 /* export_766, CODE:16 @ 00000208 */]
label00002A7E:
00002A7E  700D                     moveq.l    D0, 0x0D
00002A80  B047                     cmp.w      D0, D7
00002A82  6608                     bne        +0xA /* 00002A8C */
00002A84  2F2E 0008                move.l     -[A7], [A6 + 0x8]
00002A88  4EBA F090                jsr        [PC - 0xF70 /* 00001B1A */]
label00002A8C:
00002A8C  2F2E 0008                move.l     -[A7], [A6 + 0x8]
00002A90  4EBA EFEA                jsr        [PC - 0x1016 /* 00001A7C */]
00002A94  206D A6F8                movea.l    A0, [A5 - 0x5908]
00002A98  2050                     movea.l    A0, [A0]
00002A9A  3028 003C                move.w     D0, [A0 + 0x3C]
00002A9E  48C0                     ext.l      D0
00002AA0  0C80 0000 7D00           cmpi.l     D0, 0x7D00 /* '}\0' */
00002AA6  6F04                     ble        +0x6 /* 00002AAC */
00002AA8  4EAD 1812                jsr        [A5 + 0x1812 /* export_766, CODE:16 @ 00000208 */]
label00002AAC:
00002AAC  6008                     bra        +0xA /* 00002AB6 */
label00002AAE:
00002AAE  2F2E 0008                move.l     -[A7], [A6 + 0x8]
00002AB2  4EBA F112                jsr        [PC - 0xEEE /* 00001BC6 */]
label00002AB6:
00002AB6  102E FFFF                move.b     D0, [A6 - 0x1]
00002ABA  6700 FC8E                beq        -0x370 /* 0000274A */
00002ABE  4CDF 10F0                movem.l    D4,D5,D6,D7,A4, [A7]+
00002AC2  4E5E                     unlink     A6
00002AC4  2E9F                     move.l     [A7], [A7]+
00002AC6  4E75                     rts
fn00002AC8:
00002AC8  4E56 FED0                link       A6, -0x0130
00002ACC  48E7 1F38                movem.l    -[A7], D3,D4,D5,D6,D7,A2,A3,A4
00002AD0  206E 000E                movea.l    A0, [A6 + 0xE]
00002AD4  43EE FF00                lea.l      A1, [A6 - 0x100]
00002AD8  703F                     moveq.l    D0, 0x3F
label00002ADA:
00002ADA  22D8                     move.l     [A1]+, [A0]+
00002ADC  51C8 FFFC                dbf        D0, -0x6 /* 00002ADA */
00002AE0  2F0E                     move.l     -[A7], A6
00002AE2  4EBA F124                jsr        [PC - 0xEDC /* 00001C08 */]
00002AE6  2F0E                     move.l     -[A7], A6
00002AE8  4EBA FC50                jsr        [PC - 0x3B0 /* 0000273A */]
00002AEC  2F0E                     move.l     -[A7], A6
00002AEE  4EBA F6B8                jsr        [PC - 0x948 /* 000021A8 */]
label00002AF2:
00002AF2  4FEE FEB0                lea.l      A7, [A6 - 0x150]
00002AF6  4CDF 1CF8                movem.l    D3,D4,D5,D6,D7,A2,A3,A4, [A7]+
00002AFA  4E5E                     unlink     A6
00002AFC  205F                     movea.l    A0, [A7]+
00002AFE  DEFC 000A                add.w      A7, 0xA /* '\n' */
00002B02  4ED0                     jmp        [A0]
export_461:
00002B04  4E56 FB50                link       A6, -0x04B0
00002B08  48E7 0F08                movem.l    -[A7], D4,D5,D6,D7,A4
00002B0C  182E 0008                move.b     D4, [A6 + 0x8]
00002B10  422E 000E                clr.b      [A6 + 0xE]
00002B14  206E 000A                movea.l    A0, [A6 + 0xA]
00002B18  2028 0002                move.l     D0, [A0 + 0x2]
00002B1C  B0AD F4E0                cmp.l      D0, [A5 - 0xB20]
00002B20  672E                     beq        +0x30 /* 00002B50 */
00002B22  1D7C 0001 FF9E           move.b     [A6 - 0x62], 0x1
00002B28  7001                     moveq.l    D0, 0x01
00002B2A  2D40 FFA4                move.l     [A6 - 0x5C], D0
00002B2E  1D7C 0005 FFCA           move.b     [A6 - 0x36], 0x5
00002B34  206E 000A                movea.l    A0, [A6 + 0xA]
00002B38  2D68 0002 FFF6           move.l     [A6 - 0xA], [A0 + 0x2]
00002B3E  4267                     clr.w      -[A7]
00002B40  486E FF9E                pea.l      [A6 - 0x62]
00002B44  4EAD 16AA                jsr        [A5 + 0x16AA /* export_721, CODE:15 @ 00003B22 */]
00002B48  101F                     move.b     D0, [A7]+
00002B4A  6604                     bne        +0x6 /* 00002B50 */
00002B4C  6000 03D0                bra        +0x3D2 /* 00002F1E */
label00002B50:
00002B50  422D B66B                clr.b      [A5 - 0x4995]
00002B54  4207                     clr.b      D7
00002B56  206E 000A                movea.l    A0, [A6 + 0xA]
00002B5A  1010                     move.b     D0, [A0]
00002B5C  4880                     ext.w      D0
00002B5E  5340                     subq.w     D0, 1
00002B60  6716                     beq        +0x18 /* 00002B78 */
00002B62  5340                     subq.w     D0, 1
00002B64  6700 017C                beq        +0x17E /* 00002CE2 */
00002B68  5340                     subq.w     D0, 1
00002B6A  6700 0250                beq        +0x252 /* 00002DBC */
00002B6E  5340                     subq.w     D0, 1
00002B70  6700 0322                beq        +0x324 /* 00002E94 */
00002B74  6000 03A8                bra        +0x3AA /* 00002F1E */
label00002B78:
00002B78  4267                     clr.w      -[A7]
00002B7A  206E 000A                movea.l    A0, [A6 + 0xA]
00002B7E  2F28 0010                move.l     -[A7], [A0 + 0x10]
00002B82  206E 000A                movea.l    A0, [A6 + 0xA]
00002B86  3F28 000E                move.w     -[A7], [A0 + 0xE]
00002B8A  486E FE68                pea.l      [A6 - 0x198]
00002B8E  4EAD 1DB2                jsr        [A5 + 0x1DB2 /* export_946, CODE:18 @ 00000D08 */]
00002B92  101F                     move.b     D0, [A7]+
00002B94  6604                     bne        +0x6 /* 00002B9A */
00002B96  6000 0386                bra        +0x388 /* 00002F1E */
label00002B9A:
00002B9A  7A13                     moveq.l    D5, 0x13
00002B9C  7002                     moveq.l    D0, 0x02
00002B9E  B02E FE6C                cmp.b      D0, [A6 - 0x194]
00002BA2  6602                     bne        +0x4 /* 00002BA6 */
00002BA4  7A12                     moveq.l    D5, 0x12
label00002BA6:
00002BA6  7C1C                     moveq.l    D6, 0x1C
00002BA8  42A7                     clr.l      -[A7]
00002BAA  206E 000A                movea.l    A0, [A6 + 0xA]
00002BAE  2F28 0010                move.l     -[A7], [A0 + 0x10]
00002BB2  4EAD 1F32                jsr        [A5 + 0x1F32 /* export_994, CODE:19 @ 00000F2E */]
00002BB6  2D5F FD64                move.l     [A6 - 0x29C], [A7]+
00002BBA  41EE FD64                lea.l      A0, [A6 - 0x29C]
00002BBE  43FA 0372                lea.l      A1, [PC + 0x372 /* 00002F32, value 0x424B4744 'BKGD' */]
00002BC2  7003                     moveq.l    D0, 0x03
label00002BC4:
00002BC4  B109                     cmpm.b     [A0]+, [A1]+
00002BC6  56C8 FFFC                dbne       D0, -0x6 /* 00002BC4 */
00002BCA  6602                     bne        +0x4 /* 00002BCE */
00002BCC  7C1D                     moveq.l    D6, 0x1D
label00002BCE:
00002BCE  486E FC64                pea.l      [A6 - 0x39C]
00002BD2  3F06                     move.w     -[A7], D6
00002BD4  4EAD 09E2                jsr        [A5 + 0x9E2 /* export_312, CODE:8 @ 00000FF0 */]
00002BD8  205F                     movea.l    A0, [A7]+
00002BDA  43EE FE8A                lea.l      A1, [A6 - 0x176]
00002BDE  7004                     moveq.l    D0, 0x04
label00002BE0:
00002BE0  22D8                     move.l     [A1]+, [A0]+
00002BE2  51C8 FFFC                dbf        D0, -0x6 /* 00002BE0 */
00002BE6  486E FC64                pea.l      [A6 - 0x39C]
00002BEA  206E 000A                movea.l    A0, [A6 + 0xA]
00002BEE  2F28 0010                move.l     -[A7], [A0 + 0x10]
00002BF2  3F2E FE6A                move.w     -[A7], [A6 - 0x196]
00002BF6  4EAD 1DC2                jsr        [A5 + 0x1DC2 /* export_948, CODE:18 @ 00000E24 */]
00002BFA  205F                     movea.l    A0, [A7]+
00002BFC  43EE FE9E                lea.l      A1, [A6 - 0x162]
00002C00  703F                     moveq.l    D0, 0x3F
label00002C02:
00002C02  22D8                     move.l     [A1]+, [A0]+
00002C04  51C8 FFFC                dbf        D0, -0x6 /* 00002C02 */
00002C08  4240                     clr.w      D0
00002C0A  102E FE9E                move.b     D0, [A6 - 0x162]
00002C0E  4A40                     tst.w      D0
00002C10  6F28                     ble        +0x2A /* 00002C3A */
00002C12  487A 0318                pea.l      [PC + 0x318 /* 00002F2C, value 0x4203D20, pstring " = \"" */]
00002C16  486E FE9E                pea.l      [A6 - 0x162]
00002C1A  487A 030E                pea.l      [PC + 0x30E /* 00002F2A, value 0x1220420 */]
00002C1E  486E FD68                pea.l      [A6 - 0x298]
00002C22  3F3C 0003                move.w     -[A7], 0x3
00002C26  4EAD 050A                jsr        [A5 + 0x50A /* export_157, CODE:1 @ 0000531E */]
00002C2A  41EE FE9E                lea.l      A0, [A6 - 0x162]
00002C2E  43EE FD68                lea.l      A1, [A6 - 0x298]
00002C32  703F                     moveq.l    D0, 0x3F
label00002C34:
00002C34  20D9                     move.l     [A0]+, [A1]+
00002C36  51C8 FFFC                dbf        D0, -0x6 /* 00002C34 */
label00002C3A:
00002C3A  486E FC64                pea.l      [A6 - 0x39C]
00002C3E  3F3C 0011                move.w     -[A7], 0x11
00002C42  4EAD 209A                jsr        [A5 + 0x209A /* export_1039, CODE:20 @ 00000F60 */]
00002C46  486E FE8A                pea.l      [A6 - 0x176]
00002C4A  486E FB64                pea.l      [A6 - 0x49C]
00002C4E  3F05                     move.w     -[A7], D5
00002C50  4EAD 209A                jsr        [A5 + 0x209A /* export_1039, CODE:20 @ 00000F60 */]
00002C54  486E FB50                pea.l      [A6 - 0x4B0]
00002C58  302E FE6A                move.w     D0, [A6 - 0x196]
00002C5C  48C0                     ext.l      D0
00002C5E  2F00                     move.l     -[A7], D0
00002C60  4EAD 1902                jsr        [A5 + 0x1902 /* export_796, CODE:16 @ 000009D4 */]
00002C64  486E FE9E                pea.l      [A6 - 0x162]
00002C68  486E FD68                pea.l      [A6 - 0x298]
00002C6C  3F3C 0005                move.w     -[A7], 0x5
00002C70  4EAD 050A                jsr        [A5 + 0x50A /* export_157, CODE:1 @ 0000531E */]
00002C74  41EE FE9E                lea.l      A0, [A6 - 0x162]
00002C78  43EE FD68                lea.l      A1, [A6 - 0x298]
00002C7C  703F                     moveq.l    D0, 0x3F
label00002C7E:
00002C7E  20D9                     move.l     [A0]+, [A1]+
00002C80  51C8 FFFC                dbf        D0, -0x6 /* 00002C7E */
00002C84  42A7                     clr.l      -[A7]
00002C86  206E 000A                movea.l    A0, [A6 + 0xA]
00002C8A  2F28 0010                move.l     -[A7], [A0 + 0x10]
00002C8E  206E 000A                movea.l    A0, [A6 + 0xA]
00002C92  3F28 000E                move.w     -[A7], [A0 + 0xE]
00002C96  4EAD 1DDA                jsr        [A5 + 0x1DDA /* export_951, CODE:18 @ 00000FB4 */]
00002C9A  285F                     movea.l    A4, [A7]+
00002C9C  200C                     move.l     D0, A4
00002C9E  56C0                     sne        D0
00002CA0  4A00                     tst.b      D0
00002CA2  673A                     beq        +0x3C /* 00002CDE */
00002CA4  2F00                     move.l     -[A7], D0
00002CA6  4267                     clr.w      -[A7]
00002CA8  486E FE9E                pea.l      [A6 - 0x162]
00002CAC  2F0C                     move.l     -[A7], A4
00002CAE  1F04                     move.b     -[A7], D4
00002CB0  4EBA FE16                jsr        [PC - 0x1EA /* 00002AC8 */]
00002CB4  121F                     move.b     D1, [A7]+
00002CB6  201F                     move.l     D0, [A7]+
00002CB8  C001                     and.b      D0, D1
00002CBA  6722                     beq        +0x24 /* 00002CDE */
00002CBC  7E01                     moveq.l    D7, 0x01
00002CBE  4267                     clr.w      -[A7]
00002CC0  206E 000A                movea.l    A0, [A6 + 0xA]
00002CC4  2F28 0010                move.l     -[A7], [A0 + 0x10]
00002CC8  206E 000A                movea.l    A0, [A6 + 0xA]
00002CCC  3F28 000E                move.w     -[A7], [A0 + 0xE]
00002CD0  2F0C                     move.l     -[A7], A4
00002CD2  4EAD 1E7A                jsr        [A5 + 0x1E7A /* export_971, CODE:18 @ 00002FCA */]
00002CD6  101F                     move.b     D0, [A7]+
00002CD8  6604                     bne        +0x6 /* 00002CDE */
00002CDA  4EAD 1812                jsr        [A5 + 0x1812 /* export_766, CODE:16 @ 00000208 */]
label00002CDE:
00002CDE  6000 0222                bra        +0x224 /* 00002F02 */
label00002CE2:
00002CE2  486E FC64                pea.l      [A6 - 0x39C]
00002CE6  206E 000A                movea.l    A0, [A6 + 0xA]
00002CEA  2F28 000A                move.l     -[A7], [A0 + 0xA]
00002CEE  4EAD 1D8A                jsr        [A5 + 0x1D8A /* export_941, CODE:18 @ 00000AA4 */]
00002CF2  205F                     movea.l    A0, [A7]+
00002CF4  43EE FE9E                lea.l      A1, [A6 - 0x162]
00002CF8  703F                     moveq.l    D0, 0x3F
label00002CFA:
00002CFA  22D8                     move.l     [A1]+, [A0]+
00002CFC  51C8 FFFC                dbf        D0, -0x6 /* 00002CFA */
00002D00  4240                     clr.w      D0
00002D02  102E FE9E                move.b     D0, [A6 - 0x162]
00002D06  4A40                     tst.w      D0
00002D08  6F28                     ble        +0x2A /* 00002D32 */
00002D0A  487A 0220                pea.l      [PC + 0x220 /* 00002F2C, value 0x4203D20, pstring " = \"" */]
00002D0E  486E FE9E                pea.l      [A6 - 0x162]
00002D12  487A 0216                pea.l      [PC + 0x216 /* 00002F2A, value 0x1220420 */]
00002D16  486E FD68                pea.l      [A6 - 0x298]
00002D1A  3F3C 0003                move.w     -[A7], 0x3
00002D1E  4EAD 050A                jsr        [A5 + 0x50A /* export_157, CODE:1 @ 0000531E */]
00002D22  41EE FE9E                lea.l      A0, [A6 - 0x162]
00002D26  43EE FD68                lea.l      A1, [A6 - 0x298]
00002D2A  703F                     moveq.l    D0, 0x3F
label00002D2C:
00002D2C  20D9                     move.l     [A0]+, [A1]+
00002D2E  51C8 FFFC                dbf        D0, -0x6 /* 00002D2C */
label00002D32:
00002D32  486E FC64                pea.l      [A6 - 0x39C]
00002D36  3F3C 0010                move.w     -[A7], 0x10
00002D3A  4EAD 209A                jsr        [A5 + 0x209A /* export_1039, CODE:20 @ 00000F60 */]
00002D3E  486E FB50                pea.l      [A6 - 0x4B0]
00002D42  206E 000A                movea.l    A0, [A6 + 0xA]
00002D46  2F28 000A                move.l     -[A7], [A0 + 0xA]
00002D4A  4EAD 18B2                jsr        [A5 + 0x18B2 /* export_786, CODE:16 @ 00000738 */]
00002D4E  486E FE9E                pea.l      [A6 - 0x162]
00002D52  486E FD68                pea.l      [A6 - 0x298]
00002D56  3F3C 0003                move.w     -[A7], 0x3
00002D5A  4EAD 050A                jsr        [A5 + 0x50A /* export_157, CODE:1 @ 0000531E */]
00002D5E  41EE FE9E                lea.l      A0, [A6 - 0x162]
00002D62  43EE FD68                lea.l      A1, [A6 - 0x298]
00002D66  703F                     moveq.l    D0, 0x3F
label00002D68:
00002D68  20D9                     move.l     [A0]+, [A1]+
00002D6A  51C8 FFFC                dbf        D0, -0x6 /* 00002D68 */
00002D6E  42A7                     clr.l      -[A7]
00002D70  206E 000A                movea.l    A0, [A6 + 0xA]
00002D74  2F28 000A                move.l     -[A7], [A0 + 0xA]
00002D78  4EAD 1D92                jsr        [A5 + 0x1D92 /* export_942, CODE:18 @ 00000B06 */]
00002D7C  285F                     movea.l    A4, [A7]+
00002D7E  200C                     move.l     D0, A4
00002D80  56C0                     sne        D0
00002D82  4A00                     tst.b      D0
00002D84  6732                     beq        +0x34 /* 00002DB8 */
00002D86  2F00                     move.l     -[A7], D0
00002D88  4267                     clr.w      -[A7]
00002D8A  486E FE9E                pea.l      [A6 - 0x162]
00002D8E  2F0C                     move.l     -[A7], A4
00002D90  1F04                     move.b     -[A7], D4
00002D92  4EBA FD34                jsr        [PC - 0x2CC /* 00002AC8 */]
00002D96  121F                     move.b     D1, [A7]+
00002D98  201F                     move.l     D0, [A7]+
00002D9A  C001                     and.b      D0, D1
00002D9C  671A                     beq        +0x1C /* 00002DB8 */
00002D9E  7E01                     moveq.l    D7, 0x01
00002DA0  4267                     clr.w      -[A7]
00002DA2  206E 000A                movea.l    A0, [A6 + 0xA]
00002DA6  2F28 000A                move.l     -[A7], [A0 + 0xA]
00002DAA  2F0C                     move.l     -[A7], A4
00002DAC  4EAD 1E62                jsr        [A5 + 0x1E62 /* export_968, CODE:18 @ 00002C8C */]
00002DB0  101F                     move.b     D0, [A7]+
00002DB2  6604                     bne        +0x6 /* 00002DB8 */
00002DB4  4EAD 1812                jsr        [A5 + 0x1812 /* export_766, CODE:16 @ 00000208 */]
label00002DB8:
00002DB8  6000 0148                bra        +0x14A /* 00002F02 */
label00002DBC:
00002DBC  486E FC64                pea.l      [A6 - 0x39C]
00002DC0  206E 000A                movea.l    A0, [A6 + 0xA]
00002DC4  2F28 0006                move.l     -[A7], [A0 + 0x6]
00002DC8  4EAD 1D72                jsr        [A5 + 0x1D72 /* export_938, CODE:18 @ 00000950 */]
00002DCC  205F                     movea.l    A0, [A7]+
00002DCE  43EE FE9E                lea.l      A1, [A6 - 0x162]
00002DD2  703F                     moveq.l    D0, 0x3F
label00002DD4:
00002DD4  22D8                     move.l     [A1]+, [A0]+
00002DD6  51C8 FFFC                dbf        D0, -0x6 /* 00002DD4 */
00002DDA  4240                     clr.w      D0
00002DDC  102E FE9E                move.b     D0, [A6 - 0x162]
00002DE0  4A40                     tst.w      D0
00002DE2  6F28                     ble        +0x2A /* 00002E0C */
00002DE4  487A 0146                pea.l      [PC + 0x146 /* 00002F2C, value 0x4203D20, pstring " = \"" */]
00002DE8  486E FE9E                pea.l      [A6 - 0x162]
00002DEC  487A 013C                pea.l      [PC + 0x13C /* 00002F2A, value 0x1220420 */]
00002DF0  486E FD68                pea.l      [A6 - 0x298]
00002DF4  3F3C 0003                move.w     -[A7], 0x3
00002DF8  4EAD 050A                jsr        [A5 + 0x50A /* export_157, CODE:1 @ 0000531E */]
00002DFC  41EE FE9E                lea.l      A0, [A6 - 0x162]
00002E00  43EE FD68                lea.l      A1, [A6 - 0x298]
00002E04  703F                     moveq.l    D0, 0x3F
label00002E06:
00002E06  20D9                     move.l     [A0]+, [A1]+
00002E08  51C8 FFFC                dbf        D0, -0x6 /* 00002E06 */
label00002E0C:
00002E0C  486E FC64                pea.l      [A6 - 0x39C]
00002E10  3F3C 000F                move.w     -[A7], 0xF
00002E14  4EAD 209A                jsr        [A5 + 0x209A /* export_1039, CODE:20 @ 00000F60 */]
00002E18  486E FB50                pea.l      [A6 - 0x4B0]
00002E1C  206E 000A                movea.l    A0, [A6 + 0xA]
00002E20  2F28 0006                move.l     -[A7], [A0 + 0x6]
00002E24  4EAD 18B2                jsr        [A5 + 0x18B2 /* export_786, CODE:16 @ 00000738 */]
00002E28  486E FE9E                pea.l      [A6 - 0x162]
00002E2C  486E FD68                pea.l      [A6 - 0x298]
00002E30  3F3C 0003                move.w     -[A7], 0x3
00002E34  4EAD 050A                jsr        [A5 + 0x50A /* export_157, CODE:1 @ 0000531E */]
00002E38  41EE FE9E                lea.l      A0, [A6 - 0x162]
00002E3C  43EE FD68                lea.l      A1, [A6 - 0x298]
00002E40  703F                     moveq.l    D0, 0x3F
label00002E42:
00002E42  20D9                     move.l     [A0]+, [A1]+
00002E44  51C8 FFFC                dbf        D0, -0x6 /* 00002E42 */
00002E48  42A7                     clr.l      -[A7]
00002E4A  206E 000A                movea.l    A0, [A6 + 0xA]
00002E4E  2F28 0006                move.l     -[A7], [A0 + 0x6]
00002E52  4EAD 1D82                jsr        [A5 + 0x1D82 /* export_940, CODE:18 @ 00000A0C */]
00002E56  285F                     movea.l    A4, [A7]+
00002E58  200C                     move.l     D0, A4
00002E5A  56C0                     sne        D0
00002E5C  4A00                     tst.b      D0
00002E5E  6732                     beq        +0x34 /* 00002E92 */
00002E60  2F00                     move.l     -[A7], D0
00002E62  4267                     clr.w      -[A7]
00002E64  486E FE9E                pea.l      [A6 - 0x162]
00002E68  2F0C                     move.l     -[A7], A4
00002E6A  1F04                     move.b     -[A7], D4
00002E6C  4EBA FC5A                jsr        [PC - 0x3A6 /* 00002AC8 */]
00002E70  121F                     move.b     D1, [A7]+
00002E72  201F                     move.l     D0, [A7]+
00002E74  C001                     and.b      D0, D1
00002E76  671A                     beq        +0x1C /* 00002E92 */
00002E78  7E01                     moveq.l    D7, 0x01
00002E7A  4267                     clr.w      -[A7]
00002E7C  206E 000A                movea.l    A0, [A6 + 0xA]
00002E80  2F28 0006                move.l     -[A7], [A0 + 0x6]
00002E84  2F0C                     move.l     -[A7], A4
00002E86  4EAD 1E52                jsr        [A5 + 0x1E52 /* export_966, CODE:18 @ 00002A84 */]
00002E8A  101F                     move.b     D0, [A7]+
00002E8C  6604                     bne        +0x6 /* 00002E92 */
00002E8E  4EAD 1812                jsr        [A5 + 0x1812 /* export_766, CODE:16 @ 00000208 */]
label00002E92:
00002E92  606E                     bra        +0x70 /* 00002F02 */
label00002E94:
00002E94  486E FC64                pea.l      [A6 - 0x39C]
00002E98  3F3C 000E                move.w     -[A7], 0xE
00002E9C  4EAD 209A                jsr        [A5 + 0x209A /* export_1039, CODE:20 @ 00000F60 */]
00002EA0  486D FC48                pea.l      [A5 - 0x3B8]
00002EA4  486D FD48                pea.l      [A5 - 0x2B8]
00002EA8  486E FD68                pea.l      [A6 - 0x298]
00002EAC  3F3C 0003                move.w     -[A7], 0x3
00002EB0  4EAD 050A                jsr        [A5 + 0x50A /* export_157, CODE:1 @ 0000531E */]
00002EB4  41EE FE9E                lea.l      A0, [A6 - 0x162]
00002EB8  43EE FD68                lea.l      A1, [A6 - 0x298]
00002EBC  703F                     moveq.l    D0, 0x3F
label00002EBE:
00002EBE  20D9                     move.l     [A0]+, [A1]+
00002EC0  51C8 FFFC                dbf        D0, -0x6 /* 00002EBE */
00002EC4  42A7                     clr.l      -[A7]
00002EC6  4EAD 1DE2                jsr        [A5 + 0x1DE2 /* export_952, CODE:18 @ 00000FEA */]
00002ECA  285F                     movea.l    A4, [A7]+
00002ECC  200C                     move.l     D0, A4
00002ECE  56C0                     sne        D0
00002ED0  4A00                     tst.b      D0
00002ED2  672A                     beq        +0x2C /* 00002EFE */
00002ED4  2F00                     move.l     -[A7], D0
00002ED6  4267                     clr.w      -[A7]
00002ED8  486E FE9E                pea.l      [A6 - 0x162]
00002EDC  2F0C                     move.l     -[A7], A4
00002EDE  1F04                     move.b     -[A7], D4
00002EE0  4EBA FBE6                jsr        [PC - 0x41A /* 00002AC8 */]
00002EE4  121F                     move.b     D1, [A7]+
00002EE6  201F                     move.l     D0, [A7]+
00002EE8  C001                     and.b      D0, D1
00002EEA  6712                     beq        +0x14 /* 00002EFE */
00002EEC  7E01                     moveq.l    D7, 0x01
00002EEE  4267                     clr.w      -[A7]
00002EF0  2F0C                     move.l     -[A7], A4
00002EF2  4EAD 1E8A                jsr        [A5 + 0x1E8A /* export_973, CODE:18 @ 000031F6 */]
00002EF6  101F                     move.b     D0, [A7]+
00002EF8  6604                     bne        +0x6 /* 00002EFE */
00002EFA  4EAD 1812                jsr        [A5 + 0x1812 /* export_766, CODE:16 @ 00000208 */]
label00002EFE:
00002EFE  6002                     bra        +0x4 /* 00002F02 */
00002F00  601C                     bra        +0x1E /* 00002F1E */
label00002F02:
00002F02  200C                     move.l     D0, A4
00002F04  670C                     beq        +0xE /* 00002F12 */
00002F06  2F0C                     move.l     -[A7], A4
00002F08  4EAD 18D2                jsr        [A5 + 0x18D2 /* export_790, CODE:16 @ 0000083E */]
00002F0C  1D7C 0001 000E           move.b     [A6 + 0xE], 0x1
label00002F12:
00002F12  1007                     move.b     D0, D7
00002F14  6708                     beq        +0xA /* 00002F1E */
00002F16  2F2E 000A                move.l     -[A7], [A6 + 0xA]
00002F1A  4EBA 18AE                jsr        [PC + 0x18AE /* 000047CA */]
label00002F1E:
00002F1E  4CDF 10F0                movem.l    D4,D5,D6,D7,A4, [A7]+
00002F22  4E5E                     unlink     A6
00002F24  205F                     movea.l    A0, [A7]+
00002F26  5C4F                     addq.w     A7, 6
00002F28  4ED0                     jmp        [A0]
00002F2A  0122                     btst       -[A2], D0
00002F2C  0420 3D20                subi.b     -[A0], 0x20 /* ' ' */
00002F30  2200                     move.l     D1, D0
00002F32  424B                     clr.w      A3
00002F34  4744                     chk.w      D3, D4
export_462:
00002F36  4E56 FFEA                link       A6, -0x0016
00002F3A  486E FFF4                pea.l      [A6 - 0xC]
00002F3E  4EAD 1442                jsr        [A5 + 0x1442 /* export_644, CODE:13 @ 00001164 */]
00002F42  102E FFF4                move.b     D0, [A6 - 0xC]
00002F46  6710                     beq        +0x12 /* 00002F58 */
00002F48  202E FFF6                move.l     D0, [A6 - 0xA]
00002F4C  6A02                     bpl        +0x4 /* 00002F50 */
00002F4E  4480                     neg.l      D0
label00002F50:
00002F50  2F00                     move.l     -[A7], D0
00002F52  4EAD 0B12                jsr        [A5 + 0xB12 /* export_350, CODE:8 @ 00003A4E */]
00002F56  603A                     bra        +0x3C /* 00002F92 */
label00002F58:
00002F58  487A 003C                pea.l      [PC + 0x3C /* 00002F96, value 0x0, cstring "" */]
00002F5C  486E FFF6                pea.l      [A6 - 0xA]
00002F60  3F3C 000A                move.w     -[A7], 0xA /* '\n' */
00002F64  A9EB                     syscall    Pack4/FP68K
00002F66  6422                     bcc        +0x24 /* 00002F8A */
00002F68  41EE FFEA                lea.l      A0, [A6 - 0x16]
00002F6C  43EE FFF6                lea.l      A1, [A6 - 0xA]
00002F70  20D9                     move.l     [A0]+, [A1]+
00002F72  20D9                     move.l     [A0]+, [A1]+
00002F74  3091                     move.w     [A0], [A1]
00002F76  0A2E 0080 FFEA           xori.b     [A6 - 0x16], 0x80
00002F7C  41EE FFF6                lea.l      A0, [A6 - 0xA]
00002F80  43EE FFEA                lea.l      A1, [A6 - 0x16]
00002F84  20D9                     move.l     [A0]+, [A1]+
00002F86  20D9                     move.l     [A0]+, [A1]+
00002F88  3091                     move.w     [A0], [A1]
label00002F8A:
00002F8A  486E FFF6                pea.l      [A6 - 0xA]
00002F8E  4EAD 0AFA                jsr        [A5 + 0xAFA /* export_347, CODE:8 @ 000039DE */]
label00002F92:
00002F92  4E5E                     unlink     A6
00002F94  4E75                     rts
00002F96  0000 0000                ori.b      D0, 0x0
00002F9A  0000 0000                ori.b      D0, 0x0
00002F9E  0000 4E56                ori.b      D0, 0x56 /* 'V' */
// begin alternate branch 00002FA0-00002FA4
export_463:
00002FA0  4E56 FFE2                link       A6, -0x001E
// end alternate branch 00002FA0-00002FA4
export_463: // at 00002FA0 (misaligned)
00002FA2  FFE2                     .invalid   <<F/7/7>>
00002FA4  486E FFF6                pea.l      [A6 - 0xA]
00002FA8  4EAD 1452                jsr        [A5 + 0x1452 /* export_646, CODE:13 @ 00001556 */]
00002FAC  486E FFEC                pea.l      [A6 - 0x14]
00002FB0  4EAD 1452                jsr        [A5 + 0x1452 /* export_646, CODE:13 @ 00001556 */]
00002FB4  486E FFE2                pea.l      [A6 - 0x1E]
00002FB8  486E FFEC                pea.l      [A6 - 0x14]
00002FBC  486E FFF6                pea.l      [A6 - 0xA]
00002FC0  4EAD 0552                jsr        [A5 + 0x552 /* export_166, CODE:2 @ 000000B4 */]
00002FC4  588F                     addq.l     A7, 4
00002FC6  486E FFE2                pea.l      [A6 - 0x1E]
00002FCA  4EAD 0AFA                jsr        [A5 + 0xAFA /* export_347, CODE:8 @ 000039DE */]
00002FCE  4E5E                     unlink     A6
00002FD0  4E75                     rts
export_464:
00002FD2  4E56 0000                link       A6, 0
00002FD6  3F3C 0004                move.w     -[A7], 0x4
00002FDA  4EBA E7D4                jsr        [PC - 0x182C /* 000017B0 */]
00002FDE  4E5E                     unlink     A6
00002FE0  4E75                     rts
export_465:
00002FE2  4E56 FFD8                link       A6, -0x0028
00002FE6  48E7 0300                movem.l    -[A7], D6,D7
00002FEA  41EE FFF2                lea.l      A0, [A6 - 0xE]
00002FEE  43FA 00B6                lea.l      A1, [PC + 0xB6 /* 000030A6, value 0x0, cstring "" */]
00002FF2  20D9                     move.l     [A0]+, [A1]+
00002FF4  20D9                     move.l     [A0]+, [A1]+
00002FF6  3091                     move.w     [A0], [A1]
00002FF8  42A7                     clr.l      -[A7]
00002FFA  4EAD 147A                jsr        [A5 + 0x147A /* export_651, CODE:13 @ 000016E8 */]
00002FFE  201F                     move.l     D0, [A7]+
00003000  3E00                     move.w     D7, D0
00003002  3D47 FFE4                move.w     [A6 - 0x1C], D7
00003006  7C01                     moveq.l    D6, 0x01
00003008  6066                     bra        +0x68 /* 00003070 */
label0000300A:
0000300A  486E FFE6                pea.l      [A6 - 0x1A]
0000300E  4EAD 1442                jsr        [A5 + 0x1442 /* export_644, CODE:13 @ 00001164 */]
00003012  102E FFE6                move.b     D0, [A6 - 0x1A]
00003016  672C                     beq        +0x2E /* 00003044 */
00003018  486E FFE8                pea.l      [A6 - 0x18]
0000301C  41EE FFDA                lea.l      A0, [A6 - 0x26]
00003020  43EE FFF2                lea.l      A1, [A6 - 0xE]
00003024  20D9                     move.l     [A0]+, [A1]+
00003026  20D9                     move.l     [A0]+, [A1]+
00003028  3091                     move.w     [A0], [A1]
0000302A  486E FFDA                pea.l      [A6 - 0x26]
0000302E  3F3C 2800                move.w     -[A7], 0x2800 /* '(\0' */
00003032  A9EB                     syscall    Pack4/FP68K
00003034  41EE FFF2                lea.l      A0, [A6 - 0xE]
00003038  43EE FFDA                lea.l      A1, [A6 - 0x26]
0000303C  20D9                     move.l     [A0]+, [A1]+
0000303E  20D9                     move.l     [A0]+, [A1]+
00003040  3091                     move.w     [A0], [A1]
00003042  6028                     bra        +0x2A /* 0000306C */
label00003044:
00003044  486E FFE8                pea.l      [A6 - 0x18]
00003048  41EE FFDA                lea.l      A0, [A6 - 0x26]
0000304C  43EE FFF2                lea.l      A1, [A6 - 0xE]
00003050  20D9                     move.l     [A0]+, [A1]+
00003052  20D9                     move.l     [A0]+, [A1]+
00003054  3091                     move.w     [A0], [A1]
00003056  486E FFDA                pea.l      [A6 - 0x26]
0000305A  4267                     clr.w      -[A7]
0000305C  A9EB                     syscall    Pack4/FP68K
0000305E  41EE FFF2                lea.l      A0, [A6 - 0xE]
00003062  43EE FFDA                lea.l      A1, [A6 - 0x26]
00003066  20D9                     move.l     [A0]+, [A1]+
00003068  20D9                     move.l     [A0]+, [A1]+
0000306A  3091                     move.w     [A0], [A1]
label0000306C:
0000306C  5246                     addq.w     D6, 1
0000306E  6906                     bvs        +0x8 /* 00003076 */
label00003070:
00003070  BC6E FFE4                cmp.w      D6, [A6 - 0x1C]
00003074  6F94                     ble        -0x6A /* 0000300A */
label00003076:
00003076  3D47 FFD8                move.w     [A6 - 0x28], D7
0000307A  486E FFD8                pea.l      [A6 - 0x28]
0000307E  41EE FFDA                lea.l      A0, [A6 - 0x26]
00003082  43EE FFF2                lea.l      A1, [A6 - 0xE]
00003086  20D9                     move.l     [A0]+, [A1]+
00003088  20D9                     move.l     [A0]+, [A1]+
0000308A  3091                     move.w     [A0], [A1]
0000308C  486E FFDA                pea.l      [A6 - 0x26]
00003090  3F3C 2006                move.w     -[A7], 0x2006
00003094  A9EB                     syscall    Pack4/FP68K
00003096  486E FFDA                pea.l      [A6 - 0x26]
0000309A  4EAD 0AFA                jsr        [A5 + 0xAFA /* export_347, CODE:8 @ 000039DE */]
0000309E  4CDF 00C0                movem.l    D6,D7, [A7]+
000030A2  4E5E                     unlink     A6
000030A4  4E75                     rts
000030A6  0000 0000                ori.b      D0, 0x0
000030AA  0000 0000                ori.b      D0, 0x0
000030AE  0000 4E56                ori.b      D0, 0x56 /* 'V' */
// begin alternate branch 000030B0-000030B4
export_466:
000030B0  4E56 FFFA                link       A6, -0x0006
// end alternate branch 000030B0-000030B4
export_466: // at 000030B0 (misaligned)
000030B2  FFFA                     .invalid   <<F/7/7>>
000030B4  48E7 0108                movem.l    -[A7], D7,A4
000030B8  42A7                     clr.l      -[A7]
000030BA  4267                     clr.w      -[A7]
000030BC  4EAD 08F2                jsr        [A5 + 0x8F2 /* export_282, CODE:8 @ 0000017A */]
000030C0  285F                     movea.l    A4, [A7]+
000030C2  1014                     move.b     D0, [A4]
000030C4  4880                     ext.w      D0
000030C6  3E00                     move.w     D7, D0
000030C8  4EAD 1432                jsr        [A5 + 0x1432 /* export_642, CODE:13 @ 000010F2 */]
000030CC  7000                     moveq.l    D0, 0x00
000030CE  3007                     move.w     D0, D7
000030D0  C0BC 0000 00FF           and.l      D0, 0xFF
000030D6  2F00                     move.l     -[A7], D0
000030D8  4EAD 0B1A                jsr        [A5 + 0xB1A /* export_351, CODE:8 @ 00003A68 */]
000030DC  4CDF 1080                movem.l    D7,A4, [A7]+
000030E0  4E5E                     unlink     A6
000030E2  4E75                     rts
export_467:
000030E4  4E56 FFFC                link       A6, -0x0004
000030E8  2D6D EFF0 FFFC           move.l     [A6 - 0x4], [A5 - 0x1010]
000030EE  2F2D EDC8                move.l     -[A7], [A5 - 0x1238]
000030F2  A873                     syscall    SetPort
000030F4  486E FFFC                pea.l      [A6 - 0x4]
000030F8  A871                     syscall    GlobalToLocal
000030FA  302E FFFE                move.w     D0, [A6 - 0x2]
000030FE  48C0                     ext.l      D0
00003100  2F00                     move.l     -[A7], D0
00003102  4EAD 0B12                jsr        [A5 + 0xB12 /* export_350, CODE:8 @ 00003A4E */]
00003106  4E5E                     unlink     A6
00003108  4E75                     rts
export_468:
0000310A  4E56 FFFC                link       A6, -0x0004
0000310E  2D6D EFF0 FFFC           move.l     [A6 - 0x4], [A5 - 0x1010]
00003114  2F2D EDC8                move.l     -[A7], [A5 - 0x1238]
00003118  A873                     syscall    SetPort
0000311A  486E FFFC                pea.l      [A6 - 0x4]
0000311E  A871                     syscall    GlobalToLocal
00003120  486E FFFC                pea.l      [A6 - 0x4]
00003124  7004                     moveq.l    D0, 0x04
00003126  2F00                     move.l     -[A7], D0
00003128  1F3C 000B                move.b     -[A7], 0xB
0000312C  4EAD 0AC2                jsr        [A5 + 0xAC2 /* export_340, CODE:8 @ 000036D2 */]
00003130  4E5E                     unlink     A6
00003132  4E75                     rts
export_469:
00003134  4E56 FFFC                link       A6, -0x0004
00003138  2D6D EFF0 FFFC           move.l     [A6 - 0x4], [A5 - 0x1010]
0000313E  2F2D EDC8                move.l     -[A7], [A5 - 0x1238]
00003142  A873                     syscall    SetPort
00003144  486E FFFC                pea.l      [A6 - 0x4]
00003148  A871                     syscall    GlobalToLocal
0000314A  302E FFFC                move.w     D0, [A6 - 0x4]
0000314E  48C0                     ext.l      D0
00003150  2F00                     move.l     -[A7], D0
00003152  4EAD 0B12                jsr        [A5 + 0xB12 /* export_350, CODE:8 @ 00003A4E */]
00003156  4E5E                     unlink     A6
00003158  4E75                     rts
export_470:
0000315A  4E56 FFF0                link       A6, -0x0010
0000315E  486E FFF0                pea.l      [A6 - 0x10]
00003162  A976                     syscall    GetKeys
00003164  7037                     moveq.l    D0, 0x37
00003166  3200                     move.w     D1, D0
00003168  E641                     asr        D1.w, 3
0000316A  0136 10F0                btst       [A6 + D1.w - 0x10], D0
0000316E  56C0                     sne        D0
00003170  0240 0001                andi.w     D0, 0x1
00003174  1F00                     move.b     -[A7], D0
00003176  4EAD 0AEA                jsr        [A5 + 0xAEA /* export_345, CODE:8 @ 00003994 */]
0000317A  4E5E                     unlink     A6
0000317C  4E75                     rts
export_471:
0000317E  4E56 FFE2                link       A6, -0x001E
00003182  486E FFF6                pea.l      [A6 - 0xA]
00003186  4EAD 1452                jsr        [A5 + 0x1452 /* export_646, CODE:13 @ 00001556 */]
0000318A  486E FFEC                pea.l      [A6 - 0x14]
0000318E  4EAD 1452                jsr        [A5 + 0x1452 /* export_646, CODE:13 @ 00001556 */]
00003192  486E FFE2                pea.l      [A6 - 0x1E]
00003196  486E FFEC                pea.l      [A6 - 0x14]
0000319A  486E FFF6                pea.l      [A6 - 0xA]
0000319E  4EAD 054A                jsr        [A5 + 0x54A /* export_165, CODE:2 @ 000000AE */]
000031A2  588F                     addq.l     A7, 4
000031A4  486E FFE2                pea.l      [A6 - 0x1E]
000031A8  4EAD 0AFA                jsr        [A5 + 0xAFA /* export_347, CODE:8 @ 000039DE */]
000031AC  4E5E                     unlink     A6
000031AE  4E75                     rts
export_472:
000031B0  4E56 0000                link       A6, 0
000031B4  3F3C 0002                move.w     -[A7], 0x2
000031B8  4EBA E5F6                jsr        [PC - 0x1A0A /* 000017B0 */]
000031BC  4E5E                     unlink     A6
000031BE  4E75                     rts
export_473:
000031C0  4E56 FEFC                link       A6, -0x0104
000031C4  486E FEFC                pea.l      [A6 - 0x104]
000031C8  4EAD 0282                jsr        [A5 + 0x282 /* export_76, CODE:1 @ 00004728 */]
000031CC  7003                     moveq.l    D0, 0x03
000031CE  B02D B66B                cmp.b      D0, [A5 - 0x4995]
000031D2  6612                     bne        +0x14 /* 000031E6 */
000031D4  2F2E FEFC                move.l     -[A7], [A6 - 0x104]
000031D8  1F3C 0002                move.b     -[A7], 0x2
000031DC  486E FF00                pea.l      [A6 - 0x100]
000031E0  4EAD 0422                jsr        [A5 + 0x422 /* export_128, CODE:1 @ 00004D40 */]
000031E4  6028                     bra        +0x2A /* 0000320E */
label000031E6:
000031E6  7001                     moveq.l    D0, 0x01
000031E8  B02D B66B                cmp.b      D0, [A5 - 0x4995]
000031EC  6612                     bne        +0x14 /* 00003200 */
000031EE  2F2E FEFC                move.l     -[A7], [A6 - 0x104]
000031F2  1F3C 0001                move.b     -[A7], 0x1
000031F6  486E FF00                pea.l      [A6 - 0x100]
000031FA  4EAD 0422                jsr        [A5 + 0x422 /* export_128, CODE:1 @ 00004D40 */]
000031FE  600E                     bra        +0x10 /* 0000320E */
label00003200:
00003200  2F2E FEFC                move.l     -[A7], [A6 - 0x104]
00003204  4267                     clr.w      -[A7]
00003206  486E FF00                pea.l      [A6 - 0x100]
0000320A  4EAD 0422                jsr        [A5 + 0x422 /* export_128, CODE:1 @ 00004D40 */]
label0000320E:
0000320E  486E FF00                pea.l      [A6 - 0x100]
00003212  4EAD 0B22                jsr        [A5 + 0xB22 /* export_352, CODE:8 @ 00003A82 */]
00003216  4E5E                     unlink     A6
00003218  4E75                     rts
export_474:
0000321A  4E56 0000                link       A6, 0
0000321E  42A7                     clr.l      -[A7]
00003220  3F2D FC44                move.w     -[A7], [A5 - 0x3BC]
00003224  4EAD 19F2                jsr        [A5 + 0x19F2 /* export_826, CODE:16 @ 000013B8 */]
00003228  4EAD 0B1A                jsr        [A5 + 0xB1A /* export_351, CODE:8 @ 00003A68 */]
0000322C  4E5E                     unlink     A6
0000322E  4E75                     rts
export_475:
00003230  4E56 0000                link       A6, 0
00003234  3F3C 0008                move.w     -[A7], 0x8
00003238  4EBA E576                jsr        [PC - 0x1A8A /* 000017B0 */]
0000323C  4E5E                     unlink     A6
0000323E  4E75                     rts
export_476:
00003240  4E56 0000                link       A6, 0
00003244  3F3C 0009                move.w     -[A7], 0x9 /* '\t' */
00003248  4EBA E566                jsr        [PC - 0x1A9A /* 000017B0 */]
0000324C  4E5E                     unlink     A6
0000324E  4E75                     rts
export_477:
00003250  4E56 0000                link       A6, 0
00003254  3F3C 000A                move.w     -[A7], 0xA /* '\n' */
00003258  4EBA E556                jsr        [PC - 0x1AAA /* 000017B0 */]
0000325C  4E5E                     unlink     A6
0000325E  4E75                     rts
export_478:
00003260  4E56 FF00                link       A6, -0x0100
00003264  486E FF00                pea.l      [A6 - 0x100]
00003268  3F3C 0001                move.w     -[A7], 0x1
0000326C  4EAD 1752                jsr        [A5 + 0x1752 /* export_742, CODE:15 @ 00005282 */]
00003270  4EAD 0B2A                jsr        [A5 + 0xB2A /* export_353, CODE:8 @ 00003ACC */]
00003274  4E5E                     unlink     A6
00003276  4E75                     rts
export_479:
00003278  4E56 FF00                link       A6, -0x0100
0000327C  486E FF00                pea.l      [A6 - 0x100]
00003280  3F3C 0003                move.w     -[A7], 0x3
00003284  4EAD 1752                jsr        [A5 + 0x1752 /* export_742, CODE:15 @ 00005282 */]
00003288  4EAD 0B2A                jsr        [A5 + 0xB2A /* export_353, CODE:8 @ 00003ACC */]
0000328C  4E5E                     unlink     A6
0000328E  4E75                     rts
export_480:
00003290  4E56 FF00                link       A6, -0x0100
00003294  486E FF00                pea.l      [A6 - 0x100]
00003298  3F3C 0002                move.w     -[A7], 0x2
0000329C  4EAD 1752                jsr        [A5 + 0x1752 /* export_742, CODE:15 @ 00005282 */]
000032A0  4EAD 0B2A                jsr        [A5 + 0xB2A /* export_353, CODE:8 @ 00003ACC */]
000032A4  4E5E                     unlink     A6
000032A6  4E75                     rts
export_481:
000032A8  4E56 FFFC                link       A6, -0x0004
000032AC  2F0C                     move.l     -[A7], A4
000032AE  42A7                     clr.l      -[A7]
000032B0  4EAD 175A                jsr        [A5 + 0x175A /* export_743, CODE:15 @ 00005452 */]
000032B4  285F                     movea.l    A4, [A7]+
000032B6  2F0C                     move.l     -[A7], A4
000032B8  4EAD 0B0A                jsr        [A5 + 0xB0A /* export_349, CODE:8 @ 00003A22 */]
000032BC  2F0C                     move.l     -[A7], A4
000032BE  4EAD 18D2                jsr        [A5 + 0x18D2 /* export_790, CODE:16 @ 0000083E */]
000032C2  285F                     movea.l    A4, [A7]+
000032C4  4E5E                     unlink     A6
000032C6  4E75                     rts
export_482:
000032C8  4E56 0000                link       A6, 0
000032CC  42A7                     clr.l      -[A7]
000032CE  4EAD 1F4A                jsr        [A5 + 0x1F4A /* export_997, CODE:19 @ 00001378 */]
000032D2  4EAD 0B1A                jsr        [A5 + 0xB1A /* export_351, CODE:8 @ 00003A68 */]
000032D6  4E5E                     unlink     A6
000032D8  4E75                     rts
export_483:
000032DA  4E56 FFF8                link       A6, -0x0008
000032DE  2F0C                     move.l     -[A7], A4
000032E0  42A7                     clr.l      -[A7]
000032E2  4267                     clr.w      -[A7]
000032E4  4EAD 08F2                jsr        [A5 + 0x8F2 /* export_282, CODE:8 @ 0000017A */]
000032E8  285F                     movea.l    A4, [A7]+
000032EA  2D4C FFFC                move.l     [A6 - 0x4], A4
000032EE  486E FFFC                pea.l      [A6 - 0x4]
000032F2  4EAD 1AB2                jsr        [A5 + 0x1AB2 /* export_850, CODE:16 @ 00001A82 */]
000032F6  4EAD 1432                jsr        [A5 + 0x1432 /* export_642, CODE:13 @ 000010F2 */]
000032FA  202E FFFC                move.l     D0, [A6 - 0x4]
000032FE  908C                     sub.l      D0, A4
00003300  2F00                     move.l     -[A7], D0
00003302  4EAD 0B1A                jsr        [A5 + 0xB1A /* export_351, CODE:8 @ 00003A68 */]
00003306  285F                     movea.l    A4, [A7]+
00003308  4E5E                     unlink     A6
0000330A  4E75                     rts
export_484:
0000330C  4E56 0000                link       A6, 0
00003310  3F3C 0005                move.w     -[A7], 0x5
00003314  4EBA E49A                jsr        [PC - 0x1B66 /* 000017B0 */]
00003318  4E5E                     unlink     A6
0000331A  4E75                     rts
export_485:
0000331C  4E56 0000                link       A6, 0
00003320  3F3C 0006                move.w     -[A7], 0x6
00003324  4EBA E48A                jsr        [PC - 0x1B76 /* 000017B0 */]
00003328  4E5E                     unlink     A6
0000332A  4E75                     rts
export_486:
0000332C  4E56 0000                link       A6, 0
00003330  3F3C 0007                move.w     -[A7], 0x7
00003334  4EBA E47A                jsr        [PC - 0x1B86 /* 000017B0 */]
00003338  4E5E                     unlink     A6
0000333A  4E75                     rts
export_487:
0000333C  4E56 FFDA                link       A6, -0x0026
00003340  48E7 0300                movem.l    -[A7], D6,D7
00003344  41EE FFE6                lea.l      A0, [A6 - 0x1A]
00003348  43FA 009C                lea.l      A1, [PC + 0x9C /* 000033E6, value 0xFFFEECB1 */]
0000334C  20D9                     move.l     [A0]+, [A1]+
0000334E  20D9                     move.l     [A0]+, [A1]+
00003350  3091                     move.w     [A0], [A1]
00003352  42A7                     clr.l      -[A7]
00003354  4EAD 147A                jsr        [A5 + 0x147A /* export_651, CODE:13 @ 000016E8 */]
00003358  201F                     move.l     D0, [A7]+
0000335A  3C00                     move.w     D6, D0
0000335C  3D46 FFE4                move.w     [A6 - 0x1C], D6
00003360  7E01                     moveq.l    D7, 0x01
00003362  606C                     bra        +0x6E /* 000033D0 */
label00003364:
00003364  486E FFF0                pea.l      [A6 - 0x10]
00003368  4EAD 1442                jsr        [A5 + 0x1442 /* export_644, CODE:13 @ 00001164 */]
0000336C  102E FFF0                move.b     D0, [A6 - 0x10]
00003370  673C                     beq        +0x3E /* 000033AE */
00003372  486E FFF2                pea.l      [A6 - 0xE]
00003376  486E FFDA                pea.l      [A6 - 0x26]
0000337A  3F3C 280E                move.w     -[A7], 0x280E
0000337E  A9EB                     syscall    Pack4/FP68K
00003380  486E FFE6                pea.l      [A6 - 0x1A]
00003384  486E FFDA                pea.l      [A6 - 0x26]
00003388  3F3C 000A                move.w     -[A7], 0xA /* '\n' */
0000338C  A9EB                     syscall    Pack4/FP68K
0000338E  6F1C                     ble        +0x1E /* 000033AC */
00003390  486E FFF2                pea.l      [A6 - 0xE]
00003394  486E FFDA                pea.l      [A6 - 0x26]
00003398  3F3C 280E                move.w     -[A7], 0x280E
0000339C  A9EB                     syscall    Pack4/FP68K
0000339E  41EE FFE6                lea.l      A0, [A6 - 0x1A]
000033A2  43EE FFDA                lea.l      A1, [A6 - 0x26]
000033A6  20D9                     move.l     [A0]+, [A1]+
000033A8  20D9                     move.l     [A0]+, [A1]+
000033AA  3091                     move.w     [A0], [A1]
label000033AC:
000033AC  601E                     bra        +0x20 /* 000033CC */
label000033AE:
000033AE  486E FFE6                pea.l      [A6 - 0x1A]
000033B2  486E FFF2                pea.l      [A6 - 0xE]
000033B6  3F3C 000A                move.w     -[A7], 0xA /* '\n' */
000033BA  A9EB                     syscall    Pack4/FP68K
000033BC  6F0E                     ble        +0x10 /* 000033CC */
000033BE  41EE FFE6                lea.l      A0, [A6 - 0x1A]
000033C2  43EE FFF2                lea.l      A1, [A6 - 0xE]
000033C6  20D9                     move.l     [A0]+, [A1]+
000033C8  20D9                     move.l     [A0]+, [A1]+
000033CA  3091                     move.w     [A0], [A1]
label000033CC:
000033CC  5247                     addq.w     D7, 1
000033CE  6906                     bvs        +0x8 /* 000033D6 */
label000033D0:
000033D0  BE6E FFE4                cmp.w      D7, [A6 - 0x1C]
000033D4  6F8E                     ble        -0x70 /* 00003364 */
label000033D6:
000033D6  486E FFE6                pea.l      [A6 - 0x1A]
000033DA  4EAD 0AFA                jsr        [A5 + 0xAFA /* export_347, CODE:8 @ 000039DE */]
000033DE  4CDF 00C0                movem.l    D6,D7, [A7]+
000033E2  4E5E                     unlink     A6
000033E4  4E75                     rts
000033E6  FFFE                     .invalid   <<F/7/7>>
000033E8  ECB1                     roxr       D1, D6
000033EA  2AED 7F58                move.l     [A5]+, [A5 + 0x7F58]
000033EE  75E3                     moveq.l    D2, 0xFFFFFFE3
export_488:
000033F0  4E56 FFDA                link       A6, -0x0026
000033F4  48E7 0300                movem.l    -[A7], D6,D7
000033F8  41EE FFE6                lea.l      A0, [A6 - 0x1A]
000033FC  43FA 009C                lea.l      A1, [PC + 0x9C /* 0000349A, value 0x7FFEECB1 */]
00003400  20D9                     move.l     [A0]+, [A1]+
00003402  20D9                     move.l     [A0]+, [A1]+
00003404  3091                     move.w     [A0], [A1]
00003406  42A7                     clr.l      -[A7]
00003408  4EAD 147A                jsr        [A5 + 0x147A /* export_651, CODE:13 @ 000016E8 */]
0000340C  201F                     move.l     D0, [A7]+
0000340E  3C00                     move.w     D6, D0
00003410  3D46 FFE4                move.w     [A6 - 0x1C], D6
00003414  7E01                     moveq.l    D7, 0x01
00003416  606C                     bra        +0x6E /* 00003484 */
label00003418:
00003418  486E FFF0                pea.l      [A6 - 0x10]
0000341C  4EAD 1442                jsr        [A5 + 0x1442 /* export_644, CODE:13 @ 00001164 */]
00003420  102E FFF0                move.b     D0, [A6 - 0x10]
00003424  673C                     beq        +0x3E /* 00003462 */
00003426  486E FFF2                pea.l      [A6 - 0xE]
0000342A  486E FFDA                pea.l      [A6 - 0x26]
0000342E  3F3C 280E                move.w     -[A7], 0x280E
00003432  A9EB                     syscall    Pack4/FP68K
00003434  486E FFE6                pea.l      [A6 - 0x1A]
00003438  486E FFDA                pea.l      [A6 - 0x26]
0000343C  3F3C 000A                move.w     -[A7], 0xA /* '\n' */
00003440  A9EB                     syscall    Pack4/FP68K
00003442  641C                     bcc        +0x1E /* 00003460 */
00003444  486E FFF2                pea.l      [A6 - 0xE]
00003448  486E FFDA                pea.l      [A6 - 0x26]
0000344C  3F3C 280E                move.w     -[A7], 0x280E
00003450  A9EB                     syscall    Pack4/FP68K
00003452  41EE FFE6                lea.l      A0, [A6 - 0x1A]
00003456  43EE FFDA                lea.l      A1, [A6 - 0x26]
0000345A  20D9                     move.l     [A0]+, [A1]+
0000345C  20D9                     move.l     [A0]+, [A1]+
0000345E  3091                     move.w     [A0], [A1]
label00003460:
00003460  601E                     bra        +0x20 /* 00003480 */
label00003462:
00003462  486E FFE6                pea.l      [A6 - 0x1A]
00003466  486E FFF2                pea.l      [A6 - 0xE]
0000346A  3F3C 000A                move.w     -[A7], 0xA /* '\n' */
0000346E  A9EB                     syscall    Pack4/FP68K
00003470  640E                     bcc        +0x10 /* 00003480 */
00003472  41EE FFE6                lea.l      A0, [A6 - 0x1A]
00003476  43EE FFF2                lea.l      A1, [A6 - 0xE]
0000347A  20D9                     move.l     [A0]+, [A1]+
0000347C  20D9                     move.l     [A0]+, [A1]+
0000347E  3091                     move.w     [A0], [A1]
label00003480:
00003480  5247                     addq.w     D7, 1
00003482  6906                     bvs        +0x8 /* 0000348A */
label00003484:
00003484  BE6E FFE4                cmp.w      D7, [A6 - 0x1C]
00003488  6F8E                     ble        -0x70 /* 00003418 */
label0000348A:
0000348A  486E FFE6                pea.l      [A6 - 0x1A]
0000348E  4EAD 0AFA                jsr        [A5 + 0xAFA /* export_347, CODE:8 @ 000039DE */]
00003492  4CDF 00C0                movem.l    D6,D7, [A7]+
00003496  4E5E                     unlink     A6
00003498  4E75                     rts
0000349A  7FFE                     moveq.l    D7, 0xFFFFFFFE
0000349C  ECB1                     roxr       D1, D6
0000349E  2AED 7F58                move.l     [A5]+, [A5 + 0x7F58]
000034A2  75E3                     moveq.l    D2, 0xFFFFFFE3
export_489:
000034A4  4E56 FFF0                link       A6, -0x0010
000034A8  426E FFF0                clr.w      [A6 - 0x10]
000034AC  2F3C 0002 0000           move.l     -[A7], 0x20000
000034B2  486E FFF0                pea.l      [A6 - 0x10]
000034B6  4EAD 03A2                jsr        [A5 + 0x3A2 /* export_112, CODE:1 @ 00004B9A */]
000034BA  4267                     clr.w      -[A7]
000034BC  A974                     syscall    Button
000034BE  101F                     move.b     D0, [A7]+
000034C0  801F                     or.b       D0, [A7]+
000034C2  1F00                     move.b     -[A7], D0
000034C4  4EAD 0AEA                jsr        [A5 + 0xAEA /* export_345, CODE:8 @ 00003994 */]
000034C8  7001                     moveq.l    D0, 0x01
000034CA  B06E FFF0                cmp.w      D0, [A6 - 0x10]
000034CE  660C                     bne        +0xE /* 000034DC */
000034D0  2B6E FFFA EFF0           move.l     [A5 - 0x1010], [A6 - 0x6]
000034D6  2B6E FFF6 EFF6           move.l     [A5 - 0x100A], [A6 - 0xA]
label000034DC:
000034DC  2F3C 0000 0006           move.l     -[A7], 0x6
000034E2  201F                     move.l     D0, [A7]+
000034E4  A032                     syscall    FlushEvents
000034E6  4E5E                     unlink     A6
000034E8  4E75                     rts
export_490:
000034EA  4E56 FFF0                link       A6, -0x0010
label000034EE:
000034EE  2F3C 0006 0000           move.l     -[A7], 0x60000
000034F4  486E FFF0                pea.l      [A6 - 0x10]
000034F8  4EAD 03A2                jsr        [A5 + 0x3A2 /* export_112, CODE:1 @ 00004B9A */]
000034FC  101F                     move.b     D0, [A7]+
000034FE  6748                     beq        +0x4A /* 00003548 */
00003500  7002                     moveq.l    D0, 0x02
00003502  B06E FFF0                cmp.w      D0, [A6 - 0x10]
00003506  660A                     bne        +0xC /* 00003512 */
00003508  2F3C 0002 0004           move.l     -[A7], 0x20004
0000350E  201F                     move.l     D0, [A7]+
00003510  A032                     syscall    FlushEvents
label00003512:
00003512  7001                     moveq.l    D0, 0x01
00003514  B06E FFF0                cmp.w      D0, [A6 - 0x10]
00003518  662C                     bne        +0x2E /* 00003546 */
0000351A  1F3C 0001                move.b     -[A7], 0x1
0000351E  4EAD 0B02                jsr        [A5 + 0xB02 /* export_348, CODE:8 @ 00003A06 */]
00003522  2B6E FFFA EFF0           move.l     [A5 - 0x1010], [A6 - 0x6]
00003528  2B6E FFF6 EFF6           move.l     [A5 - 0x100A], [A6 - 0xA]
label0000352E:
0000352E  4267                     clr.w      -[A7]
00003530  A973                     syscall    StillDown
00003532  101F                     move.b     D0, [A7]+
00003534  0A00 0001                xori.b     D0, 0x1
00003538  67F4                     beq        -0xA /* 0000352E */
0000353A  2F3C 0004 0002           move.l     -[A7], 0x40002
00003540  201F                     move.l     D0, [A7]+
00003542  A032                     syscall    FlushEvents
00003544  6008                     bra        +0xA /* 0000354E */
label00003546:
00003546  60A6                     bra        -0x58 /* 000034EE */
label00003548:
00003548  4267                     clr.w      -[A7]
0000354A  4EAD 0B02                jsr        [A5 + 0xB02 /* export_348, CODE:8 @ 00003A06 */]
label0000354E:
0000354E  4E5E                     unlink     A6
00003550  4E75                     rts
export_491:
00003552  4E56 FFFC                link       A6, -0x0004
00003556  2F2D EDC8                move.l     -[A7], [A5 - 0x1238]
0000355A  A873                     syscall    SetPort
0000355C  486E FFFC                pea.l      [A6 - 0x4]
00003560  A972                     syscall    GetMouse
00003562  302E FFFE                move.w     D0, [A6 - 0x2]
00003566  48C0                     ext.l      D0
00003568  2F00                     move.l     -[A7], D0
0000356A  4EAD 0B12                jsr        [A5 + 0xB12 /* export_350, CODE:8 @ 00003A4E */]
0000356E  4E5E                     unlink     A6
00003570  4E75                     rts
export_492:
00003572  4E56 FFAC                link       A6, -0x0054
00003576  2F2D EDC8                move.l     -[A7], [A5 - 0x1238]
0000357A  A873                     syscall    SetPort
0000357C  486E FFFC                pea.l      [A6 - 0x4]
00003580  A972                     syscall    GetMouse
00003582  486E FFC0                pea.l      [A6 - 0x40]
00003586  302E FFFE                move.w     D0, [A6 - 0x2]
0000358A  48C0                     ext.l      D0
0000358C  2F00                     move.l     -[A7], D0
0000358E  4EAD 1902                jsr        [A5 + 0x1902 /* export_796, CODE:16 @ 000009D4 */]
00003592  487A 002A                pea.l      [PC + 0x2A /* 000035BE, value 0x12C4E56 */]
00003596  486E FFAC                pea.l      [A6 - 0x54]
0000359A  302E FFFC                move.w     D0, [A6 - 0x4]
0000359E  48C0                     ext.l      D0
000035A0  2F00                     move.l     -[A7], D0
000035A2  4EAD 1902                jsr        [A5 + 0x1902 /* export_796, CODE:16 @ 000009D4 */]
000035A6  486E FFD4                pea.l      [A6 - 0x2C]
000035AA  3F3C 0003                move.w     -[A7], 0x3
000035AE  4EAD 050A                jsr        [A5 + 0x50A /* export_157, CODE:1 @ 0000531E */]
000035B2  486E FFD4                pea.l      [A6 - 0x2C]
000035B6  4EAD 0B2A                jsr        [A5 + 0xB2A /* export_353, CODE:8 @ 00003ACC */]
000035BA  4E5E                     unlink     A6
000035BC  4E75                     rts
000035BE  012C 4E56                btst       [A4 + 0x4E56], D0
// begin alternate branch 000035C0-000035C4
export_493:
000035C0  4E56 FFFC                link       A6, -0x0004
// end alternate branch 000035C0-000035C4
export_493: // at 000035C0 (misaligned)
000035C2  FFFC                     .invalid   <<F/7/7>>
000035C4  2F2D EDC8                move.l     -[A7], [A5 - 0x1238]
000035C8  A873                     syscall    SetPort
000035CA  486E FFFC                pea.l      [A6 - 0x4]
000035CE  A972                     syscall    GetMouse
000035D0  302E FFFC                move.w     D0, [A6 - 0x4]
000035D4  48C0                     ext.l      D0
000035D6  2F00                     move.l     -[A7], D0
000035D8  4EAD 0B12                jsr        [A5 + 0xB12 /* export_350, CODE:8 @ 00003A4E */]
000035DC  4E5E                     unlink     A6
000035DE  4E75                     rts
export_494:
000035E0  4E56 FDFA                link       A6, -0x0206
000035E4  48E7 0718                movem.l    -[A7], D5,D6,D7,A3,A4
000035E8  4267                     clr.w      -[A7]
000035EA  4EAD 08FA                jsr        [A5 + 0x8FA /* export_283, CODE:8 @ 000001A4 */]
000035EE  301F                     move.w     D0, [A7]+
000035F0  5340                     subq.w     D0, 1
000035F2  6B00 0224                bmi        +0x226 /* 00003818 */
000035F6  0C40 0006                cmpi.w     D0, 0x6
000035FA  6E00 021C                bgt        +0x21E /* 00003818 */
000035FE  D040                     add.w      D0, D0
00003600  303B 0006                move.w     D0, [PC + D0.w + 0x6]
00003604  4EFB 0000                jmp        [PC + D0.w]
00003608  0010 001C                ori.b      [A0], 0x1C
0000360C  0028 0212 009C           ori.b      [A0 + 0x9C], 0x12
00003612  011E                     btst       [A6]+, D0
00003614  01AA 2E2D                bclr       [A2 + 0x2E2D], D0
00003618  F668 4EAD                .extension 0x668 <<F/1/3>>, 0x4EAD // unimplemented
0000361C  1432 6000                move.b     D2, [A2 + D6.w]
00003620  01F8                     .incomplete
00003622  2E2D F660                move.l     D7, [A5 - 0x9A0]
00003626  4EAD 1432                jsr        [A5 + 0x1432 /* export_642, CODE:13 @ 000010F2 */]
0000362A  6000 01EC                bra        +0x1EE /* 00003818 */
0000362E  42A7                     clr.l      -[A7]
00003630  4EAD 1462                jsr        [A5 + 0x1462 /* export_648, CODE:13 @ 000015F4 */]
00003634  201F                     move.l     D0, [A7]+
00003636  5340                     subq.w     D0, 1
00003638  670E                     beq        +0x10 /* 00003648 */
0000363A  5340                     subq.w     D0, 1
0000363C  6720                     beq        +0x22 /* 0000365E */
0000363E  5340                     subq.w     D0, 1
00003640  6732                     beq        +0x34 /* 00003674 */
00003642  5340                     subq.w     D0, 1
00003644  6744                     beq        +0x46 /* 0000368A */
00003646  6056                     bra        +0x58 /* 0000369E */
label00003648:
00003648  4267                     clr.w      -[A7]
0000364A  2F2D F62A                move.l     -[A7], [A5 - 0x9D6]
0000364E  3F3C 0001                move.w     -[A7], 0x1
00003652  4EAD 1D32                jsr        [A5 + 0x1D32 /* export_930, CODE:18 @ 0000012E */]
00003656  301F                     move.w     D0, [A7]+
00003658  48C0                     ext.l      D0
0000365A  2E00                     move.l     D7, D0
0000365C  6040                     bra        +0x42 /* 0000369E */
label0000365E:
0000365E  4267                     clr.w      -[A7]
00003660  2F2D F622                move.l     -[A7], [A5 - 0x9DE]
00003664  3F3C 0001                move.w     -[A7], 0x1
00003668  4EAD 1D32                jsr        [A5 + 0x1D32 /* export_930, CODE:18 @ 0000012E */]
0000366C  301F                     move.w     D0, [A7]+
0000366E  48C0                     ext.l      D0
00003670  2E00                     move.l     D7, D0
00003672  602A                     bra        +0x2C /* 0000369E */
label00003674:
00003674  4267                     clr.w      -[A7]
00003676  2F2D F62A                move.l     -[A7], [A5 - 0x9D6]
0000367A  3F3C 0002                move.w     -[A7], 0x2
0000367E  4EAD 1D32                jsr        [A5 + 0x1D32 /* export_930, CODE:18 @ 0000012E */]
00003682  301F                     move.w     D0, [A7]+
00003684  48C0                     ext.l      D0
00003686  2E00                     move.l     D7, D0
00003688  6014                     bra        +0x16 /* 0000369E */
label0000368A:
0000368A  4267                     clr.w      -[A7]
0000368C  2F2D F622                move.l     -[A7], [A5 - 0x9DE]
00003690  3F3C 0002                move.w     -[A7], 0x2
00003694  4EAD 1D32                jsr        [A5 + 0x1D32 /* export_930, CODE:18 @ 0000012E */]
00003698  301F                     move.w     D0, [A7]+
0000369A  48C0                     ext.l      D0
0000369C  2E00                     move.l     D7, D0
label0000369E:
0000369E  6000 0178                bra        +0x17A /* 00003818 */
000036A2  42A7                     clr.l      -[A7]
000036A4  1F3C 0013                move.b     -[A7], 0x13
000036A8  4EAD 0902                jsr        [A5 + 0x902 /* export_284, CODE:8 @ 000001C0 */]
000036AC  265F                     movea.l    A3, [A7]+
000036AE  2C13                     move.l     D6, [A3]
000036B0  42A7                     clr.l      -[A7]
000036B2  4267                     clr.w      -[A7]
000036B4  4EAD 08F2                jsr        [A5 + 0x8F2 /* export_282, CODE:8 @ 0000017A */]
000036B8  285F                     movea.l    A4, [A7]+
000036BA  2D4C FEF0                move.l     [A6 - 0x110], A4
000036BE  486E FEF0                pea.l      [A6 - 0x110]
000036C2  4EAD 1AB2                jsr        [A5 + 0x1AB2 /* export_850, CODE:16 @ 00001A82 */]
000036C6  3006                     move.w     D0, D6
000036C8  5340                     subq.w     D0, 1
000036CA  670E                     beq        +0x10 /* 000036DA */
000036CC  5340                     subq.w     D0, 1
000036CE  671A                     beq        +0x1C /* 000036EA */
000036D0  5340                     subq.w     D0, 1
000036D2  6726                     beq        +0x28 /* 000036FA */
000036D4  5340                     subq.w     D0, 1
000036D6  6732                     beq        +0x34 /* 0000370A */
000036D8  603E                     bra        +0x40 /* 00003718 */
label000036DA:
000036DA  42A7                     clr.l      -[A7]
000036DC  2F0C                     move.l     -[A7], A4
000036DE  2F2E FEF0                move.l     -[A7], [A6 - 0x110]
000036E2  4EAD 0992                jsr        [A5 + 0x992 /* export_302, CODE:8 @ 00000B74 */]
000036E6  2E1F                     move.l     D7, [A7]+
000036E8  602E                     bra        +0x30 /* 00003718 */
label000036EA:
000036EA  42A7                     clr.l      -[A7]
000036EC  2F0C                     move.l     -[A7], A4
000036EE  2F2E FEF0                move.l     -[A7], [A6 - 0x110]
000036F2  4EAD 09AA                jsr        [A5 + 0x9AA /* export_305, CODE:8 @ 00000C52 */]
000036F6  2E1F                     move.l     D7, [A7]+
000036F8  601E                     bra        +0x20 /* 00003718 */
label000036FA:
000036FA  42A7                     clr.l      -[A7]
000036FC  2F0C                     move.l     -[A7], A4
000036FE  2F2E FEF0                move.l     -[A7], [A6 - 0x110]
00003702  4EAD 09A2                jsr        [A5 + 0x9A2 /* export_304, CODE:8 @ 00000C22 */]
00003706  2E1F                     move.l     D7, [A7]+
00003708  600E                     bra        +0x10 /* 00003718 */
label0000370A:
0000370A  42A7                     clr.l      -[A7]
0000370C  2F0C                     move.l     -[A7], A4
0000370E  2F2E FEF0                move.l     -[A7], [A6 - 0x110]
00003712  4EAD 099A                jsr        [A5 + 0x99A /* export_303, CODE:8 @ 00000BE6 */]
00003716  2E1F                     move.l     D7, [A7]+
label00003718:
00003718  4EAD 1432                jsr        [A5 + 0x1432 /* export_642, CODE:13 @ 000010F2 */]
0000371C  4EAD 1432                jsr        [A5 + 0x1432 /* export_642, CODE:13 @ 000010F2 */]
00003720  6000 00F6                bra        +0xF8 /* 00003818 */
00003724  486E FED4                pea.l      [A6 - 0x12C]
00003728  7018                     moveq.l    D0, 0x18
0000372A  2F00                     move.l     -[A7], D0
0000372C  1F3C 000F                move.b     -[A7], 0xF
00003730  4EAD 146A                jsr        [A5 + 0x146A /* export_649, CODE:13 @ 00001620 */]
00003734  4267                     clr.w      -[A7]
00003736  2F2E FED6                move.l     -[A7], [A6 - 0x12A]
0000373A  4EAD 0AB2                jsr        [A5 + 0xAB2 /* export_338, CODE:8 @ 00003614 */]
0000373E  101F                     move.b     D0, [A7]+
00003740  676C                     beq        +0x6E /* 000037AE */
00003742  102E FED4                move.b     D0, [A6 - 0x12C]
00003746  4880                     ext.w      D0
00003748  5340                     subq.w     D0, 1
0000374A  670A                     beq        +0xC /* 00003756 */
0000374C  5340                     subq.w     D0, 1
0000374E  6732                     beq        +0x34 /* 00003782 */
00003750  5340                     subq.w     D0, 1
00003752  6740                     beq        +0x42 /* 00003794 */
00003754  604C                     bra        +0x4E /* 000037A2 */
label00003756:
00003756  4267                     clr.w      -[A7]
00003758  2F2E FEE4                move.l     -[A7], [A6 - 0x11C]
0000375C  3F2E FEE2                move.w     -[A7], [A6 - 0x11E]
00003760  486E FEB6                pea.l      [A6 - 0x14A]
00003764  4EAD 1DB2                jsr        [A5 + 0x1DB2 /* export_946, CODE:18 @ 00000D08 */]
00003768  101F                     move.b     D0, [A7]+
0000376A  6714                     beq        +0x16 /* 00003780 */
0000376C  4267                     clr.w      -[A7]
0000376E  2F2E FEE4                move.l     -[A7], [A6 - 0x11C]
00003772  3F2E FEE2                move.w     -[A7], [A6 - 0x11E]
00003776  4EAD 1DCA                jsr        [A5 + 0x1DCA /* export_949, CODE:18 @ 00000E6C */]
0000377A  301F                     move.w     D0, [A7]+
0000377C  48C0                     ext.l      D0
0000377E  2E00                     move.l     D7, D0
label00003780:
00003780  6028                     bra        +0x2A /* 000037AA */
label00003782:
00003782  42A7                     clr.l      -[A7]
00003784  2F2D F670                move.l     -[A7], [A5 - 0x990]
00003788  2F2E FEDE                move.l     -[A7], [A6 - 0x122]
0000378C  4EAD 1E3A                jsr        [A5 + 0x1E3A /* export_963, CODE:18 @ 000024B8 */]
00003790  2E1F                     move.l     D7, [A7]+
00003792  6016                     bra        +0x18 /* 000037AA */
label00003794:
00003794  42A7                     clr.l      -[A7]
00003796  2F2E FEDA                move.l     -[A7], [A6 - 0x126]
0000379A  4EAD 1D7A                jsr        [A5 + 0x1D7A /* export_939, CODE:18 @ 000009B2 */]
0000379E  2E1F                     move.l     D7, [A7]+
000037A0  6008                     bra        +0xA /* 000037AA */
label000037A2:
000037A2  3F3C 003B                move.w     -[A7], 0x3B /* ';' */
000037A6  4EAD 098A                jsr        [A5 + 0x98A /* export_301, CODE:8 @ 00000B58 */]
label000037AA:
000037AA  4EAD 0C9A                jsr        [A5 + 0xC9A /* export_399, CODE:8 @ 00004E2E */]
label000037AE:
000037AE  6068                     bra        +0x6A /* 00003818 */
000037B0  486E FE5A                pea.l      [A6 - 0x1A6]
000037B4  4EAD 179A                jsr        [A5 + 0x179A /* export_751, CODE:15 @ 000063EC */]
000037B8  486E FE86                pea.l      [A6 - 0x17A]
000037BC  702C                     moveq.l    D0, 0x2C
000037BE  2F00                     move.l     -[A7], D0
000037C0  1F3C 0001                move.b     -[A7], 0x1
000037C4  4EAD 146A                jsr        [A5 + 0x146A /* export_649, CODE:13 @ 00001620 */]
000037C8  1D7C 0005 FE5A           move.b     [A6 - 0x1A6], 0x5
000037CE  4EAD 1432                jsr        [A5 + 0x1432 /* export_642, CODE:13 @ 000010F2 */]
000037D2  486E FDFE                pea.l      [A6 - 0x202]
000037D6  4EAD 179A                jsr        [A5 + 0x179A /* export_751, CODE:15 @ 000063EC */]
000037DA  4267                     clr.w      -[A7]
000037DC  486E FE5A                pea.l      [A6 - 0x1A6]
000037E0  4EAD 2042                jsr        [A5 + 0x2042 /* export_1028, CODE:20 @ 00000472 */]
000037E4  101F                     move.b     D0, [A7]+
000037E6  6720                     beq        +0x22 /* 00003808 */
000037E8  42A7                     clr.l      -[A7]
000037EA  2F2D F622                move.l     -[A7], [A5 - 0x9DE]
000037EE  4EAD 1F6A                jsr        [A5 + 0x1F6A /* export_1001, CODE:19 @ 000016EC */]
000037F2  2A1F                     move.l     D5, [A7]+
000037F4  2045                     movea.l    A0, D5
000037F6  2050                     movea.l    A0, [A0]
000037F8  2E28 0014                move.l     D7, [A0 + 0x14]
000037FC  2F2D F622                move.l     -[A7], [A5 - 0x9DE]
00003800  4267                     clr.w      -[A7]
00003802  4EAD 1EE2                jsr        [A5 + 0x1EE2 /* export_984, CODE:19 @ 00000414 */]
00003806  6002                     bra        +0x4 /* 0000380A */
label00003808:
00003808  7E00                     moveq.l    D7, 0x00
label0000380A:
0000380A  4267                     clr.w      -[A7]
0000380C  486E FDFE                pea.l      [A6 - 0x202]
00003810  4EAD 2042                jsr        [A5 + 0x2042 /* export_1028, CODE:20 @ 00000472 */]
00003814  1B5F A4F7                move.b     [A5 - 0x5B09], [A7]+
label00003818:
00003818  2F07                     move.l     -[A7], D7
0000381A  4EAD 0B1A                jsr        [A5 + 0xB1A /* export_351, CODE:8 @ 00003A68 */]
0000381E  4CDF 18E0                movem.l    D5,D6,D7,A3,A4, [A7]+
00003822  4E5E                     unlink     A6
00003824  4E75                     rts
export_495:
00003826  4E56 FF00                link       A6, -0x0100
0000382A  1D7C 0001 FF00           move.b     [A6 - 0x100], 0x1
00003830  42A7                     clr.l      -[A7]
00003832  4EAD 147A                jsr        [A5 + 0x147A /* export_651, CODE:13 @ 000016E8 */]
00003836  201F                     move.l     D0, [A7]+
00003838  1D40 FF01                move.b     [A6 - 0xFF], D0
0000383C  486E FF00                pea.l      [A6 - 0x100]
00003840  4EAD 0B22                jsr        [A5 + 0xB22 /* export_352, CODE:8 @ 00003A82 */]
00003844  4E5E                     unlink     A6
00003846  4E75                     rts
export_496:
00003848  4E56 FFF4                link       A6, -0x000C
0000384C  48E7 0118                movem.l    -[A7], D7,A3,A4
00003850  42A7                     clr.l      -[A7]
00003852  4267                     clr.w      -[A7]
00003854  4EAD 0902                jsr        [A5 + 0x902 /* export_284, CODE:8 @ 000001C0 */]
00003858  2E1F                     move.l     D7, [A7]+
0000385A  42A7                     clr.l      -[A7]
0000385C  4267                     clr.w      -[A7]
0000385E  4EAD 08F2                jsr        [A5 + 0x8F2 /* export_282, CODE:8 @ 0000017A */]
00003862  285F                     movea.l    A4, [A7]+
00003864  42A7                     clr.l      -[A7]
00003866  2F07                     move.l     -[A7], D7
00003868  2F0C                     move.l     -[A7], A4
0000386A  4EAD 1AEA                jsr        [A5 + 0x1AEA /* export_857, CODE:16 @ 00001C7C */]
0000386E  265F                     movea.l    A3, [A7]+
00003870  4EAD 1432                jsr        [A5 + 0x1432 /* export_642, CODE:13 @ 000010F2 */]
00003874  4EAD 1432                jsr        [A5 + 0x1432 /* export_642, CODE:13 @ 000010F2 */]
00003878  200B                     move.l     D0, A3
0000387A  660A                     bne        +0xC /* 00003886 */
0000387C  487A 001C                pea.l      [PC + 0x1C /* 0000389A, value 0x1304E56 */]
00003880  4EAD 0B2A                jsr        [A5 + 0xB2A /* export_353, CODE:8 @ 00003ACC */]
00003884  600C                     bra        +0xE /* 00003892 */
label00003886:
00003886  200B                     move.l     D0, A3
00003888  908C                     sub.l      D0, A4
0000388A  5280                     addq.l     D0, 1
0000388C  2F00                     move.l     -[A7], D0
0000388E  4EAD 0B1A                jsr        [A5 + 0xB1A /* export_351, CODE:8 @ 00003A68 */]
label00003892:
00003892  4CDF 1880                movem.l    D7,A3,A4, [A7]+
00003896  4E5E                     unlink     A6
00003898  4E75                     rts
0000389A  0130 4E56                btst       [A0 + D4 * 8 + 0x56], D0
// begin alternate branch 0000389C-000038A0
export_497:
0000389C  4E56 FFF0                link       A6, -0x0010
// end alternate branch 0000389C-000038A0
export_497: // at 0000389C (misaligned)
0000389E  FFF0                     .invalid   <<F/7/7>>
000038A0  486E FFF0                pea.l      [A6 - 0x10]
000038A4  A976                     syscall    GetKeys
000038A6  703A                     moveq.l    D0, 0x3A
000038A8  3200                     move.w     D1, D0
000038AA  E641                     asr        D1.w, 3
000038AC  0136 10F0                btst       [A6 + D1.w - 0x10], D0
000038B0  56C0                     sne        D0
000038B2  0240 0001                andi.w     D0, 0x1
000038B6  1F00                     move.b     -[A7], D0
000038B8  4EAD 0AEA                jsr        [A5 + 0xAEA /* export_345, CODE:8 @ 00003994 */]
000038BC  4E5E                     unlink     A6
000038BE  4E75                     rts
export_498:
fn000038C0:
000038C0  4E56 FEFE                link       A6, -0x0102
000038C4  2F07                     move.l     -[A7], D7
000038C6  42A7                     clr.l      -[A7]
000038C8  4EAD 147A                jsr        [A5 + 0x147A /* export_651, CODE:13 @ 000016E8 */]
000038CC  201F                     move.l     D0, [A7]+
000038CE  3E00                     move.w     D7, D0
000038D0  41ED 9A82                lea.l      A0, [A5 - 0x657E]
000038D4  B1ED A80C                cmpa.l     A0, [A5 - 0x57F4]
000038D8  57C0                     seq        D0
000038DA  206D A80C                movea.l    A0, [A5 - 0x57F4]
000038DE  BE68 001E                cmp.w      D7, [A0 + 0x1E]
000038E2  5EC1                     sgt        D1
000038E4  8001                     or.b       D0, D1
000038E6  6706                     beq        +0x8 /* 000038EE */
000038E8  4EAD 0AF2                jsr        [A5 + 0xAF2 /* export_346, CODE:8 @ 000039C4 */]
000038EC  6026                     bra        +0x28 /* 00003914 */
label000038EE:
000038EE  4A47                     tst.w      D7
000038F0  6618                     bne        +0x1A /* 0000390A */
000038F2  206D A80C                movea.l    A0, [A5 - 0x57F4]
000038F6  2F10                     move.l     -[A7], [A0]
000038F8  486E FEFE                pea.l      [A6 - 0x102]
000038FC  4EAD 09FA                jsr        [A5 + 0x9FA /* export_315, CODE:8 @ 0000125A */]
00003900  486E FEFE                pea.l      [A6 - 0x102]
00003904  4EAD 0B22                jsr        [A5 + 0xB22 /* export_352, CODE:8 @ 00003A82 */]
00003908  600A                     bra        +0xC /* 00003914 */
label0000390A:
0000390A  2F2D D466                move.l     -[A7], [A5 - 0x2B9A]
0000390E  3F07                     move.w     -[A7], D7
00003910  4EAD 0CBA                jsr        [A5 + 0xCBA /* export_403, CODE:8 @ 00005062 */]
label00003914:
00003914  2E1F                     move.l     D7, [A7]+
00003916  4E5E                     unlink     A6
00003918  4E75                     rts
export_499:
0000391A  4E56 0000                link       A6, 0
0000391E  206D A80C                movea.l    A0, [A5 - 0x57F4]
00003922  3028 001E                move.w     D0, [A0 + 0x1E]
00003926  48C0                     ext.l      D0
00003928  2F00                     move.l     -[A7], D0
0000392A  4EAD 0B1A                jsr        [A5 + 0xB1A /* export_351, CODE:8 @ 00003A68 */]
0000392E  4E5E                     unlink     A6
00003930  4E75                     rts
fn00003932:
00003932  4E56 FF00                link       A6, -0x0100
00003936  206E 000C                movea.l    A0, [A6 + 0xC]
0000393A  43EE FF00                lea.l      A1, [A6 - 0x100]
0000393E  703F                     moveq.l    D0, 0x3F
label00003940:
00003940  22D8                     move.l     [A1]+, [A0]+
00003942  51C8 FFFC                dbf        D0, -0x6 /* 00003940 */
00003946  486E FF00                pea.l      [A6 - 0x100]
0000394A  4EAD 0B22                jsr        [A5 + 0xB22 /* export_352, CODE:8 @ 00003A82 */]
0000394E  4EAD 10D2                jsr        [A5 + 0x10D2 /* export_534, CODE:10 @ 00000000 */]
00003952  4E5E                     unlink     A6
00003954  205F                     movea.l    A0, [A7]+
00003956  504F                     addq.w     A7, 8
00003958  4ED0                     jmp        [A0]
export_500:
0000395A  4E56 FEFA                link       A6, -0x0106
0000395E  48E7 0308                movem.l    -[A7], D6,D7,A4
00003962  286D A80C                movea.l    A4, [A5 - 0x57F4]
00003966  42A7                     clr.l      -[A7]
00003968  4EAD 0B1A                jsr        [A5 + 0xB1A /* export_351, CODE:8 @ 00003A68 */]
0000396C  4EBA FF52                jsr        [PC - 0xAE /* 000038C0 */]
00003970  102C 0038                move.b     D0, [A4 + 0x38]
00003974  670C                     beq        +0xE /* 00003982 */
00003976  487A 00D6                pea.l      [PC + 0xD6 /* 00003A4E, value 0x1284E56 */]
0000397A  2F0E                     move.l     -[A7], A6
0000397C  4EBA FFB4                jsr        [PC - 0x4C /* 00003932 */]
00003980  6010                     bra        +0x12 /* 00003992 */
label00003982:
00003982  4A6C 001E                tst.w      [A4 + 0x1E]
00003986  6F0A                     ble        +0xC /* 00003992 */
00003988  487A 00C0                pea.l      [PC + 0xC0 /* 00003A4A, value 0x1200122 */]
0000398C  2F0E                     move.l     -[A7], A6
0000398E  4EBA FFA2                jsr        [PC - 0x5E /* 00003932 */]
label00003992:
00003992  3D6C 001E FEFA           move.w     [A6 - 0x106], [A4 + 0x1E]
00003998  7E01                     moveq.l    D7, 0x01
0000399A  6000 008A                bra        +0x8C /* 00003A26 */
label0000399E:
0000399E  3007                     move.w     D0, D7
000039A0  48C0                     ext.l      D0
000039A2  2F00                     move.l     -[A7], D0
000039A4  4EAD 0B1A                jsr        [A5 + 0xB1A /* export_351, CODE:8 @ 00003A68 */]
000039A8  4EBA FF16                jsr        [PC - 0xEA /* 000038C0 */]
000039AC  302D B978                move.w     D0, [A5 - 0x4688]
000039B0  5340                     subq.w     D0, 1
000039B2  41ED B678                lea.l      A0, [A5 - 0x4988]
000039B6  4A30 0000                tst.b      [A0 + D0.w]
000039BA  57C0                     seq        D0
000039BC  122C 0050                move.b     D1, [A4 + 0x50]
000039C0  0A01 0001                xori.b     D1, 0x1
000039C4  8001                     or.b       D0, D1
000039C6  0240 0001                andi.w     D0, 0x1
000039CA  1C00                     move.b     D6, D0
000039CC  4EAD 1192                jsr        [A5 + 0x1192 /* export_558, CODE:10 @ 00001268 */]
000039D0  1006                     move.b     D0, D6
000039D2  6728                     beq        +0x2A /* 000039FC */
000039D4  486D A4F8                pea.l      [A5 - 0x5B08]
000039D8  4EAD 1482                jsr        [A5 + 0x1482 /* export_652, CODE:13 @ 00001714 */]
000039DC  487A 006E                pea.l      [PC + 0x6E /* 00003A4C, value 0x1220128 */]
000039E0  486D A4F8                pea.l      [A5 - 0x5B08]
000039E4  487A 0066                pea.l      [PC + 0x66 /* 00003A4C, value 0x1220128 */]
000039E8  486E FEFC                pea.l      [A6 - 0x104]
000039EC  3F3C 0003                move.w     -[A7], 0x3
000039F0  4EAD 050A                jsr        [A5 + 0x50A /* export_157, CODE:1 @ 0000531E */]
000039F4  486E FEFC                pea.l      [A6 - 0x104]
000039F8  4EAD 0B2A                jsr        [A5 + 0xB2A /* export_353, CODE:8 @ 00003ACC */]
label000039FC:
000039FC  4EAD 10D2                jsr        [A5 + 0x10D2 /* export_534, CODE:10 @ 00000000 */]
00003A00  BE6C 001E                cmp.w      D7, [A4 + 0x1E]
00003A04  6C1C                     bge        +0x1E /* 00003A22 */
00003A06  102C 0050                move.b     D0, [A4 + 0x50]
00003A0A  670C                     beq        +0xE /* 00003A18 */
00003A0C  487A 003C                pea.l      [PC + 0x3C /* 00003A4A, value 0x1200122 */]
00003A10  2F0E                     move.l     -[A7], A6
00003A12  4EBA FF1E                jsr        [PC - 0xE2 /* 00003932 */]
00003A16  600A                     bra        +0xC /* 00003A22 */
label00003A18:
00003A18  487A 002E                pea.l      [PC + 0x2E /* 00003A48, value 0x12C0120 */]
00003A1C  2F0E                     move.l     -[A7], A6
00003A1E  4EBA FF12                jsr        [PC - 0xEE /* 00003932 */]
label00003A22:
00003A22  5247                     addq.w     D7, 1
00003A24  6908                     bvs        +0xA /* 00003A2E */
label00003A26:
00003A26  BE6E FEFA                cmp.w      D7, [A6 - 0x106]
00003A2A  6F00 FF72                ble        -0x8C /* 0000399E */
label00003A2E:
00003A2E  102C 0038                move.b     D0, [A4 + 0x38]
00003A32  670A                     beq        +0xC /* 00003A3E */
00003A34  487A 0010                pea.l      [PC + 0x10 /* 00003A46, value 0x129012C */]
00003A38  2F0E                     move.l     -[A7], A6
00003A3A  4EBA FEF6                jsr        [PC - 0x10A /* 00003932 */]
label00003A3E:
00003A3E  4CDF 10C0                movem.l    D6,D7,A4, [A7]+
00003A42  4E5E                     unlink     A6
00003A44  4E75                     rts
00003A46  0129 012C                btst       [A1 + 0x12C], D0
00003A4A  0120                     btst       -[A0], D0
00003A4C  0122                     btst       -[A2], D0
00003A4E  0128 4E56                btst       [A0 + 0x4E56], D0
// begin alternate branch 00003A50-00003A54
export_501:
00003A50  4E56 FFFC                link       A6, -0x0004
// end alternate branch 00003A50-00003A54
export_501: // at 00003A50 (misaligned)
00003A52  FFFC                     .invalid   <<F/7/7>>
00003A54  2F07                     move.l     -[A7], D7
00003A56  42A7                     clr.l      -[A7]
00003A58  4EAD 147A                jsr        [A5 + 0x147A /* export_651, CODE:13 @ 000016E8 */]
00003A5C  2E1F                     move.l     D7, [A7]+
00003A5E  7001                     moveq.l    D0, 0x01
00003A60  B087                     cmp.l      D0, D7
00003A62  6D0A                     blt        +0xC /* 00003A6E */
00003A64  7001                     moveq.l    D0, 0x01
00003A66  2F00                     move.l     -[A7], D0
00003A68  4EAD 0B1A                jsr        [A5 + 0xB1A /* export_351, CODE:8 @ 00003A68 */]
00003A6C  601E                     bra        +0x20 /* 00003A8C */
label00003A6E:
00003A6E  4267                     clr.w      -[A7]
00003A70  A861                     syscall    Random
00003A72  301F                     move.w     D0, [A7]+
00003A74  6A02                     bpl        +0x4 /* 00003A78 */
00003A76  4440                     neg.w      D0
label00003A78:
00003A78  48C0                     ext.l      D0
00003A7A  2F00                     move.l     -[A7], D0
00003A7C  2F07                     move.l     -[A7], D7
00003A7E  4EAD 04FA                jsr        [A5 + 0x4FA /* export_155, CODE:1 @ 0000524A */]
00003A82  201F                     move.l     D0, [A7]+
00003A84  5280                     addq.l     D0, 1
00003A86  2F00                     move.l     -[A7], D0
00003A88  4EAD 0B1A                jsr        [A5 + 0xB1A /* export_351, CODE:8 @ 00003A68 */]
label00003A8C:
00003A8C  2E1F                     move.l     D7, [A7]+
00003A8E  4E5E                     unlink     A6
00003A90  4E75                     rts
export_502:
00003A92  4E56 0000                link       A6, 0
00003A96  2F2D B534                move.l     -[A7], [A5 - 0x4ACC]
00003A9A  4EAD 0B0A                jsr        [A5 + 0xB0A /* export_349, CODE:8 @ 00003A22 */]
00003A9E  4E5E                     unlink     A6
00003AA0  4E75                     rts
export_503:
00003AA2  4E56 FFF4                link       A6, -0x000C
00003AA6  4267                     clr.w      -[A7]
00003AA8  4EAD 053A                jsr        [A5 + 0x53A /* export_163, CODE:2 @ 00000088 */]
00003AAC  1D5F FFFF                move.b     [A6 - 0x1], [A7]+
00003AB0  4267                     clr.w      -[A7]
00003AB2  4EAD 0542                jsr        [A5 + 0x542 /* export_164, CODE:2 @ 00000052 */]
00003AB6  486E FFF4                pea.l      [A6 - 0xC]
00003ABA  4EAD 1452                jsr        [A5 + 0x1452 /* export_646, CODE:13 @ 00001556 */]
00003ABE  42A7                     clr.l      -[A7]
00003AC0  486E FFF4                pea.l      [A6 - 0xC]
00003AC4  4EAD 056A                jsr        [A5 + 0x56A /* export_169, CODE:2 @ 0000019E */]
00003AC8  4EAD 0B12                jsr        [A5 + 0xB12 /* export_350, CODE:8 @ 00003A4E */]
00003ACC  1F2E FFFF                move.b     -[A7], [A6 - 0x1]
00003AD0  4EAD 0542                jsr        [A5 + 0x542 /* export_164, CODE:2 @ 00000052 */]
00003AD4  4E5E                     unlink     A6
00003AD6  4E75                     rts
export_504:
00003AD8  4E56 FF60                link       A6, -0x00A0
00003ADC  486E FF9C                pea.l      [A6 - 0x64]
00003AE0  302D FE36                move.w     D0, [A5 - 0x1CA]
00003AE4  48C0                     ext.l      D0
00003AE6  2F00                     move.l     -[A7], D0
00003AE8  4EAD 1902                jsr        [A5 + 0x1902 /* export_796, CODE:16 @ 000009D4 */]
00003AEC  487A 0052                pea.l      [PC + 0x52 /* 00003B40, value 0x12C4E56 */]
00003AF0  486E FF88                pea.l      [A6 - 0x78]
00003AF4  302D FE34                move.w     D0, [A5 - 0x1CC]
00003AF8  48C0                     ext.l      D0
00003AFA  2F00                     move.l     -[A7], D0
00003AFC  4EAD 1902                jsr        [A5 + 0x1902 /* export_796, CODE:16 @ 000009D4 */]
00003B00  487A 003E                pea.l      [PC + 0x3E /* 00003B40, value 0x12C4E56 */]
00003B04  486E FF74                pea.l      [A6 - 0x8C]
00003B08  302D FE3A                move.w     D0, [A5 - 0x1C6]
00003B0C  48C0                     ext.l      D0
00003B0E  2F00                     move.l     -[A7], D0
00003B10  4EAD 1902                jsr        [A5 + 0x1902 /* export_796, CODE:16 @ 000009D4 */]
00003B14  487A 002A                pea.l      [PC + 0x2A /* 00003B40, value 0x12C4E56 */]
00003B18  486E FF60                pea.l      [A6 - 0xA0]
00003B1C  302D FE38                move.w     D0, [A5 - 0x1C8]
00003B20  48C0                     ext.l      D0
00003B22  2F00                     move.l     -[A7], D0
00003B24  4EAD 1902                jsr        [A5 + 0x1902 /* export_796, CODE:16 @ 000009D4 */]
00003B28  486E FFB0                pea.l      [A6 - 0x50]
00003B2C  3F3C 0007                move.w     -[A7], 0x7
00003B30  4EAD 050A                jsr        [A5 + 0x50A /* export_157, CODE:1 @ 0000531E */]
00003B34  486E FFB0                pea.l      [A6 - 0x50]
00003B38  4EAD 0B2A                jsr        [A5 + 0xB2A /* export_353, CODE:8 @ 00003ACC */]
00003B3C  4E5E                     unlink     A6
00003B3E  4E75                     rts
00003B40  012C 4E56                btst       [A4 + 0x4E56], D0
// begin alternate branch 00003B42-00003B46
export_505:
00003B42  4E56 FFFA                link       A6, -0x0006
// end alternate branch 00003B42-00003B46
export_505: // at 00003B42 (misaligned)
00003B44  FFFA                     .invalid   <<F/7/7>>
00003B46  102D FD85                move.b     D0, [A5 - 0x27B]
00003B4A  6710                     beq        +0x12 /* 00003B5C */
00003B4C  4267                     clr.w      -[A7]
00003B4E  486E FFFC                pea.l      [A6 - 0x4]
00003B52  4EAD 027A                jsr        [A5 + 0x27A /* export_75, CODE:1 @ 0000471A */]
00003B56  3D5F FFFA                move.w     [A6 - 0x6], [A7]+
00003B5A  6008                     bra        +0xA /* 00003B64 */
label00003B5C:
00003B5C  486E FFFC                pea.l      [A6 - 0x4]
00003B60  4EAD 0282                jsr        [A5 + 0x282 /* export_76, CODE:1 @ 00004728 */]
label00003B64:
00003B64  2F2E FFFC                move.l     -[A7], [A6 - 0x4]
00003B68  4EAD 0B1A                jsr        [A5 + 0xB1A /* export_351, CODE:8 @ 00003A68 */]
00003B6C  4E5E                     unlink     A6
00003B6E  4E75                     rts
export_506:
00003B70  4E56 FF00                link       A6, -0x0100
00003B74  486E FF00                pea.l      [A6 - 0x100]
00003B78  3F3C 0001                move.w     -[A7], 0x1
00003B7C  4EAD 1782                jsr        [A5 + 0x1782 /* export_748, CODE:15 @ 000057E4 */]
00003B80  4EAD 0B2A                jsr        [A5 + 0xB2A /* export_353, CODE:8 @ 00003ACC */]
00003B84  4E5E                     unlink     A6
00003B86  4E75                     rts
export_507:
00003B88  4E56 FF00                link       A6, -0x0100
00003B8C  486E FF00                pea.l      [A6 - 0x100]
00003B90  3F3C 0003                move.w     -[A7], 0x3
00003B94  4EAD 1782                jsr        [A5 + 0x1782 /* export_748, CODE:15 @ 000057E4 */]
00003B98  4EAD 0B2A                jsr        [A5 + 0xB2A /* export_353, CODE:8 @ 00003ACC */]
00003B9C  4E5E                     unlink     A6
00003B9E  4E75                     rts
export_508:
00003BA0  4E56 FF00                link       A6, -0x0100
00003BA4  486E FF00                pea.l      [A6 - 0x100]
00003BA8  3F3C 0002                move.w     -[A7], 0x2
00003BAC  4EAD 1782                jsr        [A5 + 0x1782 /* export_748, CODE:15 @ 000057E4 */]
00003BB0  4EAD 0B2A                jsr        [A5 + 0xB2A /* export_353, CODE:8 @ 00003ACC */]
00003BB4  4E5E                     unlink     A6
00003BB6  4E75                     rts
export_509:
00003BB8  4E56 FFFC                link       A6, -0x0004
00003BBC  2F0C                     move.l     -[A7], A4
00003BBE  42A7                     clr.l      -[A7]
00003BC0  4EAD 178A                jsr        [A5 + 0x178A /* export_749, CODE:15 @ 000059A6 */]
00003BC4  285F                     movea.l    A4, [A7]+
00003BC6  2F0C                     move.l     -[A7], A4
00003BC8  4EAD 0B0A                jsr        [A5 + 0xB0A /* export_349, CODE:8 @ 00003A22 */]
00003BCC  2F0C                     move.l     -[A7], A4
00003BCE  4EAD 18D2                jsr        [A5 + 0x18D2 /* export_790, CODE:16 @ 0000083E */]
00003BD2  285F                     movea.l    A4, [A7]+
00003BD4  4E5E                     unlink     A6
00003BD6  4E75                     rts
export_510:
00003BD8  4E56 FFF0                link       A6, -0x0010
00003BDC  486E FFF0                pea.l      [A6 - 0x10]
00003BE0  A976                     syscall    GetKeys
00003BE2  7038                     moveq.l    D0, 0x38
00003BE4  3200                     move.w     D1, D0
00003BE6  E641                     asr        D1.w, 3
00003BE8  0136 10F0                btst       [A6 + D1.w - 0x10], D0
00003BEC  56C0                     sne        D0
00003BEE  0240 0001                andi.w     D0, 0x1
00003BF2  1F00                     move.b     -[A7], D0
00003BF4  4EAD 0AEA                jsr        [A5 + 0xAEA /* export_345, CODE:8 @ 00003994 */]
00003BF8  4E5E                     unlink     A6
00003BFA  4E75                     rts
export_511:
00003BFC  4E56 0000                link       A6, 0
00003C00  3F3C 0001                move.w     -[A7], 0x1
00003C04  4EBA DBAA                jsr        [PC - 0x2456 /* 000017B0 */]
00003C08  4E5E                     unlink     A6
00003C0A  4E75                     rts
export_512:
00003C0C  4E56 FEF6                link       A6, -0x010A
00003C10  41EE FEF6                lea.l      A0, [A6 - 0x10A]
00003C14  43FA 0042                lea.l      A1, [PC + 0x42 /* 00003C58, value 0x4646F6E, pstring "done" */]
00003C18  20D9                     move.l     [A0]+, [A1]+
00003C1A  3091                     move.w     [A0], [A1]
00003C1C  4267                     clr.w      -[A7]
00003C1E  4EAD 0C32                jsr        [A5 + 0xC32 /* export_386, CODE:8 @ 00004764 */]
00003C22  101F                     move.b     D0, [A7]+
00003C24  6622                     bne        +0x24 /* 00003C48 */
00003C26  42A7                     clr.l      -[A7]
00003C28  2F3A 002A                move.l     -[A7], [PC + 0x2A /* 00003C54, value 0x736E6420 'snd ' */]
00003C2C  3F2D AAEE                move.w     -[A7], [A5 - 0x5512]
00003C30  A9A0                     syscall    GetResource
00003C32  2D5F FFF6                move.l     [A6 - 0xA], [A7]+
00003C36  2F2E FFF6                move.l     -[A7], [A6 - 0xA]
00003C3A  486E FFFE                pea.l      [A6 - 0x2]
00003C3E  486E FFFA                pea.l      [A6 - 0x6]
00003C42  486E FEF6                pea.l      [A6 - 0x10A]
00003C46  A9A8                     syscall    GetResInfo
label00003C48:
00003C48  486E FEF6                pea.l      [A6 - 0x10A]
00003C4C  4EAD 0B22                jsr        [A5 + 0xB22 /* export_352, CODE:8 @ 00003A82 */]
00003C50  4E5E                     unlink     A6
00003C52  4E75                     rts
00003C54  736E                     moveq.l    D1, 0x6E
00003C56  6420                     bcc        +0x22 /* 00003C78 */
00003C58  0464 6F6E                subi.w     -[A4], 0x6F6E /* 'on' */
00003C5C  6500 4E56                bcs        +0x4E58 /* 00008AB4 */
// begin alternate branch 00003C5E-00003C62
export_513:
00003C5E  4E56 FFEC                link       A6, -0x0014
// end alternate branch 00003C5E-00003C62
export_513: // at 00003C5E (misaligned)
00003C60  FFEC                     .invalid   <<F/7/7>>
00003C62  486E FFF6                pea.l      [A6 - 0xA]
00003C66  4EAD 1452                jsr        [A5 + 0x1452 /* export_646, CODE:13 @ 00001556 */]
00003C6A  41EE FFEC                lea.l      A0, [A6 - 0x14]
00003C6E  43EE FFF6                lea.l      A1, [A6 - 0xA]
00003C72  20D9                     move.l     [A0]+, [A1]+
00003C74  20D9                     move.l     [A0]+, [A1]+
00003C76  3091                     move.w     [A0], [A1]
label00003C78:
00003C78  486E FFEC                pea.l      [A6 - 0x14]
00003C7C  3F3C 0012                move.w     -[A7], 0x12
00003C80  A9EB                     syscall    Pack4/FP68K
00003C82  486E FFEC                pea.l      [A6 - 0x14]
00003C86  4EAD 0AFA                jsr        [A5 + 0xAFA /* export_347, CODE:8 @ 000039DE */]
00003C8A  4E5E                     unlink     A6
00003C8C  4E75                     rts
export_514:
00003C8E  4E56 0000                link       A6, 0
00003C92  42A7                     clr.l      -[A7]
00003C94  4EAD 03DA                jsr        [A5 + 0x3DA /* export_119, CODE:1 @ 00004CE6 */]
00003C98  4EAD 0B1A                jsr        [A5 + 0xB1A /* export_351, CODE:8 @ 00003A68 */]
00003C9C  4E5E                     unlink     A6
00003C9E  4E75                     rts
export_515:
00003CA0  4E56 0000                link       A6, 0
00003CA4  3F3C 0003                move.w     -[A7], 0x3
00003CA8  4EBA DB06                jsr        [PC - 0x24FA /* 000017B0 */]
00003CAC  4E5E                     unlink     A6
00003CAE  4E75                     rts
export_516:
00003CB0  4E56 0000                link       A6, 0
00003CB4  486D B63A                pea.l      [A5 - 0x49C6]
00003CB8  4267                     clr.w      -[A7]
00003CBA  4EAD 0A2A                jsr        [A5 + 0xA2A /* export_321, CODE:8 @ 00002BF8 */]
00003CBE  4E5E                     unlink     A6
00003CC0  4E75                     rts
export_517:
00003CC2  4E56 0000                link       A6, 0
00003CC6  42A7                     clr.l      -[A7]
00003CC8  A975                     syscall    TickCount
00003CCA  4EAD 0B1A                jsr        [A5 + 0xB1A /* export_351, CODE:8 @ 00003A68 */]
00003CCE  4E5E                     unlink     A6
00003CD0  4E75                     rts
export_518:
00003CD2  4E56 FEFA                link       A6, -0x0106
00003CD6  102D FD85                move.b     D0, [A5 - 0x27B]
00003CDA  6710                     beq        +0x12 /* 00003CEC */
00003CDC  4267                     clr.w      -[A7]
00003CDE  486E FFFC                pea.l      [A6 - 0x4]
00003CE2  4EAD 027A                jsr        [A5 + 0x27A /* export_75, CODE:1 @ 0000471A */]
00003CE6  3D5F FEFA                move.w     [A6 - 0x106], [A7]+
00003CEA  6008                     bra        +0xA /* 00003CF4 */
label00003CEC:
00003CEC  486E FFFC                pea.l      [A6 - 0x4]
00003CF0  4EAD 0282                jsr        [A5 + 0x282 /* export_76, CODE:1 @ 00004728 */]
label00003CF4:
00003CF4  2F2E FFFC                move.l     -[A7], [A6 - 0x4]
00003CF8  7001                     moveq.l    D0, 0x01
00003CFA  B02D B66B                cmp.b      D0, [A5 - 0x4995]
00003CFE  57C0                     seq        D0
00003D00  4400                     neg.b      D0
00003D02  1F00                     move.b     -[A7], D0
00003D04  486E FEFC                pea.l      [A6 - 0x104]
00003D08  4EAD 042A                jsr        [A5 + 0x42A /* export_129, CODE:1 @ 00004D46 */]
00003D0C  486E FEFC                pea.l      [A6 - 0x104]
00003D10  4EAD 0B22                jsr        [A5 + 0xB22 /* export_352, CODE:8 @ 00003A82 */]
00003D14  4E5E                     unlink     A6
00003D16  4E75                     rts
export_519:
00003D18  4E56 FD00                link       A6, -0x0300
00003D1C  486E FE00                pea.l      [A6 - 0x200]
00003D20  3F3C 01F9                move.w     -[A7], 0x1F9
00003D24  3F2D EFDC                move.w     -[A7], [A5 - 0x1024]
00003D28  4EAD 048A                jsr        [A5 + 0x48A /* export_141, CODE:1 @ 00004E6C */]
00003D2C  486E FE00                pea.l      [A6 - 0x200]
00003D30  487A 002A                pea.l      [PC + 0x2A /* 00003D5C, value 0x520746F, pstring " tool" */]
00003D34  486E FD00                pea.l      [A6 - 0x300]
00003D38  3F3C 0002                move.w     -[A7], 0x2
00003D3C  4EAD 050A                jsr        [A5 + 0x50A /* export_157, CODE:1 @ 0000531E */]
00003D40  41EE FF00                lea.l      A0, [A6 - 0x100]
00003D44  43EE FD00                lea.l      A1, [A6 - 0x300]
00003D48  703F                     moveq.l    D0, 0x3F
label00003D4A:
00003D4A  20D9                     move.l     [A0]+, [A1]+
00003D4C  51C8 FFFC                dbf        D0, -0x6 /* 00003D4A */
00003D50  486E FF00                pea.l      [A6 - 0x100]
00003D54  4EAD 0B22                jsr        [A5 + 0xB22 /* export_352, CODE:8 @ 00003A82 */]
00003D58  4E5E                     unlink     A6
00003D5A  4E75                     rts
00003D5C  0520                     btst       -[A0], D2
00003D5E  746F                     moveq.l    D2, 0x6F
00003D60  6F6C                     ble        +0x6E /* 00003DCE */
export_520:
00003D62  4E56 FFF4                link       A6, -0x000C
00003D66  4267                     clr.w      -[A7]
00003D68  4EAD 053A                jsr        [A5 + 0x53A /* export_163, CODE:2 @ 00000088 */]
00003D6C  1D5F FFFF                move.b     [A6 - 0x1], [A7]+
00003D70  1F3C 0003                move.b     -[A7], 0x3
00003D74  4EAD 0542                jsr        [A5 + 0x542 /* export_164, CODE:2 @ 00000052 */]
00003D78  486E FFF4                pea.l      [A6 - 0xC]
00003D7C  4EAD 1452                jsr        [A5 + 0x1452 /* export_646, CODE:13 @ 00001556 */]
00003D80  42A7                     clr.l      -[A7]
00003D82  486E FFF4                pea.l      [A6 - 0xC]
00003D86  4EAD 056A                jsr        [A5 + 0x56A /* export_169, CODE:2 @ 0000019E */]
00003D8A  4EAD 0B12                jsr        [A5 + 0xB12 /* export_350, CODE:8 @ 00003A4E */]
00003D8E  1F2E FFFF                move.b     -[A7], [A6 - 0x1]
00003D92  4EAD 0542                jsr        [A5 + 0x542 /* export_164, CODE:2 @ 00000052 */]
00003D96  4E5E                     unlink     A6
00003D98  4E75                     rts
export_521:
00003D9A  4E56 0000                link       A6, 0
00003D9E  4267                     clr.w      -[A7]
00003DA0  4EAD 11A2                jsr        [A5 + 0x11A2 /* export_560, CODE:10 @ 00002012 */]
00003DA4  101F                     move.b     D0, [A7]+
00003DA6  6608                     bne        +0xA /* 00003DB0 */
00003DA8  3F3C 003C                move.w     -[A7], 0x3C /* '<' */
00003DAC  4EAD 098A                jsr        [A5 + 0x98A /* export_301, CODE:8 @ 00000B58 */]
label00003DB0:
00003DB0  4E5E                     unlink     A6
00003DB2  4E75                     rts
fn00003DB4:
00003DB4  4E56 FFF4                link       A6, -0x000C
00003DB8  48E7 0118                movem.l    -[A7], D7,A3,A4
00003DBC  286E 0008                movea.l    A4, [A6 + 0x8]
00003DC0  266C 0020                movea.l    A3, [A4 + 0x20]
00003DC4  70FF                     moveq.l    D0, 0xFFFFFFFF
00003DC6  B0AB 001A                cmp.l      D0, [A3 + 0x1A]
00003DCA  6F20                     ble        +0x22 /* 00003DEC */
00003DCC  42A7                     clr.l      -[A7]
label00003DCE:
00003DCE  2F2B 001A                move.l     -[A7], [A3 + 0x1A]
00003DD2  42A7                     clr.l      -[A7]
00003DD4  206C 0018                movea.l    A0, [A4 + 0x18]
00003DD8  2F10                     move.l     -[A7], [A0]
00003DDA  206C 0014                movea.l    A0, [A4 + 0x14]
00003DDE  2F10                     move.l     -[A7], [A0]
00003DE0  4EAD 09A2                jsr        [A5 + 0x9A2 /* export_304, CODE:8 @ 00000C22 */]
00003DE4  4EAD 205A                jsr        [A5 + 0x205A /* export_1031, CODE:20 @ 00000BA4 */]
00003DE8  275F 001A                move.l     [A3 + 0x1A], [A7]+
label00003DEC:
00003DEC  70FF                     moveq.l    D0, 0xFFFFFFFF
00003DEE  B0AB 001E                cmp.l      D0, [A3 + 0x1E]
00003DF2  6F06                     ble        +0x8 /* 00003DFA */
00003DF4  276B 001A 001E           move.l     [A3 + 0x1E], [A3 + 0x1A]
label00003DFA:
00003DFA  4AAB 001A                tst.l      [A3 + 0x1A]
00003DFE  660E                     bne        +0x10 /* 00003E0E */
00003E00  206C 0018                movea.l    A0, [A4 + 0x18]
00003E04  226C 0014                movea.l    A1, [A4 + 0x14]
00003E08  2290                     move.l     [A1], [A0]
00003E0A  6000 00C6                bra        +0xC8 /* 00003ED2 */
label00003E0E:
00003E0E  2D6B 001A FFF8           move.l     [A6 - 0x8], [A3 + 0x1A]
00003E14  7E02                     moveq.l    D7, 0x02
00003E16  6066                     bra        +0x68 /* 00003E7E */
label00003E18:
00003E18  206C 0018                movea.l    A0, [A4 + 0x18]
00003E1C  226C 0010                movea.l    A1, [A4 + 0x10]
00003E20  2010                     move.l     D0, [A0]
00003E22  B091                     cmp.l      D0, [A1]
00003E24  661C                     bne        +0x1E /* 00003E42 */
00003E26  202B 001A                move.l     D0, [A3 + 0x1A]
00003E2A  5280                     addq.l     D0, 1
00003E2C  9087                     sub.l      D0, D7
00003E2E  206C 000C                movea.l    A0, [A4 + 0xC]
00003E32  2080                     move.l     [A0], D0
00003E34  206C 0014                movea.l    A0, [A4 + 0x14]
00003E38  226C 0018                movea.l    A1, [A4 + 0x18]
00003E3C  2290                     move.l     [A1], [A0]
00003E3E  6000 0092                bra        +0x94 /* 00003ED2 */
label00003E42:
00003E42  2F2C 0018                move.l     -[A7], [A4 + 0x18]
00003E46  4EAD 1AA2                jsr        [A5 + 0x1AA2 /* export_848, CODE:16 @ 00001A3E */]
00003E4A  206C 0018                movea.l    A0, [A4 + 0x18]
00003E4E  226C 0010                movea.l    A1, [A4 + 0x10]
00003E52  2010                     move.l     D0, [A0]
00003E54  B091                     cmp.l      D0, [A1]
00003E56  6C08                     bge        +0xA /* 00003E60 */
00003E58  206C 0018                movea.l    A0, [A4 + 0x18]
00003E5C  5290                     addq.l     [A0], 1
00003E5E  601A                     bra        +0x1C /* 00003E7A */
label00003E60:
00003E60  202B 001A                move.l     D0, [A3 + 0x1A]
00003E64  9087                     sub.l      D0, D7
00003E66  5280                     addq.l     D0, 1
00003E68  206C 000C                movea.l    A0, [A4 + 0xC]
00003E6C  2080                     move.l     [A0], D0
00003E6E  206C 0014                movea.l    A0, [A4 + 0x14]
00003E72  226C 0018                movea.l    A1, [A4 + 0x18]
00003E76  2290                     move.l     [A1], [A0]
00003E78  6058                     bra        +0x5A /* 00003ED2 */
label00003E7A:
00003E7A  5287                     addq.l     D7, 1
00003E7C  6906                     bvs        +0x8 /* 00003E84 */
label00003E7E:
00003E7E  BEAE FFF8                cmp.l      D7, [A6 - 0x8]
00003E82  6F94                     ble        -0x6A /* 00003E18 */
label00003E84:
00003E84  206C 0018                movea.l    A0, [A4 + 0x18]
00003E88  226C 0014                movea.l    A1, [A4 + 0x14]
00003E8C  2290                     move.l     [A1], [A0]
00003E8E  202B 001E                move.l     D0, [A3 + 0x1E]
00003E92  90AB 001A                sub.l      D0, [A3 + 0x1A]
00003E96  2D40 FFF4                move.l     [A6 - 0xC], D0
00003E9A  7E00                     moveq.l    D7, 0x00
00003E9C  602E                     bra        +0x30 /* 00003ECC */
label00003E9E:
00003E9E  2F2C 0014                move.l     -[A7], [A4 + 0x14]
00003EA2  4EAD 1AA2                jsr        [A5 + 0x1AA2 /* export_848, CODE:16 @ 00001A3E */]
00003EA6  206C 0014                movea.l    A0, [A4 + 0x14]
00003EAA  226C 0010                movea.l    A1, [A4 + 0x10]
00003EAE  2010                     move.l     D0, [A0]
00003EB0  B091                     cmp.l      D0, [A1]
00003EB2  6602                     bne        +0x4 /* 00003EB6 */
00003EB4  601C                     bra        +0x1E /* 00003ED2 */
label00003EB6:
00003EB6  202B 001E                move.l     D0, [A3 + 0x1E]
00003EBA  90AB 001A                sub.l      D0, [A3 + 0x1A]
00003EBE  B087                     cmp.l      D0, D7
00003EC0  6706                     beq        +0x8 /* 00003EC8 */
00003EC2  206C 0014                movea.l    A0, [A4 + 0x14]
00003EC6  5290                     addq.l     [A0], 1
label00003EC8:
00003EC8  5287                     addq.l     D7, 1
00003ECA  6906                     bvs        +0x8 /* 00003ED2 */
label00003ECC:
00003ECC  BEAE FFF4                cmp.l      D7, [A6 - 0xC]
00003ED0  6FCC                     ble        -0x32 /* 00003E9E */
label00003ED2:
00003ED2  4CDF 1880                movem.l    D7,A3,A4, [A7]+
00003ED6  4E5E                     unlink     A6
00003ED8  2E9F                     move.l     [A7], [A7]+
00003EDA  4E75                     rts
fn00003EDC:
00003EDC  4E56 0000                link       A6, 0
00003EE0  2F2E 000C                move.l     -[A7], [A6 + 0xC]
00003EE4  4EAD 0C02                jsr        [A5 + 0xC02 /* export_380, CODE:8 @ 000045E4 */]
label00003EE8:
00003EE8  206E 000C                movea.l    A0, [A6 + 0xC]
00003EEC  2050                     movea.l    A0, [A0]
00003EEE  1010                     move.b     D0, [A0]
00003EF0  4880                     ext.w      D0
00003EF2  722C                     moveq.l    D1, 0x2C
00003EF4  B240                     cmp.w      D1, D0
00003EF6  56C0                     sne        D0
00003EF8  206E 000C                movea.l    A0, [A6 + 0xC]
00003EFC  2050                     movea.l    A0, [A0]
00003EFE  4A10                     tst.b      [A0]
00003F00  56C1                     sne        D1
00003F02  C001                     and.b      D0, D1
00003F04  6708                     beq        +0xA /* 00003F0E */
00003F06  206E 000C                movea.l    A0, [A6 + 0xC]
00003F0A  5290                     addq.l     [A0], 1
00003F0C  60DA                     bra        -0x24 /* 00003EE8 */
label00003F0E:
00003F0E  4E5E                     unlink     A6
00003F10  205F                     movea.l    A0, [A7]+
00003F12  504F                     addq.w     A7, 8
00003F14  4ED0                     jmp        [A0]
fn00003F16:
00003F16  4E56 FFEA                link       A6, -0x0016
00003F1A  48E7 0F18                movem.l    -[A7], D4,D5,D6,D7,A3,A4
00003F1E  286E 0008                movea.l    A4, [A6 + 0x8]
00003F22  266C 0020                movea.l    A3, [A4 + 0x20]
00003F26  70FF                     moveq.l    D0, 0xFFFFFFFF
00003F28  B0AB 0012                cmp.l      D0, [A3 + 0x12]
00003F2C  6F20                     ble        +0x22 /* 00003F4E */
00003F2E  42A7                     clr.l      -[A7]
00003F30  2F2B 0012                move.l     -[A7], [A3 + 0x12]
00003F34  42A7                     clr.l      -[A7]
00003F36  206C 0018                movea.l    A0, [A4 + 0x18]
00003F3A  2F10                     move.l     -[A7], [A0]
00003F3C  206C 0014                movea.l    A0, [A4 + 0x14]
00003F40  2F10                     move.l     -[A7], [A0]
00003F42  4EAD 099A                jsr        [A5 + 0x99A /* export_303, CODE:8 @ 00000BE6 */]
00003F46  4EAD 205A                jsr        [A5 + 0x205A /* export_1031, CODE:20 @ 00000BA4 */]
00003F4A  275F 0012                move.l     [A3 + 0x12], [A7]+
label00003F4E:
00003F4E  70FF                     moveq.l    D0, 0xFFFFFFFF
00003F50  B0AB 0016                cmp.l      D0, [A3 + 0x16]
00003F54  6F06                     ble        +0x8 /* 00003F5C */
00003F56  276B 0012 0016           move.l     [A3 + 0x16], [A3 + 0x12]
label00003F5C:
00003F5C  4AAB 0012                tst.l      [A3 + 0x12]
00003F60  660E                     bne        +0x10 /* 00003F70 */
00003F62  206C 0018                movea.l    A0, [A4 + 0x18]
00003F66  226C 0014                movea.l    A1, [A4 + 0x14]
00003F6A  2290                     move.l     [A1], [A0]
00003F6C  6000 00EC                bra        +0xEE /* 0000405A */
label00003F70:
00003F70  2E2B 0012                move.l     D7, [A3 + 0x12]
00003F74  206C 0018                movea.l    A0, [A4 + 0x18]
00003F78  2810                     move.l     D4, [A0]
label00003F7A:
00003F7A  7001                     moveq.l    D0, 0x01
00003F7C  B087                     cmp.l      D0, D7
00003F7E  5DC0                     slt        D0
00003F80  206C 0018                movea.l    A0, [A4 + 0x18]
00003F84  226C 0014                movea.l    A1, [A4 + 0x14]
00003F88  2210                     move.l     D1, [A0]
00003F8A  B291                     cmp.l      D1, [A1]
00003F8C  5DC1                     slt        D1
00003F8E  C001                     and.b      D0, D1
00003F90  670C                     beq        +0xE /* 00003F9E */
00003F92  5387                     subq.l     D7, 1
00003F94  2F2C 0018                move.l     -[A7], [A4 + 0x18]
00003F98  4EAD 0BFA                jsr        [A5 + 0xBFA /* export_379, CODE:8 @ 0000458E */]
00003F9C  60DC                     bra        -0x22 /* 00003F7A */
label00003F9E:
00003F9E  206C 0018                movea.l    A0, [A4 + 0x18]
00003FA2  226C 0014                movea.l    A1, [A4 + 0x14]
00003FA6  2010                     move.l     D0, [A0]
00003FA8  B091                     cmp.l      D0, [A1]
00003FAA  6D4A                     blt        +0x4C /* 00003FF6 */
00003FAC  206C 0008                movea.l    A0, [A4 + 0x8]
00003FB0  2087                     move.l     [A0], D7
00003FB2  206C 0018                movea.l    A0, [A4 + 0x18]
00003FB6  226C 0014                movea.l    A1, [A4 + 0x14]
00003FBA  2010                     move.l     D0, [A0]
00003FBC  B091                     cmp.l      D0, [A1]
00003FBE  6F0A                     ble        +0xC /* 00003FCA */
00003FC0  206C 0014                movea.l    A0, [A4 + 0x14]
00003FC4  226C 0018                movea.l    A1, [A4 + 0x18]
00003FC8  2290                     move.l     [A1], [A0]
label00003FCA:
00003FCA  206C 0018                movea.l    A0, [A4 + 0x18]
00003FCE  2A10                     move.l     D5, [A0]
00003FD0  5385                     subq.l     D5, 1
00003FD2  206C 0014                movea.l    A0, [A4 + 0x14]
00003FD6  B890                     cmp.l      D4, [A0]
00003FD8  57C0                     seq        D0
00003FDA  4A00                     tst.b      D0
00003FDC  6610                     bne        +0x12 /* 00003FEE */
00003FDE  2045                     movea.l    A0, D5
00003FE0  1210                     move.b     D1, [A0]
00003FE2  4881                     ext.w      D1
00003FE4  742C                     moveq.l    D2, 0x2C
00003FE6  B441                     cmp.w      D2, D1
00003FE8  57C1                     seq        D1
00003FEA  8001                     or.b       D0, D1
00003FEC  6706                     beq        +0x8 /* 00003FF4 */
label00003FEE:
00003FEE  206C 0008                movea.l    A0, [A4 + 0x8]
00003FF2  5390                     subq.l     [A0], 1
label00003FF4:
00003FF4  6064                     bra        +0x66 /* 0000405A */
label00003FF6:
00003FF6  206C 0018                movea.l    A0, [A4 + 0x18]
00003FFA  2D50 FFF0                move.l     [A6 - 0x10], [A0]
00003FFE  202B 0016                move.l     D0, [A3 + 0x16]
00004002  90AB 0012                sub.l      D0, [A3 + 0x12]
00004006  2D40 FFEA                move.l     [A6 - 0x16], D0
0000400A  7E00                     moveq.l    D7, 0x00
0000400C  6034                     bra        +0x36 /* 00004042 */
label0000400E:
0000400E  486E FFF0                pea.l      [A6 - 0x10]
00004012  2F0E                     move.l     -[A7], A6
00004014  4EBA FEC6                jsr        [PC - 0x13A /* 00003EDC */]
00004018  206E FFF0                movea.l    A0, [A6 - 0x10]
0000401C  1010                     move.b     D0, [A0]
0000401E  4880                     ext.w      D0
00004020  722C                     moveq.l    D1, 0x2C
00004022  B240                     cmp.w      D1, D0
00004024  57C6                     seq        D6
00004026  4406                     neg.b      D6
00004028  1006                     move.b     D0, D6
0000402A  6704                     beq        +0x6 /* 00004030 */
0000402C  52AE FFF0                addq.l     [A6 - 0x10], 1
label00004030:
00004030  206C 0014                movea.l    A0, [A4 + 0x14]
00004034  202E FFF0                move.l     D0, [A6 - 0x10]
00004038  B090                     cmp.l      D0, [A0]
0000403A  6F02                     ble        +0x4 /* 0000403E */
0000403C  601C                     bra        +0x1E /* 0000405A */
label0000403E:
0000403E  5287                     addq.l     D7, 1
00004040  6906                     bvs        +0x8 /* 00004048 */
label00004042:
00004042  BEAE FFEA                cmp.l      D7, [A6 - 0x16]
00004046  6FC6                     ble        -0x38 /* 0000400E */
label00004048:
00004048  206C 0014                movea.l    A0, [A4 + 0x14]
0000404C  20AE FFF0                move.l     [A0], [A6 - 0x10]
00004050  1006                     move.b     D0, D6
00004052  6706                     beq        +0x8 /* 0000405A */
00004054  206C 0014                movea.l    A0, [A4 + 0x14]
00004058  5390                     subq.l     [A0], 1
label0000405A:
0000405A  4CDF 18F0                movem.l    D4,D5,D6,D7,A3,A4, [A7]+
0000405E  4E5E                     unlink     A6
00004060  2E9F                     move.l     [A7], [A7]+
00004062  4E75                     rts
fn00004064:
00004064  4E56 FEDE                link       A6, -0x0122
00004068  48E7 0718                movem.l    -[A7], D5,D6,D7,A3,A4
0000406C  286E 0008                movea.l    A4, [A6 + 0x8]
00004070  266C 0020                movea.l    A3, [A4 + 0x20]
00004074  70FF                     moveq.l    D0, 0xFFFFFFFF
00004076  B0AB 000A                cmp.l      D0, [A3 + 0xA]
0000407A  6F20                     ble        +0x22 /* 0000409C */
0000407C  42A7                     clr.l      -[A7]
0000407E  2F2B 000A                move.l     -[A7], [A3 + 0xA]
00004082  42A7                     clr.l      -[A7]
00004084  206C 0018                movea.l    A0, [A4 + 0x18]
00004088  2F10                     move.l     -[A7], [A0]
0000408A  206C 0014                movea.l    A0, [A4 + 0x14]
0000408E  2F10                     move.l     -[A7], [A0]
00004090  4EAD 09AA                jsr        [A5 + 0x9AA /* export_305, CODE:8 @ 00000C52 */]
00004094  4EAD 205A                jsr        [A5 + 0x205A /* export_1031, CODE:20 @ 00000BA4 */]
00004098  275F 000A                move.l     [A3 + 0xA], [A7]+
label0000409C:
0000409C  70FF                     moveq.l    D0, 0xFFFFFFFF
0000409E  B0AB 000E                cmp.l      D0, [A3 + 0xE]
000040A2  6F06                     ble        +0x8 /* 000040AA */
000040A4  276B 000A 000E           move.l     [A3 + 0xE], [A3 + 0xA]
label000040AA:
000040AA  4AAB 000A                tst.l      [A3 + 0xA]
000040AE  660E                     bne        +0x10 /* 000040BE */
000040B0  206C 0018                movea.l    A0, [A4 + 0x18]
000040B4  226C 0014                movea.l    A1, [A4 + 0x14]
000040B8  2290                     move.l     [A1], [A0]
000040BA  6000 0214                bra        +0x216 /* 000042D0 */
label000040BE:
000040BE  206D FEA8                movea.l    A0, [A5 - 0x158]
000040C2  3A28 0044                move.w     D5, [A0 + 0x44]
000040C6  102D F2B3                move.b     D0, [A5 - 0xD4D]
000040CA  6714                     beq        +0x16 /* 000040E0 */
000040CC  206D FEA8                movea.l    A0, [A5 - 0x158]
000040D0  2F08                     move.l     -[A7], A0
000040D2  4267                     clr.w      -[A7]
000040D4  3EB8 0BA6                move.w     [A7], [0x00000BA6 /* SysFontFam */]
000040D8  301F                     move.w     D0, [A7]+
000040DA  205F                     movea.l    A0, [A7]+
000040DC  3140 0044                move.w     [A0 + 0x44], D0
label000040E0:
000040E0  2F2C 0018                move.l     -[A7], [A4 + 0x18]
000040E4  4EAD 0C02                jsr        [A5 + 0xC02 /* export_380, CODE:8 @ 000045E4 */]
000040E8  2D6B 000A FEE2           move.l     [A6 - 0x11E], [A3 + 0xA]
000040EE  7C02                     moveq.l    D6, 0x02
000040F0  6000 00A2                bra        +0xA4 /* 00004194 */
label000040F4:
000040F4  102D F2B3                move.b     D0, [A5 - 0xD4D]
000040F8  6772                     beq        +0x74 /* 0000416C */
000040FA  206C 0018                movea.l    A0, [A4 + 0x18]
000040FE  2F10                     move.l     -[A7], [A0]
00004100  206C 0014                movea.l    A0, [A4 + 0x14]
00004104  226C 0018                movea.l    A1, [A4 + 0x18]
00004108  2010                     move.l     D0, [A0]
0000410A  9091                     sub.l      D0, [A1]
0000410C  3F00                     move.w     -[A7], D0
0000410E  4267                     clr.w      -[A7]
00004110  1F3C 0001                move.b     -[A7], 0x1
00004114  42A7                     clr.l      -[A7]
00004116  486E FEE8                pea.l      [A6 - 0x118]
0000411A  2F3C 8012 001A           move.l     -[A7], 0x8012001A
00004120  A8B5                     syscall    ScriptUtil
00004122  206C 0018                movea.l    A0, [A4 + 0x18]
00004126  302E FEEA                move.w     D0, [A6 - 0x116]
0000412A  48C0                     ext.l      D0
0000412C  D190                     add.l      [A0], D0
0000412E  2F2C 0018                move.l     -[A7], [A4 + 0x18]
00004132  4EAD 0C02                jsr        [A5 + 0xC02 /* export_380, CODE:8 @ 000045E4 */]
00004136  206C 0018                movea.l    A0, [A4 + 0x18]
0000413A  2F10                     move.l     -[A7], [A0]
0000413C  206C 0014                movea.l    A0, [A4 + 0x14]
00004140  226C 0018                movea.l    A1, [A4 + 0x18]
00004144  2010                     move.l     D0, [A0]
00004146  9091                     sub.l      D0, [A1]
00004148  3F00                     move.w     -[A7], D0
0000414A  4267                     clr.w      -[A7]
0000414C  1F3C 0001                move.b     -[A7], 0x1
00004150  42A7                     clr.l      -[A7]
00004152  486E FEE8                pea.l      [A6 - 0x118]
00004156  2F3C 8012 001A           move.l     -[A7], 0x8012001A
0000415C  A8B5                     syscall    ScriptUtil
0000415E  206C 0018                movea.l    A0, [A4 + 0x18]
00004162  302E FEE8                move.w     D0, [A6 - 0x118]
00004166  48C0                     ext.l      D0
00004168  D190                     add.l      [A0], D0
0000416A  6014                     bra        +0x16 /* 00004180 */
label0000416C:
0000416C  2F2C 0018                move.l     -[A7], [A4 + 0x18]
00004170  486E FEF4                pea.l      [A6 - 0x10C]
00004174  4EAD 1A2A                jsr        [A5 + 0x1A2A /* export_833, CODE:16 @ 000014AE */]
00004178  2F2C 0018                move.l     -[A7], [A4 + 0x18]
0000417C  4EAD 0C02                jsr        [A5 + 0xC02 /* export_380, CODE:8 @ 000045E4 */]
label00004180:
00004180  206C 0018                movea.l    A0, [A4 + 0x18]
00004184  226C 0014                movea.l    A1, [A4 + 0x14]
00004188  2010                     move.l     D0, [A0]
0000418A  B091                     cmp.l      D0, [A1]
0000418C  6D02                     blt        +0x4 /* 00004190 */
0000418E  600C                     bra        +0xE /* 0000419C */
label00004190:
00004190  5286                     addq.l     D6, 1
00004192  6908                     bvs        +0xA /* 0000419C */
label00004194:
00004194  BCAE FEE2                cmp.l      D6, [A6 - 0x11E]
00004198  6F00 FF5A                ble        -0xA4 /* 000040F4 */
label0000419C:
0000419C  206C 0018                movea.l    A0, [A4 + 0x18]
000041A0  226C 0014                movea.l    A1, [A4 + 0x14]
000041A4  2010                     move.l     D0, [A0]
000041A6  B091                     cmp.l      D0, [A1]
000041A8  6F0A                     ble        +0xC /* 000041B4 */
000041AA  206C 0014                movea.l    A0, [A4 + 0x14]
000041AE  226C 0018                movea.l    A1, [A4 + 0x18]
000041B2  2290                     move.l     [A1], [A0]
label000041B4:
000041B4  206C 0018                movea.l    A0, [A4 + 0x18]
000041B8  2D50 FFF4                move.l     [A6 - 0xC], [A0]
000041BC  202B 000E                move.l     D0, [A3 + 0xE]
000041C0  90AB 000A                sub.l      D0, [A3 + 0xA]
000041C4  2D40 FEDE                move.l     [A6 - 0x122], D0
000041C8  7C00                     moveq.l    D6, 0x00
000041CA  6064                     bra        +0x66 /* 00004230 */
label000041CC:
000041CC  102D F2B3                move.b     D0, [A5 - 0xD4D]
000041D0  6738                     beq        +0x3A /* 0000420A */
000041D2  2F2E FFF4                move.l     -[A7], [A6 - 0xC]
000041D6  206C 0014                movea.l    A0, [A4 + 0x14]
000041DA  2010                     move.l     D0, [A0]
000041DC  90AE FFF4                sub.l      D0, [A6 - 0xC]
000041E0  3F00                     move.w     -[A7], D0
000041E2  4267                     clr.w      -[A7]
000041E4  1F3C 0001                move.b     -[A7], 0x1
000041E8  42A7                     clr.l      -[A7]
000041EA  486E FEE8                pea.l      [A6 - 0x118]
000041EE  2F3C 8012 001A           move.l     -[A7], 0x8012001A
000041F4  A8B5                     syscall    ScriptUtil
000041F6  302E FEEA                move.w     D0, [A6 - 0x116]
000041FA  48C0                     ext.l      D0
000041FC  D1AE FFF4                add.l      [A6 - 0xC], D0
00004200  486E FFF4                pea.l      [A6 - 0xC]
00004204  4EAD 0C02                jsr        [A5 + 0xC02 /* export_380, CODE:8 @ 000045E4 */]
00004208  6014                     bra        +0x16 /* 0000421E */
label0000420A:
0000420A  486E FFF4                pea.l      [A6 - 0xC]
0000420E  486E FEF4                pea.l      [A6 - 0x10C]
00004212  4EAD 1A2A                jsr        [A5 + 0x1A2A /* export_833, CODE:16 @ 000014AE */]
00004216  486E FFF4                pea.l      [A6 - 0xC]
0000421A  4EAD 0C02                jsr        [A5 + 0xC02 /* export_380, CODE:8 @ 000045E4 */]
label0000421E:
0000421E  206C 0014                movea.l    A0, [A4 + 0x14]
00004222  202E FFF4                move.l     D0, [A6 - 0xC]
00004226  B090                     cmp.l      D0, [A0]
00004228  6D02                     blt        +0x4 /* 0000422C */
0000422A  600A                     bra        +0xC /* 00004236 */
label0000422C:
0000422C  5286                     addq.l     D6, 1
0000422E  6906                     bvs        +0x8 /* 00004236 */
label00004230:
00004230  BCAE FEDE                cmp.l      D6, [A6 - 0x122]
00004234  6F96                     ble        -0x68 /* 000041CC */
label00004236:
00004236  206C 0014                movea.l    A0, [A4 + 0x14]
0000423A  202E FFF4                move.l     D0, [A6 - 0xC]
0000423E  B090                     cmp.l      D0, [A0]
00004240  6C08                     bge        +0xA /* 0000424A */
00004242  206C 0014                movea.l    A0, [A4 + 0x14]
00004246  20AE FFF4                move.l     [A0], [A6 - 0xC]
label0000424A:
0000424A  206C 0014                movea.l    A0, [A4 + 0x14]
0000424E  2E10                     move.l     D7, [A0]
00004250  5387                     subq.l     D7, 1
00004252  102D F2B3                move.b     D0, [A5 - 0xD4D]
00004256  6740                     beq        +0x42 /* 00004298 */
label00004258:
00004258  206C 0018                movea.l    A0, [A4 + 0x18]
0000425C  BE90                     cmp.l      D7, [A0]
0000425E  5EC0                     sgt        D0
00004260  4A00                     tst.b      D0
00004262  6732                     beq        +0x34 /* 00004296 */
00004264  7200                     moveq.l    D1, 0x00
00004266  2047                     movea.l    A0, D7
00004268  1210                     move.b     D1, [A0]
0000426A  C2BC 0000 00FF           and.l      D1, 0xFF
00004270  7420                     moveq.l    D2, 0x20
00004272  B481                     cmp.l      D2, D1
00004274  5CC1                     sge        D1
00004276  C001                     and.b      D0, D1
00004278  671C                     beq        +0x1E /* 00004296 */
0000427A  5387                     subq.l     D7, 1
0000427C  4267                     clr.w      -[A7]
0000427E  2F07                     move.l     -[A7], D7
00004280  4267                     clr.w      -[A7]
00004282  2F3C 8206 0010           move.l     -[A7], 0x82060010
00004288  A8B5                     syscall    ScriptUtil
0000428A  70FF                     moveq.l    D0, 0xFFFFFFFF
0000428C  B05F                     cmp.w      D0, [A7]+
0000428E  6604                     bne        +0x6 /* 00004294 */
00004290  5287                     addq.l     D7, 1
00004292  602A                     bra        +0x2C /* 000042BE */
label00004294:
00004294  60C2                     bra        -0x3C /* 00004258 */
label00004296:
00004296  6026                     bra        +0x28 /* 000042BE */
label00004298:
00004298  206C 0018                movea.l    A0, [A4 + 0x18]
0000429C  BE90                     cmp.l      D7, [A0]
0000429E  5EC0                     sgt        D0
000042A0  4A00                     tst.b      D0
000042A2  671A                     beq        +0x1C /* 000042BE */
000042A4  7200                     moveq.l    D1, 0x00
000042A6  2047                     movea.l    A0, D7
000042A8  1210                     move.b     D1, [A0]
000042AA  C2BC 0000 00FF           and.l      D1, 0xFF
000042B0  7420                     moveq.l    D2, 0x20
000042B2  B481                     cmp.l      D2, D1
000042B4  5CC1                     sge        D1
000042B6  C001                     and.b      D0, D1
000042B8  6704                     beq        +0x6 /* 000042BE */
000042BA  5387                     subq.l     D7, 1
000042BC  60DA                     bra        -0x24 /* 00004298 */
label000042BE:
000042BE  2007                     move.l     D0, D7
000042C0  5280                     addq.l     D0, 1
000042C2  206C 0014                movea.l    A0, [A4 + 0x14]
000042C6  2080                     move.l     [A0], D0
000042C8  206D FEA8                movea.l    A0, [A5 - 0x158]
000042CC  3145 0044                move.w     [A0 + 0x44], D5
label000042D0:
000042D0  4CDF 18E0                movem.l    D5,D6,D7,A3,A4, [A7]+
000042D4  4E5E                     unlink     A6
000042D6  2E9F                     move.l     [A7], [A7]+
000042D8  4E75                     rts
fn000042DA:
000042DA  4E56 FFF0                link       A6, -0x0010
000042DE  48E7 0318                movem.l    -[A7], D6,D7,A3,A4
000042E2  286E 0008                movea.l    A4, [A6 + 0x8]
000042E6  266C 0020                movea.l    A3, [A4 + 0x20]
000042EA  70FF                     moveq.l    D0, 0xFFFFFFFF
000042EC  B0AB 0002                cmp.l      D0, [A3 + 0x2]
000042F0  6F20                     ble        +0x22 /* 00004312 */
000042F2  42A7                     clr.l      -[A7]
000042F4  2F2B 0002                move.l     -[A7], [A3 + 0x2]
000042F8  42A7                     clr.l      -[A7]
000042FA  206C 0018                movea.l    A0, [A4 + 0x18]
000042FE  2F10                     move.l     -[A7], [A0]
00004300  206C 0014                movea.l    A0, [A4 + 0x14]
00004304  2F10                     move.l     -[A7], [A0]
00004306  4EAD 0992                jsr        [A5 + 0x992 /* export_302, CODE:8 @ 00000B74 */]
0000430A  4EAD 205A                jsr        [A5 + 0x205A /* export_1031, CODE:20 @ 00000BA4 */]
0000430E  275F 0002                move.l     [A3 + 0x2], [A7]+
label00004312:
00004312  70FF                     moveq.l    D0, 0xFFFFFFFF
00004314  B0AB 0006                cmp.l      D0, [A3 + 0x6]
00004318  6F06                     ble        +0x8 /* 00004320 */
0000431A  276B 0002 0006           move.l     [A3 + 0x6], [A3 + 0x2]
label00004320:
00004320  4AAB 0002                tst.l      [A3 + 0x2]
00004324  660E                     bne        +0x10 /* 00004334 */
00004326  206C 0018                movea.l    A0, [A4 + 0x18]
0000432A  226C 0014                movea.l    A1, [A4 + 0x14]
0000432E  2290                     move.l     [A1], [A0]
00004330  6000 00EC                bra        +0xEE /* 0000441E */
label00004334:
00004334  102D F2B3                move.b     D0, [A5 - 0xD4D]
00004338  674E                     beq        +0x50 /* 00004388 */
0000433A  202B 0002                move.l     D0, [A3 + 0x2]
0000433E  5380                     subq.l     D0, 1
00004340  2D40 FFF4                move.l     [A6 - 0xC], D0
00004344  7C01                     moveq.l    D6, 0x01
00004346  6038                     bra        +0x3A /* 00004380 */
label00004348:
00004348  4267                     clr.w      -[A7]
0000434A  206C 0018                movea.l    A0, [A4 + 0x18]
0000434E  2F10                     move.l     -[A7], [A0]
00004350  4267                     clr.w      -[A7]
00004352  2F3C 8206 0010           move.l     -[A7], 0x82060010
00004358  A8B5                     syscall    ScriptUtil
0000435A  4A5F                     tst.w      [A7]+
0000435C  6608                     bne        +0xA /* 00004366 */
0000435E  206C 0018                movea.l    A0, [A4 + 0x18]
00004362  5290                     addq.l     [A0], 1
00004364  6006                     bra        +0x8 /* 0000436C */
label00004366:
00004366  206C 0018                movea.l    A0, [A4 + 0x18]
0000436A  5490                     addq.l     [A0], 2
label0000436C:
0000436C  206C 0018                movea.l    A0, [A4 + 0x18]
00004370  226C 0014                movea.l    A1, [A4 + 0x14]
00004374  2010                     move.l     D0, [A0]
00004376  B091                     cmp.l      D0, [A1]
00004378  6F02                     ble        +0x4 /* 0000437C */
0000437A  601E                     bra        +0x20 /* 0000439A */
label0000437C:
0000437C  5286                     addq.l     D6, 1
0000437E  6906                     bvs        +0x8 /* 00004386 */
label00004380:
00004380  BCAE FFF4                cmp.l      D6, [A6 - 0xC]
00004384  6FC2                     ble        -0x3C /* 00004348 */
label00004386:
00004386  6012                     bra        +0x14 /* 0000439A */
label00004388:
00004388  206C 0018                movea.l    A0, [A4 + 0x18]
0000438C  202B 0002                move.l     D0, [A3 + 0x2]
00004390  D090                     add.l      D0, [A0]
00004392  5380                     subq.l     D0, 1
00004394  206C 0018                movea.l    A0, [A4 + 0x18]
00004398  2080                     move.l     [A0], D0
label0000439A:
0000439A  206C 0018                movea.l    A0, [A4 + 0x18]
0000439E  226C 0014                movea.l    A1, [A4 + 0x14]
000043A2  2010                     move.l     D0, [A0]
000043A4  B091                     cmp.l      D0, [A1]
000043A6  6F0A                     ble        +0xC /* 000043B2 */
000043A8  206C 0014                movea.l    A0, [A4 + 0x14]
000043AC  226C 0018                movea.l    A1, [A4 + 0x18]
000043B0  2290                     move.l     [A1], [A0]
label000043B2:
000043B2  102D F2B3                move.b     D0, [A5 - 0xD4D]
000043B6  6746                     beq        +0x48 /* 000043FE */
000043B8  206C 0018                movea.l    A0, [A4 + 0x18]
000043BC  2E10                     move.l     D7, [A0]
000043BE  202B 0006                move.l     D0, [A3 + 0x6]
000043C2  90AB 0002                sub.l      D0, [A3 + 0x2]
000043C6  5280                     addq.l     D0, 1
000043C8  2D40 FFF0                move.l     [A6 - 0x10], D0
000043CC  7C01                     moveq.l    D6, 0x01
000043CE  6026                     bra        +0x28 /* 000043F6 */
label000043D0:
000043D0  4267                     clr.w      -[A7]
000043D2  2F07                     move.l     -[A7], D7
000043D4  4267                     clr.w      -[A7]
000043D6  2F3C 8206 0010           move.l     -[A7], 0x82060010
000043DC  A8B5                     syscall    ScriptUtil
000043DE  4A5F                     tst.w      [A7]+
000043E0  6604                     bne        +0x6 /* 000043E6 */
000043E2  5287                     addq.l     D7, 1
000043E4  6002                     bra        +0x4 /* 000043E8 */
label000043E6:
000043E6  5487                     addq.l     D7, 2
label000043E8:
000043E8  206C 0014                movea.l    A0, [A4 + 0x14]
000043EC  BE90                     cmp.l      D7, [A0]
000043EE  6F02                     ble        +0x4 /* 000043F2 */
000043F0  601E                     bra        +0x20 /* 00004410 */
label000043F2:
000043F2  5286                     addq.l     D6, 1
000043F4  6906                     bvs        +0x8 /* 000043FC */
label000043F6:
000043F6  BCAE FFF0                cmp.l      D6, [A6 - 0x10]
000043FA  6FD4                     ble        -0x2A /* 000043D0 */
label000043FC:
000043FC  6012                     bra        +0x14 /* 00004410 */
label000043FE:
000043FE  206C 0018                movea.l    A0, [A4 + 0x18]
00004402  202B 0006                move.l     D0, [A3 + 0x6]
00004406  D090                     add.l      D0, [A0]
00004408  90AB 0002                sub.l      D0, [A3 + 0x2]
0000440C  2E00                     move.l     D7, D0
0000440E  5287                     addq.l     D7, 1
label00004410:
00004410  206C 0014                movea.l    A0, [A4 + 0x14]
00004414  BE90                     cmp.l      D7, [A0]
00004416  6E06                     bgt        +0x8 /* 0000441E */
00004418  206C 0014                movea.l    A0, [A4 + 0x14]
0000441C  2087                     move.l     [A0], D7
label0000441E:
0000441E  4CDF 18C0                movem.l    D6,D7,A3,A4, [A7]+
00004422  4E5E                     unlink     A6
00004424  2E9F                     move.l     [A7], [A7]+
00004426  4E75                     rts
export_522:
00004428  4E56 0000                link       A6, 0
0000442C  48E7 0018                movem.l    -[A7], A3,A4
00004430  266E 001C                movea.l    A3, [A6 + 0x1C]
00004434  206E 000C                movea.l    A0, [A6 + 0xC]
00004438  7000                     moveq.l    D0, 0x00
0000443A  2080                     move.l     [A0], D0
0000443C  206E 0008                movea.l    A0, [A6 + 0x8]
00004440  7000                     moveq.l    D0, 0x00
00004442  2080                     move.l     [A0], D0
00004444  4EAD 1192                jsr        [A5 + 0x1192 /* export_558, CODE:10 @ 00001268 */]
00004448  42A7                     clr.l      -[A7]
0000444A  4267                     clr.w      -[A7]
0000444C  4EAD 08F2                jsr        [A5 + 0x8F2 /* export_282, CODE:8 @ 0000017A */]
00004450  269F                     move.l     [A3], [A7]+
00004452  206E 0018                movea.l    A0, [A6 + 0x18]
00004456  2093                     move.l     [A0], [A3]
00004458  206E 0010                movea.l    A0, [A6 + 0x10]
0000445C  2093                     move.l     [A0], [A3]
0000445E  2F2E 0010                move.l     -[A7], [A6 + 0x10]
00004462  4EAD 1AB2                jsr        [A5 + 0x1AB2 /* export_850, CODE:16 @ 00001A82 */]
00004466  206E 0010                movea.l    A0, [A6 + 0x10]
0000446A  226E 0014                movea.l    A1, [A6 + 0x14]
0000446E  2290                     move.l     [A1], [A0]
00004470  286E 0020                movea.l    A4, [A6 + 0x20]
00004474  1014                     move.b     D0, [A4]
00004476  6648                     bne        +0x4A /* 000044C0 */
00004478  70FF                     moveq.l    D0, 0xFFFFFFFF
0000447A  B0AC 001A                cmp.l      D0, [A4 + 0x1A]
0000447E  670E                     beq        +0x10 /* 0000448E */
00004480  2F0E                     move.l     -[A7], A6
00004482  4EBA F930                jsr        [PC - 0x6D0 /* 00003DB4 */]
00004486  206E 000C                movea.l    A0, [A6 + 0xC]
0000448A  4A90                     tst.l      [A0]
0000448C  6632                     bne        +0x34 /* 000044C0 */
label0000448E:
0000448E  70FF                     moveq.l    D0, 0xFFFFFFFF
00004490  B0AC 0012                cmp.l      D0, [A4 + 0x12]
00004494  670E                     beq        +0x10 /* 000044A4 */
00004496  2F0E                     move.l     -[A7], A6
00004498  4EBA FA7C                jsr        [PC - 0x584 /* 00003F16 */]
0000449C  206E 0008                movea.l    A0, [A6 + 0x8]
000044A0  4A90                     tst.l      [A0]
000044A2  661C                     bne        +0x1E /* 000044C0 */
label000044A4:
000044A4  70FF                     moveq.l    D0, 0xFFFFFFFF
000044A6  B0AC 000A                cmp.l      D0, [A4 + 0xA]
000044AA  6706                     beq        +0x8 /* 000044B2 */
000044AC  2F0E                     move.l     -[A7], A6
000044AE  4EBA FBB4                jsr        [PC - 0x44C /* 00004064 */]
label000044B2:
000044B2  70FF                     moveq.l    D0, 0xFFFFFFFF
000044B4  B0AC 0002                cmp.l      D0, [A4 + 0x2]
000044B8  6706                     beq        +0x8 /* 000044C0 */
000044BA  2F0E                     move.l     -[A7], A6
000044BC  4EBA FE1C                jsr        [PC - 0x1E4 /* 000042DA */]
label000044C0:
000044C0  4CDF 1800                movem.l    A3,A4, [A7]+
000044C4  4E5E                     unlink     A6
000044C6  205F                     movea.l    A0, [A7]+
000044C8  DEFC 001C                add.w      A7, 0x1C
000044CC  4ED0                     jmp        [A0]
export_523:
000044CE  4E56 FFFE                link       A6, -0x0002
000044D2  48E7 0108                movem.l    -[A7], D7,A4
000044D6  426E 0008                clr.w      [A6 + 0x8]
000044DA  4247                     clr.w      D7
label000044DC:
000044DC  5247                     addq.w     D7, 1
000044DE  BE6D C210                cmp.w      D7, [A5 - 0x3DF0]
000044E2  6E6C                     bgt        +0x6E /* 00004550 */
000044E4  3007                     move.w     D0, D7
000044E6  5340                     subq.w     D0, 1
000044E8  41ED C212                lea.l      A0, [A5 - 0x3DEE]
000044EC  C1FC 002C                muls.w     D0, 0x2C /* ',' */
000044F0  49F0 0000                lea.l      A4, [A0 + D0.w]
000044F4  1014                     move.b     D0, [A4]
000044F6  B02D B652                cmp.b      D0, [A5 - 0x49AE]
000044FA  66E0                     bne        -0x1E /* 000044DC */
000044FC  202C 0002                move.l     D0, [A4 + 0x2]
00004500  B0AD B654                cmp.l      D0, [A5 - 0x49AC]
00004504  66D6                     bne        -0x28 /* 000044DC */
00004506  1014                     move.b     D0, [A4]
00004508  4880                     ext.w      D0
0000450A  5340                     subq.w     D0, 1
0000450C  670A                     beq        +0xC /* 00004518 */
0000450E  5340                     subq.w     D0, 1
00004510  6724                     beq        +0x26 /* 00004536 */
00004512  5340                     subq.w     D0, 1
00004514  672C                     beq        +0x2E /* 00004542 */
00004516  6034                     bra        +0x36 /* 0000454C */
label00004518:
00004518  202C 0010                move.l     D0, [A4 + 0x10]
0000451C  B0AD B662                cmp.l      D0, [A5 - 0x499E]
00004520  56C0                     sne        D0
00004522  4A00                     tst.b      D0
00004524  66B6                     bne        -0x48 /* 000044DC */
00004526  322C 000E                move.w     D1, [A4 + 0xE]
0000452A  B26D B660                cmp.w      D1, [A5 - 0x49A0]
0000452E  56C1                     sne        D1
00004530  8001                     or.b       D0, D1
00004532  66A8                     bne        -0x56 /* 000044DC */
00004534  6016                     bra        +0x18 /* 0000454C */
label00004536:
00004536  202C 000A                move.l     D0, [A4 + 0xA]
0000453A  B0AD B65C                cmp.l      D0, [A5 - 0x49A4]
0000453E  669C                     bne        -0x62 /* 000044DC */
00004540  600A                     bra        +0xC /* 0000454C */
label00004542:
00004542  202C 0006                move.l     D0, [A4 + 0x6]
00004546  B0AD B658                cmp.l      D0, [A5 - 0x49A8]
0000454A  6690                     bne        -0x6E /* 000044DC */
label0000454C:
0000454C  3D47 0008                move.w     [A6 + 0x8], D7
label00004550:
00004550  4CDF 1080                movem.l    D7,A4, [A7]+
00004554  4E5E                     unlink     A6
00004556  4E75                     rts
export_524:
00004558  4E56 FFD6                link       A6, -0x002A
0000455C  48E7 0318                movem.l    -[A7], D6,D7,A3,A4
00004560  206E 0008                movea.l    A0, [A6 + 0x8]
00004564  43EE FFE0                lea.l      A1, [A6 - 0x20]
00004568  7007                     moveq.l    D0, 0x07
label0000456A:
0000456A  22D8                     move.l     [A1]+, [A0]+
0000456C  51C8 FFFC                dbf        D0, -0x6 /* 0000456A */
00004570  426E 0010                clr.w      [A6 + 0x10]
00004574  286E 000C                movea.l    A4, [A6 + 0xC]
00004578  7001                     moveq.l    D0, 0x01
0000457A  B054                     cmp.w      D0, [A4]
0000457C  6F02                     ble        +0x4 /* 00004580 */
0000457E  605C                     bra        +0x5E /* 000045DC */
label00004580:
00004580  4267                     clr.w      -[A7]
00004582  486E FFE0                pea.l      [A6 - 0x20]
00004586  487A 0060                pea.l      [PC + 0x60 /* 000045E8, value 0x2697400, pstring "it" */]
0000458A  4EAD 1AC2                jsr        [A5 + 0x1AC2 /* export_852, CODE:16 @ 00001B82 */]
0000458E  101F                     move.b     D0, [A7]+
00004590  6708                     beq        +0xA /* 0000459A */
00004592  3D6C 0004 0010           move.w     [A6 + 0x10], [A4 + 0x4]
00004598  6042                     bra        +0x44 /* 000045DC */
label0000459A:
0000459A  4267                     clr.w      -[A7]
0000459C  486E FFE0                pea.l      [A6 - 0x20]
000045A0  2F2C 0006                move.l     -[A7], [A4 + 0x6]
000045A4  4EAD 1AD2                jsr        [A5 + 0x1AD2 /* export_854, CODE:16 @ 00001BF0 */]
000045A8  3C1F                     move.w     D6, [A7]+
000045AA  4A46                     tst.w      D6
000045AC  672E                     beq        +0x30 /* 000045DC */
000045AE  3D54 FFD6                move.w     [A6 - 0x2A], [A4]
000045B2  7E01                     moveq.l    D7, 0x01
000045B4  6020                     bra        +0x22 /* 000045D6 */
label000045B6:
000045B6  206C 000A                movea.l    A0, [A4 + 0xA]
000045BA  3007                     move.w     D0, D7
000045BC  5340                     subq.w     D0, 1
000045BE  C1FC 000E                muls.w     D0, 0xE
000045C2  48C0                     ext.l      D0
000045C4  2640                     movea.l    A3, D0
000045C6  D7D0                     add.l      A3, [A0]
000045C8  BC53                     cmp.w      D6, [A3]
000045CA  6606                     bne        +0x8 /* 000045D2 */
000045CC  3D47 0010                move.w     [A6 + 0x10], D7
000045D0  600A                     bra        +0xC /* 000045DC */
label000045D2:
000045D2  5247                     addq.w     D7, 1
000045D4  6906                     bvs        +0x8 /* 000045DC */
label000045D6:
000045D6  BE6E FFD6                cmp.w      D7, [A6 - 0x2A]
000045DA  6FDA                     ble        -0x24 /* 000045B6 */
label000045DC:
000045DC  4CDF 18C0                movem.l    D6,D7,A3,A4, [A7]+
000045E0  4E5E                     unlink     A6
000045E2  205F                     movea.l    A0, [A7]+
000045E4  504F                     addq.w     A7, 8
000045E6  4ED0                     jmp        [A0]
000045E8  0269 7400 4E56           andi.w     [A1 + 0x4E56], 0x7400 /* 't\0' */
// begin alternate branch 000045EC-000045F0
export_525:
000045EC  4E56 FFFE                link       A6, -0x0002
// end alternate branch 000045EC-000045F0
export_525: // at 000045EC (misaligned)
000045EE  FFFE                     .invalid   <<F/7/7>>
000045F0  48E7 0108                movem.l    -[A7], D7,A4
000045F4  7E01                     moveq.l    D7, 0x01
000045F6  602E                     bra        +0x30 /* 00004626 */
label000045F8:
000045F8  3007                     move.w     D0, D7
000045FA  5340                     subq.w     D0, 1
000045FC  41ED C212                lea.l      A0, [A5 - 0x3DEE]
00004600  C1FC 002C                muls.w     D0, 0x2C /* ',' */
00004604  49F0 0000                lea.l      A4, [A0 + D0.w]
00004608  4A14                     tst.b      [A4]
0000460A  56C0                     sne        D0
0000460C  4A00                     tst.b      D0
0000460E  6714                     beq        +0x16 /* 00004624 */
00004610  222C 0002                move.l     D1, [A4 + 0x2]
00004614  B2AE 000A                cmp.l      D1, [A6 + 0xA]
00004618  57C1                     seq        D1
0000461A  C001                     and.b      D0, D1
0000461C  6706                     beq        +0x8 /* 00004624 */
0000461E  3F07                     move.w     -[A7], D7
00004620  4EBA 016A                jsr        [PC + 0x16A /* 0000478C */]
label00004624:
00004624  5247                     addq.w     D7, 1
label00004626:
00004626  7040                     moveq.l    D0, 0x40
00004628  B047                     cmp.w      D0, D7
0000462A  6CCC                     bge        -0x32 /* 000045F8 */
0000462C  4CDF 1080                movem.l    D7,A4, [A7]+
00004630  4E5E                     unlink     A6
00004632  205F                     movea.l    A0, [A7]+
00004634  5C4F                     addq.w     A7, 6
00004636  4ED0                     jmp        [A0]
export_526:
00004638  4E56 FFFE                link       A6, -0x0002
0000463C  48E7 0108                movem.l    -[A7], D7,A4
00004640  7E01                     moveq.l    D7, 0x01
00004642  6054                     bra        +0x56 /* 00004698 */
label00004644:
00004644  3007                     move.w     D0, D7
00004646  5340                     subq.w     D0, 1
00004648  41ED C212                lea.l      A0, [A5 - 0x3DEE]
0000464C  C1FC 002C                muls.w     D0, 0x2C /* ',' */
00004650  49F0 0000                lea.l      A4, [A0 + D0.w]
00004654  202C 0002                move.l     D0, [A4 + 0x2]
00004658  B0AD F4E0                cmp.l      D0, [A5 - 0xB20]
0000465C  57C0                     seq        D0
0000465E  4A00                     tst.b      D0
00004660  6734                     beq        +0x36 /* 00004696 */
00004662  7203                     moveq.l    D1, 0x03
00004664  B214                     cmp.b      D1, [A4]
00004666  57C1                     seq        D1
00004668  4A01                     tst.b      D1
0000466A  6616                     bne        +0x18 /* 00004682 */
0000466C  7402                     moveq.l    D2, 0x02
0000466E  B414                     cmp.b      D2, [A4]
00004670  57C2                     seq        D2
00004672  8202                     or.b       D1, D2
00004674  660C                     bne        +0xE /* 00004682 */
00004676  7401                     moveq.l    D2, 0x01
00004678  B414                     cmp.b      D2, [A4]
0000467A  57C2                     seq        D2
0000467C  8202                     or.b       D1, D2
0000467E  C001                     and.b      D0, D1
00004680  6714                     beq        +0x16 /* 00004696 */
label00004682:
00004682  222C 0006                move.l     D1, [A4 + 0x6]
00004686  B2AE 000A                cmp.l      D1, [A6 + 0xA]
0000468A  57C1                     seq        D1
0000468C  C001                     and.b      D0, D1
0000468E  6706                     beq        +0x8 /* 00004696 */
00004690  3F07                     move.w     -[A7], D7
00004692  4EBA 00F8                jsr        [PC + 0xF8 /* 0000478C */]
label00004696:
00004696  5247                     addq.w     D7, 1
label00004698:
00004698  7040                     moveq.l    D0, 0x40
0000469A  B047                     cmp.w      D0, D7
0000469C  6CA6                     bge        -0x58 /* 00004644 */
0000469E  4CDF 1080                movem.l    D7,A4, [A7]+
000046A2  4E5E                     unlink     A6
000046A4  205F                     movea.l    A0, [A7]+
000046A6  5C4F                     addq.w     A7, 6
000046A8  4ED0                     jmp        [A0]
export_527:
000046AA  4E56 FFFE                link       A6, -0x0002
000046AE  48E7 1108                movem.l    -[A7], D3,D7,A4
000046B2  7E01                     moveq.l    D7, 0x01
000046B4  605A                     bra        +0x5C /* 00004710 */
label000046B6:
000046B6  3007                     move.w     D0, D7
000046B8  5340                     subq.w     D0, 1
000046BA  41ED C212                lea.l      A0, [A5 - 0x3DEE]
000046BE  C1FC 002C                muls.w     D0, 0x2C /* ',' */
000046C2  49F0 0000                lea.l      A4, [A0 + D0.w]
000046C6  202C 0002                move.l     D0, [A4 + 0x2]
000046CA  B0AD F4E0                cmp.l      D0, [A5 - 0xB20]
000046CE  57C0                     seq        D0
000046D0  4A00                     tst.b      D0
000046D2  673A                     beq        +0x3C /* 0000470E */
000046D4  7202                     moveq.l    D1, 0x02
000046D6  B214                     cmp.b      D1, [A4]
000046D8  57C1                     seq        D1
000046DA  4A01                     tst.b      D1
000046DC  670E                     beq        +0x10 /* 000046EC */
000046DE  242C 000A                move.l     D2, [A4 + 0xA]
000046E2  B4AE 000A                cmp.l      D2, [A6 + 0xA]
000046E6  57C2                     seq        D2
000046E8  C202                     and.b      D1, D2
000046EA  661C                     bne        +0x1E /* 00004708 */
label000046EC:
000046EC  7401                     moveq.l    D2, 0x01
000046EE  B414                     cmp.b      D2, [A4]
000046F0  57C2                     seq        D2
000046F2  4A02                     tst.b      D2
000046F4  6718                     beq        +0x1A /* 0000470E */
000046F6  262C 0010                move.l     D3, [A4 + 0x10]
000046FA  B6AE 000A                cmp.l      D3, [A6 + 0xA]
000046FE  57C3                     seq        D3
00004700  C403                     and.b      D2, D3
00004702  8202                     or.b       D1, D2
00004704  C001                     and.b      D0, D1
00004706  6706                     beq        +0x8 /* 0000470E */
label00004708:
00004708  3F07                     move.w     -[A7], D7
0000470A  4EBA 0080                jsr        [PC + 0x80 /* 0000478C */]
label0000470E:
0000470E  5247                     addq.w     D7, 1
label00004710:
00004710  7040                     moveq.l    D0, 0x40
00004712  B047                     cmp.w      D0, D7
00004714  6CA0                     bge        -0x5E /* 000046B6 */
00004716  4CDF 1088                movem.l    D3,D7,A4, [A7]+
0000471A  4E5E                     unlink     A6
0000471C  205F                     movea.l    A0, [A7]+
0000471E  5C4F                     addq.w     A7, 6
00004720  4ED0                     jmp        [A0]
export_528:
00004722  4E56 FFFE                link       A6, -0x0002
00004726  48E7 0108                movem.l    -[A7], D7,A4
0000472A  7E01                     moveq.l    D7, 0x01
0000472C  604C                     bra        +0x4E /* 0000477A */
label0000472E:
0000472E  3007                     move.w     D0, D7
00004730  5340                     subq.w     D0, 1
00004732  41ED C212                lea.l      A0, [A5 - 0x3DEE]
00004736  C1FC 002C                muls.w     D0, 0x2C /* ',' */
0000473A  49F0 0000                lea.l      A4, [A0 + D0.w]
0000473E  7001                     moveq.l    D0, 0x01
00004740  B014                     cmp.b      D0, [A4]
00004742  57C0                     seq        D0
00004744  4A00                     tst.b      D0
00004746  6730                     beq        +0x32 /* 00004778 */
00004748  222C 0002                move.l     D1, [A4 + 0x2]
0000474C  B2AD F4E0                cmp.l      D1, [A5 - 0xB20]
00004750  57C1                     seq        D1
00004752  C001                     and.b      D0, D1
00004754  6722                     beq        +0x24 /* 00004778 */
00004756  222C 0010                move.l     D1, [A4 + 0x10]
0000475A  B2AE 000A                cmp.l      D1, [A6 + 0xA]
0000475E  57C1                     seq        D1
00004760  C001                     and.b      D0, D1
00004762  6714                     beq        +0x16 /* 00004778 */
00004764  322C 000E                move.w     D1, [A4 + 0xE]
00004768  B26E 0008                cmp.w      D1, [A6 + 0x8]
0000476C  57C1                     seq        D1
0000476E  C001                     and.b      D0, D1
00004770  6706                     beq        +0x8 /* 00004778 */
00004772  3F07                     move.w     -[A7], D7
00004774  4EBA 0016                jsr        [PC + 0x16 /* 0000478C */]
label00004778:
00004778  5247                     addq.w     D7, 1
label0000477A:
0000477A  7040                     moveq.l    D0, 0x40
0000477C  B047                     cmp.w      D0, D7
0000477E  6CAE                     bge        -0x50 /* 0000472E */
00004780  4CDF 1080                movem.l    D7,A4, [A7]+
00004784  4E5E                     unlink     A6
00004786  205F                     movea.l    A0, [A7]+
00004788  5C4F                     addq.w     A7, 6
0000478A  4ED0                     jmp        [A0]
fn0000478C:
0000478C  4E56 0000                link       A6, 0
00004790  302E 0008                move.w     D0, [A6 + 0x8]
00004794  5340                     subq.w     D0, 1
00004796  41ED C212                lea.l      A0, [A5 - 0x3DEE]
0000479A  C1FC 002C                muls.w     D0, 0x2C /* ',' */
0000479E  4A70 001C                tst.w      [A0 + D0.w + 0x1C]
000047A2  660A                     bne        +0xC /* 000047AE */
000047A4  3F2E 0008                move.w     -[A7], [A6 + 0x8]
000047A8  4EBA 0068                jsr        [PC + 0x68 /* 00004812 */]
000047AC  6014                     bra        +0x16 /* 000047C2 */
label000047AE:
000047AE  302E 0008                move.w     D0, [A6 + 0x8]
000047B2  5340                     subq.w     D0, 1
000047B4  41ED C212                lea.l      A0, [A5 - 0x3DEE]
000047B8  C1FC 002C                muls.w     D0, 0x2C /* ',' */
000047BC  11BC 0001 0022           move.b     [A0 + D0.w + 0x22], 0x1
label000047C2:
000047C2  4E5E                     unlink     A6
000047C4  205F                     movea.l    A0, [A7]+
000047C6  544F                     addq.w     A7, 2
000047C8  4ED0                     jmp        [A0]
export_529:
fn000047CA:
000047CA  4E56 FFFC                link       A6, -0x0004
000047CE  2F07                     move.l     -[A7], D7
000047D0  3D6D C210 FFFC           move.w     [A6 - 0x4], [A5 - 0x3DF0]
000047D6  7E01                     moveq.l    D7, 0x01
000047D8  602A                     bra        +0x2C /* 00004804 */
label000047DA:
000047DA  4267                     clr.w      -[A7]
000047DC  3007                     move.w     D0, D7
000047DE  5340                     subq.w     D0, 1
000047E0  41ED C212                lea.l      A0, [A5 - 0x3DEE]
000047E4  C1FC 002C                muls.w     D0, 0x2C /* ',' */
000047E8  4870 0000                pea.l      [A0 + D0.w]
000047EC  2F2E 0008                move.l     -[A7], [A6 + 0x8]
000047F0  4EAD 09DA                jsr        [A5 + 0x9DA /* export_311, CODE:8 @ 00000F3C */]
000047F4  101F                     move.b     D0, [A7]+
000047F6  6708                     beq        +0xA /* 00004800 */
000047F8  3F07                     move.w     -[A7], D7
000047FA  4EBA FF90                jsr        [PC - 0x70 /* 0000478C */]
000047FE  600A                     bra        +0xC /* 0000480A */
label00004800:
00004800  5247                     addq.w     D7, 1
00004802  6906                     bvs        +0x8 /* 0000480A */
label00004804:
00004804  BE6E FFFC                cmp.w      D7, [A6 - 0x4]
00004808  6FD0                     ble        -0x2E /* 000047DA */
label0000480A:
0000480A  2E1F                     move.l     D7, [A7]+
0000480C  4E5E                     unlink     A6
0000480E  2E9F                     move.l     [A7], [A7]+
00004810  4E75                     rts
export_530:
fn00004812:
00004812  4E56 FFFC                link       A6, -0x0004
00004816  48E7 0018                movem.l    -[A7], A3,A4
0000481A  302E 0008                move.w     D0, [A6 + 0x8]
0000481E  5340                     subq.w     D0, 1
00004820  41ED C212                lea.l      A0, [A5 - 0x3DEE]
00004824  C1FC 002C                muls.w     D0, 0x2C /* ',' */
00004828  49F0 0000                lea.l      A4, [A0 + D0.w]
0000482C  4AAC 0018                tst.l      [A4 + 0x18]
00004830  6708                     beq        +0xA /* 0000483A */
00004832  2F2C 0018                move.l     -[A7], [A4 + 0x18]
00004836  4EAD 18D2                jsr        [A5 + 0x18D2 /* export_790, CODE:16 @ 0000083E */]
label0000483A:
0000483A  4AAC 0024                tst.l      [A4 + 0x24]
0000483E  6708                     beq        +0xA /* 00004848 */
00004840  2F2C 0024                move.l     -[A7], [A4 + 0x24]
00004844  4EAD 18D2                jsr        [A5 + 0x18D2 /* export_790, CODE:16 @ 0000083E */]
label00004848:
00004848  4AAC 0028                tst.l      [A4 + 0x28]
0000484C  6708                     beq        +0xA /* 00004856 */
0000484E  2F2C 0028                move.l     -[A7], [A4 + 0x28]
00004852  4EAD 18D2                jsr        [A5 + 0x18D2 /* export_790, CODE:16 @ 0000083E */]
label00004856:
00004856  4AAC 001E                tst.l      [A4 + 0x1E]
0000485A  672E                     beq        +0x30 /* 0000488A */
0000485C  2F2C 001E                move.l     -[A7], [A4 + 0x1E]
00004860  4EAD 0222                jsr        [A5 + 0x222 /* export_64, CODE:1 @ 00004678 */]
00004864  206C 001E                movea.l    A0, [A4 + 0x1E]
00004868  2650                     movea.l    A3, [A0]
label0000486A:
0000486A  4A53                     tst.w      [A3]
0000486C  6714                     beq        +0x16 /* 00004882 */
0000486E  4AAB 0008                tst.l      [A3 + 0x8]
00004872  6708                     beq        +0xA /* 0000487C */
00004874  2F2B 0008                move.l     -[A7], [A3 + 0x8]
00004878  4EAD 18D2                jsr        [A5 + 0x18D2 /* export_790, CODE:16 @ 0000083E */]
label0000487C:
0000487C  700E                     moveq.l    D0, 0x0E
0000487E  D7C0                     add.l      A3, D0
00004880  60E8                     bra        -0x16 /* 0000486A */
label00004882:
00004882  2F2C 001E                move.l     -[A7], [A4 + 0x1E]
00004886  4EAD 18D2                jsr        [A5 + 0x18D2 /* export_790, CODE:16 @ 0000083E */]
label0000488A:
0000488A  302E 0008                move.w     D0, [A6 + 0x8]
0000488E  5340                     subq.w     D0, 1
00004890  41ED C212                lea.l      A0, [A5 - 0x3DEE]
00004894  C1FC 002C                muls.w     D0, 0x2C /* ',' */
00004898  4870 0000                pea.l      [A0 + D0.w]
0000489C  702C                     moveq.l    D0, 0x2C
0000489E  2F00                     move.l     -[A7], D0
000048A0  4EAD 1B42                jsr        [A5 + 0x1B42 /* export_868, CODE:16 @ 00001E7C */]
000048A4  4214                     clr.b      [A4]
000048A6  422C 0022                clr.b      [A4 + 0x22]
000048AA  4CDF 1800                movem.l    A3,A4, [A7]+
000048AE  4E5E                     unlink     A6
000048B0  205F                     movea.l    A0, [A7]+
000048B2  544F                     addq.w     A7, 2
000048B4  4ED0                     jmp        [A0]
export_531:
000048B6  4E56 0000                link       A6, 0
000048BA  2F2D AADE                move.l     -[A7], [A5 - 0x5522]
000048BE  7002                     moveq.l    D0, 0x02
000048C0  2F00                     move.l     -[A7], D0
000048C2  4EAD 020A                jsr        [A5 + 0x20A /* export_61, CODE:1 @ 00004654 */]
000048C6  206D AADE                movea.l    A0, [A5 - 0x5522]
000048CA  2050                     movea.l    A0, [A0]
000048CC  4250                     clr.w      [A0]
000048CE  4E5E                     unlink     A6
000048D0  4E75                     rts
fn000048D2:
000048D2  4E56 FEF2                link       A6, -0x010E
000048D6  48E7 0318                movem.l    -[A7], D6,D7,A3,A4
000048DA  286E 0008                movea.l    A4, [A6 + 0x8]
label000048DE:
000048DE  486C FFF8                pea.l      [A4 - 0x8]
000048E2  4EAD 1ABA                jsr        [A5 + 0x1ABA /* export_851, CODE:16 @ 00001B6E */]
000048E6  266C FFF8                movea.l    A3, [A4 - 0x8]
000048EA  422C FFF1                clr.b      [A4 - 0xF]
000048EE  426C FFF4                clr.w      [A4 - 0xC]
000048F2  7000                     moveq.l    D0, 0x00
000048F4  1013                     move.b     D0, [A3]
000048F6  C0BC 0000 00FF           and.l      D0, 0xFF
000048FC  41ED BE02                lea.l      A0, [A5 - 0x41FE]
00004900  1230 0000                move.b     D1, [A0 + D0.w]
00004904  4881                     ext.w      D1
00004906  6B00 0352                bmi        +0x354 /* 00004C5A */
0000490A  0C41 0007                cmpi.w     D1, 0x7
0000490E  6E00 034A                bgt        +0x34C /* 00004C5A */
00004912  D241                     add.w      D1, D1
00004914  323B 1006                move.w     D1, [PC + D1.w + 0x6]
00004918  4EFB 1000                jmp        [PC + D1.w]
0000491C  031E                     btst       [A6]+, D1
0000491E  010C                     btst       A4, D0
00004920  02D0                     .incomplete
00004922  0252 00A0                andi.w     [A2], 0xA0
00004926  00A0 0012 022C           ori.l      -[A0], 0x12022C
0000492C  2D4B FEF6                move.l     [A6 - 0x10A], A3
label00004930:
00004930  7000                     moveq.l    D0, 0x00
00004932  206E FEF6                movea.l    A0, [A6 - 0x10A]
00004936  1010                     move.b     D0, [A0]
00004938  C0BC 0000 00FF           and.l      D0, 0xFF
0000493E  41ED BE02                lea.l      A0, [A5 - 0x41FE]
00004942  7206                     moveq.l    D1, 0x06
00004944  B230 0000                cmp.b      D1, [A0 + D0.w]
00004948  57C0                     seq        D0
0000494A  4A00                     tst.b      D0
0000494C  661E                     bne        +0x20 /* 0000496C */
0000494E  7200                     moveq.l    D1, 0x00
00004950  206E FEF6                movea.l    A0, [A6 - 0x10A]
00004954  1210                     move.b     D1, [A0]
00004956  C2BC 0000 00FF           and.l      D1, 0xFF
0000495C  41ED BE02                lea.l      A0, [A5 - 0x41FE]
00004960  7404                     moveq.l    D2, 0x04
00004962  B430 1000                cmp.b      D2, [A0 + D1.w]
00004966  57C1                     seq        D1
00004968  8001                     or.b       D0, D1
0000496A  6706                     beq        +0x8 /* 00004972 */
label0000496C:
0000496C  52AE FEF6                addq.l     [A6 - 0x10A], 1
00004970  60BE                     bra        -0x40 /* 00004930 */
label00004972:
00004972  206E FEF6                movea.l    A0, [A6 - 0x10A]
00004976  1010                     move.b     D0, [A0]
00004978  4880                     ext.w      D0
0000497A  3E00                     move.w     D7, D0
0000497C  206E FEF6                movea.l    A0, [A6 - 0x10A]
00004980  4210                     clr.b      [A0]
00004982  2F0B                     move.l     -[A7], A3
00004984  486E FEFE                pea.l      [A6 - 0x102]
00004988  4EAD 1B5A                jsr        [A5 + 0x1B5A /* export_871, CODE:16 @ 00001ECC */]
0000498C  206E FEF6                movea.l    A0, [A6 - 0x10A]
00004990  1087                     move.b     [A0], D7
00004992  4267                     clr.w      -[A7]
00004994  486E FEFE                pea.l      [A6 - 0x102]
00004998  486C FFF0                pea.l      [A4 - 0x10]
0000499C  486E FEFC                pea.l      [A6 - 0x104]
000049A0  486C FFF4                pea.l      [A4 - 0xC]
000049A4  4EAD 0A22                jsr        [A5 + 0xA22 /* export_320, CODE:8 @ 00001792 */]
000049A8  1C1F                     move.b     D6, [A7]+
000049AA  196E FEFD FFF1           move.b     [A4 - 0xF], [A6 - 0x103]
000049B0  296E FEF6 FFF8           move.l     [A4 - 0x8], [A6 - 0x10A]
000049B6  6000 02A2                bra        +0x2A4 /* 00004C5A */
000049BA  197C 0007 FFF0           move.b     [A4 - 0x10], 0x7
000049C0  2D4B FEF6                move.l     [A6 - 0x10A], A3
label000049C4:
000049C4  7000                     moveq.l    D0, 0x00
000049C6  206E FEF6                movea.l    A0, [A6 - 0x10A]
000049CA  1010                     move.b     D0, [A0]
000049CC  C0BC 0000 00FF           and.l      D0, 0xFF
000049D2  41ED BE02                lea.l      A0, [A5 - 0x41FE]
000049D6  7204                     moveq.l    D1, 0x04
000049D8  B230 0000                cmp.b      D1, [A0 + D0.w]
000049DC  6606                     bne        +0x8 /* 000049E4 */
000049DE  52AE FEF6                addq.l     [A6 - 0x10A], 1
000049E2  60E0                     bra        -0x1E /* 000049C4 */
label000049E4:
000049E4  7000                     moveq.l    D0, 0x00
000049E6  206E FEF6                movea.l    A0, [A6 - 0x10A]
000049EA  1010                     move.b     D0, [A0]
000049EC  C0BC 0000 00FF           and.l      D0, 0xFF
000049F2  41ED BE02                lea.l      A0, [A5 - 0x41FE]
000049F6  7205                     moveq.l    D1, 0x05
000049F8  B230 0000                cmp.b      D1, [A0 + D0.w]
000049FC  661E                     bne        +0x20 /* 00004A1C */
label000049FE:
000049FE  52AE FEF6                addq.l     [A6 - 0x10A], 1
00004A02  7000                     moveq.l    D0, 0x00
00004A04  206E FEF6                movea.l    A0, [A6 - 0x10A]
00004A08  1010                     move.b     D0, [A0]
00004A0A  C0BC 0000 00FF           and.l      D0, 0xFF
00004A10  41ED BE02                lea.l      A0, [A5 - 0x41FE]
00004A14  7204                     moveq.l    D1, 0x04
00004A16  B230 0000                cmp.b      D1, [A0 + D0.w]
00004A1A  67E2                     beq        -0x1C /* 000049FE */
label00004A1C:
00004A1C  296E FEF6 FFF8           move.l     [A4 - 0x8], [A6 - 0x10A]
00004A22  6000 0236                bra        +0x238 /* 00004C5A */
00004A26  197C 0005 FFF0           move.b     [A4 - 0x10], 0x5
00004A2C  7000                     moveq.l    D0, 0x00
00004A2E  1013                     move.b     D0, [A3]
00004A30  C0BC 0000 00FF           and.l      D0, 0xFF
00004A36  41ED BD02                lea.l      A0, [A5 - 0x42FE]
00004A3A  1970 0000 FFF1           move.b     [A4 - 0xF], [A0 + D0.w]
00004A40  200B                     move.l     D0, A3
00004A42  5280                     addq.l     D0, 1
00004A44  2D40 FEF6                move.l     [A6 - 0x10A], D0
00004A48  102C FFF1                move.b     D0, [A4 - 0xF]
00004A4C  4880                     ext.w      D0
00004A4E  5340                     subq.w     D0, 1
00004A50  6700 00C6                beq        +0xC8 /* 00004B18 */
00004A54  0440 0009                subi.w     D0, 0x9 /* '\t' */
00004A58  675A                     beq        +0x5C /* 00004AB4 */
00004A5A  5D40                     subq.w     D0, 6
00004A5C  6708                     beq        +0xA /* 00004A66 */
00004A5E  5340                     subq.w     D0, 1
00004A60  6778                     beq        +0x7A /* 00004ADA */
00004A62  6000 00D8                bra        +0xDA /* 00004B3C */
label00004A66:
00004A66  7000                     moveq.l    D0, 0x00
00004A68  206E FEF6                movea.l    A0, [A6 - 0x10A]
00004A6C  1010                     move.b     D0, [A0]
00004A6E  C0BC 0000 00FF           and.l      D0, 0xFF
00004A74  41ED BD02                lea.l      A0, [A5 - 0x42FE]
00004A78  7207                     moveq.l    D1, 0x07
00004A7A  B230 0000                cmp.b      D1, [A0 + D0.w]
00004A7E  660C                     bne        +0xE /* 00004A8C */
00004A80  197C 000F FFF1           move.b     [A4 - 0xF], 0xF
00004A86  52AE FEF6                addq.l     [A6 - 0x10A], 1
00004A8A  6024                     bra        +0x26 /* 00004AB0 */
label00004A8C:
00004A8C  7000                     moveq.l    D0, 0x00
00004A8E  206E FEF6                movea.l    A0, [A6 - 0x10A]
00004A92  1010                     move.b     D0, [A0]
00004A94  C0BC 0000 00FF           and.l      D0, 0xFF
00004A9A  41ED BD02                lea.l      A0, [A5 - 0x42FE]
00004A9E  720A                     moveq.l    D1, 0x0A
00004AA0  B230 0000                cmp.b      D1, [A0 + D0.w]
00004AA4  660A                     bne        +0xC /* 00004AB0 */
00004AA6  197C 0013 FFF1           move.b     [A4 - 0xF], 0x13
00004AAC  52AE FEF6                addq.l     [A6 - 0x10A], 1
label00004AB0:
00004AB0  6000 008A                bra        +0x8C /* 00004B3C */
label00004AB4:
00004AB4  7000                     moveq.l    D0, 0x00
00004AB6  206E FEF6                movea.l    A0, [A6 - 0x10A]
00004ABA  1010                     move.b     D0, [A0]
00004ABC  C0BC 0000 00FF           and.l      D0, 0xFF
00004AC2  41ED BD02                lea.l      A0, [A5 - 0x42FE]
00004AC6  7207                     moveq.l    D1, 0x07
00004AC8  B230 0000                cmp.b      D1, [A0 + D0.w]
00004ACC  660A                     bne        +0xC /* 00004AD8 */
00004ACE  197C 0009 FFF1           move.b     [A4 - 0xF], 0x9 /* '\t' */
00004AD4  52AE FEF6                addq.l     [A6 - 0x10A], 1
label00004AD8:
00004AD8  6062                     bra        +0x64 /* 00004B3C */
label00004ADA:
00004ADA  7000                     moveq.l    D0, 0x00
00004ADC  206E FEF6                movea.l    A0, [A6 - 0x10A]
00004AE0  1010                     move.b     D0, [A0]
00004AE2  C0BC 0000 00FF           and.l      D0, 0xFF
00004AE8  41ED BD02                lea.l      A0, [A5 - 0x42FE]
00004AEC  7211                     moveq.l    D1, 0x11
00004AEE  B230 0000                cmp.b      D1, [A0 + D0.w]
00004AF2  6622                     bne        +0x24 /* 00004B16 */
00004AF4  197C 0002 FFF0           move.b     [A4 - 0x10], 0x2
00004AFA  422C FFF1                clr.b      [A4 - 0xF]
00004AFE  486E FEF6                pea.l      [A6 - 0x10A]
00004B02  4EAD 1AA2                jsr        [A5 + 0x1AA2 /* export_848, CODE:16 @ 00001A3E */]
00004B06  266E FEF6                movea.l    A3, [A6 - 0x10A]
00004B0A  206E FEF6                movea.l    A0, [A6 - 0x10A]
00004B0E  4A10                     tst.b      [A0]
00004B10  6704                     beq        +0x6 /* 00004B16 */
00004B12  52AE FEF6                addq.l     [A6 - 0x10A], 1
label00004B16:
00004B16  6024                     bra        +0x26 /* 00004B3C */
label00004B18:
00004B18  7000                     moveq.l    D0, 0x00
00004B1A  206E FEF6                movea.l    A0, [A6 - 0x10A]
00004B1E  1010                     move.b     D0, [A0]
00004B20  C0BC 0000 00FF           and.l      D0, 0xFF
00004B26  41ED BD02                lea.l      A0, [A5 - 0x42FE]
00004B2A  7201                     moveq.l    D1, 0x01
00004B2C  B230 0000                cmp.b      D1, [A0 + D0.w]
00004B30  660A                     bne        +0xC /* 00004B3C */
00004B32  197C 0002 FFF1           move.b     [A4 - 0xF], 0x2
00004B38  52AE FEF6                addq.l     [A6 - 0x10A], 1
label00004B3C:
00004B3C  296E FEF6 FFF8           move.l     [A4 - 0x8], [A6 - 0x10A]
00004B42  6000 0116                bra        +0x118 /* 00004C5A */
00004B46  197C 0002 FFF0           move.b     [A4 - 0x10], 0x2
00004B4C  422C FFF1                clr.b      [A4 - 0xF]
00004B50  200B                     move.l     D0, A3
00004B52  5280                     addq.l     D0, 1
00004B54  2D40 FEF6                move.l     [A6 - 0x10A], D0
00004B58  294B FFF8                move.l     [A4 - 0x8], A3
00004B5C  206C FFF8                movea.l    A0, [A4 - 0x8]
00004B60  4A10                     tst.b      [A0]
00004B62  6704                     beq        +0x6 /* 00004B68 */
00004B64  52AC FFF8                addq.l     [A4 - 0x8], 1
label00004B68:
00004B68  6000 00F0                bra        +0xF2 /* 00004C5A */
00004B6C  197C 0007 FFF0           move.b     [A4 - 0x10], 0x7
00004B72  528B                     addq.l     A3, 1
00004B74  294B FFF8                move.l     [A4 - 0x8], A3
label00004B78:
00004B78  7000                     moveq.l    D0, 0x00
00004B7A  206C FFF8                movea.l    A0, [A4 - 0x8]
00004B7E  1010                     move.b     D0, [A0]
00004B80  C0BC 0000 00FF           and.l      D0, 0xFF
00004B86  41ED BE02                lea.l      A0, [A5 - 0x41FE]
00004B8A  7203                     moveq.l    D1, 0x03
00004B8C  B230 0000                cmp.b      D1, [A0 + D0.w]
00004B90  56C0                     sne        D0
00004B92  4A00                     tst.b      D0
00004B94  6724                     beq        +0x26 /* 00004BBA */
00004B96  7200                     moveq.l    D1, 0x00
00004B98  206C FFF8                movea.l    A0, [A4 - 0x8]
00004B9C  1210                     move.b     D1, [A0]
00004B9E  C2BC 0000 00FF           and.l      D1, 0xFF
00004BA4  41ED BE02                lea.l      A0, [A5 - 0x41FE]
00004BA8  7407                     moveq.l    D2, 0x07
00004BAA  B430 1000                cmp.b      D2, [A0 + D1.w]
00004BAE  56C1                     sne        D1
00004BB0  C001                     and.b      D0, D1
00004BB2  6706                     beq        +0x8 /* 00004BBA */
00004BB4  52AC FFF8                addq.l     [A4 - 0x8], 1
00004BB8  60BE                     bra        -0x40 /* 00004B78 */
label00004BBA:
00004BBA  2D6C FFF8 FEF6           move.l     [A6 - 0x10A], [A4 - 0x8]
00004BC0  7000                     moveq.l    D0, 0x00
00004BC2  206C FFF8                movea.l    A0, [A4 - 0x8]
00004BC6  1010                     move.b     D0, [A0]
00004BC8  C0BC 0000 00FF           and.l      D0, 0xFF
00004BCE  41ED BE02                lea.l      A0, [A5 - 0x41FE]
00004BD2  7203                     moveq.l    D1, 0x03
00004BD4  B230 0000                cmp.b      D1, [A0 + D0.w]
00004BD8  6606                     bne        +0x8 /* 00004BE0 */
00004BDA  52AC FFF8                addq.l     [A4 - 0x8], 1
00004BDE  607A                     bra        +0x7C /* 00004C5A */
label00004BE0:
00004BE0  197C 0004 FFF0           move.b     [A4 - 0x10], 0x4
00004BE6  538B                     subq.l     A3, 1
00004BE8  6070                     bra        +0x72 /* 00004C5A */
00004BEA  197C 0006 FFF0           move.b     [A4 - 0x10], 0x6
00004BF0  7000                     moveq.l    D0, 0x00
00004BF2  1013                     move.b     D0, [A3]
00004BF4  C0BC 0000 00FF           and.l      D0, 0xFF
00004BFA  41ED BD02                lea.l      A0, [A5 - 0x42FE]
00004BFE  1970 0000 FFF1           move.b     [A4 - 0xF], [A0 + D0.w]
00004C04  7004                     moveq.l    D0, 0x04
00004C06  B02C FFF1                cmp.b      D0, [A4 - 0xF]
00004C0A  661C                     bne        +0x1E /* 00004C28 */
00004C0C  52AC FFF8                addq.l     [A4 - 0x8], 1
00004C10  486C FFF8                pea.l      [A4 - 0x8]
00004C14  4EAD 1AA2                jsr        [A5 + 0x1AA2 /* export_848, CODE:16 @ 00001A3E */]
00004C18  206C FFF8                movea.l    A0, [A4 - 0x8]
00004C1C  4A10                     tst.b      [A0]
00004C1E  6704                     beq        +0x6 /* 00004C24 */
00004C20  52AC FFF8                addq.l     [A4 - 0x8], 1
label00004C24:
00004C24  6000 FCB8                bra        -0x346 /* 000048DE */
label00004C28:
00004C28  200B                     move.l     D0, A3
00004C2A  5280                     addq.l     D0, 1
00004C2C  2D40 FEF6                move.l     [A6 - 0x10A], D0
00004C30  296E FEF6 FFF8           move.l     [A4 - 0x8], [A6 - 0x10A]
00004C36  6022                     bra        +0x24 /* 00004C5A */
00004C38  197C 0004 FFF0           move.b     [A4 - 0x10], 0x4
00004C3E  7000                     moveq.l    D0, 0x00
00004C40  1013                     move.b     D0, [A3]
00004C42  C0BC 0000 00FF           and.l      D0, 0xFF
00004C48  1940 FFF1                move.b     [A4 - 0xF], D0
00004C4C  200B                     move.l     D0, A3
00004C4E  5280                     addq.l     D0, 1
00004C50  2D40 FEF6                move.l     [A6 - 0x10A], D0
00004C54  296E FEF6 FFF8           move.l     [A4 - 0x8], [A6 - 0x10A]
label00004C5A:
00004C5A  302C 0008                move.w     D0, [A4 + 0x8]
00004C5E  48C0                     ext.l      D0
00004C60  D08B                     add.l      D0, A3
00004C62  90AC 000A                sub.l      D0, [A4 + 0xA]
00004C66  3940 FFF2                move.w     [A4 - 0xE], D0
00004C6A  4A6C FFF4                tst.w      [A4 - 0xC]
00004C6E  660A                     bne        +0xC /* 00004C7A */
00004C70  202E FEF6                move.l     D0, [A6 - 0x10A]
00004C74  908B                     sub.l      D0, A3
00004C76  3940 FFF4                move.w     [A4 - 0xC], D0
label00004C7A:
00004C7A  4CDF 18C0                movem.l    D6,D7,A3,A4, [A7]+
00004C7E  4E5E                     unlink     A6
00004C80  2E9F                     move.l     [A7], [A7]+
00004C82  4E75                     rts
fn00004C84:
00004C84  4E56 FFFC                link       A6, -0x0004
00004C88  48E7 0018                movem.l    -[A7], A3,A4
00004C8C  286E 0008                movea.l    A4, [A6 + 0x8]
00004C90  206C FFE8                movea.l    A0, [A4 - 0x18]
00004C94  302C FFEC                move.w     D0, [A4 - 0x14]
00004C98  5340                     subq.w     D0, 1
00004C9A  C1FC 0006                muls.w     D0, 0x6
00004C9E  48C0                     ext.l      D0
00004CA0  2640                     movea.l    A3, D0
00004CA2  D7D0                     add.l      A3, [A0]
00004CA4  206E 000C                movea.l    A0, [A6 + 0xC]
00004CA8  224B                     movea.l    A1, A3
00004CAA  22D8                     move.l     [A1]+, [A0]+
00004CAC  3290                     move.w     [A1], [A0]
00004CAE  4CDF 1800                movem.l    A3,A4, [A7]+
00004CB2  4E5E                     unlink     A6
00004CB4  205F                     movea.l    A0, [A7]+
00004CB6  504F                     addq.w     A7, 8
00004CB8  4ED0                     jmp        [A0]
fn00004CBA:
00004CBA  4E56 FFFC                link       A6, -0x0004
00004CBE  48E7 0118                movem.l    -[A7], D7,A3,A4
00004CC2  2E2E 000C                move.l     D7, [A6 + 0xC]
00004CC6  286E 0008                movea.l    A4, [A6 + 0x8]
00004CCA  102C FFF7                move.b     D0, [A4 - 0x9]
00004CCE  670E                     beq        +0x10 /* 00004CDE */
00004CD0  2047                     movea.l    A0, D7
00004CD2  7202                     moveq.l    D1, 0x02
00004CD4  B210                     cmp.b      D1, [A0]
00004CD6  57C1                     seq        D1
00004CD8  C001                     and.b      D0, D1
00004CDA  6702                     beq        +0x4 /* 00004CDE */
00004CDC  606E                     bra        +0x70 /* 00004D4C */
label00004CDE:
00004CDE  2047                     movea.l    A0, D7
00004CE0  7002                     moveq.l    D0, 0x02
00004CE2  B010                     cmp.b      D0, [A0]
00004CE4  57C0                     seq        D0
00004CE6  4400                     neg.b      D0
00004CE8  1940 FFF7                move.b     [A4 - 0x9], D0
00004CEC  526C FFEC                addq.w     [A4 - 0x14], 1
00004CF0  302C FFEC                move.w     D0, [A4 - 0x14]
00004CF4  B06C FFEE                cmp.w      D0, [A4 - 0x12]
00004CF8  6F36                     ble        +0x38 /* 00004D30 */
00004CFA  066C 0040 FFEE           addi.w     [A4 - 0x12], 0x40 /* '@' */
00004D00  2F2C FFE8                move.l     -[A7], [A4 - 0x18]
00004D04  7006                     moveq.l    D0, 0x06
00004D06  C1EC FFEE                muls.w     D0, [A4 - 0x12]
00004D0A  48C0                     ext.l      D0
00004D0C  2F00                     move.l     -[A7], D0
00004D0E  4EAD 1982                jsr        [A5 + 0x1982 /* export_812, CODE:16 @ 00000EAC */]
00004D12  4267                     clr.w      -[A7]
00004D14  3EB8 0220                move.w     [A7], [0x00000220 /* MemErr */]
00004D18  4A5F                     tst.w      [A7]+
00004D1A  6714                     beq        +0x16 /* 00004D30 */
00004D1C  3F3C 002D                move.w     -[A7], 0x2D /* '-' */
00004D20  4EAD 098A                jsr        [A5 + 0x98A /* export_301, CODE:8 @ 00000B58 */]
00004D24  206E 0008                movea.l    A0, [A6 + 0x8]
00004D28  2C48                     movea.l    A6, A0
00004D2A  4EFA 0264                jmp        [PC + 0x264 /* 00004F90 */]
00004D2E  0000 206C                ori.b      D0, 0x6C /* 'l' */
// begin alternate branch 00004D30-00004D34
label00004D30:
00004D30  206C FFE8                movea.l    A0, [A4 - 0x18]
// end alternate branch 00004D30-00004D34
label00004D30: // (misaligned)
00004D32  FFE8                     .invalid   <<F/7/7>>
00004D34  302C FFEC                move.w     D0, [A4 - 0x14]
00004D38  5340                     subq.w     D0, 1
00004D3A  C1FC 0006                muls.w     D0, 0x6
00004D3E  48C0                     ext.l      D0
00004D40  2640                     movea.l    A3, D0
00004D42  D7D0                     add.l      A3, [A0]
00004D44  2047                     movea.l    A0, D7
00004D46  224B                     movea.l    A1, A3
00004D48  22D8                     move.l     [A1]+, [A0]+
00004D4A  3290                     move.w     [A1], [A0]
label00004D4C:
00004D4C  4CDF 1880                movem.l    D7,A3,A4, [A7]+
00004D50  4E5E                     unlink     A6
00004D52  205F                     movea.l    A0, [A7]+
00004D54  504F                     addq.w     A7, 8
00004D56  4ED0                     jmp        [A0]
export_532:
00004D58  4E56 FFE8                link       A6, -0x0018
00004D5C  48E7 1F38                movem.l    -[A7], D3,D4,D5,D6,D7,A2,A3,A4
00004D60  426E FFEC                clr.w      [A6 - 0x14]
00004D64  422E FFF7                clr.b      [A6 - 0x9]
00004D68  3D7C 0040 FFEE           move.w     [A6 - 0x12], 0x40 /* '@' */
00004D6E  42A7                     clr.l      -[A7]
00004D70  7006                     moveq.l    D0, 0x06
00004D72  C1EE FFEE                muls.w     D0, [A6 - 0x12]
00004D76  48C0                     ext.l      D0
00004D78  2F00                     move.l     -[A7], D0
00004D7A  4EAD 18DA                jsr        [A5 + 0x18DA /* export_791, CODE:16 @ 00000896 */]
00004D7E  2D5F FFE8                move.l     [A6 - 0x18], [A7]+
00004D82  661A                     bne        +0x1C /* 00004D9E */
00004D84  3F3C 002D                move.w     -[A7], 0x2D /* '-' */
00004D88  4EAD 098A                jsr        [A5 + 0x98A /* export_301, CODE:8 @ 00000B58 */]
00004D8C  42A7                     clr.l      -[A7]
00004D8E  7006                     moveq.l    D0, 0x06
00004D90  2F00                     move.l     -[A7], D0
00004D92  4EAD 18DA                jsr        [A5 + 0x18DA /* export_791, CODE:16 @ 00000896 */]
00004D96  2D5F FFE8                move.l     [A6 - 0x18], [A7]+
00004D9A  6000 01AC                bra        +0x1AE /* 00004F48 */
label00004D9E:
00004D9E  2D6E 000A FFF8           move.l     [A6 - 0x8], [A6 + 0xA]
label00004DA4:
00004DA4  206E FFF8                movea.l    A0, [A6 - 0x8]
00004DA8  4A10                     tst.b      [A0]
00004DAA  6700 019C                beq        +0x19E /* 00004F48 */
00004DAE  2F0E                     move.l     -[A7], A6
00004DB0  4EBA FB20                jsr        [PC - 0x4E0 /* 000048D2 */]
00004DB4  7009                     moveq.l    D0, 0x09
00004DB6  B02E FFF0                cmp.b      D0, [A6 - 0x10]
00004DBA  6626                     bne        +0x28 /* 00004DE2 */
00004DBC  700C                     moveq.l    D0, 0x0C
00004DBE  B02E FFF1                cmp.b      D0, [A6 - 0xF]
00004DC2  57C0                     seq        D0
00004DC4  4A00                     tst.b      D0
00004DC6  660C                     bne        +0xE /* 00004DD4 */
00004DC8  7202                     moveq.l    D1, 0x02
00004DCA  B22E FFF1                cmp.b      D1, [A6 - 0xF]
00004DCE  57C1                     seq        D1
00004DD0  8001                     or.b       D0, D1
00004DD2  670A                     beq        +0xC /* 00004DDE */
label00004DD4:
00004DD4  486D A2F0                pea.l      [A5 - 0x5D10]
00004DD8  2F0E                     move.l     -[A7], A6
00004DDA  4EBA FEDE                jsr        [PC - 0x122 /* 00004CBA */]
label00004DDE:
00004DDE  6000 015A                bra        +0x15C /* 00004F3A */
label00004DE2:
00004DE2  7005                     moveq.l    D0, 0x05
00004DE4  B02E FFF0                cmp.b      D0, [A6 - 0x10]
00004DE8  57C0                     seq        D0
00004DEA  4A00                     tst.b      D0
00004DEC  6700 014C                beq        +0x14E /* 00004F3A */
00004DF0  7207                     moveq.l    D1, 0x07
00004DF2  B22E FFF1                cmp.b      D1, [A6 - 0xF]
00004DF6  57C1                     seq        D1
00004DF8  C001                     and.b      D0, D1
00004DFA  6700 013E                beq        +0x140 /* 00004F3A */
00004DFE  2B6E FFF2 A2F8           move.l     [A5 - 0x5D08], [A6 - 0xE]
00004E04  302D A2F8                move.w     D0, [A5 - 0x5D08]
00004E08  48C0                     ext.l      D0
00004E0A  D0AE 000A                add.l      D0, [A6 + 0xA]
00004E0E  2D40 FFFC                move.l     [A6 - 0x4], D0
00004E12  2F0E                     move.l     -[A7], A6
00004E14  4EBA FABC                jsr        [PC - 0x544 /* 000048D2 */]
00004E18  7016                     moveq.l    D0, 0x16
00004E1A  B02E FFF0                cmp.b      D0, [A6 - 0x10]
00004E1E  670E                     beq        +0x10 /* 00004E2E */
00004E20  486D A2F6                pea.l      [A5 - 0x5D0A]
00004E24  2F0E                     move.l     -[A7], A6
00004E26  4EBA FE92                jsr        [PC - 0x16E /* 00004CBA */]
00004E2A  6000 010E                bra        +0x110 /* 00004F3A */
label00004E2E:
00004E2E  7006                     moveq.l    D0, 0x06
00004E30  B02E FFF1                cmp.b      D0, [A6 - 0xF]
00004E34  6626                     bne        +0x28 /* 00004E5C */
00004E36  3B6D A2F8 A304           move.w     [A5 - 0x5CFC], [A5 - 0x5D08]
00004E3C  202E FFF8                move.l     D0, [A6 - 0x8]
00004E40  90AE FFFC                sub.l      D0, [A6 - 0x4]
00004E44  3B40 A306                move.w     [A5 - 0x5CFA], D0
00004E48  2F0E                     move.l     -[A7], A6
00004E4A  4EBA FA86                jsr        [PC - 0x57A /* 000048D2 */]
00004E4E  486D A302                pea.l      [A5 - 0x5CFE]
00004E52  2F0E                     move.l     -[A7], A6
00004E54  4EBA FE64                jsr        [PC - 0x19C /* 00004CBA */]
00004E58  6000 00E0                bra        +0xE2 /* 00004F3A */
label00004E5C:
00004E5C  7010                     moveq.l    D0, 0x10
00004E5E  B02E FFF1                cmp.b      D0, [A6 - 0xF]
00004E62  6626                     bne        +0x28 /* 00004E8A */
00004E64  3B6D A2F8 A310           move.w     [A5 - 0x5CF0], [A5 - 0x5D08]
00004E6A  202E FFF8                move.l     D0, [A6 - 0x8]
00004E6E  90AE FFFC                sub.l      D0, [A6 - 0x4]
00004E72  3B40 A312                move.w     [A5 - 0x5CEE], D0
00004E76  2F0E                     move.l     -[A7], A6
00004E78  4EBA FA58                jsr        [PC - 0x5A8 /* 000048D2 */]
00004E7C  486D A30E                pea.l      [A5 - 0x5CF2]
00004E80  2F0E                     move.l     -[A7], A6
00004E82  4EBA FE36                jsr        [PC - 0x1CA /* 00004CBA */]
00004E86  6000 00B2                bra        +0xB4 /* 00004F3A */
label00004E8A:
00004E8A  7009                     moveq.l    D0, 0x09
00004E8C  B02E FFF1                cmp.b      D0, [A6 - 0xF]
00004E90  6600 009E                bne        +0xA0 /* 00004F30 */
00004E94  3B6D A2F8 A2FE           move.w     [A5 - 0x5D02], [A5 - 0x5D08]
00004E9A  202E FFF8                move.l     D0, [A6 - 0x8]
00004E9E  90AE FFFC                sub.l      D0, [A6 - 0x4]
00004EA2  3B40 A300                move.w     [A5 - 0x5D00], D0
00004EA6  2F0E                     move.l     -[A7], A6
00004EA8  4EBA FA28                jsr        [PC - 0x5D8 /* 000048D2 */]
00004EAC  7016                     moveq.l    D0, 0x16
00004EAE  B02E FFF0                cmp.b      D0, [A6 - 0x10]
00004EB2  57C0                     seq        D0
00004EB4  4A00                     tst.b      D0
00004EB6  6730                     beq        +0x32 /* 00004EE8 */
00004EB8  7206                     moveq.l    D1, 0x06
00004EBA  B22E FFF1                cmp.b      D1, [A6 - 0xF]
00004EBE  57C1                     seq        D1
00004EC0  C001                     and.b      D0, D1
00004EC2  6724                     beq        +0x26 /* 00004EE8 */
00004EC4  3B6D A2F8 A30A           move.w     [A5 - 0x5CF6], [A5 - 0x5D08]
00004ECA  202E FFF8                move.l     D0, [A6 - 0x8]
00004ECE  90AE FFFC                sub.l      D0, [A6 - 0x4]
00004ED2  3B40 A30C                move.w     [A5 - 0x5CF4], D0
00004ED6  2F0E                     move.l     -[A7], A6
00004ED8  4EBA F9F8                jsr        [PC - 0x608 /* 000048D2 */]
00004EDC  486D A308                pea.l      [A5 - 0x5CF8]
00004EE0  2F0E                     move.l     -[A7], A6
00004EE2  4EBA FDD6                jsr        [PC - 0x22A /* 00004CBA */]
00004EE6  6052                     bra        +0x54 /* 00004F3A */
label00004EE8:
00004EE8  7016                     moveq.l    D0, 0x16
00004EEA  B02E FFF0                cmp.b      D0, [A6 - 0x10]
00004EEE  57C0                     seq        D0
00004EF0  4A00                     tst.b      D0
00004EF2  6730                     beq        +0x32 /* 00004F24 */
00004EF4  7210                     moveq.l    D1, 0x10
00004EF6  B22E FFF1                cmp.b      D1, [A6 - 0xF]
00004EFA  57C1                     seq        D1
00004EFC  C001                     and.b      D0, D1
00004EFE  6724                     beq        +0x26 /* 00004F24 */
00004F00  3B6D A2F8 A316           move.w     [A5 - 0x5CEA], [A5 - 0x5D08]
00004F06  202E FFF8                move.l     D0, [A6 - 0x8]
00004F0A  90AE FFFC                sub.l      D0, [A6 - 0x4]
00004F0E  3B40 A318                move.w     [A5 - 0x5CE8], D0
00004F12  2F0E                     move.l     -[A7], A6
00004F14  4EBA F9BC                jsr        [PC - 0x644 /* 000048D2 */]
00004F18  486D A314                pea.l      [A5 - 0x5CEC]
00004F1C  2F0E                     move.l     -[A7], A6
00004F1E  4EBA FD9A                jsr        [PC - 0x266 /* 00004CBA */]
00004F22  6016                     bra        +0x18 /* 00004F3A */
label00004F24:
00004F24  486D A2FC                pea.l      [A5 - 0x5D04]
00004F28  2F0E                     move.l     -[A7], A6
00004F2A  4EBA FD8E                jsr        [PC - 0x272 /* 00004CBA */]
00004F2E  600A                     bra        +0xC /* 00004F3A */
label00004F30:
00004F30  486D A2F6                pea.l      [A5 - 0x5D0A]
00004F34  2F0E                     move.l     -[A7], A6
00004F36  4EBA FD82                jsr        [PC - 0x27E /* 00004CBA */]
label00004F3A:
00004F3A  486E FFF0                pea.l      [A6 - 0x10]
00004F3E  2F0E                     move.l     -[A7], A6
00004F40  4EBA FD78                jsr        [PC - 0x288 /* 00004CBA */]
00004F44  6000 FE5E                bra        -0x1A0 /* 00004DA4 */
label00004F48:
00004F48  102E FFF7                move.b     D0, [A6 - 0x9]
00004F4C  670C                     beq        +0xE /* 00004F5A */
00004F4E  486D A2EA                pea.l      [A5 - 0x5D16]
00004F52  2F0E                     move.l     -[A7], A6
00004F54  4EBA FD2E                jsr        [PC - 0x2D2 /* 00004C84 */]
00004F58  600A                     bra        +0xC /* 00004F64 */
label00004F5A:
00004F5A  486D A2EA                pea.l      [A5 - 0x5D16]
00004F5E  2F0E                     move.l     -[A7], A6
00004F60  4EBA FD58                jsr        [PC - 0x2A8 /* 00004CBA */]
label00004F64:
00004F64  2F2E FFE8                move.l     -[A7], [A6 - 0x18]
00004F68  7006                     moveq.l    D0, 0x06
00004F6A  C1EE FFEC                muls.w     D0, [A6 - 0x14]
00004F6E  48C0                     ext.l      D0
00004F70  2F00                     move.l     -[A7], D0
00004F72  4EAD 020A                jsr        [A5 + 0x20A /* export_61, CODE:1 @ 00004654 */]
00004F76  4267                     clr.w      -[A7]
00004F78  3EB8 0220                move.w     [A7], [0x00000220 /* MemErr */]
00004F7C  4A5F                     tst.w      [A7]+
00004F7E  670A                     beq        +0xC /* 00004F8A */
00004F80  2F3C 0399 5E17           move.l     -[A7], 0x3995E17
00004F86  4EAD 185A                jsr        [A5 + 0x185A /* export_775, CODE:16 @ 0000042E */]
label00004F8A:
00004F8A  2D6E FFE8 000E           move.l     [A6 + 0xE], [A6 - 0x18]
label00004F90:
00004F90  4FEE FFC8                lea.l      A7, [A6 - 0x38]
00004F94  4CDF 1CF8                movem.l    D3,D4,D5,D6,D7,A2,A3,A4, [A7]+
00004F98  4E5E                     unlink     A6
00004F9A  205F                     movea.l    A0, [A7]+
00004F9C  5C4F                     addq.w     A7, 6
00004F9E  4ED0                     jmp        [A0]
export_533:
00004FA0  4E56 F722                link       A6, -0x08DE
00004FA4  48E7 0F08                movem.l    -[A7], D4,D5,D6,D7,A4
00004FA8  7001                     moveq.l    D0, 0x01
00004FAA  B06D EFDA                cmp.w      D0, [A5 - 0x1026]
00004FAE  6606                     bne        +0x8 /* 00004FB6 */
00004FB0  4EAD 1332                jsr        [A5 + 0x1332 /* export_610, CODE:12 @ 000000DA */]
00004FB4  6004                     bra        +0x6 /* 00004FBA */
label00004FB6:
00004FB6  4EAD 0032                jsr        [A5 + 0x32 /* export_2, CODE:1 @ 00000196 */]
label00004FBA:
00004FBA  486E FEFC                pea.l      [A6 - 0x104]
00004FBE  4EAD 1482                jsr        [A5 + 0x1482 /* export_652, CODE:13 @ 00001714 */]
00004FC2  422E FDFC                clr.b      [A6 - 0x204]
00004FC6  4245                     clr.w      D5
00004FC8  422E FCEA                clr.b      [A6 - 0x316]
00004FCC  422E FBEA                clr.b      [A6 - 0x416]
00004FD0  4246                     clr.w      D6
00004FD2  7000                     moveq.l    D0, 0x00
00004FD4  2840                     movea.l    A4, D0
00004FD6  4267                     clr.w      -[A7]
00004FD8  4EAD 08FA                jsr        [A5 + 0x8FA /* export_283, CODE:8 @ 000001A4 */]
00004FDC  4A5F                     tst.w      [A7]+
00004FDE  6608                     bne        +0xA /* 00004FE8 */
00004FE0  4EAD 1432                jsr        [A5 + 0x1432 /* export_642, CODE:13 @ 000010F2 */]
00004FE4  6000 00DC                bra        +0xDE /* 000050C2 */
label00004FE8:
00004FE8  486E FCEA                pea.l      [A6 - 0x316]
00004FEC  4EAD 1482                jsr        [A5 + 0x1482 /* export_652, CODE:13 @ 00001714 */]
00004FF0  4EAD 1432                jsr        [A5 + 0x1432 /* export_642, CODE:13 @ 000010F2 */]
00004FF4  42A7                     clr.l      -[A7]
00004FF6  487A 0412                pea.l      [PC + 0x412 /* 0000540A, value 0x9646F63 '\tdoc', pstring "documents" */]
00004FFA  4EAD 0A0A                jsr        [A5 + 0xA0A /* export_317, CODE:8 @ 0000139A */]
00004FFE  285F                     movea.l    A4, [A7]+
00005000  2F0C                     move.l     -[A7], A4
00005002  4EAD 0222                jsr        [A5 + 0x222 /* export_64, CODE:1 @ 00004678 */]
00005006  2D54 FBCA                move.l     [A6 - 0x436], [A4]
label0000500A:
0000500A  486E FBEA                pea.l      [A6 - 0x416]
0000500E  486E FCEA                pea.l      [A6 - 0x316]
00005012  486E F836                pea.l      [A6 - 0x7CA]
00005016  3F3C 0002                move.w     -[A7], 0x2
0000501A  4EAD 050A                jsr        [A5 + 0x50A /* export_157, CODE:1 @ 0000531E */]
0000501E  41EE FACA                lea.l      A0, [A6 - 0x536]
00005022  43EE F836                lea.l      A1, [A6 - 0x7CA]
00005026  703F                     moveq.l    D0, 0x3F
label00005028:
00005028  20D9                     move.l     [A0]+, [A1]+
0000502A  51C8 FFFC                dbf        D0, -0x6 /* 00005028 */
0000502E  4267                     clr.w      -[A7]
00005030  486E FACA                pea.l      [A6 - 0x536]
00005034  4267                     clr.w      -[A7]
00005036  486E FBD8                pea.l      [A6 - 0x428]
0000503A  4EAD 0312                jsr        [A5 + 0x312 /* export_94, CODE:1 @ 00004908 */]
0000503E  3E1F                     move.w     D7, [A7]+
00005040  4A47                     tst.w      D7
00005042  6612                     bne        +0x14 /* 00005056 */
00005044  486E FACA                pea.l      [A6 - 0x536]
00005048  486E FBEA                pea.l      [A6 - 0x416]
0000504C  486E FCEA                pea.l      [A6 - 0x316]
00005050  4EAD 1FDA                jsr        [A5 + 0x1FDA /* export_1015, CODE:19 @ 000021B0 */]
00005054  606C                     bra        +0x6E /* 000050C2 */
label00005056:
00005056  486E FBCA                pea.l      [A6 - 0x436]
0000505A  486E FBEA                pea.l      [A6 - 0x416]
0000505E  4EAD 189A                jsr        [A5 + 0x189A /* export_783, CODE:16 @ 000005D6 */]
00005062  4240                     clr.w      D0
00005064  102E FBEA                move.b     D0, [A6 - 0x416]
00005068  4A40                     tst.w      D0
0000506A  669E                     bne        -0x60 /* 0000500A */
0000506C  486E F736                pea.l      [A6 - 0x8CA]
00005070  2F3A 0394                move.l     -[A7], [PC + 0x394 /* 00005406, value 0x616E7920 'any ', pstring "ny \tdocuments" */]
00005074  486E FCEA                pea.l      [A6 - 0x316]
00005078  4EAD 22FA                jsr        [A5 + 0x22FA /* export_1115, CODE:20 @ 00006496 */]
0000507C  205F                     movea.l    A0, [A7]+
0000507E  43EE FACA                lea.l      A1, [A6 - 0x536]
00005082  703F                     moveq.l    D0, 0x3F
label00005084:
00005084  22D8                     move.l     [A1]+, [A0]+
00005086  51C8 FFFC                dbf        D0, -0x6 /* 00005084 */
0000508A  4267                     clr.w      -[A7]
0000508C  486E FACA                pea.l      [A6 - 0x536]
00005090  4267                     clr.w      -[A7]
00005092  486E FBD8                pea.l      [A6 - 0x428]
00005096  4EAD 0312                jsr        [A5 + 0x312 /* export_94, CODE:1 @ 00004908 */]
0000509A  3E1F                     move.w     D7, [A7]+
0000509C  4A47                     tst.w      D7
0000509E  6612                     bne        +0x14 /* 000050B2 */
000050A0  486E FACA                pea.l      [A6 - 0x536]
000050A4  486E FBEA                pea.l      [A6 - 0x416]
000050A8  486E FCEA                pea.l      [A6 - 0x316]
000050AC  4EAD 1FDA                jsr        [A5 + 0x1FDA /* export_1015, CODE:19 @ 000021B0 */]
000050B0  6010                     bra        +0x12 /* 000050C2 */
label000050B2:
000050B2  487A 0340                pea.l      [PC + 0x340 /* 000053F4, value 0x104E6F20, pstring "No such document" */]
000050B6  2F2D B534                move.l     -[A7], [A5 - 0x4ACC]
000050BA  4EAD 08DA                jsr        [A5 + 0x8DA /* export_279, CODE:8 @ 00000080 */]
000050BE  6000 02EE                bra        +0x2F0 /* 000053AE */
label000050C2:
000050C2  200C                     move.l     D0, A4
000050C4  6706                     beq        +0x8 /* 000050CC */
000050C6  2F0C                     move.l     -[A7], A4
000050C8  4EAD 18D2                jsr        [A5 + 0x18D2 /* export_790, CODE:16 @ 0000083E */]
label000050CC:
000050CC  42A7                     clr.l      -[A7]
000050CE  487A 0316                pea.l      [PC + 0x316 /* 000053E6, value 0xC617070, pstring "applications" */]
000050D2  4EAD 0A0A                jsr        [A5 + 0xA0A /* export_317, CODE:8 @ 0000139A */]
000050D6  285F                     movea.l    A4, [A7]+
000050D8  2F0C                     move.l     -[A7], A4
000050DA  4EAD 0222                jsr        [A5 + 0x222 /* export_64, CODE:1 @ 00004678 */]
000050DE  2D54 FBCA                move.l     [A6 - 0x436], [A4]
label000050E2:
000050E2  486E FDFC                pea.l      [A6 - 0x204]
000050E6  486E FEFC                pea.l      [A6 - 0x104]
000050EA  486E F836                pea.l      [A6 - 0x7CA]
000050EE  3F3C 0002                move.w     -[A7], 0x2
000050F2  4EAD 050A                jsr        [A5 + 0x50A /* export_157, CODE:1 @ 0000531E */]
000050F6  41EE FACA                lea.l      A0, [A6 - 0x536]
000050FA  43EE F836                lea.l      A1, [A6 - 0x7CA]
000050FE  703F                     moveq.l    D0, 0x3F
label00005100:
00005100  20D9                     move.l     [A0]+, [A1]+
00005102  51C8 FFFC                dbf        D0, -0x6 /* 00005100 */
00005106  4267                     clr.w      -[A7]
00005108  486E FACA                pea.l      [A6 - 0x536]
0000510C  4267                     clr.w      -[A7]
0000510E  486E FDEA                pea.l      [A6 - 0x216]
00005112  4EAD 0312                jsr        [A5 + 0x312 /* export_94, CODE:1 @ 00004908 */]
00005116  3E1F                     move.w     D7, [A7]+
00005118  4A47                     tst.w      D7
0000511A  6612                     bne        +0x14 /* 0000512E */
0000511C  486E FACA                pea.l      [A6 - 0x536]
00005120  486E FDFC                pea.l      [A6 - 0x204]
00005124  486E FEFC                pea.l      [A6 - 0x104]
00005128  4EAD 1FDA                jsr        [A5 + 0x1FDA /* export_1015, CODE:19 @ 000021B0 */]
0000512C  606C                     bra        +0x6E /* 0000519A */
label0000512E:
0000512E  486E FBCA                pea.l      [A6 - 0x436]
00005132  486E FDFC                pea.l      [A6 - 0x204]
00005136  4EAD 189A                jsr        [A5 + 0x189A /* export_783, CODE:16 @ 000005D6 */]
0000513A  4240                     clr.w      D0
0000513C  102E FDFC                move.b     D0, [A6 - 0x204]
00005140  4A40                     tst.w      D0
00005142  669E                     bne        -0x60 /* 000050E2 */
00005144  486E F736                pea.l      [A6 - 0x8CA]
00005148  2F3A 0284                move.l     -[A7], [PC + 0x284 /* 000053CE, value 0x4150504C 'APPL' */]
0000514C  486E FEFC                pea.l      [A6 - 0x104]
00005150  4EAD 22FA                jsr        [A5 + 0x22FA /* export_1115, CODE:20 @ 00006496 */]
00005154  205F                     movea.l    A0, [A7]+
00005156  43EE FACA                lea.l      A1, [A6 - 0x536]
0000515A  703F                     moveq.l    D0, 0x3F
label0000515C:
0000515C  22D8                     move.l     [A1]+, [A0]+
0000515E  51C8 FFFC                dbf        D0, -0x6 /* 0000515C */
00005162  4267                     clr.w      -[A7]
00005164  486E FACA                pea.l      [A6 - 0x536]
00005168  4267                     clr.w      -[A7]
0000516A  486E FDEA                pea.l      [A6 - 0x216]
0000516E  4EAD 0312                jsr        [A5 + 0x312 /* export_94, CODE:1 @ 00004908 */]
00005172  3E1F                     move.w     D7, [A7]+
00005174  4A47                     tst.w      D7
00005176  6612                     bne        +0x14 /* 0000518A */
00005178  486E FACA                pea.l      [A6 - 0x536]
0000517C  486E FDFC                pea.l      [A6 - 0x204]
00005180  486E FEFC                pea.l      [A6 - 0x104]
00005184  4EAD 1FDA                jsr        [A5 + 0x1FDA /* export_1015, CODE:19 @ 000021B0 */]
00005188  6010                     bra        +0x12 /* 0000519A */
label0000518A:
0000518A  487A 0246                pea.l      [PC + 0x246 /* 000053D2, value 0x134E6F20, pstring "No such application" */]
0000518E  2F2D B534                move.l     -[A7], [A5 - 0x4ACC]
00005192  4EAD 08DA                jsr        [A5 + 0x8DA /* export_279, CODE:8 @ 00000080 */]
00005196  6000 0216                bra        +0x218 /* 000053AE */
label0000519A:
0000519A  41EE FDEA                lea.l      A0, [A6 - 0x216]
0000519E  43FA 022E                lea.l      A1, [PC + 0x22E /* 000053CE, value 0x4150504C 'APPL' */]
000051A2  7003                     moveq.l    D0, 0x03
label000051A4:
000051A4  B109                     cmpm.b     [A0]+, [A1]+
000051A6  56C8 FFFC                dbne       D0, -0x6 /* 000051A4 */
000051AA  6710                     beq        +0x12 /* 000051BC */
000051AC  3F3C 004D                move.w     -[A7], 0x4D /* 'M' */
000051B0  486E FACA                pea.l      [A6 - 0x536]
000051B4  4EAD 097A                jsr        [A5 + 0x97A /* export_299, CODE:8 @ 00000AB2 */]
000051B8  6000 01F4                bra        +0x1F6 /* 000053AE */
label000051BC:
000051BC  486E FDFC                pea.l      [A6 - 0x204]
000051C0  487A 020A                pea.l      [PC + 0x20A /* 000053CC, value 0x4150 'AP', cstring "" */]
000051C4  4EAD 052A                jsr        [A5 + 0x52A /* export_161, CODE:1 @ 0000543C */]
000051C8  101F                     move.b     D0, [A7]+
000051CA  675C                     beq        +0x5E /* 00005228 */
000051CC  486E FA96                pea.l      [A6 - 0x56A]
000051D0  7034                     moveq.l    D0, 0x34
000051D2  2F00                     move.l     -[A7], D0
000051D4  4EAD 1B42                jsr        [A5 + 0x1B42 /* export_868, CODE:16 @ 00001E7C */]
000051D8  41EE FDFC                lea.l      A0, [A6 - 0x204]
000051DC  2D48 FAA8                move.l     [A6 - 0x558], A0
000051E0  2D7C 4552 494B FAB2      move.l     [A6 - 0x54E], 0x4552494B /* 'ERIK' */
000051E8  102D E0DF                move.b     D0, [A5 - 0x1F21]
000051EC  6708                     beq        +0xA /* 000051F6 */
000051EE  2D7C 4A4F 484E FAB2      move.l     [A6 - 0x54E], 0x4A4F484E /* 'JOHN' */
label000051F6:
000051F6  7002                     moveq.l    D0, 0x02
000051F8  2D40 FAC6                move.l     [A6 - 0x53A], D0
000051FC  4267                     clr.w      -[A7]
000051FE  486E FA96                pea.l      [A6 - 0x56A]
00005202  4267                     clr.w      -[A7]
00005204  4EAD 0372                jsr        [A5 + 0x372 /* export_106, CODE:1 @ 00004B18 */]
00005208  3E1F                     move.w     D7, [A7]+
0000520A  4A47                     tst.w      D7
0000520C  6716                     beq        +0x18 /* 00005224 */
0000520E  3F3C 004C                move.w     -[A7], 0x4C /* 'L' */
00005212  486E F722                pea.l      [A6 - 0x8DE]
00005216  3007                     move.w     D0, D7
00005218  48C0                     ext.l      D0
0000521A  2F00                     move.l     -[A7], D0
0000521C  4EAD 1902                jsr        [A5 + 0x1902 /* export_796, CODE:16 @ 000009D4 */]
00005220  4EAD 097A                jsr        [A5 + 0x97A /* export_299, CODE:8 @ 00000AB2 */]
label00005224:
00005224  3A2E FAAC                move.w     D5, [A6 - 0x554]
label00005228:
00005228  486E FBEA                pea.l      [A6 - 0x416]
0000522C  487A 019E                pea.l      [PC + 0x19E /* 000053CC, value 0x4150 'AP', cstring "" */]
00005230  4EAD 052A                jsr        [A5 + 0x52A /* export_161, CODE:1 @ 0000543C */]
00005234  101F                     move.b     D0, [A7]+
00005236  675C                     beq        +0x5E /* 00005294 */
00005238  486E FA96                pea.l      [A6 - 0x56A]
0000523C  7034                     moveq.l    D0, 0x34
0000523E  2F00                     move.l     -[A7], D0
00005240  4EAD 1B42                jsr        [A5 + 0x1B42 /* export_868, CODE:16 @ 00001E7C */]
00005244  41EE FBEA                lea.l      A0, [A6 - 0x416]
00005248  2D48 FAA8                move.l     [A6 - 0x558], A0
0000524C  2D7C 4552 494B FAB2      move.l     [A6 - 0x54E], 0x4552494B /* 'ERIK' */
00005254  102D E0DF                move.b     D0, [A5 - 0x1F21]
00005258  6708                     beq        +0xA /* 00005262 */
0000525A  2D7C 4A4F 484E FAB2      move.l     [A6 - 0x54E], 0x4A4F484E /* 'JOHN' */
label00005262:
00005262  7002                     moveq.l    D0, 0x02
00005264  2D40 FAC6                move.l     [A6 - 0x53A], D0
00005268  4267                     clr.w      -[A7]
0000526A  486E FA96                pea.l      [A6 - 0x56A]
0000526E  4267                     clr.w      -[A7]
00005270  4EAD 0372                jsr        [A5 + 0x372 /* export_106, CODE:1 @ 00004B18 */]
00005274  3E1F                     move.w     D7, [A7]+
00005276  4A47                     tst.w      D7
00005278  6716                     beq        +0x18 /* 00005290 */
0000527A  3F3C 004C                move.w     -[A7], 0x4C /* 'L' */
0000527E  486E F722                pea.l      [A6 - 0x8DE]
00005282  3007                     move.w     D0, D7
00005284  48C0                     ext.l      D0
00005286  2F00                     move.l     -[A7], D0
00005288  4EAD 1902                jsr        [A5 + 0x1902 /* export_796, CODE:16 @ 000009D4 */]
0000528C  4EAD 097A                jsr        [A5 + 0x97A /* export_299, CODE:8 @ 00000AB2 */]
label00005290:
00005290  3C2E FAAC                move.w     D6, [A6 - 0x554]
label00005294:
00005294  102D E0DF                move.b     D0, [A5 - 0x1F21]
00005298  6600 00C2                bne        +0xC4 /* 0000535C */
0000529C  282D F62A                move.l     D4, [A5 - 0x9D6]
000052A0  486D FC48                pea.l      [A5 - 0x3B8]
000052A4  486D FD48                pea.l      [A5 - 0x2B8]
000052A8  486E F836                pea.l      [A6 - 0x7CA]
000052AC  3F3C 0002                move.w     -[A7], 0x2
000052B0  4EAD 050A                jsr        [A5 + 0x50A /* export_157, CODE:1 @ 0000531E */]
000052B4  41EE F992                lea.l      A0, [A6 - 0x66E]
000052B8  43EE F836                lea.l      A1, [A6 - 0x7CA]
000052BC  703F                     moveq.l    D0, 0x3F
label000052BE:
000052BE  20D9                     move.l     [A0]+, [A1]+
000052C0  51C8 FFFC                dbf        D0, -0x6 /* 000052BE */
000052C4  487A 00FE                pea.l      [PC + 0xFE /* 000053C4, value 0x7737573, pstring "suspend" */]
000052C8  4EAD 0B82                jsr        [A5 + 0xB82 /* export_364, CODE:8 @ 00003EA4 */]
000052CC  1D7C 0001 F936           move.b     [A6 - 0x6CA], 0x1
000052D2  7001                     moveq.l    D0, 0x01
000052D4  2D40 F93C                move.l     [A6 - 0x6C4], D0
000052D8  1D7C 0005 F962           move.b     [A6 - 0x69E], 0x5
000052DE  2D6D F4F0 F98E           move.l     [A6 - 0x672], [A5 - 0xB10]
000052E4  4267                     clr.w      -[A7]
000052E6  486E F936                pea.l      [A6 - 0x6CA]
000052EA  4EAD 2042                jsr        [A5 + 0x2042 /* export_1028, CODE:20 @ 00000472 */]
000052EE  101F                     move.b     D0, [A7]+
000052F0  6720                     beq        +0x22 /* 00005312 */
000052F2  102D F4CD                move.b     D0, [A5 - 0xB33]
000052F6  661A                     bne        +0x1C /* 00005312 */
000052F8  2B44 F7F8                move.l     [A5 - 0x808], D4
000052FC  41ED F7FC                lea.l      A0, [A5 - 0x804]
00005300  43EE F992                lea.l      A1, [A6 - 0x66E]
00005304  703F                     moveq.l    D0, 0x3F
label00005306:
00005306  20D9                     move.l     [A0]+, [A1]+
00005308  51C8 FFFC                dbf        D0, -0x6 /* 00005306 */
0000530C  1B7C 0001 F63B           move.b     [A5 - 0x9C5], 0x1
label00005312:
00005312  4267                     clr.w      -[A7]
00005314  4EAD 1542                jsr        [A5 + 0x1542 /* export_676, CODE:15 @ 00000000 */]
00005318  4EAD 173A                jsr        [A5 + 0x173A /* export_739, CODE:15 @ 00004FD6 */]
0000531C  4EAD 1F12                jsr        [A5 + 0x1F12 /* export_990, CODE:19 @ 000005A4 */]
00005320  4EAD 0942                jsr        [A5 + 0x942 /* export_292, CODE:8 @ 00000726 */]
00005324  486D EE38                pea.l      [A5 - 0x11C8]
00005328  A86D                     syscall    InitPort
0000532A  486D EE38                pea.l      [A5 - 0x11C8]
0000532E  A873                     syscall    SetPort
00005330  4267                     clr.w      -[A7]
00005332  486E FEFC                pea.l      [A6 - 0x104]
00005336  A88C                     syscall    StringWidth
00005338  3D5F FFFE                move.w     [A6 - 0x2], [A7]+
0000533C  302D FE3A                move.w     D0, [A5 - 0x1C6]
00005340  D06D FE36                add.w      D0, [A5 - 0x1CA]
00005344  906E FFFE                sub.w      D0, [A6 - 0x2]
00005348  48C0                     ext.l      D0
0000534A  81FC 0002                divs.w     D0, 0x2
0000534E  3F00                     move.w     -[A7], D0
00005350  3F3C 000E                move.w     -[A7], 0xE
00005354  A893                     syscall    MoveTo
00005356  486E FEFC                pea.l      [A6 - 0x104]
0000535A  A884                     syscall    DrawString
label0000535C:
0000535C  3F06                     move.w     -[A7], D6
0000535E  2F2E FBD8                move.l     -[A7], [A6 - 0x428]
00005362  486E FCEA                pea.l      [A6 - 0x316]
00005366  1F2E 0008                move.b     -[A7], [A6 + 0x8]
0000536A  4EAD 1CC2                jsr        [A5 + 0x1CC2 /* export_916, CODE:17 @ 000015D0 */]
0000536E  4267                     clr.w      -[A7]
00005370  42A7                     clr.l      -[A7]
00005372  486E FBD6                pea.l      [A6 - 0x42A]
00005376  4EAD 031A                jsr        [A5 + 0x31A /* export_95, CODE:1 @ 00004940 */]
0000537A  3E1F                     move.w     D7, [A7]+
0000537C  4267                     clr.w      -[A7]
0000537E  42A7                     clr.l      -[A7]
00005380  3F05                     move.w     -[A7], D5
00005382  4EAD 0322                jsr        [A5 + 0x322 /* export_96, CODE:1 @ 00004964 */]
00005386  3E1F                     move.w     D7, [A7]+
00005388  102D E0DF                move.b     D0, [A5 - 0x1F21]
0000538C  670A                     beq        +0xC /* 00005398 */
0000538E  486E FEFC                pea.l      [A6 - 0x104]
00005392  4EAD 1C5A                jsr        [A5 + 0x1C5A /* export_903, CODE:17 @ 00001208 */]
00005396  6008                     bra        +0xA /* 000053A0 */
label00005398:
00005398  486E FEFC                pea.l      [A6 - 0x104]
0000539C  4EAD 1CDA                jsr        [A5 + 0x1CDA /* export_919, CODE:17 @ 000019B4 */]
label000053A0:
000053A0  4267                     clr.w      -[A7]
000053A2  42A7                     clr.l      -[A7]
000053A4  3F2E FBD6                move.w     -[A7], [A6 - 0x42A]
000053A8  4EAD 0322                jsr        [A5 + 0x322 /* export_96, CODE:1 @ 00004964 */]
000053AC  3E1F                     move.w     D7, [A7]+
label000053AE:
000053AE  200C                     move.l     D0, A4
000053B0  6706                     beq        +0x8 /* 000053B8 */
000053B2  2F0C                     move.l     -[A7], A4
000053B4  4EAD 18D2                jsr        [A5 + 0x18D2 /* export_790, CODE:16 @ 0000083E */]
label000053B8:
000053B8  4CDF 10F0                movem.l    D4,D5,D6,D7,A4, [A7]+
000053BC  4E5E                     unlink     A6
000053BE  205F                     movea.l    A0, [A7]+
000053C0  544F                     addq.w     A7, 2
000053C2  4ED0                     jmp        [A0]
000053C4  0773 7573 7065 6E64 0... bchg       [[A3 + 0x70656E64] + 0x4150], D3
000053D0  504C                     addq.w     A4, 8
000053D2  134E 6F20                move.b     [A1 + 0x6F20], A6
000053D6  7375                     moveq.l    D1, 0x75
000053D8  6368                     bls        +0x6A /* 00005442 */
000053DA  2061                     movea.l    A0, -[A1]
000053DC  7070                     moveq.l    D0, 0x70
000053DE  6C69                     bge        +0x6B /* 00005449 */
000053E0  6361                     bls        +0x63 /* 00005443 */
000053E2  7469                     moveq.l    D2, 0x69
000053E4  6F6E                     ble        +0x70 /* 00005454 */
000053E6  0C61 7070                cmpi.w     -[A1], 0x7070 /* 'pp' */
000053EA  6C69                     bge        +0x6B /* 00005455 */
000053EC  6361                     bls        +0x63 /* 0000544F */
000053EE  7469                     moveq.l    D2, 0x69
000053F0  6F6E                     ble        +0x70 /* 00005460 */
000053F2  7300                     moveq.l    D1, 0x00
000053F4  104E                     movea.b    A0, A6
000053F6  6F20                     ble        +0x22 /* 00005418 */
000053F8  7375                     moveq.l    D1, 0x75
000053FA  6368                     bls        +0x6A /* 00005464 */
000053FC  2064                     movea.l    A0, -[A4]
000053FE  6F63                     ble        +0x65 /* 00005463 */
00005400  756D                     moveq.l    D2, 0x6D
00005402  656E                     bcs        +0x70 /* 00005472 */
00005404  7400                     moveq.l    D2, 0x00
00005406  616E                     bsr        +0x70 /* 00005476 */
00005408  7920                     moveq.l    D4, 0x20
0000540A  0964                     bchg       -[A4], D4
0000540C  6F63                     ble        +0x65 /* 00005471 */
0000540E  756D                     moveq.l    D2, 0x6D
00005410  656E                     bcs        +0x70 /* 00005480 */
00005412  7473                     moveq.l    D2, 0x73
