# near model CODE resource
# jump table entries: 4272-4298 (27 of them)
export_534:
00000000  4E56 FFF4                link       A6, -0x000C
00000004  2F0C                     move.l     -[A7], A4
00000006  42A7                     clr.l      -[A7]
00000008  4267                     clr.w      -[A7]
0000000A  4EAD 08F2                jsr        [A5 + 0x8F2 /* export_282, CODE:8 @ 0000017A */]
0000000E  2D5F FFF4                move.l     [A6 - 0xC], [A7]+
00000012  42A7                     clr.l      -[A7]
00000014  4267                     clr.w      -[A7]
00000016  4EAD 0902                jsr        [A5 + 0x902 /* export_284, CODE:8 @ 000001C0 */]
0000001A  285F                     movea.l    A4, [A7]+
0000001C  2D4C FFF8                move.l     [A6 - 0x8], A4
00000020  486E FFF8                pea.l      [A6 - 0x8]
00000024  4EAD 1AB2                jsr        [A5 + 0x1AB2 /* export_850, CODE:16 @ 00001A82 */]
00000028  486E FFF4                pea.l      [A6 - 0xC]
0000002C  486E FFF8                pea.l      [A6 - 0x8]
00000030  4EAD 19CA                jsr        [A5 + 0x19CA /* export_821, CODE:16 @ 00001164 */]
00000034  202E FFF8                move.l     D0, [A6 - 0x8]
00000038  908C                     sub.l      D0, A4
0000003A  0240 0001                andi.w     D0, 0x1
0000003E  6604                     bne        +0x6 /* 00000044 */
00000040  52AE FFF8                addq.l     [A6 - 0x8], 1
label00000044:
00000044  536D B978                subq.w     [A5 - 0x4688], 1
00000048  202E FFF8                move.l     D0, [A6 - 0x8]
0000004C  908C                     sub.l      D0, A4
0000004E  5280                     addq.l     D0, 1
00000050  322D B978                move.w     D1, [A5 - 0x4688]
00000054  5341                     subq.w     D1, 1
00000056  41ED B6F8                lea.l      A0, [A5 - 0x4908]
0000005A  E541                     asl        D1.w, 2
0000005C  2180 1000                move.l     [A0 + D1.w], D0
00000060  206D B66C                movea.l    A0, [A5 - 0x4994]
00000064  202E FFF8                move.l     D0, [A6 - 0x8]
00000068  9090                     sub.l      D0, [A0]
0000006A  5280                     addq.l     D0, 1
0000006C  2B40 B674                move.l     [A5 - 0x498C], D0
00000070  42A7                     clr.l      -[A7]
00000072  2F2D B66C                move.l     -[A7], [A5 - 0x4994]
00000076  4EAD 0202                jsr        [A5 + 0x202 /* export_60, CODE:1 @ 00004640 */]
0000007A  201F                     move.l     D0, [A7]+
0000007C  90AD B674                sub.l      D0, [A5 - 0x498C]
00000080  2B40 B670                move.l     [A5 - 0x4990], D0
00000084  285F                     movea.l    A4, [A7]+
00000086  4E5E                     unlink     A6
00000088  4E75                     rts
export_535:
0000008A  4E56 FFF4                link       A6, -0x000C
0000008E  2F0C                     move.l     -[A7], A4
00000090  42A7                     clr.l      -[A7]
00000092  4267                     clr.w      -[A7]
00000094  4EAD 08F2                jsr        [A5 + 0x8F2 /* export_282, CODE:8 @ 0000017A */]
00000098  2D5F FFF4                move.l     [A6 - 0xC], [A7]+
0000009C  42A7                     clr.l      -[A7]
0000009E  4267                     clr.w      -[A7]
000000A0  4EAD 0902                jsr        [A5 + 0x902 /* export_284, CODE:8 @ 000001C0 */]
000000A4  285F                     movea.l    A4, [A7]+
000000A6  2D4C FFF8                move.l     [A6 - 0x8], A4
000000AA  486E FFF8                pea.l      [A6 - 0x8]
000000AE  4EAD 1AB2                jsr        [A5 + 0x1AB2 /* export_850, CODE:16 @ 00001A82 */]
000000B2  206E FFF8                movea.l    A0, [A6 - 0x8]
000000B6  10BC 0020                move.b     [A0], 0x20 /* ' ' */
000000BA  52AE FFF8                addq.l     [A6 - 0x8], 1
000000BE  486E FFF4                pea.l      [A6 - 0xC]
000000C2  486E FFF8                pea.l      [A6 - 0x8]
000000C6  4EAD 19CA                jsr        [A5 + 0x19CA /* export_821, CODE:16 @ 00001164 */]
000000CA  202E FFF8                move.l     D0, [A6 - 0x8]
000000CE  908C                     sub.l      D0, A4
000000D0  0240 0001                andi.w     D0, 0x1
000000D4  6604                     bne        +0x6 /* 000000DA */
000000D6  52AE FFF8                addq.l     [A6 - 0x8], 1
label000000DA:
000000DA  536D B978                subq.w     [A5 - 0x4688], 1
000000DE  202E FFF8                move.l     D0, [A6 - 0x8]
000000E2  908C                     sub.l      D0, A4
000000E4  5280                     addq.l     D0, 1
000000E6  322D B978                move.w     D1, [A5 - 0x4688]
000000EA  5341                     subq.w     D1, 1
000000EC  41ED B6F8                lea.l      A0, [A5 - 0x4908]
000000F0  E541                     asl        D1.w, 2
000000F2  2180 1000                move.l     [A0 + D1.w], D0
000000F6  206D B66C                movea.l    A0, [A5 - 0x4994]
000000FA  202E FFF8                move.l     D0, [A6 - 0x8]
000000FE  9090                     sub.l      D0, [A0]
00000100  5280                     addq.l     D0, 1
00000102  2B40 B674                move.l     [A5 - 0x498C], D0
00000106  42A7                     clr.l      -[A7]
00000108  2F2D B66C                move.l     -[A7], [A5 - 0x4994]
0000010C  4EAD 0202                jsr        [A5 + 0x202 /* export_60, CODE:1 @ 00004640 */]
00000110  201F                     move.l     D0, [A7]+
00000112  90AD B674                sub.l      D0, [A5 - 0x498C]
00000116  2B40 B670                move.l     [A5 - 0x4990], D0
0000011A  285F                     movea.l    A4, [A7]+
0000011C  4E5E                     unlink     A6
0000011E  4E75                     rts
export_536:
00000120  4E56 0000                link       A6, 0
00000124  4267                     clr.w      -[A7]
00000126  4EAD 1472                jsr        [A5 + 0x1472 /* export_650, CODE:13 @ 000016BC */]
0000012A  4267                     clr.w      -[A7]
0000012C  4EAD 1472                jsr        [A5 + 0x1472 /* export_650, CODE:13 @ 000016BC */]
00000130  101F                     move.b     D0, [A7]+
00000132  C01F                     and.b      D0, [A7]+
00000134  1F00                     move.b     -[A7], D0
00000136  4EAD 0B02                jsr        [A5 + 0xB02 /* export_348, CODE:8 @ 00003A06 */]
0000013A  4E5E                     unlink     A6
0000013C  4E75                     rts
export_537:
0000013E  4E56 FDD2                link       A6, -0x022E
00000142  48E7 0318                movem.l    -[A7], D6,D7,A3,A4
00000146  422D 9AD5                clr.b      [A5 - 0x652B]
0000014A  4267                     clr.w      -[A7]
0000014C  4EBA 0C32                jsr        [PC + 0xC32 /* 00000D80 */]
00000150  101F                     move.b     D0, [A7]+
00000152  6700 01D8                beq        +0x1DA /* 0000032C */
00000156  486E FDE0                pea.l      [A6 - 0x220]
0000015A  4EAD 1442                jsr        [A5 + 0x1442 /* export_644, CODE:13 @ 00001164 */]
0000015E  4267                     clr.w      -[A7]
00000160  4EBA 0C1E                jsr        [PC + 0xC1E /* 00000D80 */]
00000164  101F                     move.b     D0, [A7]+
00000166  6700 01B2                beq        +0x1B4 /* 0000031A */
0000016A  486E FDEC                pea.l      [A6 - 0x214]
0000016E  4EAD 1442                jsr        [A5 + 0x1442 /* export_644, CODE:13 @ 00001164 */]
00000172  102E FDEC                move.b     D0, [A6 - 0x214]
00000176  C02E FDE0                and.b      D0, [A6 - 0x220]
0000017A  6774                     beq        +0x76 /* 000001F0 */
0000017C  302D BC3A                move.w     D0, [A5 - 0x43C6]
00000180  5F40                     subq.w     D0, 7
00000182  6716                     beq        +0x18 /* 0000019A */
00000184  5540                     subq.w     D0, 2
00000186  674A                     beq        +0x4C /* 000001D2 */
00000188  5340                     subq.w     D0, 1
0000018A  672A                     beq        +0x2C /* 000001B6 */
0000018C  5B40                     subq.w     D0, 5
0000018E  6750                     beq        +0x52 /* 000001E0 */
00000190  5340                     subq.w     D0, 1
00000192  6730                     beq        +0x32 /* 000001C4 */
00000194  5740                     subq.w     D0, 3
00000196  6710                     beq        +0x12 /* 000001A8 */
00000198  6052                     bra        +0x54 /* 000001EC */
label0000019A:
0000019A  202E FDEE                move.l     D0, [A6 - 0x212]
0000019E  B0AE FDE2                cmp.l      D0, [A6 - 0x21E]
000001A2  57C7                     seq        D7
000001A4  4407                     neg.b      D7
000001A6  6044                     bra        +0x46 /* 000001EC */
label000001A8:
000001A8  202E FDEE                move.l     D0, [A6 - 0x212]
000001AC  B0AE FDE2                cmp.l      D0, [A6 - 0x21E]
000001B0  56C7                     sne        D7
000001B2  4407                     neg.b      D7
000001B4  6036                     bra        +0x38 /* 000001EC */
label000001B6:
000001B6  202E FDEE                move.l     D0, [A6 - 0x212]
000001BA  B0AE FDE2                cmp.l      D0, [A6 - 0x21E]
000001BE  5EC7                     sgt        D7
000001C0  4407                     neg.b      D7
000001C2  6028                     bra        +0x2A /* 000001EC */
label000001C4:
000001C4  202E FDEE                move.l     D0, [A6 - 0x212]
000001C8  B0AE FDE2                cmp.l      D0, [A6 - 0x21E]
000001CC  5DC7                     slt        D7
000001CE  4407                     neg.b      D7
000001D0  601A                     bra        +0x1C /* 000001EC */
label000001D2:
000001D2  202E FDEE                move.l     D0, [A6 - 0x212]
000001D6  B0AE FDE2                cmp.l      D0, [A6 - 0x21E]
000001DA  5CC7                     sge        D7
000001DC  4407                     neg.b      D7
000001DE  600C                     bra        +0xE /* 000001EC */
label000001E0:
000001E0  202E FDEE                move.l     D0, [A6 - 0x212]
000001E4  B0AE FDE2                cmp.l      D0, [A6 - 0x21E]
000001E8  5FC7                     sle        D7
000001EA  4407                     neg.b      D7
label000001EC:
000001EC  6000 02AE                bra        +0x2B0 /* 0000049C */
label000001F0:
000001F0  102E FDE0                move.b     D0, [A6 - 0x220]
000001F4  671C                     beq        +0x1E /* 00000212 */
000001F6  486E FDE2                pea.l      [A6 - 0x21E]
000001FA  486E FDD2                pea.l      [A6 - 0x22E]
000001FE  3F3C 280E                move.w     -[A7], 0x280E
00000202  A9EB                     syscall    Pack4/FP68K
00000204  41EE FDE2                lea.l      A0, [A6 - 0x21E]
00000208  43EE FDD2                lea.l      A1, [A6 - 0x22E]
0000020C  20D9                     move.l     [A0]+, [A1]+
0000020E  20D9                     move.l     [A0]+, [A1]+
00000210  3091                     move.w     [A0], [A1]
label00000212:
00000212  102E FDEC                move.b     D0, [A6 - 0x214]
00000216  671C                     beq        +0x1E /* 00000234 */
00000218  486E FDEE                pea.l      [A6 - 0x212]
0000021C  486E FDD2                pea.l      [A6 - 0x22E]
00000220  3F3C 280E                move.w     -[A7], 0x280E
00000224  A9EB                     syscall    Pack4/FP68K
00000226  41EE FDEE                lea.l      A0, [A6 - 0x212]
0000022A  43EE FDD2                lea.l      A1, [A6 - 0x22E]
0000022E  20D9                     move.l     [A0]+, [A1]+
00000230  20D9                     move.l     [A0]+, [A1]+
00000232  3091                     move.w     [A0], [A1]
label00000234:
00000234  302D BC3A                move.w     D0, [A5 - 0x43C6]
00000238  5F40                     subq.w     D0, 7
0000023A  6720                     beq        +0x22 /* 0000025C */
0000023C  5540                     subq.w     D0, 2
0000023E  6700 00B2                beq        +0xB4 /* 000002F2 */
00000242  5340                     subq.w     D0, 1
00000244  6700 0084                beq        +0x86 /* 000002CA */
00000248  5B40                     subq.w     D0, 5
0000024A  6700 00BA                beq        +0xBC /* 00000306 */
0000024E  5340                     subq.w     D0, 1
00000250  6700 008C                beq        +0x8E /* 000002DE */
00000254  5740                     subq.w     D0, 3
00000256  673C                     beq        +0x3E /* 00000294 */
00000258  6000 0242                bra        +0x244 /* 0000049C */
label0000025C:
0000025C  486E FDE2                pea.l      [A6 - 0x21E]
00000260  41EE FDD2                lea.l      A0, [A6 - 0x22E]
00000264  43EE FDEE                lea.l      A1, [A6 - 0x212]
00000268  20D9                     move.l     [A0]+, [A1]+
0000026A  20D9                     move.l     [A0]+, [A1]+
0000026C  3091                     move.w     [A0], [A1]
0000026E  486E FDD2                pea.l      [A6 - 0x22E]
00000272  3F3C 0002                move.w     -[A7], 0x2
00000276  A9EB                     syscall    Pack4/FP68K
00000278  022E 007F FDD2           andi.b     [A6 - 0x22E], 0x7F
0000027E  487A 0230                pea.l      [PC + 0x230 /* 000004B0, value 0x3FDAAFEB */]
00000282  486E FDD2                pea.l      [A6 - 0x22E]
00000286  3F3C 000A                move.w     -[A7], 0xA /* '\n' */
0000028A  A9EB                     syscall    Pack4/FP68K
0000028C  55C7                     scs        D7
0000028E  4407                     neg.b      D7
00000290  6000 020A                bra        +0x20C /* 0000049C */
label00000294:
00000294  486E FDE2                pea.l      [A6 - 0x21E]
00000298  41EE FDD2                lea.l      A0, [A6 - 0x22E]
0000029C  43EE FDEE                lea.l      A1, [A6 - 0x212]
000002A0  20D9                     move.l     [A0]+, [A1]+
000002A2  20D9                     move.l     [A0]+, [A1]+
000002A4  3091                     move.w     [A0], [A1]
000002A6  486E FDD2                pea.l      [A6 - 0x22E]
000002AA  3F3C 0002                move.w     -[A7], 0x2
000002AE  A9EB                     syscall    Pack4/FP68K
000002B0  022E 007F FDD2           andi.b     [A6 - 0x22E], 0x7F
000002B6  487A 01F8                pea.l      [PC + 0x1F8 /* 000004B0, value 0x3FDAAFEB */]
000002BA  486E FDD2                pea.l      [A6 - 0x22E]
000002BE  3F3C 000A                move.w     -[A7], 0xA /* '\n' */
000002C2  A9EB                     syscall    Pack4/FP68K
000002C4  5EC7                     sgt        D7
000002C6  4407                     neg.b      D7
000002C8  605E                     bra        +0x60 /* 00000328 */
label000002CA:
000002CA  486E FDE2                pea.l      [A6 - 0x21E]
000002CE  486E FDEE                pea.l      [A6 - 0x212]
000002D2  3F3C 000A                move.w     -[A7], 0xA /* '\n' */
000002D6  A9EB                     syscall    Pack4/FP68K
000002D8  5EC7                     sgt        D7
000002DA  4407                     neg.b      D7
000002DC  604A                     bra        +0x4C /* 00000328 */
label000002DE:
000002DE  486E FDE2                pea.l      [A6 - 0x21E]
000002E2  486E FDEE                pea.l      [A6 - 0x212]
000002E6  3F3C 000A                move.w     -[A7], 0xA /* '\n' */
000002EA  A9EB                     syscall    Pack4/FP68K
000002EC  55C7                     scs        D7
000002EE  4407                     neg.b      D7
000002F0  6036                     bra        +0x38 /* 00000328 */
label000002F2:
000002F2  486E FDE2                pea.l      [A6 - 0x21E]
000002F6  486E FDEE                pea.l      [A6 - 0x212]
000002FA  3F3C 000A                move.w     -[A7], 0xA /* '\n' */
000002FE  A9EB                     syscall    Pack4/FP68K
00000300  5CC7                     sge        D7
00000302  4407                     neg.b      D7
00000304  6022                     bra        +0x24 /* 00000328 */
label00000306:
00000306  486E FDE2                pea.l      [A6 - 0x21E]
0000030A  486E FDEE                pea.l      [A6 - 0x212]
0000030E  3F3C 000A                move.w     -[A7], 0xA /* '\n' */
00000312  A9EB                     syscall    Pack4/FP68K
00000314  53C7                     sls        D7
00000316  4407                     neg.b      D7
00000318  600E                     bra        +0x10 /* 00000328 */
label0000031A:
0000031A  486E FDE0                pea.l      [A6 - 0x220]
0000031E  4EAD 0ACA                jsr        [A5 + 0xACA /* export_341, CODE:8 @ 000037A8 */]
00000322  4EBA 0F44                jsr        [PC + 0xF44 /* 00001268 */]
00000326  6004                     bra        +0x6 /* 0000032C */
label00000328:
00000328  6000 0172                bra        +0x174 /* 0000049C */
label0000032C:
0000032C  302D B978                move.w     D0, [A5 - 0x4688]
00000330  5340                     subq.w     D0, 1
00000332  41ED B6F8                lea.l      A0, [A5 - 0x4908]
00000336  E540                     asl        D0.w, 2
00000338  0CB0 0000 00FD 0000      cmpi.l     [A0 + D0.w], 0xFD
00000340  5DC0                     slt        D0
00000342  4A00                     tst.b      D0
00000344  6766                     beq        +0x68 /* 000003AC */
00000346  322D B978                move.w     D1, [A5 - 0x4688]
0000034A  5341                     subq.w     D1, 1
0000034C  5341                     subq.w     D1, 1
0000034E  41ED B6F8                lea.l      A0, [A5 - 0x4908]
00000352  E541                     asl        D1.w, 2
00000354  0CB0 0000 00FD 1000      cmpi.l     [A0 + D1.w], 0xFD
0000035C  5DC1                     slt        D1
0000035E  C001                     and.b      D0, D1
00000360  674A                     beq        +0x4C /* 000003AC */
00000362  486E FDF8                pea.l      [A6 - 0x208]
00000366  4EAD 1482                jsr        [A5 + 0x1482 /* export_652, CODE:13 @ 00001714 */]
0000036A  486E FEF8                pea.l      [A6 - 0x108]
0000036E  4EAD 1482                jsr        [A5 + 0x1482 /* export_652, CODE:13 @ 00001714 */]
00000372  7007                     moveq.l    D0, 0x07
00000374  B06D BC3A                cmp.w      D0, [A5 - 0x43C6]
00000378  57C0                     seq        D0
0000037A  7213                     moveq.l    D1, 0x13
0000037C  B26D BC3A                cmp.w      D1, [A5 - 0x43C6]
00000380  57C1                     seq        D1
00000382  8001                     or.b       D0, D1
00000384  6712                     beq        +0x14 /* 00000398 */
00000386  4267                     clr.w      -[A7]
00000388  486E FEF8                pea.l      [A6 - 0x108]
0000038C  486E FDF8                pea.l      [A6 - 0x208]
00000390  4EAD 0452                jsr        [A5 + 0x452 /* export_134, CODE:1 @ 00004D6E */]
00000394  3C1F                     move.w     D6, [A7]+
00000396  6010                     bra        +0x12 /* 000003A8 */
label00000398:
00000398  4267                     clr.w      -[A7]
0000039A  486E FEF8                pea.l      [A6 - 0x108]
0000039E  486E FDF8                pea.l      [A6 - 0x208]
000003A2  4EAD 044A                jsr        [A5 + 0x44A /* export_133, CODE:1 @ 00004D66 */]
000003A6  3C1F                     move.w     D6, [A7]+
label000003A8:
000003A8  6000 0086                bra        +0x88 /* 00000430 */
label000003AC:
000003AC  42A7                     clr.l      -[A7]
000003AE  4EAD 145A                jsr        [A5 + 0x145A /* export_647, CODE:13 @ 0000157E */]
000003B2  285F                     movea.l    A4, [A7]+
000003B4  2F0C                     move.l     -[A7], A4
000003B6  4EAD 0222                jsr        [A5 + 0x222 /* export_64, CODE:1 @ 00004678 */]
000003BA  4EBA 0EAC                jsr        [PC + 0xEAC /* 00001268 */]
000003BE  42A7                     clr.l      -[A7]
000003C0  4267                     clr.w      -[A7]
000003C2  4EAD 08F2                jsr        [A5 + 0x8F2 /* export_282, CODE:8 @ 0000017A */]
000003C6  265F                     movea.l    A3, [A7]+
000003C8  7007                     moveq.l    D0, 0x07
000003CA  B06D BC3A                cmp.w      D0, [A5 - 0x43C6]
000003CE  57C0                     seq        D0
000003D0  7213                     moveq.l    D1, 0x13
000003D2  B26D BC3A                cmp.w      D1, [A5 - 0x43C6]
000003D6  57C1                     seq        D1
000003D8  8001                     or.b       D0, D1
000003DA  6726                     beq        +0x28 /* 00000402 */
000003DC  4267                     clr.w      -[A7]
000003DE  2F0B                     move.l     -[A7], A3
000003E0  2F14                     move.l     -[A7], [A4]
000003E2  42A7                     clr.l      -[A7]
000003E4  2F0B                     move.l     -[A7], A3
000003E6  4EAD 1ADA                jsr        [A5 + 0x1ADA /* export_855, CODE:16 @ 00001C66 */]
000003EA  201F                     move.l     D0, [A7]+
000003EC  3F00                     move.w     -[A7], D0
000003EE  42A7                     clr.l      -[A7]
000003F0  2F14                     move.l     -[A7], [A4]
000003F2  4EAD 1ADA                jsr        [A5 + 0x1ADA /* export_855, CODE:16 @ 00001C66 */]
000003F6  201F                     move.l     D0, [A7]+
000003F8  3F00                     move.w     -[A7], D0
000003FA  4EAD 0442                jsr        [A5 + 0x442 /* export_132, CODE:1 @ 00004D5A */]
000003FE  3C1F                     move.w     D6, [A7]+
00000400  6024                     bra        +0x26 /* 00000426 */
label00000402:
00000402  4267                     clr.w      -[A7]
00000404  2F0B                     move.l     -[A7], A3
00000406  2F14                     move.l     -[A7], [A4]
00000408  42A7                     clr.l      -[A7]
0000040A  2F0B                     move.l     -[A7], A3
0000040C  4EAD 1ADA                jsr        [A5 + 0x1ADA /* export_855, CODE:16 @ 00001C66 */]
00000410  201F                     move.l     D0, [A7]+
00000412  3F00                     move.w     -[A7], D0
00000414  42A7                     clr.l      -[A7]
00000416  2F14                     move.l     -[A7], [A4]
00000418  4EAD 1ADA                jsr        [A5 + 0x1ADA /* export_855, CODE:16 @ 00001C66 */]
0000041C  201F                     move.l     D0, [A7]+
0000041E  3F00                     move.w     -[A7], D0
00000420  4EAD 043A                jsr        [A5 + 0x43A /* export_131, CODE:1 @ 00004D52 */]
00000424  3C1F                     move.w     D6, [A7]+
label00000426:
00000426  2F0C                     move.l     -[A7], A4
00000428  4EAD 18D2                jsr        [A5 + 0x18D2 /* export_790, CODE:16 @ 0000083E */]
0000042C  4EAD 1432                jsr        [A5 + 0x1432 /* export_642, CODE:13 @ 000010F2 */]
label00000430:
00000430  302D BC3A                move.w     D0, [A5 - 0x43C6]
00000434  5F40                     subq.w     D0, 7
00000436  6716                     beq        +0x18 /* 0000044E */
00000438  5540                     subq.w     D0, 2
0000043A  6736                     beq        +0x38 /* 00000472 */
0000043C  5340                     subq.w     D0, 1
0000043E  671E                     beq        +0x20 /* 0000045E */
00000440  5B40                     subq.w     D0, 5
00000442  6744                     beq        +0x46 /* 00000488 */
00000444  5340                     subq.w     D0, 1
00000446  6720                     beq        +0x22 /* 00000468 */
00000448  5740                     subq.w     D0, 3
0000044A  670A                     beq        +0xC /* 00000456 */
0000044C  604E                     bra        +0x50 /* 0000049C */
label0000044E:
0000044E  4A46                     tst.w      D6
00000450  57C7                     seq        D7
00000452  4407                     neg.b      D7
00000454  6046                     bra        +0x48 /* 0000049C */
label00000456:
00000456  4A46                     tst.w      D6
00000458  56C7                     sne        D7
0000045A  4407                     neg.b      D7
0000045C  603E                     bra        +0x40 /* 0000049C */
label0000045E:
0000045E  7001                     moveq.l    D0, 0x01
00000460  B046                     cmp.w      D0, D6
00000462  57C7                     seq        D7
00000464  4407                     neg.b      D7
00000466  6034                     bra        +0x36 /* 0000049C */
label00000468:
00000468  70FF                     moveq.l    D0, 0xFFFFFFFF
0000046A  B046                     cmp.w      D0, D6
0000046C  57C7                     seq        D7
0000046E  4407                     neg.b      D7
00000470  602A                     bra        +0x2C /* 0000049C */
label00000472:
00000472  7001                     moveq.l    D0, 0x01
00000474  B046                     cmp.w      D0, D6
00000476  57C0                     seq        D0
00000478  4A00                     tst.b      D0
0000047A  6606                     bne        +0x8 /* 00000482 */
0000047C  4A46                     tst.w      D6
0000047E  57C1                     seq        D1
00000480  8001                     or.b       D0, D1
label00000482:
00000482  4400                     neg.b      D0
00000484  1E00                     move.b     D7, D0
00000486  6014                     bra        +0x16 /* 0000049C */
label00000488:
00000488  70FF                     moveq.l    D0, 0xFFFFFFFF
0000048A  B046                     cmp.w      D0, D6
0000048C  57C0                     seq        D0
0000048E  4A00                     tst.b      D0
00000490  6606                     bne        +0x8 /* 00000498 */
00000492  4A46                     tst.w      D6
00000494  57C1                     seq        D1
00000496  8001                     or.b       D0, D1
label00000498:
00000498  4400                     neg.b      D0
0000049A  1E00                     move.b     D7, D0
label0000049C:
0000049C  1F07                     move.b     -[A7], D7
0000049E  4EAD 0B02                jsr        [A5 + 0xB02 /* export_348, CODE:8 @ 00003A06 */]
000004A2  1B7C 0001 9AD5           move.b     [A5 - 0x652B], 0x1
000004A8  4CDF 18C0                movem.l    D6,D7,A3,A4, [A7]+
000004AC  4E5E                     unlink     A6
000004AE  4E75                     rts
000004B0  3FDA                     move.w     <<invalid special address>>, [A2]+
000004B2  AFEB                     syscall    DisplayDispatch, auto_pop
000004B4  FF0B                     .extension 0xF0B <<F/4-5/7>> // unimplemented
000004B6  CB24                     and.b      -[A4], D5
000004B8  AAFF                     syscall    0xAFF
export_538:
000004BA  4E56 FFF8                link       A6, -0x0008
000004BE  48E7 0018                movem.l    -[A7], A3,A4
000004C2  42A7                     clr.l      -[A7]
000004C4  4267                     clr.w      -[A7]
000004C6  4EAD 08F2                jsr        [A5 + 0x8F2 /* export_282, CODE:8 @ 0000017A */]
000004CA  265F                     movea.l    A3, [A7]+
000004CC  42A7                     clr.l      -[A7]
000004CE  4267                     clr.w      -[A7]
000004D0  4EAD 0902                jsr        [A5 + 0x902 /* export_284, CODE:8 @ 000001C0 */]
000004D4  285F                     movea.l    A4, [A7]+
000004D6  42A7                     clr.l      -[A7]
000004D8  2F0B                     move.l     -[A7], A3
000004DA  2F0C                     move.l     -[A7], A4
000004DC  4EAD 1AEA                jsr        [A5 + 0x1AEA /* export_857, CODE:16 @ 00001C7C */]
000004E0  285F                     movea.l    A4, [A7]+
000004E2  4EAD 1432                jsr        [A5 + 0x1432 /* export_642, CODE:13 @ 000010F2 */]
000004E6  4EAD 1432                jsr        [A5 + 0x1432 /* export_642, CODE:13 @ 000010F2 */]
000004EA  200C                     move.l     D0, A4
000004EC  56C0                     sne        D0
000004EE  4400                     neg.b      D0
000004F0  1F00                     move.b     -[A7], D0
000004F2  4EAD 0B02                jsr        [A5 + 0xB02 /* export_348, CODE:8 @ 00003A06 */]
000004F6  4CDF 1800                movem.l    A3,A4, [A7]+
000004FA  4E5E                     unlink     A6
000004FC  4E75                     rts
export_539:
000004FE  4E56 FFF8                link       A6, -0x0008
00000502  48E7 0300                movem.l    -[A7], D6,D7
00000506  42A7                     clr.l      -[A7]
00000508  4EAD 1462                jsr        [A5 + 0x1462 /* export_648, CODE:13 @ 000015F4 */]
0000050C  2E1F                     move.l     D7, [A7]+
0000050E  42A7                     clr.l      -[A7]
00000510  4EAD 1462                jsr        [A5 + 0x1462 /* export_648, CODE:13 @ 000015F4 */]
00000514  2C1F                     move.l     D6, [A7]+
00000516  4A87                     tst.l      D7
00000518  670E                     beq        +0x10 /* 00000528 */
0000051A  2F06                     move.l     -[A7], D6
0000051C  2F07                     move.l     -[A7], D7
0000051E  4EAD 04F2                jsr        [A5 + 0x4F2 /* export_154, CODE:1 @ 00005224 */]
00000522  4EAD 0B12                jsr        [A5 + 0xB12 /* export_350, CODE:8 @ 00003A4E */]
00000526  6008                     bra        +0xA /* 00000530 */
label00000528:
00000528  3F3C 0009                move.w     -[A7], 0x9 /* '\t' */
0000052C  4EAD 098A                jsr        [A5 + 0x98A /* export_301, CODE:8 @ 00000B58 */]
label00000530:
00000530  4CDF 00C0                movem.l    D6,D7, [A7]+
00000534  4E5E                     unlink     A6
00000536  4E75                     rts
export_540:
00000538  4E56 FFE2                link       A6, -0x001E
0000053C  486E FFF6                pea.l      [A6 - 0xA]
00000540  4EAD 1452                jsr        [A5 + 0x1452 /* export_646, CODE:13 @ 00001556 */]
00000544  486E FFEC                pea.l      [A6 - 0x14]
00000548  4EAD 1452                jsr        [A5 + 0x1452 /* export_646, CODE:13 @ 00001556 */]
0000054C  486E FFF6                pea.l      [A6 - 0xA]
00000550  41EE FFE2                lea.l      A0, [A6 - 0x1E]
00000554  43EE FFEC                lea.l      A1, [A6 - 0x14]
00000558  20D9                     move.l     [A0]+, [A1]+
0000055A  20D9                     move.l     [A0]+, [A1]+
0000055C  3091                     move.w     [A0], [A1]
0000055E  486E FFE2                pea.l      [A6 - 0x1E]
00000562  3F3C 0006                move.w     -[A7], 0x6
00000566  A9EB                     syscall    Pack4/FP68K
00000568  486E FFE2                pea.l      [A6 - 0x1E]
0000056C  4EAD 0AFA                jsr        [A5 + 0xAFA /* export_347, CODE:8 @ 000039DE */]
00000570  4E5E                     unlink     A6
00000572  4E75                     rts
export_541:
00000574  4E56 FFE2                link       A6, -0x001E
00000578  486E FFF6                pea.l      [A6 - 0xA]
0000057C  4EAD 1452                jsr        [A5 + 0x1452 /* export_646, CODE:13 @ 00001556 */]
00000580  486E FFEC                pea.l      [A6 - 0x14]
00000584  4EAD 1452                jsr        [A5 + 0x1452 /* export_646, CODE:13 @ 00001556 */]
00000588  486E FFE2                pea.l      [A6 - 0x1E]
0000058C  486E FFEC                pea.l      [A6 - 0x14]
00000590  486E FFF6                pea.l      [A6 - 0xA]
00000594  4EAD 0572                jsr        [A5 + 0x572 /* export_170, CODE:2 @ 000001BC */]
00000598  588F                     addq.l     A7, 4
0000059A  486E FFE2                pea.l      [A6 - 0x1E]
0000059E  4EAD 0AFA                jsr        [A5 + 0xAFA /* export_347, CODE:8 @ 000039DE */]
000005A2  4E5E                     unlink     A6
000005A4  4E75                     rts
export_542:
fn000005A6:
000005A6  4E56 FFF8                link       A6, -0x0008
000005AA  48E7 0018                movem.l    -[A7], A3,A4
000005AE  42A7                     clr.l      -[A7]
000005B0  4267                     clr.w      -[A7]
000005B2  4EAD 0902                jsr        [A5 + 0x902 /* export_284, CODE:8 @ 000001C0 */]
000005B6  265F                     movea.l    A3, [A7]+
000005B8  42A7                     clr.l      -[A7]
000005BA  4267                     clr.w      -[A7]
000005BC  4EAD 08F2                jsr        [A5 + 0x8F2 /* export_282, CODE:8 @ 0000017A */]
000005C0  285F                     movea.l    A4, [A7]+
000005C2  42A7                     clr.l      -[A7]
000005C4  2F0B                     move.l     -[A7], A3
000005C6  2F0C                     move.l     -[A7], A4
000005C8  4EAD 1AEA                jsr        [A5 + 0x1AEA /* export_857, CODE:16 @ 00001C7C */]
000005CC  285F                     movea.l    A4, [A7]+
000005CE  4EAD 1432                jsr        [A5 + 0x1432 /* export_642, CODE:13 @ 000010F2 */]
000005D2  4EAD 1432                jsr        [A5 + 0x1432 /* export_642, CODE:13 @ 000010F2 */]
000005D6  200C                     move.l     D0, A4
000005D8  56C0                     sne        D0
000005DA  4400                     neg.b      D0
000005DC  1F00                     move.b     -[A7], D0
000005DE  4EAD 0B02                jsr        [A5 + 0xB02 /* export_348, CODE:8 @ 00003A06 */]
000005E2  4CDF 1800                movem.l    A3,A4, [A7]+
000005E6  4E5E                     unlink     A6
000005E8  4E75                     rts
export_543:
000005EA  4E56 0000                link       A6, 0
000005EE  4EBA FFB6                jsr        [PC - 0x4A /* 000005A6 */]
000005F2  4EAD 0A7A                jsr        [A5 + 0xA7A /* export_331, CODE:8 @ 000030AC */]
000005F6  4E5E                     unlink     A6
000005F8  4E75                     rts
export_544:
000005FA  4E56 0000                link       A6, 0
000005FE  4EBA 0110                jsr        [PC + 0x110 /* 00000710 */]
00000602  4EAD 0A7A                jsr        [A5 + 0xA7A /* export_331, CODE:8 @ 000030AC */]
00000606  4E5E                     unlink     A6
00000608  4E75                     rts
fn0000060A:
0000060A  4E56 FEE6                link       A6, -0x011A
0000060E  4EBA 0C58                jsr        [PC + 0xC58 /* 00001268 */]
00000612  2D6D D470 FFE6           move.l     [A6 - 0x1A], [A5 - 0x2B90]
00000618  2F2D B66C                move.l     -[A7], [A5 - 0x4994]
0000061C  4EAD 0222                jsr        [A5 + 0x222 /* export_64, CODE:1 @ 00004678 */]
00000620  42A7                     clr.l      -[A7]
00000622  4267                     clr.w      -[A7]
00000624  4EAD 08F2                jsr        [A5 + 0x8F2 /* export_282, CODE:8 @ 0000017A */]
00000628  302D B978                move.w     D0, [A5 - 0x4688]
0000062C  5340                     subq.w     D0, 1
0000062E  41ED B6F8                lea.l      A0, [A5 - 0x4908]
00000632  E540                     asl        D0.w, 2
00000634  2F30 0000                move.l     -[A7], [A0 + D0.w]
00000638  486E FFEA                pea.l      [A6 - 0x16]
0000063C  4EAD 0ABA                jsr        [A5 + 0xABA /* export_339, CODE:8 @ 00003676 */]
00000640  2F2D B66C                move.l     -[A7], [A5 - 0x4994]
00000644  4EAD 022A                jsr        [A5 + 0x22A /* export_65, CODE:1 @ 00004682 */]
00000648  486E FEE6                pea.l      [A6 - 0x11A]
0000064C  4EAD 1482                jsr        [A5 + 0x1482 /* export_652, CODE:13 @ 00001714 */]
00000650  486E FFEA                pea.l      [A6 - 0x16]
00000654  1F3C 0001                move.b     -[A7], 0x1
00000658  4EAD 0BCA                jsr        [A5 + 0xBCA /* export_373, CODE:8 @ 00004222 */]
0000065C  4267                     clr.w      -[A7]
0000065E  3F2E 000C                move.w     -[A7], [A6 + 0xC]
00000662  4EAD 090A                jsr        [A5 + 0x90A /* export_285, CODE:8 @ 000002B2 */]
00000666  101F                     move.b     D0, [A7]+
00000668  6708                     beq        +0xA /* 00000672 */
0000066A  1D7C 0001 000E           move.b     [A6 + 0xE], 0x1
00000670  600C                     bra        +0xE /* 0000067E */
label00000672:
00000672  422E 000E                clr.b      [A6 + 0xE]
00000676  486E FEE6                pea.l      [A6 - 0x11A]
0000067A  4EAD 0B22                jsr        [A5 + 0xB22 /* export_352, CODE:8 @ 00003A82 */]
label0000067E:
0000067E  486E FFEA                pea.l      [A6 - 0x16]
00000682  4EAD 09D2                jsr        [A5 + 0x9D2 /* export_310, CODE:8 @ 00000E62 */]
00000686  2F2E FFE6                move.l     -[A7], [A6 - 0x1A]
0000068A  4267                     clr.w      -[A7]
0000068C  4EAD 0BCA                jsr        [A5 + 0xBCA /* export_373, CODE:8 @ 00004222 */]
00000690  4E5E                     unlink     A6
00000692  205F                     movea.l    A0, [A7]+
00000694  5C4F                     addq.w     A7, 6
00000696  4ED0                     jmp        [A0]
fn00000698:
00000698  4E56 0000                link       A6, 0
0000069C  302D B978                move.w     D0, [A5 - 0x4688]
000006A0  5340                     subq.w     D0, 1
000006A2  41ED B678                lea.l      A0, [A5 - 0x4988]
000006A6  720C                     moveq.l    D1, 0x0C
000006A8  B230 0000                cmp.b      D1, [A0 + D0.w]
000006AC  6608                     bne        +0xA /* 000006B6 */
000006AE  1D7C 0001 000C           move.b     [A6 + 0xC], 0x1
000006B4  6018                     bra        +0x1A /* 000006CE */
label000006B6:
000006B6  4267                     clr.w      -[A7]
000006B8  206D D450                movea.l    A0, [A5 - 0x2BB0]
000006BC  2050                     movea.l    A0, [A0]
000006BE  3F28 018A                move.w     -[A7], [A0 + 0x18A]
000006C2  2F2E 0008                move.l     -[A7], [A6 + 0x8]
000006C6  4EBA FF42                jsr        [PC - 0xBE /* 0000060A */]
000006CA  1D5F 000C                move.b     [A6 + 0xC], [A7]+
label000006CE:
000006CE  4E5E                     unlink     A6
000006D0  2E9F                     move.l     [A7], [A7]+
000006D2  4E75                     rts
fn000006D4:
000006D4  4E56 0000                link       A6, 0
000006D8  302D B978                move.w     D0, [A5 - 0x4688]
000006DC  5340                     subq.w     D0, 1
000006DE  41ED B678                lea.l      A0, [A5 - 0x4988]
000006E2  720B                     moveq.l    D1, 0x0B
000006E4  B230 0000                cmp.b      D1, [A0 + D0.w]
000006E8  6608                     bne        +0xA /* 000006F2 */
000006EA  1D7C 0001 000C           move.b     [A6 + 0xC], 0x1
000006F0  6018                     bra        +0x1A /* 0000070A */
label000006F2:
000006F2  4267                     clr.w      -[A7]
000006F4  206D D450                movea.l    A0, [A5 - 0x2BB0]
000006F8  2050                     movea.l    A0, [A0]
000006FA  3F28 018C                move.w     -[A7], [A0 + 0x18C]
000006FE  2F2E 0008                move.l     -[A7], [A6 + 0x8]
00000702  4EBA FF06                jsr        [PC - 0xFA /* 0000060A */]
00000706  1D5F 000C                move.b     [A6 + 0xC], [A7]+
label0000070A:
0000070A  4E5E                     unlink     A6
0000070C  2E9F                     move.l     [A7], [A7]+
0000070E  4E75                     rts
export_545:
fn00000710:
00000710  4E56 FFF4                link       A6, -0x000C
00000714  4267                     clr.w      -[A7]
00000716  2F0E                     move.l     -[A7], A6
00000718  4EBA FF7E                jsr        [PC - 0x82 /* 00000698 */]
0000071C  101F                     move.b     D0, [A7]+
0000071E  6620                     bne        +0x22 /* 00000740 */
00000720  486D A4F8                pea.l      [A5 - 0x5B08]
00000724  4EAD 1482                jsr        [A5 + 0x1482 /* export_652, CODE:13 @ 00001714 */]
00000728  3F3C 0065                move.w     -[A7], 0x65 /* 'e' */
0000072C  486D A4F8                pea.l      [A5 - 0x5B08]
00000730  4EAD 097A                jsr        [A5 + 0x97A /* export_299, CODE:8 @ 00000AB2 */]
00000734  4EAD 1432                jsr        [A5 + 0x1432 /* export_642, CODE:13 @ 000010F2 */]
00000738  4267                     clr.w      -[A7]
0000073A  4EAD 0B02                jsr        [A5 + 0xB02 /* export_348, CODE:8 @ 00003A06 */]
0000073E  6058                     bra        +0x5A /* 00000798 */
label00000740:
00000740  486E FFF8                pea.l      [A6 - 0x8]
00000744  7008                     moveq.l    D0, 0x08
00000746  2F00                     move.l     -[A7], D0
00000748  1F3C 000C                move.b     -[A7], 0xC
0000074C  4EAD 146A                jsr        [A5 + 0x146A /* export_649, CODE:13 @ 00001620 */]
00000750  4267                     clr.w      -[A7]
00000752  2F0E                     move.l     -[A7], A6
00000754  4EBA FF7E                jsr        [PC - 0x82 /* 000006D4 */]
00000758  101F                     move.b     D0, [A7]+
0000075A  661C                     bne        +0x1E /* 00000778 */
0000075C  486D A4F8                pea.l      [A5 - 0x5B08]
00000760  4EAD 1482                jsr        [A5 + 0x1482 /* export_652, CODE:13 @ 00001714 */]
00000764  3F3C 0066                move.w     -[A7], 0x66 /* 'f' */
00000768  486D A4F8                pea.l      [A5 - 0x5B08]
0000076C  4EAD 097A                jsr        [A5 + 0x97A /* export_299, CODE:8 @ 00000AB2 */]
00000770  4267                     clr.w      -[A7]
00000772  4EAD 0B02                jsr        [A5 + 0xB02 /* export_348, CODE:8 @ 00003A06 */]
00000776  6020                     bra        +0x22 /* 00000798 */
label00000778:
00000778  486E FFF4                pea.l      [A6 - 0xC]
0000077C  7004                     moveq.l    D0, 0x04
0000077E  2F00                     move.l     -[A7], D0
00000780  1F3C 000B                move.b     -[A7], 0xB
00000784  4EAD 146A                jsr        [A5 + 0x146A /* export_649, CODE:13 @ 00001620 */]
00000788  4267                     clr.w      -[A7]
0000078A  2F2E FFF4                move.l     -[A7], [A6 - 0xC]
0000078E  486E FFF8                pea.l      [A6 - 0x8]
00000792  A8AD                     syscall    PtInRect
00000794  4EAD 0B02                jsr        [A5 + 0xB02 /* export_348, CODE:8 @ 00003A06 */]
label00000798:
00000798  4E5E                     unlink     A6
0000079A  4E75                     rts
export_546:
0000079C  4E56 FEDE                link       A6, -0x0122
000007A0  486E FFE8                pea.l      [A6 - 0x18]
000007A4  4EAD 1442                jsr        [A5 + 0x1442 /* export_644, CODE:13 @ 00001164 */]
000007A8  486E FFF4                pea.l      [A6 - 0xC]
000007AC  4EAD 1442                jsr        [A5 + 0x1442 /* export_644, CODE:13 @ 00001164 */]
000007B0  102E FFE8                move.b     D0, [A6 - 0x18]
000007B4  6742                     beq        +0x44 /* 000007F8 */
000007B6  C02E FFF4                and.b      D0, [A6 - 0xC]
000007BA  4A00                     tst.b      D0
000007BC  673A                     beq        +0x3C /* 000007F8 */
000007BE  222E FFEA                move.l     D1, [A6 - 0x16]
000007C2  6A02                     bpl        +0x4 /* 000007C6 */
000007C4  4481                     neg.l      D1
label000007C6:
000007C6  0C81 3FFF FFFF           cmpi.l     D1, 0x3FFFFFFF
000007CC  5DC1                     slt        D1
000007CE  C001                     and.b      D0, D1
000007D0  4A00                     tst.b      D0
000007D2  6724                     beq        +0x26 /* 000007F8 */
000007D4  222E FFF6                move.l     D1, [A6 - 0xA]
000007D8  6A02                     bpl        +0x4 /* 000007DC */
000007DA  4481                     neg.l      D1
label000007DC:
000007DC  0C81 3FFF FFFF           cmpi.l     D1, 0x3FFFFFFF
000007E2  5DC1                     slt        D1
000007E4  C001                     and.b      D0, D1
000007E6  6710                     beq        +0x12 /* 000007F8 */
000007E8  202E FFF6                move.l     D0, [A6 - 0xA]
000007EC  90AE FFEA                sub.l      D0, [A6 - 0x16]
000007F0  2F00                     move.l     -[A7], D0
000007F2  4EAD 0B12                jsr        [A5 + 0xB12 /* export_350, CODE:8 @ 00003A4E */]
000007F6  6068                     bra        +0x6A /* 00000860 */
label000007F8:
000007F8  102E FFE8                move.b     D0, [A6 - 0x18]
000007FC  671C                     beq        +0x1E /* 0000081A */
000007FE  486E FFEA                pea.l      [A6 - 0x16]
00000802  486E FEDE                pea.l      [A6 - 0x122]
00000806  3F3C 280E                move.w     -[A7], 0x280E
0000080A  A9EB                     syscall    Pack4/FP68K
0000080C  41EE FFEA                lea.l      A0, [A6 - 0x16]
00000810  43EE FEDE                lea.l      A1, [A6 - 0x122]
00000814  20D9                     move.l     [A0]+, [A1]+
00000816  20D9                     move.l     [A0]+, [A1]+
00000818  3091                     move.w     [A0], [A1]
label0000081A:
0000081A  102E FFF4                move.b     D0, [A6 - 0xC]
0000081E  671C                     beq        +0x1E /* 0000083C */
00000820  486E FFF6                pea.l      [A6 - 0xA]
00000824  486E FEDE                pea.l      [A6 - 0x122]
00000828  3F3C 280E                move.w     -[A7], 0x280E
0000082C  A9EB                     syscall    Pack4/FP68K
0000082E  41EE FFF6                lea.l      A0, [A6 - 0xA]
00000832  43EE FEDE                lea.l      A1, [A6 - 0x122]
00000836  20D9                     move.l     [A0]+, [A1]+
00000838  20D9                     move.l     [A0]+, [A1]+
0000083A  3091                     move.w     [A0], [A1]
label0000083C:
0000083C  486E FFEA                pea.l      [A6 - 0x16]
00000840  41EE FEDE                lea.l      A0, [A6 - 0x122]
00000844  43EE FFF6                lea.l      A1, [A6 - 0xA]
00000848  20D9                     move.l     [A0]+, [A1]+
0000084A  20D9                     move.l     [A0]+, [A1]+
0000084C  3091                     move.w     [A0], [A1]
0000084E  486E FEDE                pea.l      [A6 - 0x122]
00000852  3F3C 0002                move.w     -[A7], 0x2
00000856  A9EB                     syscall    Pack4/FP68K
00000858  486E FEDE                pea.l      [A6 - 0x122]
0000085C  4EAD 0AFA                jsr        [A5 + 0xAFA /* export_347, CODE:8 @ 000039DE */]
label00000860:
00000860  4E5E                     unlink     A6
00000862  4E75                     rts
export_547:
00000864  4E56 FED2                link       A6, -0x012E
00000868  486E FFE8                pea.l      [A6 - 0x18]
0000086C  4EAD 1442                jsr        [A5 + 0x1442 /* export_644, CODE:13 @ 00001164 */]
00000870  486E FFF4                pea.l      [A6 - 0xC]
00000874  4EAD 1442                jsr        [A5 + 0x1442 /* export_644, CODE:13 @ 00001164 */]
00000878  102E FFE8                move.b     D0, [A6 - 0x18]
0000087C  672A                     beq        +0x2C /* 000008A8 */
0000087E  C02E FFF4                and.b      D0, [A6 - 0xC]
00000882  6724                     beq        +0x26 /* 000008A8 */
00000884  4AAE FFEA                tst.l      [A6 - 0x16]
00000888  6712                     beq        +0x14 /* 0000089C */
0000088A  2F2E FFF6                move.l     -[A7], [A6 - 0xA]
0000088E  2F2E FFEA                move.l     -[A7], [A6 - 0x16]
00000892  4EAD 04FA                jsr        [A5 + 0x4FA /* export_155, CODE:1 @ 0000524A */]
00000896  4EAD 0B12                jsr        [A5 + 0xB12 /* export_350, CODE:8 @ 00003A4E */]
0000089A  6008                     bra        +0xA /* 000008A4 */
label0000089C:
0000089C  3F3C 000A                move.w     -[A7], 0xA /* '\n' */
000008A0  4EAD 098A                jsr        [A5 + 0x98A /* export_301, CODE:8 @ 00000B58 */]
label000008A4:
000008A4  6000 00AA                bra        +0xAC /* 00000950 */
label000008A8:
000008A8  102E FFE8                move.b     D0, [A6 - 0x18]
000008AC  671C                     beq        +0x1E /* 000008CA */
000008AE  486E FFEA                pea.l      [A6 - 0x16]
000008B2  486E FED2                pea.l      [A6 - 0x12E]
000008B6  3F3C 280E                move.w     -[A7], 0x280E
000008BA  A9EB                     syscall    Pack4/FP68K
000008BC  41EE FFEA                lea.l      A0, [A6 - 0x16]
000008C0  43EE FED2                lea.l      A1, [A6 - 0x12E]
000008C4  20D9                     move.l     [A0]+, [A1]+
000008C6  20D9                     move.l     [A0]+, [A1]+
000008C8  3091                     move.w     [A0], [A1]
label000008CA:
000008CA  102E FFF4                move.b     D0, [A6 - 0xC]
000008CE  671C                     beq        +0x1E /* 000008EC */
000008D0  486E FFF6                pea.l      [A6 - 0xA]
000008D4  486E FED2                pea.l      [A6 - 0x12E]
000008D8  3F3C 280E                move.w     -[A7], 0x280E
000008DC  A9EB                     syscall    Pack4/FP68K
000008DE  41EE FFF6                lea.l      A0, [A6 - 0xA]
000008E2  43EE FED2                lea.l      A1, [A6 - 0x12E]
000008E6  20D9                     move.l     [A0]+, [A1]+
000008E8  20D9                     move.l     [A0]+, [A1]+
000008EA  3091                     move.w     [A0], [A1]
label000008EC:
000008EC  486E FED2                pea.l      [A6 - 0x12E]
000008F0  486E FFF6                pea.l      [A6 - 0xA]
000008F4  486E FFEA                pea.l      [A6 - 0x16]
000008F8  486E FFE6                pea.l      [A6 - 0x1A]
000008FC  4EAD 055A                jsr        [A5 + 0x55A /* export_167, CODE:2 @ 000000CA */]
00000900  588F                     addq.l     A7, 4
00000902  41EE FFDC                lea.l      A0, [A6 - 0x24]
00000906  43EE FED2                lea.l      A1, [A6 - 0x12E]
0000090A  20D9                     move.l     [A0]+, [A1]+
0000090C  20D9                     move.l     [A0]+, [A1]+
0000090E  3091                     move.w     [A0], [A1]
00000910  487A 0042                pea.l      [PC + 0x42 /* 00000954, value 0x0, cstring "" */]
00000914  486E FFDC                pea.l      [A6 - 0x24]
00000918  3F3C 000A                move.w     -[A7], 0xA /* '\n' */
0000091C  A9EB                     syscall    Pack4/FP68K
0000091E  6428                     bcc        +0x2A /* 00000948 */
00000920  486E FFEA                pea.l      [A6 - 0x16]
00000924  41EE FED2                lea.l      A0, [A6 - 0x12E]
00000928  43EE FFDC                lea.l      A1, [A6 - 0x24]
0000092C  20D9                     move.l     [A0]+, [A1]+
0000092E  20D9                     move.l     [A0]+, [A1]+
00000930  3091                     move.w     [A0], [A1]
00000932  486E FED2                pea.l      [A6 - 0x12E]
00000936  4267                     clr.w      -[A7]
00000938  A9EB                     syscall    Pack4/FP68K
0000093A  41EE FFDC                lea.l      A0, [A6 - 0x24]
0000093E  43EE FED2                lea.l      A1, [A6 - 0x12E]
00000942  20D9                     move.l     [A0]+, [A1]+
00000944  20D9                     move.l     [A0]+, [A1]+
00000946  3091                     move.w     [A0], [A1]
label00000948:
00000948  486E FFDC                pea.l      [A6 - 0x24]
0000094C  4EAD 0AFA                jsr        [A5 + 0xAFA /* export_347, CODE:8 @ 000039DE */]
label00000950:
00000950  4E5E                     unlink     A6
00000952  4E75                     rts
00000954  0000 0000                ori.b      D0, 0x0
00000958  0000 0000                ori.b      D0, 0x0
0000095C  0000 4E56                ori.b      D0, 0x56 /* 'V' */
// begin alternate branch 0000095E-00000964
export_548:
0000095E  4E56 0000                link       A6, 0
00000962  4267                     clr.w      -[A7]
// end alternate branch 0000095E-00000964
export_548: // at 0000095E (misaligned)
00000960  0000 4267                ori.b      D0, 0x67 /* 'g' */
00000964  4EAD 1472                jsr        [A5 + 0x1472 /* export_650, CODE:13 @ 000016BC */]
00000968  4267                     clr.w      -[A7]
0000096A  4EAD 1472                jsr        [A5 + 0x1472 /* export_650, CODE:13 @ 000016BC */]
0000096E  101F                     move.b     D0, [A7]+
00000970  801F                     or.b       D0, [A7]+
00000972  1F00                     move.b     -[A7], D0
00000974  4EAD 0B02                jsr        [A5 + 0xB02 /* export_348, CODE:8 @ 00003A06 */]
00000978  4E5E                     unlink     A6
0000097A  4E75                     rts
export_549:
0000097C  4E56 FFDE                link       A6, -0x0022
00000980  486E FFE8                pea.l      [A6 - 0x18]
00000984  4EAD 1442                jsr        [A5 + 0x1442 /* export_644, CODE:13 @ 00001164 */]
00000988  486E FFF4                pea.l      [A6 - 0xC]
0000098C  4EAD 1442                jsr        [A5 + 0x1442 /* export_644, CODE:13 @ 00001164 */]
00000990  102E FFE8                move.b     D0, [A6 - 0x18]
00000994  6742                     beq        +0x44 /* 000009D8 */
00000996  C02E FFF4                and.b      D0, [A6 - 0xC]
0000099A  4A00                     tst.b      D0
0000099C  673A                     beq        +0x3C /* 000009D8 */
0000099E  222E FFEA                move.l     D1, [A6 - 0x16]
000009A2  6A02                     bpl        +0x4 /* 000009A6 */
000009A4  4481                     neg.l      D1
label000009A6:
000009A6  0C81 3FFF FFFF           cmpi.l     D1, 0x3FFFFFFF
000009AC  5DC1                     slt        D1
000009AE  C001                     and.b      D0, D1
000009B0  4A00                     tst.b      D0
000009B2  6724                     beq        +0x26 /* 000009D8 */
000009B4  222E FFF6                move.l     D1, [A6 - 0xA]
000009B8  6A02                     bpl        +0x4 /* 000009BC */
000009BA  4481                     neg.l      D1
label000009BC:
000009BC  0C81 3FFF FFFF           cmpi.l     D1, 0x3FFFFFFF
000009C2  5DC1                     slt        D1
000009C4  C001                     and.b      D0, D1
000009C6  6710                     beq        +0x12 /* 000009D8 */
000009C8  202E FFF6                move.l     D0, [A6 - 0xA]
000009CC  D0AE FFEA                add.l      D0, [A6 - 0x16]
000009D0  2F00                     move.l     -[A7], D0
000009D2  4EAD 0B12                jsr        [A5 + 0xB12 /* export_350, CODE:8 @ 00003A4E */]
000009D6  6066                     bra        +0x68 /* 00000A3E */
label000009D8:
000009D8  102E FFE8                move.b     D0, [A6 - 0x18]
000009DC  671C                     beq        +0x1E /* 000009FA */
000009DE  486E FFEA                pea.l      [A6 - 0x16]
000009E2  486E FFDE                pea.l      [A6 - 0x22]
000009E6  3F3C 280E                move.w     -[A7], 0x280E
000009EA  A9EB                     syscall    Pack4/FP68K
000009EC  41EE FFEA                lea.l      A0, [A6 - 0x16]
000009F0  43EE FFDE                lea.l      A1, [A6 - 0x22]
000009F4  20D9                     move.l     [A0]+, [A1]+
000009F6  20D9                     move.l     [A0]+, [A1]+
000009F8  3091                     move.w     [A0], [A1]
label000009FA:
000009FA  102E FFF4                move.b     D0, [A6 - 0xC]
000009FE  671C                     beq        +0x1E /* 00000A1C */
00000A00  486E FFF6                pea.l      [A6 - 0xA]
00000A04  486E FFDE                pea.l      [A6 - 0x22]
00000A08  3F3C 280E                move.w     -[A7], 0x280E
00000A0C  A9EB                     syscall    Pack4/FP68K
00000A0E  41EE FFF6                lea.l      A0, [A6 - 0xA]
00000A12  43EE FFDE                lea.l      A1, [A6 - 0x22]
00000A16  20D9                     move.l     [A0]+, [A1]+
00000A18  20D9                     move.l     [A0]+, [A1]+
00000A1A  3091                     move.w     [A0], [A1]
label00000A1C:
00000A1C  486E FFF6                pea.l      [A6 - 0xA]
00000A20  41EE FFDE                lea.l      A0, [A6 - 0x22]
00000A24  43EE FFEA                lea.l      A1, [A6 - 0x16]
00000A28  20D9                     move.l     [A0]+, [A1]+
00000A2A  20D9                     move.l     [A0]+, [A1]+
00000A2C  3091                     move.w     [A0], [A1]
00000A2E  486E FFDE                pea.l      [A6 - 0x22]
00000A32  4267                     clr.w      -[A7]
00000A34  A9EB                     syscall    Pack4/FP68K
00000A36  486E FFDE                pea.l      [A6 - 0x22]
00000A3A  4EAD 0AFA                jsr        [A5 + 0xAFA /* export_347, CODE:8 @ 000039DE */]
label00000A3E:
00000A3E  4E5E                     unlink     A6
00000A40  4E75                     rts
export_550:
00000A42  4E56 FFDE                link       A6, -0x0022
00000A46  486E FFE8                pea.l      [A6 - 0x18]
00000A4A  4EAD 1442                jsr        [A5 + 0x1442 /* export_644, CODE:13 @ 00001164 */]
00000A4E  486E FFF4                pea.l      [A6 - 0xC]
00000A52  4EAD 1442                jsr        [A5 + 0x1442 /* export_644, CODE:13 @ 00001164 */]
00000A56  102E FFE8                move.b     D0, [A6 - 0x18]
00000A5A  6744                     beq        +0x46 /* 00000AA0 */
00000A5C  C02E FFF4                and.b      D0, [A6 - 0xC]
00000A60  4A00                     tst.b      D0
00000A62  673C                     beq        +0x3E /* 00000AA0 */
00000A64  222E FFEA                move.l     D1, [A6 - 0x16]
00000A68  6A02                     bpl        +0x4 /* 00000A6C */
00000A6A  4481                     neg.l      D1
label00000A6C:
00000A6C  0C81 0000 7FFF           cmpi.l     D1, 0x7FFF
00000A72  5DC1                     slt        D1
00000A74  C001                     and.b      D0, D1
00000A76  4A00                     tst.b      D0
00000A78  6726                     beq        +0x28 /* 00000AA0 */
00000A7A  222E FFF6                move.l     D1, [A6 - 0xA]
00000A7E  6A02                     bpl        +0x4 /* 00000A82 */
00000A80  4481                     neg.l      D1
label00000A82:
00000A82  0C81 0000 7FFF           cmpi.l     D1, 0x7FFF
00000A88  5DC1                     slt        D1
00000A8A  C001                     and.b      D0, D1
00000A8C  6712                     beq        +0x14 /* 00000AA0 */
00000A8E  2F2E FFEA                move.l     -[A7], [A6 - 0x16]
00000A92  2F2E FFF6                move.l     -[A7], [A6 - 0xA]
00000A96  4EAD 04EA                jsr        [A5 + 0x4EA /* export_153, CODE:1 @ 000051F0 */]
00000A9A  4EAD 0B12                jsr        [A5 + 0xB12 /* export_350, CODE:8 @ 00003A4E */]
00000A9E  6068                     bra        +0x6A /* 00000B08 */
label00000AA0:
00000AA0  102E FFE8                move.b     D0, [A6 - 0x18]
00000AA4  671C                     beq        +0x1E /* 00000AC2 */
00000AA6  486E FFEA                pea.l      [A6 - 0x16]
00000AAA  486E FFDE                pea.l      [A6 - 0x22]
00000AAE  3F3C 280E                move.w     -[A7], 0x280E
00000AB2  A9EB                     syscall    Pack4/FP68K
00000AB4  41EE FFEA                lea.l      A0, [A6 - 0x16]
00000AB8  43EE FFDE                lea.l      A1, [A6 - 0x22]
00000ABC  20D9                     move.l     [A0]+, [A1]+
00000ABE  20D9                     move.l     [A0]+, [A1]+
00000AC0  3091                     move.w     [A0], [A1]
label00000AC2:
00000AC2  102E FFF4                move.b     D0, [A6 - 0xC]
00000AC6  671C                     beq        +0x1E /* 00000AE4 */
00000AC8  486E FFF6                pea.l      [A6 - 0xA]
00000ACC  486E FFDE                pea.l      [A6 - 0x22]
00000AD0  3F3C 280E                move.w     -[A7], 0x280E
00000AD4  A9EB                     syscall    Pack4/FP68K
00000AD6  41EE FFF6                lea.l      A0, [A6 - 0xA]
00000ADA  43EE FFDE                lea.l      A1, [A6 - 0x22]
00000ADE  20D9                     move.l     [A0]+, [A1]+
00000AE0  20D9                     move.l     [A0]+, [A1]+
00000AE2  3091                     move.w     [A0], [A1]
label00000AE4:
00000AE4  486E FFF6                pea.l      [A6 - 0xA]
00000AE8  41EE FFDE                lea.l      A0, [A6 - 0x22]
00000AEC  43EE FFEA                lea.l      A1, [A6 - 0x16]
00000AF0  20D9                     move.l     [A0]+, [A1]+
00000AF2  20D9                     move.l     [A0]+, [A1]+
00000AF4  3091                     move.w     [A0], [A1]
00000AF6  486E FFDE                pea.l      [A6 - 0x22]
00000AFA  3F3C 0004                move.w     -[A7], 0x4
00000AFE  A9EB                     syscall    Pack4/FP68K
00000B00  486E FFDE                pea.l      [A6 - 0x22]
00000B04  4EAD 0AFA                jsr        [A5 + 0xAFA /* export_347, CODE:8 @ 000039DE */]
label00000B08:
00000B08  4E5E                     unlink     A6
00000B0A  4E75                     rts
export_551:
00000B0C  4E56 0000                link       A6, 0
00000B10  4EBA 0756                jsr        [PC + 0x756 /* 00001268 */]
00000B14  1D7C 0001 0008           move.b     [A6 + 0x8], 0x1
00000B1A  4E5E                     unlink     A6
00000B1C  4E75                     rts
export_552:
fn00000B1E:
00000B1E  4E56 0000                link       A6, 0
00000B22  2F3C 005B D8E5           move.l     -[A7], 0x5BD8E5
00000B28  4EAD 185A                jsr        [A5 + 0x185A /* export_775, CODE:16 @ 0000042E */]
00000B2C  4E5E                     unlink     A6
00000B2E  4E75                     rts
fn00000B30:
00000B30  4E56 FED2                link       A6, -0x012E
00000B34  48E7 0F18                movem.l    -[A7], D4,D5,D6,D7,A3,A4
00000B38  422E 000C                clr.b      [A6 + 0xC]
00000B3C  42A7                     clr.l      -[A7]
00000B3E  4267                     clr.w      -[A7]
00000B40  4EAD 08F2                jsr        [A5 + 0x8F2 /* export_282, CODE:8 @ 0000017A */]
00000B44  2D5F FFF0                move.l     [A6 - 0x10], [A7]+
00000B48  206E FFF0                movea.l    A0, [A6 - 0x10]
00000B4C  4A10                     tst.b      [A0]
00000B4E  6620                     bne        +0x22 /* 00000B70 */
00000B50  102D 9AD5                move.b     D0, [A5 - 0x652B]
00000B54  6716                     beq        +0x18 /* 00000B6C */
00000B56  1D7C 0001 000C           move.b     [A6 + 0xC], 0x1
00000B5C  1D7C 0001 FFE2           move.b     [A6 - 0x1E], 0x1
00000B62  7000                     moveq.l    D0, 0x00
00000B64  2D40 FFE4                move.l     [A6 - 0x1C], D0
00000B68  6000 01CC                bra        +0x1CE /* 00000D36 */
label00000B6C:
00000B6C  6000 01DA                bra        +0x1DC /* 00000D48 */
label00000B70:
00000B70  486E FFF0                pea.l      [A6 - 0x10]
00000B74  4EAD 0C02                jsr        [A5 + 0xC02 /* export_380, CODE:8 @ 000045E4 */]
00000B78  206E FFF0                movea.l    A0, [A6 - 0x10]
00000B7C  4A10                     tst.b      [A0]
00000B7E  6620                     bne        +0x22 /* 00000BA0 */
00000B80  102D 9AD5                move.b     D0, [A5 - 0x652B]
00000B84  6716                     beq        +0x18 /* 00000B9C */
00000B86  1D7C 0001 000C           move.b     [A6 + 0xC], 0x1
00000B8C  1D7C 0001 FFE2           move.b     [A6 - 0x1E], 0x1
00000B92  7000                     moveq.l    D0, 0x00
00000B94  2D40 FFE4                move.l     [A6 - 0x1C], D0
00000B98  6000 019C                bra        +0x19E /* 00000D36 */
label00000B9C:
00000B9C  6000 01AA                bra        +0x1AC /* 00000D48 */
label00000BA0:
00000BA0  2D6E FFF0 FFF8           move.l     [A6 - 0x8], [A6 - 0x10]
00000BA6  4244                     clr.w      D4
00000BA8  4245                     clr.w      D5
00000BAA  206E FFF8                movea.l    A0, [A6 - 0x8]
00000BAE  1010                     move.b     D0, [A0]
00000BB0  4880                     ext.w      D0
00000BB2  722D                     moveq.l    D1, 0x2D
00000BB4  B240                     cmp.w      D1, D0
00000BB6  6604                     bne        +0x6 /* 00000BBC */
00000BB8  52AE FFF8                addq.l     [A6 - 0x8], 1
label00000BBC:
00000BBC  486E FFF8                pea.l      [A6 - 0x8]
00000BC0  4EAD 0C02                jsr        [A5 + 0xC02 /* export_380, CODE:8 @ 000045E4 */]
label00000BC4:
00000BC4  206E FFF8                movea.l    A0, [A6 - 0x8]
00000BC8  1010                     move.b     D0, [A0]
00000BCA  4880                     ext.w      D0
00000BCC  3E00                     move.w     D7, D0
00000BCE  7030                     moveq.l    D0, 0x30
00000BD0  B047                     cmp.w      D0, D7
00000BD2  5FC0                     sle        D0
00000BD4  4A00                     tst.b      D0
00000BD6  670A                     beq        +0xC /* 00000BE2 */
00000BD8  7239                     moveq.l    D1, 0x39
00000BDA  B247                     cmp.w      D1, D7
00000BDC  5CC1                     sge        D1
00000BDE  C001                     and.b      D0, D1
00000BE0  660A                     bne        +0xC /* 00000BEC */
label00000BE2:
00000BE2  722E                     moveq.l    D1, 0x2E
00000BE4  B247                     cmp.w      D1, D7
00000BE6  57C1                     seq        D1
00000BE8  8001                     or.b       D0, D1
00000BEA  6712                     beq        +0x14 /* 00000BFE */
label00000BEC:
00000BEC  702E                     moveq.l    D0, 0x2E
00000BEE  B047                     cmp.w      D0, D7
00000BF0  6604                     bne        +0x6 /* 00000BF6 */
00000BF2  5244                     addq.w     D4, 1
00000BF4  6002                     bra        +0x4 /* 00000BF8 */
label00000BF6:
00000BF6  5245                     addq.w     D5, 1
label00000BF8:
00000BF8  52AE FFF8                addq.l     [A6 - 0x8], 1
00000BFC  6020                     bra        +0x22 /* 00000C1E */
label00000BFE:
00000BFE  7020                     moveq.l    D0, 0x20
00000C00  B047                     cmp.w      D0, D7
00000C02  57C0                     seq        D0
00000C04  4A00                     tst.b      D0
00000C06  6618                     bne        +0x1A /* 00000C20 */
00000C08  720D                     moveq.l    D1, 0x0D
00000C0A  B247                     cmp.w      D1, D7
00000C0C  57C1                     seq        D1
00000C0E  8001                     or.b       D0, D1
00000C10  660E                     bne        +0x10 /* 00000C20 */
00000C12  4A47                     tst.w      D7
00000C14  57C1                     seq        D1
00000C16  8001                     or.b       D0, D1
00000C18  6606                     bne        +0x8 /* 00000C20 */
00000C1A  6000 012C                bra        +0x12E /* 00000D48 */
label00000C1E:
00000C1E  60A4                     bra        -0x5A /* 00000BC4 */
label00000C20:
00000C20  7001                     moveq.l    D0, 0x01
00000C22  B045                     cmp.w      D0, D5
00000C24  5EC0                     sgt        D0
00000C26  4A00                     tst.b      D0
00000C28  6600 011E                bne        +0x120 /* 00000D48 */
00000C2C  7201                     moveq.l    D1, 0x01
00000C2E  B244                     cmp.w      D1, D4
00000C30  5DC1                     slt        D1
00000C32  8001                     or.b       D0, D1
00000C34  6600 0112                bne        +0x114 /* 00000D48 */
00000C38  266E FFF8                movea.l    A3, [A6 - 0x8]
00000C3C  486E FFF8                pea.l      [A6 - 0x8]
00000C40  4EAD 0C02                jsr        [A5 + 0xC02 /* export_380, CODE:8 @ 000045E4 */]
00000C44  206E FFF8                movea.l    A0, [A6 - 0x8]
00000C48  4A10                     tst.b      [A0]
00000C4A  6600 00FC                bne        +0xFE /* 00000D48 */
00000C4E  4213                     clr.b      [A3]
00000C50  4206                     clr.b      D6
label00000C52:
00000C52  206E FFF0                movea.l    A0, [A6 - 0x10]
00000C56  1010                     move.b     D0, [A0]
00000C58  4880                     ext.w      D0
00000C5A  722D                     moveq.l    D1, 0x2D
00000C5C  B240                     cmp.w      D1, D0
00000C5E  6612                     bne        +0x14 /* 00000C72 */
00000C60  0A06 0001                xori.b     D6, 0x1
00000C64  52AE FFF0                addq.l     [A6 - 0x10], 1
00000C68  486E FFF0                pea.l      [A6 - 0x10]
00000C6C  4EAD 0C02                jsr        [A5 + 0xC02 /* export_380, CODE:8 @ 000045E4 */]
00000C70  60E0                     bra        -0x1E /* 00000C52 */
label00000C72:
00000C72  2F2E FFF0                move.l     -[A7], [A6 - 0x10]
00000C76  486E FEE2                pea.l      [A6 - 0x11E]
00000C7A  4EAD 1B5A                jsr        [A5 + 0x1B5A /* export_871, CODE:16 @ 00001ECC */]
00000C7E  4240                     clr.w      D0
00000C80  102E FEE2                move.b     D0, [A6 - 0x11E]
00000C84  7209                     moveq.l    D1, 0x09
00000C86  B240                     cmp.w      D1, D0
00000C88  6D3A                     blt        +0x3C /* 00000CC4 */
00000C8A  286E FFF0                movea.l    A4, [A6 - 0x10]
label00000C8E:
00000C8E  4A14                     tst.b      [A4]
00000C90  670E                     beq        +0x10 /* 00000CA0 */
00000C92  1014                     move.b     D0, [A4]
00000C94  4880                     ext.w      D0
00000C96  722E                     moveq.l    D1, 0x2E
00000C98  B240                     cmp.w      D1, D0
00000C9A  6728                     beq        +0x2A /* 00000CC4 */
00000C9C  528C                     addq.l     A4, 1
00000C9E  60EE                     bra        -0x10 /* 00000C8E */
label00000CA0:
00000CA0  1D7C 0001 FFE2           move.b     [A6 - 0x1E], 0x1
00000CA6  42A7                     clr.l      -[A7]
00000CA8  486E FEE2                pea.l      [A6 - 0x11E]
00000CAC  4EAD 194A                jsr        [A5 + 0x194A /* export_805, CODE:16 @ 00000CB2 */]
00000CB0  2D5F FFE4                move.l     [A6 - 0x1C], [A7]+
00000CB4  1006                     move.b     D0, D6
00000CB6  670A                     beq        +0xC /* 00000CC2 */
00000CB8  202E FFE4                move.l     D0, [A6 - 0x1C]
00000CBC  4480                     neg.l      D0
00000CBE  2D40 FFE4                move.l     [A6 - 0x1C], D0
label00000CC2:
00000CC2  6072                     bra        +0x74 /* 00000D36 */
label00000CC4:
00000CC4  422E FFE2                clr.b      [A6 - 0x1E]
00000CC8  486E FED2                pea.l      [A6 - 0x12E]
00000CCC  486E FEE2                pea.l      [A6 - 0x11E]
00000CD0  4EAD 05AA                jsr        [A5 + 0x5AA /* export_177, CODE:2 @ 0000029E */]
00000CD4  588F                     addq.l     A7, 4
00000CD6  41EE FFE4                lea.l      A0, [A6 - 0x1C]
00000CDA  43EE FED2                lea.l      A1, [A6 - 0x12E]
00000CDE  20D9                     move.l     [A0]+, [A1]+
00000CE0  20D9                     move.l     [A0]+, [A1]+
00000CE2  3091                     move.w     [A0], [A1]
00000CE4  4267                     clr.w      -[A7]
00000CE6  486E FFE4                pea.l      [A6 - 0x1C]
00000CEA  4EAD 057A                jsr        [A5 + 0x57A /* export_171, CODE:2 @ 0000026A */]
00000CEE  4A1F                     tst.b      [A7]+
00000CF0  57C0                     seq        D0
00000CF2  4A00                     tst.b      D0
00000CF4  6652                     bne        +0x54 /* 00000D48 */
00000CF6  2F00                     move.l     -[A7], D0
00000CF8  4267                     clr.w      -[A7]
00000CFA  486E FFE4                pea.l      [A6 - 0x1C]
00000CFE  4EAD 057A                jsr        [A5 + 0x57A /* export_171, CODE:2 @ 0000026A */]
00000D02  121F                     move.b     D1, [A7]+
00000D04  201F                     move.l     D0, [A7]+
00000D06  7401                     moveq.l    D2, 0x01
00000D08  B401                     cmp.b      D2, D1
00000D0A  57C1                     seq        D1
00000D0C  8001                     or.b       D0, D1
00000D0E  6638                     bne        +0x3A /* 00000D48 */
00000D10  1006                     move.b     D0, D6
00000D12  6722                     beq        +0x24 /* 00000D36 */
00000D14  41EE FED2                lea.l      A0, [A6 - 0x12E]
00000D18  43EE FFE4                lea.l      A1, [A6 - 0x1C]
00000D1C  20D9                     move.l     [A0]+, [A1]+
00000D1E  20D9                     move.l     [A0]+, [A1]+
00000D20  3091                     move.w     [A0], [A1]
00000D22  0A2E 0080 FED2           xori.b     [A6 - 0x12E], 0x80
00000D28  41EE FFE4                lea.l      A0, [A6 - 0x1C]
00000D2C  43EE FED2                lea.l      A1, [A6 - 0x12E]
00000D30  20D9                     move.l     [A0]+, [A1]+
00000D32  20D9                     move.l     [A0]+, [A1]+
00000D34  3091                     move.w     [A0], [A1]
label00000D36:
00000D36  1D7C 0001 000C           move.b     [A6 + 0xC], 0x1
00000D3C  4EAD 1432                jsr        [A5 + 0x1432 /* export_642, CODE:13 @ 000010F2 */]
00000D40  486E FFE2                pea.l      [A6 - 0x1E]
00000D44  4EAD 0ACA                jsr        [A5 + 0xACA /* export_341, CODE:8 @ 000037A8 */]
label00000D48:
00000D48  4CDF 18F0                movem.l    D4,D5,D6,D7,A3,A4, [A7]+
00000D4C  4E5E                     unlink     A6
00000D4E  2E9F                     move.l     [A7], [A7]+
00000D50  4E75                     rts
fn00000D52:
00000D52  4E56 0000                link       A6, 0
00000D56  1D7C 0001 000C           move.b     [A6 + 0xC], 0x1
00000D5C  4267                     clr.w      -[A7]
00000D5E  4EBA 024E                jsr        [PC + 0x24E /* 00000FAE */]
00000D62  101F                     move.b     D0, [A7]+
00000D64  6702                     beq        +0x4 /* 00000D68 */
00000D66  6012                     bra        +0x14 /* 00000D7A */
label00000D68:
00000D68  4EBA 04FE                jsr        [PC + 0x4FE /* 00001268 */]
00000D6C  4267                     clr.w      -[A7]
00000D6E  2F2E 0008                move.l     -[A7], [A6 + 0x8]
00000D72  4EBA FDBC                jsr        [PC - 0x244 /* 00000B30 */]
00000D76  1D5F 000C                move.b     [A6 + 0xC], [A7]+
label00000D7A:
00000D7A  4E5E                     unlink     A6
00000D7C  2E9F                     move.l     [A7], [A7]+
00000D7E  4E75                     rts
export_553:
fn00000D80:
00000D80  4E56 0000                link       A6, 0
00000D84  7001                     moveq.l    D0, 0x01
00000D86  B06D B978                cmp.w      D0, [A5 - 0x4688]
00000D8A  6F04                     ble        +0x6 /* 00000D90 */
00000D8C  4EBA FD90                jsr        [PC - 0x270 /* 00000B1E */]
label00000D90:
00000D90  302D B978                move.w     D0, [A5 - 0x4688]
00000D94  5340                     subq.w     D0, 1
00000D96  41ED B678                lea.l      A0, [A5 - 0x4988]
00000D9A  1230 0000                move.b     D1, [A0 + D0.w]
00000D9E  4881                     ext.w      D1
00000DA0  6726                     beq        +0x28 /* 00000DC8 */
00000DA2  0441 0011                subi.w     D1, 0x11
00000DA6  670A                     beq        +0xC /* 00000DB2 */
00000DA8  5341                     subq.w     D1, 1
00000DAA  670E                     beq        +0x10 /* 00000DBA */
00000DAC  5341                     subq.w     D1, 1
00000DAE  6702                     beq        +0x4 /* 00000DB2 */
00000DB0  6024                     bra        +0x26 /* 00000DD6 */
label00000DB2:
00000DB2  1D7C 0001 0008           move.b     [A6 + 0x8], 0x1
00000DB8  6020                     bra        +0x22 /* 00000DDA */
label00000DBA:
00000DBA  4267                     clr.w      -[A7]
00000DBC  2F0E                     move.l     -[A7], A6
00000DBE  4EBA FF92                jsr        [PC - 0x6E /* 00000D52 */]
00000DC2  1D5F 0008                move.b     [A6 + 0x8], [A7]+
00000DC6  6012                     bra        +0x14 /* 00000DDA */
label00000DC8:
00000DC8  4267                     clr.w      -[A7]
00000DCA  2F0E                     move.l     -[A7], A6
00000DCC  4EBA FD62                jsr        [PC - 0x29E /* 00000B30 */]
00000DD0  1D5F 0008                move.b     [A6 + 0x8], [A7]+
00000DD4  6004                     bra        +0x6 /* 00000DDA */
label00000DD6:
00000DD6  422E 0008                clr.b      [A6 + 0x8]
label00000DDA:
00000DDA  4E5E                     unlink     A6
00000DDC  4E75                     rts
export_554:
00000DDE  4E56 FFEA                link       A6, -0x0016
00000DE2  7001                     moveq.l    D0, 0x01
00000DE4  B06D B978                cmp.w      D0, [A5 - 0x4688]
00000DE8  6F04                     ble        +0x6 /* 00000DEE */
00000DEA  4EBA FD32                jsr        [PC - 0x2CE /* 00000B1E */]
label00000DEE:
00000DEE  422E 0008                clr.b      [A6 + 0x8]
00000DF2  4267                     clr.w      -[A7]
00000DF4  4EBA FF8A                jsr        [PC - 0x76 /* 00000D80 */]
00000DF8  101F                     move.b     D0, [A7]+
00000DFA  6756                     beq        +0x58 /* 00000E52 */
00000DFC  1D7C 0001 0008           move.b     [A6 + 0x8], 0x1
00000E02  302D B978                move.w     D0, [A5 - 0x4688]
00000E06  5340                     subq.w     D0, 1
00000E08  41ED B678                lea.l      A0, [A5 - 0x4988]
00000E0C  7211                     moveq.l    D1, 0x11
00000E0E  B230 0000                cmp.b      D1, [A0 + D0.w]
00000E12  673E                     beq        +0x40 /* 00000E52 */
00000E14  486E FFF4                pea.l      [A6 - 0xC]
00000E18  4EAD 1442                jsr        [A5 + 0x1442 /* export_644, CODE:13 @ 00001164 */]
00000E1C  102E FFF4                move.b     D0, [A6 - 0xC]
00000E20  671E                     beq        +0x20 /* 00000E40 */
00000E22  486E FFF6                pea.l      [A6 - 0xA]
00000E26  486E FFEA                pea.l      [A6 - 0x16]
00000E2A  3F3C 280E                move.w     -[A7], 0x280E
00000E2E  A9EB                     syscall    Pack4/FP68K
00000E30  41EE FFF6                lea.l      A0, [A6 - 0xA]
00000E34  43EE FFEA                lea.l      A1, [A6 - 0x16]
00000E38  20D9                     move.l     [A0]+, [A1]+
00000E3A  20D9                     move.l     [A0]+, [A1]+
00000E3C  3091                     move.w     [A0], [A1]
00000E3E  600A                     bra        +0xC /* 00000E4A */
label00000E40:
00000E40  2F3C 0001 0B12           move.l     -[A7], 0x10B12
00000E46  4EAD 185A                jsr        [A5 + 0x185A /* export_775, CODE:16 @ 0000042E */]
label00000E4A:
00000E4A  486E FFF6                pea.l      [A6 - 0xA]
00000E4E  4EAD 0AFA                jsr        [A5 + 0xAFA /* export_347, CODE:8 @ 000039DE */]
label00000E52:
00000E52  4E5E                     unlink     A6
00000E54  4E75                     rts
fn00000E56:
00000E56  4E56 FEF4                link       A6, -0x010C
00000E5A  48E7 0308                movem.l    -[A7], D6,D7,A4
00000E5E  422E 000C                clr.b      [A6 + 0xC]
00000E62  42A7                     clr.l      -[A7]
00000E64  4267                     clr.w      -[A7]
00000E66  4EAD 08F2                jsr        [A5 + 0x8F2 /* export_282, CODE:8 @ 0000017A */]
00000E6A  2D5F FEF4                move.l     [A6 - 0x10C], [A7]+
00000E6E  486E FEF4                pea.l      [A6 - 0x10C]
00000E72  4EAD 0C02                jsr        [A5 + 0xC02 /* export_380, CODE:8 @ 000045E4 */]
00000E76  41EE FF00                lea.l      A0, [A6 - 0x100]
00000E7A  2848                     movea.l    A4, A0
00000E7C  528C                     addq.l     A4, 1
00000E7E  4246                     clr.w      D6
label00000E80:
00000E80  206E FEF4                movea.l    A0, [A6 - 0x10C]
00000E84  1010                     move.b     D0, [A0]
00000E86  4880                     ext.w      D0
00000E88  3E00                     move.w     D7, D0
00000E8A  702D                     moveq.l    D0, 0x2D
00000E8C  B047                     cmp.w      D0, D7
00000E8E  57C0                     seq        D0
00000E90  4A00                     tst.b      D0
00000E92  6616                     bne        +0x18 /* 00000EAA */
00000E94  7230                     moveq.l    D1, 0x30
00000E96  B247                     cmp.w      D1, D7
00000E98  5FC1                     sle        D1
00000E9A  4A01                     tst.b      D1
00000E9C  6724                     beq        +0x26 /* 00000EC2 */
00000E9E  7439                     moveq.l    D2, 0x39
00000EA0  B447                     cmp.w      D2, D7
00000EA2  5CC2                     sge        D2
00000EA4  C202                     and.b      D1, D2
00000EA6  8001                     or.b       D0, D1
00000EA8  6718                     beq        +0x1A /* 00000EC2 */
label00000EAA:
00000EAA  5246                     addq.w     D6, 1
00000EAC  7009                     moveq.l    D0, 0x09
00000EAE  B046                     cmp.w      D0, D6
00000EB0  6C02                     bge        +0x4 /* 00000EB4 */
00000EB2  6062                     bra        +0x64 /* 00000F16 */
label00000EB4:
00000EB4  206E FEF4                movea.l    A0, [A6 - 0x10C]
00000EB8  1890                     move.b     [A4], [A0]
00000EBA  528C                     addq.l     A4, 1
00000EBC  52AE FEF4                addq.l     [A6 - 0x10C], 1
00000EC0  601E                     bra        +0x20 /* 00000EE0 */
label00000EC2:
00000EC2  7020                     moveq.l    D0, 0x20
00000EC4  B047                     cmp.w      D0, D7
00000EC6  57C0                     seq        D0
00000EC8  4A00                     tst.b      D0
00000ECA  6616                     bne        +0x18 /* 00000EE2 */
00000ECC  720D                     moveq.l    D1, 0x0D
00000ECE  B247                     cmp.w      D1, D7
00000ED0  57C1                     seq        D1
00000ED2  8001                     or.b       D0, D1
00000ED4  660C                     bne        +0xE /* 00000EE2 */
00000ED6  4A47                     tst.w      D7
00000ED8  57C1                     seq        D1
00000EDA  8001                     or.b       D0, D1
00000EDC  6604                     bne        +0x6 /* 00000EE2 */
00000EDE  6036                     bra        +0x38 /* 00000F16 */
label00000EE0:
00000EE0  609E                     bra        -0x60 /* 00000E80 */
label00000EE2:
00000EE2  4A46                     tst.w      D6
00000EE4  6602                     bne        +0x4 /* 00000EE8 */
00000EE6  602E                     bra        +0x30 /* 00000F16 */
label00000EE8:
00000EE8  1D46 FF00                move.b     [A6 - 0x100], D6
00000EEC  486E FEF4                pea.l      [A6 - 0x10C]
00000EF0  4EAD 0C02                jsr        [A5 + 0xC02 /* export_380, CODE:8 @ 000045E4 */]
00000EF4  206E FEF4                movea.l    A0, [A6 - 0x10C]
00000EF8  4A10                     tst.b      [A0]
00000EFA  6702                     beq        +0x4 /* 00000EFE */
00000EFC  6018                     bra        +0x1A /* 00000F16 */
label00000EFE:
00000EFE  1D7C 0001 000C           move.b     [A6 + 0xC], 0x1
00000F04  4EAD 1432                jsr        [A5 + 0x1432 /* export_642, CODE:13 @ 000010F2 */]
00000F08  42A7                     clr.l      -[A7]
00000F0A  486E FF00                pea.l      [A6 - 0x100]
00000F0E  4EAD 194A                jsr        [A5 + 0x194A /* export_805, CODE:16 @ 00000CB2 */]
00000F12  4EAD 0B12                jsr        [A5 + 0xB12 /* export_350, CODE:8 @ 00003A4E */]
label00000F16:
00000F16  4CDF 10C0                movem.l    D6,D7,A4, [A7]+
00000F1A  4E5E                     unlink     A6
00000F1C  2E9F                     move.l     [A7], [A7]+
00000F1E  4E75                     rts
fn00000F20:
00000F20  4E56 FFEC                link       A6, -0x0014
00000F24  486E FFF6                pea.l      [A6 - 0xA]
00000F28  4EAD 1452                jsr        [A5 + 0x1452 /* export_646, CODE:13 @ 00001556 */]
00000F2C  486E FFEC                pea.l      [A6 - 0x14]
00000F30  486E FFF6                pea.l      [A6 - 0xA]
00000F34  4EAD 0562                jsr        [A5 + 0x562 /* export_168, CODE:2 @ 00000136 */]
00000F38  588F                     addq.l     A7, 4
00000F3A  486E FFF6                pea.l      [A6 - 0xA]
00000F3E  486E FFEC                pea.l      [A6 - 0x14]
00000F42  3F3C 0008                move.w     -[A7], 0x8
00000F46  A9EB                     syscall    Pack4/FP68K
00000F48  670E                     beq        +0x10 /* 00000F58 */
00000F4A  422E 000C                clr.b      [A6 + 0xC]
00000F4E  486E FFF6                pea.l      [A6 - 0xA]
00000F52  4EAD 0AFA                jsr        [A5 + 0xAFA /* export_347, CODE:8 @ 000039DE */]
00000F56  6014                     bra        +0x16 /* 00000F6C */
label00000F58:
00000F58  1D7C 0001 000C           move.b     [A6 + 0xC], 0x1
00000F5E  42A7                     clr.l      -[A7]
00000F60  486E FFF6                pea.l      [A6 - 0xA]
00000F64  4EAD 056A                jsr        [A5 + 0x56A /* export_169, CODE:2 @ 0000019E */]
00000F68  4EAD 0B12                jsr        [A5 + 0xB12 /* export_350, CODE:8 @ 00003A4E */]
label00000F6C:
00000F6C  4E5E                     unlink     A6
00000F6E  2E9F                     move.l     [A7], [A7]+
00000F70  4E75                     rts
fn00000F72:
00000F72  4E56 FFFC                link       A6, -0x0004
00000F76  42A7                     clr.l      -[A7]
00000F78  1F3C 0012                move.b     -[A7], 0x12
00000F7C  4EAD 08F2                jsr        [A5 + 0x8F2 /* export_282, CODE:8 @ 0000017A */]
00000F80  2D5F FFFC                move.l     [A6 - 0x4], [A7]+
00000F84  206E FFFC                movea.l    A0, [A6 - 0x4]
00000F88  4A90                     tst.l      [A0]
00000F8A  6C06                     bge        +0x8 /* 00000F92 */
00000F8C  422E 000C                clr.b      [A6 + 0xC]
00000F90  6016                     bra        +0x18 /* 00000FA8 */
label00000F92:
00000F92  1D7C 0001 000C           move.b     [A6 + 0xC], 0x1
00000F98  302D B978                move.w     D0, [A5 - 0x4688]
00000F9C  5340                     subq.w     D0, 1
00000F9E  41ED B678                lea.l      A0, [A5 - 0x4988]
00000FA2  11BC 0013 0000           move.b     [A0 + D0.w], 0x13
label00000FA8:
00000FA8  4E5E                     unlink     A6
00000FAA  2E9F                     move.l     [A7], [A7]+
00000FAC  4E75                     rts
export_555:
fn00000FAE:
00000FAE  4E56 0000                link       A6, 0
00000FB2  7001                     moveq.l    D0, 0x01
00000FB4  B06D B978                cmp.w      D0, [A5 - 0x4688]
00000FB8  6F04                     ble        +0x6 /* 00000FBE */
00000FBA  4EBA FB62                jsr        [PC - 0x49E /* 00000B1E */]
label00000FBE:
00000FBE  302D B978                move.w     D0, [A5 - 0x4688]
00000FC2  5340                     subq.w     D0, 1
00000FC4  41ED B678                lea.l      A0, [A5 - 0x4988]
00000FC8  1230 0000                move.b     D1, [A0 + D0.w]
00000FCC  4881                     ext.w      D1
00000FCE  6734                     beq        +0x36 /* 00001004 */
00000FD0  0441 0011                subi.w     D1, 0x11
00000FD4  6712                     beq        +0x14 /* 00000FE8 */
00000FD6  5341                     subq.w     D1, 1
00000FD8  671C                     beq        +0x1E /* 00000FF6 */
00000FDA  5341                     subq.w     D1, 1
00000FDC  6702                     beq        +0x4 /* 00000FE0 */
00000FDE  6032                     bra        +0x34 /* 00001012 */
label00000FE0:
00000FE0  1D7C 0001 0008           move.b     [A6 + 0x8], 0x1
00000FE6  602E                     bra        +0x30 /* 00001016 */
label00000FE8:
00000FE8  4267                     clr.w      -[A7]
00000FEA  2F0E                     move.l     -[A7], A6
00000FEC  4EBA FF32                jsr        [PC - 0xCE /* 00000F20 */]
00000FF0  1D5F 0008                move.b     [A6 + 0x8], [A7]+
00000FF4  6020                     bra        +0x22 /* 00001016 */
label00000FF6:
00000FF6  4267                     clr.w      -[A7]
00000FF8  2F0E                     move.l     -[A7], A6
00000FFA  4EBA FF76                jsr        [PC - 0x8A /* 00000F72 */]
00000FFE  1D5F 0008                move.b     [A6 + 0x8], [A7]+
00001002  6012                     bra        +0x14 /* 00001016 */
label00001004:
00001004  4267                     clr.w      -[A7]
00001006  2F0E                     move.l     -[A7], A6
00001008  4EBA FE4C                jsr        [PC - 0x1B4 /* 00000E56 */]
0000100C  1D5F 0008                move.b     [A6 + 0x8], [A7]+
00001010  6004                     bra        +0x6 /* 00001016 */
label00001012:
00001012  422E 0008                clr.b      [A6 + 0x8]
label00001016:
00001016  4E5E                     unlink     A6
00001018  4E75                     rts
export_556:
fn0000101A:
0000101A  4E56 FEFA                link       A6, -0x0106
0000101E  7001                     moveq.l    D0, 0x01
00001020  B06D B978                cmp.w      D0, [A5 - 0x4688]
00001024  6F04                     ble        +0x6 /* 0000102A */
00001026  4EBA FAF6                jsr        [PC - 0x50A /* 00000B1E */]
label0000102A:
0000102A  1D7C 0001 0008           move.b     [A6 + 0x8], 0x1
00001030  302D B978                move.w     D0, [A5 - 0x4688]
00001034  5340                     subq.w     D0, 1
00001036  41ED B678                lea.l      A0, [A5 - 0x4988]
0000103A  720E                     moveq.l    D1, 0x0E
0000103C  B230 0000                cmp.b      D1, [A0 + D0.w]
00001040  6602                     bne        +0x4 /* 00001044 */
00001042  605C                     bra        +0x5E /* 000010A0 */
label00001044:
00001044  422E 0008                clr.b      [A6 + 0x8]
00001048  302D B978                move.w     D0, [A5 - 0x4688]
0000104C  5340                     subq.w     D0, 1
0000104E  41ED B678                lea.l      A0, [A5 - 0x4988]
00001052  4A30 0000                tst.b      [A0 + D0.w]
00001056  6702                     beq        +0x4 /* 0000105A */
00001058  6046                     bra        +0x48 /* 000010A0 */
label0000105A:
0000105A  42A7                     clr.l      -[A7]
0000105C  4267                     clr.w      -[A7]
0000105E  4EAD 08F2                jsr        [A5 + 0x8F2 /* export_282, CODE:8 @ 0000017A */]
00001062  2D5F FFFC                move.l     [A6 - 0x4], [A7]+
00001066  486E FFFC                pea.l      [A6 - 0x4]
0000106A  4EAD 0C02                jsr        [A5 + 0xC02 /* export_380, CODE:8 @ 000045E4 */]
0000106E  2F2E FFFC                move.l     -[A7], [A6 - 0x4]
00001072  486E FEFC                pea.l      [A6 - 0x104]
00001076  4EAD 1B5A                jsr        [A5 + 0x1B5A /* export_871, CODE:16 @ 00001ECC */]
0000107A  4267                     clr.w      -[A7]
0000107C  486E FEFC                pea.l      [A6 - 0x104]
00001080  486E FEFB                pea.l      [A6 - 0x105]
00001084  4EAD 0C7A                jsr        [A5 + 0xC7A /* export_395, CODE:8 @ 00004C4E */]
00001088  101F                     move.b     D0, [A7]+
0000108A  6602                     bne        +0x4 /* 0000108E */
0000108C  6012                     bra        +0x14 /* 000010A0 */
label0000108E:
0000108E  1D7C 0001 0008           move.b     [A6 + 0x8], 0x1
00001094  4EAD 1432                jsr        [A5 + 0x1432 /* export_642, CODE:13 @ 000010F2 */]
00001098  1F2E FEFB                move.b     -[A7], [A6 - 0x105]
0000109C  4EAD 0B02                jsr        [A5 + 0xB02 /* export_348, CODE:8 @ 00003A06 */]
label000010A0:
000010A0  4E5E                     unlink     A6
000010A2  4E75                     rts
fn000010A4:
000010A4  4E56 FEF4                link       A6, -0x010C
000010A8  48E7 0308                movem.l    -[A7], D6,D7,A4
000010AC  422E 000C                clr.b      [A6 + 0xC]
000010B0  42A7                     clr.l      -[A7]
000010B2  4267                     clr.w      -[A7]
000010B4  4EAD 08F2                jsr        [A5 + 0x8F2 /* export_282, CODE:8 @ 0000017A */]
000010B8  2D5F FEF4                move.l     [A6 - 0x10C], [A7]+
000010BC  486E FEF4                pea.l      [A6 - 0x10C]
000010C0  4EAD 0C02                jsr        [A5 + 0xC02 /* export_380, CODE:8 @ 000045E4 */]
000010C4  41EE FF00                lea.l      A0, [A6 - 0x100]
000010C8  2848                     movea.l    A4, A0
000010CA  528C                     addq.l     A4, 1
000010CC  4246                     clr.w      D6
label000010CE:
000010CE  206E FEF4                movea.l    A0, [A6 - 0x10C]
000010D2  1010                     move.b     D0, [A0]
000010D4  4880                     ext.w      D0
000010D6  3E00                     move.w     D7, D0
000010D8  7030                     moveq.l    D0, 0x30
000010DA  B047                     cmp.w      D0, D7
000010DC  5FC0                     sle        D0
000010DE  4A00                     tst.b      D0
000010E0  6722                     beq        +0x24 /* 00001104 */
000010E2  7239                     moveq.l    D1, 0x39
000010E4  B247                     cmp.w      D1, D7
000010E6  5CC1                     sge        D1
000010E8  C001                     and.b      D0, D1
000010EA  6718                     beq        +0x1A /* 00001104 */
000010EC  5246                     addq.w     D6, 1
000010EE  700A                     moveq.l    D0, 0x0A
000010F0  B046                     cmp.w      D0, D6
000010F2  6C02                     bge        +0x4 /* 000010F6 */
000010F4  6062                     bra        +0x64 /* 00001158 */
label000010F6:
000010F6  206E FEF4                movea.l    A0, [A6 - 0x10C]
000010FA  1890                     move.b     [A4], [A0]
000010FC  528C                     addq.l     A4, 1
000010FE  52AE FEF4                addq.l     [A6 - 0x10C], 1
00001102  601E                     bra        +0x20 /* 00001122 */
label00001104:
00001104  7020                     moveq.l    D0, 0x20
00001106  B047                     cmp.w      D0, D7
00001108  57C0                     seq        D0
0000110A  4A00                     tst.b      D0
0000110C  6616                     bne        +0x18 /* 00001124 */
0000110E  720D                     moveq.l    D1, 0x0D
00001110  B247                     cmp.w      D1, D7
00001112  57C1                     seq        D1
00001114  8001                     or.b       D0, D1
00001116  660C                     bne        +0xE /* 00001124 */
00001118  4A47                     tst.w      D7
0000111A  57C1                     seq        D1
0000111C  8001                     or.b       D0, D1
0000111E  6604                     bne        +0x6 /* 00001124 */
00001120  6036                     bra        +0x38 /* 00001158 */
label00001122:
00001122  60AA                     bra        -0x54 /* 000010CE */
label00001124:
00001124  4A46                     tst.w      D6
00001126  6602                     bne        +0x4 /* 0000112A */
00001128  602E                     bra        +0x30 /* 00001158 */
label0000112A:
0000112A  486E FEF4                pea.l      [A6 - 0x10C]
0000112E  4EAD 0C02                jsr        [A5 + 0xC02 /* export_380, CODE:8 @ 000045E4 */]
00001132  206E FEF4                movea.l    A0, [A6 - 0x10C]
00001136  4A10                     tst.b      [A0]
00001138  6702                     beq        +0x4 /* 0000113C */
0000113A  601C                     bra        +0x1E /* 00001158 */
label0000113C:
0000113C  1D7C 0001 000C           move.b     [A6 + 0xC], 0x1
00001142  1D46 FF00                move.b     [A6 - 0x100], D6
00001146  4EAD 1432                jsr        [A5 + 0x1432 /* export_642, CODE:13 @ 000010F2 */]
0000114A  42A7                     clr.l      -[A7]
0000114C  486E FF00                pea.l      [A6 - 0x100]
00001150  4EAD 1AF2                jsr        [A5 + 0x1AF2 /* export_858, CODE:16 @ 00001CF0 */]
00001154  4EAD 0B1A                jsr        [A5 + 0xB1A /* export_351, CODE:8 @ 00003A68 */]
label00001158:
00001158  4CDF 10C0                movem.l    D6,D7,A4, [A7]+
0000115C  4E5E                     unlink     A6
0000115E  2E9F                     move.l     [A7], [A7]+
00001160  4E75                     rts
fn00001162:
00001162  4E56 FFEC                link       A6, -0x0014
00001166  486E FFF6                pea.l      [A6 - 0xA]
0000116A  4EAD 1452                jsr        [A5 + 0x1452 /* export_646, CODE:13 @ 00001556 */]
0000116E  487A 005C                pea.l      [PC + 0x5C /* 000011CC, value 0x0, cstring "" */]
00001172  486E FFF6                pea.l      [A6 - 0xA]
00001176  3F3C 000A                move.w     -[A7], 0xA /* '\n' */
0000117A  A9EB                     syscall    Pack4/FP68K
0000117C  55C0                     scs        D0
0000117E  2F00                     move.l     -[A7], D0
00001180  486E FFEC                pea.l      [A6 - 0x14]
00001184  486E FFF6                pea.l      [A6 - 0xA]
00001188  4EAD 0562                jsr        [A5 + 0x562 /* export_168, CODE:2 @ 00000136 */]
0000118C  588F                     addq.l     A7, 4
0000118E  201F                     move.l     D0, [A7]+
00001190  486E FFF6                pea.l      [A6 - 0xA]
00001194  486E FFEC                pea.l      [A6 - 0x14]
00001198  3F3C 0008                move.w     -[A7], 0x8
0000119C  A9EB                     syscall    Pack4/FP68K
0000119E  56C1                     sne        D1
000011A0  8001                     or.b       D0, D1
000011A2  670E                     beq        +0x10 /* 000011B2 */
000011A4  422E 000C                clr.b      [A6 + 0xC]
000011A8  486E FFF6                pea.l      [A6 - 0xA]
000011AC  4EAD 0AFA                jsr        [A5 + 0xAFA /* export_347, CODE:8 @ 000039DE */]
000011B0  6014                     bra        +0x16 /* 000011C6 */
label000011B2:
000011B2  1D7C 0001 000C           move.b     [A6 + 0xC], 0x1
000011B8  42A7                     clr.l      -[A7]
000011BA  486E FFF6                pea.l      [A6 - 0xA]
000011BE  4EAD 056A                jsr        [A5 + 0x56A /* export_169, CODE:2 @ 0000019E */]
000011C2  4EAD 0B1A                jsr        [A5 + 0xB1A /* export_351, CODE:8 @ 00003A68 */]
label000011C6:
000011C6  4E5E                     unlink     A6
000011C8  2E9F                     move.l     [A7], [A7]+
000011CA  4E75                     rts
000011CC  0000 0000                ori.b      D0, 0x0
000011D0  0000 0000                ori.b      D0, 0x0
000011D4  0000 4E56                ori.b      D0, 0x56 /* 'V' */
// begin alternate branch 000011D6-000011DA
export_557:
000011D6  4E56 FFFC                link       A6, -0x0004
// end alternate branch 000011D6-000011DA
export_557: // at 000011D6 (misaligned)
000011D8  FFFC                     .invalid   <<F/7/7>>
000011DA  7001                     moveq.l    D0, 0x01
000011DC  B06D B978                cmp.w      D0, [A5 - 0x4688]
000011E0  6F04                     ble        +0x6 /* 000011E6 */
000011E2  4EBA F93A                jsr        [PC - 0x6C6 /* 00000B1E */]
label000011E6:
000011E6  302D B978                move.w     D0, [A5 - 0x4688]
000011EA  5340                     subq.w     D0, 1
000011EC  41ED B678                lea.l      A0, [A5 - 0x4988]
000011F0  1230 0000                move.b     D1, [A0 + D0.w]
000011F4  4881                     ext.w      D1
000011F6  674C                     beq        +0x4E /* 00001244 */
000011F8  0441 0011                subi.w     D1, 0x11
000011FC  6754                     beq        +0x56 /* 00001252 */
000011FE  5341                     subq.w     D1, 1
00001200  6706                     beq        +0x8 /* 00001208 */
00001202  5341                     subq.w     D1, 1
00001204  670A                     beq        +0xC /* 00001210 */
00001206  6058                     bra        +0x5A /* 00001260 */
label00001208:
00001208  1D7C 0001 0008           move.b     [A6 + 0x8], 0x1
0000120E  6054                     bra        +0x56 /* 00001264 */
label00001210:
00001210  42A7                     clr.l      -[A7]
00001212  1F3C 0013                move.b     -[A7], 0x13
00001216  4EAD 08F2                jsr        [A5 + 0x8F2 /* export_282, CODE:8 @ 0000017A */]
0000121A  2D5F FFFC                move.l     [A6 - 0x4], [A7]+
0000121E  206E FFFC                movea.l    A0, [A6 - 0x4]
00001222  4A90                     tst.l      [A0]
00001224  6D18                     blt        +0x1A /* 0000123E */
00001226  1D7C 0001 0008           move.b     [A6 + 0x8], 0x1
0000122C  302D B978                move.w     D0, [A5 - 0x4688]
00001230  5340                     subq.w     D0, 1
00001232  41ED B678                lea.l      A0, [A5 - 0x4988]
00001236  11BC 0012 0000           move.b     [A0 + D0.w], 0x12
0000123C  6026                     bra        +0x28 /* 00001264 */
label0000123E:
0000123E  422E 0008                clr.b      [A6 + 0x8]
00001242  6020                     bra        +0x22 /* 00001264 */
label00001244:
00001244  4267                     clr.w      -[A7]
00001246  2F0E                     move.l     -[A7], A6
00001248  4EBA FE5A                jsr        [PC - 0x1A6 /* 000010A4 */]
0000124C  1D5F 0008                move.b     [A6 + 0x8], [A7]+
00001250  6012                     bra        +0x14 /* 00001264 */
label00001252:
00001252  4267                     clr.w      -[A7]
00001254  2F0E                     move.l     -[A7], A6
00001256  4EBA FF0A                jsr        [PC - 0xF6 /* 00001162 */]
0000125A  1D5F 0008                move.b     [A6 + 0x8], [A7]+
0000125E  6004                     bra        +0x6 /* 00001264 */
label00001260:
00001260  422E 0008                clr.b      [A6 + 0x8]
label00001264:
00001264  4E5E                     unlink     A6
00001266  4E75                     rts
export_558:
fn00001268:
00001268  4E56 FC32                link       A6, -0x03CE
0000126C  48E7 0F08                movem.l    -[A7], D4,D5,D6,D7,A4
00001270  7001                     moveq.l    D0, 0x01
00001272  B06D B978                cmp.w      D0, [A5 - 0x4688]
00001276  6F04                     ble        +0x6 /* 0000127C */
00001278  4EBA F8A4                jsr        [PC - 0x75C /* 00000B1E */]
label0000127C:
0000127C  302D B978                move.w     D0, [A5 - 0x4688]
00001280  5340                     subq.w     D0, 1
00001282  41ED B678                lea.l      A0, [A5 - 0x4988]
00001286  1230 0000                move.b     D1, [A0 + D0.w]
0000128A  4881                     ext.w      D1
0000128C  6B00 0652                bmi        +0x654 /* 000018E0 */
00001290  0C41 0017                cmpi.w     D1, 0x17
00001294  6E00 064A                bgt        +0x64C /* 000018E0 */
00001298  D241                     add.w      D1, D1
0000129A  323B 1006                move.w     D1, [PC + D1.w + 0x6]
0000129E  4EFB 1000                jmp        [PC + D1.w]
000012A2  0032 02D4 02E4           ori.b      [A2 + D0.w * 2 - 0x1C], 0xD4
000012A8  02E4                     .incomplete
000012AA  02F4                     .incomplete
000012AC  0640 0640                addi.w     D0, 0x640
000012B0  0304                     btst       D4, D1
000012B2  0314                     btst       [A4], D1
000012B4  05BE                     bclr       <<invalid special address>>, D2
000012B6  0428 01D8 0224           subi.b     [A0 + 0x224], 0xD8
000012BC  0502                     btst       D2, D2
000012BE  0138 0298                btst       [0x00000298], D0
000012C2  0640 0036                addi.w     D0, 0x36 /* '6' */
000012C6  0122                     btst       -[A2], D0
000012C8  0056 05E6                ori.w      [A6], 0x5E6
000012CC  0640 01AC                addi.w     D0, 0x1AC
000012D0  0164                     bchg       -[A4], D0
000012D2  6000 064C                bra        +0x64E /* 00001920 */
000012D6  486E FFF6                pea.l      [A6 - 0xA]
000012DA  4EAD 1452                jsr        [A5 + 0x1452 /* export_646, CODE:13 @ 00001556 */]
000012DE  486E FFF6                pea.l      [A6 - 0xA]
000012E2  486E FEF6                pea.l      [A6 - 0x10A]
000012E6  4EAD 09EA                jsr        [A5 + 0x9EA /* export_313, CODE:8 @ 0000101C */]
000012EA  486E FEF6                pea.l      [A6 - 0x10A]
000012EE  4EAD 0B22                jsr        [A5 + 0xB22 /* export_352, CODE:8 @ 00003A82 */]
000012F2  6000 062C                bra        +0x62E /* 00001920 */
000012F6  486E FD72                pea.l      [A6 - 0x28E]
000012FA  42A7                     clr.l      -[A7]
000012FC  4EAD 1462                jsr        [A5 + 0x1462 /* export_648, CODE:13 @ 000015F4 */]
00001300  4EAD 1902                jsr        [A5 + 0x1902 /* export_796, CODE:16 @ 000009D4 */]
00001304  205F                     movea.l    A0, [A7]+
00001306  43EE FEF6                lea.l      A1, [A6 - 0x10A]
0000130A  7004                     moveq.l    D0, 0x04
label0000130C:
0000130C  22D8                     move.l     [A1]+, [A0]+
0000130E  51C8 FFFC                dbf        D0, -0x6 /* 0000130C */
00001312  4240                     clr.w      D0
00001314  102E FEF6                move.b     D0, [A6 - 0x10A]
00001318  322D B3AE                move.w     D1, [A5 - 0x4C52]
0000131C  9240                     sub.w      D1, D0
0000131E  3D41 FD70                move.w     [A6 - 0x290], D1
00001322  7E01                     moveq.l    D7, 0x01
00001324  6028                     bra        +0x2A /* 0000134E */
label00001326:
00001326  487A 06E4                pea.l      [PC + 0x6E4 /* 00001A0C, value 0x130012E */]
0000132A  486E FEF6                pea.l      [A6 - 0x10A]
0000132E  486E FD86                pea.l      [A6 - 0x27A]
00001332  3F3C 0002                move.w     -[A7], 0x2
00001336  4EAD 050A                jsr        [A5 + 0x50A /* export_157, CODE:1 @ 0000531E */]
0000133A  41EE FEF6                lea.l      A0, [A6 - 0x10A]
0000133E  43EE FD86                lea.l      A1, [A6 - 0x27A]
00001342  703F                     moveq.l    D0, 0x3F
label00001344:
00001344  20D9                     move.l     [A0]+, [A1]+
00001346  51C8 FFFC                dbf        D0, -0x6 /* 00001344 */
0000134A  5247                     addq.w     D7, 1
0000134C  6906                     bvs        +0x8 /* 00001354 */
label0000134E:
0000134E  BE6E FD70                cmp.w      D7, [A6 - 0x290]
00001352  6FD2                     ble        -0x2C /* 00001326 */
label00001354:
00001354  4A6D B3B0                tst.w      [A5 - 0x4C50]
00001358  6F5C                     ble        +0x5E /* 000013B6 */
0000135A  486E FEF6                pea.l      [A6 - 0x10A]
0000135E  487A 06AE                pea.l      [PC + 0x6AE /* 00001A0E, value 0x12E4E56 */]
00001362  486E FD86                pea.l      [A6 - 0x27A]
00001366  3F3C 0002                move.w     -[A7], 0x2
0000136A  4EAD 050A                jsr        [A5 + 0x50A /* export_157, CODE:1 @ 0000531E */]
0000136E  41EE FEF6                lea.l      A0, [A6 - 0x10A]
00001372  43EE FD86                lea.l      A1, [A6 - 0x27A]
00001376  703F                     moveq.l    D0, 0x3F
label00001378:
00001378  20D9                     move.l     [A0]+, [A1]+
0000137A  51C8 FFFC                dbf        D0, -0x6 /* 00001378 */
0000137E  3D6D B3B0 FD6E           move.w     [A6 - 0x292], [A5 - 0x4C50]
00001384  7E01                     moveq.l    D7, 0x01
00001386  6028                     bra        +0x2A /* 000013B0 */
label00001388:
00001388  486E FEF6                pea.l      [A6 - 0x10A]
0000138C  487A 067E                pea.l      [PC + 0x67E /* 00001A0C, value 0x130012E */]
00001390  486E FD86                pea.l      [A6 - 0x27A]
00001394  3F3C 0002                move.w     -[A7], 0x2
00001398  4EAD 050A                jsr        [A5 + 0x50A /* export_157, CODE:1 @ 0000531E */]
0000139C  41EE FEF6                lea.l      A0, [A6 - 0x10A]
000013A0  43EE FD86                lea.l      A1, [A6 - 0x27A]
000013A4  703F                     moveq.l    D0, 0x3F
label000013A6:
000013A6  20D9                     move.l     [A0]+, [A1]+
000013A8  51C8 FFFC                dbf        D0, -0x6 /* 000013A6 */
000013AC  5247                     addq.w     D7, 1
000013AE  6906                     bvs        +0x8 /* 000013B6 */
label000013B0:
000013B0  BE6E FD6E                cmp.w      D7, [A6 - 0x292]
000013B4  6FD2                     ble        -0x2C /* 00001388 */
label000013B6:
000013B6  486E FEF6                pea.l      [A6 - 0x10A]
000013BA  4EAD 0B22                jsr        [A5 + 0xB22 /* export_352, CODE:8 @ 00003A82 */]
000013BE  6000 0560                bra        +0x562 /* 00001920 */
000013C2  486E FD72                pea.l      [A6 - 0x28E]
000013C6  42A7                     clr.l      -[A7]
000013C8  4EAD 147A                jsr        [A5 + 0x147A /* export_651, CODE:13 @ 000016E8 */]
000013CC  4EAD 18B2                jsr        [A5 + 0x18B2 /* export_786, CODE:16 @ 00000738 */]
000013D0  4EAD 0B2A                jsr        [A5 + 0xB2A /* export_353, CODE:8 @ 00003ACC */]
000013D4  6000 054A                bra        +0x54C /* 00001920 */
000013D8  4267                     clr.w      -[A7]
000013DA  4EAD 1472                jsr        [A5 + 0x1472 /* export_650, CODE:13 @ 000016BC */]
000013DE  101F                     move.b     D0, [A7]+
000013E0  6710                     beq        +0x12 /* 000013F2 */
000013E2  2F2D A422                move.l     -[A7], [A5 - 0x5BDE]
000013E6  7005                     moveq.l    D0, 0x05
000013E8  2F00                     move.l     -[A7], D0
000013EA  4267                     clr.w      -[A7]
000013EC  4EAD 0AC2                jsr        [A5 + 0xAC2 /* export_340, CODE:8 @ 000036D2 */]
000013F0  600E                     bra        +0x10 /* 00001400 */
label000013F2:
000013F2  2F2D A426                move.l     -[A7], [A5 - 0x5BDA]
000013F6  7006                     moveq.l    D0, 0x06
000013F8  2F00                     move.l     -[A7], D0
000013FA  4267                     clr.w      -[A7]
000013FC  4EAD 0AC2                jsr        [A5 + 0xAC2 /* export_340, CODE:8 @ 000036D2 */]
label00001400:
00001400  6000 051E                bra        +0x520 /* 00001920 */
00001404  486E FEEE                pea.l      [A6 - 0x112]
00001408  7002                     moveq.l    D0, 0x02
0000140A  2F00                     move.l     -[A7], D0
0000140C  1F3C 0017                move.b     -[A7], 0x17
00001410  4EAD 146A                jsr        [A5 + 0x146A /* export_649, CODE:13 @ 00001620 */]
00001414  4A6E FEEE                tst.w      [A6 - 0x112]
00001418  6D0A                     blt        +0xC /* 00001424 */
0000141A  4EAD 1812                jsr        [A5 + 0x1812 /* export_766, CODE:16 @ 00000208 */]
0000141E  4EAD 0AF2                jsr        [A5 + 0xAF2 /* export_346, CODE:8 @ 000039C4 */]
00001422  6024                     bra        +0x26 /* 00001448 */
label00001424:
00001424  206D D44C                movea.l    A0, [A5 - 0x2BB4]
00001428  302E FEEE                move.w     D0, [A6 - 0x112]
0000142C  48C0                     ext.l      D0
0000142E  2850                     movea.l    A4, [A0]
00001430  99C0                     sub.l      A4, D0
00001432  2F2D D44C                move.l     -[A7], [A5 - 0x2BB4]
00001436  4EAD 0222                jsr        [A5 + 0x222 /* export_64, CODE:1 @ 00004678 */]
0000143A  2F0C                     move.l     -[A7], A4
0000143C  4EAD 0B22                jsr        [A5 + 0xB22 /* export_352, CODE:8 @ 00003A82 */]
00001440  2F2D D44C                move.l     -[A7], [A5 - 0x2BB4]
00001444  4EAD 022A                jsr        [A5 + 0x22A /* export_65, CODE:1 @ 00004682 */]
label00001448:
00001448  6000 04D6                bra        +0x4D8 /* 00001920 */
0000144C  486E FEE7                pea.l      [A6 - 0x119]
00001450  7001                     moveq.l    D0, 0x01
00001452  2F00                     move.l     -[A7], D0
00001454  1F3C 0016                move.b     -[A7], 0x16
00001458  4EAD 146A                jsr        [A5 + 0x146A /* export_649, CODE:13 @ 00001620 */]
0000145C  486E FC6E                pea.l      [A6 - 0x392]
00001460  1F3C 0014                move.b     -[A7], 0x14
00001464  102E FEE7                move.b     D0, [A6 - 0x119]
00001468  4880                     ext.w      D0
0000146A  3F00                     move.w     -[A7], D0
0000146C  4EAD 0CA2                jsr        [A5 + 0xCA2 /* export_400, CODE:8 @ 00004E4A */]
00001470  4EAD 0B2A                jsr        [A5 + 0xB2A /* export_353, CODE:8 @ 00003ACC */]
00001474  6000 04AA                bra        +0x4AC /* 00001920 */
00001478  486E FEE2                pea.l      [A6 - 0x11E]
0000147C  7004                     moveq.l    D0, 0x04
0000147E  2F00                     move.l     -[A7], D0
00001480  1F3C 000B                move.b     -[A7], 0xB
00001484  4EAD 146A                jsr        [A5 + 0x146A /* export_649, CODE:13 @ 00001620 */]
00001488  486E FD72                pea.l      [A6 - 0x28E]
0000148C  302E FEE4                move.w     D0, [A6 - 0x11C]
00001490  48C0                     ext.l      D0
00001492  2F00                     move.l     -[A7], D0
00001494  4EAD 1902                jsr        [A5 + 0x1902 /* export_796, CODE:16 @ 000009D4 */]
00001498  487A 0570                pea.l      [PC + 0x570 /* 00001A0A, value 0x12C0130 */]
0000149C  486E FC5A                pea.l      [A6 - 0x3A6]
000014A0  302E FEE2                move.w     D0, [A6 - 0x11E]
000014A4  48C0                     ext.l      D0
000014A6  2F00                     move.l     -[A7], D0
000014A8  4EAD 1902                jsr        [A5 + 0x1902 /* export_796, CODE:16 @ 000009D4 */]
000014AC  486E FE5E                pea.l      [A6 - 0x1A2]
000014B0  3F3C 0003                move.w     -[A7], 0x3
000014B4  4EAD 050A                jsr        [A5 + 0x50A /* export_157, CODE:1 @ 0000531E */]
000014B8  486E FE5E                pea.l      [A6 - 0x1A2]
000014BC  4EAD 0B2A                jsr        [A5 + 0xB2A /* export_353, CODE:8 @ 00003ACC */]
000014C0  6000 045E                bra        +0x460 /* 00001920 */
000014C4  486E FEDA                pea.l      [A6 - 0x126]
000014C8  7008                     moveq.l    D0, 0x08
000014CA  2F00                     move.l     -[A7], D0
000014CC  1F3C 000C                move.b     -[A7], 0xC
000014D0  4EAD 146A                jsr        [A5 + 0x146A /* export_649, CODE:13 @ 00001620 */]
000014D4  486E FD72                pea.l      [A6 - 0x28E]
000014D8  302E FEDC                move.w     D0, [A6 - 0x124]
000014DC  48C0                     ext.l      D0
000014DE  2F00                     move.l     -[A7], D0
000014E0  4EAD 1902                jsr        [A5 + 0x1902 /* export_796, CODE:16 @ 000009D4 */]
000014E4  487A 0524                pea.l      [PC + 0x524 /* 00001A0A, value 0x12C0130 */]
000014E8  486E FC5A                pea.l      [A6 - 0x3A6]
000014EC  302E FEDA                move.w     D0, [A6 - 0x126]
000014F0  48C0                     ext.l      D0
000014F2  2F00                     move.l     -[A7], D0
000014F4  4EAD 1902                jsr        [A5 + 0x1902 /* export_796, CODE:16 @ 000009D4 */]
000014F8  487A 0510                pea.l      [PC + 0x510 /* 00001A0A, value 0x12C0130 */]
000014FC  486E FC46                pea.l      [A6 - 0x3BA]
00001500  302E FEE0                move.w     D0, [A6 - 0x120]
00001504  48C0                     ext.l      D0
00001506  2F00                     move.l     -[A7], D0
00001508  4EAD 1902                jsr        [A5 + 0x1902 /* export_796, CODE:16 @ 000009D4 */]
0000150C  487A 04FC                pea.l      [PC + 0x4FC /* 00001A0A, value 0x12C0130 */]
00001510  486E FC32                pea.l      [A6 - 0x3CE]
00001514  302E FEDE                move.w     D0, [A6 - 0x122]
00001518  48C0                     ext.l      D0
0000151A  2F00                     move.l     -[A7], D0
0000151C  4EAD 1902                jsr        [A5 + 0x1902 /* export_796, CODE:16 @ 000009D4 */]
00001520  486E FE36                pea.l      [A6 - 0x1CA]
00001524  3F3C 0007                move.w     -[A7], 0x7
00001528  4EAD 050A                jsr        [A5 + 0x50A /* export_157, CODE:1 @ 0000531E */]
0000152C  486E FE36                pea.l      [A6 - 0x1CA]
00001530  4EAD 0B2A                jsr        [A5 + 0xB2A /* export_353, CODE:8 @ 00003ACC */]
00001534  6000 03EA                bra        +0x3EC /* 00001920 */
00001538  486E FEC2                pea.l      [A6 - 0x13E]
0000153C  7018                     moveq.l    D0, 0x18
0000153E  2F00                     move.l     -[A7], D0
00001540  1F3C 000F                move.b     -[A7], 0xF
00001544  4EAD 146A                jsr        [A5 + 0x146A /* export_649, CODE:13 @ 00001620 */]
00001548  1C2D B66B                move.b     D6, [A5 - 0x4995]
0000154C  202E FEC4                move.l     D0, [A6 - 0x13C]
00001550  B0AD F4E0                cmp.l      D0, [A5 - 0xB20]
00001554  6708                     beq        +0xA /* 0000155E */
00001556  1B7C 0001 B66B           move.b     [A5 - 0x4995], 0x1
0000155C  6004                     bra        +0x6 /* 00001562 */
label0000155E:
0000155E  422D B66B                clr.b      [A5 - 0x4995]
label00001562:
00001562  486E FEC2                pea.l      [A6 - 0x13E]
00001566  4267                     clr.w      -[A7]
00001568  4EAD 0A2A                jsr        [A5 + 0xA2A /* export_321, CODE:8 @ 00002BF8 */]
0000156C  1B46 B66B                move.b     [A5 - 0x4995], D6
00001570  6000 03AE                bra        +0x3B0 /* 00001920 */
00001574  4EAD 1432                jsr        [A5 + 0x1432 /* export_642, CODE:13 @ 000010F2 */]
00001578  487A 0482                pea.l      [PC + 0x482 /* 000019FC, value 0xC3C6261, pstring "<background>" */]
0000157C  4EAD 0B2A                jsr        [A5 + 0xB2A /* export_353, CODE:8 @ 00003ACC */]
00001580  6000 039E                bra        +0x3A0 /* 00001920 */
00001584  4EAD 1432                jsr        [A5 + 0x1432 /* export_642, CODE:13 @ 000010F2 */]
00001588  487A 046A                pea.l      [PC + 0x46A /* 000019F4, value 0x63C6361, pstring "<card>" */]
0000158C  4EAD 0B2A                jsr        [A5 + 0xB2A /* export_353, CODE:8 @ 00003ACC */]
00001590  6000 038E                bra        +0x390 /* 00001920 */
00001594  4EAD 1432                jsr        [A5 + 0x1432 /* export_642, CODE:13 @ 000010F2 */]
00001598  487A 0452                pea.l      [PC + 0x452 /* 000019EC, value 0x73C6368, pstring "<chunk>" */]
0000159C  4EAD 0B2A                jsr        [A5 + 0xB2A /* export_353, CODE:8 @ 00003ACC */]
000015A0  6000 037E                bra        +0x380 /* 00001920 */
000015A4  4EAD 1432                jsr        [A5 + 0x1432 /* export_642, CODE:13 @ 000010F2 */]
000015A8  487A 0436                pea.l      [PC + 0x436 /* 000019E0, value 0xB3C636F, pstring "<container>" */]
000015AC  4EAD 0B2A                jsr        [A5 + 0xB2A /* export_353, CODE:8 @ 00003ACC */]
000015B0  6000 036E                bra        +0x370 /* 00001920 */
000015B4  486E FEBE                pea.l      [A6 - 0x142]
000015B8  7002                     moveq.l    D0, 0x02
000015BA  2F00                     move.l     -[A7], D0
000015BC  1F3C 0008                move.b     -[A7], 0x8
000015C0  4EAD 146A                jsr        [A5 + 0x146A /* export_649, CODE:13 @ 00001620 */]
000015C4  102E FEBE                move.b     D0, [A6 - 0x142]
000015C8  4880                     ext.w      D0
000015CA  5340                     subq.w     D0, 1
000015CC  670A                     beq        +0xC /* 000015D8 */
000015CE  5340                     subq.w     D0, 1
000015D0  6714                     beq        +0x16 /* 000015E6 */
000015D2  5340                     subq.w     D0, 1
000015D4  671E                     beq        +0x20 /* 000015F4 */
000015D6  602A                     bra        +0x2C /* 00001602 */
label000015D8:
000015D8  41EE FEF6                lea.l      A0, [A6 - 0x10A]
000015DC  43FA 03FC                lea.l      A1, [PC + 0x3FC /* 000019DA, value 0x46C6F6E, pstring "long" */]
000015E0  20D9                     move.l     [A0]+, [A1]+
000015E2  3091                     move.w     [A0], [A1]
000015E4  6020                     bra        +0x22 /* 00001606 */
label000015E6:
000015E6  41EE FEF6                lea.l      A0, [A6 - 0x10A]
000015EA  43FA 03E8                lea.l      A1, [PC + 0x3E8 /* 000019D4, value 0x573686F, pstring "short" */]
000015EE  20D9                     move.l     [A0]+, [A1]+
000015F0  3091                     move.w     [A0], [A1]
000015F2  6012                     bra        +0x14 /* 00001606 */
label000015F4:
000015F4  41EE FEF6                lea.l      A0, [A6 - 0x10A]
000015F8  43FA 03D2                lea.l      A1, [PC + 0x3D2 /* 000019CC, value 0x6616262, pstring "abbrev" */]
000015FC  20D9                     move.l     [A0]+, [A1]+
000015FE  20D9                     move.l     [A0]+, [A1]+
00001600  6004                     bra        +0x6 /* 00001606 */
label00001602:
00001602  422E FEF6                clr.b      [A6 - 0x10A]
label00001606:
00001606  102E FEBF                move.b     D0, [A6 - 0x141]
0000160A  4880                     ext.w      D0
0000160C  5340                     subq.w     D0, 1
0000160E  6710                     beq        +0x12 /* 00001620 */
00001610  5340                     subq.w     D0, 1
00001612  6732                     beq        +0x34 /* 00001646 */
00001614  5340                     subq.w     D0, 1
00001616  6754                     beq        +0x56 /* 0000166C */
00001618  5340                     subq.w     D0, 1
0000161A  6776                     beq        +0x78 /* 00001692 */
0000161C  6000 009A                bra        +0x9C /* 000016B8 */
label00001620:
00001620  486E FEF6                pea.l      [A6 - 0x10A]
00001624  487A 039C                pea.l      [PC + 0x39C /* 000019C2, value 0x8207365, pstring " seconds" */]
00001628  486E FD86                pea.l      [A6 - 0x27A]
0000162C  3F3C 0002                move.w     -[A7], 0x2
00001630  4EAD 050A                jsr        [A5 + 0x50A /* export_157, CODE:1 @ 0000531E */]
00001634  41EE FEF6                lea.l      A0, [A6 - 0x10A]
00001638  43EE FD86                lea.l      A1, [A6 - 0x27A]
0000163C  703F                     moveq.l    D0, 0x3F
label0000163E:
0000163E  20D9                     move.l     [A0]+, [A1]+
00001640  51C8 FFFC                dbf        D0, -0x6 /* 0000163E */
00001644  6076                     bra        +0x78 /* 000016BC */
label00001646:
00001646  486E FEF6                pea.l      [A6 - 0x10A]
0000164A  487A 036A                pea.l      [PC + 0x36A /* 000019B6, value 0xA206461 '\n da', pstring " dateItems" */]
0000164E  486E FD86                pea.l      [A6 - 0x27A]
00001652  3F3C 0002                move.w     -[A7], 0x2
00001656  4EAD 050A                jsr        [A5 + 0x50A /* export_157, CODE:1 @ 0000531E */]
0000165A  41EE FEF6                lea.l      A0, [A6 - 0x10A]
0000165E  43EE FD86                lea.l      A1, [A6 - 0x27A]
00001662  703F                     moveq.l    D0, 0x3F
label00001664:
00001664  20D9                     move.l     [A0]+, [A1]+
00001666  51C8 FFFC                dbf        D0, -0x6 /* 00001664 */
0000166A  6050                     bra        +0x52 /* 000016BC */
label0000166C:
0000166C  486E FEF6                pea.l      [A6 - 0x10A]
00001670  487A 033E                pea.l      [PC + 0x33E /* 000019B0, value 0x5206461, pstring " date" */]
00001674  486E FD86                pea.l      [A6 - 0x27A]
00001678  3F3C 0002                move.w     -[A7], 0x2
0000167C  4EAD 050A                jsr        [A5 + 0x50A /* export_157, CODE:1 @ 0000531E */]
00001680  41EE FEF6                lea.l      A0, [A6 - 0x10A]
00001684  43EE FD86                lea.l      A1, [A6 - 0x27A]
00001688  703F                     moveq.l    D0, 0x3F
label0000168A:
0000168A  20D9                     move.l     [A0]+, [A1]+
0000168C  51C8 FFFC                dbf        D0, -0x6 /* 0000168A */
00001690  602A                     bra        +0x2C /* 000016BC */
label00001692:
00001692  486E FEF6                pea.l      [A6 - 0x10A]
00001696  487A 0312                pea.l      [PC + 0x312 /* 000019AA, value 0x5207469, pstring " time" */]
0000169A  486E FD86                pea.l      [A6 - 0x27A]
0000169E  3F3C 0002                move.w     -[A7], 0x2
000016A2  4EAD 050A                jsr        [A5 + 0x50A /* export_157, CODE:1 @ 0000531E */]
000016A6  41EE FEF6                lea.l      A0, [A6 - 0x10A]
000016AA  43EE FD86                lea.l      A1, [A6 - 0x27A]
000016AE  703F                     moveq.l    D0, 0x3F
label000016B0:
000016B0  20D9                     move.l     [A0]+, [A1]+
000016B2  51C8 FFFC                dbf        D0, -0x6 /* 000016B0 */
000016B6  6004                     bra        +0x6 /* 000016BC */
label000016B8:
000016B8  422E FEF6                clr.b      [A6 - 0x10A]
label000016BC:
000016BC  486E FEF6                pea.l      [A6 - 0x10A]
000016C0  4EAD 0B22                jsr        [A5 + 0xB22 /* export_352, CODE:8 @ 00003A82 */]
000016C4  6000 025A                bra        +0x25C /* 00001920 */
000016C8  486E FE8E                pea.l      [A6 - 0x172]
000016CC  7030                     moveq.l    D0, 0x30
000016CE  2F00                     move.l     -[A7], D0
000016D0  1F3C 000A                move.b     -[A7], 0xA /* '\n' */
000016D4  4EAD 146A                jsr        [A5 + 0x146A /* export_649, CODE:13 @ 00001620 */]
000016D8  4267                     clr.w      -[A7]
000016DA  486E FE8E                pea.l      [A6 - 0x172]
000016DE  1F3C 0001                move.b     -[A7], 0x1
000016E2  4EAD 0AAA                jsr        [A5 + 0xAAA /* export_337, CODE:8 @ 00003552 */]
000016E6  3A1F                     move.w     D5, [A7]+
000016E8  422E FEF6                clr.b      [A6 - 0x10A]
000016EC  202E FE90                move.l     D0, [A6 - 0x170]
000016F0  B0AE FE94                cmp.l      D0, [A6 - 0x16C]
000016F4  660E                     bne        +0x10 /* 00001704 */
000016F6  41EE FEF6                lea.l      A0, [A6 - 0x10A]
000016FA  43FA 02A6                lea.l      A1, [PC + 0x2A6 /* 000019A2, value 0x6626B67, pstring "bkgnd " */]
000016FE  20D9                     move.l     [A0]+, [A1]+
00001700  20D9                     move.l     [A0]+, [A1]+
00001702  6016                     bra        +0x18 /* 0000171A */
label00001704:
00001704  202E FE90                move.l     D0, [A6 - 0x170]
00001708  B0AE FE98                cmp.l      D0, [A6 - 0x168]
0000170C  660C                     bne        +0xE /* 0000171A */
0000170E  41EE FEF6                lea.l      A0, [A6 - 0x10A]
00001712  43FA 0288                lea.l      A1, [PC + 0x288 /* 0000199C, value 0x5636172, pstring "card " */]
00001716  20D9                     move.l     [A0]+, [A1]+
00001718  3091                     move.w     [A0], [A1]
label0000171A:
0000171A  7002                     moveq.l    D0, 0x02
0000171C  B06E FE8E                cmp.w      D0, [A6 - 0x172]
00001720  6626                     bne        +0x28 /* 00001748 */
00001722  486E FEF6                pea.l      [A6 - 0x10A]
00001726  487A 026C                pea.l      [PC + 0x26C /* 00001994, value 0x6666965, pstring "field " */]
0000172A  486E FD86                pea.l      [A6 - 0x27A]
0000172E  3F3C 0002                move.w     -[A7], 0x2
00001732  4EAD 050A                jsr        [A5 + 0x50A /* export_157, CODE:1 @ 0000531E */]
00001736  41EE FEF6                lea.l      A0, [A6 - 0x10A]
0000173A  43EE FD86                lea.l      A1, [A6 - 0x27A]
0000173E  703F                     moveq.l    D0, 0x3F
label00001740:
00001740  20D9                     move.l     [A0]+, [A1]+
00001742  51C8 FFFC                dbf        D0, -0x6 /* 00001740 */
00001746  6024                     bra        +0x26 /* 0000176C */
label00001748:
00001748  486E FEF6                pea.l      [A6 - 0x10A]
0000174C  487A 023E                pea.l      [PC + 0x23E /* 0000198C, value 0x7627574, pstring "button " */]
00001750  486E FD86                pea.l      [A6 - 0x27A]
00001754  3F3C 0002                move.w     -[A7], 0x2
00001758  4EAD 050A                jsr        [A5 + 0x50A /* export_157, CODE:1 @ 0000531E */]
0000175C  41EE FEF6                lea.l      A0, [A6 - 0x10A]
00001760  43EE FD86                lea.l      A1, [A6 - 0x27A]
00001764  703F                     moveq.l    D0, 0x3F
label00001766:
00001766  20D9                     move.l     [A0]+, [A1]+
00001768  51C8 FFFC                dbf        D0, -0x6 /* 00001766 */
label0000176C:
0000176C  486E FEF6                pea.l      [A6 - 0x10A]
00001770  486E FD72                pea.l      [A6 - 0x28E]
00001774  4267                     clr.w      -[A7]
00001776  2F2E FE90                move.l     -[A7], [A6 - 0x170]
0000177A  3F05                     move.w     -[A7], D5
0000177C  4EAD 1DCA                jsr        [A5 + 0x1DCA /* export_949, CODE:18 @ 00000E6C */]
00001780  301F                     move.w     D0, [A7]+
00001782  48C0                     ext.l      D0
00001784  2F00                     move.l     -[A7], D0
00001786  4EAD 1902                jsr        [A5 + 0x1902 /* export_796, CODE:16 @ 000009D4 */]
0000178A  486E FD86                pea.l      [A6 - 0x27A]
0000178E  3F3C 0002                move.w     -[A7], 0x2
00001792  4EAD 050A                jsr        [A5 + 0x50A /* export_157, CODE:1 @ 0000531E */]
00001796  486E FD86                pea.l      [A6 - 0x27A]
0000179A  4EAD 0B2A                jsr        [A5 + 0xB2A /* export_353, CODE:8 @ 00003ACC */]
0000179E  6000 0180                bra        +0x182 /* 00001920 */
000017A2  486E FE8A                pea.l      [A6 - 0x176]
000017A6  7004                     moveq.l    D0, 0x04
000017A8  2F00                     move.l     -[A7], D0
000017AA  1F3C 000D                move.b     -[A7], 0xD /* '\r' */
000017AE  4EAD 146A                jsr        [A5 + 0x146A /* export_649, CODE:13 @ 00001620 */]
000017B2  422E FEF6                clr.b      [A6 - 0x10A]
000017B6  102E FE8A                move.b     D0, [A6 - 0x176]
000017BA  670E                     beq        +0x10 /* 000017CA */
000017BC  41EE FEF6                lea.l      A0, [A6 - 0x10A]
000017C0  43FA 01C0                lea.l      A1, [PC + 0x1C0 /* 00001982, value 0x8736869, pstring "shiftKey" */]
000017C4  20D9                     move.l     [A0]+, [A1]+
000017C6  20D9                     move.l     [A0]+, [A1]+
000017C8  3091                     move.w     [A0], [A1]
label000017CA:
000017CA  102E FE8B                move.b     D0, [A6 - 0x175]
000017CE  673E                     beq        +0x40 /* 0000180E */
000017D0  4240                     clr.w      D0
000017D2  102E FEF6                move.b     D0, [A6 - 0x10A]
000017D6  4A40                     tst.w      D0
000017D8  6F26                     ble        +0x28 /* 00001800 */
000017DA  486E FEF6                pea.l      [A6 - 0x10A]
000017DE  487A 0196                pea.l      [PC + 0x196 /* 00001976, value 0xA2C6F70 '\n,op', pstring ",optionKey" */]
000017E2  486E FD86                pea.l      [A6 - 0x27A]
000017E6  3F3C 0002                move.w     -[A7], 0x2
000017EA  4EAD 050A                jsr        [A5 + 0x50A /* export_157, CODE:1 @ 0000531E */]
000017EE  41EE FEF6                lea.l      A0, [A6 - 0x10A]
000017F2  43EE FD86                lea.l      A1, [A6 - 0x27A]
000017F6  703F                     moveq.l    D0, 0x3F
label000017F8:
000017F8  20D9                     move.l     [A0]+, [A1]+
000017FA  51C8 FFFC                dbf        D0, -0x6 /* 000017F8 */
000017FE  600E                     bra        +0x10 /* 0000180E */
label00001800:
00001800  41EE FEF6                lea.l      A0, [A6 - 0x10A]
00001804  43FA 0166                lea.l      A1, [PC + 0x166 /* 0000196C, value 0x96F7074 '\topt', pstring "optionKey" */]
00001808  20D9                     move.l     [A0]+, [A1]+
0000180A  20D9                     move.l     [A0]+, [A1]+
0000180C  3091                     move.w     [A0], [A1]
label0000180E:
0000180E  102E FE8C                move.b     D0, [A6 - 0x174]
00001812  673E                     beq        +0x40 /* 00001852 */
00001814  4240                     clr.w      D0
00001816  102E FEF6                move.b     D0, [A6 - 0x10A]
0000181A  4A40                     tst.w      D0
0000181C  6F26                     ble        +0x28 /* 00001844 */
0000181E  486E FEF6                pea.l      [A6 - 0x10A]
00001822  487A 013C                pea.l      [PC + 0x13C /* 00001960, value 0xB2C636F, pstring ",commandKey" */]
00001826  486E FD86                pea.l      [A6 - 0x27A]
0000182A  3F3C 0002                move.w     -[A7], 0x2
0000182E  4EAD 050A                jsr        [A5 + 0x50A /* export_157, CODE:1 @ 0000531E */]
00001832  41EE FEF6                lea.l      A0, [A6 - 0x10A]
00001836  43EE FD86                lea.l      A1, [A6 - 0x27A]
0000183A  703F                     moveq.l    D0, 0x3F
label0000183C:
0000183C  20D9                     move.l     [A0]+, [A1]+
0000183E  51C8 FFFC                dbf        D0, -0x6 /* 0000183C */
00001842  600E                     bra        +0x10 /* 00001852 */
label00001844:
00001844  41EE FEF6                lea.l      A0, [A6 - 0x10A]
00001848  43FA 010A                lea.l      A1, [PC + 0x10A /* 00001954, value 0xA636F6D '\ncom', pstring "commandKey" */]
0000184C  20D9                     move.l     [A0]+, [A1]+
0000184E  20D9                     move.l     [A0]+, [A1]+
00001850  20D9                     move.l     [A0]+, [A1]+
label00001852:
00001852  486E FEF6                pea.l      [A6 - 0x10A]
00001856  4EAD 0B22                jsr        [A5 + 0xB22 /* export_352, CODE:8 @ 00003A82 */]
0000185A  6000 00C4                bra        +0xC6 /* 00001920 */
0000185E  486E FE86                pea.l      [A6 - 0x17A]
00001862  7004                     moveq.l    D0, 0x04
00001864  2F00                     move.l     -[A7], D0
00001866  1F3C 0009                move.b     -[A7], 0x9 /* '\t' */
0000186A  4EAD 146A                jsr        [A5 + 0x146A /* export_649, CODE:13 @ 00001620 */]
0000186E  2F2E FE86                move.l     -[A7], [A6 - 0x17A]
00001872  486E FEF6                pea.l      [A6 - 0x10A]
00001876  4EAD 09FA                jsr        [A5 + 0x9FA /* export_315, CODE:8 @ 0000125A */]
0000187A  486E FEF6                pea.l      [A6 - 0x10A]
0000187E  4EAD 0B22                jsr        [A5 + 0xB22 /* export_352, CODE:8 @ 00003A82 */]
00001882  6000 009C                bra        +0x9E /* 00001920 */
00001886  486E FEEC                pea.l      [A6 - 0x114]
0000188A  7002                     moveq.l    D0, 0x02
0000188C  2F00                     move.l     -[A7], D0
0000188E  1F3C 0014                move.b     -[A7], 0x14
00001892  4EAD 146A                jsr        [A5 + 0x146A /* export_649, CODE:13 @ 00001620 */]
00001896  302E FEEC                move.w     D0, [A6 - 0x114]
0000189A  6712                     beq        +0x14 /* 000018AE */
0000189C  5340                     subq.w     D0, 1
0000189E  6718                     beq        +0x1A /* 000018B8 */
000018A0  5340                     subq.w     D0, 1
000018A2  671E                     beq        +0x20 /* 000018C2 */
000018A4  5340                     subq.w     D0, 1
000018A6  6724                     beq        +0x26 /* 000018CC */
000018A8  5340                     subq.w     D0, 1
000018AA  672A                     beq        +0x2C /* 000018D6 */
000018AC  6072                     bra        +0x74 /* 00001920 */
label000018AE:
000018AE  487A 009C                pea.l      [PC + 0x9C /* 0000194C, value 0x66E6F72, pstring "normal" */]
000018B2  4EAD 0B2A                jsr        [A5 + 0xB2A /* export_353, CODE:8 @ 00003ACC */]
000018B6  6068                     bra        +0x6A /* 00001920 */
label000018B8:
000018B8  487A 008C                pea.l      [PC + 0x8C /* 00001946, value 0x5636861, pstring "chars" */]
000018BC  4EAD 0B2A                jsr        [A5 + 0xB2A /* export_353, CODE:8 @ 00003ACC */]
000018C0  605E                     bra        +0x60 /* 00001920 */
label000018C2:
000018C2  487A 007C                pea.l      [PC + 0x7C /* 00001940, value 0x4776F72, pstring "word" */]
000018C6  4EAD 0B2A                jsr        [A5 + 0xB2A /* export_353, CODE:8 @ 00003ACC */]
000018CA  6054                     bra        +0x56 /* 00001920 */
label000018CC:
000018CC  487A 006A                pea.l      [PC + 0x6A /* 00001938, value 0x6737472, pstring "string" */]
000018D0  4EAD 0B2A                jsr        [A5 + 0xB2A /* export_353, CODE:8 @ 00003ACC */]
000018D4  604A                     bra        +0x4C /* 00001920 */
label000018D6:
000018D6  487A 005A                pea.l      [PC + 0x5A /* 00001932, value 0x577686F, pstring "whole" */]
000018DA  4EAD 0B2A                jsr        [A5 + 0xB2A /* export_353, CODE:8 @ 00003ACC */]
000018DE  6040                     bra        +0x42 /* 00001920 */
label000018E0:
000018E0  302D B978                move.w     D0, [A5 - 0x4688]
000018E4  5340                     subq.w     D0, 1
000018E6  41ED B678                lea.l      A0, [A5 - 0x4988]
000018EA  1230 0000                move.b     D1, [A0 + D0.w]
000018EE  4881                     ext.w      D1
000018F0  3801                     move.w     D4, D1
000018F2  4EAD 1432                jsr        [A5 + 0x1432 /* export_642, CODE:13 @ 000010F2 */]
000018F6  487A 0032                pea.l      [PC + 0x32 /* 0000192A, value 0x63C7479, pstring "<type " */]
000018FA  486E FD72                pea.l      [A6 - 0x28E]
000018FE  3004                     move.w     D0, D4
00001900  48C0                     ext.l      D0
00001902  2F00                     move.l     -[A7], D0
00001904  4EAD 1902                jsr        [A5 + 0x1902 /* export_796, CODE:16 @ 000009D4 */]
00001908  487A 001E                pea.l      [PC + 0x1E /* 00001928, value 0x13E063C */]
0000190C  486E FE6A                pea.l      [A6 - 0x196]
00001910  3F3C 0003                move.w     -[A7], 0x3
00001914  4EAD 050A                jsr        [A5 + 0x50A /* export_157, CODE:1 @ 0000531E */]
00001918  486E FE6A                pea.l      [A6 - 0x196]
0000191C  4EAD 0B2A                jsr        [A5 + 0xB2A /* export_353, CODE:8 @ 00003ACC */]
label00001920:
00001920  4CDF 10F0                movem.l    D4,D5,D6,D7,A4, [A7]+
00001924  4E5E                     unlink     A6
00001926  4E75                     rts
00001928  013E                     btst       <<invalid special address>>, D0
0000192A  063C 7479 7065           addi.b     0x65 /* 'e' */, 0x79 /* 'y' */
00001930  2000                     move.l     D0, D0
00001932  0577 686F                bchg       [A7 + D6 + 0x6F], D2
00001936  6C65                     bge        +0x67 /* 0000199D */
00001938  0673 7472 696E           addi.w     <<invalid full ext with IS == 1 and I/IS == 6>>, 0x7472 /* 'tr' */
0000193E  6700 0477                beq        +0x479 /* 00001DB7 */
00001942  6F72                     ble        +0x74 /* 000019B6 */
00001944  6400 0563                bcc        +0x565 /* 00001EA9 */
00001948  6861                     bvc        +0x63 /* 000019AB */
0000194A  7273                     moveq.l    D1, 0x73
0000194C  066E 6F72 6D61           addi.w     [A6 + 0x6D61], 0x6F72 /* 'or' */
00001952  6C00 0A63                bge        +0xA65 /* 000023B7 */
00001956  6F6D                     ble        +0x6F /* 000019C5 */
00001958  6D61                     blt        +0x63 /* 000019BB */
0000195A  6E64                     bgt        +0x66 /* 000019C0 */
0000195C  4B65                     chk.w      D5, -[A5]
0000195E  7900                     moveq.l    D4, 0x00
00001960  0B2C 636F                btst       [A4 + 0x636F], D5
00001964  6D6D                     blt        +0x6F /* 000019D3 */
00001966  616E                     bsr        +0x70 /* 000019D6 */
00001968  644B                     bcc        +0x4D /* 000019B5 */
0000196A  6579                     bcs        +0x7B /* 000019E5 */
0000196C  096F 7074                bchg       [A7 + 0x7074], D4
00001970  696F                     bvs        +0x71 /* 000019E1 */
00001972  6E4B                     bgt        +0x4D /* 000019BF */
00001974  6579                     bcs        +0x7B /* 000019EF */
00001976  0A2C 6F70 7469           xori.b     [A4 + 0x7469], 0x70 /* 'p' */
0000197C  6F6E                     ble        +0x70 /* 000019EC */
0000197E  4B65                     chk.w      D5, -[A5]
00001980  7900                     moveq.l    D4, 0x00
00001982  0873 6869 6674           bchg.b     [A3 + D6.w * 8 + 0x74], 0x69 /* 'i' */
00001988  4B65                     chk.w      D5, -[A5]
0000198A  7900                     moveq.l    D4, 0x00
0000198C  0762                     bchg       -[A2], D3
0000198E  7574                     moveq.l    D2, 0x74
00001990  746F                     moveq.l    D2, 0x6F
00001992  6E20                     bgt        +0x22 /* 000019B4 */
00001994  0666 6965                addi.w     -[A6], 0x6965 /* 'ie' */
00001998  6C64                     bge        +0x66 /* 000019FE */
0000199A  2000                     move.l     D0, D0
0000199C  0563                     bchg       -[A3], D2
0000199E  6172                     bsr        +0x74 /* 00001A12 */
000019A0  6420                     bcc        +0x22 /* 000019C2 */
000019A2  0662 6B67                addi.w     -[A2], 0x6B67 /* 'kg' */
000019A6  6E64                     bgt        +0x66 /* 00001A0C */
000019A8  2000                     move.l     D0, D0
000019AA  0520                     btst       -[A0], D2
000019AC  7469                     moveq.l    D2, 0x69
000019AE  6D65                     blt        +0x67 /* 00001A15 */
000019B0  0520                     btst       -[A0], D2
000019B2  6461                     bcc        +0x63 /* 00001A15 */
label000019B4:
000019B4  7465                     moveq.l    D2, 0x65
label000019B6:
000019B6  0A20 6461                xori.b     -[A0], 0x61 /* 'a' */
000019BA  7465                     moveq.l    D2, 0x65
000019BC  4974 656D                chk.w      D4, <<invalid full ext with IS == 1 and I/IS == 5>>
label000019C0:
000019C0  7300                     moveq.l    D1, 0x00
label000019C2:
000019C2  0820 7365                btst.b     -[A0], 0x65 /* 'e' */
000019C6  636F                     bls        +0x71 /* 00001A37 */
000019C8  6E64                     bgt        +0x66 /* 00001A2E */
000019CA  7300                     moveq.l    D1, 0x00
000019CC  0661 6262                addi.w     -[A1], 0x6262 /* 'bb' */
000019D0  7265                     moveq.l    D1, 0x65
000019D2  7600                     moveq.l    D3, 0x00
000019D4  0573 686F                bchg       [A3 + D6 + 0x6F], D2
// begin alternate branch 000019D6-000019D8
fn000019D6:
000019D6  686F                     bvc        +0x71 /* 00001A47 */
// end alternate branch 000019D6-000019D8
fn000019D6: // (misaligned)
000019D8  7274                     moveq.l    D1, 0x74
000019DA  046C 6F6E 6700           subi.w     [A4 + 0x6700], 0x6F6E /* 'on' */
000019E0  0B3C 636F                btst       0x6F /* 'o' */, D5
000019E4  6E74                     bgt        +0x76 /* 00001A5A */
000019E6  6169                     bsr        +0x6B /* 00001A51 */
000019E8  6E65                     bgt        +0x67 /* 00001A4F */
000019EA  723E                     moveq.l    D1, 0x3E
label000019EC:
000019EC  073C 6368                btst       0x68 /* 'h' */, D3
000019F0  756E                     moveq.l    D2, 0x6E
000019F2  6B3E                     bmi        +0x40 /* 00001A32 */
000019F4  063C 6361 7264           addi.b     0x64 /* 'd' */, 0x61 /* 'a' */
000019FA  3E00                     move.w     D7, D0
000019FC  0C3C 6261 636B           cmpi.b     0x6B /* 'k' */, 0x61 /* 'a' */
// begin alternate branch 000019FE-00001A02
label000019FE:
000019FE  6261                     bhi        +0x63 /* 00001A61 */
00001A00  636B                     bls        +0x6D /* 00001A6D */
// end alternate branch 000019FE-00001A02
label000019FE: // (misaligned)
00001A02  6772                     beq        +0x74 /* 00001A76 */
00001A04  6F75                     ble        +0x77 /* 00001A7B */
00001A06  6E64                     bgt        +0x66 /* 00001A6C */
00001A08  3E00                     move.w     D7, D0
00001A0A  012C 0130                btst       [A4 + 0x130], D0
// begin alternate branch 00001A0C-00001A14
label00001A0C:
00001A0C  0130 012E 4E56 FFE6      btst       [[A0 + 0x4E56] + D0 - 0x1A], D0
// end alternate branch 00001A0C-00001A14
label00001A0C: // (misaligned)
00001A0E  012E 4E56                btst       [A6 + 0x4E56], D0
// begin alternate branch 00001A10-00001A14
fn00001A10:
00001A10  4E56 FFE6                link       A6, -0x001A
// end alternate branch 00001A10-00001A14
fn00001A10: // (misaligned)
fn00001A12:
00001A12  FFE6                     .invalid   <<F/7/7>>
00001A14  422E 000C                clr.b      [A6 + 0xC]
00001A18  4EAD 08E2                jsr        [A5 + 0x8E2 /* export_280, CODE:8 @ 000000E0 */]
00001A1C  7006                     moveq.l    D0, 0x06
00001A1E  B02D D46A                cmp.b      D0, [A5 - 0x2B96]
00001A22  57C0                     seq        D0
00001A24  7207                     moveq.l    D1, 0x07
00001A26  B22D D46B                cmp.b      D1, [A5 - 0x2B95]
00001A2A  57C1                     seq        D1
00001A2C  C001                     and.b      D0, D1
label00001A2E:
00001A2E  4400                     neg.b      D0
00001A30  1D40 FFE7                move.b     [A6 - 0x19], D0
// begin alternate branch 00001A32-00001A34
label00001A32:
00001A32  FFE7                     .invalid   <<F/7/7>>
// end alternate branch 00001A32-00001A34
label00001A32: // (misaligned)
00001A34  4EAD 0B52                jsr        [A5 + 0xB52 /* export_358, CODE:8 @ 00003D5A */]
00001A38  102E FFE7                move.b     D0, [A6 - 0x19]
00001A3C  6602                     bne        +0x4 /* 00001A40 */
00001A3E  6056                     bra        +0x58 /* 00001A96 */
label00001A40:
00001A40  41EE FFE8                lea.l      A0, [A6 - 0x18]
00001A44  43ED B652                lea.l      A1, [A5 - 0x49AE]
00001A48  7005                     moveq.l    D0, 0x05
label00001A4A:
00001A4A  20D9                     move.l     [A0]+, [A1]+
00001A4C  51C8 FFFC                dbf        D0, -0x6 /* 00001A4A */
00001A50  41ED 9A82                lea.l      A0, [A5 - 0x657E]
00001A54  B1ED A80C                cmpa.l     A0, [A5 - 0x57F4]
00001A58  660A                     bne        +0xC /* 00001A64 */
label00001A5A:
00001A5A  486D B652                pea.l      [A5 - 0x49AE]
00001A5E  4EAD 09B2                jsr        [A5 + 0x9B2 /* export_306, CODE:8 @ 00000CFE */]
00001A62  6014                     bra        +0x16 /* 00001A78 */
label00001A64:
00001A64  206D A80C                movea.l    A0, [A5 - 0x57F4]
00001A68  43ED B652                lea.l      A1, [A5 - 0x49AE]
label00001A6C:
00001A6C  41E8 0020                lea.l      A0, [A0 + 0x20]
00001A70  7005                     moveq.l    D0, 0x05
label00001A72:
00001A72  22D8                     move.l     [A1]+, [A0]+
00001A74  51C8 FFFC                dbf        D0, -0x6 /* 00001A72 */
// begin alternate branch 00001A76-00001A78
label00001A76:
00001A76  FFFC                     .invalid   <<F/7/7>>
// end alternate branch 00001A76-00001A78
label00001A76: // (misaligned)
label00001A78:
00001A78  4267                     clr.w      -[A7]
00001A7A  1F3C 0001                move.b     -[A7], 0x1
00001A7E  4EAD 14A2                jsr        [A5 + 0x14A2 /* export_656, CODE:13 @ 0000298E */]
00001A82  1D5F 000C                move.b     [A6 + 0xC], [A7]+
00001A86  41ED B652                lea.l      A0, [A5 - 0x49AE]
00001A8A  43EE FFE8                lea.l      A1, [A6 - 0x18]
00001A8E  7005                     moveq.l    D0, 0x05
label00001A90:
00001A90  20D9                     move.l     [A0]+, [A1]+
00001A92  51C8 FFFC                dbf        D0, -0x6 /* 00001A90 */
label00001A96:
00001A96  4E5E                     unlink     A6
00001A98  2E9F                     move.l     [A7], [A7]+
00001A9A  4E75                     rts
fn00001A9C:
00001A9C  4E56 FEF2                link       A6, -0x010E
00001AA0  48E7 0708                movem.l    -[A7], D5,D6,D7,A4
00001AA4  422E 000E                clr.b      [A6 + 0xE]
00001AA8  7013                     moveq.l    D0, 0x13
00001AAA  B02D D46A                cmp.b      D0, [A5 - 0x2B96]
00001AAE  6600 00BE                bne        +0xC0 /* 00001B6E */
00001AB2  102D D46B                move.b     D0, [A5 - 0x2B95]
00001AB6  4880                     ext.w      D0
00001AB8  5340                     subq.w     D0, 1
00001ABA  41ED CF6C                lea.l      A0, [A5 - 0x3094]
00001ABE  1230 0000                move.b     D1, [A0 + D0.w]
00001AC2  6600 00AA                bne        +0xAC /* 00001B6E */
00001AC6  102D D46B                move.b     D0, [A5 - 0x2B95]
00001ACA  4880                     ext.w      D0
00001ACC  3C00                     move.w     D6, D0
00001ACE  2D6D D46C FFFA           move.l     [A6 - 0x6], [A5 - 0x2B94]
00001AD4  206D D450                movea.l    A0, [A5 - 0x2BB0]
00001AD8  2050                     movea.l    A0, [A0]
00001ADA  3006                     move.w     D0, D6
00001ADC  D040                     add.w      D0, D0
00001ADE  3E30 0076                move.w     D7, [A0 + D0.w + 0x76]
00001AE2  70FF                     moveq.l    D0, 0xFFFFFFFF
00001AE4  B047                     cmp.w      D0, D7
00001AE6  57C0                     seq        D0
00001AE8  4A2E 000C                tst.b      [A6 + 0xC]
00001AEC  57C1                     seq        D1
00001AEE  C001                     and.b      D0, D1
00001AF0  667C                     bne        +0x7E /* 00001B6E */
00001AF2  3006                     move.w     D0, D6
00001AF4  5340                     subq.w     D0, 1
00001AF6  41ED CFA8                lea.l      A0, [A5 - 0x3058]
00001AFA  E540                     asl        D0.w, 2
00001AFC  2870 0000                movea.l    A4, [A0 + D0.w]
00001B00  4EAD 08E2                jsr        [A5 + 0x8E2 /* export_280, CODE:8 @ 000000E0 */]
00001B04  70FF                     moveq.l    D0, 0xFFFFFFFF
00001B06  B047                     cmp.w      D0, D7
00001B08  6758                     beq        +0x5A /* 00001B62 */
00001B0A  7016                     moveq.l    D0, 0x16
00001B0C  B02D D46A                cmp.b      D0, [A5 - 0x2B96]
00001B10  57C0                     seq        D0
00001B12  7206                     moveq.l    D1, 0x06
00001B14  B22D D46B                cmp.b      D1, [A5 - 0x2B95]
00001B18  57C1                     seq        D1
00001B1A  C001                     and.b      D0, D1
00001B1C  6706                     beq        +0x8 /* 00001B24 */
00001B1E  4EAD 08E2                jsr        [A5 + 0x8E2 /* export_280, CODE:8 @ 000000E0 */]
00001B22  6006                     bra        +0x8 /* 00001B2A */
label00001B24:
00001B24  4EAD 0B52                jsr        [A5 + 0xB52 /* export_358, CODE:8 @ 00003D5A */]
00001B28  6044                     bra        +0x46 /* 00001B6E */
label00001B2A:
00001B2A  3A2D CF6A                move.w     D5, [A5 - 0x3096]
00001B2E  3B7C 0064 CF6A           move.w     [A5 - 0x3096], 0x64 /* 'd' */
00001B34  4267                     clr.w      -[A7]
00001B36  3F07                     move.w     -[A7], D7
00001B38  4EAD 090A                jsr        [A5 + 0x90A /* export_285, CODE:8 @ 000002B2 */]
00001B3C  101F                     move.b     D0, [A7]+
00001B3E  661E                     bne        +0x20 /* 00001B5E */
00001B40  4EAD 0B52                jsr        [A5 + 0xB52 /* export_358, CODE:8 @ 00003D5A */]
00001B44  486E FEF2                pea.l      [A6 - 0x10E]
00001B48  3F3C 0040                move.w     -[A7], 0x40 /* '@' */
00001B4C  4EAD 09E2                jsr        [A5 + 0x9E2 /* export_312, CODE:8 @ 00000FF0 */]
00001B50  2F2E FFFA                move.l     -[A7], [A6 - 0x6]
00001B54  4EAD 0912                jsr        [A5 + 0x912 /* export_286, CODE:8 @ 0000050C */]
00001B58  4EAD 0B52                jsr        [A5 + 0xB52 /* export_358, CODE:8 @ 00003D5A */]
00001B5C  6010                     bra        +0x12 /* 00001B6E */
label00001B5E:
00001B5E  3B45 CF6A                move.w     [A5 - 0x3096], D5
label00001B62:
00001B62  1D7C 0001 000E           move.b     [A6 + 0xE], 0x1
00001B68  2F0C                     move.l     -[A7], A4
00001B6A  205F                     movea.l    A0, [A7]+
00001B6C  4E90                     jsr        [A0]
label00001B6E:
00001B6E  4CDF 10E0                movem.l    D5,D6,D7,A4, [A7]+
00001B72  4E5E                     unlink     A6
00001B74  205F                     movea.l    A0, [A7]+
00001B76  5C4F                     addq.w     A7, 6
00001B78  4ED0                     jmp        [A0]
fn00001B7A:
00001B7A  4E56 FFFE                link       A6, -0x0002
00001B7E  422E 000E                clr.b      [A6 + 0xE]
00001B82  1D6D B66B FFFF           move.b     [A6 - 0x1], [A5 - 0x4995]
00001B88  422D B66B                clr.b      [A5 - 0x4995]
00001B8C  700C                     moveq.l    D0, 0x0C
00001B8E  B02D D46A                cmp.b      D0, [A5 - 0x2B96]
00001B92  660A                     bne        +0xC /* 00001B9E */
00001B94  1B6D D46B B66B           move.b     [A5 - 0x4995], [A5 - 0x2B95]
00001B9A  4EAD 08E2                jsr        [A5 + 0x8E2 /* export_280, CODE:8 @ 000000E0 */]
label00001B9E:
00001B9E  4267                     clr.w      -[A7]
00001BA0  1F2E 000C                move.b     -[A7], [A6 + 0xC]
00001BA4  2F2E 0008                move.l     -[A7], [A6 + 0x8]
00001BA8  4EBA FEF2                jsr        [PC - 0x10E /* 00001A9C */]
00001BAC  101F                     move.b     D0, [A7]+
00001BAE  6708                     beq        +0xA /* 00001BB8 */
00001BB0  1D7C 0001 000E           move.b     [A6 + 0xE], 0x1
00001BB6  6014                     bra        +0x16 /* 00001BCC */
label00001BB8:
00001BB8  4267                     clr.w      -[A7]
00001BBA  1F2E 000C                move.b     -[A7], [A6 + 0xC]
00001BBE  4EAD 13C2                jsr        [A5 + 0x13C2 /* export_628, CODE:13 @ 000000A8 */]
00001BC2  101F                     move.b     D0, [A7]+
00001BC4  6706                     beq        +0x8 /* 00001BCC */
00001BC6  1D7C 0001 000E           move.b     [A6 + 0xE], 0x1
label00001BCC:
00001BCC  1B6E FFFF B66B           move.b     [A5 - 0x4995], [A6 - 0x1]
00001BD2  4E5E                     unlink     A6
00001BD4  205F                     movea.l    A0, [A7]+
00001BD6  5C4F                     addq.w     A7, 6
00001BD8  4ED0                     jmp        [A0]
fn00001BDA:
00001BDA  4E56 FF00                link       A6, -0x0100
00001BDE  3F3C 0041                move.w     -[A7], 0x41 /* 'A' */
00001BE2  486E FF00                pea.l      [A6 - 0x100]
00001BE6  4EAD 0C92                jsr        [A5 + 0xC92 /* export_398, CODE:8 @ 00004DD8 */]
00001BEA  4EAD 097A                jsr        [A5 + 0x97A /* export_299, CODE:8 @ 00000AB2 */]
00001BEE  4E5E                     unlink     A6
00001BF0  2E9F                     move.l     [A7], [A7]+
00001BF2  4E75                     rts
fn00001BF4:
00001BF4  4E56 FFD6                link       A6, -0x002A
00001BF8  7004                     moveq.l    D0, 0x04
00001BFA  B02D D46A                cmp.b      D0, [A5 - 0x2B96]
00001BFE  6700 014C                beq        +0x14E /* 00001D4C */
00001C02  1D7C 0001 000C           move.b     [A6 + 0xC], 0x1
00001C08  7007                     moveq.l    D0, 0x07
00001C0A  B02D D46A                cmp.b      D0, [A5 - 0x2B96]
00001C0E  6608                     bne        +0xA /* 00001C18 */
00001C10  4EAD 0B4A                jsr        [A5 + 0xB4A /* export_357, CODE:8 @ 00003D42 */]
00001C14  6000 013A                bra        +0x13C /* 00001D50 */
label00001C18:
00001C18  7008                     moveq.l    D0, 0x08
00001C1A  B02D D46A                cmp.b      D0, [A5 - 0x2B96]
00001C1E  661E                     bne        +0x20 /* 00001C3E */
00001C20  102D D46B                move.b     D0, [A5 - 0x2B95]
00001C24  4880                     ext.w      D0
00001C26  5340                     subq.w     D0, 1
00001C28  41ED D188                lea.l      A0, [A5 - 0x2E78]
00001C2C  EB40                     asl        D0.w, 5
00001C2E  4870 0000                pea.l      [A0 + D0.w]
00001C32  4EAD 0B2A                jsr        [A5 + 0xB2A /* export_353, CODE:8 @ 00003ACC */]
00001C36  4EAD 08E2                jsr        [A5 + 0x8E2 /* export_280, CODE:8 @ 000000E0 */]
00001C3A  6000 0114                bra        +0x116 /* 00001D50 */
label00001C3E:
00001C3E  7009                     moveq.l    D0, 0x09
00001C40  B02D D46A                cmp.b      D0, [A5 - 0x2B96]
00001C44  57C0                     seq        D0
00001C46  4A00                     tst.b      D0
00001C48  671C                     beq        +0x1E /* 00001C66 */
00001C4A  720A                     moveq.l    D1, 0x0A
00001C4C  B22D D46B                cmp.b      D1, [A5 - 0x2B95]
00001C50  57C1                     seq        D1
00001C52  C001                     and.b      D0, D1
00001C54  6710                     beq        +0x12 /* 00001C66 */
00001C56  486D A4D6                pea.l      [A5 - 0x5B2A]
00001C5A  4EAD 0B2A                jsr        [A5 + 0xB2A /* export_353, CODE:8 @ 00003ACC */]
00001C5E  4EAD 08E2                jsr        [A5 + 0x8E2 /* export_280, CODE:8 @ 000000E0 */]
00001C62  6000 00EC                bra        +0xEE /* 00001D50 */
label00001C66:
00001C66  7016                     moveq.l    D0, 0x16
00001C68  B02D D46A                cmp.b      D0, [A5 - 0x2B96]
00001C6C  57C0                     seq        D0
00001C6E  720C                     moveq.l    D1, 0x0C
00001C70  B22D D46B                cmp.b      D1, [A5 - 0x2B95]
00001C74  57C1                     seq        D1
00001C76  C001                     and.b      D0, D1
00001C78  672E                     beq        +0x30 /* 00001CA8 */
00001C7A  486E FFD6                pea.l      [A6 - 0x2A]
00001C7E  4EAD 0B7A                jsr        [A5 + 0xB7A /* export_363, CODE:8 @ 00003E7E */]
00001C82  4EAD 08E2                jsr        [A5 + 0x8E2 /* export_280, CODE:8 @ 000000E0 */]
00001C86  4267                     clr.w      -[A7]
00001C88  1F3C 0001                move.b     -[A7], 0x1
00001C8C  2F0E                     move.l     -[A7], A6
00001C8E  4EBA FEEA                jsr        [PC - 0x116 /* 00001B7A */]
00001C92  101F                     move.b     D0, [A7]+
00001C94  6600 00BA                bne        +0xBC /* 00001D50 */
00001C98  102D AAE3                move.b     D0, [A5 - 0x551D]
00001C9C  6600 00AE                bne        +0xB0 /* 00001D4C */
00001CA0  486E FFD6                pea.l      [A6 - 0x2A]
00001CA4  4EAD 0B62                jsr        [A5 + 0xB62 /* export_360, CODE:8 @ 00003DBE */]
label00001CA8:
00001CA8  4267                     clr.w      -[A7]
00001CAA  206D D450                movea.l    A0, [A5 - 0x2BB0]
00001CAE  2050                     movea.l    A0, [A0]
00001CB0  3F28 01A6                move.w     -[A7], [A0 + 0x1A6]
00001CB4  4EAD 090A                jsr        [A5 + 0x90A /* export_285, CODE:8 @ 000002B2 */]
00001CB8  101F                     move.b     D0, [A7]+
00001CBA  670E                     beq        +0x10 /* 00001CCA */
00001CBC  2F00                     move.l     -[A7], D0
00001CBE  4267                     clr.w      -[A7]
00001CC0  4EAD 0E42                jsr        [A5 + 0xE42 /* export_452, CODE:9 @ 000010F8 */]
00001CC4  121F                     move.b     D1, [A7]+
00001CC6  201F                     move.l     D0, [A7]+
00001CC8  C001                     and.b      D0, D1
label00001CCA:
00001CCA  1B40 A4F7                move.b     [A5 - 0x5B09], D0
00001CCE  671A                     beq        +0x1C /* 00001CEA */
00001CD0  486D A3CE                pea.l      [A5 - 0x5C32]
00001CD4  7054                     moveq.l    D0, 0x54
00001CD6  2F00                     move.l     -[A7], D0
00001CD8  1F3C 0007                move.b     -[A7], 0x7
00001CDC  4EAD 146A                jsr        [A5 + 0x146A /* export_649, CODE:13 @ 00001620 */]
00001CE0  486D A3CE                pea.l      [A5 - 0x5C32]
00001CE4  4EAD 0AE2                jsr        [A5 + 0xAE2 /* export_344, CODE:8 @ 0000397E */]
00001CE8  6066                     bra        +0x68 /* 00001D50 */
label00001CEA:
00001CEA  42A7                     clr.l      -[A7]
00001CEC  2F0E                     move.l     -[A7], A6
00001CEE  4EBA FE8A                jsr        [PC - 0x176 /* 00001B7A */]
00001CF2  101F                     move.b     D0, [A7]+
00001CF4  665A                     bne        +0x5C /* 00001D50 */
00001CF6  486E FFD6                pea.l      [A6 - 0x2A]
00001CFA  4EAD 0B7A                jsr        [A5 + 0xB7A /* export_363, CODE:8 @ 00003E7E */]
00001CFE  4267                     clr.w      -[A7]
00001D00  4EAD 0D22                jsr        [A5 + 0xD22 /* export_416, CODE:9 @ 0000032C */]
00001D04  101F                     move.b     D0, [A7]+
00001D06  6730                     beq        +0x32 /* 00001D38 */
00001D08  486E FFDE                pea.l      [A6 - 0x22]
00001D0C  7022                     moveq.l    D0, 0x22
00001D0E  2F00                     move.l     -[A7], D0
00001D10  1F3C 0004                move.b     -[A7], 0x4
00001D14  4EAD 146A                jsr        [A5 + 0x146A /* export_649, CODE:13 @ 00001620 */]
00001D18  2F3C 0064 0000           move.l     -[A7], 0x640000 /* 'd\0\0' */
00001D1E  4EAD 0B6A                jsr        [A5 + 0xB6A /* export_361, CODE:8 @ 00003E00 */]
00001D22  101F                     move.b     D0, [A7]+
00001D24  6608                     bne        +0xA /* 00001D2E */
00001D26  2F0E                     move.l     -[A7], A6
00001D28  4EBA FEB0                jsr        [PC - 0x150 /* 00001BDA */]
00001D2C  601E                     bra        +0x20 /* 00001D4C */
label00001D2E:
00001D2E  486E FFDE                pea.l      [A6 - 0x22]
00001D32  4EAD 09F2                jsr        [A5 + 0x9F2 /* export_314, CODE:8 @ 000011A2 */]
00001D36  6018                     bra        +0x1A /* 00001D50 */
label00001D38:
00001D38  486E FFD6                pea.l      [A6 - 0x2A]
00001D3C  4EAD 0B62                jsr        [A5 + 0xB62 /* export_360, CODE:8 @ 00003DBE */]
00001D40  4267                     clr.w      -[A7]
00001D42  2F0E                     move.l     -[A7], A6
00001D44  4EBA FCCA                jsr        [PC - 0x336 /* 00001A10 */]
00001D48  101F                     move.b     D0, [A7]+
00001D4A  6604                     bne        +0x6 /* 00001D50 */
label00001D4C:
00001D4C  422E 000C                clr.b      [A6 + 0xC]
label00001D50:
00001D50  4E5E                     unlink     A6
00001D52  2E9F                     move.l     [A7], [A7]+
00001D54  4E75                     rts
fn00001D56:
00001D56  4E56 FF00                link       A6, -0x0100
00001D5A  486E FF00                pea.l      [A6 - 0x100]
00001D5E  4EAD 0C92                jsr        [A5 + 0xC92 /* export_398, CODE:8 @ 00004DD8 */]
00001D62  205F                     movea.l    A0, [A7]+
00001D64  4240                     clr.w      D0
00001D66  1010                     move.b     D0, [A0]
00001D68  4A40                     tst.w      D0
00001D6A  6712                     beq        +0x14 /* 00001D7E */
00001D6C  3F3C 0032                move.w     -[A7], 0x32 /* '2' */
00001D70  486E FF00                pea.l      [A6 - 0x100]
00001D74  4EAD 0C92                jsr        [A5 + 0xC92 /* export_398, CODE:8 @ 00004DD8 */]
00001D78  4EAD 097A                jsr        [A5 + 0x97A /* export_299, CODE:8 @ 00000AB2 */]
00001D7C  6008                     bra        +0xA /* 00001D86 */
label00001D7E:
00001D7E  3F3C 0033                move.w     -[A7], 0x33 /* '3' */
00001D82  4EAD 098A                jsr        [A5 + 0x98A /* export_301, CODE:8 @ 00000B58 */]
label00001D86:
00001D86  4E5E                     unlink     A6
00001D88  2E9F                     move.l     [A7], [A7]+
00001D8A  4E75                     rts
export_559:
fn00001D8C:
00001D8C  4E56 FFF8                link       A6, -0x0008
00001D90  48E7 0308                movem.l    -[A7], D6,D7,A4
00001D94  422E 000A                clr.b      [A6 + 0xA]
00001D98  102D D46A                move.b     D0, [A5 - 0x2B96]
00001D9C  4880                     ext.w      D0
00001D9E  5540                     subq.w     D0, 2
00001DA0  6700 00B0                beq        +0xB2 /* 00001E52 */
00001DA4  5740                     subq.w     D0, 3
00001DA6  6708                     beq        +0xA /* 00001DB0 */
00001DA8  5340                     subq.w     D0, 1
00001DAA  6756                     beq        +0x58 /* 00001E02 */
00001DAC  6000 00A8                bra        +0xAA /* 00001E56 */
label00001DB0:
00001DB0  7011                     moveq.l    D0, 0x11
00001DB2  B02D D46B                cmp.b      D0, [A5 - 0x2B95]
00001DB6  6600 0246                bne        +0x248 /* 00001FFE */
00001DBA  4EAD 08E2                jsr        [A5 + 0x8E2 /* export_280, CODE:8 @ 000000E0 */]
00001DBE  2F3C 0064 0000           move.l     -[A7], 0x640000 /* 'd\0\0' */
00001DC4  4EBA FFC6                jsr        [PC - 0x3A /* 00001D8C */]
00001DC8  101F                     move.b     D0, [A7]+
00001DCA  6726                     beq        +0x28 /* 00001DF2 */
00001DCC  4267                     clr.w      -[A7]
00001DCE  4EBA EFB0                jsr        [PC - 0x1050 /* 00000D80 */]
00001DD2  101F                     move.b     D0, [A7]+
00001DD4  6706                     beq        +0x8 /* 00001DDC */
00001DD6  4EAD 0A72                jsr        [A5 + 0xA72 /* export_330, CODE:8 @ 00003058 */]
00001DDA  6022                     bra        +0x24 /* 00001DFE */
label00001DDC:
00001DDC  486D A4F8                pea.l      [A5 - 0x5B08]
00001DE0  4EAD 1482                jsr        [A5 + 0x1482 /* export_652, CODE:13 @ 00001714 */]
00001DE4  3F3C 0034                move.w     -[A7], 0x34 /* '4' */
00001DE8  486D A4F8                pea.l      [A5 - 0x5B08]
00001DEC  4EAD 097A                jsr        [A5 + 0x97A /* export_299, CODE:8 @ 00000AB2 */]
00001DF0  600C                     bra        +0xE /* 00001DFE */
label00001DF2:
00001DF2  3F3C 0035                move.w     -[A7], 0x35 /* '5' */
00001DF6  487A 0218                pea.l      [PC + 0x218 /* 00002010, value 0x12D4E56 */]
00001DFA  4EAD 097A                jsr        [A5 + 0x97A /* export_299, CODE:8 @ 00000AB2 */]
label00001DFE:
00001DFE  6000 00C4                bra        +0xC6 /* 00001EC4 */
label00001E02:
00001E02  7007                     moveq.l    D0, 0x07
00001E04  B02D D46B                cmp.b      D0, [A5 - 0x2B95]
00001E08  6600 01F4                bne        +0x1F6 /* 00001FFE */
00001E0C  4EAD 08E2                jsr        [A5 + 0x8E2 /* export_280, CODE:8 @ 000000E0 */]
00001E10  42A7                     clr.l      -[A7]
00001E12  4EBA FF78                jsr        [PC - 0x88 /* 00001D8C */]
00001E16  101F                     move.b     D0, [A7]+
00001E18  672A                     beq        +0x2C /* 00001E44 */
00001E1A  7006                     moveq.l    D0, 0x06
00001E1C  B02D D46A                cmp.b      D0, [A5 - 0x2B96]
00001E20  57C0                     seq        D0
00001E22  4A00                     tst.b      D0
00001E24  6712                     beq        +0x14 /* 00001E38 */
00001E26  720A                     moveq.l    D1, 0x0A
00001E28  B22D D46B                cmp.b      D1, [A5 - 0x2B95]
00001E2C  57C1                     seq        D1
00001E2E  C001                     and.b      D0, D1
00001E30  6706                     beq        +0x8 /* 00001E38 */
00001E32  4EAD 08E2                jsr        [A5 + 0x8E2 /* export_280, CODE:8 @ 000000E0 */]
00001E36  6018                     bra        +0x1A /* 00001E50 */
label00001E38:
00001E38  4EAD 1432                jsr        [A5 + 0x1432 /* export_642, CODE:13 @ 000010F2 */]
00001E3C  2F0E                     move.l     -[A7], A6
00001E3E  4EBA FF16                jsr        [PC - 0xEA /* 00001D56 */]
00001E42  600C                     bra        +0xE /* 00001E50 */
label00001E44:
00001E44  3F3C 0035                move.w     -[A7], 0x35 /* '5' */
00001E48  487A 01C4                pea.l      [PC + 0x1C4 /* 0000200E, value 0x128012D */]
00001E4C  4EAD 097A                jsr        [A5 + 0x97A /* export_299, CODE:8 @ 00000AB2 */]
label00001E50:
00001E50  6072                     bra        +0x74 /* 00001EC4 */
label00001E52:
00001E52  6000 01AA                bra        +0x1AC /* 00001FFE */
label00001E56:
00001E56  7016                     moveq.l    D0, 0x16
00001E58  B02D D46A                cmp.b      D0, [A5 - 0x2B96]
00001E5C  57C0                     seq        D0
00001E5E  4A00                     tst.b      D0
00001E60  6752                     beq        +0x54 /* 00001EB4 */
00001E62  7209                     moveq.l    D1, 0x09
00001E64  B22D D46B                cmp.b      D1, [A5 - 0x2B95]
00001E68  57C1                     seq        D1
00001E6A  C001                     and.b      D0, D1
00001E6C  6746                     beq        +0x48 /* 00001EB4 */
00001E6E  4EAD 08E2                jsr        [A5 + 0x8E2 /* export_280, CODE:8 @ 000000E0 */]
00001E72  2F3C 0064 0000           move.l     -[A7], 0x640000 /* 'd\0\0' */
00001E78  4EBA FF12                jsr        [PC - 0xEE /* 00001D8C */]
00001E7C  101F                     move.b     D0, [A7]+
00001E7E  6726                     beq        +0x28 /* 00001EA6 */
00001E80  4267                     clr.w      -[A7]
00001E82  4EBA F196                jsr        [PC - 0xE6A /* 0000101A */]
00001E86  101F                     move.b     D0, [A7]+
00001E88  6706                     beq        +0x8 /* 00001E90 */
00001E8A  4EAD 0A7A                jsr        [A5 + 0xA7A /* export_331, CODE:8 @ 000030AC */]
00001E8E  6034                     bra        +0x36 /* 00001EC4 */
label00001E90:
00001E90  486D A4F8                pea.l      [A5 - 0x5B08]
00001E94  4EAD 1482                jsr        [A5 + 0x1482 /* export_652, CODE:13 @ 00001714 */]
00001E98  3F3C 0037                move.w     -[A7], 0x37 /* '7' */
00001E9C  486D A4F8                pea.l      [A5 - 0x5B08]
00001EA0  4EAD 097A                jsr        [A5 + 0x97A /* export_299, CODE:8 @ 00000AB2 */]
00001EA4  601E                     bra        +0x20 /* 00001EC4 */
label00001EA6:
00001EA6  3F3C 0035                move.w     -[A7], 0x35 /* '5' */
00001EAA  487A 015E                pea.l      [PC + 0x15E /* 0000200A, value 0x36E6F74, pstring "not" */]
00001EAE  4EAD 097A                jsr        [A5 + 0x97A /* export_299, CODE:8 @ 00000AB2 */]
00001EB2  6010                     bra        +0x12 /* 00001EC4 */
label00001EB4:
00001EB4  4267                     clr.w      -[A7]
00001EB6  2F0E                     move.l     -[A7], A6
00001EB8  4EBA FD3A                jsr        [PC - 0x2C6 /* 00001BF4 */]
00001EBC  101F                     move.b     D0, [A7]+
00001EBE  6604                     bne        +0x6 /* 00001EC4 */
00001EC0  6000 013C                bra        +0x13E /* 00001FFE */
label00001EC4:
00001EC4  102D AAE3                move.b     D0, [A5 - 0x551D]
00001EC8  6600 0134                bne        +0x136 /* 00001FFE */
label00001ECC:
00001ECC  7005                     moveq.l    D0, 0x05
00001ECE  B02D D46A                cmp.b      D0, [A5 - 0x2B96]
00001ED2  6600 0124                bne        +0x126 /* 00001FF8 */
00001ED6  102D D46B                move.b     D0, [A5 - 0x2B95]
00001EDA  4880                     ext.w      D0
00001EDC  3E00                     move.w     D7, D0
00001EDE  2007                     move.l     D0, D7
00001EE0  5340                     subq.w     D0, 1
00001EE2  41ED BCEC                lea.l      A0, [A5 - 0x4314]
00001EE6  1230 0000                move.b     D1, [A0 + D0.w]
00001EEA  4881                     ext.w      D1
00001EEC  B26E 0008                cmp.w      D1, [A6 + 0x8]
00001EF0  6F00 0106                ble        +0x108 /* 00001FF8 */
00001EF4  4EAD 08E2                jsr        [A5 + 0x8E2 /* export_280, CODE:8 @ 000000E0 */]
00001EF8  2007                     move.l     D0, D7
00001EFA  5340                     subq.w     D0, 1
00001EFC  41ED BCEC                lea.l      A0, [A5 - 0x4314]
00001F00  1230 0000                move.b     D1, [A0 + D0.w]
00001F04  4881                     ext.w      D1
00001F06  3C01                     move.w     D6, D1
00001F08  7008                     moveq.l    D0, 0x08
00001F0A  B047                     cmp.w      D0, D7
00001F0C  6602                     bne        +0x4 /* 00001F10 */
00001F0E  5346                     subq.w     D6, 1
label00001F10:
00001F10  3007                     move.w     D0, D7
00001F12  5340                     subq.w     D0, 1
00001F14  41ED BC94                lea.l      A0, [A5 - 0x436C]
00001F18  E540                     asl        D0.w, 2
00001F1A  2870 0000                movea.l    A4, [A0 + D0.w]
00001F1E  200C                     move.l     D0, A4
00001F20  56C0                     sne        D0
00001F22  4A00                     tst.b      D0
00001F24  6714                     beq        +0x16 /* 00001F3A */
00001F26  2F00                     move.l     -[A7], D0
00001F28  4267                     clr.w      -[A7]
00001F2A  2F0C                     move.l     -[A7], A4
00001F2C  205F                     movea.l    A0, [A7]+
00001F2E  4E90                     jsr        [A0]
00001F30  121F                     move.b     D1, [A7]+
00001F32  201F                     move.l     D0, [A7]+
00001F34  0A01 0001                xori.b     D1, 0x1
00001F38  C001                     and.b      D0, D1
label00001F3A:
00001F3A  1B40 A4F7                move.b     [A5 - 0x5B09], D0
00001F3E  6726                     beq        +0x28 /* 00001F66 */
00001F40  486D A4F8                pea.l      [A5 - 0x5B08]
00001F44  4EAD 1482                jsr        [A5 + 0x1482 /* export_652, CODE:13 @ 00001714 */]
00001F48  3F3C 0039                move.w     -[A7], 0x39 /* '9' */
00001F4C  486D A4F8                pea.l      [A5 - 0x5B08]
00001F50  3007                     move.w     D0, D7
00001F52  5340                     subq.w     D0, 1
00001F54  41ED B97A                lea.l      A0, [A5 - 0x4686]
00001F58  EB40                     asl        D0.w, 5
00001F5A  4870 0000                pea.l      [A0 + D0.w]
00001F5E  4EAD 0982                jsr        [A5 + 0x982 /* export_300, CODE:8 @ 00000AFC */]
00001F62  6000 009A                bra        +0x9C /* 00001FFE */
label00001F66:
00001F66  4267                     clr.w      -[A7]
00001F68  3F06                     move.w     -[A7], D6
00001F6A  4EBA FE20                jsr        [PC - 0x1E0 /* 00001D8C */]
00001F6E  101F                     move.b     D0, [A7]+
00001F70  661C                     bne        +0x1E /* 00001F8E */
00001F72  3F3C 0035                move.w     -[A7], 0x35 /* '5' */
00001F76  3007                     move.w     D0, D7
00001F78  5340                     subq.w     D0, 1
00001F7A  41ED B97A                lea.l      A0, [A5 - 0x4686]
00001F7E  EB40                     asl        D0.w, 5
00001F80  4870 0000                pea.l      [A0 + D0.w]
00001F84  4EAD 097A                jsr        [A5 + 0x97A /* export_299, CODE:8 @ 00000AB2 */]
00001F88  4EAD 1432                jsr        [A5 + 0x1432 /* export_642, CODE:13 @ 000010F2 */]
00001F8C  6070                     bra        +0x72 /* 00001FFE */
label00001F8E:
00001F8E  200C                     move.l     D0, A4
00001F90  56C0                     sne        D0
00001F92  4A00                     tst.b      D0
00001F94  6714                     beq        +0x16 /* 00001FAA */
00001F96  2F00                     move.l     -[A7], D0
00001F98  4267                     clr.w      -[A7]
00001F9A  2F0C                     move.l     -[A7], A4
00001F9C  205F                     movea.l    A0, [A7]+
00001F9E  4E90                     jsr        [A0]
00001FA0  121F                     move.b     D1, [A7]+
00001FA2  201F                     move.l     D0, [A7]+
00001FA4  0A01 0001                xori.b     D1, 0x1
00001FA8  C001                     and.b      D0, D1
label00001FAA:
00001FAA  1B40 A4F7                move.b     [A5 - 0x5B09], D0
00001FAE  6728                     beq        +0x2A /* 00001FD8 */
00001FB0  486D A4F8                pea.l      [A5 - 0x5B08]
00001FB4  4EAD 1482                jsr        [A5 + 0x1482 /* export_652, CODE:13 @ 00001714 */]
00001FB8  3F3C 0039                move.w     -[A7], 0x39 /* '9' */
00001FBC  486D A4F8                pea.l      [A5 - 0x5B08]
00001FC0  3007                     move.w     D0, D7
00001FC2  5340                     subq.w     D0, 1
00001FC4  41ED B97A                lea.l      A0, [A5 - 0x4686]
00001FC8  EB40                     asl        D0.w, 5
00001FCA  4870 0000                pea.l      [A0 + D0.w]
00001FCE  4EAD 0982                jsr        [A5 + 0x982 /* export_300, CODE:8 @ 00000AFC */]
00001FD2  4EAD 1432                jsr        [A5 + 0x1432 /* export_642, CODE:13 @ 000010F2 */]
00001FD6  6026                     bra        +0x28 /* 00001FFE */
label00001FD8:
00001FD8  3B47 BC3A                move.w     [A5 - 0x43C6], D7
00001FDC  3007                     move.w     D0, D7
00001FDE  5340                     subq.w     D0, 1
00001FE0  41ED BC3C                lea.l      A0, [A5 - 0x43C4]
00001FE4  E540                     asl        D0.w, 2
00001FE6  2F30 0000                move.l     -[A7], [A0 + D0.w]
00001FEA  205F                     movea.l    A0, [A7]+
00001FEC  4E90                     jsr        [A0]
00001FEE  102D AAE3                move.b     D0, [A5 - 0x551D]
00001FF2  660A                     bne        +0xC /* 00001FFE */
00001FF4  6000 FED6                bra        -0x128 /* 00001ECC */
label00001FF8:
00001FF8  1D7C 0001 000A           move.b     [A6 + 0xA], 0x1
label00001FFE:
00001FFE  4CDF 10C0                movem.l    D6,D7,A4, [A7]+
00002002  4E5E                     unlink     A6
00002004  205F                     movea.l    A0, [A7]+
00002006  544F                     addq.w     A7, 2
00002008  4ED0                     jmp        [A0]
0000200A  036E 6F74                bchg       [A6 + 0x6F74], D1
0000200E  0128 012D                btst       [A0 + 0x12D], D0
export_560:
00002012  4E56 FFE6                link       A6, -0x001A
00002016  2D6D D470 FFE6           move.l     [A6 - 0x1A], [A5 - 0x2B90]
0000201C  2F2D B66C                move.l     -[A7], [A5 - 0x4994]
00002020  4EAD 0222                jsr        [A5 + 0x222 /* export_64, CODE:1 @ 00004678 */]
00002024  42A7                     clr.l      -[A7]
00002026  4267                     clr.w      -[A7]
00002028  4EAD 08F2                jsr        [A5 + 0x8F2 /* export_282, CODE:8 @ 0000017A */]
0000202C  302D B978                move.w     D0, [A5 - 0x4688]
00002030  5340                     subq.w     D0, 1
00002032  41ED B6F8                lea.l      A0, [A5 - 0x4908]
00002036  E540                     asl        D0.w, 2
00002038  2F30 0000                move.l     -[A7], [A0 + D0.w]
0000203C  486E FFEA                pea.l      [A6 - 0x16]
00002040  4EAD 0ABA                jsr        [A5 + 0xABA /* export_339, CODE:8 @ 00003676 */]
00002044  2F2D B66C                move.l     -[A7], [A5 - 0x4994]
00002048  4EAD 022A                jsr        [A5 + 0x22A /* export_65, CODE:1 @ 00004682 */]
0000204C  4EAD 1432                jsr        [A5 + 0x1432 /* export_642, CODE:13 @ 000010F2 */]
00002050  486E FFEA                pea.l      [A6 - 0x16]
00002054  1F3C 0001                move.b     -[A7], 0x1
00002058  4EAD 0BCA                jsr        [A5 + 0xBCA /* export_373, CODE:8 @ 00004222 */]
0000205C  42A7                     clr.l      -[A7]
0000205E  4EAD 0B72                jsr        [A5 + 0xB72 /* export_362, CODE:8 @ 00003E34 */]
00002062  1D5F 0008                move.b     [A6 + 0x8], [A7]+
00002066  486E FFEA                pea.l      [A6 - 0x16]
0000206A  4EAD 09D2                jsr        [A5 + 0x9D2 /* export_310, CODE:8 @ 00000E62 */]
0000206E  2F2E FFE6                move.l     -[A7], [A6 - 0x1A]
00002072  4267                     clr.w      -[A7]
00002074  4EAD 0BCA                jsr        [A5 + 0xBCA /* export_373, CODE:8 @ 00004222 */]
00002078  4E5E                     unlink     A6
0000207A  4E75                     rts
