# near model CODE resource
# jump table entries: 6976-7030 (55 of them)
export_872:
00000000  4E56 0000                link       A6, 0
00000004  48E7 0030                movem.l    -[A7], A2,A3
00000008  206E 0016                movea.l    A0, [A6 + 0x16]
0000000C  226E 0012                movea.l    A1, [A6 + 0x12]
00000010  246E 000E                movea.l    A2, [A6 + 0xE]
00000014  47FA 0098                lea.l      A3, [PC + 0x98 /* 000000AE, value 0xD0C2D2C2 */]
00000018  302E 000A                move.w     D0, [A6 + 0xA]
0000001C  E748                     lsl        D0.w, 3
0000001E  96C0                     sub.w      A3, D0
00000020  342E 0008                move.w     D2, [A6 + 0x8]
00000024  322E 000C                move.w     D1, [A6 + 0xC]
00000028  6000 008A                bra        +0x8C /* 000000B4 */
label0000002C:
0000002C  4ED3                     jmp        [A3]
0000002E  2019                     move.l     D0, [A1]+
00000030  4680                     not.l      D0
00000032  C098                     and.l      D0, [A0]+
00000034  24C0                     move.l     [A2]+, D0
00000036  2019                     move.l     D0, [A1]+
00000038  4680                     not.l      D0
0000003A  C098                     and.l      D0, [A0]+
0000003C  24C0                     move.l     [A2]+, D0
0000003E  2019                     move.l     D0, [A1]+
00000040  4680                     not.l      D0
00000042  C098                     and.l      D0, [A0]+
00000044  24C0                     move.l     [A2]+, D0
00000046  2019                     move.l     D0, [A1]+
00000048  4680                     not.l      D0
0000004A  C098                     and.l      D0, [A0]+
0000004C  24C0                     move.l     [A2]+, D0
0000004E  2019                     move.l     D0, [A1]+
00000050  4680                     not.l      D0
00000052  C098                     and.l      D0, [A0]+
00000054  24C0                     move.l     [A2]+, D0
00000056  2019                     move.l     D0, [A1]+
00000058  4680                     not.l      D0
0000005A  C098                     and.l      D0, [A0]+
0000005C  24C0                     move.l     [A2]+, D0
0000005E  2019                     move.l     D0, [A1]+
00000060  4680                     not.l      D0
00000062  C098                     and.l      D0, [A0]+
00000064  24C0                     move.l     [A2]+, D0
00000066  2019                     move.l     D0, [A1]+
00000068  4680                     not.l      D0
0000006A  C098                     and.l      D0, [A0]+
0000006C  24C0                     move.l     [A2]+, D0
0000006E  2019                     move.l     D0, [A1]+
00000070  4680                     not.l      D0
00000072  C098                     and.l      D0, [A0]+
00000074  24C0                     move.l     [A2]+, D0
00000076  2019                     move.l     D0, [A1]+
00000078  4680                     not.l      D0
0000007A  C098                     and.l      D0, [A0]+
0000007C  24C0                     move.l     [A2]+, D0
0000007E  2019                     move.l     D0, [A1]+
00000080  4680                     not.l      D0
00000082  C098                     and.l      D0, [A0]+
00000084  24C0                     move.l     [A2]+, D0
00000086  2019                     move.l     D0, [A1]+
00000088  4680                     not.l      D0
0000008A  C098                     and.l      D0, [A0]+
0000008C  24C0                     move.l     [A2]+, D0
0000008E  2019                     move.l     D0, [A1]+
00000090  4680                     not.l      D0
00000092  C098                     and.l      D0, [A0]+
00000094  24C0                     move.l     [A2]+, D0
00000096  2019                     move.l     D0, [A1]+
00000098  4680                     not.l      D0
0000009A  C098                     and.l      D0, [A0]+
0000009C  24C0                     move.l     [A2]+, D0
0000009E  2019                     move.l     D0, [A1]+
000000A0  4680                     not.l      D0
000000A2  C098                     and.l      D0, [A0]+
000000A4  24C0                     move.l     [A2]+, D0
000000A6  2019                     move.l     D0, [A1]+
000000A8  4680                     not.l      D0
000000AA  C098                     and.l      D0, [A0]+
000000AC  24C0                     move.l     [A2]+, D0
000000AE  D0C2                     add.w      A0, D2
000000B0  D2C2                     add.w      A1, D2
000000B2  D4C2                     add.w      A2, D2
label000000B4:
000000B4  51C9 FF76                dbf        D1, -0x8C /* 0000002C */
000000B8  4CDF 0C00                movem.l    A2,A3, [A7]+
000000BC  4E5E                     unlink     A6
000000BE  205F                     movea.l    A0, [A7]+
000000C0  DEFC 0012                add.w      A7, 0x12
000000C4  4ED0                     jmp        [A0]
export_873:
000000C6  4E56 0000                link       A6, 0
000000CA  48E7 0038                movem.l    -[A7], A2,A3,A4
000000CE  246E 001A                movea.l    A2, [A6 + 0x1A]
000000D2  206E 0016                movea.l    A0, [A6 + 0x16]
000000D6  226E 0012                movea.l    A1, [A6 + 0x12]
000000DA  286E 000E                movea.l    A4, [A6 + 0xE]
000000DE  47FA 0098                lea.l      A3, [PC + 0x98 /* 00000178, value 0xD4C2D0C2 */]
000000E2  302E 000A                move.w     D0, [A6 + 0xA]
000000E6  E748                     lsl        D0.w, 3
000000E8  96C0                     sub.w      A3, D0
000000EA  342E 0008                move.w     D2, [A6 + 0x8]
000000EE  322E 000C                move.w     D1, [A6 + 0xC]
000000F2  6000 008C                bra        +0x8E /* 00000180 */
label000000F6:
000000F6  4ED3                     jmp        [A3]
000000F8  201A                     move.l     D0, [A2]+
000000FA  C098                     and.l      D0, [A0]+
000000FC  8099                     or.l       D0, [A1]+
000000FE  28C0                     move.l     [A4]+, D0
00000100  201A                     move.l     D0, [A2]+
00000102  C098                     and.l      D0, [A0]+
00000104  8099                     or.l       D0, [A1]+
00000106  28C0                     move.l     [A4]+, D0
00000108  201A                     move.l     D0, [A2]+
0000010A  C098                     and.l      D0, [A0]+
0000010C  8099                     or.l       D0, [A1]+
0000010E  28C0                     move.l     [A4]+, D0
00000110  201A                     move.l     D0, [A2]+
00000112  C098                     and.l      D0, [A0]+
00000114  8099                     or.l       D0, [A1]+
00000116  28C0                     move.l     [A4]+, D0
00000118  201A                     move.l     D0, [A2]+
0000011A  C098                     and.l      D0, [A0]+
0000011C  8099                     or.l       D0, [A1]+
0000011E  28C0                     move.l     [A4]+, D0
00000120  201A                     move.l     D0, [A2]+
00000122  C098                     and.l      D0, [A0]+
00000124  8099                     or.l       D0, [A1]+
00000126  28C0                     move.l     [A4]+, D0
00000128  201A                     move.l     D0, [A2]+
0000012A  C098                     and.l      D0, [A0]+
0000012C  8099                     or.l       D0, [A1]+
0000012E  28C0                     move.l     [A4]+, D0
00000130  201A                     move.l     D0, [A2]+
00000132  C098                     and.l      D0, [A0]+
00000134  8099                     or.l       D0, [A1]+
00000136  28C0                     move.l     [A4]+, D0
00000138  201A                     move.l     D0, [A2]+
0000013A  C098                     and.l      D0, [A0]+
0000013C  8099                     or.l       D0, [A1]+
0000013E  28C0                     move.l     [A4]+, D0
00000140  201A                     move.l     D0, [A2]+
00000142  C098                     and.l      D0, [A0]+
00000144  8099                     or.l       D0, [A1]+
00000146  28C0                     move.l     [A4]+, D0
00000148  201A                     move.l     D0, [A2]+
0000014A  C098                     and.l      D0, [A0]+
0000014C  8099                     or.l       D0, [A1]+
0000014E  28C0                     move.l     [A4]+, D0
00000150  201A                     move.l     D0, [A2]+
00000152  C098                     and.l      D0, [A0]+
00000154  8099                     or.l       D0, [A1]+
00000156  28C0                     move.l     [A4]+, D0
00000158  201A                     move.l     D0, [A2]+
0000015A  C098                     and.l      D0, [A0]+
0000015C  8099                     or.l       D0, [A1]+
0000015E  28C0                     move.l     [A4]+, D0
00000160  201A                     move.l     D0, [A2]+
00000162  C098                     and.l      D0, [A0]+
00000164  8099                     or.l       D0, [A1]+
00000166  28C0                     move.l     [A4]+, D0
00000168  201A                     move.l     D0, [A2]+
0000016A  C098                     and.l      D0, [A0]+
0000016C  8099                     or.l       D0, [A1]+
0000016E  28C0                     move.l     [A4]+, D0
00000170  201A                     move.l     D0, [A2]+
00000172  C098                     and.l      D0, [A0]+
00000174  8099                     or.l       D0, [A1]+
00000176  28C0                     move.l     [A4]+, D0
00000178  D4C2                     add.w      A2, D2
0000017A  D0C2                     add.w      A0, D2
0000017C  D2C2                     add.w      A1, D2
0000017E  D8C2                     add.w      A4, D2
label00000180:
00000180  51C9 FF74                dbf        D1, -0x8E /* 000000F6 */
00000184  4CDF 1C00                movem.l    A2,A3,A4, [A7]+
00000188  4E5E                     unlink     A6
0000018A  205F                     movea.l    A0, [A7]+
0000018C  DEFC 0016                add.w      A7, 0x16
00000190  4ED0                     jmp        [A0]
export_874:
00000192  4E56 0000                link       A6, 0
00000196  48E7 0030                movem.l    -[A7], A2,A3
0000019A  206E 0016                movea.l    A0, [A6 + 0x16]
0000019E  226E 0012                movea.l    A1, [A6 + 0x12]
000001A2  246E 000E                movea.l    A2, [A6 + 0xE]
000001A6  47FA 00BA                lea.l      A3, [PC + 0xBA /* 00000262, value 0xD0C2D2C2 */]
000001AA  302E 000A                move.w     D0, [A6 + 0xA]
000001AE  C0FC 000A                mulu.w     D0, 0xA /* '\n' */
000001B2  96C0                     sub.w      A3, D0
000001B4  342E 0008                move.w     D2, [A6 + 0x8]
000001B8  322E 000C                move.w     D1, [A6 + 0xC]
000001BC  6000 00AA                bra        +0xAC /* 00000268 */
label000001C0:
000001C0  4ED3                     jmp        [A3]
000001C2  2018                     move.l     D0, [A0]+
000001C4  4680                     not.l      D0
000001C6  C092                     and.l      D0, [A2]
000001C8  8099                     or.l       D0, [A1]+
000001CA  24C0                     move.l     [A2]+, D0
000001CC  2018                     move.l     D0, [A0]+
000001CE  4680                     not.l      D0
000001D0  C092                     and.l      D0, [A2]
000001D2  8099                     or.l       D0, [A1]+
000001D4  24C0                     move.l     [A2]+, D0
000001D6  2018                     move.l     D0, [A0]+
000001D8  4680                     not.l      D0
000001DA  C092                     and.l      D0, [A2]
000001DC  8099                     or.l       D0, [A1]+
000001DE  24C0                     move.l     [A2]+, D0
000001E0  2018                     move.l     D0, [A0]+
000001E2  4680                     not.l      D0
000001E4  C092                     and.l      D0, [A2]
000001E6  8099                     or.l       D0, [A1]+
000001E8  24C0                     move.l     [A2]+, D0
000001EA  2018                     move.l     D0, [A0]+
000001EC  4680                     not.l      D0
000001EE  C092                     and.l      D0, [A2]
000001F0  8099                     or.l       D0, [A1]+
000001F2  24C0                     move.l     [A2]+, D0
000001F4  2018                     move.l     D0, [A0]+
000001F6  4680                     not.l      D0
000001F8  C092                     and.l      D0, [A2]
000001FA  8099                     or.l       D0, [A1]+
000001FC  24C0                     move.l     [A2]+, D0
000001FE  2018                     move.l     D0, [A0]+
00000200  4680                     not.l      D0
00000202  C092                     and.l      D0, [A2]
00000204  8099                     or.l       D0, [A1]+
00000206  24C0                     move.l     [A2]+, D0
00000208  2018                     move.l     D0, [A0]+
0000020A  4680                     not.l      D0
0000020C  C092                     and.l      D0, [A2]
0000020E  8099                     or.l       D0, [A1]+
00000210  24C0                     move.l     [A2]+, D0
00000212  2018                     move.l     D0, [A0]+
00000214  4680                     not.l      D0
00000216  C092                     and.l      D0, [A2]
00000218  8099                     or.l       D0, [A1]+
0000021A  24C0                     move.l     [A2]+, D0
0000021C  2018                     move.l     D0, [A0]+
0000021E  4680                     not.l      D0
00000220  C092                     and.l      D0, [A2]
00000222  8099                     or.l       D0, [A1]+
00000224  24C0                     move.l     [A2]+, D0
00000226  2018                     move.l     D0, [A0]+
00000228  4680                     not.l      D0
0000022A  C092                     and.l      D0, [A2]
0000022C  8099                     or.l       D0, [A1]+
0000022E  24C0                     move.l     [A2]+, D0
00000230  2018                     move.l     D0, [A0]+
00000232  4680                     not.l      D0
00000234  C092                     and.l      D0, [A2]
00000236  8099                     or.l       D0, [A1]+
00000238  24C0                     move.l     [A2]+, D0
0000023A  2018                     move.l     D0, [A0]+
0000023C  4680                     not.l      D0
0000023E  C092                     and.l      D0, [A2]
00000240  8099                     or.l       D0, [A1]+
00000242  24C0                     move.l     [A2]+, D0
00000244  2018                     move.l     D0, [A0]+
00000246  4680                     not.l      D0
00000248  C092                     and.l      D0, [A2]
0000024A  8099                     or.l       D0, [A1]+
0000024C  24C0                     move.l     [A2]+, D0
0000024E  2018                     move.l     D0, [A0]+
00000250  4680                     not.l      D0
00000252  C092                     and.l      D0, [A2]
00000254  8099                     or.l       D0, [A1]+
00000256  24C0                     move.l     [A2]+, D0
00000258  2018                     move.l     D0, [A0]+
0000025A  4680                     not.l      D0
0000025C  C092                     and.l      D0, [A2]
0000025E  8099                     or.l       D0, [A1]+
00000260  24C0                     move.l     [A2]+, D0
00000262  D0C2                     add.w      A0, D2
00000264  D2C2                     add.w      A1, D2
00000266  D4C2                     add.w      A2, D2
label00000268:
00000268  51C9 FF56                dbf        D1, -0xAC /* 000001C0 */
0000026C  4CDF 0C00                movem.l    A2,A3, [A7]+
00000270  4E5E                     unlink     A6
00000272  205F                     movea.l    A0, [A7]+
00000274  DEFC 0012                add.w      A7, 0x12
00000278  4ED0                     jmp        [A0]
export_875:
0000027A  4E56 0000                link       A6, 0
0000027E  2F0A                     move.l     -[A7], A2
00000280  206E 0012                movea.l    A0, [A6 + 0x12]
00000284  226E 000E                movea.l    A1, [A6 + 0xE]
00000288  45FA 0056                lea.l      A2, [PC + 0x56 /* 000002E0, value 0xD0C2D2C2 */]
0000028C  302E 000A                move.w     D0, [A6 + 0xA]
00000290  E548                     lsl        D0.w, 2
00000292  94C0                     sub.w      A2, D0
00000294  342E 0008                move.w     D2, [A6 + 0x8]
00000298  322E 000C                move.w     D1, [A6 + 0xC]
0000029C  6046                     bra        +0x48 /* 000002E4 */
label0000029E:
0000029E  4ED2                     jmp        [A2]
000002A0  2018                     move.l     D0, [A0]+
000002A2  C199                     and.l      [A1]+, D0
000002A4  2018                     move.l     D0, [A0]+
000002A6  C199                     and.l      [A1]+, D0
000002A8  2018                     move.l     D0, [A0]+
000002AA  C199                     and.l      [A1]+, D0
000002AC  2018                     move.l     D0, [A0]+
000002AE  C199                     and.l      [A1]+, D0
000002B0  2018                     move.l     D0, [A0]+
000002B2  C199                     and.l      [A1]+, D0
000002B4  2018                     move.l     D0, [A0]+
000002B6  C199                     and.l      [A1]+, D0
000002B8  2018                     move.l     D0, [A0]+
000002BA  C199                     and.l      [A1]+, D0
000002BC  2018                     move.l     D0, [A0]+
000002BE  C199                     and.l      [A1]+, D0
000002C0  2018                     move.l     D0, [A0]+
000002C2  C199                     and.l      [A1]+, D0
000002C4  2018                     move.l     D0, [A0]+
000002C6  C199                     and.l      [A1]+, D0
000002C8  2018                     move.l     D0, [A0]+
000002CA  C199                     and.l      [A1]+, D0
000002CC  2018                     move.l     D0, [A0]+
000002CE  C199                     and.l      [A1]+, D0
000002D0  2018                     move.l     D0, [A0]+
000002D2  C199                     and.l      [A1]+, D0
000002D4  2018                     move.l     D0, [A0]+
000002D6  C199                     and.l      [A1]+, D0
000002D8  2018                     move.l     D0, [A0]+
000002DA  C199                     and.l      [A1]+, D0
000002DC  2018                     move.l     D0, [A0]+
000002DE  C199                     and.l      [A1]+, D0
000002E0  D0C2                     add.w      A0, D2
000002E2  D2C2                     add.w      A1, D2
label000002E4:
000002E4  51C9 FFB8                dbf        D1, -0x4A /* 0000029E */
000002E8  245F                     movea.l    A2, [A7]+
000002EA  4E5E                     unlink     A6
000002EC  205F                     movea.l    A0, [A7]+
000002EE  DEFC 000E                add.w      A7, 0xE
000002F2  4ED0                     jmp        [A0]
export_876:
000002F4  4E56 0000                link       A6, 0
000002F8  2F0A                     move.l     -[A7], A2
000002FA  206E 0012                movea.l    A0, [A6 + 0x12]
000002FE  226E 000E                movea.l    A1, [A6 + 0xE]
00000302  45FA 0078                lea.l      A2, [PC + 0x78 /* 0000037C, value 0xD0C2D2C2 */]
00000306  302E 000A                move.w     D0, [A6 + 0xA]
0000030A  C0FC 0006                mulu.w     D0, 0x6
0000030E  94C0                     sub.w      A2, D0
00000310  342E 0008                move.w     D2, [A6 + 0x8]
00000314  322E 000C                move.w     D1, [A6 + 0xC]
00000318  6066                     bra        +0x68 /* 00000380 */
label0000031A:
0000031A  4ED2                     jmp        [A2]
0000031C  2018                     move.l     D0, [A0]+
0000031E  4680                     not.l      D0
00000320  C199                     and.l      [A1]+, D0
00000322  2018                     move.l     D0, [A0]+
00000324  4680                     not.l      D0
00000326  C199                     and.l      [A1]+, D0
00000328  2018                     move.l     D0, [A0]+
0000032A  4680                     not.l      D0
0000032C  C199                     and.l      [A1]+, D0
0000032E  2018                     move.l     D0, [A0]+
00000330  4680                     not.l      D0
00000332  C199                     and.l      [A1]+, D0
00000334  2018                     move.l     D0, [A0]+
00000336  4680                     not.l      D0
00000338  C199                     and.l      [A1]+, D0
0000033A  2018                     move.l     D0, [A0]+
0000033C  4680                     not.l      D0
0000033E  C199                     and.l      [A1]+, D0
00000340  2018                     move.l     D0, [A0]+
00000342  4680                     not.l      D0
00000344  C199                     and.l      [A1]+, D0
00000346  2018                     move.l     D0, [A0]+
00000348  4680                     not.l      D0
0000034A  C199                     and.l      [A1]+, D0
0000034C  2018                     move.l     D0, [A0]+
0000034E  4680                     not.l      D0
00000350  C199                     and.l      [A1]+, D0
00000352  2018                     move.l     D0, [A0]+
00000354  4680                     not.l      D0
00000356  C199                     and.l      [A1]+, D0
00000358  2018                     move.l     D0, [A0]+
0000035A  4680                     not.l      D0
0000035C  C199                     and.l      [A1]+, D0
0000035E  2018                     move.l     D0, [A0]+
00000360  4680                     not.l      D0
00000362  C199                     and.l      [A1]+, D0
00000364  2018                     move.l     D0, [A0]+
00000366  4680                     not.l      D0
00000368  C199                     and.l      [A1]+, D0
0000036A  2018                     move.l     D0, [A0]+
0000036C  4680                     not.l      D0
0000036E  C199                     and.l      [A1]+, D0
00000370  2018                     move.l     D0, [A0]+
00000372  4680                     not.l      D0
00000374  C199                     and.l      [A1]+, D0
00000376  2018                     move.l     D0, [A0]+
00000378  4680                     not.l      D0
0000037A  C199                     and.l      [A1]+, D0
0000037C  D0C2                     add.w      A0, D2
0000037E  D2C2                     add.w      A1, D2
label00000380:
00000380  51C9 FF98                dbf        D1, -0x6A /* 0000031A */
00000384  245F                     movea.l    A2, [A7]+
00000386  4E5E                     unlink     A6
00000388  205F                     movea.l    A0, [A7]+
0000038A  DEFC 000E                add.w      A7, 0xE
0000038E  4ED0                     jmp        [A0]
export_877:
00000390  4E56 0000                link       A6, 0
00000394  2F0A                     move.l     -[A7], A2
00000396  206E 0012                movea.l    A0, [A6 + 0x12]
0000039A  226E 000E                movea.l    A1, [A6 + 0xE]
0000039E  45FA 0036                lea.l      A2, [PC + 0x36 /* 000003D6, value 0xD0C2D2C2 */]
000003A2  302E 000A                move.w     D0, [A6 + 0xA]
000003A6  D040                     add.w      D0, D0
000003A8  94C0                     sub.w      A2, D0
000003AA  342E 0008                move.w     D2, [A6 + 0x8]
000003AE  322E 000C                move.w     D1, [A6 + 0xC]
000003B2  6026                     bra        +0x28 /* 000003DA */
label000003B4:
000003B4  4ED2                     jmp        [A2]
000003B6  22D8                     move.l     [A1]+, [A0]+
000003B8  22D8                     move.l     [A1]+, [A0]+
000003BA  22D8                     move.l     [A1]+, [A0]+
000003BC  22D8                     move.l     [A1]+, [A0]+
000003BE  22D8                     move.l     [A1]+, [A0]+
000003C0  22D8                     move.l     [A1]+, [A0]+
000003C2  22D8                     move.l     [A1]+, [A0]+
000003C4  22D8                     move.l     [A1]+, [A0]+
000003C6  22D8                     move.l     [A1]+, [A0]+
000003C8  22D8                     move.l     [A1]+, [A0]+
000003CA  22D8                     move.l     [A1]+, [A0]+
000003CC  22D8                     move.l     [A1]+, [A0]+
000003CE  22D8                     move.l     [A1]+, [A0]+
000003D0  22D8                     move.l     [A1]+, [A0]+
000003D2  22D8                     move.l     [A1]+, [A0]+
000003D4  22D8                     move.l     [A1]+, [A0]+
000003D6  D0C2                     add.w      A0, D2
000003D8  D2C2                     add.w      A1, D2
label000003DA:
000003DA  51C9 FFD8                dbf        D1, -0x2A /* 000003B4 */
000003DE  245F                     movea.l    A2, [A7]+
000003E0  4E5E                     unlink     A6
000003E2  205F                     movea.l    A0, [A7]+
000003E4  DEFC 000E                add.w      A7, 0xE
000003E8  4ED0                     jmp        [A0]
export_878:
000003EA  4E56 FFC0                link       A6, -0x0040
000003EE  48E7 1E20                movem.l    -[A7], D3,D4,D5,D6,A2
000003F2  382E 000A                move.w     D4, [A6 + 0xA]
000003F6  3C04                     move.w     D6, D4
000003F8  6F70                     ble        +0x72 /* 0000046A */
000003FA  E54E                     lsl        D6.w, 2
000003FC  3A2E 0008                move.w     D5, [A6 + 0x8]
00000400  DA46                     add.w      D5, D6
00000402  5344                     subq.w     D4, 1
00000404  206E 0014                movea.l    A0, [A6 + 0x14]
00000408  226E 0010                movea.l    A1, [A6 + 0x10]
0000040C  244F                     movea.l    A2, A7
0000040E  362E 000E                move.w     D3, [A6 + 0xE]
00000412  6612                     bne        +0x14 /* 00000426 */
label00000414:
00000414  3404                     move.w     D2, D4
label00000416:
00000416  22D8                     move.l     [A1]+, [A0]+
00000418  51CA FFFC                dbf        D2, -0x6 /* 00000416 */
0000041C  D0EE 0008                add.w      A0, [A6 + 0x8]
00000420  D2EE 0008                add.w      A1, [A6 + 0x8]
00000424  6034                     bra        +0x36 /* 0000045A */
label00000426:
00000426  3404                     move.w     D2, D4
00000428  9040                     sub.w      D0, D0
label0000042A:
0000042A  2018                     move.l     D0, [A0]+
0000042C  C0A8 FFBC                and.l      D0, [A0 - 0x44]
00000430  C0A8 003C                and.l      D0, [A0 + 0x3C]
00000434  2200                     move.l     D1, D0
00000436  E291                     roxr       D1, 1
00000438  C081                     and.l      D0, D1
0000043A  24C0                     move.l     [A2]+, D0
0000043C  51CA FFEC                dbf        D2, -0x16 /* 0000042A */
00000440  D2C6                     add.w      A1, D6
00000442  3404                     move.w     D2, D4
00000444  9040                     sub.w      D0, D0
label00000446:
00000446  2022                     move.l     D0, -[A2]
00000448  E390                     roxl       D0, 1
0000044A  C092                     and.l      D0, [A2]
0000044C  4680                     not.l      D0
0000044E  C0A0                     and.l      D0, -[A0]
00000450  2300                     move.l     -[A1], D0
00000452  51CA FFF2                dbf        D2, -0x10 /* 00000446 */
00000456  D0C5                     add.w      A0, D5
00000458  D2C5                     add.w      A1, D5
label0000045A:
0000045A  5243                     addq.w     D3, 1
0000045C  B66E 000C                cmp.w      D3, [A6 + 0xC]
00000460  6708                     beq        +0xA /* 0000046A */
00000462  0C43 0155                cmpi.w     D3, 0x155
00000466  66BE                     bne        -0x40 /* 00000426 */
00000468  67AA                     beq        -0x54 /* 00000414 */
label0000046A:
0000046A  4CDF 0478                movem.l    D3,D4,D5,D6,A2, [A7]+
0000046E  4E5E                     unlink     A6
00000470  205F                     movea.l    A0, [A7]+
00000472  DEFC 0010                add.w      A7, 0x10
00000476  4ED0                     jmp        [A0]
export_879:
00000478  4E56 0000                link       A6, 0
0000047C  226E 0012                movea.l    A1, [A6 + 0x12]
00000480  41FA 003A                lea.l      A0, [PC + 0x3A /* 000004BC, value 0xD2C2E398 */]
00000484  302E 000A                move.w     D0, [A6 + 0xA]
00000488  D040                     add.w      D0, D0
0000048A  90C0                     sub.w      A0, D0
0000048C  342E 0008                move.w     D2, [A6 + 0x8]
00000490  202E 000E                move.l     D0, [A6 + 0xE]
00000494  322E 000C                move.w     D1, [A6 + 0xC]
00000498  6026                     bra        +0x28 /* 000004C0 */
label0000049A:
0000049A  4ED0                     jmp        [A0]
0000049C  22C0                     move.l     [A1]+, D0
0000049E  22C0                     move.l     [A1]+, D0
000004A0  22C0                     move.l     [A1]+, D0
000004A2  22C0                     move.l     [A1]+, D0
000004A4  22C0                     move.l     [A1]+, D0
000004A6  22C0                     move.l     [A1]+, D0
000004A8  22C0                     move.l     [A1]+, D0
000004AA  22C0                     move.l     [A1]+, D0
000004AC  22C0                     move.l     [A1]+, D0
000004AE  22C0                     move.l     [A1]+, D0
000004B0  22C0                     move.l     [A1]+, D0
000004B2  22C0                     move.l     [A1]+, D0
000004B4  22C0                     move.l     [A1]+, D0
000004B6  22C0                     move.l     [A1]+, D0
000004B8  22C0                     move.l     [A1]+, D0
000004BA  22C0                     move.l     [A1]+, D0
000004BC  D2C2                     add.w      A1, D2
000004BE  E398                     rol        D0, 1
label000004C0:
000004C0  51C9 FFD8                dbf        D1, -0x2A /* 0000049A */
000004C4  4E5E                     unlink     A6
000004C6  205F                     movea.l    A0, [A7]+
000004C8  DEFC 000E                add.w      A7, 0xE
000004CC  4ED0                     jmp        [A0]
export_880:
000004CE  4E56 0000                link       A6, 0
000004D2  2F0A                     move.l     -[A7], A2
000004D4  206E 0012                movea.l    A0, [A6 + 0x12]
000004D8  226E 000E                movea.l    A1, [A6 + 0xE]
000004DC  45FA 0056                lea.l      A2, [PC + 0x56 /* 00000534, value 0xD0C2D2C2 */]
000004E0  302E 000A                move.w     D0, [A6 + 0xA]
000004E4  E548                     lsl        D0.w, 2
000004E6  94C0                     sub.w      A2, D0
000004E8  342E 0008                move.w     D2, [A6 + 0x8]
000004EC  322E 000C                move.w     D1, [A6 + 0xC]
000004F0  6046                     bra        +0x48 /* 00000538 */
label000004F2:
000004F2  4ED2                     jmp        [A2]
000004F4  2018                     move.l     D0, [A0]+
000004F6  8199                     or.l       [A1]+, D0
000004F8  2018                     move.l     D0, [A0]+
000004FA  8199                     or.l       [A1]+, D0
000004FC  2018                     move.l     D0, [A0]+
000004FE  8199                     or.l       [A1]+, D0
00000500  2018                     move.l     D0, [A0]+
00000502  8199                     or.l       [A1]+, D0
00000504  2018                     move.l     D0, [A0]+
00000506  8199                     or.l       [A1]+, D0
00000508  2018                     move.l     D0, [A0]+
0000050A  8199                     or.l       [A1]+, D0
0000050C  2018                     move.l     D0, [A0]+
0000050E  8199                     or.l       [A1]+, D0
00000510  2018                     move.l     D0, [A0]+
00000512  8199                     or.l       [A1]+, D0
00000514  2018                     move.l     D0, [A0]+
00000516  8199                     or.l       [A1]+, D0
00000518  2018                     move.l     D0, [A0]+
0000051A  8199                     or.l       [A1]+, D0
0000051C  2018                     move.l     D0, [A0]+
0000051E  8199                     or.l       [A1]+, D0
00000520  2018                     move.l     D0, [A0]+
00000522  8199                     or.l       [A1]+, D0
00000524  2018                     move.l     D0, [A0]+
00000526  8199                     or.l       [A1]+, D0
00000528  2018                     move.l     D0, [A0]+
0000052A  8199                     or.l       [A1]+, D0
0000052C  2018                     move.l     D0, [A0]+
0000052E  8199                     or.l       [A1]+, D0
00000530  2018                     move.l     D0, [A0]+
00000532  8199                     or.l       [A1]+, D0
00000534  D0C2                     add.w      A0, D2
00000536  D2C2                     add.w      A1, D2
label00000538:
00000538  51C9 FFB8                dbf        D1, -0x4A /* 000004F2 */
0000053C  245F                     movea.l    A2, [A7]+
0000053E  4E5E                     unlink     A6
00000540  205F                     movea.l    A0, [A7]+
00000542  DEFC 000E                add.w      A7, 0xE
00000546  4ED0                     jmp        [A0]
export_881:
00000548  4E56 0000                link       A6, 0
0000054C  2F0A                     move.l     -[A7], A2
0000054E  206E 0012                movea.l    A0, [A6 + 0x12]
00000552  226E 000E                movea.l    A1, [A6 + 0xE]
00000556  45FA 0056                lea.l      A2, [PC + 0x56 /* 000005AE, value 0xD0C2D2C2 */]
0000055A  302E 000A                move.w     D0, [A6 + 0xA]
0000055E  E548                     lsl        D0.w, 2
00000560  94C0                     sub.w      A2, D0
00000562  342E 0008                move.w     D2, [A6 + 0x8]
00000566  322E 000C                move.w     D1, [A6 + 0xC]
0000056A  6046                     bra        +0x48 /* 000005B2 */
label0000056C:
0000056C  4ED2                     jmp        [A2]
0000056E  2018                     move.l     D0, [A0]+
00000570  B199                     xor.l      [A1]+, D0
00000572  2018                     move.l     D0, [A0]+
00000574  B199                     xor.l      [A1]+, D0
00000576  2018                     move.l     D0, [A0]+
00000578  B199                     xor.l      [A1]+, D0
0000057A  2018                     move.l     D0, [A0]+
0000057C  B199                     xor.l      [A1]+, D0
0000057E  2018                     move.l     D0, [A0]+
00000580  B199                     xor.l      [A1]+, D0
00000582  2018                     move.l     D0, [A0]+
00000584  B199                     xor.l      [A1]+, D0
00000586  2018                     move.l     D0, [A0]+
00000588  B199                     xor.l      [A1]+, D0
0000058A  2018                     move.l     D0, [A0]+
0000058C  B199                     xor.l      [A1]+, D0
0000058E  2018                     move.l     D0, [A0]+
00000590  B199                     xor.l      [A1]+, D0
00000592  2018                     move.l     D0, [A0]+
00000594  B199                     xor.l      [A1]+, D0
00000596  2018                     move.l     D0, [A0]+
00000598  B199                     xor.l      [A1]+, D0
0000059A  2018                     move.l     D0, [A0]+
0000059C  B199                     xor.l      [A1]+, D0
0000059E  2018                     move.l     D0, [A0]+
000005A0  B199                     xor.l      [A1]+, D0
000005A2  2018                     move.l     D0, [A0]+
000005A4  B199                     xor.l      [A1]+, D0
000005A6  2018                     move.l     D0, [A0]+
000005A8  B199                     xor.l      [A1]+, D0
000005AA  2018                     move.l     D0, [A0]+
000005AC  B199                     xor.l      [A1]+, D0
000005AE  D0C2                     add.w      A0, D2
000005B0  D2C2                     add.w      A1, D2
label000005B2:
000005B2  51C9 FFB8                dbf        D1, -0x4A /* 0000056C */
000005B6  245F                     movea.l    A2, [A7]+
000005B8  4E5E                     unlink     A6
000005BA  205F                     movea.l    A0, [A7]+
000005BC  DEFC 000E                add.w      A7, 0xE
000005C0  4ED0                     jmp        [A0]
export_882:
000005C2  201F                     move.l     D0, [A7]+
000005C4  225F                     movea.l    A1, [A7]+
000005C6  205F                     movea.l    A0, [A7]+
000005C8  2F00                     move.l     -[A7], D0
000005CA  48E7 1F00                movem.l    -[A7], D3,D4,D5,D6,D7
000005CE  70FF                     moveq.l    D0, 0xFFFFFFFF
000005D0  323C 000F                move.w     D1, 0xF
label000005D4:
000005D4  22C0                     move.l     [A1]+, D0
000005D6  22C0                     move.l     [A1]+, D0
000005D8  51C9 FFFA                dbf        D1, -0x8 /* 000005D4 */
000005DC  92FC 0080                sub.w      A1, 0x80
000005E0  7804                     moveq.l    D4, 0x04
000005E2  50C5                     st         D5
label000005E4:
000005E4  7600                     moveq.l    D3, 0x00
000005E6  7E1F                     moveq.l    D7, 0x1F
label000005E8:
000005E8  2211                     move.l     D1, [A1]
000005EA  671E                     beq        +0x20 /* 0000060A */
000005EC  2410                     move.l     D2, [A0]
000005EE  C283                     and.l      D1, D3
000005F0  8282                     or.l       D1, D2
000005F2  2001                     move.l     D0, D1
000005F4  D080                     add.l      D0, D0
000005F6  C280                     and.l      D1, D0
000005F8  8282                     or.l       D1, D2
000005FA  2001                     move.l     D0, D1
000005FC  E288                     lsr        D0, 1
000005FE  C280                     and.l      D1, D0
00000600  8282                     or.l       D1, D2
00000602  B291                     cmp.l      D1, [A1]
00000604  6704                     beq        +0x6 /* 0000060A */
00000606  50C5                     st         D5
00000608  2281                     move.l     [A1], D1
label0000060A:
0000060A  2601                     move.l     D3, D1
0000060C  D0C4                     add.w      A0, D4
0000060E  D2C4                     add.w      A1, D4
00000610  51CF FFD6                dbf        D7, -0x2C /* 000005E8 */
00000614  4444                     neg.w      D4
00000616  D0C4                     add.w      A0, D4
00000618  D2C4                     add.w      A1, D4
0000061A  4605                     not.b      D5
0000061C  67C6                     beq        -0x38 /* 000005E4 */
0000061E  4CDF 00F8                movem.l    D3,D4,D5,D6,D7, [A7]+
00000622  4E75                     rts
export_883:
export_884:
00000624  205F                     movea.l    A0, [A7]+
00000626  225F                     movea.l    A1, [A7]+
00000628  2F08                     move.l     -[A7], A0
0000062A  2251                     movea.l    A1, [A1]
0000062C  4ED1                     jmp        [A1]
export_885:
0000062E  225F                     movea.l    A1, [A7]+
00000630  205F                     movea.l    A0, [A7]+
00000632  201F                     move.l     D0, [A7]+
00000634  48E7 1F7C                movem.l    -[A7], D3,D4,D5,D6,D7,A1,A2,A3,A4,A5
00000638  2F00                     move.l     -[A7], D0
0000063A  4E90                     jsr        [A0]
0000063C  4CDF 3EF8                movem.l    D3,D4,D5,D6,D7,A1,A2,A3,A4,A5, [A7]+
00000640  4ED1                     jmp        [A1]
export_886:
00000642  201F                     move.l     D0, [A7]+
00000644  321F                     move.w     D1, [A7]+
00000646  225F                     movea.l    A1, [A7]+
00000648  205F                     movea.l    A0, [A7]+
0000064A  2F00                     move.l     -[A7], D0
0000064C  6010                     bra        +0x12 /* 0000065E */
label0000064E:
0000064E  1018                     move.b     D0, [A0]+
00000650  0C00 0020                cmpi.b     D0, 0x20 /* ' ' */
00000654  6406                     bcc        +0x8 /* 0000065C */
00000656  0C00 000D                cmpi.b     D0, 0xD /* '\r' */
0000065A  6602                     bne        +0x4 /* 0000065E */
label0000065C:
0000065C  12C0                     move.b     [A1]+, D0
label0000065E:
0000065E  51C9 FFEE                dbf        D1, -0x14 /* 0000064E */
00000662  4219                     clr.b      [A1]+
00000664  4E75                     rts
export_887:
00000666  225F                     movea.l    A1, [A7]+
00000668  205F                     movea.l    A0, [A7]+
0000066A  2F03                     move.l     -[A7], D3
0000066C  7000                     moveq.l    D0, 0x00
0000066E  7200                     moveq.l    D1, 0x00
00000670  7400                     moveq.l    D2, 0x00
00000672  363C 155F                move.w     D3, 0x155F
label00000676:
00000676  4A98                     tst.l      [A0]+
00000678  56CB FFFC                dbne       D3, -0x6 /* 00000676 */
0000067C  6720                     beq        +0x22 /* 0000069E */
0000067E  5948                     subq.w     A0, 4
00000680  1018                     move.b     D0, [A0]+
00000682  123B 0020                move.b     D1, [PC + D0.w + 0x20]
00000686  1018                     move.b     D0, [A0]+
00000688  D23B 001A                add.b      D1, [PC + D0.w + 0x1A]
0000068C  1018                     move.b     D0, [A0]+
0000068E  D23B 0014                add.b      D1, [PC + D0.w + 0x14]
00000692  1018                     move.b     D0, [A0]+
00000694  D23B 000E                add.b      D1, [PC + D0.w + 0xE]
00000698  D481                     add.l      D2, D1
0000069A  51CB FFDA                dbf        D3, -0x28 /* 00000676 */
label0000069E:
0000069E  261F                     move.l     D3, [A7]+
000006A0  2E82                     move.l     [A7], D2
000006A2  4ED1                     jmp        [A1]
000006A4  0001 0102                ori.b      D1, 0x2
000006A8  0102                     btst       D2, D0
000006AA  0203 0102                andi.b     D3, 0x2
000006AE  0203 0203                andi.b     D3, 0x3
000006B2  0304                     btst       D4, D1
000006B4  0102                     btst       D2, D0
000006B6  0203 0203                andi.b     D3, 0x3
000006BA  0304                     btst       D4, D1
000006BC  0203 0304                andi.b     D3, 0x4
000006C0  0304                     btst       D4, D1
000006C2  0405 0102                subi.b     D5, 0x2
000006C6  0203 0203                andi.b     D3, 0x3
000006CA  0304                     btst       D4, D1
000006CC  0203 0304                andi.b     D3, 0x4
000006D0  0304                     btst       D4, D1
000006D2  0405 0203                subi.b     D5, 0x3
000006D6  0304                     btst       D4, D1
000006D8  0304                     btst       D4, D1
000006DA  0405 0304                subi.b     D5, 0x4
000006DE  0405 0405                subi.b     D5, 0x5
000006E2  0506                     btst       D6, D2
000006E4  0102                     btst       D2, D0
000006E6  0203 0203                andi.b     D3, 0x3
000006EA  0304                     btst       D4, D1
000006EC  0203 0304                andi.b     D3, 0x4
000006F0  0304                     btst       D4, D1
000006F2  0405 0203                subi.b     D5, 0x3
000006F6  0304                     btst       D4, D1
000006F8  0304                     btst       D4, D1
000006FA  0405 0304                subi.b     D5, 0x4
000006FE  0405 0405                subi.b     D5, 0x5
00000702  0506                     btst       D6, D2
00000704  0203 0304                andi.b     D3, 0x4
00000708  0304                     btst       D4, D1
0000070A  0405 0304                subi.b     D5, 0x4
0000070E  0405 0405                subi.b     D5, 0x5
00000712  0506                     btst       D6, D2
00000714  0304                     btst       D4, D1
00000716  0405 0405                subi.b     D5, 0x5
0000071A  0506                     btst       D6, D2
0000071C  0405 0506                subi.b     D5, 0x6
00000720  0506                     btst       D6, D2
00000722  0607 0102                addi.b     D7, 0x2
00000726  0203 0203                andi.b     D3, 0x3
0000072A  0304                     btst       D4, D1
0000072C  0203 0304                andi.b     D3, 0x4
00000730  0304                     btst       D4, D1
00000732  0405 0203                subi.b     D5, 0x3
00000736  0304                     btst       D4, D1
00000738  0304                     btst       D4, D1
0000073A  0405 0304                subi.b     D5, 0x4
0000073E  0405 0405                subi.b     D5, 0x5
00000742  0506                     btst       D6, D2
00000744  0203 0304                andi.b     D3, 0x4
00000748  0304                     btst       D4, D1
0000074A  0405 0304                subi.b     D5, 0x4
0000074E  0405 0405                subi.b     D5, 0x5
00000752  0506                     btst       D6, D2
00000754  0304                     btst       D4, D1
00000756  0405 0405                subi.b     D5, 0x5
0000075A  0506                     btst       D6, D2
0000075C  0405 0506                subi.b     D5, 0x6
00000760  0506                     btst       D6, D2
00000762  0607 0203                addi.b     D7, 0x3
00000766  0304                     btst       D4, D1
00000768  0304                     btst       D4, D1
0000076A  0405 0304                subi.b     D5, 0x4
0000076E  0405 0405                subi.b     D5, 0x5
00000772  0506                     btst       D6, D2
00000774  0304                     btst       D4, D1
00000776  0405 0405                subi.b     D5, 0x5
0000077A  0506                     btst       D6, D2
0000077C  0405 0506                subi.b     D5, 0x6
00000780  0506                     btst       D6, D2
00000782  0607 0304                addi.b     D7, 0x4
00000786  0405 0405                subi.b     D5, 0x5
0000078A  0506                     btst       D6, D2
0000078C  0405 0506                subi.b     D5, 0x6
00000790  0506                     btst       D6, D2
00000792  0607 0405                addi.b     D7, 0x5
00000796  0506                     btst       D6, D2
00000798  0506                     btst       D6, D2
0000079A  0607 0506                addi.b     D7, 0x6
0000079E  0607 0607                addi.b     D7, 0x7
000007A2  0708                     btst       A0, D3
export_888:
000007A4  201F                     move.l     D0, [A7]+
000007A6  321F                     move.w     D1, [A7]+
000007A8  205F                     movea.l    A0, [A7]+
000007AA  2F00                     move.l     -[A7], D0
000007AC  2F03                     move.l     -[A7], D3
000007AE  43FA FEF4                lea.l      A1, [PC - 0x10C /* 000006A4, value 0x10102, cstring "" */]
000007B2  7400                     moveq.l    D2, 0x00
000007B4  7000                     moveq.l    D0, 0x00
000007B6  7600                     moveq.l    D3, 0x00
000007B8  601A                     bra        +0x1C /* 000007D4 */
label000007BA:
000007BA  1018                     move.b     D0, [A0]+
000007BC  1631 0000                move.b     D3, [A1 + D0.w]
000007C0  1018                     move.b     D0, [A0]+
000007C2  D631 0000                add.b      D3, [A1 + D0.w]
000007C6  1018                     move.b     D0, [A0]+
000007C8  D631 0000                add.b      D3, [A1 + D0.w]
000007CC  1018                     move.b     D0, [A0]+
000007CE  D631 0000                add.b      D3, [A1 + D0.w]
000007D2  D443                     add.w      D2, D3
label000007D4:
000007D4  51C9 FFE4                dbf        D1, -0x1E /* 000007BA */
000007D8  261F                     move.l     D3, [A7]+
000007DA  3F42 0004                move.w     [A7 + 0x4], D2
000007DE  4E75                     rts
export_889:
000007E0  4E56 0000                link       A6, 0
000007E4  48E7 1F38                movem.l    -[A7], D3,D4,D5,D6,D7,A2,A3,A4
000007E8  206E 0008                movea.l    A0, [A6 + 0x8]
000007EC  3E28 0004                move.w     D7, [A0 + 0x4]
000007F0  9E50                     sub.w      D7, [A0]
000007F2  3C28 0006                move.w     D6, [A0 + 0x6]
000007F6  0646 001F                addi.w     D6, 0x1F
000007FA  EA4E                     lsr        D6.w, 5
000007FC  3628 0002                move.w     D3, [A0 + 0x2]
00000800  EA4B                     lsr        D3.w, 5
00000802  9C43                     sub.w      D6, D3
00000804  E54B                     lsl        D3.w, 2
00000806  3810                     move.w     D4, [A0]
00000808  C8FC 0040                mulu.w     D4, 0x40 /* '@' */
0000080C  D843                     add.w      D4, D3
0000080E  3A06                     move.w     D5, D6
00000810  E54D                     lsl        D5.w, 2
00000812  4445                     neg.w      D5
00000814  0645 0040                addi.w     D5, 0x40 /* '@' */
00000818  206E 0018                movea.l    A0, [A6 + 0x18]
0000081C  D0C4                     add.w      A0, D4
0000081E  226E 0014                movea.l    A1, [A6 + 0x14]
00000822  D2C4                     add.w      A1, D4
00000824  246E 0010                movea.l    A2, [A6 + 0x10]
00000828  D4C4                     add.w      A2, D4
0000082A  286E 000C                movea.l    A4, [A6 + 0xC]
0000082E  D8C4                     add.w      A4, D4
00000830  5346                     subq.w     D6, 1
00000832  6C1A                     bge        +0x1C /* 0000084E */
00000834  601C                     bra        +0x1E /* 00000852 */
label00000836:
00000836  3206                     move.w     D1, D6
label00000838:
00000838  2019                     move.l     D0, [A1]+
0000083A  4680                     not.l      D0
0000083C  C098                     and.l      D0, [A0]+
0000083E  809A                     or.l       D0, [A2]+
00000840  28C0                     move.l     [A4]+, D0
00000842  51C9 FFF4                dbf        D1, -0xE /* 00000838 */
00000846  D0C5                     add.w      A0, D5
00000848  D2C5                     add.w      A1, D5
0000084A  D4C5                     add.w      A2, D5
0000084C  D8C5                     add.w      A4, D5
label0000084E:
0000084E  51CF FFE6                dbf        D7, -0x1C /* 00000836 */
label00000852:
00000852  4CDF 1CF8                movem.l    D3,D4,D5,D6,D7,A2,A3,A4, [A7]+
00000856  4E5E                     unlink     A6
00000858  205F                     movea.l    A0, [A7]+
0000085A  DEFC 0014                add.w      A7, 0x14
0000085E  4ED0                     jmp        [A0]
export_890:
00000860  205F                     movea.l    A0, [A7]+
00000862  201F                     move.l     D0, [A7]+
00000864  B09F                     cmp.l      D0, [A7]+
00000866  6500 000A                bcs        +0xC /* 00000872 */
0000086A  6200 000C                bhi        +0xE /* 00000878 */
0000086E  4257                     clr.w      [A7]
00000870  4ED0                     jmp        [A0]
label00000872:
00000872  3EBC 0001                move.w     [A7], 0x1
00000876  4ED0                     jmp        [A0]
label00000878:
00000878  3EBC FFFF                move.w     [A7], 0xFFFF
0000087C  4ED0                     jmp        [A0]
export_891:
0000087E  221F                     move.l     D1, [A7]+
00000880  301F                     move.w     D0, [A7]+
00000882  225F                     movea.l    A1, [A7]+
00000884  205F                     movea.l    A0, [A7]+
00000886  2F01                     move.l     -[A7], D1
00000888  48E7 1F3E                movem.l    -[A7], D3,D4,D5,D6,D7,A2,A3,A4,A5,A6
0000088C  602A                     bra        +0x2C /* 000008B8 */
label0000088E:
0000088E  4CD8 7CFE                movem.l    D1,D2,D3,D4,D5,D6,D7,A2,A3,A4,A5,A6, [A0]+
00000892  48D1 7CFE                movem.l    [A1], D1,D2,D3,D4,D5,D6,D7,A2,A3,A4,A5,A6
00000896  4CD8 7CFE                movem.l    D1,D2,D3,D4,D5,D6,D7,A2,A3,A4,A5,A6, [A0]+
0000089A  48E9 7CFE 0030           movem.l    [A1 + 0x30], D1,D2,D3,D4,D5,D6,D7,A2,A3,A4,A5,A6
000008A0  4CD8 7CFE                movem.l    D1,D2,D3,D4,D5,D6,D7,A2,A3,A4,A5,A6, [A0]+
000008A4  48E9 7CFE 0060           movem.l    [A1 + 0x60], D1,D2,D3,D4,D5,D6,D7,A2,A3,A4,A5,A6
000008AA  4CD8 7CFE                movem.l    D1,D2,D3,D4,D5,D6,D7,A2,A3,A4,A5,A6, [A0]+
000008AE  48E9 7CFE 0090           movem.l    [A1 + 0x90], D1,D2,D3,D4,D5,D6,D7,A2,A3,A4,A5,A6
000008B4  D2FC 00C0                add.w      A1, 0xC0
label000008B8:
000008B8  5740                     subq.w     D0, 3
000008BA  6CD2                     bge        -0x2C /* 0000088E */
000008BC  5640                     addq.w     D0, 3
000008BE  6016                     bra        +0x18 /* 000008D6 */
label000008C0:
000008C0  4CD8 04FE                movem.l    D1,D2,D3,D4,D5,D6,D7,A2, [A0]+
000008C4  48D1 04FE                movem.l    [A1], D1,D2,D3,D4,D5,D6,D7,A2
000008C8  4CD8 04FE                movem.l    D1,D2,D3,D4,D5,D6,D7,A2, [A0]+
000008CC  48E9 04FE 0020           movem.l    [A1 + 0x20], D1,D2,D3,D4,D5,D6,D7,A2
000008D2  D2FC 0040                add.w      A1, 0x40 /* '@' */
label000008D6:
000008D6  51C8 FFE8                dbf        D0, -0x1A /* 000008C0 */
000008DA  4CDF 7CF8                movem.l    D3,D4,D5,D6,D7,A2,A3,A4,A5,A6, [A7]+
000008DE  4E75                     rts
export_892:
000008E0  201F                     move.l     D0, [A7]+
000008E2  321F                     move.w     D1, [A7]+
000008E4  225F                     movea.l    A1, [A7]+
000008E6  205F                     movea.l    A0, [A7]+
000008E8  74FF                     moveq.l    D2, 0xFFFFFFFF
label000008EA:
000008EA  5242                     addq.w     D2, 1
label000008EC:
000008EC  B348                     cmpm.w     [A1]+, [A0]+
000008EE  56C9 FFFC                dbne       D1, -0x6 /* 000008EC */
000008F2  57C9 FFF6                dbeq       D1, -0xC /* 000008EA */
000008F6  3E82                     move.w     [A7], D2
000008F8  2040                     movea.l    A0, D0
000008FA  4ED0                     jmp        [A0]
export_893:
000008FC  225F                     movea.l    A1, [A7]+
000008FE  321F                     move.w     D1, [A7]+
00000900  205F                     movea.l    A0, [A7]+
00000902  74FF                     moveq.l    D2, 0xFFFFFFFF
label00000904:
00000904  5242                     addq.w     D2, 1
label00000906:
00000906  4A58                     tst.w      [A0]+
00000908  56C9 FFFC                dbne       D1, -0x6 /* 00000906 */
0000090C  57C9 FFF6                dbeq       D1, -0xC /* 00000904 */
00000910  3E82                     move.w     [A7], D2
00000912  4ED1                     jmp        [A1]
export_894:
00000914  2F0D                     move.l     -[A7], A5
00000916  41FA 092A                lea.l      A0, [PC + 0x92A /* 00001242, value 0xFFFFFFFF */]
0000091A  2A50                     movea.l    A5, [A0]
0000091C  2F2F 000C                move.l     -[A7], [A7 + 0xC]
00000920  2F2F 000C                move.l     -[A7], [A7 + 0xC]
00000924  4EAD 0C62                jsr        [A5 + 0xC62 /* export_392, CODE:8 @ 000049F0 */]
00000928  2A5F                     movea.l    A5, [A7]+
0000092A  205F                     movea.l    A0, [A7]+
0000092C  504F                     addq.w     A7, 8
0000092E  4ED0                     jmp        [A0]
export_895:
00000930  221F                     move.l     D1, [A7]+
00000932  225F                     movea.l    A1, [A7]+
00000934  205F                     movea.l    A0, [A7]+
00000936  B388                     cmpm.l     [A1]+, [A0]+
00000938  6602                     bne        +0x4 /* 0000093C */
0000093A  B388                     cmpm.l     [A1]+, [A0]+
label0000093C:
0000093C  57D7                     seq        [A7]
0000093E  4417                     neg.b      [A7]
00000940  2F01                     move.l     -[A7], D1
00000942  4E75                     rts
export_896:
00000944  4E56 0000                link       A6, 0
00000948  4EBA 0CE2                jsr        [PC + 0xCE2 /* 0000162C */]
0000094C  48E7 1F3C                movem.l    -[A7], D3,D4,D5,D6,D7,A2,A3,A4,A5
00000950  206E 001C                movea.l    A0, [A6 + 0x1C]
00000954  226E 0018                movea.l    A1, [A6 + 0x18]
00000958  246E 0014                movea.l    A2, [A6 + 0x14]
0000095C  266E 0010                movea.l    A3, [A6 + 0x10]
00000960  286E 000C                movea.l    A4, [A6 + 0xC]
00000964  2A6E 0008                movea.l    A5, [A6 + 0x8]
00000968  3215                     move.w     D1, [A5]
0000096A  3E2D 0004                move.w     D7, [A5 + 0x4]
0000096E  9E41                     sub.w      D7, D1
00000970  6F00 0092                ble        +0x94 /* 00000A04 */
00000974  3001                     move.w     D0, D1
00000976  ED48                     lsl        D0.w, 6
00000978  D0C0                     add.w      A0, D0
0000097A  D2C0                     add.w      A1, D0
0000097C  D4C0                     add.w      A2, D0
0000097E  D6C0                     add.w      A3, D0
00000980  C2F8 0106                mulu.w     D1, [0x00000106 /* ScreenRow */]
00000984  D9C1                     add.l      A4, D1
00000986  362D 0002                move.w     D3, [A5 + 0x2]
0000098A  EA4B                     lsr        D3.w, 5
0000098C  382D 0006                move.w     D4, [A5 + 0x6]
00000990  0644 001F                addi.w     D4, 0x1F
00000994  EA4C                     lsr        D4.w, 5
00000996  9843                     sub.w      D4, D3
00000998  3004                     move.w     D0, D4
0000099A  5344                     subq.w     D4, 1
0000099C  E548                     lsl        D0.w, 2
0000099E  3A3C 0040                move.w     D5, 0x40 /* '@' */
000009A2  9A40                     sub.w      D5, D0
000009A4  3C38 0106                move.w     D6, [0x00000106 /* ScreenRow */]
000009A8  9C40                     sub.w      D6, D0
000009AA  E54B                     lsl        D3.w, 2
000009AC  D0C3                     add.w      A0, D3
000009AE  D2C3                     add.w      A1, D3
000009B0  D4C3                     add.w      A2, D3
000009B2  D6C3                     add.w      A3, D3
000009B4  D8C3                     add.w      A4, D3
000009B6  6046                     bra        +0x48 /* 000009FE */
label000009B8:
000009B8  2018                     move.l     D0, [A0]+
000009BA  C099                     and.l      D0, [A1]+
000009BC  809A                     or.l       D0, [A2]+
000009BE  28C0                     move.l     [A4]+, D0
label000009C0:
000009C0  201B                     move.l     D0, [A3]+
000009C2  56CA FFF4                dbne       D2, -0xE /* 000009B8 */
000009C6  660A                     bne        +0xC /* 000009D2 */
000009C8  2018                     move.l     D0, [A0]+
000009CA  C099                     and.l      D0, [A1]+
000009CC  809A                     or.l       D0, [A2]+
000009CE  28C0                     move.l     [A4]+, D0
000009D0  6022                     bra        +0x24 /* 000009F4 */
label000009D2:
000009D2  2200                     move.l     D1, D0
000009D4  4681                     not.l      D1
000009D6  6710                     beq        +0x12 /* 000009E8 */
000009D8  2618                     move.l     D3, [A0]+
000009DA  C699                     and.l      D3, [A1]+
000009DC  869A                     or.l       D3, [A2]+
000009DE  C283                     and.l      D1, D3
000009E0  C094                     and.l      D0, [A4]
000009E2  8081                     or.l       D0, D1
000009E4  28C0                     move.l     [A4]+, D0
000009E6  6008                     bra        +0xA /* 000009F0 */
label000009E8:
000009E8  5848                     addq.w     A0, 4
000009EA  5849                     addq.w     A1, 4
000009EC  584A                     addq.w     A2, 4
000009EE  584C                     addq.w     A4, 4
label000009F0:
000009F0  51CA FFCE                dbf        D2, -0x34 /* 000009C0 */
label000009F4:
000009F4  D0C5                     add.w      A0, D5
000009F6  D2C5                     add.w      A1, D5
000009F8  D4C5                     add.w      A2, D5
000009FA  D6C5                     add.w      A3, D5
000009FC  D8C6                     add.w      A4, D6
label000009FE:
000009FE  3404                     move.w     D2, D4
00000A00  51CF FFBE                dbf        D7, -0x44 /* 000009C0 */
label00000A04:
00000A04  4CDF 3CF8                movem.l    D3,D4,D5,D6,D7,A2,A3,A4,A5, [A7]+
00000A08  4EBA 0A1A                jsr        [PC + 0xA1A /* 00001424 */]
00000A0C  4E5E                     unlink     A6
00000A0E  205F                     movea.l    A0, [A7]+
00000A10  DEFC 0018                add.w      A7, 0x18
00000A14  4ED0                     jmp        [A0]
export_897:
00000A16  205F                     movea.l    A0, [A7]+
00000A18  225F                     movea.l    A1, [A7]+
00000A1A  301F                     move.w     D0, [A7]+
00000A1C  321F                     move.w     D1, [A7]+
00000A1E  0240 0007                andi.w     D0, 0x7
00000A22  E039                     ror        D1.b, D0
00000A24  343C 0007                move.w     D2, 0x7
label00000A28:
00000A28  12C1                     move.b     [A1]+, D1
00000A2A  E319                     rol        D1.b, 1
00000A2C  51CA FFFA                dbf        D2, -0x8 /* 00000A28 */
00000A30  4ED0                     jmp        [A0]
export_898:
00000A32  225F                     movea.l    A1, [A7]+
00000A34  341F                     move.w     D2, [A7]+
00000A36  205F                     movea.l    A0, [A7]+
00000A38  2050                     movea.l    A0, [A0]
00000A3A  3228 002C                move.w     D1, [A0 + 0x2C]
00000A3E  D1E8 0028                add.l      A0, [A0 + 0x28]
00000A42  D0FC 0032                add.w      A0, 0x32 /* '2' */
00000A46  600E                     bra        +0x10 /* 00000A56 */
label00000A48:
00000A48  1018                     move.b     D0, [A0]+
00000A4A  E148                     lsl        D0.w, 8
00000A4C  1018                     move.b     D0, [A0]+
00000A4E  B042                     cmp.w      D0, D2
00000A50  670A                     beq        +0xC /* 00000A5C */
label00000A52:
00000A52  1018                     move.b     D0, [A0]+
00000A54  66FC                     bne        -0x2 /* 00000A52 */
label00000A56:
00000A56  51C9 FFF0                dbf        D1, -0x12 /* 00000A48 */
00000A5A  91C8                     sub.l      A0, A0
label00000A5C:
00000A5C  2E88                     move.l     [A7], A0
00000A5E  4ED1                     jmp        [A1]
export_899:
00000A60  201F                     move.l     D0, [A7]+
00000A62  321F                     move.w     D1, [A7]+
00000A64  341F                     move.w     D2, [A7]+
00000A66  205F                     movea.l    A0, [A7]+
00000A68  2F00                     move.l     -[A7], D0
00000A6A  2F03                     move.l     -[A7], D3
00000A6C  5341                     subq.w     D1, 1
00000A6E  6D00 006E                blt        +0x70 /* 00000ADE */
00000A72  0C42 0001                cmpi.w     D2, 0x1
00000A76  6716                     beq        +0x18 /* 00000A8E */
00000A78  0C42 0002                cmpi.w     D2, 0x2
00000A7C  6720                     beq        +0x22 /* 00000A9E */
00000A7E  0C42 0008                cmpi.w     D2, 0x8
00000A82  6732                     beq        +0x34 /* 00000AB6 */
00000A84  0C42 0010                cmpi.w     D2, 0x10
00000A88  6746                     beq        +0x48 /* 00000AD0 */
00000A8A  6000 0052                bra        +0x54 /* 00000ADE */
label00000A8E:
00000A8E  9040                     sub.w      D0, D0
label00000A90:
00000A90  2010                     move.l     D0, [A0]
00000A92  E290                     roxr       D0, 1
00000A94  B198                     xor.l      [A0]+, D0
00000A96  51C9 FFF8                dbf        D1, -0xA /* 00000A90 */
00000A9A  6000 0042                bra        +0x44 /* 00000ADE */
label00000A9E:
00000A9E  7603                     moveq.l    D3, 0x03
00000AA0  7400                     moveq.l    D2, 0x00
label00000AA2:
00000AA2  2010                     move.l     D0, [A0]
00000AA4  B142                     xor.w      D2, D0
00000AA6  C443                     and.w      D2, D3
00000AA8  B540                     xor.w      D0, D2
00000AAA  B142                     xor.w      D2, D0
00000AAC  E498                     ror        D0, 2
00000AAE  B198                     xor.l      [A0]+, D0
00000AB0  51C9 FFF0                dbf        D1, -0x12 /* 00000AA2 */
00000AB4  6028                     bra        +0x2A /* 00000ADE */
label00000AB6:
00000AB6  363C 00FF                move.w     D3, 0xFF
00000ABA  7400                     moveq.l    D2, 0x00
label00000ABC:
00000ABC  2010                     move.l     D0, [A0]
00000ABE  B142                     xor.w      D2, D0
00000AC0  C443                     and.w      D2, D3
00000AC2  B540                     xor.w      D0, D2
00000AC4  B142                     xor.w      D2, D0
00000AC6  E098                     ror        D0, 8
00000AC8  B198                     xor.l      [A0]+, D0
00000ACA  51C9 FFF0                dbf        D1, -0x12 /* 00000ABC */
00000ACE  600E                     bra        +0x10 /* 00000ADE */
label00000AD0:
00000AD0  7400                     moveq.l    D2, 0x00
label00000AD2:
00000AD2  3010                     move.w     D0, [A0]
00000AD4  B558                     xor.w      [A0]+, D2
00000AD6  3410                     move.w     D2, [A0]
00000AD8  B158                     xor.w      [A0]+, D0
00000ADA  51C9 FFF6                dbf        D1, -0xC /* 00000AD2 */
label00000ADE:
00000ADE  261F                     move.l     D3, [A7]+
00000AE0  4E75                     rts
export_900:
00000AE2  201F                     move.l     D0, [A7]+
00000AE4  321F                     move.w     D1, [A7]+
00000AE6  341F                     move.w     D2, [A7]+
00000AE8  205F                     movea.l    A0, [A7]+
00000AEA  2F00                     move.l     -[A7], D0
00000AEC  0C42 0001                cmpi.w     D2, 0x1
00000AF0  6740                     beq        +0x42 /* 00000B32 */
00000AF2  0C42 0002                cmpi.w     D2, 0x2
00000AF6  6744                     beq        +0x46 /* 00000B3C */
00000AF8  0C42 0008                cmpi.w     D2, 0x8
00000AFC  671A                     beq        +0x1C /* 00000B18 */
00000AFE  0C42 0010                cmpi.w     D2, 0x10
00000B02  6600 008A                bne        +0x8C /* 00000B8E */
00000B06  7000                     moveq.l    D0, 0x00
00000B08  6008                     bra        +0xA /* 00000B12 */
label00000B0A:
00000B0A  B150                     xor.w      [A0], D0
00000B0C  3018                     move.w     D0, [A0]+
00000B0E  B150                     xor.w      [A0], D0
00000B10  3018                     move.w     D0, [A0]+
label00000B12:
00000B12  51C9 FFF6                dbf        D1, -0xC /* 00000B0A */
00000B16  6076                     bra        +0x78 /* 00000B8E */
label00000B18:
00000B18  7000                     moveq.l    D0, 0x00
00000B1A  6010                     bra        +0x12 /* 00000B2C */
label00000B1C:
00000B1C  B110                     xor.b      [A0], D0
00000B1E  1018                     move.b     D0, [A0]+
00000B20  B110                     xor.b      [A0], D0
00000B22  1018                     move.b     D0, [A0]+
00000B24  B110                     xor.b      [A0], D0
00000B26  1018                     move.b     D0, [A0]+
00000B28  B110                     xor.b      [A0], D0
00000B2A  1018                     move.b     D0, [A0]+
label00000B2C:
00000B2C  51C9 FFEE                dbf        D1, -0x14 /* 00000B1C */
00000B30  605C                     bra        +0x5E /* 00000B8E */
label00000B32:
00000B32  43FA 005C                lea.l      A1, [PC + 0x5C /* 00000B90, value 0x10302, cstring "" */]
00000B36  343C 01FF                move.w     D2, 0x1FF
00000B3A  6008                     bra        +0xA /* 00000B44 */
label00000B3C:
00000B3C  43FA 0252                lea.l      A1, [PC + 0x252 /* 00000D90, value 0x10203, cstring "" */]
00000B40  343C 03FF                move.w     D2, 0x3FF
label00000B44:
00000B44  5341                     subq.w     D1, 1
00000B46  6D00 0046                blt        +0x48 /* 00000B8E */
00000B4A  7000                     moveq.l    D0, 0x00
label00000B4C:
00000B4C  4A98                     tst.l      [A0]+
00000B4E  56C9 FFFC                dbne       D1, -0x6 /* 00000B4C */
00000B52  673A                     beq        +0x3C /* 00000B8E */
00000B54  5948                     subq.w     A0, 4
label00000B56:
00000B56  E148                     lsl        D0.w, 8
00000B58  1010                     move.b     D0, [A0]
00000B5A  C042                     and.w      D0, D2
00000B5C  1031 0000                move.b     D0, [A1 + D0.w]
00000B60  10C0                     move.b     [A0]+, D0
00000B62  E148                     lsl        D0.w, 8
00000B64  1010                     move.b     D0, [A0]
00000B66  C042                     and.w      D0, D2
00000B68  1031 0000                move.b     D0, [A1 + D0.w]
00000B6C  10C0                     move.b     [A0]+, D0
00000B6E  E148                     lsl        D0.w, 8
00000B70  1010                     move.b     D0, [A0]
00000B72  C042                     and.w      D0, D2
00000B74  1031 0000                move.b     D0, [A1 + D0.w]
00000B78  10C0                     move.b     [A0]+, D0
00000B7A  E148                     lsl        D0.w, 8
00000B7C  1010                     move.b     D0, [A0]
00000B7E  C042                     and.w      D0, D2
00000B80  1031 0000                move.b     D0, [A1 + D0.w]
00000B84  10C0                     move.b     [A0]+, D0
00000B86  56C9 FFC4                dbne       D1, -0x3E /* 00000B4C */
00000B8A  57C9 FFCA                dbeq       D1, -0x38 /* 00000B56 */
label00000B8E:
00000B8E  4E75                     rts
00000B90  0001 0302                ori.b      D1, 0x2
00000B94  0706                     btst       D6, D3
00000B96  0405 0F0E                subi.b     D5, 0xE
00000B9A  0C0D 0809                cmpi.b     A5, 0x9 /* '\t' */
00000B9E  0B0A                     btst       A2, D5
00000BA0  1F1E                     move.b     -[A7], [A6]+
00000BA2  1C1D                     move.b     D6, [A5]+
00000BA4  1819                     move.b     D4, [A1]+
00000BA6  1B1A                     move.b     -[A5], [A2]+
00000BA8  1011                     move.b     D0, [A1]
00000BAA  1312                     move.b     -[A1], [A2]
00000BAC  1716                     move.b     -[A3], [A6]
00000BAE  1415                     move.b     D2, [A5]
00000BB0  3F3E                     move.w     -[A7], <<invalid special address>>
00000BB2  3C3D                     move.w     D6, <<invalid special address>>
00000BB4  3839 3B3A 3031           move.w     D4, [0x3B3A3031]
00000BBA  3332 3736 3435 2021 2322 move.w     -[A1], [[A2 + 0x34352021] + D3 * 8 + 0x2322]
00000BC4  2726                     move.l     -[A3], -[A6]
00000BC6  2425                     move.l     D2, -[A5]
00000BC8  2F2E 2C2D                move.l     -[A7], [A6 + 0x2C2D]
00000BCC  2829 2B2A                move.l     D4, [A1 + 0x2B2A]
00000BD0  7F7E                     moveq.l    D7, 0x7E
00000BD2  7C7D                     moveq.l    D6, 0x7D
00000BD4  7879                     moveq.l    D4, 0x79
00000BD6  7B7A                     moveq.l    D5, 0x7A
00000BD8  7071                     moveq.l    D0, 0x71
00000BDA  7372                     moveq.l    D1, 0x72
00000BDC  7776                     moveq.l    D3, 0x76
00000BDE  7475                     moveq.l    D2, 0x75
00000BE0  6061                     bra        +0x63 /* 00000C43 */
00000BE2  6362                     bls        +0x64 /* 00000C46 */
00000BE4  6766                     beq        +0x68 /* 00000C4C */
00000BE6  6465                     bcc        +0x67 /* 00000C4D */
00000BE8  6F6E                     ble        +0x70 /* 00000C58 */
00000BEA  6C6D                     bge        +0x6F /* 00000C59 */
00000BEC  6869                     bvc        +0x6B /* 00000C57 */
00000BEE  6B6A                     bmi        +0x6C /* 00000C5A */
00000BF0  4041                     negx.w     D1
00000BF2  4342                     chk.w      D1, D2
00000BF4  4746                     chk.w      D3, D6
00000BF6  4445                     neg.w      D5
00000BF8  4F4E                     chk.w      D7, A6
00000BFA  4C4D 4849                divs.l     D1:D4, A5
00000BFE  4B4A                     chk.w      D5, A2
00000C00  5F5E                     subq.w     [A6]+, 7
00000C02  5C5D                     addq.w     [A5]+, 6
00000C04  5859                     addq.w     [A1]+, 4
00000C06  5B5A                     subq.w     [A2]+, 5
00000C08  5051                     addq.w     [A1], 8
00000C0A  5352                     subq.w     [A2], 1
00000C0C  5756                     subq.w     [A6], 3
00000C0E  5455                     addq.w     [A5], 2
00000C10  FFFE                     .invalid   <<F/7/7>>
00000C12  FCFD F8F9                .extension 0xCFD <<F/2-3/6>> // unimplemented
00000C16  FBFA                     .invalid   <<F/7/5>>
00000C18  F0F1 F3F2                .extension 0x0F1 <<F/2-3/0>> // unimplemented
00000C1C  F7F6                     .invalid   <<F/7/3>>
00000C1E  F4F5                     cpushp     DATA+INST, [A5]
00000C20  E0E1                     asr   .w   -[A1]
00000C22  E3E2                     lsl   .w   -[A2]
00000C24  E7E6                     rol   .w   -[A6]
00000C26  E4E5                     roxr  .w   -[A5]
00000C28  EFEE ECED E8E9           bfins      [A6 - 0x1717] {D3:D5}, D6
00000C2E  EBEA C0C1 C3C2           bfexts     D4, [A2 - 0x3C3E] {3:1}
00000C34  C7C6                     muls.w     D3, D6
00000C36  C4C5                     mulu.w     D2, D5
00000C38  CFCE                     muls.w     D7, A6
00000C3A  CCCD                     mulu.w     D6, A5
00000C3C  C8C9                     mulu.w     D4, A1
00000C3E  CBCA                     muls.w     D5, A2
00000C40  DFDE                     add.l      A7, [A6]+
00000C42  DCDD                     add.w      A6, [A5]+
00000C44  D8D9                     add.w      A4, [A1]+
label00000C46:
00000C46  DBDA                     add.l      A5, [A2]+
00000C48  D0D1                     add.w      A0, [A1]
00000C4A  D3D2                     add.l      A1, [A2]
label00000C4C:
00000C4C  D7D6                     add.l      A3, [A6]
00000C4E  D4D5                     add.w      A2, [A5]
00000C50  8081                     or.l       D0, D1
00000C52  8382 8786                unpk       D1, D2, 0x8786
00000C56  8485                     or.l       D2, D5
label00000C58:
00000C58  8F8E 8C8D                unpk       -[A7], -[A6], 0x8C8D
// begin alternate branch 00000C5A-00000C5C
label00000C5A:
00000C5A  8C8D                     or.l       D6, A5
// end alternate branch 00000C5A-00000C5C
label00000C5A: // (misaligned)
00000C5C  8889                     or.l       D4, A1
00000C5E  8B8A 9F9E                unpk       -[A5], -[A2], 0x9F9E
00000C62  9C9D                     sub.l      D6, [A5]+
00000C64  9899                     sub.l      D4, [A1]+
00000C66  9B9A                     sub.l      [A2]+, D5
00000C68  9091                     sub.l      D0, [A1]
00000C6A  9392                     sub.l      [A2], D1
00000C6C  9796                     sub.l      [A6], D3
00000C6E  9495                     sub.l      D2, [A5]
00000C70  BFBE                     xor.l      <<invalid special address>>, D7
00000C72  BCBD                     cmp.l      D6, <<invalid special address>>
00000C74  B8B9 BBBA B0B1           cmp.l      D4, [0xBBBAB0B1]
00000C7A  B3B2 B7B6 B4B5 A0A1 A3A2 xor.l      [[-0x4B4A5F5F] + A3 * 8 - 0x5C5E], D1
00000C84  A7A6                     syscall    vStdEntry, flags=7
00000C86  A4A5                     syscall    VisRegionChanged, flags=4
00000C88  AFAE                     syscall    scIndTab4, auto_pop
00000C8A  ACAD                     syscall    PtInRect, auto_pop
00000C8C  A8A9                     syscall    InsetRect
00000C8E  ABAA                     syscall    stSearchTab
00000C90  FFFE                     .invalid   <<F/7/7>>
00000C92  FCFD F8F9                .extension 0xCFD <<F/2-3/6>> // unimplemented
00000C96  FBFA                     .invalid   <<F/7/5>>
00000C98  F0F1 F3F2                .extension 0x0F1 <<F/2-3/0>> // unimplemented
00000C9C  F7F6                     .invalid   <<F/7/3>>
00000C9E  F4F5                     cpushp     DATA+INST, [A5]
00000CA0  E0E1                     asr   .w   -[A1]
00000CA2  E3E2                     lsl   .w   -[A2]
00000CA4  E7E6                     rol   .w   -[A6]
00000CA6  E4E5                     roxr  .w   -[A5]
00000CA8  EFEE ECED E8E9           bfins      [A6 - 0x1717] {D3:D5}, D6
00000CAE  EBEA C0C1 C3C2           bfexts     D4, [A2 - 0x3C3E] {3:1}
00000CB4  C7C6                     muls.w     D3, D6
00000CB6  C4C5                     mulu.w     D2, D5
00000CB8  CFCE                     muls.w     D7, A6
00000CBA  CCCD                     mulu.w     D6, A5
00000CBC  C8C9                     mulu.w     D4, A1
00000CBE  CBCA                     muls.w     D5, A2
00000CC0  DFDE                     add.l      A7, [A6]+
00000CC2  DCDD                     add.w      A6, [A5]+
00000CC4  D8D9                     add.w      A4, [A1]+
00000CC6  DBDA                     add.l      A5, [A2]+
00000CC8  D0D1                     add.w      A0, [A1]
00000CCA  D3D2                     add.l      A1, [A2]
00000CCC  D7D6                     add.l      A3, [A6]
00000CCE  D4D5                     add.w      A2, [A5]
00000CD0  8081                     or.l       D0, D1
00000CD2  8382 8786                unpk       D1, D2, 0x8786
00000CD6  8485                     or.l       D2, D5
00000CD8  8F8E 8C8D                unpk       -[A7], -[A6], 0x8C8D
00000CDC  8889                     or.l       D4, A1
00000CDE  8B8A 9F9E                unpk       -[A5], -[A2], 0x9F9E
00000CE2  9C9D                     sub.l      D6, [A5]+
00000CE4  9899                     sub.l      D4, [A1]+
00000CE6  9B9A                     sub.l      [A2]+, D5
00000CE8  9091                     sub.l      D0, [A1]
00000CEA  9392                     sub.l      [A2], D1
00000CEC  9796                     sub.l      [A6], D3
00000CEE  9495                     sub.l      D2, [A5]
00000CF0  BFBE                     xor.l      <<invalid special address>>, D7
00000CF2  BCBD                     cmp.l      D6, <<invalid special address>>
00000CF4  B8B9 BBBA B0B1           cmp.l      D4, [0xBBBAB0B1]
00000CFA  B3B2 B7B6 B4B5 A0A1 A3A2 xor.l      [[-0x4B4A5F5F] + A3 * 8 - 0x5C5E], D1
00000D04  A7A6                     syscall    vStdEntry, flags=7
00000D06  A4A5                     syscall    VisRegionChanged, flags=4
00000D08  AFAE                     syscall    scIndTab4, auto_pop
00000D0A  ACAD                     syscall    PtInRect, auto_pop
00000D0C  A8A9                     syscall    InsetRect
00000D0E  ABAA                     syscall    stSearchTab
00000D10  0001 0302                ori.b      D1, 0x2
00000D14  0706                     btst       D6, D3
00000D16  0405 0F0E                subi.b     D5, 0xE
00000D1A  0C0D 0809                cmpi.b     A5, 0x9 /* '\t' */
00000D1E  0B0A                     btst       A2, D5
00000D20  1F1E                     move.b     -[A7], [A6]+
00000D22  1C1D                     move.b     D6, [A5]+
00000D24  1819                     move.b     D4, [A1]+
00000D26  1B1A                     move.b     -[A5], [A2]+
00000D28  1011                     move.b     D0, [A1]
00000D2A  1312                     move.b     -[A1], [A2]
00000D2C  1716                     move.b     -[A3], [A6]
00000D2E  1415                     move.b     D2, [A5]
00000D30  3F3E                     move.w     -[A7], <<invalid special address>>
00000D32  3C3D                     move.w     D6, <<invalid special address>>
00000D34  3839 3B3A 3031           move.w     D4, [0x3B3A3031]
00000D3A  3332 3736 3435 2021 2322 move.w     -[A1], [[A2 + 0x34352021] + D3 * 8 + 0x2322]
00000D44  2726                     move.l     -[A3], -[A6]
00000D46  2425                     move.l     D2, -[A5]
00000D48  2F2E 2C2D                move.l     -[A7], [A6 + 0x2C2D]
00000D4C  2829 2B2A                move.l     D4, [A1 + 0x2B2A]
00000D50  7F7E                     moveq.l    D7, 0x7E
00000D52  7C7D                     moveq.l    D6, 0x7D
00000D54  7879                     moveq.l    D4, 0x79
00000D56  7B7A                     moveq.l    D5, 0x7A
00000D58  7071                     moveq.l    D0, 0x71
00000D5A  7372                     moveq.l    D1, 0x72
00000D5C  7776                     moveq.l    D3, 0x76
00000D5E  7475                     moveq.l    D2, 0x75
00000D60  6061                     bra        +0x63 /* 00000DC3 */
00000D62  6362                     bls        +0x64 /* 00000DC6 */
00000D64  6766                     beq        +0x68 /* 00000DCC */
00000D66  6465                     bcc        +0x67 /* 00000DCD */
00000D68  6F6E                     ble        +0x70 /* 00000DD8 */
00000D6A  6C6D                     bge        +0x6F /* 00000DD9 */
00000D6C  6869                     bvc        +0x6B /* 00000DD7 */
00000D6E  6B6A                     bmi        +0x6C /* 00000DDA */
00000D70  4041                     negx.w     D1
00000D72  4342                     chk.w      D1, D2
00000D74  4746                     chk.w      D3, D6
00000D76  4445                     neg.w      D5
00000D78  4F4E                     chk.w      D7, A6
00000D7A  4C4D 4849                divs.l     D1:D4, A5
00000D7E  4B4A                     chk.w      D5, A2
00000D80  5F5E                     subq.w     [A6]+, 7
00000D82  5C5D                     addq.w     [A5]+, 6
00000D84  5859                     addq.w     [A1]+, 4
00000D86  5B5A                     subq.w     [A2]+, 5
00000D88  5051                     addq.w     [A1], 8
00000D8A  5352                     subq.w     [A2], 1
00000D8C  5756                     subq.w     [A6], 3
00000D8E  5455                     addq.w     [A5], 2
00000D90  0001 0203                ori.b      D1, 0x3
00000D94  0504                     btst       D4, D2
00000D96  0706                     btst       D6, D3
00000D98  0A0B 0809                xori.b     A3, 0x9 /* '\t' */
00000D9C  0F0E                     btst       A6, D7
00000D9E  0D0C                     btst       A4, D6
00000DA0  1514                     move.b     -[A2], [A4]
00000DA2  1716                     move.b     -[A3], [A6]
00000DA4  1011                     move.b     D0, [A1]
00000DA6  1213                     move.b     D1, [A3]
00000DA8  1F1E                     move.b     -[A7], [A6]+
00000DAA  1D1C                     move.b     -[A6], [A4]+
00000DAC  1A1B                     move.b     D5, [A3]+
00000DAE  1819                     move.b     D4, [A1]+
00000DB0  2A2B 2829                move.l     D5, [A3 + 0x2829]
00000DB4  2F2E 2D2C                move.l     -[A7], [A6 + 0x2D2C]
00000DB8  2021                     move.l     D0, -[A1]
00000DBA  2223                     move.l     D1, -[A3]
00000DBC  2524                     move.l     -[A2], -[A4]
00000DBE  2726                     move.l     -[A3], -[A6]
00000DC0  3F3E                     move.w     -[A7], <<invalid special address>>
00000DC2  3D3C 3A3B                move.w     -[A6], 0x3A3B /* ':;' */
label00000DC6:
00000DC6  3839 3534 3736           move.w     D4, [0x35343736]
label00000DCC:
00000DCC  3031 3233                move.w     D0, [A1 + D3.w * 2 + 0x33]
00000DD0  5554                     subq.w     [A4], 2
00000DD2  5756                     subq.w     [A6], 3
00000DD4  5051                     addq.w     [A1], 8
00000DD6  5253                     addq.w     [A3], 1
label00000DD8:
00000DD8  5F5E                     subq.w     [A6]+, 7
label00000DDA:
00000DDA  5D5C                     subq.w     [A4]+, 6
00000DDC  5A5B                     addq.w     [A3]+, 5
00000DDE  5859                     addq.w     [A1]+, 4
00000DE0  4041                     negx.w     D1
00000DE2  4243                     clr.w      D3
00000DE4  4544                     chk.w      D2, D4
00000DE6  4746                     chk.w      D3, D6
00000DE8  4A4B                     tst.w      A3
00000DEA  4849                     pea.l      A1
00000DEC  4F4E                     chk.w      D7, A6
00000DEE  4D4C                     chk.w      D6, A4
00000DF0  7F7E                     moveq.l    D7, 0x7E
00000DF2  7D7C                     moveq.l    D6, 0x7C
00000DF4  7A7B                     moveq.l    D5, 0x7B
00000DF6  7879                     moveq.l    D4, 0x79
00000DF8  7574                     moveq.l    D2, 0x74
00000DFA  7776                     moveq.l    D3, 0x76
00000DFC  7071                     moveq.l    D0, 0x71
00000DFE  7273                     moveq.l    D1, 0x73
00000E00  6A6B                     bpl        +0x6D /* 00000E6D */
00000E02  6869                     bvc        +0x6B /* 00000E6D */
00000E04  6F6E                     ble        +0x70 /* 00000E74 */
00000E06  6D6C                     blt        +0x6E /* 00000E74 */
00000E08  6061                     bra        +0x63 /* 00000E6B */
00000E0A  6263                     bhi        +0x65 /* 00000E6F */
00000E0C  6564                     bcs        +0x66 /* 00000E72 */
00000E0E  6766                     beq        +0x68 /* 00000E76 */
00000E10  AAAB                     syscall    0xAAB
00000E12  A8A9                     syscall    InsetRect
00000E14  AFAE                     syscall    scIndTab4, auto_pop
00000E16  ADAC                     syscall    AddReference, auto_pop
00000E18  A0A1                     syscall    vMRdData
00000E1A  A2A3                     syscall    0x0A3, flags=2
00000E1C  A5A4                     syscall    HeapDispatch, flags=5
00000E1E  A7A6                     syscall    vStdEntry, flags=7
00000E20  BFBE                     xor.l      <<invalid special address>>, D7
00000E22  BDBC BABB B8B9           xor.l      0xBABBB8B9, D6
00000E28  B5B4 B7B6 B0B1 B2B3 8081 xor.l      [[-0x4F4E4D4D] + A3 * 8 - 0x7F7F], D2
00000E32  8283                     or.l       D1, D3
00000E34  8584 8786                unpk       D2, D4, 0x8786
00000E38  8A8B                     or.l       D5, A3
00000E3A  8889                     or.l       D4, A1
00000E3C  8F8E 8D8C                unpk       -[A7], -[A6], 0x8D8C
00000E40  9594                     sub.l      [A4], D2
00000E42  9796                     sub.l      [A6], D3
00000E44  9091                     sub.l      D0, [A1]
00000E46  9293                     sub.l      D1, [A3]
00000E48  9F9E                     sub.l      [A6]+, D7
00000E4A  9D9C                     sub.l      [A4]+, D6
00000E4C  9A9B                     sub.l      D5, [A3]+
00000E4E  9899                     sub.l      D4, [A1]+
00000E50  FFFE                     .invalid   <<F/7/7>>
00000E52  FDFC                     .invalid   <<F/7/6>>
00000E54  FAFB F8F9                .extension 0xAFB <<F/2-3/5>> // unimplemented
00000E58  F5F4                     .invalid   <<F/7/2>>
00000E5A  F7F6                     .invalid   <<F/7/3>>
00000E5C  F0F1 F2F3                .extension 0x0F1 <<F/2-3/0>> // unimplemented
00000E60  EAEB E8E9 EFEE           bfchg      [A3 - 0x1012] {D3:D1}
00000E66  EDEC E0E1 E2E3           bfffo      D6, [A4 - 0x1D1D] {3:D1}
00000E6C  E5E4                     roxl  .w   -[A4]
00000E6E  E7E6                     rol   .w   -[A6]
00000E70  D5D4                     add.l      A2, [A4]
label00000E72:
00000E72  D7D6                     add.l      A3, [A6]
label00000E74:
00000E74  D0D1                     add.w      A0, [A1]
label00000E76:
00000E76  D2D3                     add.w      A1, [A3]
00000E78  DFDE                     add.l      A7, [A6]+
00000E7A  DDDC                     add.l      A6, [A4]+
00000E7C  DADB                     add.w      A5, [A3]+
00000E7E  D8D9                     add.w      A4, [A1]+
00000E80  C0C1                     mulu.w     D0, D1
00000E82  C2C3                     mulu.w     D1, D3
00000E84  C5C4                     muls.w     D2, D4
00000E86  C7C6                     muls.w     D3, D6
00000E88  CACB                     mulu.w     D5, A3
00000E8A  C8C9                     mulu.w     D4, A1
00000E8C  CFCE                     muls.w     D7, A6
00000E8E  CDCC                     muls.w     D6, A4
00000E90  5554                     subq.w     [A4], 2
00000E92  5756                     subq.w     [A6], 3
00000E94  5051                     addq.w     [A1], 8
00000E96  5253                     addq.w     [A3], 1
00000E98  5F5E                     subq.w     [A6]+, 7
00000E9A  5D5C                     subq.w     [A4]+, 6
00000E9C  5A5B                     addq.w     [A3]+, 5
00000E9E  5859                     addq.w     [A1]+, 4
00000EA0  4041                     negx.w     D1
00000EA2  4243                     clr.w      D3
00000EA4  4544                     chk.w      D2, D4
00000EA6  4746                     chk.w      D3, D6
00000EA8  4A4B                     tst.w      A3
00000EAA  4849                     pea.l      A1
00000EAC  4F4E                     chk.w      D7, A6
00000EAE  4D4C                     chk.w      D6, A4
00000EB0  7F7E                     moveq.l    D7, 0x7E
00000EB2  7D7C                     moveq.l    D6, 0x7C
00000EB4  7A7B                     moveq.l    D5, 0x7B
00000EB6  7879                     moveq.l    D4, 0x79
00000EB8  7574                     moveq.l    D2, 0x74
00000EBA  7776                     moveq.l    D3, 0x76
00000EBC  7071                     moveq.l    D0, 0x71
00000EBE  7273                     moveq.l    D1, 0x73
00000EC0  6A6B                     bpl        +0x6D /* 00000F2D */
00000EC2  6869                     bvc        +0x6B /* 00000F2D */
00000EC4  6F6E                     ble        +0x70 /* 00000F34 */
00000EC6  6D6C                     blt        +0x6E /* 00000F34 */
00000EC8  6061                     bra        +0x63 /* 00000F2B */
00000ECA  6263                     bhi        +0x65 /* 00000F2F */
00000ECC  6564                     bcs        +0x66 /* 00000F32 */
00000ECE  6766                     beq        +0x68 /* 00000F36 */
00000ED0  0001 0203                ori.b      D1, 0x3
00000ED4  0504                     btst       D4, D2
00000ED6  0706                     btst       D6, D3
00000ED8  0A0B 0809                xori.b     A3, 0x9 /* '\t' */
00000EDC  0F0E                     btst       A6, D7
00000EDE  0D0C                     btst       A4, D6
00000EE0  1514                     move.b     -[A2], [A4]
00000EE2  1716                     move.b     -[A3], [A6]
00000EE4  1011                     move.b     D0, [A1]
00000EE6  1213                     move.b     D1, [A3]
00000EE8  1F1E                     move.b     -[A7], [A6]+
00000EEA  1D1C                     move.b     -[A6], [A4]+
00000EEC  1A1B                     move.b     D5, [A3]+
00000EEE  1819                     move.b     D4, [A1]+
00000EF0  2A2B 2829                move.l     D5, [A3 + 0x2829]
00000EF4  2F2E 2D2C                move.l     -[A7], [A6 + 0x2D2C]
00000EF8  2021                     move.l     D0, -[A1]
00000EFA  2223                     move.l     D1, -[A3]
00000EFC  2524                     move.l     -[A2], -[A4]
00000EFE  2726                     move.l     -[A3], -[A6]
00000F00  3F3E                     move.w     -[A7], <<invalid special address>>
00000F02  3D3C 3A3B                move.w     -[A6], 0x3A3B /* ':;' */
00000F06  3839 3534 3736           move.w     D4, [0x35343736]
00000F0C  3031 3233                move.w     D0, [A1 + D3.w * 2 + 0x33]
00000F10  FFFE                     .invalid   <<F/7/7>>
00000F12  FDFC                     .invalid   <<F/7/6>>
00000F14  FAFB F8F9                .extension 0xAFB <<F/2-3/5>> // unimplemented
00000F18  F5F4                     .invalid   <<F/7/2>>
00000F1A  F7F6                     .invalid   <<F/7/3>>
00000F1C  F0F1 F2F3                .extension 0x0F1 <<F/2-3/0>> // unimplemented
00000F20  EAEB E8E9 EFEE           bfchg      [A3 - 0x1012] {D3:D1}
00000F26  EDEC E0E1 E2E3           bfffo      D6, [A4 - 0x1D1D] {3:D1}
00000F2C  E5E4                     roxl  .w   -[A4]
00000F2E  E7E6                     rol   .w   -[A6]
00000F30  D5D4                     add.l      A2, [A4]
label00000F32:
00000F32  D7D6                     add.l      A3, [A6]
label00000F34:
00000F34  D0D1                     add.w      A0, [A1]
label00000F36:
00000F36  D2D3                     add.w      A1, [A3]
00000F38  DFDE                     add.l      A7, [A6]+
00000F3A  DDDC                     add.l      A6, [A4]+
00000F3C  DADB                     add.w      A5, [A3]+
00000F3E  D8D9                     add.w      A4, [A1]+
00000F40  C0C1                     mulu.w     D0, D1
00000F42  C2C3                     mulu.w     D1, D3
00000F44  C5C4                     muls.w     D2, D4
00000F46  C7C6                     muls.w     D3, D6
00000F48  CACB                     mulu.w     D5, A3
00000F4A  C8C9                     mulu.w     D4, A1
00000F4C  CFCE                     muls.w     D7, A6
00000F4E  CDCC                     muls.w     D6, A4
00000F50  AAAB                     syscall    0xAAB
00000F52  A8A9                     syscall    InsetRect
00000F54  AFAE                     syscall    scIndTab4, auto_pop
00000F56  ADAC                     syscall    AddReference, auto_pop
00000F58  A0A1                     syscall    vMRdData
00000F5A  A2A3                     syscall    0x0A3, flags=2
00000F5C  A5A4                     syscall    HeapDispatch, flags=5
00000F5E  A7A6                     syscall    vStdEntry, flags=7
00000F60  BFBE                     xor.l      <<invalid special address>>, D7
00000F62  BDBC BABB B8B9           xor.l      0xBABBB8B9, D6
00000F68  B5B4 B7B6 B0B1 B2B3 8081 xor.l      [[-0x4F4E4D4D] + A3 * 8 - 0x7F7F], D2
00000F72  8283                     or.l       D1, D3
00000F74  8584 8786                unpk       D2, D4, 0x8786
00000F78  8A8B                     or.l       D5, A3
00000F7A  8889                     or.l       D4, A1
00000F7C  8F8E 8D8C                unpk       -[A7], -[A6], 0x8D8C
00000F80  9594                     sub.l      [A4], D2
00000F82  9796                     sub.l      [A6], D3
00000F84  9091                     sub.l      D0, [A1]
00000F86  9293                     sub.l      D1, [A3]
00000F88  9F9E                     sub.l      [A6]+, D7
00000F8A  9D9C                     sub.l      [A4]+, D6
00000F8C  9A9B                     sub.l      D5, [A3]+
00000F8E  9899                     sub.l      D4, [A1]+
00000F90  AAAB                     syscall    0xAAB
00000F92  A8A9                     syscall    InsetRect
00000F94  AFAE                     syscall    scIndTab4, auto_pop
00000F96  ADAC                     syscall    AddReference, auto_pop
00000F98  A0A1                     syscall    vMRdData
00000F9A  A2A3                     syscall    0x0A3, flags=2
00000F9C  A5A4                     syscall    HeapDispatch, flags=5
00000F9E  A7A6                     syscall    vStdEntry, flags=7
00000FA0  BFBE                     xor.l      <<invalid special address>>, D7
00000FA2  BDBC BABB B8B9           xor.l      0xBABBB8B9, D6
00000FA8  B5B4 B7B6 B0B1 B2B3 8081 xor.l      [[-0x4F4E4D4D] + A3 * 8 - 0x7F7F], D2
00000FB2  8283                     or.l       D1, D3
00000FB4  8584 8786                unpk       D2, D4, 0x8786
00000FB8  8A8B                     or.l       D5, A3
00000FBA  8889                     or.l       D4, A1
00000FBC  8F8E 8D8C                unpk       -[A7], -[A6], 0x8D8C
00000FC0  9594                     sub.l      [A4], D2
00000FC2  9796                     sub.l      [A6], D3
00000FC4  9091                     sub.l      D0, [A1]
00000FC6  9293                     sub.l      D1, [A3]
00000FC8  9F9E                     sub.l      [A6]+, D7
00000FCA  9D9C                     sub.l      [A4]+, D6
00000FCC  9A9B                     sub.l      D5, [A3]+
00000FCE  9899                     sub.l      D4, [A1]+
00000FD0  FFFE                     .invalid   <<F/7/7>>
00000FD2  FDFC                     .invalid   <<F/7/6>>
00000FD4  FAFB F8F9                .extension 0xAFB <<F/2-3/5>> // unimplemented
00000FD8  F5F4                     .invalid   <<F/7/2>>
00000FDA  F7F6                     .invalid   <<F/7/3>>
00000FDC  F0F1 F2F3                .extension 0x0F1 <<F/2-3/0>> // unimplemented
00000FE0  EAEB E8E9 EFEE           bfchg      [A3 - 0x1012] {D3:D1}
00000FE6  EDEC E0E1 E2E3           bfffo      D6, [A4 - 0x1D1D] {3:D1}
00000FEC  E5E4                     roxl  .w   -[A4]
00000FEE  E7E6                     rol   .w   -[A6]
00000FF0  D5D4                     add.l      A2, [A4]
00000FF2  D7D6                     add.l      A3, [A6]
00000FF4  D0D1                     add.w      A0, [A1]
00000FF6  D2D3                     add.w      A1, [A3]
00000FF8  DFDE                     add.l      A7, [A6]+
00000FFA  DDDC                     add.l      A6, [A4]+
00000FFC  DADB                     add.w      A5, [A3]+
00000FFE  D8D9                     add.w      A4, [A1]+
00001000  C0C1                     mulu.w     D0, D1
00001002  C2C3                     mulu.w     D1, D3
00001004  C5C4                     muls.w     D2, D4
00001006  C7C6                     muls.w     D3, D6
00001008  CACB                     mulu.w     D5, A3
0000100A  C8C9                     mulu.w     D4, A1
0000100C  CFCE                     muls.w     D7, A6
0000100E  CDCC                     muls.w     D6, A4
00001010  0001 0203                ori.b      D1, 0x3
00001014  0504                     btst       D4, D2
00001016  0706                     btst       D6, D3
00001018  0A0B 0809                xori.b     A3, 0x9 /* '\t' */
0000101C  0F0E                     btst       A6, D7
0000101E  0D0C                     btst       A4, D6
00001020  1514                     move.b     -[A2], [A4]
00001022  1716                     move.b     -[A3], [A6]
00001024  1011                     move.b     D0, [A1]
00001026  1213                     move.b     D1, [A3]
00001028  1F1E                     move.b     -[A7], [A6]+
0000102A  1D1C                     move.b     -[A6], [A4]+
0000102C  1A1B                     move.b     D5, [A3]+
0000102E  1819                     move.b     D4, [A1]+
00001030  2A2B 2829                move.l     D5, [A3 + 0x2829]
00001034  2F2E 2D2C                move.l     -[A7], [A6 + 0x2D2C]
00001038  2021                     move.l     D0, -[A1]
0000103A  2223                     move.l     D1, -[A3]
0000103C  2524                     move.l     -[A2], -[A4]
0000103E  2726                     move.l     -[A3], -[A6]
00001040  3F3E                     move.w     -[A7], <<invalid special address>>
00001042  3D3C 3A3B                move.w     -[A6], 0x3A3B /* ':;' */
00001046  3839 3534 3736           move.w     D4, [0x35343736]
0000104C  3031 3233                move.w     D0, [A1 + D3.w * 2 + 0x33]
00001050  5554                     subq.w     [A4], 2
00001052  5756                     subq.w     [A6], 3
00001054  5051                     addq.w     [A1], 8
00001056  5253                     addq.w     [A3], 1
00001058  5F5E                     subq.w     [A6]+, 7
0000105A  5D5C                     subq.w     [A4]+, 6
0000105C  5A5B                     addq.w     [A3]+, 5
0000105E  5859                     addq.w     [A1]+, 4
00001060  4041                     negx.w     D1
00001062  4243                     clr.w      D3
00001064  4544                     chk.w      D2, D4
00001066  4746                     chk.w      D3, D6
00001068  4A4B                     tst.w      A3
0000106A  4849                     pea.l      A1
0000106C  4F4E                     chk.w      D7, A6
0000106E  4D4C                     chk.w      D6, A4
00001070  7F7E                     moveq.l    D7, 0x7E
00001072  7D7C                     moveq.l    D6, 0x7C
00001074  7A7B                     moveq.l    D5, 0x7B
00001076  7879                     moveq.l    D4, 0x79
00001078  7574                     moveq.l    D2, 0x74
0000107A  7776                     moveq.l    D3, 0x76
0000107C  7071                     moveq.l    D0, 0x71
0000107E  7273                     moveq.l    D1, 0x73
00001080  6A6B                     bpl        +0x6D /* 000010ED */
00001082  6869                     bvc        +0x6B /* 000010ED */
00001084  6F6E                     ble        +0x70 /* 000010F4 */
00001086  6D6C                     blt        +0x6E /* 000010F4 */
00001088  6061                     bra        +0x63 /* 000010EB */
0000108A  6263                     bhi        +0x65 /* 000010EF */
0000108C  6564                     bcs        +0x66 /* 000010F2 */
0000108E  6766                     beq        +0x68 /* 000010F6 */
00001090  FFFE                     .invalid   <<F/7/7>>
00001092  FDFC                     .invalid   <<F/7/6>>
00001094  FAFB F8F9                .extension 0xAFB <<F/2-3/5>> // unimplemented
00001098  F5F4                     .invalid   <<F/7/2>>
0000109A  F7F6                     .invalid   <<F/7/3>>
0000109C  F0F1 F2F3                .extension 0x0F1 <<F/2-3/0>> // unimplemented
000010A0  EAEB E8E9 EFEE           bfchg      [A3 - 0x1012] {D3:D1}
000010A6  EDEC E0E1 E2E3           bfffo      D6, [A4 - 0x1D1D] {3:D1}
000010AC  E5E4                     roxl  .w   -[A4]
000010AE  E7E6                     rol   .w   -[A6]
000010B0  D5D4                     add.l      A2, [A4]
000010B2  D7D6                     add.l      A3, [A6]
000010B4  D0D1                     add.w      A0, [A1]
000010B6  D2D3                     add.w      A1, [A3]
000010B8  DFDE                     add.l      A7, [A6]+
000010BA  DDDC                     add.l      A6, [A4]+
000010BC  DADB                     add.w      A5, [A3]+
000010BE  D8D9                     add.w      A4, [A1]+
000010C0  C0C1                     mulu.w     D0, D1
000010C2  C2C3                     mulu.w     D1, D3
000010C4  C5C4                     muls.w     D2, D4
000010C6  C7C6                     muls.w     D3, D6
000010C8  CACB                     mulu.w     D5, A3
000010CA  C8C9                     mulu.w     D4, A1
000010CC  CFCE                     muls.w     D7, A6
000010CE  CDCC                     muls.w     D6, A4
000010D0  AAAB                     syscall    0xAAB
000010D2  A8A9                     syscall    InsetRect
000010D4  AFAE                     syscall    scIndTab4, auto_pop
000010D6  ADAC                     syscall    AddReference, auto_pop
000010D8  A0A1                     syscall    vMRdData
000010DA  A2A3                     syscall    0x0A3, flags=2
000010DC  A5A4                     syscall    HeapDispatch, flags=5
000010DE  A7A6                     syscall    vStdEntry, flags=7
000010E0  BFBE                     xor.l      <<invalid special address>>, D7
000010E2  BDBC BABB B8B9           xor.l      0xBABBB8B9, D6
000010E8  B5B4 B7B6 B0B1 B2B3 8081 xor.l      [[-0x4F4E4D4D] + A3 * 8 - 0x7F7F], D2
label000010F2:
000010F2  8283                     or.l       D1, D3
label000010F4:
000010F4  8584 8786                unpk       D2, D4, 0x8786
// begin alternate branch 000010F6-000010FA
label000010F6:
000010F6  8786 8A8B                unpk       D3, D6, 0x8A8B
// end alternate branch 000010F6-000010FA
label000010F6: // (misaligned)
000010F8  8A8B                     or.l       D5, A3
000010FA  8889                     or.l       D4, A1
000010FC  8F8E 8D8C                unpk       -[A7], -[A6], 0x8D8C
00001100  9594                     sub.l      [A4], D2
00001102  9796                     sub.l      [A6], D3
00001104  9091                     sub.l      D0, [A1]
00001106  9293                     sub.l      D1, [A3]
00001108  9F9E                     sub.l      [A6]+, D7
0000110A  9D9C                     sub.l      [A4]+, D6
0000110C  9A9B                     sub.l      D5, [A3]+
0000110E  9899                     sub.l      D4, [A1]+
00001110  5554                     subq.w     [A4], 2
00001112  5756                     subq.w     [A6], 3
00001114  5051                     addq.w     [A1], 8
00001116  5253                     addq.w     [A3], 1
00001118  5F5E                     subq.w     [A6]+, 7
0000111A  5D5C                     subq.w     [A4]+, 6
0000111C  5A5B                     addq.w     [A3]+, 5
0000111E  5859                     addq.w     [A1]+, 4
00001120  4041                     negx.w     D1
00001122  4243                     clr.w      D3
00001124  4544                     chk.w      D2, D4
00001126  4746                     chk.w      D3, D6
00001128  4A4B                     tst.w      A3
0000112A  4849                     pea.l      A1
0000112C  4F4E                     chk.w      D7, A6
0000112E  4D4C                     chk.w      D6, A4
00001130  7F7E                     moveq.l    D7, 0x7E
00001132  7D7C                     moveq.l    D6, 0x7C
00001134  7A7B                     moveq.l    D5, 0x7B
00001136  7879                     moveq.l    D4, 0x79
00001138  7574                     moveq.l    D2, 0x74
0000113A  7776                     moveq.l    D3, 0x76
0000113C  7071                     moveq.l    D0, 0x71
0000113E  7273                     moveq.l    D1, 0x73
00001140  6A6B                     bpl        +0x6D /* 000011AD */
00001142  6869                     bvc        +0x6B /* 000011AD */
00001144  6F6E                     ble        +0x70 /* 000011B4 */
00001146  6D6C                     blt        +0x6E /* 000011B4 */
00001148  6061                     bra        +0x63 /* 000011AB */
0000114A  6263                     bhi        +0x65 /* 000011AF */
0000114C  6564                     bcs        +0x66 /* 000011B2 */
0000114E  6766                     beq        +0x68 /* 000011B6 */
00001150  0001 0203                ori.b      D1, 0x3
00001154  0504                     btst       D4, D2
00001156  0706                     btst       D6, D3
00001158  0A0B 0809                xori.b     A3, 0x9 /* '\t' */
0000115C  0F0E                     btst       A6, D7
0000115E  0D0C                     btst       A4, D6
00001160  1514                     move.b     -[A2], [A4]
00001162  1716                     move.b     -[A3], [A6]
00001164  1011                     move.b     D0, [A1]
00001166  1213                     move.b     D1, [A3]
00001168  1F1E                     move.b     -[A7], [A6]+
0000116A  1D1C                     move.b     -[A6], [A4]+
0000116C  1A1B                     move.b     D5, [A3]+
0000116E  1819                     move.b     D4, [A1]+
00001170  2A2B 2829                move.l     D5, [A3 + 0x2829]
00001174  2F2E 2D2C                move.l     -[A7], [A6 + 0x2D2C]
00001178  2021                     move.l     D0, -[A1]
0000117A  2223                     move.l     D1, -[A3]
0000117C  2524                     move.l     -[A2], -[A4]
0000117E  2726                     move.l     -[A3], -[A6]
00001180  3F3E                     move.w     -[A7], <<invalid special address>>
00001182  3D3C 3A3B                move.w     -[A6], 0x3A3B /* ':;' */
00001186  3839 3534 3736           move.w     D4, [0x35343736]
0000118C  3031 3233                move.w     D0, [A1 + D3.w * 2 + 0x33]
export_901:
fn00001190:
00001190  2050                     movea.l    A0, [A0]
00001192  224C                     movea.l    A1, A4
00001194  32E8 0002                move.w     [A1]+, [A0 + 0x2]
00001198  4259                     clr.w      [A1]+
0000119A  700F                     moveq.l    D0, 0x0F
0000119C  72FF                     moveq.l    D1, 0xFFFFFFFF
label0000119E:
0000119E  22C1                     move.l     [A1]+, D1
000011A0  51C8 FFFC                dbf        D0, -0x6 /* 0000119E */
000011A4  0C50 000A                cmpi.w     [A0], 0xA /* '\n' */
000011A8  6708                     beq        +0xA /* 000011B2 */
000011AA  41E8 000C                lea.l      A0, [A0 + 0xC]
000011AE  22C8                     move.l     [A1]+, A0
000011B0  4E75                     rts
label000011B2:
000011B2  5849                     addq.w     A1, 4
label000011B4:
000011B4  2349 FFFC                move.l     [A1 - 0x4], A1
// begin alternate branch 000011B6-000011B8
label000011B6:
000011B6  FFFC                     .invalid   <<F/7/7>>
// end alternate branch 000011B6-000011B8
label000011B6: // (misaligned)
000011B8  32E8 0004                move.w     [A1]+, [A0 + 0x4]
000011BC  32E8 0008                move.w     [A1]+, [A0 + 0x8]
000011C0  32FC 7FFF                move.w     [A1]+, 0x7FFF
000011C4  32E8 0006                move.w     [A1]+, [A0 + 0x6]
000011C8  32E8 0004                move.w     [A1]+, [A0 + 0x4]
000011CC  32E8 0008                move.w     [A1]+, [A0 + 0x8]
000011D0  32FC 7FFF                move.w     [A1]+, 0x7FFF
000011D4  32FC 7FFF                move.w     [A1]+, 0x7FFF
000011D8  4E75                     rts
export_902:
000011DA  205F                     movea.l    A0, [A7]+
000011DC  225F                     movea.l    A1, [A7]+
000011DE  303C 0155                move.w     D0, 0x155
label000011E2:
000011E2  4699                     not.l      [A1]+
000011E4  4699                     not.l      [A1]+
000011E6  4699                     not.l      [A1]+
000011E8  4699                     not.l      [A1]+
000011EA  4699                     not.l      [A1]+
000011EC  4699                     not.l      [A1]+
000011EE  4699                     not.l      [A1]+
000011F0  4699                     not.l      [A1]+
000011F2  4699                     not.l      [A1]+
000011F4  4699                     not.l      [A1]+
000011F6  4699                     not.l      [A1]+
000011F8  4699                     not.l      [A1]+
000011FA  4699                     not.l      [A1]+
000011FC  4699                     not.l      [A1]+
000011FE  4699                     not.l      [A1]+
00001200  4699                     not.l      [A1]+
00001202  51C8 FFDE                dbf        D0, -0x24 /* 000011E2 */
00001206  4ED0                     jmp        [A0]
export_903:
00001208  41FA 000C                lea.l      A0, [PC + 0xC /* 00001216, value 0x0, cstring "" */]
0000120C  20AF 0004                move.l     [A0], [A7 + 0x4]
00001210  2E9F                     move.l     [A7], [A7]+
00001212  A9F2                     syscall    Launch/LaunchApplication
00001214  4E75                     rts
00001216  0000 0000                ori.b      D0, 0x0
0000121A  0000 4C43                ori.b      D0, 0x43 /* 'C' */
0000121E  0000 0004                ori.b      D0, 0x4
00001222  0000 4000                ori.b      D0, 0x0
export_904:
00001226  201F                     move.l     D0, [A7]+
00001228  205F                     movea.l    A0, [A7]+
0000122A  2F00                     move.l     -[A7], D0
0000122C  A02A                     syscall    HUnlock
0000122E  4E75                     rts
export_905:
00001230  201F                     move.l     D0, [A7]+
00001232  205F                     movea.l    A0, [A7]+
00001234  2F00                     move.l     -[A7], D0
00001236  A049                     syscall    HPurge
00001238  4E75                     rts
export_906:
0000123A  41FA 0006                lea.l      A0, [PC + 0x6 /* 00001242, value 0xFFFFFFFF */]
0000123E  208D                     move.l     [A0], A5
00001240  4E75                     rts
00001242  FFFF                     .invalid   <<F/7/7>>
00001244  FFFF                     .invalid   <<F/7/7>>
export_907:
00001246  48E7 FF7E                movem.l    -[A7], D0,D1,D2,D3,D4,D5,D6,D7,A1,A2,A3,A4,A5,A6
0000124A  41FA FFF6                lea.l      A0, [PC - 0xA /* 00001242, value 0xFFFFFFFF */]
0000124E  2A50                     movea.l    A5, [A0]
00001250  40C0                     move.w     D0, SR
00001252  0240 0700                andi.w     D0, 0x700
00001256  660C                     bne        +0xE /* 00001264 */
00001258  4EAD 0C2A                jsr        [A5 + 0xC2A /* export_385, CODE:8 @ 00004730 */]
0000125C  4EAD 0A62                jsr        [A5 + 0xA62 /* export_328, CODE:8 @ 00002E16 */]
00001260  4EAD 0C22                jsr        [A5 + 0xC22 /* export_384, CODE:8 @ 000046FE */]
label00001264:
00001264  4CDF 7EFF                movem.l    D0,D1,D2,D3,D4,D5,D6,D7,A1,A2,A3,A4,A5,A6, [A7]+
00001268  205F                     movea.l    A0, [A7]+
0000126A  544F                     addq.w     A7, 2
0000126C  4ED0                     jmp        [A0]
export_908:
0000126E  4E56 0000                link       A6, 0
00001272  48E7 0038                movem.l    -[A7], A2,A3,A4
00001276  206E 000E                movea.l    A0, [A6 + 0xE]
0000127A  2050                     movea.l    A0, [A0]
0000127C  226E 000A                movea.l    A1, [A6 + 0xA]
00001280  2251                     movea.l    A1, [A1]
00001282  2648                     movea.l    A3, A0
00001284  D6EE 0008                add.w      A3, [A6 + 0x8]
00001288  1F2B 0002                move.b     -[A7], [A3 + 0x2]
0000128C  1F2B 0001                move.b     -[A7], [A3 + 0x1]
00001290  1F13                     move.b     -[A7], [A3]
00001292  16BC 00FF                move.b     [A3], 0xFF
00001296  422B 0001                clr.b      [A3 + 0x1]
0000129A  422B 0002                clr.b      [A3 + 0x2]
label0000129E:
0000129E  45E8 0001                lea.l      A2, [A0 + 0x1]
label000012A2:
000012A2  4A18                     tst.b      [A0]+
000012A4  67FC                     beq        -0x2 /* 000012A2 */
000012A6  2208                     move.l     D1, A0
000012A8  928A                     sub.l      D1, A2
label000012AA:
000012AA  0C41 01FF                cmpi.w     D1, 0x1FF
000012AE  6F0A                     ble        +0xC /* 000012BA */
000012B0  12FC 00FF                move.b     [A1]+, 0xFF
000012B4  0441 01F0                subi.w     D1, 0x1F0
000012B8  60F0                     bra        -0xE /* 000012AA */
label000012BA:
000012BA  0C41 000F                cmpi.w     D1, 0xF
000012BE  6F0E                     ble        +0x10 /* 000012CE */
000012C0  3001                     move.w     D0, D1
000012C2  E848                     lsr        D0.w, 4
000012C4  0000 00E0                ori.b      D0, 0xE0
000012C8  12C0                     move.b     [A1]+, D0
000012CA  0241 000F                andi.w     D1, 0xF
label000012CE:
000012CE  2849                     movea.l    A4, A1
000012D0  12C1                     move.b     [A1]+, D1
000012D2  B1CB                     cmpa.l     A0, A3
000012D4  630C                     bls        +0xE /* 000012E2 */
000012D6  4A14                     tst.b      [A4]
000012D8  6600 0076                bne        +0x78 /* 00001350 */
000012DC  5349                     subq.w     A1, 1
000012DE  6000 0070                bra        +0x72 /* 00001350 */
label000012E2:
000012E2  2448                     movea.l    A2, A0
label000012E4:
000012E4  4A18                     tst.b      [A0]+
000012E6  66FC                     bne        -0x2 /* 000012E4 */
000012E8  4A10                     tst.b      [A0]
000012EA  66F8                     bne        -0x6 /* 000012E4 */
000012EC  B1CB                     cmpa.l     A0, A3
000012EE  6500 0004                bcs        +0x6 /* 000012F4 */
000012F2  5348                     subq.w     A0, 1
label000012F4:
000012F4  2208                     move.l     D1, A0
000012F6  928A                     sub.l      D1, A2
000012F8  41EA FFFF                lea.l      A0, [A2 - 0x1]
000012FC  7007                     moveq.l    D0, 0x07
000012FE  C041                     and.w      D0, D1
00001300  670E                     beq        +0x10 /* 00001310 */
00001302  3400                     move.w     D2, D0
00001304  E948                     lsl        D0.w, 4
00001306  8114                     or.b       [A4], D0
00001308  5342                     subq.w     D2, 1
label0000130A:
0000130A  12D8                     move.b     [A1]+, [A0]+
0000130C  51CA FFFC                dbf        D2, -0x6 /* 0000130A */
label00001310:
00001310  E649                     lsr        D1.w, 3
00001312  6736                     beq        +0x38 /* 0000134A */
label00001314:
00001314  0C41 001F                cmpi.w     D1, 0x1F
00001318  6F14                     ble        +0x16 /* 0000132E */
0000131A  12FC 00DF                move.b     [A1]+, 0xDF
0000131E  303C 00F7                move.w     D0, 0xF7
label00001322:
00001322  12D8                     move.b     [A1]+, [A0]+
00001324  51C8 FFFC                dbf        D0, -0x6 /* 00001322 */
00001328  0441 001F                subi.w     D1, 0x1F
0000132C  60E6                     bra        -0x18 /* 00001314 */
label0000132E:
0000132E  12BC 00C0                move.b     [A1], 0xC0
00001332  8319                     or.b       [A1]+, D1
00001334  5341                     subq.w     D1, 1
label00001336:
00001336  12D8                     move.b     [A1]+, [A0]+
00001338  12D8                     move.b     [A1]+, [A0]+
0000133A  12D8                     move.b     [A1]+, [A0]+
0000133C  12D8                     move.b     [A1]+, [A0]+
0000133E  12D8                     move.b     [A1]+, [A0]+
00001340  12D8                     move.b     [A1]+, [A0]+
00001342  12D8                     move.b     [A1]+, [A0]+
00001344  12D8                     move.b     [A1]+, [A0]+
00001346  51C9 FFEE                dbf        D1, -0x14 /* 00001336 */
label0000134A:
0000134A  B1CB                     cmpa.l     A0, A3
0000134C  6500 FF50                bcs        -0xAE /* 0000129E */
label00001350:
00001350  246E 000E                movea.l    A2, [A6 + 0xE]
00001354  248B                     move.l     [A2], A3
00001356  246E 000A                movea.l    A2, [A6 + 0xA]
0000135A  2489                     move.l     [A2], A1
0000135C  16DF                     move.b     [A3]+, [A7]+
0000135E  16DF                     move.b     [A3]+, [A7]+
00001360  16DF                     move.b     [A3]+, [A7]+
00001362  4CDF 1C00                movem.l    A2,A3,A4, [A7]+
00001366  4E5E                     unlink     A6
00001368  205F                     movea.l    A0, [A7]+
0000136A  DEFC 000A                add.w      A7, 0xA /* '\n' */
0000136E  4ED0                     jmp        [A0]
export_909:
00001370  4E56 0000                link       A6, 0
00001374  48E7 1F38                movem.l    -[A7], D3,D4,D5,D6,D7,A2,A3,A4
00001378  282E 0010                move.l     D4, [A6 + 0x10]
0000137C  0284 0FFF FFF8           andi.l     D4, 0xFFFFFF8
00001382  2A2E 000C                move.l     D5, [A6 + 0xC]
00001386  E78D                     lsl        D5, 3
00001388  DA84                     add.l      D5, D4
0000138A  5185                     subq.l     D5, 8
0000138C  286E 0008                movea.l    A4, [A6 + 0x8]
00001390  2C0F                     move.l     D6, A7
00001392  2F04                     move.l     -[A7], D4
00001394  2F05                     move.l     -[A7], D5
label00001396:
00001396  2A1F                     move.l     D5, [A7]+
00001398  281F                     move.l     D4, [A7]+
label0000139A:
0000139A  2444                     movea.l    A2, D4
0000139C  2645                     movea.l    A3, D5
0000139E  2004                     move.l     D0, D4
000013A0  D085                     add.l      D0, D5
000013A2  E290                     roxr       D0, 1
000013A4  0200 00F8                andi.b     D0, 0xF8
000013A8  2040                     movea.l    A0, D0
000013AA  2628 0004                move.l     D3, [A0 + 0x4]
000013AE  2E10                     move.l     D7, [A0]
000013B0  6002                     bra        +0x4 /* 000013B4 */
label000013B2:
000013B2  504A                     addq.w     A2, 8
label000013B4:
000013B4  BE92                     cmp.l      D7, [A2]
000013B6  670E                     beq        +0x10 /* 000013C6 */
000013B8  4267                     clr.w      -[A7]
000013BA  2F12                     move.l     -[A7], [A2]
000013BC  2F07                     move.l     -[A7], D7
000013BE  4E94                     jsr        [A4]
000013C0  301F                     move.w     D0, [A7]+
000013C2  6DEE                     blt        -0x10 /* 000013B2 */
000013C4  6E0C                     bgt        +0xE /* 000013D2 */
label000013C6:
000013C6  202A 0004                move.l     D0, [A2 + 0x4]
000013CA  B083                     cmp.l      D0, D3
000013CC  6DE4                     blt        -0x1A /* 000013B2 */
000013CE  6002                     bra        +0x4 /* 000013D2 */
label000013D0:
000013D0  514B                     subq.w     A3, 8
label000013D2:
000013D2  BE93                     cmp.l      D7, [A3]
000013D4  670E                     beq        +0x10 /* 000013E4 */
000013D6  4267                     clr.w      -[A7]
000013D8  2F13                     move.l     -[A7], [A3]
000013DA  2F07                     move.l     -[A7], D7
000013DC  4E94                     jsr        [A4]
000013DE  301F                     move.w     D0, [A7]+
000013E0  6EEE                     bgt        -0x10 /* 000013D0 */
000013E2  6D08                     blt        +0xA /* 000013EC */
label000013E4:
000013E4  202B 0004                move.l     D0, [A3 + 0x4]
000013E8  B083                     cmp.l      D0, D3
000013EA  6EE4                     bgt        -0x1A /* 000013D0 */
label000013EC:
000013EC  B5CB                     cmpa.l     A2, A3
000013EE  6210                     bhi        +0x12 /* 00001400 */
000013F0  2012                     move.l     D0, [A2]
000013F2  24D3                     move.l     [A2]+, [A3]
000013F4  26C0                     move.l     [A3]+, D0
000013F6  2012                     move.l     D0, [A2]
000013F8  24D3                     move.l     [A2]+, [A3]
000013FA  26C0                     move.l     [A3]+, D0
000013FC  96FC 0010                sub.w      A3, 0x10
label00001400:
00001400  B5CB                     cmpa.l     A2, A3
00001402  63B0                     bls        -0x4E /* 000013B4 */
00001404  B5C5                     cmpa.l     A2, D5
00001406  6404                     bcc        +0x6 /* 0000140C */
00001408  2F0A                     move.l     -[A7], A2
0000140A  2F05                     move.l     -[A7], D5
label0000140C:
0000140C  2A0B                     move.l     D5, A3
0000140E  B885                     cmp.l      D4, D5
00001410  6588                     bcs        -0x76 /* 0000139A */
00001412  BFC6                     cmpa.l     A7, D6
00001414  6680                     bne        -0x7E /* 00001396 */
00001416  4CDF 1CF8                movem.l    D3,D4,D5,D6,D7,A2,A3,A4, [A7]+
0000141A  4E5E                     unlink     A6
0000141C  205F                     movea.l    A0, [A7]+
0000141E  DEFC 000C                add.w      A7, 0xC
00001422  4ED0                     jmp        [A0]
export_910:
fn00001424:
00001424  4A2D FF75                tst.b      [A5 - 0x8B]
00001428  6706                     beq        +0x8 /* 00001430 */
0000142A  302D FF72                move.w     D0, [A5 - 0x8E]
0000142E  A05D                     syscall    SwapMMUMode
label00001430:
00001430  4E75                     rts
export_911:
00001432  4E56 FFA8                link       A6, -0x0058
00001436  48E7 0308                movem.l    -[A7], D6,D7,A4
0000143A  49EE FFA8                lea.l      A4, [A6 - 0x58]
0000143E  206E 000C                movea.l    A0, [A6 + 0xC]
00001442  4EBA FD4C                jsr        [PC - 0x2B4 /* 00001190 */]
00001446  226E 0008                movea.l    A1, [A6 + 0x8]
0000144A  7E00                     moveq.l    D7, 0x00
0000144C  7C00                     moveq.l    D6, 0x00
label0000144E:
0000144E  BE54                     cmp.w      D7, [A4]
00001450  6D04                     blt        +0x6 /* 00001456 */
00001452  4EBA 00E8                jsr        [PC + 0xE8 /* 0000153C */]
label00001456:
00001456  4A2E FFAA                tst.b      [A6 - 0x56]
0000145A  6626                     bne        +0x28 /* 00001482 */
0000145C  41EE FFAC                lea.l      A0, [A6 - 0x54]
00001460  22D8                     move.l     [A1]+, [A0]+
00001462  22D8                     move.l     [A1]+, [A0]+
00001464  22D8                     move.l     [A1]+, [A0]+
00001466  22D8                     move.l     [A1]+, [A0]+
00001468  22D8                     move.l     [A1]+, [A0]+
0000146A  22D8                     move.l     [A1]+, [A0]+
0000146C  22D8                     move.l     [A1]+, [A0]+
0000146E  22D8                     move.l     [A1]+, [A0]+
00001470  22D8                     move.l     [A1]+, [A0]+
00001472  22D8                     move.l     [A1]+, [A0]+
00001474  22D8                     move.l     [A1]+, [A0]+
00001476  22D8                     move.l     [A1]+, [A0]+
00001478  22D8                     move.l     [A1]+, [A0]+
0000147A  22D8                     move.l     [A1]+, [A0]+
0000147C  22D8                     move.l     [A1]+, [A0]+
0000147E  22D8                     move.l     [A1]+, [A0]+
00001480  6020                     bra        +0x22 /* 000014A2 */
label00001482:
00001482  22C6                     move.l     [A1]+, D6
00001484  22C6                     move.l     [A1]+, D6
00001486  22C6                     move.l     [A1]+, D6
00001488  22C6                     move.l     [A1]+, D6
0000148A  22C6                     move.l     [A1]+, D6
0000148C  22C6                     move.l     [A1]+, D6
0000148E  22C6                     move.l     [A1]+, D6
00001490  22C6                     move.l     [A1]+, D6
00001492  22C6                     move.l     [A1]+, D6
00001494  22C6                     move.l     [A1]+, D6
00001496  22C6                     move.l     [A1]+, D6
00001498  22C6                     move.l     [A1]+, D6
0000149A  22C6                     move.l     [A1]+, D6
0000149C  22C6                     move.l     [A1]+, D6
0000149E  22C6                     move.l     [A1]+, D6
000014A0  22C6                     move.l     [A1]+, D6
label000014A2:
000014A2  5247                     addq.w     D7, 1
000014A4  0C47 0156                cmpi.w     D7, 0x156
000014A8  66A4                     bne        -0x5A /* 0000144E */
000014AA  4CDF 10C0                movem.l    D6,D7,A4, [A7]+
000014AE  4E5E                     unlink     A6
000014B0  205F                     movea.l    A0, [A7]+
000014B2  504F                     addq.w     A7, 8
000014B4  4ED0                     jmp        [A0]
export_912:
000014B6  205F                     movea.l    A0, [A7]+
000014B8  321F                     move.w     D1, [A7]+
000014BA  201F                     move.l     D0, [A7]+
000014BC  225F                     movea.l    A1, [A7]+
000014BE  5341                     subq.w     D1, 1
000014C0  6D06                     blt        +0x8 /* 000014C8 */
label000014C2:
000014C2  B099                     cmp.l      D0, [A1]+
000014C4  56C9 FFFC                dbne       D1, -0x6 /* 000014C2 */
label000014C8:
000014C8  57D7                     seq        [A7]
000014CA  4417                     neg.b      [A7]
000014CC  4ED0                     jmp        [A0]
export_913:
000014CE  201F                     move.l     D0, [A7]+
000014D0  221F                     move.l     D1, [A7]+
000014D2  225F                     movea.l    A1, [A7]+
000014D4  205F                     movea.l    A0, [A7]+
000014D6  4217                     clr.b      [A7]
000014D8  2F00                     move.l     -[A7], D0
000014DA  48E7 1020                movem.l    -[A7], D3,A2
000014DE  2441                     movea.l    A2, D1
000014E0  363C 155F                move.w     D3, 0x155F
label000014E4:
000014E4  2018                     move.l     D0, [A0]+
000014E6  2219                     move.l     D1, [A1]+
000014E8  241A                     move.l     D2, [A2]+
000014EA  4681                     not.l      D1
000014EC  C280                     and.l      D1, D0
000014EE  8282                     or.l       D1, D2
000014F0  B282                     cmp.l      D1, D2
000014F2  56CB FFF0                dbne       D3, -0x12 /* 000014E4 */
000014F6  6606                     bne        +0x8 /* 000014FE */
000014F8  1F7C 0001 000C           move.b     [A7 + 0xC], 0x1
label000014FE:
000014FE  4CDF 0408                movem.l    D3,A2, [A7]+
00001502  4E75                     rts
export_914:
00001504  201F                     move.l     D0, [A7]+
00001506  221F                     move.l     D1, [A7]+
00001508  225F                     movea.l    A1, [A7]+
0000150A  205F                     movea.l    A0, [A7]+
0000150C  4217                     clr.b      [A7]
0000150E  2F00                     move.l     -[A7], D0
00001510  48E7 1020                movem.l    -[A7], D3,A2
00001514  2441                     movea.l    A2, D1
00001516  363C 155F                move.w     D3, 0x155F
label0000151A:
0000151A  2018                     move.l     D0, [A0]+
0000151C  2219                     move.l     D1, [A1]+
0000151E  241A                     move.l     D2, [A2]+
00001520  4681                     not.l      D1
00001522  C280                     and.l      D1, D0
00001524  8282                     or.l       D1, D2
00001526  8082                     or.l       D0, D2
00001528  B081                     cmp.l      D0, D1
0000152A  56CB FFEE                dbne       D3, -0x14 /* 0000151A */
0000152E  6606                     bne        +0x8 /* 00001536 */
00001530  1F7C 0001 000C           move.b     [A7 + 0xC], 0x1
label00001536:
00001536  4CDF 0408                movem.l    D3,A2, [A7]+
0000153A  4E75                     rts
export_915:
fn0000153C:
0000153C  48E7 18C0                movem.l    -[A7], D3,D4,A0,A1
00001540  206C 0044                movea.l    A0, [A4 + 0x44]
label00001544:
00001544  3218                     move.w     D1, [A0]+
00001546  0C41 7FFF                cmpi.w     D1, 0x7FFF
0000154A  6622                     bne        +0x24 /* 0000156E */
0000154C  3018                     move.w     D0, [A0]+
0000154E  BE40                     cmp.w      D7, D0
00001550  6CF2                     bge        -0xC /* 00001544 */
00001552  3880                     move.w     [A4], D0
00001554  2948 0044                move.l     [A4 + 0x44], A0
00001558  41EC 0004                lea.l      A0, [A4 + 0x4]
0000155C  700F                     moveq.l    D0, 0x0F
label0000155E:
0000155E  4A98                     tst.l      [A0]+
00001560  56C8 FFFC                dbne       D0, -0x6 /* 0000155E */
00001564  57EC 0002                seq        [A4 + 0x2]
00001568  4CDF 0318                movem.l    D3,D4,A0,A1, [A7]+
0000156C  4E75                     rts
label0000156E:
0000156E  3418                     move.w     D2, [A0]+
00001570  700F                     moveq.l    D0, 0x0F
00001572  3601                     move.w     D3, D1
00001574  C640                     and.w      D3, D0
00001576  D643                     add.w      D3, D3
00001578  363B 3036                move.w     D3, [PC + D3.w + 0x36]
0000157C  4643                     not.w      D3
0000157E  3802                     move.w     D4, D2
00001580  C840                     and.w      D4, D0
00001582  D844                     add.w      D4, D4
00001584  383B 402A                move.w     D4, [PC + D4.w + 0x2A]
00001588  E849                     lsr        D1.w, 4
0000158A  43EC 0004                lea.l      A1, [A4 + 0x4]
0000158E  D2C1                     add.w      A1, D1
00001590  D2C1                     add.w      A1, D1
00001592  E84A                     lsr        D2.w, 4
00001594  9441                     sub.w      D2, D1
00001596  6E06                     bgt        +0x8 /* 0000159E */
00001598  C843                     and.w      D4, D3
0000159A  B951                     xor.w      [A1], D4
0000159C  60A6                     bra        -0x58 /* 00001544 */
label0000159E:
0000159E  B759                     xor.w      [A1]+, D3
000015A0  6002                     bra        +0x4 /* 000015A4 */
label000015A2:
000015A2  4699                     not.l      [A1]+
label000015A4:
000015A4  5542                     subq.w     D2, 2
000015A6  6EFA                     bgt        -0x4 /* 000015A2 */
000015A8  6D02                     blt        +0x4 /* 000015AC */
000015AA  4659                     not.w      [A1]+
label000015AC:
000015AC  B951                     xor.w      [A1], D4
000015AE  6094                     bra        -0x6A /* 00001544 */
000015B0  0000 8000                ori.b      D0, 0x0
000015B4  C000                     and.b      D0, D0
000015B6  E000                     asr        D0.b, 8
000015B8  F000 F800                .invalid   0xF000, 0xF800 // unimplemented
000015BC  FC00 FE00                .unknown   0xFC00 0xFE00 (W = 6)
000015C0  FF00                     .extension 0xF00 <<F/4-5/7>> // unimplemented
000015C2  FF80                     .invalid   <<F/6/7>>
000015C4  FFC0                     .invalid   <<F/7/7>>
000015C6  FFE0                     .invalid   <<F/7/7>>
000015C8  FFF0                     .invalid   <<F/7/7>>
000015CA  FFF8                     .invalid   <<F/7/7>>
000015CC  FFFC                     .invalid   <<F/7/7>>
000015CE  FFFE                     .invalid   <<F/7/7>>
export_916:
000015D0  4E56 0000                link       A6, 0
000015D4  2078 0AEC                movea.l    A0, [0x00000AEC /* AppParmHandle */]
000015D8  A02A                     syscall    HUnlock
000015DA  203C 0000 010E           move.l     D0, 0x10E
000015E0  A024                     syscall    SetHandleSize
000015E2  2078 0AEC                movea.l    A0, [0x00000AEC /* AppParmHandle */]
000015E6  2250                     movea.l    A1, [A0]
000015E8  4299                     clr.l      [A1]+
000015EA  4A2E 0008                tst.b      [A6 + 0x8]
000015EE  6706                     beq        +0x8 /* 000015F6 */
000015F0  337C 0001 FFFC           move.w     [A1 - 0x4], 0x1
label000015F6:
000015F6  206E 000A                movea.l    A0, [A6 + 0xA]
000015FA  4240                     clr.w      D0
000015FC  1010                     move.b     D0, [A0]
000015FE  6718                     beq        +0x1A /* 00001618 */
00001600  5269 FFFE                addq.w     [A1 - 0x2], 1
00001604  32EE 0012                move.w     [A1]+, [A6 + 0x12]
00001608  22EE 000E                move.l     [A1]+, [A6 + 0xE]
0000160C  4259                     clr.w      [A1]+
0000160E  0040 0001                ori.w      D0, 0x1
label00001612:
00001612  12D8                     move.b     [A1]+, [A0]+
00001614  51C8 FFFC                dbf        D0, -0x6 /* 00001612 */
label00001618:
00001618  2009                     move.l     D0, A1
0000161A  2078 0AEC                movea.l    A0, [0x00000AEC /* AppParmHandle */]
0000161E  9090                     sub.l      D0, [A0]
00001620  A024                     syscall    SetHandleSize
00001622  4E5E                     unlink     A6
00001624  205F                     movea.l    A0, [A7]+
00001626  DEFC 000C                add.w      A7, 0xC
0000162A  4ED0                     jmp        [A0]
export_917:
fn0000162C:
0000162C  4A2D FF75                tst.b      [A5 - 0x8B]
00001630  6708                     beq        +0xA /* 0000163A */
00001632  7001                     moveq.l    D0, 0x01
00001634  A05D                     syscall    SwapMMUMode
00001636  3B40 FF72                move.w     [A5 - 0x8E], D0
label0000163A:
0000163A  4E75                     rts
export_918:
0000163C  201F                     move.l     D0, [A7]+
0000163E  225F                     movea.l    A1, [A7]+
00001640  205F                     movea.l    A0, [A7]+
00001642  2F00                     move.l     -[A7], D0
00001644  48E7 1F38                movem.l    -[A7], D3,D4,D5,D6,D7,A2,A3,A4
00001648  2848                     movea.l    A4, A0
0000164A  2049                     movea.l    A0, A1
0000164C  20FC FFFF FFFF           move.l     [A0]+, 0xFFFFFFFF
00001652  20FC FFFF FFFF           move.l     [A0]+, 0xFFFFFFFF
00001658  203C 8000 0000           move.l     D0, 0x80000000
0000165E  7201                     moveq.l    D1, 0x01
00001660  343C 0027                move.w     D2, 0x27 /* '\'' */
label00001664:
00001664  20C0                     move.l     [A0]+, D0
00001666  20C1                     move.l     [A0]+, D1
00001668  51CA FFFA                dbf        D2, -0x8 /* 00001664 */
0000166C  20FC FFFF FFFF           move.l     [A0]+, 0xFFFFFFFF
00001672  20FC FFFF FFFF           move.l     [A0]+, 0xFFFFFFFF
00001678  7C00                     moveq.l    D6, 0x00
0000167A  3E3C 0040                move.w     D7, 0x40 /* '@' */
0000167E  47FA 0184                lea.l      A3, [PC + 0x184 /* 00001804, value 0x30306, cstring "" */]
00001682  363C 8000                move.w     D3, 0x8000
00001686  7A3D                     moveq.l    D5, 0x3D
label00001688:
00001688  524C                     addq.w     A4, 1
0000168A  E25B                     ror        D3.w, 1
0000168C  6402                     bcc        +0x4 /* 00001690 */
0000168E  5449                     addq.w     A1, 2
label00001690:
00001690  0646 002C                addi.w     D6, 0x2C /* ',' */
00001694  0C46 00B0                cmpi.w     D6, 0xB0
00001698  6602                     bne        +0x4 /* 0000169C */
0000169A  7C00                     moveq.l    D6, 0x00
label0000169C:
0000169C  45FA 0267                lea.l      A2, [PC + 0x267 /* 00001905, value 0x20082800 */]
000016A0  D4C6                     add.w      A2, D6
000016A2  7827                     moveq.l    D4, 0x27
label000016A4:
000016A4  5049                     addq.w     A1, 8
000016A6  D8FC 0200                add.w      A4, 0x200
000016AA  141A                     move.b     D2, [A2]+
000016AC  1014                     move.b     D0, [A4]
000016AE  6624                     bne        +0x26 /* 000016D4 */
000016B0  802C 0040                or.b       D0, [A4 + 0x40]
000016B4  802C 0080                or.b       D0, [A4 + 0x80]
000016B8  802C 00C0                or.b       D0, [A4 + 0xC0]
000016BC  802C 0100                or.b       D0, [A4 + 0x100]
000016C0  802C 0140                or.b       D0, [A4 + 0x140]
000016C4  802C 0180                or.b       D0, [A4 + 0x180]
000016C8  802C 01C0                or.b       D0, [A4 + 0x1C0]
000016CC  56CC FFD6                dbne       D4, -0x2C /* 000016A4 */
000016D0  6700 0020                beq        +0x22 /* 000016F2 */
label000016D4:
000016D4  204C                     movea.l    A0, A4
000016D6  7207                     moveq.l    D1, 0x07
label000016D8:
000016D8  1010                     move.b     D0, [A0]
000016DA  943B 0028                sub.b      D2, [PC + D0.w + 0x28]
000016DE  D0C7                     add.w      A0, D7
000016E0  C010                     and.b      D0, [A0]
000016E2  9433 0000                sub.b      D2, [A3 + D0.w]
000016E6  5BC9 FFF0                dbmi       D1, -0x12 /* 000016D8 */
000016EA  6A02                     bpl        +0x4 /* 000016EE */
000016EC  8751                     or.w       [A1], D3
label000016EE:
000016EE  51CC FFB4                dbf        D4, -0x4E /* 000016A4 */
label000016F2:
000016F2  92FC 0140                sub.w      A1, 0x140
000016F6  98FC 5000                sub.w      A4, 0x5000 /* 'P\0' */
000016FA  51CD FF8C                dbf        D5, -0x76 /* 00001688 */
000016FE  4CDF 1CF8                movem.l    D3,D4,D5,D6,D7,A2,A3,A4, [A7]+
00001702  4E75                     rts
00001704  0001 0105                ori.b      D1, 0x5
00001708  0102                     btst       D2, D0
0000170A  0509                     btst       A1, D2
0000170C  0102                     btst       D2, D0
0000170E  0206 0506                andi.b     D6, 0x6
00001712  090D                     btst       A5, D4
00001714  0102                     btst       D2, D0
00001716  0206 0203                andi.b     D6, 0x3
0000171A  060A 0506                addi.b     A2, 0x6
0000171E  060A 090A                addi.b     A2, 0xA /* '\n' */
00001722  0D11                     btst       [A1], D6
00001724  0102                     btst       D2, D0
00001726  0206 0203                andi.b     D6, 0x3
0000172A  060A 0203                addi.b     A2, 0x3
0000172E  0307                     btst       D7, D1
00001730  0607 0A0E                addi.b     D7, 0xE
00001734  0506                     btst       D6, D2
00001736  060A 0607                addi.b     A2, 0x7
0000173A  0A0E 090A                xori.b     A6, 0xA /* '\n' */
0000173E  0A0E 0D0E                xori.b     A6, 0xE
00001742  1115                     move.b     -[A0], [A5]
00001744  0102                     btst       D2, D0
00001746  0206 0203                andi.b     D6, 0x3
0000174A  060A 0203                addi.b     A2, 0x3
0000174E  0307                     btst       D7, D1
00001750  0607 0A0E                addi.b     D7, 0xE
00001754  0203 0307                andi.b     D3, 0x7
00001758  0304                     btst       D4, D1
0000175A  070B                     btst       A3, D3
0000175C  0607 070B                addi.b     D7, 0xB
00001760  0A0B 0E12                xori.b     A3, 0x12
00001764  0506                     btst       D6, D2
00001766  060A 0607                addi.b     A2, 0x7
0000176A  0A0E 0607                xori.b     A6, 0x7
0000176E  070B                     btst       A3, D3
00001770  0A0B 0E12                xori.b     A3, 0x12
00001774  090A                     btst       A2, D4
00001776  0A0E 0A0B                xori.b     A6, 0xB
0000177A  0E12 0D0E                .invalid.b [A2], 0xE // invalid immediate operation
0000177E  0E12 1112                .invalid.b [A2], 0x12 // invalid immediate operation
00001782  1519                     move.b     -[A2], [A1]+
00001784  0102                     btst       D2, D0
00001786  0206 0203                andi.b     D6, 0x3
0000178A  060A 0203                addi.b     A2, 0x3
0000178E  0307                     btst       D7, D1
00001790  0607 0A0E                addi.b     D7, 0xE
00001794  0203 0307                andi.b     D3, 0x7
00001798  0304                     btst       D4, D1
0000179A  070B                     btst       A3, D3
0000179C  0607 070B                addi.b     D7, 0xB
000017A0  0A0B 0E12                xori.b     A3, 0x12
000017A4  0203 0307                andi.b     D3, 0x7
000017A8  0304                     btst       D4, D1
000017AA  070B                     btst       A3, D3
000017AC  0304                     btst       D4, D1
000017AE  0408 0708                subi.b     A0, 0x8
000017B2  0B0F                     btst       A7, D5
000017B4  0607 070B                addi.b     D7, 0xB
000017B8  0708                     btst       A0, D3
000017BA  0B0F                     btst       A7, D5
000017BC  0A0B 0B0F                xori.b     A3, 0xF
000017C0  0E0F 1216                .invalid.b A7, 0x16 // invalid immediate operation
000017C4  0506                     btst       D6, D2
000017C6  060A 0607                addi.b     A2, 0x7
000017CA  0A0E 0607                xori.b     A6, 0x7
000017CE  070B                     btst       A3, D3
000017D0  0A0B 0E12                xori.b     A3, 0x12
000017D4  0607 070B                addi.b     D7, 0xB
000017D8  0708                     btst       A0, D3
000017DA  0B0F                     btst       A7, D5
000017DC  0A0B 0B0F                xori.b     A3, 0xF
000017E0  0E0F 1216                .invalid.b A7, 0x16 // invalid immediate operation
000017E4  090A                     btst       A2, D4
000017E6  0A0E 0A0B                xori.b     A6, 0xB
000017EA  0E12 0A0B                .invalid.b [A2], 0xB // invalid immediate operation
000017EE  0B0F                     btst       A7, D5
000017F0  0E0F 1216                .invalid.b A7, 0x16 // invalid immediate operation
000017F4  0D0E                     btst       A6, D6
000017F6  0E12 0E0F                .invalid.b [A2], 0xF // invalid immediate operation
000017FA  1216                     move.b     D1, [A6]
000017FC  1112                     move.b     -[A0], [A2]
000017FE  1216                     move.b     D1, [A6]
00001800  1516                     move.b     -[A2], [A6]
00001802  191D                     move.b     -[A4], [A5]+
00001804  0003 0306                ori.b      D3, 0x6
00001808  0306                     btst       D6, D1
0000180A  0609 0306                addi.b     A1, 0x6
0000180E  0609 0609                addi.b     A1, 0x9 /* '\t' */
00001812  090C                     btst       A4, D4
00001814  0306                     btst       D6, D1
00001816  0609 0609                addi.b     A1, 0x9 /* '\t' */
0000181A  090C                     btst       A4, D4
0000181C  0609 090C                addi.b     A1, 0xC
00001820  090C                     btst       A4, D4
00001822  0C0F 0306                cmpi.b     A7, 0x6
00001826  0609 0609                addi.b     A1, 0x9 /* '\t' */
0000182A  090C                     btst       A4, D4
0000182C  0609 090C                addi.b     A1, 0xC
00001830  090C                     btst       A4, D4
00001832  0C0F 0609                cmpi.b     A7, 0x9 /* '\t' */
00001836  090C                     btst       A4, D4
00001838  090C                     btst       A4, D4
0000183A  0C0F 090C                cmpi.b     A7, 0xC
0000183E  0C0F 0C0F                cmpi.b     A7, 0xF
00001842  0F12                     btst       [A2], D7
00001844  0306                     btst       D6, D1
00001846  0609 0609                addi.b     A1, 0x9 /* '\t' */
0000184A  090C                     btst       A4, D4
0000184C  0609 090C                addi.b     A1, 0xC
00001850  090C                     btst       A4, D4
00001852  0C0F 0609                cmpi.b     A7, 0x9 /* '\t' */
00001856  090C                     btst       A4, D4
00001858  090C                     btst       A4, D4
0000185A  0C0F 090C                cmpi.b     A7, 0xC
0000185E  0C0F 0C0F                cmpi.b     A7, 0xF
00001862  0F12                     btst       [A2], D7
00001864  0609 090C                addi.b     A1, 0xC
00001868  090C                     btst       A4, D4
0000186A  0C0F 090C                cmpi.b     A7, 0xC
0000186E  0C0F 0C0F                cmpi.b     A7, 0xF
00001872  0F12                     btst       [A2], D7
00001874  090C                     btst       A4, D4
00001876  0C0F 0C0F                cmpi.b     A7, 0xF
0000187A  0F12                     btst       [A2], D7
0000187C  0C0F 0F12                cmpi.b     A7, 0x12
00001880  0F12                     btst       [A2], D7
00001882  1215                     move.b     D1, [A5]
00001884  0306                     btst       D6, D1
00001886  0609 0609                addi.b     A1, 0x9 /* '\t' */
0000188A  090C                     btst       A4, D4
0000188C  0609 090C                addi.b     A1, 0xC
00001890  090C                     btst       A4, D4
00001892  0C0F 0609                cmpi.b     A7, 0x9 /* '\t' */
00001896  090C                     btst       A4, D4
00001898  090C                     btst       A4, D4
0000189A  0C0F 090C                cmpi.b     A7, 0xC
0000189E  0C0F 0C0F                cmpi.b     A7, 0xF
000018A2  0F12                     btst       [A2], D7
000018A4  0609 090C                addi.b     A1, 0xC
000018A8  090C                     btst       A4, D4
000018AA  0C0F 090C                cmpi.b     A7, 0xC
000018AE  0C0F 0C0F                cmpi.b     A7, 0xF
000018B2  0F12                     btst       [A2], D7
000018B4  090C                     btst       A4, D4
000018B6  0C0F 0C0F                cmpi.b     A7, 0xF
000018BA  0F12                     btst       [A2], D7
000018BC  0C0F 0F12                cmpi.b     A7, 0x12
000018C0  0F12                     btst       [A2], D7
000018C2  1215                     move.b     D1, [A5]
000018C4  0609 090C                addi.b     A1, 0xC
000018C8  090C                     btst       A4, D4
000018CA  0C0F 090C                cmpi.b     A7, 0xC
000018CE  0C0F 0C0F                cmpi.b     A7, 0xF
000018D2  0F12                     btst       [A2], D7
000018D4  090C                     btst       A4, D4
000018D6  0C0F 0C0F                cmpi.b     A7, 0xF
000018DA  0F12                     btst       [A2], D7
000018DC  0C0F 0F12                cmpi.b     A7, 0x12
000018E0  0F12                     btst       [A2], D7
000018E2  1215                     move.b     D1, [A5]
000018E4  090C                     btst       A4, D4
000018E6  0C0F 0C0F                cmpi.b     A7, 0xF
000018EA  0F12                     btst       [A2], D7
000018EC  0C0F 0F12                cmpi.b     A7, 0x12
000018F0  0F12                     btst       [A2], D7
000018F2  1215                     move.b     D1, [A5]
000018F4  0C0F 0F12                cmpi.b     A7, 0x12
000018F8  0F12                     btst       [A2], D7
000018FA  1215                     move.b     D1, [A5]
000018FC  0F12                     btst       [A2], D7
000018FE  1215                     move.b     D1, [A5]
00001900  1215                     move.b     D1, [A5]
00001902  1518                     move.b     -[A2], [A0]+
00001904  0020 0828                ori.b      -[A0], 0x28 /* '(' */
00001908  0020 0828                ori.b      -[A0], 0x28 /* '(' */
0000190C  0020 0828                ori.b      -[A0], 0x28 /* '(' */
00001910  0020 0828                ori.b      -[A0], 0x28 /* '(' */
00001914  0020 0828                ori.b      -[A0], 0x28 /* '(' */
00001918  0020 0828                ori.b      -[A0], 0x28 /* '(' */
0000191C  0020 0828                ori.b      -[A0], 0x28 /* '(' */
00001920  0020 0828                ori.b      -[A0], 0x28 /* '(' */
00001924  0020 0828                ori.b      -[A0], 0x28 /* '(' */
00001928  0020 0828                ori.b      -[A0], 0x28 /* '(' */
0000192C  0020 0828                ori.b      -[A0], 0x28 /* '(' */
00001930  3010                     move.w     D0, [A0]
00001932  3818                     move.w     D4, [A0]+
00001934  3010                     move.w     D0, [A0]
00001936  3818                     move.w     D4, [A0]+
00001938  3010                     move.w     D0, [A0]
0000193A  3818                     move.w     D4, [A0]+
0000193C  3010                     move.w     D0, [A0]
0000193E  3818                     move.w     D4, [A0]+
00001940  3010                     move.w     D0, [A0]
00001942  3818                     move.w     D4, [A0]+
00001944  3010                     move.w     D0, [A0]
00001946  3818                     move.w     D4, [A0]+
00001948  3010                     move.w     D0, [A0]
0000194A  3818                     move.w     D4, [A0]+
0000194C  3010                     move.w     D0, [A0]
0000194E  3818                     move.w     D4, [A0]+
00001950  3010                     move.w     D0, [A0]
00001952  3818                     move.w     D4, [A0]+
00001954  3010                     move.w     D0, [A0]
00001956  3818                     move.w     D4, [A0]+
00001958  3010                     move.w     D0, [A0]
0000195A  3818                     move.w     D4, [A0]+
0000195C  0C2C 0424 0C2C           cmpi.b     [A4 + 0xC2C], 0x24 /* '$' */
00001962  0424 0C2C                subi.b     -[A4], 0x2C /* ',' */
00001966  0424 0C2C                subi.b     -[A4], 0x2C /* ',' */
0000196A  0424 0C2C                subi.b     -[A4], 0x2C /* ',' */
0000196E  0424 0C2C                subi.b     -[A4], 0x2C /* ',' */
00001972  0424 0C2C                subi.b     -[A4], 0x2C /* ',' */
00001976  0424 0C2C                subi.b     -[A4], 0x2C /* ',' */
0000197A  0424 0C2C                subi.b     -[A4], 0x2C /* ',' */
0000197E  0424 0C2C                subi.b     -[A4], 0x2C /* ',' */
00001982  0424 0C2C                subi.b     -[A4], 0x2C /* ',' */
00001986  0424 3C1C                subi.b     -[A4], 0x1C
0000198A  3414                     move.w     D2, [A4]
0000198C  3C1C                     move.w     D6, [A4]+
0000198E  3414                     move.w     D2, [A4]
00001990  3C1C                     move.w     D6, [A4]+
00001992  3414                     move.w     D2, [A4]
00001994  3C1C                     move.w     D6, [A4]+
00001996  3414                     move.w     D2, [A4]
00001998  3C1C                     move.w     D6, [A4]+
0000199A  3414                     move.w     D2, [A4]
0000199C  3C1C                     move.w     D6, [A4]+
0000199E  3414                     move.w     D2, [A4]
000019A0  3C1C                     move.w     D6, [A4]+
000019A2  3414                     move.w     D2, [A4]
000019A4  3C1C                     move.w     D6, [A4]+
000019A6  3414                     move.w     D2, [A4]
000019A8  3C1C                     move.w     D6, [A4]+
000019AA  3414                     move.w     D2, [A4]
000019AC  3C1C                     move.w     D6, [A4]+
000019AE  3414                     move.w     D2, [A4]
000019B0  3C1C                     move.w     D6, [A4]+
000019B2  3414                     move.w     D2, [A4]
export_919:
000019B4  4EBA 0016                jsr        [PC + 0x16 /* 000019CC */]
000019B8  584F                     addq.w     A7, 4
000019BA  41F8 093A                lea.l      A0, [0x0000093A /* LoaderPBlock */]
000019BE  2097                     move.l     [A0], [A7]
000019C0  42A8 0004                clr.l      [A0 + 0x4]
000019C4  08B8 0003 0261           bclr.b     [0x00000261 /* SdEnable/Finder */], 0x3
000019CA  A9F2                     syscall    Launch/LaunchApplication
fn000019CC:
000019CC  0838 0005 0261           btst.b     [0x00000261 /* SdEnable/Finder */], 0x5
000019D2  6722                     beq        +0x24 /* 000019F6 */
000019D4  45FA 0022                lea.l      A2, [PC + 0x22 /* 000019F8, value 0x60000146, cstring "`" */]
000019D8  43FA 01E0                lea.l      A1, [PC + 0x1E0 /* 00001BBA, value 0x4E56FFCE */]
000019DC  93CA                     sub.l      A1, A2
000019DE  2009                     move.l     D0, A1
000019E0  A440                     syscall    ReserveMemSys, flags=4
000019E2  2009                     move.l     D0, A1
000019E4  A522                     syscall    NewHandleSys, flags=5
000019E6  660E                     bne        +0x10 /* 000019F6 */
000019E8  A029                     syscall    HLock
000019EA  2050                     movea.l    A0, [A0]
000019EC  2009                     move.l     D0, A1
000019EE  2248                     movea.l    A1, A0
000019F0  204A                     movea.l    A0, A2
000019F2  A02E                     syscall    BlockMove/BlockMoveData
000019F4  4E91                     jsr        [A1]
label000019F6:
000019F6  4E75                     rts
000019F8  6000 0146                bra        +0x148 /* 00001B40 */
000019FC  0000 0000                ori.b      D0, 0x0
00001A00  0000 0000                ori.b      D0, 0x0
00001A04  0000 0000                ori.b      D0, 0x0
00001A08  0000 3038                ori.b      D0, 0x38 /* '8' */
00001A0C  02AE B057 6E06 5240      andi.l     [A6 + 0x5240], 0xB0576E06
00001A14  B057                     cmp.w      D0, [A7]
00001A16  6E06                     bgt        +0x8 /* 00001A1E */
label00001A18:
00001A18  4EF9 0400 0000           jmp        [0x04000000]
label00001A1E:
00001A1E  08F8 0002 0261           bset.b     [0x00000261 /* SdEnable/Finder */], 0x2
00001A24  0838 0004 0261           btst.b     [0x00000261 /* SdEnable/Finder */], 0x4
00001A2A  6608                     bne        +0xA /* 00001A34 */
00001A2C  0838 0007 0261           btst.b     [0x00000261 /* SdEnable/Finder */], 0x7
00001A32  6006                     bra        +0x8 /* 00001A3A */
label00001A34:
00001A34  08F8 0007 0261           bset.b     [0x00000261 /* SdEnable/Finder */], 0x7
label00001A3A:
00001A3A  67DC                     beq        -0x22 /* 00001A18 */
00001A3C  0838 0002 017B           btst.b     [0x0000017B], 0x2
00001A42  66D4                     bne        -0x2A /* 00001A18 */
00001A44  41F8 0910                lea.l      A0, [0x00000910 /* CurApName */]
00001A48  43F8 02E0                lea.l      A1, [0x000002E0 /* FinderName */]
00001A4C  6100 00E2                bsr        +0xE4 /* 00001B30 */
00001A50  6760                     beq        +0x62 /* 00001AB2 */
00001A52  08F8 0003 0261           bset.b     [0x00000261 /* SdEnable/Finder */], 0x3
00001A58  661A                     bne        +0x1C /* 00001A74 */
00001A5A  43FA FFA6                lea.l      A1, [PC - 0x5A /* 00001A02, value 0x0, cstring "" */]
00001A5E  2051                     movea.l    A0, [A1]
00001A60  223A FFA4                move.l     D1, [PC - 0x5C /* 00001A06, value 0x0, cstring "" */]
00001A64  670E                     beq        +0x10 /* 00001A74 */
00001A66  2281                     move.l     [A1], D1
00001A68  2241                     movea.l    A1, D1
00001A6A  2251                     movea.l    A1, [A1]
00001A6C  2288                     move.l     [A1], A0
00001A6E  41FA FF96                lea.l      A0, [PC - 0x6A /* 00001A06, value 0x0, cstring "" */]
00001A72  4290                     clr.l      [A0]
label00001A74:
00001A74  6102                     bsr        +0x4 /* 00001A78 */
00001A76  60A0                     bra        -0x5E /* 00001A18 */
fn00001A78:
00001A78  203A FF8C                move.l     D0, [PC - 0x74 /* 00001A06, value 0x0, cstring "" */]
00001A7C  660C                     bne        +0xE /* 00001A8A */
00001A7E  7026                     moveq.l    D0, 0x26
00001A80  A722                     syscall    NewHandleSysClear, flags=7
00001A82  662C                     bne        +0x2E /* 00001AB0 */
00001A84  43FA FF80                lea.l      A1, [PC - 0x80 /* 00001A06, value 0x0, cstring "" */]
00001A88  2288                     move.l     [A1], A0
label00001A8A:
00001A8A  701F                     moveq.l    D0, 0x1F
label00001A8C:
00001A8C  4267                     clr.w      -[A7]
00001A8E  51C8 FFFC                dbf        D0, -0x6 /* 00001A8C */
00001A92  204F                     movea.l    A0, A7
00001A94  A014                     syscall    GetVol/PBHGetVol/HGetVol
00001A96  6614                     bne        +0x16 /* 00001AAC */
00001A98  227A FF6C                movea.l    A1, [PC - 0x94 /* 00001A06, value 0x0, cstring "" */]
00001A9C  2251                     movea.l    A1, [A1]
00001A9E  5849                     addq.w     A1, 4
00001AA0  32E8 0016                move.w     [A1]+, [A0 + 0x16]
00001AA4  41F8 0910                lea.l      A0, [0x00000910 /* CurApName */]
00001AA8  7020                     moveq.l    D0, 0x20
00001AAA  A02E                     syscall    BlockMove/BlockMoveData
label00001AAC:
00001AAC  DEFC 0040                add.w      A7, 0x40 /* '@' */
label00001AB0:
00001AB0  4E75                     rts
label00001AB2:
00001AB2  4E56 FF90                link       A6, -0x0070
label00001AB6:
00001AB6  207A FF4A                movea.l    A0, [PC - 0xB6 /* 00001A02, value 0x0, cstring "" */]
00001ABA  2050                     movea.l    A0, [A0]
00001ABC  2210                     move.l     D1, [A0]
00001ABE  4298                     clr.l      [A0]+
00001AC0  3418                     move.w     D2, [A0]+
00001AC2  7020                     moveq.l    D0, 0x20
00001AC4  43EE FF90                lea.l      A1, [A6 - 0x70]
00001AC8  A02E                     syscall    BlockMove/BlockMoveData
00001ACA  4A81                     tst.l      D1
00001ACC  671A                     beq        +0x1C /* 00001AE8 */
00001ACE  43FA FF32                lea.l      A1, [PC - 0xCE /* 00001A02, value 0x0, cstring "" */]
00001AD2  2051                     movea.l    A0, [A1]
00001AD4  2281                     move.l     [A1], D1
00001AD6  2248                     movea.l    A1, A0
00001AD8  203A FF2C                move.l     D0, [PC - 0xD4 /* 00001A06, value 0x0, cstring "" */]
00001ADC  6704                     beq        +0x6 /* 00001AE2 */
00001ADE  2040                     movea.l    A0, D0
00001AE0  A423                     syscall    DisposHandle/DisposeHandle, flags=4
label00001AE2:
00001AE2  41FA FF22                lea.l      A0, [PC - 0xDE /* 00001A06, value 0x0, cstring "" */]
00001AE6  2089                     move.l     [A0], A1
label00001AE8:
00001AE8  41EE FFB0                lea.l      A0, [A6 - 0x50]
00001AEC  3142 0016                move.w     [A0 + 0x16], D2
00001AF0  6606                     bne        +0x8 /* 00001AF8 */
00001AF2  3178 0210 0016           move.w     [A0 + 0x16], [0x00000210 /* BootDrive */]
label00001AF8:
00001AF8  42A8 0012                clr.l      [A0 + 0x12]
00001AFC  A015                     syscall    SetVol/PBHSetVol/HSetVol
00001AFE  43EE FF90                lea.l      A1, [A6 - 0x70]
00001B02  2149 0012                move.l     [A0 + 0x12], A1
00001B06  4268 001E                clr.w      [A0 + 0x1E]
00001B0A  4268 001C                clr.w      [A0 + 0x1C]
00001B0E  A00C                     syscall    GetFileInfo/PBHGetFInfo/HGetFileInfo
00001B10  6706                     beq        +0x8 /* 00001B18 */
00001B12  4A81                     tst.l      D1
00001B14  66A0                     bne        -0x5E /* 00001AB6 */
00001B16  6012                     bra        +0x14 /* 00001B2A */
label00001B18:
00001B18  43F8 0910                lea.l      A1, [0x00000910 /* CurApName */]
00001B1C  7020                     moveq.l    D0, 0x20
00001B1E  41EE FF90                lea.l      A0, [A6 - 0x70]
00001B22  A02E                     syscall    BlockMove/BlockMoveData
00001B24  08B8 0002 0261           bclr.b     [0x00000261 /* SdEnable/Finder */], 0x2
label00001B2A:
00001B2A  4E5E                     unlink     A6
00001B2C  6000 FEEA                bra        -0x114 /* 00001A18 */
fn00001B30:
00001B30  7000                     moveq.l    D0, 0x00
00001B32  1018                     move.b     D0, [A0]+
00001B34  4840                     swap.w     D0
00001B36  1019                     move.b     D0, [A1]+
00001B38  A03C                     syscall    CmpString
00001B3A  4E75                     rts
label00001B3C:
00001B3C  A024                     syscall    SetHandleSize
00001B3E  4E75                     rts
label00001B40:
00001B40  08B8 0006 0261           bclr.b     [0x00000261 /* SdEnable/Finder */], 0x6
00001B46  6606                     bne        +0x8 /* 00001B4E */
00001B48  08B8 0004 0261           bclr.b     [0x00000261 /* SdEnable/Finder */], 0x4
label00001B4E:
00001B4E  08B8 0005 0261           bclr.b     [0x00000261 /* SdEnable/Finder */], 0x5
00001B54  303C 0197                move.w     D0, 0x197
00001B58  A146                     syscall    GetTrapAddress, flags=1
00001B5A  43FA FEBE                lea.l      A1, [PC - 0x142 /* 00001A1A, value 0x4000000 */]
00001B5E  2288                     move.l     [A1], A0
00001B60  41FA FEA8                lea.l      A0, [PC - 0x158 /* 00001A0A, value 0x303802AE */]
00001B64  303C 0197                move.w     D0, 0x197
00001B68  A047                     syscall    SetTrapAddress
00001B6A  701F                     moveq.l    D0, 0x1F
label00001B6C:
00001B6C  4267                     clr.w      -[A7]
00001B6E  51C8 FFFC                dbf        D0, -0x6 /* 00001B6C */
00001B72  204F                     movea.l    A0, A7
00001B74  3178 0210 0016           move.w     [A0 + 0x16], [0x00000210 /* BootDrive */]
00001B7A  A007                     syscall    GetVolInfo/PBHGetVInfo/HGetVInfo
00001B7C  31E8 0016 0210           move.w     [0x00000210 /* BootDrive */], [A0 + 0x16]
00001B82  DEFC 0040                add.w      A7, 0x40 /* '@' */
00001B86  7026                     moveq.l    D0, 0x26
00001B88  A722                     syscall    NewHandleSysClear, flags=7
00001B8A  43FA FE76                lea.l      A1, [PC - 0x18A /* 00001A02, value 0x0, cstring "" */]
00001B8E  2288                     move.l     [A1], A0
00001B90  2250                     movea.l    A1, [A0]
00001B92  5C89                     addq.l     A1, 6
00001B94  7020                     moveq.l    D0, 0x20
00001B96  41FA 0016                lea.l      A0, [PC + 0x16 /* 00001BAE, value 0xA4D696E '\nMin', pstring "MiniFinder" */]
00001B9A  A02E                     syscall    BlockMove/BlockMoveData
00001B9C  6100 FEDA                bsr        -0x124 /* 00001A78 */
00001BA0  41FA FE56                lea.l      A0, [PC - 0x1AA /* 000019F8, value 0x60000146, cstring "`" */]
00001BA4  A528                     syscall    RecoverHandle, flags=5
00001BA6  203C 0000 0148           move.l     D0, 0x148
00001BAC  608E                     bra        -0x70 /* 00001B3C */
00001BAE  0A4D 696E                xori.w     A5, 0x696E /* 'in' */
00001BB2  6946                     bvs        +0x48 /* 00001BFA */
00001BB4  696E                     bvs        +0x70 /* 00001C24 */
00001BB6  6465                     bcc        +0x67 /* 00001C1D */
00001BB8  7200                     moveq.l    D1, 0x00
export_920:
00001BBA  4E56 FFCE                link       A6, -0x0032
00001BBE  48E7 1F38                movem.l    -[A7], D3,D4,D5,D6,D7,A2,A3,A4
00001BC2  322E 0008                move.w     D1, [A6 + 0x8]
00001BC6  47FA 00B2                lea.l      A3, [PC + 0xB2 /* 00001C7A, value 0xC140010 */]
00001BCA  D6C1                     add.w      A3, D1
00001BCC  D6C1                     add.w      A3, D1
00001BCE  7400                     moveq.l    D2, 0x00
00001BD0  141B                     move.b     D2, [A3]+
00001BD2  7600                     moveq.l    D3, 0x00
00001BD4  161B                     move.b     D3, [A3]+
00001BD6  45FA 00C2                lea.l      A2, [PC + 0xC2 /* 00001C9A, value 0x80453, cstring "" */]
00001BDA  41FA 006C                lea.l      A0, [PC + 0x6C /* 00001C48, value 0x0, cstring "" */]
00001BDE  47FA 00DA                lea.l      A3, [PC + 0xDA /* 00001CBA, value 0x80838689 */]
00001BE2  30FC 0008                move.w     [A0]+, 0x8
00001BE6  20F2 2000                move.l     [A0]+, [A2 + D2.w]
00001BEA  4298                     clr.l      [A0]+
00001BEC  20F2 3000                move.l     [A0]+, [A2 + D3.w]
00001BF0  4298                     clr.l      [A0]+
00001BF2  20F2 2000                move.l     [A0]+, [A2 + D2.w]
00001BF6  4298                     clr.l      [A0]+
00001BF8  20F2 3000                move.l     [A0]+, [A2 + D3.w]
// begin alternate branch 00001BFA-00001BFC
label00001BFA:
00001BFA  3000                     move.w     D0, D0
// end alternate branch 00001BFA-00001BFC
label00001BFA: // (misaligned)
00001BFC  4298                     clr.l      [A0]+
00001BFE  20CB                     move.l     [A0]+, A3
00001C00  20CB                     move.l     [A0]+, A3
00001C02  20CB                     move.l     [A0]+, A3
00001C04  20CB                     move.l     [A0]+, A3
00001C06  41EE FFCE                lea.l      A0, [A6 - 0x32]
00001C0A  317C FFFC 0018           move.w     [A0 + 0x18], 0xFFFC
00001C10  43FA 0030                lea.l      A1, [PC + 0x30 /* 00001C42, value 0x0, cstring "" */]
00001C14  2149 0020                move.l     [A0 + 0x20], A1
00001C18  217C 0000 0006 0024      move.l     [A0 + 0x24], 0x6
00001C20  42A8 000C                clr.l      [A0 + 0xC]
label00001C24:
00001C24  32FC 0001                move.w     [A1]+, 0x1
00001C28  45FA 001E                lea.l      A2, [PC + 0x1E /* 00001C48, value 0x0, cstring "" */]
00001C2C  22CA                     move.l     [A1]+, A2
00001C2E  A003                     syscall    Write
00001C30  307C 0004                movea.w    A0, 0x4
00001C34  A03B                     syscall    Delay
00001C36  4CDF 1CF8                movem.l    D3,D4,D5,D6,D7,A2,A3,A4, [A7]+
00001C3A  4E5E                     unlink     A6
00001C3C  205F                     movea.l    A0, [A7]+
00001C3E  544F                     addq.w     A7, 2
00001C40  4ED0                     jmp        [A0]
00001C42  0000 0000                ori.b      D0, 0x0
00001C46  0000 0000                ori.b      D0, 0x0
00001C4A  0000 0000                ori.b      D0, 0x0
00001C4E  0000 0000                ori.b      D0, 0x0
00001C52  0000 0000                ori.b      D0, 0x0
00001C56  0000 0000                ori.b      D0, 0x0
00001C5A  0000 0000                ori.b      D0, 0x0
00001C5E  0000 0000                ori.b      D0, 0x0
00001C62  0000 0000                ori.b      D0, 0x0
00001C66  0000 0000                ori.b      D0, 0x0
00001C6A  0000 0000                ori.b      D0, 0x0
00001C6E  0000 0000                ori.b      D0, 0x0
00001C72  0000 0000                ori.b      D0, 0x0
00001C76  0000 0000                ori.b      D0, 0x0
00001C7A  0C14 0010                cmpi.b     [A4], 0x10
00001C7E  0014 0018                ori.b      [A4], 0x18
00001C82  0410 0414                subi.b     [A0], 0x14
00001C86  0418 0810                subi.b     [A0]+, 0x10
00001C8A  0814 0818                btst.b     [A4], 0x18
00001C8E  0C10 0C18                cmpi.b     [A0], 0x18
00001C92  001C 041C                ori.b      [A4]+, 0x1C
00001C96  081C 0C1C                btst.b     [A4]+, 0x1C
00001C9A  0008 0453                ori.b      A0, 0x53 /* 'S' */
00001C9E  0008 DB46                ori.b      A0, 0x46 /* 'F' */
00001CA2  0009 CCB9                ori.b      A1, 0xB9
00001CA6  000A D2C9                ori.b      A2, 0xC9
00001CAA  000D E7EA                ori.b      A5, 0xEA
00001CAE  000F 5DDE                ori.b      A7, 0xDE
00001CB2  0010 FD06                ori.b      [A0], 0x6
00001CB6  0012 C863                ori.b      [A2], 0x63 /* 'c' */
00001CBA  8083                     or.l       D0, D3
00001CBC  8689                     or.l       D3, A1
00001CBE  8C8F                     or.l       D6, A7
00001CC0  9295                     sub.l      D1, [A5]
00001CC2  989C                     sub.l      D4, [A4]+
00001CC4  9FA2                     sub.l      -[A2], D7
00001CC6  A5A8                     syscall    0x0A8, flags=5
00001CC8  ABAE                     syscall    scIndTab4
00001CCA  B0B3 B6B9                cmp.l      D0, [A3 + A3.w * 8 - 0x47]
00001CCE  BCBF                     cmp.l      D6, <<invalid special address>>
00001CD0  C1C4                     muls.w     D0, D4
00001CD2  C7C9                     muls.w     D3, A1
00001CD4  CCCE                     mulu.w     D6, A6
00001CD6  D1D3                     add.l      A0, [A3]
00001CD8  D5D8                     add.l      A2, [A0]+
00001CDA  DADC                     add.w      A5, [A4]+
00001CDC  DEE0                     add.w      A7, -[A0]
00001CDE  E2E4                     lsr   .w   -[A4]
00001CE0  E6E8 EAEC                ror   .w   [A0 - 0x1514]
00001CE4  EDEF F0F2 F3F5           bfffo      D7, [A7 - 0xC0B] {3:D2}
00001CEA  F6F7 F8F9                .extension 0x6F7 <<F/2-3/3>> // unimplemented
00001CEE  FAFB FCFC                .extension 0xAFB <<F/2-3/5>> // unimplemented
00001CF2  FDFE                     .invalid   <<F/7/6>>
00001CF4  FEFF FFFF                .extension 0xEFF <<F/2-3/7>> // unimplemented
00001CF8  FFFF                     .invalid   <<F/7/7>>
00001CFA  FFFF                     .invalid   <<F/7/7>>
00001CFC  FFFF                     .invalid   <<F/7/7>>
00001CFE  FFFF                     .invalid   <<F/7/7>>
00001D00  FEFE FDFC                .extension 0xEFE <<F/2-3/7>> // unimplemented
00001D04  FCFB FAF9                .extension 0xCFB <<F/2-3/6>> // unimplemented
00001D08  F8F7 F6F5                .extension 0x8F7 <<F/2-3/4>> // unimplemented
00001D0C  F3F2                     .invalid   <<F/7/1>>
00001D0E  F0EF EDEC                .extension 0x0EF <<F/2-3/0>> // unimplemented
00001D12  EAE8 E6E4 E2E0           bfchg      [A0 - 0x1D20] {27:D4}
00001D18  DEDC                     add.w      A7, [A4]+
00001D1A  DAD8                     add.w      A5, [A0]+
00001D1C  D5D3                     add.l      A2, [A3]
00001D1E  D1CE                     add.l      A0, A6
00001D20  CCC9                     mulu.w     D6, A1
00001D22  C7C4                     muls.w     D3, D4
00001D24  C1BF                     and.l      <<invalid special address>>, D0
00001D26  BCB9 B6B3 B0AE           cmp.l      D6, [0xB6B3B0AE]
00001D2C  ABA8                     syscall    stColorTab
00001D2E  A5A2                     syscall    vMWrData, flags=5
00001D30  9F9C                     sub.l      [A4]+, D7
00001D32  9895                     sub.l      D4, [A5]
00001D34  928F                     sub.l      D1, A7
00001D36  8C89                     or.l       D6, A1
00001D38  8683                     or.l       D3, D3
00001D3A  807C 7976                or.w       D0, 0x7976 /* 'yv' */
00001D3E  7370                     moveq.l    D1, 0x70
00001D40  6D6A                     blt        +0x6C /* 00001DAC */
00001D42  6763                     beq        +0x65 /* 00001DA7 */
00001D44  605D                     bra        +0x5F /* 00001DA3 */
00001D46  5A57                     addq.w     [A7], 5
00001D48  5451                     addq.w     [A1], 2
00001D4A  4F4C                     chk.w      D7, A4
00001D4C  4946                     chk.w      D4, D6
00001D4E  4340                     chk.w      D1, D0
00001D50  3E3B 3836                move.w     D7, [PC + D3 + 0x36]
00001D54  3331 2E2C                move.w     -[A1], [A1 + D2 * 8 + 0x2C]
00001D58  2A27                     move.l     D5, -[A7]
00001D5A  2523                     move.l     -[A2], -[A3]
00001D5C  211F                     move.l     -[A0], [A7]+
00001D5E  1D1B                     move.b     -[A6], [A3]+
00001D60  1917                     move.b     -[A4], [A7]
00001D62  1513                     move.b     -[A2], [A3]
00001D64  1210                     move.b     D1, [A0]
00001D66  0F0D                     btst       A5, D7
00001D68  0C0A 0908                cmpi.b     A2, 0x8
00001D6C  0706                     btst       D6, D3
00001D6E  0504                     btst       D4, D2
00001D70  0303                     btst       D3, D1
00001D72  0201 0100                andi.b     D1, 0x0
00001D76  0000 0000                ori.b      D0, 0x0
00001D7A  0000 0000                ori.b      D0, 0x0
00001D7E  0000 0101                ori.b      D0, 0x1
00001D82  0203 0304                andi.b     D3, 0x4
00001D86  0506                     btst       D6, D2
00001D88  0708                     btst       A0, D3
00001D8A  090A                     btst       A2, D4
00001D8C  0C0D 0F10                cmpi.b     A5, 0x10
00001D90  1213                     move.b     D1, [A3]
00001D92  1517                     move.b     -[A2], [A7]
00001D94  191B                     move.b     -[A4], [A3]+
00001D96  1D1F                     move.b     -[A6], [A7]+
00001D98  2123                     move.l     -[A0], -[A3]
00001D9A  2527                     move.l     -[A2], -[A7]
00001D9C  2A2C 2E31                move.l     D5, [A4 + 0x2E31]
00001DA0  3336 383B                move.w     -[A1], [A6 + D3 + 0x3B]
00001DA4  3E40                     movea.w    A7, D0
00001DA6  4346                     chk.w      D1, D6
00001DA8  494C                     chk.w      D4, A4
00001DAA  4F51                     chk.w      D7, [A1]
label00001DAC:
00001DAC  5457                     addq.w     [A7], 2
00001DAE  5A5D                     addq.w     [A5]+, 5
00001DB0  6063                     bra        +0x65 /* 00001E15 */
00001DB2  676A                     beq        +0x6C /* 00001E1E */
00001DB4  6D70                     blt        +0x72 /* 00001E26 */
00001DB6  7376                     moveq.l    D1, 0x76
00001DB8  797C                     moveq.l    D4, 0x7C
export_921:
00001DBA  201F                     move.l     D0, [A7]+
00001DBC  225F                     movea.l    A1, [A7]+
00001DBE  205F                     movea.l    A0, [A7]+
00001DC0  2F00                     move.l     -[A7], D0
00001DC2  3010                     move.w     D0, [A0]
00001DC4  B068 0004                cmp.w      D0, [A0 + 0x4]
00001DC8  6C54                     bge        +0x56 /* 00001E1E */
00001DCA  3028 0002                move.w     D0, [A0 + 0x2]
00001DCE  B068 0006                cmp.w      D0, [A0 + 0x6]
00001DD2  6C4A                     bge        +0x4C /* 00001E1E */
00001DD4  3011                     move.w     D0, [A1]
00001DD6  B069 0004                cmp.w      D0, [A1 + 0x4]
00001DDA  6C3E                     bge        +0x40 /* 00001E1A */
00001DDC  3029 0002                move.w     D0, [A1 + 0x2]
00001DE0  B069 0006                cmp.w      D0, [A1 + 0x6]
00001DE4  6C34                     bge        +0x36 /* 00001E1A */
00001DE6  3010                     move.w     D0, [A0]
00001DE8  B051                     cmp.w      D0, [A1]
00001DEA  6C02                     bge        +0x4 /* 00001DEE */
00001DEC  3280                     move.w     [A1], D0
label00001DEE:
00001DEE  3028 0002                move.w     D0, [A0 + 0x2]
00001DF2  B069 0002                cmp.w      D0, [A1 + 0x2]
00001DF6  6C04                     bge        +0x6 /* 00001DFC */
00001DF8  3340 0002                move.w     [A1 + 0x2], D0
label00001DFC:
00001DFC  3028 0004                move.w     D0, [A0 + 0x4]
00001E00  B069 0004                cmp.w      D0, [A1 + 0x4]
00001E04  6F04                     ble        +0x6 /* 00001E0A */
00001E06  3340 0004                move.w     [A1 + 0x4], D0
label00001E0A:
00001E0A  3028 0006                move.w     D0, [A0 + 0x6]
00001E0E  B069 0006                cmp.w      D0, [A1 + 0x6]
00001E12  6F0A                     ble        +0xC /* 00001E1E */
00001E14  3340 0006                move.w     [A1 + 0x6], D0
00001E18  6004                     bra        +0x6 /* 00001E1E */
label00001E1A:
00001E1A  22D8                     move.l     [A1]+, [A0]+
00001E1C  22D8                     move.l     [A1]+, [A0]+
label00001E1E:
00001E1E  4E75                     rts
export_922:
00001E20  4E56 0000                link       A6, 0
00001E24  2F0A                     move.l     -[A7], A2
label00001E26:
00001E26  206E 000E                movea.l    A0, [A6 + 0xE]
00001E2A  2050                     movea.l    A0, [A0]
00001E2C  226E 000A                movea.l    A1, [A6 + 0xA]
00001E30  2251                     movea.l    A1, [A1]
00001E32  2449                     movea.l    A2, A1
00001E34  D4EE 0008                add.w      A2, [A6 + 0x8]
00001E38  7000                     moveq.l    D0, 0x00
00001E3A  7200                     moveq.l    D1, 0x00
00001E3C  740F                     moveq.l    D2, 0x0F
label00001E3E:
00001E3E  1018                     move.b     D0, [A0]+
00001E40  6B00 00BA                bmi        +0xBC /* 00001EFC */
00001E44  123B 000A                move.b     D1, [PC + D0.w + 0xA]
00001E48  C042                     and.w      D0, D2
00001E4A  D2C0                     add.w      A1, D0
00001E4C  4EFB 1002                jmp        [PC + D1.w + 0x2]
00001E50  8E8E                     or.l       D7, A6
00001E52  8E8E                     or.l       D7, A6
00001E54  8E8E                     or.l       D7, A6
00001E56  8E8E                     or.l       D7, A6
00001E58  8E8E                     or.l       D7, A6
00001E5A  8E8E                     or.l       D7, A6
00001E5C  8E8E                     or.l       D7, A6
00001E5E  8E8E                     or.l       D7, A6
00001E60  8C8C                     or.l       D6, A4
00001E62  8C8C                     or.l       D6, A4
00001E64  8C8C                     or.l       D6, A4
00001E66  8C8C                     or.l       D6, A4
00001E68  8C8C                     or.l       D6, A4
00001E6A  8C8C                     or.l       D6, A4
00001E6C  8C8C                     or.l       D6, A4
00001E6E  8C8C                     or.l       D6, A4
00001E70  8A8A                     or.l       D5, A2
00001E72  8A8A                     or.l       D5, A2
00001E74  8A8A                     or.l       D5, A2
00001E76  8A8A                     or.l       D5, A2
00001E78  8A8A                     or.l       D5, A2
00001E7A  8A8A                     or.l       D5, A2
00001E7C  8A8A                     or.l       D5, A2
00001E7E  8A8A                     or.l       D5, A2
00001E80  8888                     or.l       D4, A0
00001E82  8888                     or.l       D4, A0
00001E84  8888                     or.l       D4, A0
00001E86  8888                     or.l       D4, A0
00001E88  8888                     or.l       D4, A0
00001E8A  8888                     or.l       D4, A0
00001E8C  8888                     or.l       D4, A0
00001E8E  8888                     or.l       D4, A0
00001E90  8686                     or.l       D3, D6
00001E92  8686                     or.l       D3, D6
00001E94  8686                     or.l       D3, D6
00001E96  8686                     or.l       D3, D6
00001E98  8686                     or.l       D3, D6
00001E9A  8686                     or.l       D3, D6
00001E9C  8686                     or.l       D3, D6
00001E9E  8686                     or.l       D3, D6
00001EA0  8484                     or.l       D2, D4
00001EA2  8484                     or.l       D2, D4
00001EA4  8484                     or.l       D2, D4
00001EA6  8484                     or.l       D2, D4
00001EA8  8484                     or.l       D2, D4
00001EAA  8484                     or.l       D2, D4
00001EAC  8484                     or.l       D2, D4
00001EAE  8484                     or.l       D2, D4
00001EB0  8282                     or.l       D1, D2
00001EB2  8282                     or.l       D1, D2
00001EB4  8282                     or.l       D1, D2
00001EB6  8282                     or.l       D1, D2
00001EB8  8282                     or.l       D1, D2
00001EBA  8282                     or.l       D1, D2
00001EBC  8282                     or.l       D1, D2
00001EBE  8282                     or.l       D1, D2
00001EC0  8080                     or.l       D0, D0
00001EC2  8080                     or.l       D0, D0
00001EC4  8080                     or.l       D0, D0
00001EC6  8080                     or.l       D0, D0
00001EC8  8080                     or.l       D0, D0
00001ECA  8080                     or.l       D0, D0
00001ECC  8080                     or.l       D0, D0
00001ECE  8080                     or.l       D0, D0
00001ED0  12D8                     move.b     [A1]+, [A0]+
00001ED2  12D8                     move.b     [A1]+, [A0]+
00001ED4  12D8                     move.b     [A1]+, [A0]+
00001ED6  12D8                     move.b     [A1]+, [A0]+
00001ED8  12D8                     move.b     [A1]+, [A0]+
00001EDA  12D8                     move.b     [A1]+, [A0]+
00001EDC  12D8                     move.b     [A1]+, [A0]+
00001EDE  B3CA                     cmpa.l     A1, A2
00001EE0  6500 FF5C                bcs        -0xA2 /* 00001E3E */
label00001EE4:
00001EE4  246E 000E                movea.l    A2, [A6 + 0xE]
00001EE8  2488                     move.l     [A2], A0
00001EEA  246E 000A                movea.l    A2, [A6 + 0xA]
00001EEE  2489                     move.l     [A2], A1
00001EF0  245F                     movea.l    A2, [A7]+
00001EF2  4E5E                     unlink     A6
00001EF4  205F                     movea.l    A0, [A7]+
00001EF6  DEFC 000A                add.w      A7, 0xA /* '\n' */
00001EFA  4ED0                     jmp        [A0]
label00001EFC:
00001EFC  0C00 00E0                cmpi.b     D0, 0xE0
00001F00  6408                     bcc        +0xA /* 00001F0A */
00001F02  0C00 00C0                cmpi.b     D0, 0xC0
00001F06  6410                     bcc        +0x12 /* 00001F18 */
00001F08  60DA                     bra        -0x24 /* 00001EE4 */
label00001F0A:
00001F0A  E708                     lsl        D0.b, 3
00001F0C  D2C0                     add.w      A1, D0
00001F0E  D2C0                     add.w      A1, D0
00001F10  B3CA                     cmpa.l     A1, A2
00001F12  6500 FF2A                bcs        -0xD4 /* 00001E3E */
00001F16  60CC                     bra        -0x32 /* 00001EE4 */
label00001F18:
00001F18  0240 001F                andi.w     D0, 0x1F
00001F1C  6010                     bra        +0x12 /* 00001F2E */
label00001F1E:
00001F1E  12D8                     move.b     [A1]+, [A0]+
00001F20  12D8                     move.b     [A1]+, [A0]+
00001F22  12D8                     move.b     [A1]+, [A0]+
00001F24  12D8                     move.b     [A1]+, [A0]+
00001F26  12D8                     move.b     [A1]+, [A0]+
00001F28  12D8                     move.b     [A1]+, [A0]+
00001F2A  12D8                     move.b     [A1]+, [A0]+
00001F2C  12D8                     move.b     [A1]+, [A0]+
label00001F2E:
00001F2E  51C8 FFEE                dbf        D0, -0x14 /* 00001F1E */
00001F32  7000                     moveq.l    D0, 0x00
00001F34  B3CA                     cmpa.l     A1, A2
00001F36  6500 FF06                bcs        -0xF8 /* 00001E3E */
00001F3A  60A8                     bra        -0x56 /* 00001EE4 */
export_923:
00001F3C  4E56 FFA4                link       A6, -0x005C
00001F40  4EBA F6EA                jsr        [PC - 0x916 /* 0000162C */]
00001F44  48E7 1F38                movem.l    -[A7], D3,D4,D5,D6,D7,A2,A3,A4
00001F48  49EE FFA8                lea.l      A4, [A6 - 0x58]
00001F4C  206E 0008                movea.l    A0, [A6 + 0x8]
00001F50  4EBA F23E                jsr        [PC - 0xDC2 /* 00001190 */]
00001F54  246E 000C                movea.l    A2, [A6 + 0xC]
00001F58  3E12                     move.w     D7, [A2]
00001F5A  206E 0014                movea.l    A0, [A6 + 0x14]
00001F5E  3007                     move.w     D0, D7
00001F60  ED48                     lsl        D0.w, 6
00001F62  D0C0                     add.w      A0, D0
00001F64  226E 0010                movea.l    A1, [A6 + 0x10]
00001F68  3038 0106                move.w     D0, [0x00000106 /* ScreenRow */]
00001F6C  C0C7                     mulu.w     D0, D7
00001F6E  D3C0                     add.l      A1, D0
00001F70  362A 0002                move.w     D3, [A2 + 0x2]
00001F74  EA4B                     lsr        D3.w, 5
00001F76  382A 0006                move.w     D4, [A2 + 0x6]
00001F7A  0644 001F                addi.w     D4, 0x1F
00001F7E  EA4C                     lsr        D4.w, 5
00001F80  9843                     sub.w      D4, D3
00001F82  3404                     move.w     D2, D4
00001F84  5344                     subq.w     D4, 1
00001F86  47FA 009E                lea.l      A3, [PC + 0x9E /* 00002026, value 0xD0C5D2C6 */]
00001F8A  D442                     add.w      D2, D2
00001F8C  96C2                     sub.w      A3, D2
00001F8E  D442                     add.w      D2, D2
00001F90  3A3C 0040                move.w     D5, 0x40 /* '@' */
00001F94  9A42                     sub.w      D5, D2
00001F96  3C38 0106                move.w     D6, [0x00000106 /* ScreenRow */]
00001F9A  9C42                     sub.w      D6, D2
00001F9C  3403                     move.w     D2, D3
00001F9E  362A 0004                move.w     D3, [A2 + 0x4]
00001FA2  E54A                     lsl        D2.w, 2
00001FA4  D0C2                     add.w      A0, D2
00001FA6  D2C2                     add.w      A1, D2
00001FA8  45F6 20AC                lea.l      A2, [A6 + D2.w - 0x54]
00001FAC  2D4A FFA4                move.l     [A6 - 0x5C], A2
label00001FB0:
00001FB0  BE54                     cmp.w      D7, [A4]
00001FB2  6D04                     blt        +0x6 /* 00001FB8 */
00001FB4  4EBA F586                jsr        [PC - 0xA7A /* 0000153C */]
label00001FB8:
00001FB8  4A2E FFAA                tst.b      [A6 - 0x56]
00001FBC  6638                     bne        +0x3A /* 00001FF6 */
00001FBE  246E FFA4                movea.l    A2, [A6 - 0x5C]
00001FC2  3404                     move.w     D2, D4
00001FC4  6002                     bra        +0x4 /* 00001FC8 */
label00001FC6:
00001FC6  22D8                     move.l     [A1]+, [A0]+
label00001FC8:
00001FC8  201A                     move.l     D0, [A2]+
00001FCA  56CA FFFA                dbne       D2, -0x8 /* 00001FC6 */
00001FCE  6604                     bne        +0x6 /* 00001FD4 */
00001FD0  22D8                     move.l     [A1]+, [A0]+
00001FD2  6016                     bra        +0x18 /* 00001FEA */
label00001FD4:
00001FD4  2200                     move.l     D1, D0
00001FD6  4681                     not.l      D1
00001FD8  6708                     beq        +0xA /* 00001FE2 */
00001FDA  C091                     and.l      D0, [A1]
00001FDC  C290                     and.l      D1, [A0]
00001FDE  8081                     or.l       D0, D1
00001FE0  2280                     move.l     [A1], D0
label00001FE2:
00001FE2  5848                     addq.w     A0, 4
00001FE4  5849                     addq.w     A1, 4
00001FE6  51CA FFE0                dbf        D2, -0x22 /* 00001FC8 */
label00001FEA:
00001FEA  D0C5                     add.w      A0, D5
00001FEC  D2C6                     add.w      A1, D6
00001FEE  5247                     addq.w     D7, 1
00001FF0  BE43                     cmp.w      D7, D3
00001FF2  66BC                     bne        -0x42 /* 00001FB0 */
00001FF4  603E                     bra        +0x40 /* 00002034 */
label00001FF6:
00001FF6  3014                     move.w     D0, [A4]
00001FF8  B043                     cmp.w      D0, D3
00001FFA  6F02                     ble        +0x4 /* 00001FFE */
00001FFC  3003                     move.w     D0, D3
label00001FFE:
00001FFE  9047                     sub.w      D0, D7
00002000  DE40                     add.w      D7, D0
00002002  6026                     bra        +0x28 /* 0000202A */
label00002004:
00002004  4ED3                     jmp        [A3]
00002006  22D8                     move.l     [A1]+, [A0]+
00002008  22D8                     move.l     [A1]+, [A0]+
0000200A  22D8                     move.l     [A1]+, [A0]+
0000200C  22D8                     move.l     [A1]+, [A0]+
0000200E  22D8                     move.l     [A1]+, [A0]+
00002010  22D8                     move.l     [A1]+, [A0]+
00002012  22D8                     move.l     [A1]+, [A0]+
00002014  22D8                     move.l     [A1]+, [A0]+
00002016  22D8                     move.l     [A1]+, [A0]+
00002018  22D8                     move.l     [A1]+, [A0]+
0000201A  22D8                     move.l     [A1]+, [A0]+
0000201C  22D8                     move.l     [A1]+, [A0]+
0000201E  22D8                     move.l     [A1]+, [A0]+
00002020  22D8                     move.l     [A1]+, [A0]+
00002022  22D8                     move.l     [A1]+, [A0]+
00002024  22D8                     move.l     [A1]+, [A0]+
00002026  D0C5                     add.w      A0, D5
00002028  D2C6                     add.w      A1, D6
label0000202A:
0000202A  51C8 FFD8                dbf        D0, -0x2A /* 00002004 */
0000202E  BE43                     cmp.w      D7, D3
00002030  6600 FF7E                bne        -0x80 /* 00001FB0 */
label00002034:
00002034  4CDF 1CF8                movem.l    D3,D4,D5,D6,D7,A2,A3,A4, [A7]+
00002038  4EBA F3EA                jsr        [PC - 0xC16 /* 00001424 */]
0000203C  4E5E                     unlink     A6
0000203E  205F                     movea.l    A0, [A7]+
00002040  DEFC 0010                add.w      A7, 0x10
00002044  4ED0                     jmp        [A0]
export_924:
00002046  4E56 FF84                link       A6, -0x007C
0000204A  4EBA F5E0                jsr        [PC - 0xA20 /* 0000162C */]
0000204E  48E7 1F3C                movem.l    -[A7], D3,D4,D5,D6,D7,A2,A3,A4,A5
00002052  206E 0018                movea.l    A0, [A6 + 0x18]
00002056  226E 0014                movea.l    A1, [A6 + 0x14]
0000205A  246E 0010                movea.l    A2, [A6 + 0x10]
0000205E  7000                     moveq.l    D0, 0x00
00002060  3038 0106                move.w     D0, [0x00000106 /* ScreenRow */]
00002064  2D40 FF84                move.l     [A6 - 0x7C], D0
00002068  302E 000E                move.w     D0, [A6 + 0xE]
0000206C  0C40 0018                cmpi.w     D0, 0x18
00002070  625C                     bhi        +0x5E /* 000020CE */
00002072  D040                     add.w      D0, D0
00002074  47FA 0008                lea.l      A3, [PC + 0x8 /* 0000207E, value 0x50011E, cstring "" */]
00002078  D6FB 0004                add.w      A3, [PC + D0.w + 0x4]
0000207C  4ED3                     jmp        [A3]
0000207E  0050 011E                ori.w      [A0], 0x11E
00002082  0166                     bchg       -[A6], D0
00002084  021C 02DC                andi.b     [A4]+, 0xDC
00002088  0354                     bchg       [A4], D1
0000208A  0398                     bclr       [A0]+, D1
0000208C  03D0                     .incomplete
0000208E  0412 0050                subi.b     [A2], 0x50 /* 'P' */
00002092  0050 0050                ori.w      [A0], 0x50 /* 'P' */
00002096  0050 0050                ori.w      [A0], 0x50 /* 'P' */
0000209A  0050 0050                ori.w      [A0], 0x50 /* 'P' */
0000209E  06E8                     .incomplete
000020A0  06EE                     .incomplete
000020A2  0836 08DE 08EE           btst.b     [A6 + D0 - 0x12], 0xDE
000020A8  0938 094E                btst       [0x0000094E], D4
000020AC  09CA                     .incomplete
000020AE  09DC                     .incomplete
000020B0  6100 001A                bsr        +0x1C /* 000020CC */
fn000020B4:
000020B4  6100 0016                bsr        +0x18 /* 000020CC */
fn000020B8:
000020B8  6100 0012                bsr        +0x14 /* 000020CC */
fn000020BC:
000020BC  6100 000E                bsr        +0x10 /* 000020CC */
fn000020C0:
000020C0  6100 000A                bsr        +0xC /* 000020CC */
fn000020C4:
000020C4  6100 0006                bsr        +0x8 /* 000020CC */
fn000020C8:
000020C8  6100 0002                bsr        +0x4 /* 000020CC */
fn000020CC:
000020CC  4E75                     rts
label000020CE:
000020CE  6100 0006                bsr        +0x8 /* 000020D6 */
000020D2  6000 0A48                bra        +0xA4A /* 00002B1C */
fn000020D6:
000020D6  206E 0018                movea.l    A0, [A6 + 0x18]
000020DA  226E 0014                movea.l    A1, [A6 + 0x14]
000020DE  246E 0010                movea.l    A2, [A6 + 0x10]
000020E2  3C3C 0010                move.w     D6, 0x10
000020E6  3E3C 0156                move.w     D7, 0x156
fn000020EA:
000020EA  48E7 03E0                movem.l    -[A7], D6,D7,A0,A1,A2
000020EE  3006                     move.w     D0, D6
000020F0  6F48                     ble        +0x4A /* 0000213A */
000020F2  E548                     lsl        D0.w, 2
000020F4  383C 0040                move.w     D4, 0x40 /* '@' */
000020F8  9840                     sub.w      D4, D0
000020FA  3A38 0106                move.w     D5, [0x00000106 /* ScreenRow */]
000020FE  9A40                     sub.w      D5, D0
00002100  5346                     subq.w     D6, 1
00002102  6030                     bra        +0x32 /* 00002134 */
label00002104:
00002104  22D8                     move.l     [A1]+, [A0]+
label00002106:
00002106  201A                     move.l     D0, [A2]+
00002108  56CA FFFA                dbne       D2, -0x8 /* 00002104 */
0000210C  6604                     bne        +0x6 /* 00002112 */
0000210E  22D8                     move.l     [A1]+, [A0]+
00002110  601C                     bra        +0x1E /* 0000212E */
label00002112:
00002112  2200                     move.l     D1, D0
00002114  4681                     not.l      D1
00002116  670E                     beq        +0x10 /* 00002126 */
00002118  C091                     and.l      D0, [A1]
0000211A  C298                     and.l      D1, [A0]+
0000211C  8081                     or.l       D0, D1
0000211E  22C0                     move.l     [A1]+, D0
00002120  51CA FFE4                dbf        D2, -0x1E /* 00002106 */
00002124  6008                     bra        +0xA /* 0000212E */
label00002126:
00002126  5848                     addq.w     A0, 4
00002128  5849                     addq.w     A1, 4
0000212A  51CA FFDA                dbf        D2, -0x28 /* 00002106 */
label0000212E:
0000212E  D0C4                     add.w      A0, D4
00002130  D4C4                     add.w      A2, D4
00002132  D2C5                     add.w      A1, D5
label00002134:
00002134  3406                     move.w     D2, D6
00002136  51CF FFCE                dbf        D7, -0x34 /* 00002106 */
label0000213A:
0000213A  4CDF 07C0                movem.l    D6,D7,A0,A1,A2, [A7]+
0000213E  4E75                     rts
fn00002140:
00002140  740F                     moveq.l    D2, 0x0F
00002142  6000 0004                bra        +0x6 /* 00002148 */
label00002146:
00002146  22D8                     move.l     [A1]+, [A0]+
label00002148:
00002148  201A                     move.l     D0, [A2]+
0000214A  56CA FFFA                dbne       D2, -0x8 /* 00002146 */
0000214E  6604                     bne        +0x6 /* 00002154 */
00002150  22D8                     move.l     [A1]+, [A0]+
00002152  6010                     bra        +0x12 /* 00002164 */
label00002154:
00002154  2200                     move.l     D1, D0
00002156  4681                     not.l      D1
00002158  C091                     and.l      D0, [A1]
0000215A  C298                     and.l      D1, [A0]+
0000215C  8081                     or.l       D0, D1
0000215E  22C0                     move.l     [A1]+, D0
00002160  51CA FFE6                dbf        D2, -0x1C /* 00002148 */
label00002164:
00002164  92FC 0040                sub.w      A1, 0x40 /* '@' */
00002168  D2F8 0106                add.w      A1, [0x00000106 /* ScreenRow */]
0000216C  4E75                     rts
fn0000216E:
0000216E  740F                     moveq.l    D2, 0x0F
00002170  6000 0004                bra        +0x6 /* 00002176 */
label00002174:
00002174  22C3                     move.l     [A1]+, D3
label00002176:
00002176  201A                     move.l     D0, [A2]+
00002178  56CA FFFA                dbne       D2, -0x8 /* 00002174 */
0000217C  6604                     bne        +0x6 /* 00002182 */
0000217E  22C3                     move.l     [A1]+, D3
00002180  6010                     bra        +0x12 /* 00002192 */
label00002182:
00002182  2200                     move.l     D1, D0
00002184  4681                     not.l      D1
00002186  C091                     and.l      D0, [A1]
00002188  C283                     and.l      D1, D3
0000218A  8081                     or.l       D0, D1
0000218C  22C0                     move.l     [A1]+, D0
0000218E  51CA FFE6                dbf        D2, -0x1C /* 00002176 */
label00002192:
00002192  92FC 0040                sub.w      A1, 0x40 /* '@' */
00002196  D2F8 0106                add.w      A1, [0x00000106 /* ScreenRow */]
0000219A  4E75                     rts
0000219C  6100 009C                bsr        +0x9E /* 0000223A */
000021A0  4EBA F282                jsr        [PC - 0xD7E /* 00001424 */]
000021A4  7E0C                     moveq.l    D7, 0x0C
000021A6  47EE FFE4                lea.l      A3, [A6 - 0x1C]
label000021AA:
000021AA  0C47 0002                cmpi.w     D7, 0x2
000021AE  6F04                     ble        +0x6 /* 000021B4 */
000021B0  2F0B                     move.l     -[A7], A3
000021B2  A8A1                     syscall    FrameRect
label000021B4:
000021B4  0C47 000A                cmpi.w     D7, 0xA /* '\n' */
000021B8  6C06                     bge        +0x8 /* 000021C0 */
000021BA  486B 0018                pea.l      [A3 + 0x18]
000021BE  A8A1                     syscall    FrameRect
label000021C0:
000021C0  302E 000C                move.w     D0, [A6 + 0xC]
label000021C4:
000021C4  4EBA FF02                jsr        [PC - 0xFE /* 000020C8 */]
000021C8  51C8 FFFA                dbf        D0, -0x8 /* 000021C4 */
000021CC  514B                     subq.w     A3, 8
000021CE  51CF FFDA                dbf        D7, -0x28 /* 000021AA */
000021D2  2055                     movea.l    A0, [A5]
000021D4  2250                     movea.l    A1, [A0]
000021D6  236E FF88 0018           move.l     [A1 + 0x18], [A6 - 0x78]
000021DC  4EBA F44E                jsr        [PC - 0xBB2 /* 0000162C */]
000021E0  6000 FEEC                bra        -0x112 /* 000020CE */
000021E4  6100 FEF0                bsr        -0x10E /* 000020D6 */
000021E8  3D7C 0100 000A           move.w     [A6 + 0xA], 0x100
000021EE  3D7C 00AB 0008           move.w     [A6 + 0x8], 0xAB
000021F4  6100 0044                bsr        +0x46 /* 0000223A */
000021F8  4EBA F22A                jsr        [PC - 0xDD6 /* 00001424 */]
000021FC  3E3C 000C                move.w     D7, 0xC
00002200  47EE FF9C                lea.l      A3, [A6 - 0x64]
label00002204:
00002204  0C47 0002                cmpi.w     D7, 0x2
00002208  6F04                     ble        +0x6 /* 0000220E */
0000220A  2F0B                     move.l     -[A7], A3
0000220C  A8A1                     syscall    FrameRect
label0000220E:
0000220E  0C47 000A                cmpi.w     D7, 0xA /* '\n' */
00002212  6C06                     bge        +0x8 /* 0000221A */
00002214  486B FFE8                pea.l      [A3 - 0x18]
00002218  A8A1                     syscall    FrameRect
label0000221A:
0000221A  302E 000C                move.w     D0, [A6 + 0xC]
label0000221E:
0000221E  4EBA FEA8                jsr        [PC - 0x158 /* 000020C8 */]
00002222  51C8 FFFA                dbf        D0, -0x8 /* 0000221E */
00002226  504B                     addq.w     A3, 8
00002228  51CF FFDA                dbf        D7, -0x28 /* 00002204 */
0000222C  2055                     movea.l    A0, [A5]
0000222E  2250                     movea.l    A1, [A0]
00002230  236E FF88 0018           move.l     [A1 + 0x18], [A6 - 0x78]
00002236  6000 08E4                bra        +0x8E6 /* 00002B1C */
fn0000223A:
0000223A  2055                     movea.l    A0, [A5]
0000223C  2250                     movea.l    A1, [A0]
0000223E  2D69 0018 FF88           move.l     [A6 - 0x78], [A1 + 0x18]
00002244  2369 001C 0018           move.l     [A1 + 0x18], [A1 + 0x1C]
0000224A  4868 FFE8                pea.l      [A0 - 0x18]
0000224E  A89D                     syscall    PenPat
00002250  3F3C 000E                move.w     -[A7], 0xE
00002254  A89C                     syscall    PenMode
00002256  2D6E 0008 FF8C           move.l     [A6 - 0x74], [A6 + 0x8]
0000225C  2D6E 0008 FF90           move.l     [A6 - 0x70], [A6 + 0x8]
00002262  41EE FF94                lea.l      A0, [A6 - 0x6C]
00002266  4298                     clr.l      [A0]+
00002268  30FC 0156                move.w     [A0]+, 0x156
0000226C  30FC 0200                move.w     [A0]+, 0x200
00002270  343C 0009                move.w     D2, 0x9 /* '\t' */
00002274  43EE FF94                lea.l      A1, [A6 - 0x6C]
00002278  45EE FF9C                lea.l      A2, [A6 - 0x64]
label0000227C:
0000227C  41EE FF8C                lea.l      A0, [A6 - 0x74]
00002280  323C 0003                move.w     D1, 0x3
label00002284:
00002284  3011                     move.w     D0, [A1]
00002286  D040                     add.w      D0, D0
00002288  D059                     add.w      D0, [A1]+
0000228A  D058                     add.w      D0, [A0]+
0000228C  E440                     asr        D0.w, 2
0000228E  34C0                     move.w     [A2]+, D0
00002290  51C9 FFF2                dbf        D1, -0x10 /* 00002284 */
00002294  51CA FFE6                dbf        D2, -0x1C /* 0000227C */
00002298  4E75                     rts
0000229A  286E 0018                movea.l    A4, [A6 + 0x18]
0000229E  D8FC 5580                add.w      A4, 0x5580
000022A2  4BFA 006E                lea.l      A5, [PC + 0x6E /* 00002312, value 0x2, cstring "" */]
000022A6  47FA 0082                lea.l      A3, [PC + 0x82 /* 0000232A, value 0x77777777 'wwww' */]
000022AA  3C38 0106                move.w     D6, [0x00000106 /* ScreenRow */]
000022AE  E54E                     lsl        D6.w, 2
000022B0  0446 0040                subi.w     D6, 0x40 /* '@' */
000022B4  760B                     moveq.l    D3, 0x0B
label000022B6:
000022B6  281B                     move.l     D4, [A3]+
000022B8  301D                     move.w     D0, [A5]+
000022BA  3200                     move.w     D1, D0
000022BC  C0FC 0040                mulu.w     D0, 0x40 /* '@' */
000022C0  206E 0018                movea.l    A0, [A6 + 0x18]
000022C4  D1C0                     add.l      A0, D0
000022C6  246E 0010                movea.l    A2, [A6 + 0x10]
000022CA  D5C0                     add.l      A2, D0
000022CC  C2F8 0106                mulu.w     D1, [0x00000106 /* ScreenRow */]
000022D0  226E 0014                movea.l    A1, [A6 + 0x14]
000022D4  D3C1                     add.l      A1, D1
label000022D6:
000022D6  343C 000F                move.w     D2, 0xF
label000022DA:
000022DA  2018                     move.l     D0, [A0]+
000022DC  2211                     move.l     D1, [A1]
000022DE  2A1A                     move.l     D5, [A2]+
000022E0  8A84                     or.l       D5, D4
000022E2  B181                     xor.l      D1, D0
000022E4  C285                     and.l      D1, D5
000022E6  B181                     xor.l      D1, D0
000022E8  22C1                     move.l     [A1]+, D1
000022EA  51CA FFEE                dbf        D2, -0x14 /* 000022DA */
000022EE  D0FC 00C0                add.w      A0, 0xC0
000022F2  D4FC 00C0                add.w      A2, 0xC0
000022F6  D2C6                     add.w      A1, D6
000022F8  302E 000C                move.w     D0, [A6 + 0xC]
000022FC  EC48                     lsr        D0.w, 6
label000022FE:
000022FE  4EBA FDC0                jsr        [PC - 0x240 /* 000020C0 */]
00002302  51C8 FFFA                dbf        D0, -0x8 /* 000022FE */
00002306  B1CC                     cmpa.l     A0, A4
00002308  65CC                     bcs        -0x32 /* 000022D6 */
0000230A  51CB FFAA                dbf        D3, -0x58 /* 000022B6 */
0000230E  6000 080C                bra        +0x80E /* 00002B1C */
00002312  0000 0002                ori.b      D0, 0x2
00002316  0000 0002                ori.b      D0, 0x2
0000231A  0001 0003                ori.b      D1, 0x3
0000231E  0001 0003                ori.b      D1, 0x3
00002322  0000 0002                ori.b      D0, 0x2
00002326  0001 0003                ori.b      D1, 0x3
0000232A  7777                     moveq.l    D3, 0x77
0000232C  7777                     moveq.l    D3, 0x77
0000232E  DDDD                     add.l      A6, [A5]+
00002330  DDDD                     add.l      A6, [A5]+
00002332  DDDD                     add.l      A6, [A5]+
00002334  DDDD                     add.l      A6, [A5]+
00002336  7777                     moveq.l    D3, 0x77
00002338  7777                     moveq.l    D3, 0x77
0000233A  BBBB BBBB EEEE EEEE E... xor.l      [[-0x11111112 + A3 * 2] - 0x11111112], D5
00002346  BBBB BBBB 0000 0000 0... xor.l      [[ + A3 * 2]], D5
00002352  0000 0000                ori.b      D0, 0x0
00002356  0000 0000                ori.b      D0, 0x0
0000235A  3A38 0106                move.w     D5, [0x00000106 /* ScreenRow */]
0000235E  CAFC 0026                mulu.w     D5, 0x26 /* '&' */
00002362  0485 0000 0040           subi.l     D5, 0x40 /* '@' */
00002368  3E3C 0025                move.w     D7, 0x25 /* '%' */
label0000236C:
0000236C  206E 0018                movea.l    A0, [A6 + 0x18]
00002370  226E 0014                movea.l    A1, [A6 + 0x14]
00002374  246E 0010                movea.l    A2, [A6 + 0x10]
00002378  3C3C 0008                move.w     D6, 0x8
label0000237C:
0000237C  343C 000F                move.w     D2, 0xF
label00002380:
00002380  201A                     move.l     D0, [A2]+
00002382  2200                     move.l     D1, D0
00002384  4681                     not.l      D1
00002386  C091                     and.l      D0, [A1]
00002388  C298                     and.l      D1, [A0]+
0000238A  8081                     or.l       D0, D1
0000238C  22C0                     move.l     [A1]+, D0
0000238E  51CA FFF0                dbf        D2, -0x12 /* 00002380 */
00002392  D0FC 0940                add.w      A0, 0x940 /* '\t@' */
00002396  D4FC 0940                add.w      A2, 0x940 /* '\t@' */
0000239A  D3C5                     add.l      A1, D5
0000239C  51CE FFDE                dbf        D6, -0x24 /* 0000237C */
000023A0  302E 000C                move.w     D0, [A6 + 0xC]
000023A4  E448                     lsr        D0.w, 2
000023A6  0640 0032                addi.w     D0, 0x32 /* '2' */
label000023AA:
000023AA  4EBA FD0C                jsr        [PC - 0x2F4 /* 000020B8 */]
000023AE  51C8 FFFA                dbf        D0, -0x8 /* 000023AA */
000023B2  06AE 0000 0040 0018      addi.l     [A6 + 0x18], 0x40 /* '@' */
000023BA  06AE 0000 0040 0010      addi.l     [A6 + 0x10], 0x40 /* '@' */
000023C2  202E FF84                move.l     D0, [A6 - 0x7C]
000023C6  D1AE 0014                add.l      [A6 + 0x14], D0
000023CA  51CF FFA0                dbf        D7, -0x62 /* 0000236C */
000023CE  6000 074C                bra        +0x74E /* 00002B1C */
000023D2  D2FC 0038                add.w      A1, 0x38 /* '8' */
000023D6  D4FC 0038                add.w      A2, 0x38 /* '8' */
000023DA  3E3C 0156                move.w     D7, 0x156
000023DE  7C02                     moveq.l    D6, 0x02
label000023E0:
000023E0  6100 FD08                bsr        -0x2F6 /* 000020EA */
000023E4  302E 000C                move.w     D0, [A6 + 0xC]
label000023E8:
000023E8  4EBA FCCA                jsr        [PC - 0x336 /* 000020B4 */]
000023EC  51C8 FFFA                dbf        D0, -0x8 /* 000023E8 */
000023F0  0C46 0010                cmpi.w     D6, 0x10
000023F4  6700 0726                beq        +0x728 /* 00002B1C */
000023F8  92FC 000C                sub.w      A1, 0xC
000023FC  94FC 000C                sub.w      A2, 0xC
00002400  5646                     addq.w     D6, 3
00002402  0C46 0010                cmpi.w     D6, 0x10
00002406  6FD8                     ble        -0x26 /* 000023E0 */
00002408  3C3C 0010                move.w     D6, 0x10
0000240C  226E 0014                movea.l    A1, [A6 + 0x14]
00002410  246E 0010                movea.l    A2, [A6 + 0x10]
00002414  60CA                     bra        -0x34 /* 000023E0 */
00002416  D0FC 0038                add.w      A0, 0x38 /* '8' */
0000241A  3E3C 0156                move.w     D7, 0x156
0000241E  7C02                     moveq.l    D6, 0x02
label00002420:
00002420  6100 FCC8                bsr        -0x336 /* 000020EA */
00002424  302E 000C                move.w     D0, [A6 + 0xC]
label00002428:
00002428  4EBA FC8A                jsr        [PC - 0x376 /* 000020B4 */]
0000242C  51C8 FFFA                dbf        D0, -0x8 /* 00002428 */
00002430  0C46 0010                cmpi.w     D6, 0x10
00002434  6700 06E6                beq        +0x6E8 /* 00002B1C */
00002438  90FC 000C                sub.w      A0, 0xC
0000243C  5646                     addq.w     D6, 3
0000243E  0C46 0010                cmpi.w     D6, 0x10
00002442  6FDC                     ble        -0x22 /* 00002420 */
00002444  3C3C 0010                move.w     D6, 0x10
00002448  206E 0018                movea.l    A0, [A6 + 0x18]
0000244C  60D2                     bra        -0x2C /* 00002420 */
0000244E  3C3C 0010                move.w     D6, 0x10
00002452  3E3C 0039                move.w     D7, 0x39 /* '9' */
00002456  3638 0106                move.w     D3, [0x00000106 /* ScreenRow */]
0000245A  C6FC 0039                mulu.w     D3, 0x39 /* '9' */
0000245E  2003                     move.l     D0, D3
00002460  E588                     lsl        D0, 2
00002462  D083                     add.l      D0, D3
00002464  D3C0                     add.l      A1, D0
00002466  D4FC 4740                add.w      A2, 0x4740 /* 'G@' */
label0000246A:
0000246A  6100 FC7E                bsr        -0x380 /* 000020EA */
0000246E  302E 000C                move.w     D0, [A6 + 0xC]
00002472  E348                     lsl        D0.w, 1
label00002474:
00002474  4EBA FC4A                jsr        [PC - 0x3B6 /* 000020C0 */]
00002478  51C8 FFFA                dbf        D0, -0x8 /* 00002474 */
0000247C  0C47 0156                cmpi.w     D7, 0x156
00002480  6700 069A                beq        +0x69C /* 00002B1C */
00002484  93C3                     sub.l      A1, D3
00002486  94FC 0E40                sub.w      A2, 0xE40
0000248A  0647 0039                addi.w     D7, 0x39 /* '9' */
0000248E  60DA                     bra        -0x24 /* 0000246A */
00002490  3C3C 0010                move.w     D6, 0x10
00002494  3E3C 0039                move.w     D7, 0x39 /* '9' */
00002498  D0FC 4740                add.w      A0, 0x4740 /* 'G@' */
label0000249C:
0000249C  6100 FC4C                bsr        -0x3B2 /* 000020EA */
000024A0  302E 000C                move.w     D0, [A6 + 0xC]
000024A4  E348                     lsl        D0.w, 1
label000024A6:
000024A6  4EBA FC18                jsr        [PC - 0x3E8 /* 000020C0 */]
000024AA  51C8 FFFA                dbf        D0, -0x8 /* 000024A6 */
000024AE  0C47 0156                cmpi.w     D7, 0x156
000024B2  6700 0668                beq        +0x66A /* 00002B1C */
000024B6  90FC 0E40                sub.w      A0, 0xE40
000024BA  0647 0039                addi.w     D7, 0x39 /* '9' */
000024BE  60DC                     bra        -0x22 /* 0000249C */
000024C0  426E FFF6                clr.w      [A6 - 0xA]
000024C4  50EE FFF4                st         [A6 - 0xC]
000024C8  6100 0106                bsr        +0x108 /* 000025D0 */
000024CC  6100 002E                bsr        +0x30 /* 000024FC */
000024D0  6000 064A                bra        +0x64C /* 00002B1C */
000024D4  3D7C FFFF FFF6           move.w     [A6 - 0xA], 0xFFFF
000024DA  6100 0020                bsr        +0x22 /* 000024FC */
000024DE  6000 063C                bra        +0x63E /* 00002B1C */
000024E2  426E FFF6                clr.w      [A6 - 0xA]
000024E6  6100 0014                bsr        +0x16 /* 000024FC */
000024EA  6000 0630                bra        +0x632 /* 00002B1C */
000024EE  3D7C 0001 FFF6           move.w     [A6 - 0xA], 0x1
000024F4  6100 0006                bsr        +0x8 /* 000024FC */
000024F8  6000 0622                bra        +0x624 /* 00002B1C */
fn000024FC:
000024FC  363C 0004                move.w     D3, 0x4
label00002500:
00002500  0C43 0020                cmpi.w     D3, 0x20 /* ' ' */
00002504  6D04                     blt        +0x6 /* 0000250A */
00002506  6100 051E                bsr        +0x520 /* 00002A26 */
label0000250A:
0000250A  3403                     move.w     D2, D3
0000250C  206E 0018                movea.l    A0, [A6 + 0x18]
00002510  226E 0014                movea.l    A1, [A6 + 0x14]
00002514  303C 00F0                move.w     D0, 0xF0
00002518  9043                     sub.w      D0, D3
0000251A  4A6E FFF6                tst.w      [A6 - 0xA]
0000251E  6B0E                     bmi        +0x10 /* 0000252E */
00002520  6602                     bne        +0x4 /* 00002524 */
00002522  E248                     lsr        D0.w, 1
label00002524:
00002524  0240 FFFE                andi.w     D0, 0xFFFE
00002528  C0F8 0106                mulu.w     D0, [0x00000106 /* ScreenRow */]
0000252C  D3C0                     add.l      A1, D0
label0000252E:
0000252E  323C 0078                move.w     D1, 0x78 /* 'x' */
label00002532:
00002532  4CD0 3CE0                movem.l    D5,D6,D7,A2,A3,A4,A5, [A0]
00002536  48D1 3CE0                movem.l    [A1], D5,D6,D7,A2,A3,A4,A5
0000253A  4CE8 1CE0 001C           movem.l    D5,D6,D7,A2,A3,A4, [A0 + 0x1C]
00002540  48E9 1CE0 001C           movem.l    [A1 + 0x1C], D5,D6,D7,A2,A3,A4
00002546  D2F8 0106                add.w      A1, [0x00000106 /* ScreenRow */]
0000254A  D0FC 0040                add.w      A0, 0x40 /* '@' */
0000254E  4CD0 3CE0                movem.l    D5,D6,D7,A2,A3,A4,A5, [A0]
00002552  48D1 3CE0                movem.l    [A1], D5,D6,D7,A2,A3,A4,A5
00002556  4CE8 1CE0 001C           movem.l    D5,D6,D7,A2,A3,A4, [A0 + 0x1C]
0000255C  48E9 1CE0 001C           movem.l    [A1 + 0x1C], D5,D6,D7,A2,A3,A4
00002562  D2F8 0106                add.w      A1, [0x00000106 /* ScreenRow */]
00002566  90FC 0040                sub.w      A0, 0x40 /* '@' */
label0000256A:
0000256A  D0FC 0040                add.w      A0, 0x40 /* '@' */
0000256E  D0FC 0040                add.w      A0, 0x40 /* '@' */
00002572  9243                     sub.w      D1, D3
00002574  6EF4                     bgt        -0xA /* 0000256A */
00002576  0641 00F0                addi.w     D1, 0xF0
0000257A  5542                     subq.w     D2, 2
0000257C  6EB4                     bgt        -0x4A /* 00002532 */
0000257E  0C43 00F0                cmpi.w     D3, 0xF0
00002582  6716                     beq        +0x18 /* 0000259A */
00002584  C6FC 0005                mulu.w     D3, 0x5
00002588  E44B                     lsr        D3.w, 2
0000258A  0C43 00F0                cmpi.w     D3, 0xF0
0000258E  6F00 FF70                ble        -0x8E /* 00002500 */
00002592  363C 00F0                move.w     D3, 0xF0
00002596  6000 FF68                bra        -0x96 /* 00002500 */
label0000259A:
0000259A  4E75                     rts
0000259C  3D7C FFFF FFF6           move.w     [A6 - 0xA], 0xFFFF
000025A2  51EE FFF4                sf         [A6 - 0xC]
000025A6  6100 0028                bsr        +0x2A /* 000025D0 */
000025AA  6000 0570                bra        +0x572 /* 00002B1C */
000025AE  426E FFF6                clr.w      [A6 - 0xA]
000025B2  51EE FFF4                sf         [A6 - 0xC]
000025B6  6100 0018                bsr        +0x1A /* 000025D0 */
000025BA  6000 0560                bra        +0x562 /* 00002B1C */
000025BE  3D7C 0001 FFF6           move.w     [A6 - 0xA], 0x1
000025C4  51EE FFF4                sf         [A6 - 0xC]
000025C8  6100 0006                bsr        +0x8 /* 000025D0 */
000025CC  6000 054E                bra        +0x550 /* 00002B1C */
fn000025D0:
000025D0  363C 00F0                move.w     D3, 0xF0
000025D4  426E FFF2                clr.w      [A6 - 0xE]
000025D8  3D43 FFF0                move.w     [A6 - 0x10], D3
000025DC  7E01                     moveq.l    D7, 0x01
label000025DE:
000025DE  C6FC 0007                mulu.w     D3, 0x7
000025E2  E643                     asr        D3.w, 3
000025E4  0C43 0020                cmpi.w     D3, 0x20 /* ' ' */
000025E8  6D04                     blt        +0x6 /* 000025EE */
000025EA  6100 043A                bsr        +0x43C /* 00002A26 */
label000025EE:
000025EE  7000                     moveq.l    D0, 0x00
000025F0  4A6E FFF6                tst.w      [A6 - 0xA]
000025F4  6B0E                     bmi        +0x10 /* 00002604 */
000025F6  303C 00F0                move.w     D0, 0xF0
000025FA  9043                     sub.w      D0, D3
000025FC  4A6E FFF6                tst.w      [A6 - 0xA]
00002600  6602                     bne        +0x4 /* 00002604 */
00002602  E248                     lsr        D0.w, 1
label00002604:
00002604  3D40 FFEE                move.w     [A6 - 0x12], D0
00002608  D043                     add.w      D0, D3
0000260A  3D40 FFEC                move.w     [A6 - 0x14], D0
0000260E  343C 00F0                move.w     D2, 0xF0
00002612  4A6E FFF6                tst.w      [A6 - 0xA]
00002616  6B00 008C                bmi        +0x8E /* 000026A4 */
0000261A  6600 0006                bne        +0x8 /* 00002622 */
0000261E  343C 0078                move.w     D2, 0x78 /* 'x' */
label00002622:
00002622  226E 0014                movea.l    A1, [A6 + 0x14]
00002626  3002                     move.w     D0, D2
00002628  C0F8 0106                mulu.w     D0, [0x00000106 /* ScreenRow */]
0000262C  D3C0                     add.l      A1, D0
0000262E  2049                     movea.l    A0, A1
00002630  6000 002C                bra        +0x2E /* 0000265E */
label00002634:
00002634  E25F                     ror        D7.w, 1
00002636  6408                     bcc        +0xA /* 00002640 */
00002638  90F8 0106                sub.w      A0, [0x00000106 /* ScreenRow */]
0000263C  90F8 0106                sub.w      A0, [0x00000106 /* ScreenRow */]
label00002640:
00002640  92F8 0106                sub.w      A1, [0x00000106 /* ScreenRow */]
00002644  90F8 0106                sub.w      A0, [0x00000106 /* ScreenRow */]
00002648  5342                     subq.w     D2, 1
0000264A  4CD0 3C70                movem.l    D4,D5,D6,A2,A3,A4,A5, [A0]
0000264E  48D1 3C70                movem.l    [A1], D4,D5,D6,A2,A3,A4,A5
00002652  4CE8 1C70 001C           movem.l    D4,D5,D6,A2,A3,A4, [A0 + 0x1C]
00002658  48E9 1C70 001C           movem.l    [A1 + 0x1C], D4,D5,D6,A2,A3,A4
label0000265E:
0000265E  B46E FFEE                cmp.w      D2, [A6 - 0x12]
00002662  66D0                     bne        -0x2E /* 00002634 */
00002664  206E 0018                movea.l    A0, [A6 + 0x18]
00002668  3002                     move.w     D0, D2
0000266A  C0FC 0040                mulu.w     D0, 0x40 /* '@' */
0000266E  D1C0                     add.l      A0, D0
00002670  6000 002C                bra        +0x2E /* 0000269E */
label00002674:
00002674  92F8 0106                sub.w      A1, [0x00000106 /* ScreenRow */]
00002678  5342                     subq.w     D2, 1
0000267A  4A2E FFF4                tst.b      [A6 - 0xC]
0000267E  6706                     beq        +0x8 /* 00002686 */
00002680  6100 00CA                bsr        +0xCC /* 0000274C */
00002684  6018                     bra        +0x1A /* 0000269E */
label00002686:
00002686  90FC 0040                sub.w      A0, 0x40 /* '@' */
0000268A  4CD0 3C70                movem.l    D4,D5,D6,A2,A3,A4,A5, [A0]
0000268E  48D1 3C70                movem.l    [A1], D4,D5,D6,A2,A3,A4,A5
00002692  4CE8 1C70 001C           movem.l    D4,D5,D6,A2,A3,A4, [A0 + 0x1C]
00002698  48E9 1C70 001C           movem.l    [A1 + 0x1C], D4,D5,D6,A2,A3,A4
label0000269E:
0000269E  B46E FFF2                cmp.w      D2, [A6 - 0xE]
000026A2  66D0                     bne        -0x2E /* 00002674 */
label000026A4:
000026A4  7400                     moveq.l    D2, 0x00
000026A6  4A6E FFF6                tst.w      [A6 - 0xA]
000026AA  6B00 000A                bmi        +0xC /* 000026B6 */
000026AE  6600 0088                bne        +0x8A /* 00002738 */
000026B2  343C 0078                move.w     D2, 0x78 /* 'x' */
label000026B6:
000026B6  226E 0014                movea.l    A1, [A6 + 0x14]
000026BA  3002                     move.w     D0, D2
000026BC  C0F8 0106                mulu.w     D0, [0x00000106 /* ScreenRow */]
000026C0  D3C0                     add.l      A1, D0
000026C2  2049                     movea.l    A0, A1
000026C4  6000 002C                bra        +0x2E /* 000026F2 */
label000026C8:
000026C8  E25F                     ror        D7.w, 1
000026CA  6408                     bcc        +0xA /* 000026D4 */
000026CC  D0F8 0106                add.w      A0, [0x00000106 /* ScreenRow */]
000026D0  D0F8 0106                add.w      A0, [0x00000106 /* ScreenRow */]
label000026D4:
000026D4  4CD0 3C70                movem.l    D4,D5,D6,A2,A3,A4,A5, [A0]
000026D8  48D1 3C70                movem.l    [A1], D4,D5,D6,A2,A3,A4,A5
000026DC  4CE8 1C70 001C           movem.l    D4,D5,D6,A2,A3,A4, [A0 + 0x1C]
000026E2  48E9 1C70 001C           movem.l    [A1 + 0x1C], D4,D5,D6,A2,A3,A4
000026E8  D0F8 0106                add.w      A0, [0x00000106 /* ScreenRow */]
000026EC  D2F8 0106                add.w      A1, [0x00000106 /* ScreenRow */]
000026F0  5242                     addq.w     D2, 1
label000026F2:
000026F2  B46E FFEC                cmp.w      D2, [A6 - 0x14]
000026F6  66D0                     bne        -0x2E /* 000026C8 */
000026F8  206E 0018                movea.l    A0, [A6 + 0x18]
000026FC  3002                     move.w     D0, D2
000026FE  C0FC 0040                mulu.w     D0, 0x40 /* '@' */
00002702  D1C0                     add.l      A0, D0
00002704  6000 002C                bra        +0x2E /* 00002732 */
label00002708:
00002708  4A2E FFF4                tst.b      [A6 - 0xC]
0000270C  6706                     beq        +0x8 /* 00002714 */
0000270E  6100 003C                bsr        +0x3E /* 0000274C */
00002712  6018                     bra        +0x1A /* 0000272C */
label00002714:
00002714  4CD0 3C70                movem.l    D4,D5,D6,A2,A3,A4,A5, [A0]
00002718  48D1 3C70                movem.l    [A1], D4,D5,D6,A2,A3,A4,A5
0000271C  4CE8 1C70 001C           movem.l    D4,D5,D6,A2,A3,A4, [A0 + 0x1C]
00002722  48E9 1C70 001C           movem.l    [A1 + 0x1C], D4,D5,D6,A2,A3,A4
00002728  D0FC 0040                add.w      A0, 0x40 /* '@' */
label0000272C:
0000272C  D2F8 0106                add.w      A1, [0x00000106 /* ScreenRow */]
00002730  5242                     addq.w     D2, 1
label00002732:
00002732  B46E FFF0                cmp.w      D2, [A6 - 0x10]
00002736  66D0                     bne        -0x2E /* 00002708 */
label00002738:
00002738  3D6E FFEE FFF2           move.w     [A6 - 0xE], [A6 - 0x12]
0000273E  3D6E FFEC FFF0           move.w     [A6 - 0x10], [A6 - 0x14]
00002744  4A43                     tst.w      D3
00002746  6600 FE96                bne        -0x168 /* 000025DE */
0000274A  4E75                     rts
fn0000274C:
0000274C  203C AAAA AAAA           move.l     D0, 0xAAAAAAAA
00002752  0802 0000                btst.b     D2, 0x0
00002756  6702                     beq        +0x4 /* 0000275A */
00002758  4680                     not.l      D0
label0000275A:
0000275A  2049                     movea.l    A0, A1
0000275C  720C                     moveq.l    D1, 0x0C
label0000275E:
0000275E  20C0                     move.l     [A0]+, D0
00002760  51C9 FFFC                dbf        D1, -0x6 /* 0000275E */
00002764  4E75                     rts
00002766  50C5                     st         D5
00002768  6000 0004                bra        +0x6 /* 0000276E */
0000276C  51C5                     sf         D5
label0000276E:
0000276E  7800                     moveq.l    D4, 0x00
00002770  50C3                     st         D3
00002772  3E3C 0154                move.w     D7, 0x154
00002776  3C3C 001E                move.w     D6, 0x1E
0000277A  4A05                     tst.b      D5
0000277C  6724                     beq        +0x26 /* 000027A2 */
0000277E  7E00                     moveq.l    D7, 0x00
00002780  7C00                     moveq.l    D6, 0x00
00002782  303C 00AA                move.w     D0, 0xAA
00002786  C0FC 0040                mulu.w     D0, 0x40 /* '@' */
0000278A  0640 001E                addi.w     D0, 0x1E
0000278E  D0C0                     add.w      A0, D0
00002790  D4C0                     add.w      A2, D0
00002792  303C 00AA                move.w     D0, 0xAA
00002796  C0F8 0106                mulu.w     D0, [0x00000106 /* ScreenRow */]
0000279A  0680 0000 001E           addi.l     D0, 0x1E
000027A0  D3C0                     add.l      A1, D0
label000027A2:
000027A2  3006                     move.w     D0, D6
label000027A4:
000027A4  3218                     move.w     D1, [A0]+
000027A6  3411                     move.w     D2, [A1]
000027A8  B342                     xor.w      D2, D1
000027AA  C45A                     and.w      D2, [A2]+
000027AC  B342                     xor.w      D2, D1
000027AE  32C2                     move.w     [A1]+, D2
000027B0  51C8 FFF2                dbf        D0, -0x10 /* 000027A4 */
000027B4  3210                     move.w     D1, [A0]
000027B6  3411                     move.w     D2, [A1]
000027B8  B342                     xor.w      D2, D1
000027BA  C452                     and.w      D2, [A2]
000027BC  B342                     xor.w      D2, D1
000027BE  3282                     move.w     [A1], D2
000027C0  3007                     move.w     D0, D7
000027C2  4A03                     tst.b      D3
000027C4  6612                     bne        +0x14 /* 000027D8 */
000027C6  C0FC 0040                mulu.w     D0, 0x40 /* '@' */
000027CA  D1C0                     add.l      A0, D0
000027CC  D5C0                     add.l      A2, D0
000027CE  3007                     move.w     D0, D7
000027D0  C0F8 0106                mulu.w     D0, [0x00000106 /* ScreenRow */]
000027D4  D3C0                     add.l      A1, D0
000027D6  7000                     moveq.l    D0, 0x00
label000027D8:
000027D8  3210                     move.w     D1, [A0]
000027DA  3411                     move.w     D2, [A1]
000027DC  B342                     xor.w      D2, D1
000027DE  C452                     and.w      D2, [A2]
000027E0  B342                     xor.w      D2, D1
000027E2  3282                     move.w     [A1], D2
000027E4  D0FC 0040                add.w      A0, 0x40 /* '@' */
000027E8  D4FC 0040                add.w      A2, 0x40 /* '@' */
000027EC  D2F8 0106                add.w      A1, [0x00000106 /* ScreenRow */]
000027F0  51C8 FFE6                dbf        D0, -0x1C /* 000027D8 */
000027F4  3006                     move.w     D0, D6
000027F6  5448                     addq.w     A0, 2
000027F8  544A                     addq.w     A2, 2
000027FA  5449                     addq.w     A1, 2
label000027FC:
000027FC  3220                     move.w     D1, -[A0]
000027FE  3421                     move.w     D2, -[A1]
00002800  B342                     xor.w      D2, D1
00002802  C462                     and.w      D2, -[A2]
00002804  B342                     xor.w      D2, D1
00002806  3282                     move.w     [A1], D2
00002808  51C8 FFF2                dbf        D0, -0x10 /* 000027FC */
0000280C  5548                     subq.w     A0, 2
0000280E  554A                     subq.w     A2, 2
00002810  5549                     subq.w     A1, 2
00002812  3210                     move.w     D1, [A0]
00002814  3411                     move.w     D2, [A1]
00002816  B342                     xor.w      D2, D1
00002818  C452                     and.w      D2, [A2]
0000281A  B342                     xor.w      D2, D1
0000281C  3282                     move.w     [A1], D2
0000281E  3007                     move.w     D0, D7
00002820  4A03                     tst.b      D3
00002822  6612                     bne        +0x14 /* 00002836 */
00002824  C0FC 0040                mulu.w     D0, 0x40 /* '@' */
00002828  91C0                     sub.l      A0, D0
0000282A  95C0                     sub.l      A2, D0
0000282C  3007                     move.w     D0, D7
0000282E  C0F8 0106                mulu.w     D0, [0x00000106 /* ScreenRow */]
00002832  93C0                     sub.l      A1, D0
00002834  7000                     moveq.l    D0, 0x00
label00002836:
00002836  3210                     move.w     D1, [A0]
00002838  3411                     move.w     D2, [A1]
0000283A  B342                     xor.w      D2, D1
0000283C  C452                     and.w      D2, [A2]
0000283E  B342                     xor.w      D2, D1
00002840  3282                     move.w     [A1], D2
00002842  90FC 0040                sub.w      A0, 0x40 /* '@' */
00002846  94FC 0040                sub.w      A2, 0x40 /* '@' */
0000284A  92F8 0106                sub.w      A1, [0x00000106 /* ScreenRow */]
0000284E  51C8 FFE6                dbf        D0, -0x1C /* 00002836 */
00002852  302E 000C                move.w     D0, [A6 + 0xC]
00002856  E848                     lsr        D0.w, 4
label00002858:
00002858  4EBA F866                jsr        [PC - 0x79A /* 000020C0 */]
0000285C  51C8 FFFA                dbf        D0, -0x8 /* 00002858 */
00002860  4A05                     tst.b      D5
00002862  672A                     beq        +0x2C /* 0000288E */
00002864  90FC 0040                sub.w      A0, 0x40 /* '@' */
00002868  94FC 0040                sub.w      A2, 0x40 /* '@' */
0000286C  92F8 0106                sub.w      A1, [0x00000106 /* ScreenRow */]
00002870  0644 17F4                addi.w     D4, 0x17F4
00002874  55C3                     scs        D3
00002876  6408                     bcc        +0xA /* 00002880 */
00002878  5548                     subq.w     A0, 2
0000287A  554A                     subq.w     A2, 2
0000287C  5549                     subq.w     A1, 2
0000287E  5446                     addq.w     D6, 2
label00002880:
00002880  5447                     addq.w     D7, 2
00002882  0C47 0156                cmpi.w     D7, 0x156
00002886  6600 FF1A                bne        -0xE4 /* 000027A2 */
0000288A  6000 0290                bra        +0x292 /* 00002B1C */
label0000288E:
0000288E  D0FC 0040                add.w      A0, 0x40 /* '@' */
00002892  D4FC 0040                add.w      A2, 0x40 /* '@' */
00002896  D2F8 0106                add.w      A1, [0x00000106 /* ScreenRow */]
0000289A  0644 17F4                addi.w     D4, 0x17F4
0000289E  55C3                     scs        D3
000028A0  6408                     bcc        +0xA /* 000028AA */
000028A2  5448                     addq.w     A0, 2
000028A4  544A                     addq.w     A2, 2
000028A6  5449                     addq.w     A1, 2
000028A8  5546                     subq.w     D6, 2
label000028AA:
000028AA  5547                     subq.w     D7, 2
000028AC  6600 FEF4                bne        -0x10A /* 000027A2 */
000028B0  6000 026A                bra        +0x26C /* 00002B1C */
000028B4  3038 0106                move.w     D0, [0x00000106 /* ScreenRow */]
000028B8  C0FC 0026                mulu.w     D0, 0x26 /* '&' */
000028BC  0480 0000 0040           subi.l     D0, 0x40 /* '@' */
000028C2  2840                     movea.l    A4, D0
000028C4  7C00                     moveq.l    D6, 0x00
label000028C6:
000028C6  7800                     moveq.l    D4, 0x00
000028C8  7A00                     moveq.l    D5, 0x00
000028CA  3E3C 0025                move.w     D7, 0x25 /* '%' */
label000028CE:
000028CE  206E 0018                movea.l    A0, [A6 + 0x18]
000028D2  226E 0014                movea.l    A1, [A6 + 0x14]
000028D6  246E 0010                movea.l    A2, [A6 + 0x10]
000028DA  D1C4                     add.l      A0, D4
000028DC  D5C4                     add.l      A2, D4
000028DE  D3C5                     add.l      A1, D5
000028E0  0684 0000 0040           addi.l     D4, 0x40 /* '@' */
000028E6  DAAE FF84                add.l      D5, [A6 - 0x7C]
000028EA  6130                     bsr        +0x32 /* 0000291C */
000028EC  612E                     bsr        +0x30 /* 0000291C */
000028EE  612C                     bsr        +0x2E /* 0000291C */
000028F0  612A                     bsr        +0x2C /* 0000291C */
000028F2  6128                     bsr        +0x2A /* 0000291C */
000028F4  6126                     bsr        +0x28 /* 0000291C */
000028F6  6124                     bsr        +0x26 /* 0000291C */
000028F8  6122                     bsr        +0x24 /* 0000291C */
000028FA  6120                     bsr        +0x22 /* 0000291C */
000028FC  4606                     not.b      D6
000028FE  302E 000C                move.w     D0, [A6 + 0xC]
00002902  E448                     lsr        D0.w, 2
00002904  0640 0046                addi.w     D0, 0x46 /* 'F' */
label00002908:
00002908  4EBA F7B6                jsr        [PC - 0x84A /* 000020C0 */]
0000290C  51C8 FFFA                dbf        D0, -0x8 /* 00002908 */
00002910  51CF FFBC                dbf        D7, -0x46 /* 000028CE */
00002914  4606                     not.b      D6
00002916  66AE                     bne        -0x50 /* 000028C6 */
00002918  6000 0202                bra        +0x204 /* 00002B1C */
fn0000291C:
0000291C  4606                     not.b      D6
0000291E  6610                     bne        +0x12 /* 00002930 */
00002920  5848                     addq.w     A0, 4
00002922  5849                     addq.w     A1, 4
00002924  584A                     addq.w     A2, 4
00002926  6108                     bsr        +0xA /* 00002930 */
00002928  5948                     subq.w     A0, 4
0000292A  5949                     subq.w     A1, 4
0000292C  594A                     subq.w     A2, 4
0000292E  4E75                     rts
fn00002930:
00002930  7407                     moveq.l    D2, 0x07
label00002932:
00002932  2612                     move.l     D3, [A2]
00002934  670E                     beq        +0x10 /* 00002944 */
00002936  2010                     move.l     D0, [A0]
00002938  2211                     move.l     D1, [A1]
0000293A  B181                     xor.l      D1, D0
0000293C  C283                     and.l      D1, D3
0000293E  B181                     xor.l      D1, D0
00002940  2281                     move.l     [A1], D1
00002942  6002                     bra        +0x4 /* 00002946 */
label00002944:
00002944  2290                     move.l     [A1], [A0]
label00002946:
00002946  5048                     addq.w     A0, 8
00002948  5049                     addq.w     A1, 8
0000294A  504A                     addq.w     A2, 8
0000294C  51CA FFE4                dbf        D2, -0x1E /* 00002932 */
00002950  D0FC 0940                add.w      A0, 0x940 /* '\t@' */
00002954  D4FC 0940                add.w      A2, 0x940 /* '\t@' */
00002958  D3CC                     add.l      A1, A4
0000295A  4E75                     rts
0000295C  D0FC 003E                add.w      A0, 0x3E /* '>' */
00002960  D2FC 003E                add.w      A1, 0x3E /* '>' */
00002964  D4FC 003E                add.w      A2, 0x3E /* '>' */
00002968  7AFE                     moveq.l    D5, 0xFFFFFFFE
0000296A  6002                     bra        +0x4 /* 0000296E */
0000296C  7A02                     moveq.l    D5, 0x02
label0000296E:
0000296E  3E3C 001F                move.w     D7, 0x1F
label00002972:
00002972  48E7 00E0                movem.l    -[A7], A0,A1,A2
00002976  3C3C 0155                move.w     D6, 0x155
label0000297A:
0000297A  3010                     move.w     D0, [A0]
0000297C  3211                     move.w     D1, [A1]
0000297E  B141                     xor.w      D1, D0
00002980  C252                     and.w      D1, [A2]
00002982  B141                     xor.w      D1, D0
00002984  3281                     move.w     [A1], D1
00002986  D0FC 0040                add.w      A0, 0x40 /* '@' */
0000298A  D4FC 0040                add.w      A2, 0x40 /* '@' */
0000298E  D2F8 0106                add.w      A1, [0x00000106 /* ScreenRow */]
00002992  51CE FFE6                dbf        D6, -0x1C /* 0000297A */
00002996  4CDF 0700                movem.l    A0,A1,A2, [A7]+
0000299A  D0C5                     add.w      A0, D5
0000299C  D2C5                     add.w      A1, D5
0000299E  D4C5                     add.w      A2, D5
000029A0  302E 000C                move.w     D0, [A6 + 0xC]
000029A4  E248                     lsr        D0.w, 1
label000029A6:
000029A6  4EBA F71C                jsr        [PC - 0x8E4 /* 000020C4 */]
000029AA  51C8 FFFA                dbf        D0, -0x8 /* 000029A6 */
000029AE  51CF FFC2                dbf        D7, -0x40 /* 00002972 */
000029B2  6000 0168                bra        +0x16A /* 00002B1C */
000029B6  D0FC 4C00                add.w      A0, 0x4C00 /* 'L\0' */
000029BA  D4FC 4C00                add.w      A2, 0x4C00 /* 'L\0' */
000029BE  3038 0106                move.w     D0, [0x00000106 /* ScreenRow */]
000029C2  C0FC 0130                mulu.w     D0, 0x130
000029C6  D3C0                     add.l      A1, D0
000029C8  7CDA                     moveq.l    D6, 0xFFFFFFDA
000029CA  6002                     bra        +0x4 /* 000029CE */
000029CC  7C26                     moveq.l    D6, 0x26
label000029CE:
000029CE  3A06                     move.w     D5, D6
000029D0  CBFC 0040                muls.w     D5, 0x40 /* '@' */
000029D4  CDF8 0106                muls.w     D6, [0x00000106 /* ScreenRow */]
000029D8  3E3C 0008                move.w     D7, 0x8
000029DC  6100 0048                bsr        +0x4A /* 00002A26 */
label000029E0:
000029E0  48E7 00E0                movem.l    -[A7], A0,A1,A2
000029E4  263C AAAA AAAA           move.l     D3, 0xAAAAAAAA
000029EA  780F                     moveq.l    D4, 0x0F
label000029EC:
000029EC  6100 F780                bsr        -0x87E /* 0000216E */
000029F0  4683                     not.l      D3
000029F2  51CC FFF8                dbf        D4, -0xA /* 000029EC */
000029F6  4CD7 0700                movem.l    A0,A1,A2, [A7]
000029FA  302E 000C                move.w     D0, [A6 + 0xC]
000029FE  0640 012C                addi.w     D0, 0x12C
label00002A02:
00002A02  6100 F6B8                bsr        -0x946 /* 000020BC */
00002A06  51C8 FFFA                dbf        D0, -0x8 /* 00002A02 */
00002A0A  7825                     moveq.l    D4, 0x25
label00002A0C:
00002A0C  6100 F732                bsr        -0x8CC /* 00002140 */
00002A10  51CC FFFA                dbf        D4, -0x8 /* 00002A0C */
00002A14  4CDF 0700                movem.l    A0,A1,A2, [A7]+
00002A18  D1C5                     add.l      A0, D5
00002A1A  D3C6                     add.l      A1, D6
00002A1C  D5C5                     add.l      A2, D5
00002A1E  51CF FFC0                dbf        D7, -0x42 /* 000029E0 */
00002A22  6000 00F8                bra        +0xFA /* 00002B1C */
fn00002A26:
00002A26  48E7 60C0                movem.l    -[A7], D1,D2,A0,A1
00002A2A  4EBA E9F8                jsr        [PC - 0x1608 /* 00001424 */]
00002A2E  42A7                     clr.l      -[A7]
00002A30  A975                     syscall    TickCount
label00002A32:
00002A32  42A7                     clr.l      -[A7]
00002A34  A975                     syscall    TickCount
00002A36  201F                     move.l     D0, [A7]+
00002A38  B097                     cmp.l      D0, [A7]
00002A3A  67F6                     beq        -0x8 /* 00002A32 */
00002A3C  201F                     move.l     D0, [A7]+
00002A3E  4EBA EBEC                jsr        [PC - 0x1414 /* 0000162C */]
00002A42  4CDF 0306                movem.l    D1,D2,A0,A1, [A7]+
00002A46  4E75                     rts
00002A48  D0FC 001E                add.w      A0, 0x1E
00002A4C  D2FC 001E                add.w      A1, 0x1E
00002A50  D4FC 001E                add.w      A2, 0x1E
00002A54  7AFE                     moveq.l    D5, 0xFFFFFFFE
00002A56  7802                     moveq.l    D4, 0x02
00002A58  6006                     bra        +0x8 /* 00002A60 */
00002A5A  7A02                     moveq.l    D5, 0x02
00002A5C  383C 003E                move.w     D4, 0x3E /* '>' */
label00002A60:
00002A60  3E3C 000F                move.w     D7, 0xF
label00002A64:
00002A64  48E7 00E0                movem.l    -[A7], A0,A1,A2
00002A68  3C3C 0155                move.w     D6, 0x155
label00002A6C:
00002A6C  3010                     move.w     D0, [A0]
00002A6E  3211                     move.w     D1, [A1]
00002A70  B141                     xor.w      D1, D0
00002A72  C252                     and.w      D1, [A2]
00002A74  B141                     xor.w      D1, D0
00002A76  3281                     move.w     [A1], D1
00002A78  D0FC 0040                add.w      A0, 0x40 /* '@' */
00002A7C  D4FC 0040                add.w      A2, 0x40 /* '@' */
00002A80  D2F8 0106                add.w      A1, [0x00000106 /* ScreenRow */]
00002A84  51CE FFE6                dbf        D6, -0x1C /* 00002A6C */
00002A88  4CD7 0700                movem.l    A0,A1,A2, [A7]
00002A8C  D0C4                     add.w      A0, D4
00002A8E  D2C4                     add.w      A1, D4
00002A90  D4C4                     add.w      A2, D4
00002A92  3C3C 0155                move.w     D6, 0x155
label00002A96:
00002A96  3010                     move.w     D0, [A0]
00002A98  3211                     move.w     D1, [A1]
00002A9A  B141                     xor.w      D1, D0
00002A9C  C252                     and.w      D1, [A2]
00002A9E  B141                     xor.w      D1, D0
00002AA0  3281                     move.w     [A1], D1
00002AA2  D0FC 0040                add.w      A0, 0x40 /* '@' */
00002AA6  D4FC 0040                add.w      A2, 0x40 /* '@' */
00002AAA  D2F8 0106                add.w      A1, [0x00000106 /* ScreenRow */]
00002AAE  51CE FFE6                dbf        D6, -0x1C /* 00002A96 */
00002AB2  4CDF 0700                movem.l    A0,A1,A2, [A7]+
00002AB6  D0C5                     add.w      A0, D5
00002AB8  D2C5                     add.w      A1, D5
00002ABA  D4C5                     add.w      A2, D5
00002ABC  9845                     sub.w      D4, D5
00002ABE  9845                     sub.w      D4, D5
00002AC0  302E 000C                move.w     D0, [A6 + 0xC]
label00002AC4:
00002AC4  4EBA F5FE                jsr        [PC - 0xA02 /* 000020C4 */]
00002AC8  51C8 FFFA                dbf        D0, -0x8 /* 00002AC4 */
00002ACC  51CF FF96                dbf        D7, -0x6C /* 00002A64 */
00002AD0  6000 004A                bra        +0x4C /* 00002B1C */
00002AD4  363C 0003                move.w     D3, 0x3
label00002AD8:
00002AD8  3403                     move.w     D2, D3
00002ADA  206E 0018                movea.l    A0, [A6 + 0x18]
00002ADE  226E 0014                movea.l    A1, [A6 + 0x14]
00002AE2  323C 00AB                move.w     D1, 0xAB
label00002AE6:
00002AE6  4CD0 3CF0                movem.l    D4,D5,D6,D7,A2,A3,A4,A5, [A0]
00002AEA  48D1 3CF0                movem.l    [A1], D4,D5,D6,D7,A2,A3,A4,A5
00002AEE  4CE8 3CF0 0020           movem.l    D4,D5,D6,D7,A2,A3,A4,A5, [A0 + 0x20]
00002AF4  48E9 3CF0 0020           movem.l    [A1 + 0x20], D4,D5,D6,D7,A2,A3,A4,A5
00002AFA  D2FC 0040                add.w      A1, 0x40 /* '@' */
00002AFE  9243                     sub.w      D1, D3
00002B00  6E00 000A                bgt        +0xC /* 00002B0C */
00002B04  D0FC 0040                add.w      A0, 0x40 /* '@' */
00002B08  0641 0156                addi.w     D1, 0x156
label00002B0C:
00002B0C  5342                     subq.w     D2, 1
00002B0E  66D6                     bne        -0x28 /* 00002AE6 */
00002B10  5643                     addq.w     D3, 3
00002B12  0C43 0156                cmpi.w     D3, 0x156
00002B16  6FC0                     ble        -0x3E /* 00002AD8 */
00002B18  6000 0002                bra        +0x4 /* 00002B1C */
label00002B1C:
00002B1C  4CDF 3CF8                movem.l    D3,D4,D5,D6,D7,A2,A3,A4,A5, [A7]+
00002B20  4EBA E902                jsr        [PC - 0x16FE /* 00001424 */]
00002B24  A89E                     syscall    PenNormal
00002B26  4E5E                     unlink     A6
00002B28  205F                     movea.l    A0, [A7]+
00002B2A  DEFC 0014                add.w      A7, 0x14
00002B2E  4ED0                     jmp        [A0]
export_925:
00002B30  205F                     movea.l    A0, [A7]+
00002B32  11DF 09DC                move.b     [0x000009DC /* PaintWhite */], [A7]+
00002B36  4ED0                     jmp        [A0]
export_926:
00002B38  201F                     move.l     D0, [A7]+
00002B3A  205F                     movea.l    A0, [A7]+
00002B3C  2F00                     move.l     -[A7], D0
00002B3E  48E7 1F3C                movem.l    -[A7], D3,D4,D5,D6,D7,A2,A3,A4,A5
00002B42  D0FC 5580                add.w      A0, 0x5580
00002B46  4CFA 3EFE 0020           movem.l    D1,D2,D3,D4,D5,D6,D7,A1,A2,A3,A4,A5, [PC + 0x20 /* 00002B68, value 0x4E750000 'Nu\0\0', cstring "Nu" */]
00002B4C  303C 0071                move.w     D0, 0x71 /* 'q' */
label00002B50:
00002B50  48E0 7F7C                movem.l    -[A0], D1,D2,D3,D4,D5,D6,D7,A1,A2,A3,A4,A5
00002B54  48E0 7F7C                movem.l    -[A0], D1,D2,D3,D4,D5,D6,D7,A1,A2,A3,A4,A5
00002B58  48E0 7F7C                movem.l    -[A0], D1,D2,D3,D4,D5,D6,D7,A1,A2,A3,A4,A5
00002B5C  48E0 7F7C                movem.l    -[A0], D1,D2,D3,D4,D5,D6,D7,A1,A2,A3,A4,A5
00002B60  51C8 FFEE                dbf        D0, -0x14 /* 00002B50 */
00002B64  4CDF 3CF8                movem.l    D3,D4,D5,D6,D7,A2,A3,A4,A5, [A7]+
00002B68  4E75                     rts
00002B6A  0000 0000                ori.b      D0, 0x0
00002B6E  0000 0000                ori.b      D0, 0x0
00002B72  0000 0000                ori.b      D0, 0x0
00002B76  0000 0000                ori.b      D0, 0x0
00002B7A  0000 0000                ori.b      D0, 0x0
00002B7E  0000 0000                ori.b      D0, 0x0
00002B82  0000 0000                ori.b      D0, 0x0
00002B86  0000 0000                ori.b      D0, 0x0
00002B8A  0000 0000                ori.b      D0, 0x0
00002B8E  0000 0000                ori.b      D0, 0x0
00002B92  0000 0000                ori.b      D0, 0x0
00002B96  0000 0000                ori.b      D0, 0x0
