# near model CODE resource
# jump table entries: 7416-7469 (54 of them)
export_927:
00000000  4E56 0000                link       A6, 0
00000004  2F0C                     move.l     -[A7], A4
00000006  1D7C 0001 000C           move.b     [A6 + 0xC], 0x1
0000000C  206E 0008                movea.l    A0, [A6 + 0x8]
00000010  2850                     movea.l    A4, [A0]
00000012  42A7                     clr.l      -[A7]
00000014  2F14                     move.l     -[A7], [A4]
00000016  4EAD 18EA                jsr        [A5 + 0x18EA /* export_793, CODE:16 @ 000008E4 */]
0000001A  2014                     move.l     D0, [A4]
0000001C  B09F                     cmp.l      D0, [A7]+
0000001E  6702                     beq        +0x4 /* 00000022 */
00000020  6054                     bra        +0x56 /* 00000076 */
label00000022:
00000022  202C 0024                move.l     D0, [A4 + 0x24]
00000026  722E                     moveq.l    D1, 0x2E
00000028  D081                     add.l      D0, D1
0000002A  222C 002A                move.l     D1, [A4 + 0x2A]
0000002E  D280                     add.l      D1, D0
00000030  B294                     cmp.l      D1, [A4]
00000032  6F02                     ble        +0x4 /* 00000036 */
00000034  6040                     bra        +0x42 /* 00000076 */
label00000036:
00000036  204C                     movea.l    A0, A4
00000038  5888                     addq.l     A0, 4
0000003A  43FA 0042                lea.l      A1, [PC + 0x42 /* 0000007E, value 0x424B4744 'BKGD', cstring "BKGDNV" */]
0000003E  7003                     moveq.l    D0, 0x03
label00000040:
00000040  B109                     cmpm.b     [A0]+, [A1]+
00000042  56C8 FFFC                dbne       D0, -0x6 /* 00000040 */
00000046  6702                     beq        +0x4 /* 0000004A */
00000048  602C                     bra        +0x2E /* 00000076 */
label0000004A:
0000004A  4AAC 0014                tst.l      [A4 + 0x14]
0000004E  6E02                     bgt        +0x4 /* 00000052 */
00000050  6024                     bra        +0x26 /* 00000076 */
label00000052:
00000052  4A6C 0020                tst.w      [A4 + 0x20]
00000056  6C02                     bge        +0x4 /* 0000005A */
00000058  601C                     bra        +0x1E /* 00000076 */
label0000005A:
0000005A  4AAC 0024                tst.l      [A4 + 0x24]
0000005E  6C02                     bge        +0x4 /* 00000062 */
00000060  6014                     bra        +0x16 /* 00000076 */
label00000062:
00000062  4A6C 0028                tst.w      [A4 + 0x28]
00000066  6702                     beq        +0x4 /* 0000006A */
00000068  600C                     bra        +0xE /* 00000076 */
label0000006A:
0000006A  4AAC 002A                tst.l      [A4 + 0x2A]
0000006E  6702                     beq        +0x4 /* 00000072 */
00000070  6004                     bra        +0x6 /* 00000076 */
label00000072:
00000072  422E 000C                clr.b      [A6 + 0xC]
label00000076:
00000076  285F                     movea.l    A4, [A7]+
00000078  4E5E                     unlink     A6
0000007A  2E9F                     move.l     [A7], [A7]+
0000007C  4E75                     rts
0000007E  424B                     clr.w      A3
00000080  4744                     chk.w      D3, D4
export_928:
00000082  4E56 0000                link       A6, 0
00000086  2F0C                     move.l     -[A7], A4
00000088  1D7C 0001 000C           move.b     [A6 + 0xC], 0x1
0000008E  206E 0008                movea.l    A0, [A6 + 0x8]
00000092  2850                     movea.l    A4, [A0]
00000094  42A7                     clr.l      -[A7]
00000096  2F14                     move.l     -[A7], [A4]
00000098  4EAD 18EA                jsr        [A5 + 0x18EA /* export_793, CODE:16 @ 000008E4 */]
0000009C  2014                     move.l     D0, [A4]
0000009E  B09F                     cmp.l      D0, [A7]+
000000A0  6702                     beq        +0x4 /* 000000A4 */
000000A2  605C                     bra        +0x5E /* 00000100 */
label000000A4:
000000A4  202C 0028                move.l     D0, [A4 + 0x28]
000000A8  7232                     moveq.l    D1, 0x32
000000AA  D081                     add.l      D0, D1
000000AC  222C 002E                move.l     D1, [A4 + 0x2E]
000000B0  D280                     add.l      D1, D0
000000B2  B294                     cmp.l      D1, [A4]
000000B4  6F02                     ble        +0x4 /* 000000B8 */
000000B6  6048                     bra        +0x4A /* 00000100 */
label000000B8:
000000B8  204C                     movea.l    A0, A4
000000BA  5888                     addq.l     A0, 4
000000BC  43FA 004A                lea.l      A1, [PC + 0x4A /* 00000108, value 0x43415244 'CARD', cstring "CARDNV" */]
000000C0  7003                     moveq.l    D0, 0x03
label000000C2:
000000C2  B109                     cmpm.b     [A0]+, [A1]+
000000C4  56C8 FFFC                dbne       D0, -0x6 /* 000000C2 */
000000C8  6702                     beq        +0x4 /* 000000CC */
000000CA  6034                     bra        +0x36 /* 00000100 */
label000000CC:
000000CC  4AAC 0014                tst.l      [A4 + 0x14]
000000D0  6702                     beq        +0x4 /* 000000D4 */
000000D2  602C                     bra        +0x2E /* 00000100 */
label000000D4:
000000D4  4AAC 0018                tst.l      [A4 + 0x18]
000000D8  6702                     beq        +0x4 /* 000000DC */
000000DA  6024                     bra        +0x26 /* 00000100 */
label000000DC:
000000DC  4A6C 0024                tst.w      [A4 + 0x24]
000000E0  6C02                     bge        +0x4 /* 000000E4 */
000000E2  601C                     bra        +0x1E /* 00000100 */
label000000E4:
000000E4  4AAC 0028                tst.l      [A4 + 0x28]
000000E8  6C02                     bge        +0x4 /* 000000EC */
000000EA  6014                     bra        +0x16 /* 00000100 */
label000000EC:
000000EC  4A6C 002C                tst.w      [A4 + 0x2C]
000000F0  6C02                     bge        +0x4 /* 000000F4 */
000000F2  600C                     bra        +0xE /* 00000100 */
label000000F4:
000000F4  4AAC 002E                tst.l      [A4 + 0x2E]
000000F8  6C02                     bge        +0x4 /* 000000FC */
000000FA  6004                     bra        +0x6 /* 00000100 */
label000000FC:
000000FC  422E 000C                clr.b      [A6 + 0xC]
label00000100:
00000100  285F                     movea.l    A4, [A7]+
00000102  4E5E                     unlink     A6
00000104  2E9F                     move.l     [A7], [A7]+
00000106  4E75                     rts
00000108  4341                     chk.w      D1, D1
0000010A  5244                     addq.w     D4, 1
export_929:
fn0000010C:
0000010C  4E56 0000                link       A6, 0
00000110  102D F033                move.b     D0, [A5 - 0xFCD]
00000114  6714                     beq        +0x16 /* 0000012A */
00000116  2F2D F670                move.l     -[A7], [A5 - 0x990]
0000011A  42A7                     clr.l      -[A7]
0000011C  4EBA 0F9E                jsr        [PC + 0xF9E /* 000010BC */]
00000120  4267                     clr.w      -[A7]
00000122  4EBA 37F4                jsr        [PC + 0x37F4 /* 00003918 */]
00000126  422D F033                clr.b      [A5 - 0xFCD]
label0000012A:
0000012A  4E5E                     unlink     A6
0000012C  4E75                     rts
export_930:
fn0000012E:
0000012E  4E56 FFEA                link       A6, -0x0016
00000132  48E7 0F18                movem.l    -[A7], D4,D5,D6,D7,A3,A4
00000136  4247                     clr.w      D7
00000138  42A7                     clr.l      -[A7]
0000013A  2F2E 000A                move.l     -[A7], [A6 + 0xA]
0000013E  4EAD 1F9A                jsr        [A5 + 0x1F9A /* export_1007, CODE:19 @ 00001B6A */]
00000142  285F                     movea.l    A4, [A7]+
00000144  200C                     move.l     D0, A4
00000146  677A                     beq        +0x7C /* 000001C2 */
00000148  2054                     movea.l    A0, [A4]
0000014A  5888                     addq.l     A0, 4
0000014C  43FA 0088                lea.l      A1, [PC + 0x88 /* 000001D6, value 0x43415244 'CARD' */]
00000150  7003                     moveq.l    D0, 0x03
label00000152:
00000152  B109                     cmpm.b     [A0]+, [A1]+
00000154  56C8 FFFC                dbne       D0, -0x6 /* 00000152 */
00000158  6604                     bne        +0x6 /* 0000015E */
0000015A  7C32                     moveq.l    D6, 0x32
0000015C  6018                     bra        +0x1A /* 00000176 */
label0000015E:
0000015E  2054                     movea.l    A0, [A4]
00000160  5888                     addq.l     A0, 4
00000162  43FA 006E                lea.l      A1, [PC + 0x6E /* 000001D2, value 0x424B4744 'BKGD' */]
00000166  7003                     moveq.l    D0, 0x03
label00000168:
00000168  B109                     cmpm.b     [A0]+, [A1]+
0000016A  56C8 FFFC                dbne       D0, -0x6 /* 00000168 */
0000016E  6604                     bne        +0x6 /* 00000174 */
00000170  7C2E                     moveq.l    D6, 0x2E
00000172  6002                     bra        +0x4 /* 00000176 */
label00000174:
00000174  604C                     bra        +0x4E /* 000001C2 */
label00000176:
00000176  2646                     movea.l    A3, D6
00000178  D7D4                     add.l      A3, [A4]
0000017A  2006                     move.l     D0, D6
0000017C  D094                     add.l      D0, [A4]
0000017E  2A00                     move.l     D5, D0
00000180  700E                     moveq.l    D0, 0x0E
00000182  9A80                     sub.l      D5, D0
00000184  4A6E 0008                tst.w      [A6 + 0x8]
00000188  6606                     bne        +0x8 /* 00000190 */
0000018A  2045                     movea.l    A0, D5
0000018C  3E10                     move.w     D7, [A0]
0000018E  6028                     bra        +0x2A /* 000001B8 */
label00000190:
00000190  2045                     movea.l    A0, D5
00000192  3D50 FFEA                move.w     [A6 - 0x16], [A0]
00000196  7801                     moveq.l    D4, 0x01
00000198  6018                     bra        +0x1A /* 000001B2 */
label0000019A:
0000019A  102B 0004                move.b     D0, [A3 + 0x4]
0000019E  4880                     ext.w      D0
000001A0  B06E 0008                cmp.w      D0, [A6 + 0x8]
000001A4  6602                     bne        +0x4 /* 000001A8 */
000001A6  5247                     addq.w     D7, 1
label000001A8:
000001A8  3013                     move.w     D0, [A3]
000001AA  48C0                     ext.l      D0
000001AC  D7C0                     add.l      A3, D0
000001AE  5244                     addq.w     D4, 1
000001B0  6906                     bvs        +0x8 /* 000001B8 */
label000001B2:
000001B2  B86E FFEA                cmp.w      D4, [A6 - 0x16]
000001B6  6FE2                     ble        -0x1C /* 0000019A */
label000001B8:
000001B8  2F2E 000A                move.l     -[A7], [A6 + 0xA]
000001BC  4267                     clr.w      -[A7]
000001BE  4EAD 1F1A                jsr        [A5 + 0x1F1A /* export_991, CODE:19 @ 000006D4 */]
label000001C2:
000001C2  3D47 000E                move.w     [A6 + 0xE], D7
000001C6  4CDF 18F0                movem.l    D4,D5,D6,D7,A3,A4, [A7]+
000001CA  4E5E                     unlink     A6
000001CC  205F                     movea.l    A0, [A7]+
000001CE  5C4F                     addq.w     A7, 6
000001D0  4ED0                     jmp        [A0]
000001D2  424B 4744 4341 5244      dc.b       "BKGDCARD"
export_931:
000001DA  4E56 FFE4                link       A6, -0x001C
000001DE  48E7 0F18                movem.l    -[A7], D4,D5,D6,D7,A3,A4
000001E2  7000                     moveq.l    D0, 0x00
000001E4  2D40 000C                move.l     [A6 + 0xC], D0
000001E8  42A7                     clr.l      -[A7]
000001EA  7030                     moveq.l    D0, 0x30
000001EC  2F00                     move.l     -[A7], D0
000001EE  2F3A 00CE                move.l     -[A7], [PC + 0xCE /* 000002BE, value 0x424B4744 'BKGD' */]
000001F2  4EAD 1F22                jsr        [A5 + 0x1F22 /* export_992, CODE:19 @ 000007F0 */]
000001F6  2E1F                     move.l     D7, [A7]+
000001F8  42A7                     clr.l      -[A7]
000001FA  2F07                     move.l     -[A7], D7
000001FC  4EAD 1F6A                jsr        [A5 + 0x1F6A /* export_1001, CODE:19 @ 000016EC */]
00000200  265F                     movea.l    A3, [A7]+
00000202  200B                     move.l     D0, A3
00000204  6604                     bne        +0x6 /* 0000020A */
00000206  6000 00AC                bra        +0xAE /* 000002B4 */
label0000020A:
0000020A  2C2E 0008                move.l     D6, [A6 + 0x8]
0000020E  42A7                     clr.l      -[A7]
00000210  2F06                     move.l     -[A7], D6
00000212  4EAD 1F6A                jsr        [A5 + 0x1F6A /* export_1001, CODE:19 @ 000016EC */]
00000216  281F                     move.l     D4, [A7]+
00000218  2044                     movea.l    A0, D4
0000021A  2050                     movea.l    A0, [A0]
0000021C  2A28 0018                move.l     D5, [A0 + 0x18]
00000220  42A7                     clr.l      -[A7]
00000222  2F05                     move.l     -[A7], D5
00000224  4EAD 1F6A                jsr        [A5 + 0x1F6A /* export_1001, CODE:19 @ 000016EC */]
00000228  2D5F FFEC                move.l     [A6 - 0x14], [A7]+
0000022C  2044                     movea.l    A0, D4
0000022E  2050                     movea.l    A0, [A0]
00000230  2147 0018                move.l     [A0 + 0x18], D7
00000234  206E FFEC                movea.l    A0, [A6 - 0x14]
00000238  2050                     movea.l    A0, [A0]
0000023A  2147 001C                move.l     [A0 + 0x1C], D7
0000023E  2F06                     move.l     -[A7], D6
00000240  1F3C 0001                move.b     -[A7], 0x1
00000244  4EAD 1EE2                jsr        [A5 + 0x1EE2 /* export_984, CODE:19 @ 00000414 */]
00000248  2F05                     move.l     -[A7], D5
0000024A  1F3C 0001                move.b     -[A7], 0x1
0000024E  4EAD 1EE2                jsr        [A5 + 0x1EE2 /* export_984, CODE:19 @ 00000414 */]
00000252  2853                     movea.l    A4, [A3]
00000254  7000                     moveq.l    D0, 0x00
00000256  2940 000C                move.l     [A4 + 0xC], D0
0000025A  7000                     moveq.l    D0, 0x00
0000025C  2940 0010                move.l     [A4 + 0x10], D0
00000260  7000                     moveq.l    D0, 0x00
00000262  2940 0014                move.l     [A4 + 0x14], D0
00000266  2945 0018                move.l     [A4 + 0x18], D5
0000026A  2946 001C                move.l     [A4 + 0x1C], D6
0000026E  426C 0020                clr.w      [A4 + 0x20]
00000272  426C 0022                clr.w      [A4 + 0x22]
00000276  7000                     moveq.l    D0, 0x00
00000278  2940 0024                move.l     [A4 + 0x24], D0
0000027C  426C 0028                clr.w      [A4 + 0x28]
00000280  7000                     moveq.l    D0, 0x00
00000282  2940 002A                move.l     [A4 + 0x2A], D0
00000286  2013                     move.l     D0, [A3]
00000288  722E                     moveq.l    D1, 0x2E
0000028A  D081                     add.l      D0, D1
0000028C  2D40 FFE4                move.l     [A6 - 0x1C], D0
00000290  206E FFE4                movea.l    A0, [A6 - 0x1C]
00000294  4250                     clr.w      [A0]
00000296  2F07                     move.l     -[A7], D7
00000298  1F3C 0001                move.b     -[A7], 0x1
0000029C  4EAD 1EE2                jsr        [A5 + 0x1EE2 /* export_984, CODE:19 @ 00000414 */]
000002A0  202D F660                move.l     D0, [A5 - 0x9A0]
000002A4  5280                     addq.l     D0, 1
000002A6  2B40 F660                move.l     [A5 - 0x9A0], D0
000002AA  1B7C 0001 F63B           move.b     [A5 - 0x9C5], 0x1
000002B0  2D47 000C                move.l     [A6 + 0xC], D7
label000002B4:
000002B4  4CDF 18F0                movem.l    D4,D5,D6,D7,A3,A4, [A7]+
000002B8  4E5E                     unlink     A6
000002BA  2E9F                     move.l     [A7], [A7]+
000002BC  4E75                     rts
000002BE  424B                     clr.w      A3
000002C0  4744                     chk.w      D3, D4
export_932:
000002C2  4E56 FF6C                link       A6, -0x0094
000002C6  48E7 0F18                movem.l    -[A7], D4,D5,D6,D7,A3,A4
000002CA  282E 0008                move.l     D4, [A6 + 0x8]
000002CE  7000                     moveq.l    D0, 0x00
000002D0  2D40 0010                move.l     [A6 + 0x10], D0
000002D4  42A7                     clr.l      -[A7]
000002D6  2F3C 0000 0100           move.l     -[A7], 0x100
000002DC  2F3A 0124                move.l     -[A7], [PC + 0x124 /* 00000402, value 0x43415244 'CARD' */]
000002E0  4EAD 1F22                jsr        [A5 + 0x1F22 /* export_992, CODE:19 @ 000007F0 */]
000002E4  2E1F                     move.l     D7, [A7]+
000002E6  6604                     bne        +0x6 /* 000002EC */
000002E8  6000 010C                bra        +0x10E /* 000003F6 */
label000002EC:
000002EC  486E FF6C                pea.l      [A6 - 0x94]
000002F0  2F3C 0000 0084           move.l     -[A7], 0x84
000002F6  4EAD 1B42                jsr        [A5 + 0x1B42 /* export_868, CODE:16 @ 00001E7C */]
000002FA  2D47 FF6C                move.l     [A6 - 0x94], D7
000002FE  4267                     clr.w      -[A7]
00000300  2F2D F670                move.l     -[A7], [A5 - 0x990]
00000304  2F2E 000C                move.l     -[A7], [A6 + 0xC]
00000308  486E FF6C                pea.l      [A6 - 0x94]
0000030C  4EBA 1082                jsr        [PC + 0x1082 /* 00001390 */]
00000310  101F                     move.b     D0, [A7]+
00000312  6618                     bne        +0x1A /* 0000032C */
00000314  4267                     clr.w      -[A7]
00000316  2F07                     move.l     -[A7], D7
00000318  2F3A 00E8                move.l     -[A7], [PC + 0xE8 /* 00000402, value 0x43415244 'CARD' */]
0000031C  4EAD 1F2A                jsr        [A5 + 0x1F2A /* export_993, CODE:19 @ 00000890 */]
00000320  101F                     move.b     D0, [A7]+
00000322  6604                     bne        +0x6 /* 00000328 */
00000324  4EAD 1812                jsr        [A5 + 0x1812 /* export_766, CODE:16 @ 00000208 */]
label00000328:
00000328  6000 00CC                bra        +0xCE /* 000003F6 */
label0000032C:
0000032C  42A7                     clr.l      -[A7]
0000032E  2F07                     move.l     -[A7], D7
00000330  4EAD 1F7A                jsr        [A5 + 0x1F7A /* export_1003, CODE:19 @ 00001744 */]
00000334  265F                     movea.l    A3, [A7]+
00000336  200B                     move.l     D0, A3
00000338  660A                     bne        +0xC /* 00000344 */
0000033A  2F3C 0000 0CF0           move.l     -[A7], 0xCF0
00000340  4EAD 185A                jsr        [A5 + 0x185A /* export_775, CODE:16 @ 0000042E */]
label00000344:
00000344  2853                     movea.l    A4, [A3]
00000346  7000                     moveq.l    D0, 0x00
00000348  2940 000C                move.l     [A4 + 0xC], D0
0000034C  7000                     moveq.l    D0, 0x00
0000034E  2940 0010                move.l     [A4 + 0x10], D0
00000352  7000                     moveq.l    D0, 0x00
00000354  2940 0014                move.l     [A4 + 0x14], D0
00000358  7000                     moveq.l    D0, 0x00
0000035A  2940 0018                move.l     [A4 + 0x18], D0
0000035E  296D F4C4 001C           move.l     [A4 + 0x1C], [A5 - 0xB3C]
00000364  2944 0020                move.l     [A4 + 0x20], D4
00000368  426C 0024                clr.w      [A4 + 0x24]
0000036C  426C 0026                clr.w      [A4 + 0x26]
00000370  7000                     moveq.l    D0, 0x00
00000372  2940 0028                move.l     [A4 + 0x28], D0
00000376  426C 002C                clr.w      [A4 + 0x2C]
0000037A  7000                     moveq.l    D0, 0x00
0000037C  2940 002E                move.l     [A4 + 0x2E], D0
00000380  2A13                     move.l     D5, [A3]
00000382  7032                     moveq.l    D0, 0x32
00000384  DA80                     add.l      D5, D0
00000386  2045                     movea.l    A0, D5
00000388  4250                     clr.w      [A0]
0000038A  2F07                     move.l     -[A7], D7
0000038C  1F3C 0001                move.b     -[A7], 0x1
00000390  4EAD 1EF2                jsr        [A5 + 0x1EF2 /* export_986, CODE:19 @ 00000450 */]
00000394  202D F668                move.l     D0, [A5 - 0x998]
00000398  5280                     addq.l     D0, 1
0000039A  2B40 F668                move.l     [A5 - 0x998], D0
0000039E  1B7C 0001 F63B           move.b     [A5 - 0x9C5], 0x1
000003A4  42A7                     clr.l      -[A7]
000003A6  2F04                     move.l     -[A7], D4
000003A8  4EAD 1F6A                jsr        [A5 + 0x1F6A /* export_1001, CODE:19 @ 000016EC */]
000003AC  2C1F                     move.l     D6, [A7]+
000003AE  2046                     movea.l    A0, D6
000003B0  2050                     movea.l    A0, [A0]
000003B2  2028 0014                move.l     D0, [A0 + 0x14]
000003B6  5280                     addq.l     D0, 1
000003B8  2046                     movea.l    A0, D6
000003BA  2050                     movea.l    A0, [A0]
000003BC  2140 0014                move.l     [A0 + 0x14], D0
000003C0  2F04                     move.l     -[A7], D4
000003C2  1F3C 0001                move.b     -[A7], 0x1
000003C6  4EAD 1EE2                jsr        [A5 + 0x1EE2 /* export_984, CODE:19 @ 00000414 */]
000003CA  2F2D F670                move.l     -[A7], [A5 - 0x990]
000003CE  202E 000C                move.l     D0, [A6 + 0xC]
000003D2  5280                     addq.l     D0, 1
000003D4  2F00                     move.l     -[A7], D0
000003D6  1F3C 0001                move.b     -[A7], 0x1
000003DA  4EBA 353C                jsr        [PC + 0x353C /* 00003918 */]
000003DE  2F2D F670                move.l     -[A7], [A5 - 0x990]
000003E2  202E 000C                move.l     D0, [A6 + 0xC]
000003E6  5480                     addq.l     D0, 2
000003E8  2F00                     move.l     -[A7], D0
000003EA  1F3C 0001                move.b     -[A7], 0x1
000003EE  4EBA 3528                jsr        [PC + 0x3528 /* 00003918 */]
000003F2  2D47 0010                move.l     [A6 + 0x10], D7
label000003F6:
000003F6  4CDF 18F0                movem.l    D4,D5,D6,D7,A3,A4, [A7]+
000003FA  4E5E                     unlink     A6
000003FC  205F                     movea.l    A0, [A7]+
000003FE  504F                     addq.w     A7, 8
00000400  4ED0                     jmp        [A0]
00000402  4341                     chk.w      D1, D1
00000404  5244                     addq.w     D4, 1
export_933:
00000406  4E56 FFF8                link       A6, -0x0008
0000040A  48E7 0108                movem.l    -[A7], D7,A4
0000040E  7000                     moveq.l    D0, 0x00
00000410  2D40 0012                move.l     [A6 + 0x12], D0
00000414  42A7                     clr.l      -[A7]
00000416  2F3C 0000 0080           move.l     -[A7], 0x80
0000041C  2F3A 0090                move.l     -[A7], [PC + 0x90 /* 000004AE, value 0x4C495354 'LIST' */]
00000420  4EAD 1F22                jsr        [A5 + 0x1F22 /* export_992, CODE:19 @ 000007F0 */]
00000424  2E1F                     move.l     D7, [A7]+
00000426  42A7                     clr.l      -[A7]
00000428  2F07                     move.l     -[A7], D7
0000042A  4EAD 1F82                jsr        [A5 + 0x1F82 /* export_1004, CODE:19 @ 00001770 */]
0000042E  285F                     movea.l    A4, [A7]+
00000430  200C                     move.l     D0, A4
00000432  676C                     beq        +0x6E /* 000004A0 */
00000434  2014                     move.l     D0, [A4]
00000436  720C                     moveq.l    D1, 0x0C
00000438  D081                     add.l      D0, D1
0000043A  2F00                     move.l     -[A7], D0
0000043C  2054                     movea.l    A0, [A4]
0000043E  2010                     move.l     D0, [A0]
00000440  720C                     moveq.l    D1, 0x0C
00000442  9081                     sub.l      D0, D1
00000444  2F00                     move.l     -[A7], D0
00000446  4EAD 1B42                jsr        [A5 + 0x1B42 /* export_868, CODE:16 @ 00001E7C */]
0000044A  302E 0010                move.w     D0, [A6 + 0x10]
0000044E  48C0                     ext.l      D0
00000450  2054                     movea.l    A0, [A4]
00000452  2140 0010                move.l     [A0 + 0x10], D0
00000456  2054                     movea.l    A0, [A4]
00000458  316E 000E 0018           move.w     [A0 + 0x18], [A6 + 0xE]
0000045E  2054                     movea.l    A0, [A4]
00000460  316E 0008 001A           move.w     [A0 + 0x1A], [A6 + 0x8]
00000466  2054                     movea.l    A0, [A4]
00000468  316E 000C 001C           move.w     [A0 + 0x1C], [A6 + 0xC]
0000046E  2054                     movea.l    A0, [A4]
00000470  316E 000A 001E           move.w     [A0 + 0x1E], [A6 + 0xA]
00000476  2054                     movea.l    A0, [A4]
00000478  7000                     moveq.l    D0, 0x00
0000047A  2140 0024                move.l     [A0 + 0x24], D0
0000047E  2054                     movea.l    A0, [A4]
00000480  2F08                     move.l     -[A7], A0
00000482  42A7                     clr.l      -[A7]
00000484  2F0C                     move.l     -[A7], A4
00000486  4EAD 19A2                jsr        [A5 + 0x19A2 /* export_816, CODE:16 @ 00001074 */]
0000048A  201F                     move.l     D0, [A7]+
0000048C  205F                     movea.l    A0, [A7]+
0000048E  2140 0020                move.l     [A0 + 0x20], D0
00000492  2F07                     move.l     -[A7], D7
00000494  1F3C 0001                move.b     -[A7], 0x1
00000498  4EAD 1EFA                jsr        [A5 + 0x1EFA /* export_987, CODE:19 @ 0000046E */]
0000049C  2D47 0012                move.l     [A6 + 0x12], D7
label000004A0:
000004A0  4CDF 1080                movem.l    D7,A4, [A7]+
000004A4  4E5E                     unlink     A6
000004A6  205F                     movea.l    A0, [A7]+
000004A8  DEFC 000A                add.w      A7, 0xA /* '\n' */
000004AC  4ED0                     jmp        [A0]
000004AE  4C49 5354                divu.l     D4:D5, A1
export_934:
000004B2  4E56 FFD8                link       A6, -0x0028
000004B6  48E7 0F18                movem.l    -[A7], D4,D5,D6,D7,A3,A4
000004BA  422E 0012                clr.b      [A6 + 0x12]
000004BE  4267                     clr.w      -[A7]
000004C0  2F2E 000E                move.l     -[A7], [A6 + 0xE]
000004C4  7022                     moveq.l    D0, 0x22
000004C6  2F00                     move.l     -[A7], D0
000004C8  486E FFF8                pea.l      [A6 - 0x8]
000004CC  4EBA 130A                jsr        [PC + 0x130A /* 000017D8 */]
000004D0  101F                     move.b     D0, [A7]+
000004D2  6700 0162                beq        +0x164 /* 00000636 */
000004D6  42A7                     clr.l      -[A7]
000004D8  2F2E 000E                move.l     -[A7], [A6 + 0xE]
000004DC  4EAD 1F9A                jsr        [A5 + 0x1F9A /* export_1007, CODE:19 @ 00001B6A */]
000004E0  281F                     move.l     D4, [A7]+
000004E2  2044                     movea.l    A0, D4
000004E4  2A2E FFF8                move.l     D5, [A6 - 0x8]
000004E8  DA90                     add.l      D5, [A0]
000004EA  2005                     move.l     D0, D5
000004EC  720E                     moveq.l    D1, 0x0E
000004EE  9081                     sub.l      D0, D1
000004F0  2D40 FFE8                move.l     [A6 - 0x18], D0
000004F4  286E FFE8                movea.l    A4, [A6 - 0x18]
000004F8  4A6C 0002                tst.w      [A4 + 0x2]
000004FC  6C0A                     bge        +0xC /* 00000508 */
000004FE  2F3C 0000 7D8F           move.l     -[A7], 0x7D8F
00000504  4EAD 185A                jsr        [A5 + 0x185A /* export_775, CODE:16 @ 0000042E */]
label00000508:
00000508  0C54 7FFF                cmpi.w     [A4], 0x7FFF
0000050C  6700 0128                beq        +0x12A /* 00000636 */
00000510  0C6C 7FFF 0002           cmpi.w     [A4 + 0x2], 0x7FFF
00000516  6C10                     bge        +0x12 /* 00000528 */
00000518  302C 0002                move.w     D0, [A4 + 0x2]
0000051C  5240                     addq.w     D0, 1
0000051E  3940 0002                move.w     [A4 + 0x2], D0
00000522  3C2C 0002                move.w     D6, [A4 + 0x2]
00000526  6034                     bra        +0x36 /* 0000055C */
label00000528:
00000528  3C3C 7FFF                move.w     D6, 0x7FFF
label0000052C:
0000052C  5346                     subq.w     D6, 1
0000052E  2E05                     move.l     D7, D5
00000530  3D54 FFD8                move.w     [A6 - 0x28], [A4]
00000534  3D7C 0001 FFDC           move.w     [A6 - 0x24], 0x1
0000053A  6016                     bra        +0x18 /* 00000552 */
label0000053C:
0000053C  2047                     movea.l    A0, D7
0000053E  BC68 0002                cmp.w      D6, [A0 + 0x2]
00000542  67E8                     beq        -0x16 /* 0000052C */
00000544  2047                     movea.l    A0, D7
00000546  3010                     move.w     D0, [A0]
00000548  48C0                     ext.l      D0
0000054A  DE80                     add.l      D7, D0
0000054C  526E FFDC                addq.w     [A6 - 0x24], 1
00000550  690A                     bvs        +0xC /* 0000055C */
label00000552:
00000552  302E FFDC                move.w     D0, [A6 - 0x24]
00000556  B06E FFD8                cmp.w      D0, [A6 - 0x28]
0000055A  6FE0                     ble        -0x1E /* 0000053C */
label0000055C:
0000055C  2E2C 0004                move.l     D7, [A4 + 0x4]
00000560  DE85                     add.l      D7, D5
00000562  202C 0004                move.l     D0, [A4 + 0x4]
00000566  7222                     moveq.l    D1, 0x22
00000568  D081                     add.l      D0, D1
0000056A  2940 0004                move.l     [A4 + 0x4], D0
0000056E  3014                     move.w     D0, [A4]
00000570  5240                     addq.w     D0, 1
00000572  3880                     move.w     [A4], D0
00000574  2D47 FFF4                move.l     [A6 - 0xC], D7
00000578  202E FFF4                move.l     D0, [A6 - 0xC]
0000057C  7222                     moveq.l    D1, 0x22
0000057E  D081                     add.l      D0, D1
00000580  2D40 FFF0                move.l     [A6 - 0x10], D0
00000584  2044                     movea.l    A0, D4
00000586  2244                     movea.l    A1, D4
00000588  2251                     movea.l    A1, [A1]
0000058A  2011                     move.l     D0, [A1]
0000058C  D090                     add.l      D0, [A0]
0000058E  2D40 FFEC                move.l     [A6 - 0x14], D0
00000592  2F2E FFF4                move.l     -[A7], [A6 - 0xC]
00000596  2F2E FFF0                move.l     -[A7], [A6 - 0x10]
0000059A  202E FFEC                move.l     D0, [A6 - 0x14]
0000059E  90AE FFF0                sub.l      D0, [A6 - 0x10]
000005A2  2F00                     move.l     -[A7], D0
000005A4  4EAD 024A                jsr        [A5 + 0x24A /* export_69, CODE:1 @ 000046A6 */]
000005A8  2F07                     move.l     -[A7], D7
000005AA  7022                     moveq.l    D0, 0x22
000005AC  2F00                     move.l     -[A7], D0
000005AE  4EAD 1B42                jsr        [A5 + 0x1B42 /* export_868, CODE:16 @ 00001E7C */]
000005B2  3D6E 000C FFDE           move.w     [A6 - 0x22], [A6 + 0xC]
000005B8  2647                     movea.l    A3, D7
000005BA  36BC 0022                move.w     [A3], 0x22 /* '\"' */
000005BE  3746 0002                move.w     [A3 + 0x2], D6
000005C2  176E FFDF 0004           move.b     [A3 + 0x4], [A6 - 0x21]
000005C8  376D F2BA 0018           move.w     [A3 + 0x18], [A5 - 0xD46]
000005CE  422B 001A                clr.b      [A3 + 0x1A]
000005D2  302B 0018                move.w     D0, [A3 + 0x18]
000005D6  E540                     asl        D0.w, 2
000005D8  48C0                     ext.l      D0
000005DA  81FC 0003                divs.w     D0, 0x3
000005DE  3740 001C                move.w     [A3 + 0x1C], D0
000005E2  7001                     moveq.l    D0, 0x01
000005E4  B06E FFDE                cmp.w      D0, [A6 - 0x22]
000005E8  660C                     bne        +0xE /* 000005F6 */
000005EA  377C 0001 0014           move.w     [A3 + 0x14], 0x1
000005F0  426B 0016                clr.w      [A3 + 0x16]
000005F4  601E                     bra        +0x20 /* 00000614 */
label000005F6:
000005F6  7002                     moveq.l    D0, 0x02
000005F8  B06E FFDE                cmp.w      D0, [A6 - 0x22]
000005FC  6616                     bne        +0x18 /* 00000614 */
000005FE  376D F2BC 0016           move.w     [A3 + 0x16], [A5 - 0xD44]
00000604  426B 0014                clr.w      [A3 + 0x14]
00000608  102D F2B9                move.b     D0, [A5 - 0xD47]
0000060C  6706                     beq        +0x8 /* 00000614 */
0000060E  377C FFFF 0014           move.w     [A3 + 0x14], 0xFFFF
label00000614:
00000614  2047                     movea.l    A0, D7
00000616  226E 0008                movea.l    A1, [A6 + 0x8]
0000061A  7006                     moveq.l    D0, 0x06
label0000061C:
0000061C  22D8                     move.l     [A1]+, [A0]+
0000061E  51C8 FFFC                dbf        D0, -0x6 /* 0000061C */
00000622  3290                     move.w     [A1], [A0]
00000624  1D7C 0001 0012           move.b     [A6 + 0x12], 0x1
0000062A  2F2E 000E                move.l     -[A7], [A6 + 0xE]
0000062E  1F3C 0001                move.b     -[A7], 0x1
00000632  4EAD 1F1A                jsr        [A5 + 0x1F1A /* export_991, CODE:19 @ 000006D4 */]
label00000636:
00000636  4CDF 18F0                movem.l    D4,D5,D6,D7,A3,A4, [A7]+
0000063A  4E5E                     unlink     A6
0000063C  205F                     movea.l    A0, [A7]+
0000063E  DEFC 000A                add.w      A7, 0xA /* '\n' */
00000642  4ED0                     jmp        [A0]
export_935:
00000644  4E56 FFD6                link       A6, -0x002A
00000648  48E7 0F18                movem.l    -[A7], D4,D5,D6,D7,A3,A4
0000064C  422E 0010                clr.b      [A6 + 0x10]
00000650  102D F4CD                move.b     D0, [A5 - 0xB33]
00000654  6704                     beq        +0x6 /* 0000065A */
00000656  6000 01CC                bra        +0x1CE /* 00000824 */
label0000065A:
0000065A  4AAE 0008                tst.l      [A6 + 0x8]
0000065E  6E04                     bgt        +0x6 /* 00000664 */
00000660  6000 01C2                bra        +0x1C4 /* 00000824 */
label00000664:
00000664  42A7                     clr.l      -[A7]
00000666  2F2E 000C                move.l     -[A7], [A6 + 0xC]
0000066A  4EAD 1F82                jsr        [A5 + 0x1F82 /* export_1004, CODE:19 @ 00001770 */]
0000066E  285F                     movea.l    A4, [A7]+
00000670  200C                     move.l     D0, A4
00000672  6604                     bne        +0x6 /* 00000678 */
00000674  6000 01AE                bra        +0x1B0 /* 00000824 */
label00000678:
00000678  2F0C                     move.l     -[A7], A4
0000067A  486E FFD7                pea.l      [A6 - 0x29]
0000067E  4EAD 1922                jsr        [A5 + 0x1922 /* export_800, CODE:16 @ 00000C02 */]
00000682  2054                     movea.l    A0, [A4]
00000684  202E 0008                move.l     D0, [A6 + 0x8]
00000688  B0A8 0014                cmp.l      D0, [A0 + 0x14]
0000068C  6E00 0162                bgt        +0x164 /* 000007F0 */
00000690  2654                     movea.l    A3, [A4]
00000692  7030                     moveq.l    D0, 0x30
00000694  D7C0                     add.l      A3, D0
00000696  2D6E 0008 FFF8           move.l     [A6 - 0x8], [A6 + 0x8]
label0000069C:
0000069C  302B 0004                move.w     D0, [A3 + 0x4]
000006A0  48C0                     ext.l      D0
000006A2  B0AE FFF8                cmp.l      D0, [A6 - 0x8]
000006A6  6C0E                     bge        +0x10 /* 000006B6 */
000006A8  302B 0004                move.w     D0, [A3 + 0x4]
000006AC  48C0                     ext.l      D0
000006AE  91AE FFF8                sub.l      [A6 - 0x8], D0
000006B2  5C8B                     addq.l     A3, 6
000006B4  60E6                     bra        -0x18 /* 0000069C */
label000006B6:
000006B6  2D53 FFEC                move.l     [A6 - 0x14], [A3]
000006BA  7001                     moveq.l    D0, 0x01
000006BC  B06B 0004                cmp.w      D0, [A3 + 0x4]
000006C0  6658                     bne        +0x5A /* 0000071A */
000006C2  4267                     clr.w      -[A7]
000006C4  2F2E FFEC                move.l     -[A7], [A6 - 0x14]
000006C8  2F3A 0166                move.l     -[A7], [PC + 0x166 /* 00000830, value 0x50414745 'PAGE' */]
000006CC  4EAD 1F2A                jsr        [A5 + 0x1F2A /* export_993, CODE:19 @ 00000890 */]
000006D0  101F                     move.b     D0, [A7]+
000006D2  6604                     bne        +0x6 /* 000006D8 */
000006D4  6000 011A                bra        +0x11C /* 000007F0 */
label000006D8:
000006D8  2E0B                     move.l     D7, A3
000006DA  2A07                     move.l     D5, D7
000006DC  5C85                     addq.l     D5, 6
000006DE  2054                     movea.l    A0, [A4]
000006E0  2010                     move.l     D0, [A0]
000006E2  D094                     add.l      D0, [A4]
000006E4  2D40 FFE0                move.l     [A6 - 0x20], D0
000006E8  2F05                     move.l     -[A7], D5
000006EA  2F07                     move.l     -[A7], D7
000006EC  202E FFE0                move.l     D0, [A6 - 0x20]
000006F0  9085                     sub.l      D0, D5
000006F2  2F00                     move.l     -[A7], D0
000006F4  4EAD 024A                jsr        [A5 + 0x24A /* export_69, CODE:1 @ 000046A6 */]
000006F8  2E2E FFE0                move.l     D7, [A6 - 0x20]
000006FC  5D87                     subq.l     D7, 6
000006FE  2F07                     move.l     -[A7], D7
00000700  7006                     moveq.l    D0, 0x06
00000702  2F00                     move.l     -[A7], D0
00000704  4EAD 1B42                jsr        [A5 + 0x1B42 /* export_868, CODE:16 @ 00001E7C */]
00000708  2054                     movea.l    A0, [A4]
0000070A  2028 000C                move.l     D0, [A0 + 0xC]
0000070E  5380                     subq.l     D0, 1
00000710  2054                     movea.l    A0, [A4]
00000712  2140 000C                move.l     [A0 + 0xC], D0
00000716  6000 00C4                bra        +0xC6 /* 000007DC */
label0000071A:
0000071A  42A7                     clr.l      -[A7]
0000071C  2F2E FFEC                move.l     -[A7], [A6 - 0x14]
00000720  4EAD 1F92                jsr        [A5 + 0x1F92 /* export_1006, CODE:19 @ 00001B32 */]
00000724  2C1F                     move.l     D6, [A7]+
00000726  6700 00C8                beq        +0xCA /* 000007F0 */
0000072A  2054                     movea.l    A0, [A4]
0000072C  3028 0018                move.w     D0, [A0 + 0x18]
00000730  48C0                     ext.l      D0
00000732  2800                     move.l     D4, D0
00000734  2046                     movea.l    A0, D6
00000736  2050                     movea.l    A0, [A0]
00000738  2F08                     move.l     -[A7], A0
0000073A  42A7                     clr.l      -[A7]
0000073C  2F06                     move.l     -[A7], D6
0000073E  3F04                     move.w     -[A7], D4
00000740  3F2B 0004                move.w     -[A7], [A3 + 0x4]
00000744  4EAD 19AA                jsr        [A5 + 0x19AA /* export_817, CODE:16 @ 0000109E */]
00000748  201F                     move.l     D0, [A7]+
0000074A  205F                     movea.l    A0, [A7]+
0000074C  B0A8 0010                cmp.l      D0, [A0 + 0x10]
00000750  57C0                     seq        D0
00000752  4400                     neg.b      D0
00000754  1D40 FFD6                move.b     [A6 - 0x2A], D0
00000758  2F2E FFF8                move.l     -[A7], [A6 - 0x8]
0000075C  2F04                     move.l     -[A7], D4
0000075E  4EAD 04EA                jsr        [A5 + 0x4EA /* export_153, CODE:1 @ 000051F0 */]
00000762  201F                     move.l     D0, [A7]+
00000764  7218                     moveq.l    D1, 0x18
00000766  D081                     add.l      D0, D1
00000768  2D40 FFE4                move.l     [A6 - 0x1C], D0
0000076C  2046                     movea.l    A0, D6
0000076E  2A2E FFE4                move.l     D5, [A6 - 0x1C]
00000772  DA90                     add.l      D5, [A0]
00000774  2E05                     move.l     D7, D5
00000776  9E84                     sub.l      D7, D4
00000778  2046                     movea.l    A0, D6
0000077A  2246                     movea.l    A1, D6
0000077C  2251                     movea.l    A1, [A1]
0000077E  2011                     move.l     D0, [A1]
00000780  D090                     add.l      D0, [A0]
00000782  2D40 FFE0                move.l     [A6 - 0x20], D0
00000786  2F05                     move.l     -[A7], D5
00000788  2F07                     move.l     -[A7], D7
0000078A  202E FFE0                move.l     D0, [A6 - 0x20]
0000078E  9085                     sub.l      D0, D5
00000790  2F00                     move.l     -[A7], D0
00000792  4EAD 024A                jsr        [A5 + 0x24A /* export_69, CODE:1 @ 000046A6 */]
00000796  2E2E FFE0                move.l     D7, [A6 - 0x20]
0000079A  9E84                     sub.l      D7, D4
0000079C  2F07                     move.l     -[A7], D7
0000079E  2F04                     move.l     -[A7], D4
000007A0  4EAD 1B42                jsr        [A5 + 0x1B42 /* export_868, CODE:16 @ 00001E7C */]
000007A4  302B 0004                move.w     D0, [A3 + 0x4]
000007A8  5340                     subq.w     D0, 1
000007AA  3740 0004                move.w     [A3 + 0x4], D0
000007AE  102E FFD6                move.b     D0, [A6 - 0x2A]
000007B2  671C                     beq        +0x1E /* 000007D0 */
000007B4  2046                     movea.l    A0, D6
000007B6  2050                     movea.l    A0, [A0]
000007B8  2F08                     move.l     -[A7], A0
000007BA  42A7                     clr.l      -[A7]
000007BC  2F06                     move.l     -[A7], D6
000007BE  3F04                     move.w     -[A7], D4
000007C0  3F2B 0004                move.w     -[A7], [A3 + 0x4]
000007C4  4EAD 19AA                jsr        [A5 + 0x19AA /* export_817, CODE:16 @ 0000109E */]
000007C8  201F                     move.l     D0, [A7]+
000007CA  205F                     movea.l    A0, [A7]+
000007CC  2140 0010                move.l     [A0 + 0x10], D0
label000007D0:
000007D0  2F2E FFEC                move.l     -[A7], [A6 - 0x14]
000007D4  1F3C 0001                move.b     -[A7], 0x1
000007D8  4EAD 1F0A                jsr        [A5 + 0x1F0A /* export_989, CODE:19 @ 00000586 */]
label000007DC:
000007DC  2054                     movea.l    A0, [A4]
000007DE  2028 0014                move.l     D0, [A0 + 0x14]
000007E2  5380                     subq.l     D0, 1
000007E4  2054                     movea.l    A0, [A4]
000007E6  2140 0014                move.l     [A0 + 0x14], D0
000007EA  1D7C 0001 0010           move.b     [A6 + 0x10], 0x1
label000007F0:
000007F0  2F0C                     move.l     -[A7], A4
000007F2  1F2E FFD7                move.b     -[A7], [A6 - 0x29]
000007F6  4EAD 03F2                jsr        [A5 + 0x3F2 /* export_122, CODE:1 @ 00004D00 */]
000007FA  2054                     movea.l    A0, [A4]
000007FC  2254                     movea.l    A1, [A4]
000007FE  2368 0014 0024           move.l     [A1 + 0x24], [A0 + 0x14]
00000804  2054                     movea.l    A0, [A4]
00000806  2F08                     move.l     -[A7], A0
00000808  42A7                     clr.l      -[A7]
0000080A  2F0C                     move.l     -[A7], A4
0000080C  4EAD 19A2                jsr        [A5 + 0x19A2 /* export_816, CODE:16 @ 00001074 */]
00000810  201F                     move.l     D0, [A7]+
00000812  205F                     movea.l    A0, [A7]+
00000814  2140 0020                move.l     [A0 + 0x20], D0
00000818  2F2E 000C                move.l     -[A7], [A6 + 0xC]
0000081C  1F3C 0001                move.b     -[A7], 0x1
00000820  4EAD 1EFA                jsr        [A5 + 0x1EFA /* export_987, CODE:19 @ 0000046E */]
label00000824:
00000824  4CDF 18F0                movem.l    D4,D5,D6,D7,A3,A4, [A7]+
00000828  4E5E                     unlink     A6
0000082A  205F                     movea.l    A0, [A7]+
0000082C  504F                     addq.w     A7, 8
0000082E  4ED0                     jmp        [A0]
00000830  5041                     addq.w     D1, 8
00000832  4745                     chk.w      D3, D5
export_936:
00000834  4E56 FFEC                link       A6, -0x0014
00000838  48E7 0718                movem.l    -[A7], D5,D6,D7,A3,A4
0000083C  2A2E 0008                move.l     D5, [A6 + 0x8]
00000840  422E 000C                clr.b      [A6 + 0xC]
00000844  102D F4CD                move.b     D0, [A5 - 0xB33]
00000848  6702                     beq        +0x4 /* 0000084C */
0000084A  6062                     bra        +0x64 /* 000008AE */
label0000084C:
0000084C  42A7                     clr.l      -[A7]
0000084E  2F05                     move.l     -[A7], D5
00000850  4EAD 1F82                jsr        [A5 + 0x1F82 /* export_1004, CODE:19 @ 00001770 */]
00000854  285F                     movea.l    A4, [A7]+
00000856  200C                     move.l     D0, A4
00000858  6754                     beq        +0x56 /* 000008AE */
0000085A  7E30                     moveq.l    D7, 0x30
0000085C  2054                     movea.l    A0, [A4]
0000085E  2D68 000C FFEC           move.l     [A6 - 0x14], [A0 + 0xC]
00000864  7C01                     moveq.l    D6, 0x01
00000866  601E                     bra        +0x20 /* 00000886 */
label00000868:
00000868  2647                     movea.l    A3, D7
0000086A  D7D4                     add.l      A3, [A4]
0000086C  4267                     clr.w      -[A7]
0000086E  2F13                     move.l     -[A7], [A3]
00000870  2F3A 004A                move.l     -[A7], [PC + 0x4A /* 000008BC, value 0x50414745 'PAGE' */]
00000874  4EAD 1F2A                jsr        [A5 + 0x1F2A /* export_993, CODE:19 @ 00000890 */]
00000878  101F                     move.b     D0, [A7]+
0000087A  6604                     bne        +0x6 /* 00000880 */
0000087C  4EAD 1812                jsr        [A5 + 0x1812 /* export_766, CODE:16 @ 00000208 */]
label00000880:
00000880  5C87                     addq.l     D7, 6
00000882  5286                     addq.l     D6, 1
00000884  6906                     bvs        +0x8 /* 0000088C */
label00000886:
00000886  BCAE FFEC                cmp.l      D6, [A6 - 0x14]
0000088A  6FDC                     ble        -0x22 /* 00000868 */
label0000088C:
0000088C  2F05                     move.l     -[A7], D5
0000088E  4267                     clr.w      -[A7]
00000890  4EAD 1EFA                jsr        [A5 + 0x1EFA /* export_987, CODE:19 @ 0000046E */]
00000894  4267                     clr.w      -[A7]
00000896  2F05                     move.l     -[A7], D5
00000898  2F3A 001E                move.l     -[A7], [PC + 0x1E /* 000008B8, value 0x4C495354 'LIST' */]
0000089C  4EAD 1F2A                jsr        [A5 + 0x1F2A /* export_993, CODE:19 @ 00000890 */]
000008A0  101F                     move.b     D0, [A7]+
000008A2  6604                     bne        +0x6 /* 000008A8 */
000008A4  4EAD 1812                jsr        [A5 + 0x1812 /* export_766, CODE:16 @ 00000208 */]
label000008A8:
000008A8  1D7C 0001 000C           move.b     [A6 + 0xC], 0x1
label000008AE:
000008AE  4CDF 18E0                movem.l    D5,D6,D7,A3,A4, [A7]+
000008B2  4E5E                     unlink     A6
000008B4  2E9F                     move.l     [A7], [A7]+
000008B6  4E75                     rts
000008B8  4C49 5354 5041 4745      dc.b       "LISTPAGE"
export_937:
000008C0  4E56 FFEA                link       A6, -0x0016
000008C4  48E7 0F18                movem.l    -[A7], D4,D5,D6,D7,A3,A4
000008C8  422E 000E                clr.b      [A6 + 0xE]
000008CC  42A7                     clr.l      -[A7]
000008CE  2F2E 000A                move.l     -[A7], [A6 + 0xA]
000008D2  4EAD 1F9A                jsr        [A5 + 0x1F9A /* export_1007, CODE:19 @ 00001B6A */]
000008D6  285F                     movea.l    A4, [A7]+
000008D8  200C                     move.l     D0, A4
000008DA  6768                     beq        +0x6A /* 00000944 */
000008DC  42A7                     clr.l      -[A7]
000008DE  2F0C                     move.l     -[A7], A4
000008E0  3F2E 0008                move.w     -[A7], [A6 + 0x8]
000008E4  4EBA 0638                jsr        [PC + 0x638 /* 00000F1E */]
000008E8  265F                     movea.l    A3, [A7]+
000008EA  200B                     move.l     D0, A3
000008EC  674A                     beq        +0x4C /* 00000938 */
000008EE  3E13                     move.w     D7, [A3]
000008F0  206D F034                movea.l    A0, [A5 - 0xFCC]
000008F4  3010                     move.w     D0, [A0]
000008F6  5340                     subq.w     D0, 1
000008F8  206D F034                movea.l    A0, [A5 - 0xFCC]
000008FC  3080                     move.w     [A0], D0
000008FE  206D F034                movea.l    A0, [A5 - 0xFCC]
00000902  3007                     move.w     D0, D7
00000904  48C0                     ext.l      D0
00000906  2228 0004                move.l     D1, [A0 + 0x4]
0000090A  9280                     sub.l      D1, D0
0000090C  206D F034                movea.l    A0, [A5 - 0xFCC]
00000910  2141 0004                move.l     [A0 + 0x4], D1
00000914  2C0B                     move.l     D6, A3
00000916  3007                     move.w     D0, D7
00000918  48C0                     ext.l      D0
0000091A  2A00                     move.l     D5, D0
0000091C  DA86                     add.l      D5, D6
0000091E  2054                     movea.l    A0, [A4]
00000920  2810                     move.l     D4, [A0]
00000922  D894                     add.l      D4, [A4]
00000924  2F05                     move.l     -[A7], D5
00000926  2F06                     move.l     -[A7], D6
00000928  2004                     move.l     D0, D4
0000092A  9085                     sub.l      D0, D5
0000092C  2F00                     move.l     -[A7], D0
0000092E  4EAD 024A                jsr        [A5 + 0x24A /* export_69, CODE:1 @ 000046A6 */]
00000932  1D7C 0001 000E           move.b     [A6 + 0xE], 0x1
label00000938:
00000938  2F2E 000A                move.l     -[A7], [A6 + 0xA]
0000093C  1F3C 0001                move.b     -[A7], 0x1
00000940  4EAD 1F1A                jsr        [A5 + 0x1F1A /* export_991, CODE:19 @ 000006D4 */]
label00000944:
00000944  4CDF 18F0                movem.l    D4,D5,D6,D7,A3,A4, [A7]+
00000948  4E5E                     unlink     A6
0000094A  205F                     movea.l    A0, [A7]+
0000094C  5C4F                     addq.w     A7, 6
0000094E  4ED0                     jmp        [A0]
export_938:
00000950  4E56 FEF4                link       A6, -0x010C
00000954  48E7 0118                movem.l    -[A7], D7,A3,A4
00000958  206E 000C                movea.l    A0, [A6 + 0xC]
0000095C  4210                     clr.b      [A0]
0000095E  42A7                     clr.l      -[A7]
00000960  2F2E 0008                move.l     -[A7], [A6 + 0x8]
00000964  4EAD 1F6A                jsr        [A5 + 0x1F6A /* export_1001, CODE:19 @ 000016EC */]
00000968  285F                     movea.l    A4, [A7]+
0000096A  200C                     move.l     D0, A4
0000096C  673A                     beq        +0x3C /* 000009A8 */
0000096E  2054                     movea.l    A0, [A4]
00000970  2028 0024                move.l     D0, [A0 + 0x24]
00000974  722E                     moveq.l    D1, 0x2E
00000976  D081                     add.l      D0, D1
00000978  2054                     movea.l    A0, [A4]
0000097A  2E28 002A                move.l     D7, [A0 + 0x2A]
0000097E  DE80                     add.l      D7, D0
00000980  2647                     movea.l    A3, D7
00000982  D7D4                     add.l      A3, [A4]
00000984  2F0B                     move.l     -[A7], A3
00000986  486E FEF4                pea.l      [A6 - 0x10C]
0000098A  4EAD 1B5A                jsr        [A5 + 0x1B5A /* export_871, CODE:16 @ 00001ECC */]
0000098E  206E 000C                movea.l    A0, [A6 + 0xC]
00000992  43EE FEF4                lea.l      A1, [A6 - 0x10C]
00000996  703F                     moveq.l    D0, 0x3F
label00000998:
00000998  20D9                     move.l     [A0]+, [A1]+
0000099A  51C8 FFFC                dbf        D0, -0x6 /* 00000998 */
0000099E  2F2E 0008                move.l     -[A7], [A6 + 0x8]
000009A2  4267                     clr.w      -[A7]
000009A4  4EAD 1EE2                jsr        [A5 + 0x1EE2 /* export_984, CODE:19 @ 00000414 */]
label000009A8:
000009A8  4CDF 1880                movem.l    D7,A3,A4, [A7]+
000009AC  4E5E                     unlink     A6
000009AE  2E9F                     move.l     [A7], [A7]+
000009B0  4E75                     rts
export_939:
000009B2  4E56 FFEC                link       A6, -0x0014
000009B6  48E7 0708                movem.l    -[A7], D5,D6,D7,A4
000009BA  7000                     moveq.l    D0, 0x00
000009BC  2D40 000C                move.l     [A6 + 0xC], D0
000009C0  2E2D F664                move.l     D7, [A5 - 0x99C]
000009C4  2D6D F660 FFEC           move.l     [A6 - 0x14], [A5 - 0x9A0]
000009CA  7C01                     moveq.l    D6, 0x01
000009CC  602E                     bra        +0x30 /* 000009FC */
label000009CE:
000009CE  BEAE 0008                cmp.l      D7, [A6 + 0x8]
000009D2  6606                     bne        +0x8 /* 000009DA */
000009D4  2D46 000C                move.l     [A6 + 0xC], D6
000009D8  6028                     bra        +0x2A /* 00000A02 */
label000009DA:
000009DA  42A7                     clr.l      -[A7]
000009DC  2F07                     move.l     -[A7], D7
000009DE  4EAD 1F6A                jsr        [A5 + 0x1F6A /* export_1001, CODE:19 @ 000016EC */]
000009E2  285F                     movea.l    A4, [A7]+
000009E4  200C                     move.l     D0, A4
000009E6  671A                     beq        +0x1C /* 00000A02 */
000009E8  2054                     movea.l    A0, [A4]
000009EA  2A28 0018                move.l     D5, [A0 + 0x18]
000009EE  2F07                     move.l     -[A7], D7
000009F0  4267                     clr.w      -[A7]
000009F2  4EAD 1EE2                jsr        [A5 + 0x1EE2 /* export_984, CODE:19 @ 00000414 */]
000009F6  2E05                     move.l     D7, D5
000009F8  5286                     addq.l     D6, 1
000009FA  6906                     bvs        +0x8 /* 00000A02 */
label000009FC:
000009FC  BCAE FFEC                cmp.l      D6, [A6 - 0x14]
00000A00  6FCC                     ble        -0x32 /* 000009CE */
label00000A02:
00000A02  4CDF 10E0                movem.l    D5,D6,D7,A4, [A7]+
00000A06  4E5E                     unlink     A6
00000A08  2E9F                     move.l     [A7], [A7]+
00000A0A  4E75                     rts
export_940:
00000A0C  4E56 FFE6                link       A6, -0x001A
00000A10  48E7 0318                movem.l    -[A7], D6,D7,A3,A4
00000A14  7000                     moveq.l    D0, 0x00
00000A16  2D40 000C                move.l     [A6 + 0xC], D0
00000A1A  42A7                     clr.l      -[A7]
00000A1C  2F2E 0008                move.l     -[A7], [A6 + 0x8]
00000A20  4EAD 1F6A                jsr        [A5 + 0x1F6A /* export_1001, CODE:19 @ 000016EC */]
00000A24  285F                     movea.l    A4, [A7]+
00000A26  200C                     move.l     D0, A4
00000A28  6770                     beq        +0x72 /* 00000A9A */
00000A2A  2F0C                     move.l     -[A7], A4
00000A2C  486E FFE7                pea.l      [A6 - 0x19]
00000A30  4EAD 1922                jsr        [A5 + 0x1922 /* export_800, CODE:16 @ 00000C02 */]
00000A34  2054                     movea.l    A0, [A4]
00000A36  2028 0024                move.l     D0, [A0 + 0x24]
00000A3A  722E                     moveq.l    D1, 0x2E
00000A3C  D081                     add.l      D0, D1
00000A3E  2054                     movea.l    A0, [A4]
00000A40  2E28 002A                move.l     D7, [A0 + 0x2A]
00000A44  DE80                     add.l      D7, D0
00000A46  2007                     move.l     D0, D7
00000A48  D094                     add.l      D0, [A4]
00000A4A  2D40 FFE8                move.l     [A6 - 0x18], D0
00000A4E  486E FFE8                pea.l      [A6 - 0x18]
00000A52  4EAD 1932                jsr        [A5 + 0x1932 /* export_802, CODE:16 @ 00000C5A */]
00000A56  42A7                     clr.l      -[A7]
00000A58  2F2E FFE8                move.l     -[A7], [A6 - 0x18]
00000A5C  4EAD 1ADA                jsr        [A5 + 0x1ADA /* export_855, CODE:16 @ 00001C66 */]
00000A60  2C1F                     move.l     D6, [A7]+
00000A62  5286                     addq.l     D6, 1
00000A64  42A7                     clr.l      -[A7]
00000A66  2F06                     move.l     -[A7], D6
00000A68  4EAD 18DA                jsr        [A5 + 0x18DA /* export_791, CODE:16 @ 00000896 */]
00000A6C  265F                     movea.l    A3, [A7]+
00000A6E  200B                     move.l     D0, A3
00000A70  6714                     beq        +0x16 /* 00000A86 */
00000A72  2D53 FFEC                move.l     [A6 - 0x14], [A3]
00000A76  486E FFE8                pea.l      [A6 - 0x18]
00000A7A  486E FFEC                pea.l      [A6 - 0x14]
00000A7E  4EAD 19CA                jsr        [A5 + 0x19CA /* export_821, CODE:16 @ 00001164 */]
00000A82  2D4B 000C                move.l     [A6 + 0xC], A3
label00000A86:
00000A86  2F0C                     move.l     -[A7], A4
00000A88  1F2E FFE7                move.b     -[A7], [A6 - 0x19]
00000A8C  4EAD 03F2                jsr        [A5 + 0x3F2 /* export_122, CODE:1 @ 00004D00 */]
00000A90  2F2E 0008                move.l     -[A7], [A6 + 0x8]
00000A94  4267                     clr.w      -[A7]
00000A96  4EAD 1EE2                jsr        [A5 + 0x1EE2 /* export_984, CODE:19 @ 00000414 */]
label00000A9A:
00000A9A  4CDF 18C0                movem.l    D6,D7,A3,A4, [A7]+
00000A9E  4E5E                     unlink     A6
00000AA0  2E9F                     move.l     [A7], [A7]+
00000AA2  4E75                     rts
export_941:
00000AA4  4E56 FEF4                link       A6, -0x010C
00000AA8  48E7 0118                movem.l    -[A7], D7,A3,A4
00000AAC  206E 000C                movea.l    A0, [A6 + 0xC]
00000AB0  4210                     clr.b      [A0]
00000AB2  42A7                     clr.l      -[A7]
00000AB4  2F2E 0008                move.l     -[A7], [A6 + 0x8]
00000AB8  4EAD 1F7A                jsr        [A5 + 0x1F7A /* export_1003, CODE:19 @ 00001744 */]
00000ABC  285F                     movea.l    A4, [A7]+
00000ABE  200C                     move.l     D0, A4
00000AC0  673A                     beq        +0x3C /* 00000AFC */
00000AC2  2054                     movea.l    A0, [A4]
00000AC4  2028 0028                move.l     D0, [A0 + 0x28]
00000AC8  7232                     moveq.l    D1, 0x32
00000ACA  D081                     add.l      D0, D1
00000ACC  2054                     movea.l    A0, [A4]
00000ACE  2E28 002E                move.l     D7, [A0 + 0x2E]
00000AD2  DE80                     add.l      D7, D0
00000AD4  2647                     movea.l    A3, D7
00000AD6  D7D4                     add.l      A3, [A4]
00000AD8  2F0B                     move.l     -[A7], A3
00000ADA  486E FEF4                pea.l      [A6 - 0x10C]
00000ADE  4EAD 1B5A                jsr        [A5 + 0x1B5A /* export_871, CODE:16 @ 00001ECC */]
00000AE2  206E 000C                movea.l    A0, [A6 + 0xC]
00000AE6  43EE FEF4                lea.l      A1, [A6 - 0x10C]
00000AEA  703F                     moveq.l    D0, 0x3F
label00000AEC:
00000AEC  20D9                     move.l     [A0]+, [A1]+
00000AEE  51C8 FFFC                dbf        D0, -0x6 /* 00000AEC */
00000AF2  2F2E 0008                move.l     -[A7], [A6 + 0x8]
00000AF6  4267                     clr.w      -[A7]
00000AF8  4EAD 1EF2                jsr        [A5 + 0x1EF2 /* export_986, CODE:19 @ 00000450 */]
label00000AFC:
00000AFC  4CDF 1880                movem.l    D7,A3,A4, [A7]+
00000B00  4E5E                     unlink     A6
00000B02  2E9F                     move.l     [A7], [A7]+
00000B04  4E75                     rts
export_942:
00000B06  4E56 FFE6                link       A6, -0x001A
00000B0A  48E7 0318                movem.l    -[A7], D6,D7,A3,A4
00000B0E  7000                     moveq.l    D0, 0x00
00000B10  2D40 000C                move.l     [A6 + 0xC], D0
00000B14  42A7                     clr.l      -[A7]
00000B16  2F2E 0008                move.l     -[A7], [A6 + 0x8]
00000B1A  4EAD 1F7A                jsr        [A5 + 0x1F7A /* export_1003, CODE:19 @ 00001744 */]
00000B1E  285F                     movea.l    A4, [A7]+
00000B20  200C                     move.l     D0, A4
00000B22  6770                     beq        +0x72 /* 00000B94 */
00000B24  2F0C                     move.l     -[A7], A4
00000B26  486E FFE7                pea.l      [A6 - 0x19]
00000B2A  4EAD 1922                jsr        [A5 + 0x1922 /* export_800, CODE:16 @ 00000C02 */]
00000B2E  2054                     movea.l    A0, [A4]
00000B30  2028 0028                move.l     D0, [A0 + 0x28]
00000B34  7232                     moveq.l    D1, 0x32
00000B36  D081                     add.l      D0, D1
00000B38  2054                     movea.l    A0, [A4]
00000B3A  2E28 002E                move.l     D7, [A0 + 0x2E]
00000B3E  DE80                     add.l      D7, D0
00000B40  2007                     move.l     D0, D7
00000B42  D094                     add.l      D0, [A4]
00000B44  2D40 FFE8                move.l     [A6 - 0x18], D0
00000B48  486E FFE8                pea.l      [A6 - 0x18]
00000B4C  4EAD 1932                jsr        [A5 + 0x1932 /* export_802, CODE:16 @ 00000C5A */]
00000B50  42A7                     clr.l      -[A7]
00000B52  2F2E FFE8                move.l     -[A7], [A6 - 0x18]
00000B56  4EAD 1ADA                jsr        [A5 + 0x1ADA /* export_855, CODE:16 @ 00001C66 */]
00000B5A  2C1F                     move.l     D6, [A7]+
00000B5C  5286                     addq.l     D6, 1
00000B5E  42A7                     clr.l      -[A7]
00000B60  2F06                     move.l     -[A7], D6
00000B62  4EAD 18DA                jsr        [A5 + 0x18DA /* export_791, CODE:16 @ 00000896 */]
00000B66  265F                     movea.l    A3, [A7]+
00000B68  200B                     move.l     D0, A3
00000B6A  6714                     beq        +0x16 /* 00000B80 */
00000B6C  2D53 FFEC                move.l     [A6 - 0x14], [A3]
00000B70  486E FFE8                pea.l      [A6 - 0x18]
00000B74  486E FFEC                pea.l      [A6 - 0x14]
00000B78  4EAD 19CA                jsr        [A5 + 0x19CA /* export_821, CODE:16 @ 00001164 */]
00000B7C  2D4B 000C                move.l     [A6 + 0xC], A3
label00000B80:
00000B80  2F0C                     move.l     -[A7], A4
00000B82  1F2E FFE7                move.b     -[A7], [A6 - 0x19]
00000B86  4EAD 03F2                jsr        [A5 + 0x3F2 /* export_122, CODE:1 @ 00004D00 */]
00000B8A  2F2E 0008                move.l     -[A7], [A6 + 0x8]
00000B8E  4267                     clr.w      -[A7]
00000B90  4EAD 1EF2                jsr        [A5 + 0x1EF2 /* export_986, CODE:19 @ 00000450 */]
label00000B94:
00000B94  4CDF 18C0                movem.l    D6,D7,A3,A4, [A7]+
00000B98  4E5E                     unlink     A6
00000B9A  2E9F                     move.l     [A7], [A7]+
00000B9C  4E75                     rts
export_943:
fn00000B9E:
00000B9E  4E56 FFE0                link       A6, -0x0020
00000BA2  48E7 0F18                movem.l    -[A7], D4,D5,D6,D7,A3,A4
00000BA6  422E 0014                clr.b      [A6 + 0x14]
00000BAA  4AAE 000C                tst.l      [A6 + 0xC]
00000BAE  6E04                     bgt        +0x6 /* 00000BB4 */
00000BB0  6000 00A2                bra        +0xA4 /* 00000C54 */
label00000BB4:
00000BB4  42A7                     clr.l      -[A7]
00000BB6  2F2E 0010                move.l     -[A7], [A6 + 0x10]
00000BBA  4EAD 1F82                jsr        [A5 + 0x1F82 /* export_1004, CODE:19 @ 00001770 */]
00000BBE  285F                     movea.l    A4, [A7]+
00000BC0  200C                     move.l     D0, A4
00000BC2  6604                     bne        +0x6 /* 00000BC8 */
00000BC4  6000 008E                bra        +0x90 /* 00000C54 */
label00000BC8:
00000BC8  2054                     movea.l    A0, [A4]
00000BCA  202E 000C                move.l     D0, [A6 + 0xC]
00000BCE  B0A8 0014                cmp.l      D0, [A0 + 0x14]
00000BD2  6E76                     bgt        +0x78 /* 00000C4A */
00000BD4  2054                     movea.l    A0, [A4]
00000BD6  3028 0018                move.w     D0, [A0 + 0x18]
00000BDA  48C0                     ext.l      D0
00000BDC  2C00                     move.l     D6, D0
00000BDE  2654                     movea.l    A3, [A4]
00000BE0  7030                     moveq.l    D0, 0x30
00000BE2  D7C0                     add.l      A3, D0
00000BE4  2E2E 000C                move.l     D7, [A6 + 0xC]
label00000BE8:
00000BE8  302B 0004                move.w     D0, [A3 + 0x4]
00000BEC  48C0                     ext.l      D0
00000BEE  B087                     cmp.l      D0, D7
00000BF0  6C0C                     bge        +0xE /* 00000BFE */
00000BF2  302B 0004                move.w     D0, [A3 + 0x4]
00000BF6  48C0                     ext.l      D0
00000BF8  9E80                     sub.l      D7, D0
00000BFA  5C8B                     addq.l     A3, 6
00000BFC  60EA                     bra        -0x14 /* 00000BE8 */
label00000BFE:
00000BFE  2A13                     move.l     D5, [A3]
00000C00  42A7                     clr.l      -[A7]
00000C02  2F05                     move.l     -[A7], D5
00000C04  4EAD 1F92                jsr        [A5 + 0x1F92 /* export_1006, CODE:19 @ 00001B32 */]
00000C08  281F                     move.l     D4, [A7]+
00000C0A  673E                     beq        +0x40 /* 00000C4A */
00000C0C  2007                     move.l     D0, D7
00000C0E  5380                     subq.l     D0, 1
00000C10  2F00                     move.l     -[A7], D0
00000C12  2F06                     move.l     -[A7], D6
00000C14  4EAD 04EA                jsr        [A5 + 0x4EA /* export_153, CODE:1 @ 000051F0 */]
00000C18  201F                     move.l     D0, [A7]+
00000C1A  7218                     moveq.l    D1, 0x18
00000C1C  D081                     add.l      D0, D1
00000C1E  2D40 FFE8                move.l     [A6 - 0x18], D0
00000C22  2044                     movea.l    A0, D4
00000C24  202E FFE8                move.l     D0, [A6 - 0x18]
00000C28  D090                     add.l      D0, [A0]
00000C2A  2D40 FFE4                move.l     [A6 - 0x1C], D0
00000C2E  2F2E FFE4                move.l     -[A7], [A6 - 0x1C]
00000C32  2F2E 0008                move.l     -[A7], [A6 + 0x8]
00000C36  2F06                     move.l     -[A7], D6
00000C38  4EAD 19B2                jsr        [A5 + 0x19B2 /* export_818, CODE:16 @ 000010BE */]
00000C3C  1D7C 0001 0014           move.b     [A6 + 0x14], 0x1
00000C42  2F05                     move.l     -[A7], D5
00000C44  4267                     clr.w      -[A7]
00000C46  4EAD 1F0A                jsr        [A5 + 0x1F0A /* export_989, CODE:19 @ 00000586 */]
label00000C4A:
00000C4A  2F2E 0010                move.l     -[A7], [A6 + 0x10]
00000C4E  4267                     clr.w      -[A7]
00000C50  4EAD 1EFA                jsr        [A5 + 0x1EFA /* export_987, CODE:19 @ 0000046E */]
label00000C54:
00000C54  4CDF 18F0                movem.l    D4,D5,D6,D7,A3,A4, [A7]+
00000C58  4E5E                     unlink     A6
00000C5A  205F                     movea.l    A0, [A7]+
00000C5C  DEFC 000C                add.w      A7, 0xC
00000C60  4ED0                     jmp        [A0]
export_944:
fn00000C62:
00000C62  4E56 FFFC                link       A6, -0x0004
00000C66  2F0C                     move.l     -[A7], A4
00000C68  422E 0010                clr.b      [A6 + 0x10]
00000C6C  42A7                     clr.l      -[A7]
00000C6E  2F2E 000C                move.l     -[A7], [A6 + 0xC]
00000C72  4EAD 1F82                jsr        [A5 + 0x1F82 /* export_1004, CODE:19 @ 00001770 */]
00000C76  285F                     movea.l    A4, [A7]+
00000C78  200C                     move.l     D0, A4
00000C7A  671E                     beq        +0x20 /* 00000C9A */
00000C7C  2054                     movea.l    A0, [A4]
00000C7E  226E 0008                movea.l    A1, [A6 + 0x8]
00000C82  700B                     moveq.l    D0, 0x0B
label00000C84:
00000C84  22D8                     move.l     [A1]+, [A0]+
00000C86  51C8 FFFC                dbf        D0, -0x6 /* 00000C84 */
00000C8A  2F2E 000C                move.l     -[A7], [A6 + 0xC]
00000C8E  4267                     clr.w      -[A7]
00000C90  4EAD 1EFA                jsr        [A5 + 0x1EFA /* export_987, CODE:19 @ 0000046E */]
00000C94  1D7C 0001 0010           move.b     [A6 + 0x10], 0x1
label00000C9A:
00000C9A  285F                     movea.l    A4, [A7]+
00000C9C  4E5E                     unlink     A6
00000C9E  205F                     movea.l    A0, [A7]+
00000CA0  504F                     addq.w     A7, 8
00000CA2  4ED0                     jmp        [A0]
export_945:
00000CA4  4E56 FFF4                link       A6, -0x000C
00000CA8  48E7 0318                movem.l    -[A7], D6,D7,A3,A4
00000CAC  2C2E 0008                move.l     D6, [A6 + 0x8]
00000CB0  7000                     moveq.l    D0, 0x00
00000CB2  2D40 0010                move.l     [A6 + 0x10], D0
00000CB6  42A7                     clr.l      -[A7]
00000CB8  2F2E 000C                move.l     -[A7], [A6 + 0xC]
00000CBC  4EAD 1F82                jsr        [A5 + 0x1F82 /* export_1004, CODE:19 @ 00001770 */]
00000CC0  285F                     movea.l    A4, [A7]+
00000CC2  200C                     move.l     D0, A4
00000CC4  6736                     beq        +0x38 /* 00000CFC */
00000CC6  4A86                     tst.l      D6
00000CC8  5EC0                     sgt        D0
00000CCA  2054                     movea.l    A0, [A4]
00000CCC  BCA8 000C                cmp.l      D6, [A0 + 0xC]
00000CD0  5FC1                     sle        D1
00000CD2  C001                     and.b      D0, D1
00000CD4  671C                     beq        +0x1E /* 00000CF2 */
00000CD6  2E06                     move.l     D7, D6
00000CD8  5387                     subq.l     D7, 1
00000CDA  2007                     move.l     D0, D7
00000CDC  D087                     add.l      D0, D7
00000CDE  D087                     add.l      D0, D7
00000CE0  2E00                     move.l     D7, D0
00000CE2  E38F                     lsl        D7, 1
00000CE4  2014                     move.l     D0, [A4]
00000CE6  7230                     moveq.l    D1, 0x30
00000CE8  D081                     add.l      D0, D1
00000CEA  2640                     movea.l    A3, D0
00000CEC  D7C7                     add.l      A3, D7
00000CEE  2D53 0010                move.l     [A6 + 0x10], [A3]
label00000CF2:
00000CF2  2F2E 000C                move.l     -[A7], [A6 + 0xC]
00000CF6  4267                     clr.w      -[A7]
00000CF8  4EAD 1EFA                jsr        [A5 + 0x1EFA /* export_987, CODE:19 @ 0000046E */]
label00000CFC:
00000CFC  4CDF 18C0                movem.l    D6,D7,A3,A4, [A7]+
00000D00  4E5E                     unlink     A6
00000D02  205F                     movea.l    A0, [A7]+
00000D04  504F                     addq.w     A7, 8
00000D06  4ED0                     jmp        [A0]
export_946:
00000D08  4E56 FFF8                link       A6, -0x0008
00000D0C  48E7 0018                movem.l    -[A7], A3,A4
00000D10  422E 0012                clr.b      [A6 + 0x12]
00000D14  42A7                     clr.l      -[A7]
00000D16  2F2E 000E                move.l     -[A7], [A6 + 0xE]
00000D1A  4EAD 1F9A                jsr        [A5 + 0x1F9A /* export_1007, CODE:19 @ 00001B6A */]
00000D1E  285F                     movea.l    A4, [A7]+
00000D20  200C                     move.l     D0, A4
00000D22  6732                     beq        +0x34 /* 00000D56 */
00000D24  42A7                     clr.l      -[A7]
00000D26  2F0C                     move.l     -[A7], A4
00000D28  3F2E 000C                move.w     -[A7], [A6 + 0xC]
00000D2C  4EBA 01F0                jsr        [PC + 0x1F0 /* 00000F1E */]
00000D30  265F                     movea.l    A3, [A7]+
00000D32  200B                     move.l     D0, A3
00000D34  6716                     beq        +0x18 /* 00000D4C */
00000D36  206E 0008                movea.l    A0, [A6 + 0x8]
00000D3A  224B                     movea.l    A1, A3
00000D3C  7006                     moveq.l    D0, 0x06
label00000D3E:
00000D3E  20D9                     move.l     [A0]+, [A1]+
00000D40  51C8 FFFC                dbf        D0, -0x6 /* 00000D3E */
00000D44  3091                     move.w     [A0], [A1]
00000D46  1D7C 0001 0012           move.b     [A6 + 0x12], 0x1
label00000D4C:
00000D4C  2F2E 000E                move.l     -[A7], [A6 + 0xE]
00000D50  4267                     clr.w      -[A7]
00000D52  4EAD 1F1A                jsr        [A5 + 0x1F1A /* export_991, CODE:19 @ 000006D4 */]
label00000D56:
00000D56  4CDF 1800                movem.l    A3,A4, [A7]+
00000D5A  4E5E                     unlink     A6
00000D5C  205F                     movea.l    A0, [A7]+
00000D5E  DEFC 000A                add.w      A7, 0xA /* '\n' */
00000D62  4ED0                     jmp        [A0]
export_947:
fn00000D64:
00000D64  4E56 FFEA                link       A6, -0x0016
00000D68  48E7 0F18                movem.l    -[A7], D4,D5,D6,D7,A3,A4
00000D6C  426E 0010                clr.w      [A6 + 0x10]
00000D70  4A6E 000A                tst.w      [A6 + 0xA]
00000D74  6E04                     bgt        +0x6 /* 00000D7A */
00000D76  6000 0098                bra        +0x9A /* 00000E10 */
label00000D7A:
00000D7A  42A7                     clr.l      -[A7]
00000D7C  2F2E 000C                move.l     -[A7], [A6 + 0xC]
00000D80  4EAD 1F9A                jsr        [A5 + 0x1F9A /* export_1007, CODE:19 @ 00001B6A */]
00000D84  265F                     movea.l    A3, [A7]+
00000D86  200B                     move.l     D0, A3
00000D88  6700 0086                beq        +0x88 /* 00000E10 */
00000D8C  2053                     movea.l    A0, [A3]
00000D8E  5888                     addq.l     A0, 4
00000D90  43FA 008E                lea.l      A1, [PC + 0x8E /* 00000E20, value 0x43415244 'CARD' */]
00000D94  7003                     moveq.l    D0, 0x03
label00000D96:
00000D96  B109                     cmpm.b     [A0]+, [A1]+
00000D98  56C8 FFFC                dbne       D0, -0x6 /* 00000D96 */
00000D9C  6604                     bne        +0x6 /* 00000DA2 */
00000D9E  7E32                     moveq.l    D7, 0x32
00000DA0  6018                     bra        +0x1A /* 00000DBA */
label00000DA2:
00000DA2  2053                     movea.l    A0, [A3]
00000DA4  5888                     addq.l     A0, 4
00000DA6  43FA 0074                lea.l      A1, [PC + 0x74 /* 00000E1C, value 0x424B4744 'BKGD' */]
00000DAA  7003                     moveq.l    D0, 0x03
label00000DAC:
00000DAC  B109                     cmpm.b     [A0]+, [A1]+
00000DAE  56C8 FFFC                dbne       D0, -0x6 /* 00000DAC */
00000DB2  6604                     bne        +0x6 /* 00000DB8 */
00000DB4  7E2E                     moveq.l    D7, 0x2E
00000DB6  6002                     bra        +0x4 /* 00000DBA */
label00000DB8:
00000DB8  604C                     bra        +0x4E /* 00000E06 */
label00000DBA:
00000DBA  2847                     movea.l    A4, D7
00000DBC  D9D3                     add.l      A4, [A3]
00000DBE  280C                     move.l     D4, A4
00000DC0  700E                     moveq.l    D0, 0x0E
00000DC2  9880                     sub.l      D4, D0
00000DC4  4246                     clr.w      D6
00000DC6  2044                     movea.l    A0, D4
00000DC8  3D50 FFEA                move.w     [A6 - 0x16], [A0]
00000DCC  7A01                     moveq.l    D5, 0x01
00000DCE  6030                     bra        +0x32 /* 00000E00 */
label00000DD0:
00000DD0  102C 0004                move.b     D0, [A4 + 0x4]
00000DD4  4880                     ext.w      D0
00000DD6  B06E 0008                cmp.w      D0, [A6 + 0x8]
00000DDA  57C0                     seq        D0
00000DDC  4A6E 0008                tst.w      [A6 + 0x8]
00000DE0  57C1                     seq        D1
00000DE2  8001                     or.b       D0, D1
00000DE4  6710                     beq        +0x12 /* 00000DF6 */
00000DE6  5246                     addq.w     D6, 1
00000DE8  BC6E 000A                cmp.w      D6, [A6 + 0xA]
00000DEC  6608                     bne        +0xA /* 00000DF6 */
00000DEE  3D6C 0002 0010           move.w     [A6 + 0x10], [A4 + 0x2]
00000DF4  6010                     bra        +0x12 /* 00000E06 */
label00000DF6:
00000DF6  3014                     move.w     D0, [A4]
00000DF8  48C0                     ext.l      D0
00000DFA  D9C0                     add.l      A4, D0
00000DFC  5245                     addq.w     D5, 1
00000DFE  6906                     bvs        +0x8 /* 00000E06 */
label00000E00:
00000E00  BA6E FFEA                cmp.w      D5, [A6 - 0x16]
00000E04  6FCA                     ble        -0x34 /* 00000DD0 */
label00000E06:
00000E06  2F2E 000C                move.l     -[A7], [A6 + 0xC]
00000E0A  4267                     clr.w      -[A7]
00000E0C  4EAD 1F1A                jsr        [A5 + 0x1F1A /* export_991, CODE:19 @ 000006D4 */]
label00000E10:
00000E10  4CDF 18F0                movem.l    D4,D5,D6,D7,A3,A4, [A7]+
00000E14  4E5E                     unlink     A6
00000E16  205F                     movea.l    A0, [A7]+
00000E18  504F                     addq.w     A7, 8
00000E1A  4ED0                     jmp        [A0]
00000E1C  424B 4744 4341 5244      dc.b       "BKGDCARD"
export_948:
00000E24  4E56 FEDE                link       A6, -0x0122
00000E28  206E 000E                movea.l    A0, [A6 + 0xE]
00000E2C  4210                     clr.b      [A0]
00000E2E  4267                     clr.w      -[A7]
00000E30  2F2E 000A                move.l     -[A7], [A6 + 0xA]
00000E34  3F2E 0008                move.w     -[A7], [A6 + 0x8]
00000E38  486E FFE2                pea.l      [A6 - 0x1E]
00000E3C  486E FEE2                pea.l      [A6 - 0x11E]
00000E40  486E FEDE                pea.l      [A6 - 0x122]
00000E44  4EBA 29BE                jsr        [PC + 0x29BE /* 00003804 */]
00000E48  101F                     move.b     D0, [A7]+
00000E4A  6718                     beq        +0x1A /* 00000E64 */
00000E4C  206E 000E                movea.l    A0, [A6 + 0xE]
00000E50  43EE FEE2                lea.l      A1, [A6 - 0x11E]
00000E54  703F                     moveq.l    D0, 0x3F
label00000E56:
00000E56  20D9                     move.l     [A0]+, [A1]+
00000E58  51C8 FFFC                dbf        D0, -0x6 /* 00000E56 */
00000E5C  2F2E FEDE                move.l     -[A7], [A6 - 0x122]
00000E60  4EAD 18D2                jsr        [A5 + 0x18D2 /* export_790, CODE:16 @ 0000083E */]
label00000E64:
00000E64  4E5E                     unlink     A6
00000E66  205F                     movea.l    A0, [A7]+
00000E68  5C4F                     addq.w     A7, 6
00000E6A  4ED0                     jmp        [A0]
export_949:
00000E6C  4E56 FFE8                link       A6, -0x0018
00000E70  48E7 0F18                movem.l    -[A7], D4,D5,D6,D7,A3,A4
00000E74  426E 000E                clr.w      [A6 + 0xE]
00000E78  42A7                     clr.l      -[A7]
00000E7A  2F2E 000A                move.l     -[A7], [A6 + 0xA]
00000E7E  4EAD 1F9A                jsr        [A5 + 0x1F9A /* export_1007, CODE:19 @ 00001B6A */]
00000E82  265F                     movea.l    A3, [A7]+
00000E84  200B                     move.l     D0, A3
00000E86  6700 0086                beq        +0x88 /* 00000F0E */
00000E8A  42A7                     clr.l      -[A7]
00000E8C  2F0B                     move.l     -[A7], A3
00000E8E  3F2E 0008                move.w     -[A7], [A6 + 0x8]
00000E92  4EBA 008A                jsr        [PC + 0x8A /* 00000F1E */]
00000E96  285F                     movea.l    A4, [A7]+
00000E98  200C                     move.l     D0, A4
00000E9A  6768                     beq        +0x6A /* 00000F04 */
00000E9C  102C 0004                move.b     D0, [A4 + 0x4]
00000EA0  4880                     ext.w      D0
00000EA2  3D40 FFEA                move.w     [A6 - 0x16], D0
00000EA6  7E32                     moveq.l    D7, 0x32
00000EA8  2053                     movea.l    A0, [A3]
00000EAA  5888                     addq.l     A0, 4
00000EAC  43FA 006C                lea.l      A1, [PC + 0x6C /* 00000F1A, value 0x424B4744 'BKGD' */]
00000EB0  7003                     moveq.l    D0, 0x03
label00000EB2:
00000EB2  B109                     cmpm.b     [A0]+, [A1]+
00000EB4  56C8 FFFC                dbne       D0, -0x6 /* 00000EB2 */
00000EB8  6602                     bne        +0x4 /* 00000EBC */
00000EBA  7E2E                     moveq.l    D7, 0x2E
label00000EBC:
00000EBC  2847                     movea.l    A4, D7
00000EBE  D9D3                     add.l      A4, [A3]
00000EC0  2007                     move.l     D0, D7
00000EC2  D093                     add.l      D0, [A3]
00000EC4  2800                     move.l     D4, D0
00000EC6  700E                     moveq.l    D0, 0x0E
00000EC8  9880                     sub.l      D4, D0
00000ECA  4246                     clr.w      D6
00000ECC  2044                     movea.l    A0, D4
00000ECE  3D50 FFE8                move.w     [A6 - 0x18], [A0]
00000ED2  7A01                     moveq.l    D5, 0x01
00000ED4  6028                     bra        +0x2A /* 00000EFE */
label00000ED6:
00000ED6  102C 0004                move.b     D0, [A4 + 0x4]
00000EDA  4880                     ext.w      D0
00000EDC  B06E FFEA                cmp.w      D0, [A6 - 0x16]
00000EE0  6612                     bne        +0x14 /* 00000EF4 */
00000EE2  5246                     addq.w     D6, 1
00000EE4  302C 0002                move.w     D0, [A4 + 0x2]
00000EE8  B06E 0008                cmp.w      D0, [A6 + 0x8]
00000EEC  6606                     bne        +0x8 /* 00000EF4 */
00000EEE  3D46 000E                move.w     [A6 + 0xE], D6
00000EF2  6010                     bra        +0x12 /* 00000F04 */
label00000EF4:
00000EF4  3014                     move.w     D0, [A4]
00000EF6  48C0                     ext.l      D0
00000EF8  D9C0                     add.l      A4, D0
00000EFA  5245                     addq.w     D5, 1
00000EFC  6906                     bvs        +0x8 /* 00000F04 */
label00000EFE:
00000EFE  BA6E FFE8                cmp.w      D5, [A6 - 0x18]
00000F02  6FD2                     ble        -0x2C /* 00000ED6 */
label00000F04:
00000F04  2F2E 000A                move.l     -[A7], [A6 + 0xA]
00000F08  4267                     clr.w      -[A7]
00000F0A  4EAD 1F1A                jsr        [A5 + 0x1F1A /* export_991, CODE:19 @ 000006D4 */]
label00000F0E:
00000F0E  4CDF 18F0                movem.l    D4,D5,D6,D7,A3,A4, [A7]+
00000F12  4E5E                     unlink     A6
00000F14  205F                     movea.l    A0, [A7]+
00000F16  5C4F                     addq.w     A7, 6
00000F18  4ED0                     jmp        [A0]
00000F1A  424B                     clr.w      A3
00000F1C  4744                     chk.w      D3, D4
export_950:
fn00000F1E:
00000F1E  4E56 FFF2                link       A6, -0x000E
00000F22  48E7 0718                movem.l    -[A7], D5,D6,D7,A3,A4
00000F26  2A2E 000A                move.l     D5, [A6 + 0xA]
00000F2A  7000                     moveq.l    D0, 0x00
00000F2C  2D40 000E                move.l     [A6 + 0xE], D0
00000F30  2045                     movea.l    A0, D5
00000F32  2050                     movea.l    A0, [A0]
00000F34  5888                     addq.l     A0, 4
00000F36  43FA 0078                lea.l      A1, [PC + 0x78 /* 00000FB0, value 0x43415244 'CARD' */]
00000F3A  7003                     moveq.l    D0, 0x03
label00000F3C:
00000F3C  B109                     cmpm.b     [A0]+, [A1]+
00000F3E  56C8 FFFC                dbne       D0, -0x6 /* 00000F3C */
00000F42  6604                     bne        +0x6 /* 00000F48 */
00000F44  7E32                     moveq.l    D7, 0x32
00000F46  601A                     bra        +0x1C /* 00000F62 */
label00000F48:
00000F48  2045                     movea.l    A0, D5
00000F4A  2050                     movea.l    A0, [A0]
00000F4C  5888                     addq.l     A0, 4
00000F4E  43FA 005C                lea.l      A1, [PC + 0x5C /* 00000FAC, value 0x424B4744 'BKGD' */]
00000F52  7003                     moveq.l    D0, 0x03
label00000F54:
00000F54  B109                     cmpm.b     [A0]+, [A1]+
00000F56  56C8 FFFC                dbne       D0, -0x6 /* 00000F54 */
00000F5A  6604                     bne        +0x6 /* 00000F60 */
00000F5C  7E2E                     moveq.l    D7, 0x2E
00000F5E  6002                     bra        +0x4 /* 00000F62 */
label00000F60:
00000F60  603E                     bra        +0x40 /* 00000FA0 */
label00000F62:
00000F62  2045                     movea.l    A0, D5
00000F64  3007                     move.w     D0, D7
00000F66  48C0                     ext.l      D0
00000F68  2840                     movea.l    A4, D0
00000F6A  D9D0                     add.l      A4, [A0]
00000F6C  264C                     movea.l    A3, A4
00000F6E  97FC 0000 000E           sub.l      A3, 0xE
00000F74  2B4B F034                move.l     [A5 - 0xFCC], A3
00000F78  3D53 FFF2                move.w     [A6 - 0xE], [A3]
00000F7C  7C01                     moveq.l    D6, 0x01
00000F7E  601A                     bra        +0x1C /* 00000F9A */
label00000F80:
00000F80  302C 0002                move.w     D0, [A4 + 0x2]
00000F84  B06E 0008                cmp.w      D0, [A6 + 0x8]
00000F88  6606                     bne        +0x8 /* 00000F90 */
00000F8A  2D4C 000E                move.l     [A6 + 0xE], A4
00000F8E  6010                     bra        +0x12 /* 00000FA0 */
label00000F90:
00000F90  3014                     move.w     D0, [A4]
00000F92  48C0                     ext.l      D0
00000F94  D9C0                     add.l      A4, D0
00000F96  5246                     addq.w     D6, 1
00000F98  6906                     bvs        +0x8 /* 00000FA0 */
label00000F9A:
00000F9A  BC6E FFF2                cmp.w      D6, [A6 - 0xE]
00000F9E  6FE0                     ble        -0x1E /* 00000F80 */
label00000FA0:
00000FA0  4CDF 18E0                movem.l    D5,D6,D7,A3,A4, [A7]+
00000FA4  4E5E                     unlink     A6
00000FA6  205F                     movea.l    A0, [A7]+
00000FA8  5C4F                     addq.w     A7, 6
00000FAA  4ED0                     jmp        [A0]
00000FAC  424B 4744 4341 5244      dc.b       "BKGDCARD"
export_951:
00000FB4  4E56 FEDE                link       A6, -0x0122
00000FB8  7000                     moveq.l    D0, 0x00
00000FBA  2D40 000E                move.l     [A6 + 0xE], D0
00000FBE  4267                     clr.w      -[A7]
00000FC0  2F2E 000A                move.l     -[A7], [A6 + 0xA]
00000FC4  3F2E 0008                move.w     -[A7], [A6 + 0x8]
00000FC8  486E FFE2                pea.l      [A6 - 0x1E]
00000FCC  486E FEE2                pea.l      [A6 - 0x11E]
00000FD0  486E FEDE                pea.l      [A6 - 0x122]
00000FD4  4EBA 282E                jsr        [PC + 0x282E /* 00003804 */]
00000FD8  101F                     move.b     D0, [A7]+
00000FDA  6706                     beq        +0x8 /* 00000FE2 */
00000FDC  2D6E FEDE 000E           move.l     [A6 + 0xE], [A6 - 0x122]
label00000FE2:
00000FE2  4E5E                     unlink     A6
00000FE4  205F                     movea.l    A0, [A7]+
00000FE6  5C4F                     addq.w     A7, 6
00000FE8  4ED0                     jmp        [A0]
export_952:
00000FEA  4E56 FFFC                link       A6, -0x0004
00000FEE  7000                     moveq.l    D0, 0x00
00000FF0  2D40 0008                move.l     [A6 + 0x8], D0
00000FF4  2D6D F636 FFFC           move.l     [A6 - 0x4], [A5 - 0x9CA]
00000FFA  4267                     clr.w      -[A7]
00000FFC  486E FFFC                pea.l      [A6 - 0x4]
00001000  4EAD 0462                jsr        [A5 + 0x462 /* export_136, CODE:1 @ 00004DBC */]
00001004  4A5F                     tst.w      [A7]+
00001006  6606                     bne        +0x8 /* 0000100E */
00001008  2D6E FFFC 0008           move.l     [A6 + 0x8], [A6 - 0x4]
label0000100E:
0000100E  4E5E                     unlink     A6
00001010  4E75                     rts
export_953:
00001012  4E56 FFEE                link       A6, -0x0012
00001016  48E7 0018                movem.l    -[A7], A3,A4
0000101A  7000                     moveq.l    D0, 0x00
0000101C  2D40 000E                move.l     [A6 + 0xE], D0
00001020  4A6E 0008                tst.w      [A6 + 0x8]
00001024  6604                     bne        +0x6 /* 0000102A */
00001026  6000 0088                bra        +0x8A /* 000010B0 */
label0000102A:
0000102A  42A7                     clr.l      -[A7]
0000102C  2F2E 000A                move.l     -[A7], [A6 + 0xA]
00001030  4EAD 1F7A                jsr        [A5 + 0x1F7A /* export_1003, CODE:19 @ 00001744 */]
00001034  265F                     movea.l    A3, [A7]+
00001036  200B                     move.l     D0, A3
00001038  6776                     beq        +0x78 /* 000010B0 */
0000103A  2F0B                     move.l     -[A7], A3
0000103C  486E FFEF                pea.l      [A6 - 0x11]
00001040  4EAD 1922                jsr        [A5 + 0x1922 /* export_800, CODE:16 @ 00000C02 */]
00001044  42A7                     clr.l      -[A7]
00001046  2F0B                     move.l     -[A7], A3
00001048  3F2E 0008                move.w     -[A7], [A6 + 0x8]
0000104C  4EAD 1C32                jsr        [A5 + 0x1C32 /* export_898, CODE:17 @ 00000A32 */]
00001050  2D5F FFF8                move.l     [A6 - 0x8], [A7]+
00001054  6616                     bne        +0x18 /* 0000106C */
00001056  42A7                     clr.l      -[A7]
00001058  7001                     moveq.l    D0, 0x01
0000105A  2F00                     move.l     -[A7], D0
0000105C  4EAD 18DA                jsr        [A5 + 0x18DA /* export_791, CODE:16 @ 00000896 */]
00001060  285F                     movea.l    A4, [A7]+
00001062  2054                     movea.l    A0, [A4]
00001064  4210                     clr.b      [A0]
00001066  2D4C 000E                move.l     [A6 + 0xE], A4
0000106A  6030                     bra        +0x32 /* 0000109C */
label0000106C:
0000106C  42A7                     clr.l      -[A7]
0000106E  42A7                     clr.l      -[A7]
00001070  2F2E FFF8                move.l     -[A7], [A6 - 0x8]
00001074  4EAD 1ADA                jsr        [A5 + 0x1ADA /* export_855, CODE:16 @ 00001C66 */]
00001078  201F                     move.l     D0, [A7]+
0000107A  5280                     addq.l     D0, 1
0000107C  2F00                     move.l     -[A7], D0
0000107E  4EAD 18DA                jsr        [A5 + 0x18DA /* export_791, CODE:16 @ 00000896 */]
00001082  285F                     movea.l    A4, [A7]+
00001084  200C                     move.l     D0, A4
00001086  6714                     beq        +0x16 /* 0000109C */
00001088  2D54 FFF4                move.l     [A6 - 0xC], [A4]
0000108C  486E FFF8                pea.l      [A6 - 0x8]
00001090  486E FFF4                pea.l      [A6 - 0xC]
00001094  4EAD 19CA                jsr        [A5 + 0x19CA /* export_821, CODE:16 @ 00001164 */]
00001098  2D4C 000E                move.l     [A6 + 0xE], A4
label0000109C:
0000109C  2F0B                     move.l     -[A7], A3
0000109E  1F2E FFEF                move.b     -[A7], [A6 - 0x11]
000010A2  4EAD 03F2                jsr        [A5 + 0x3F2 /* export_122, CODE:1 @ 00004D00 */]
000010A6  2F2E 000A                move.l     -[A7], [A6 + 0xA]
000010AA  4267                     clr.w      -[A7]
000010AC  4EAD 1EF2                jsr        [A5 + 0x1EF2 /* export_986, CODE:19 @ 00000450 */]
label000010B0:
000010B0  4CDF 1800                movem.l    A3,A4, [A7]+
000010B4  4E5E                     unlink     A6
000010B6  205F                     movea.l    A0, [A7]+
000010B8  5C4F                     addq.w     A7, 6
000010BA  4ED0                     jmp        [A0]
export_954:
fn000010BC:
000010BC  4E56 0000                link       A6, 0
000010C0  4AAD F626                tst.l      [A5 - 0x9DA]
000010C4  57C0                     seq        D0
000010C6  4AAD F62A                tst.l      [A5 - 0x9D6]
000010CA  56C1                     sne        D1
000010CC  C001                     and.b      D0, D1
000010CE  6712                     beq        +0x14 /* 000010E2 */
000010D0  42A7                     clr.l      -[A7]
000010D2  2F2D F670                move.l     -[A7], [A5 - 0x990]
000010D6  2F2D F62A                move.l     -[A7], [A5 - 0x9D6]
000010DA  4EBA 13DC                jsr        [PC + 0x13DC /* 000024B8 */]
000010DE  2B5F F626                move.l     [A5 - 0x9DA], [A7]+
label000010E2:
000010E2  2D6D F626 0008           move.l     [A6 + 0x8], [A5 - 0x9DA]
000010E8  4E5E                     unlink     A6
000010EA  4E75                     rts
export_955:
000010EC  4E56 FFF2                link       A6, -0x000E
000010F0  48E7 0118                movem.l    -[A7], D7,A3,A4
000010F4  7000                     moveq.l    D0, 0x00
000010F6  2D40 000E                move.l     [A6 + 0xE], D0
000010FA  42A7                     clr.l      -[A7]
000010FC  2F2E 000A                move.l     -[A7], [A6 + 0xA]
00001100  4EAD 1F9A                jsr        [A5 + 0x1F9A /* export_1007, CODE:19 @ 00001B6A */]
00001104  285F                     movea.l    A4, [A7]+
00001106  200C                     move.l     D0, A4
00001108  6754                     beq        +0x56 /* 0000115E */
0000110A  42A7                     clr.l      -[A7]
0000110C  2F0C                     move.l     -[A7], A4
0000110E  3F2E 0008                move.w     -[A7], [A6 + 0x8]
00001112  4EBA FE0A                jsr        [PC - 0x1F6 /* 00000F1E */]
00001116  265F                     movea.l    A3, [A7]+
00001118  200B                     move.l     D0, A3
0000111A  6738                     beq        +0x3A /* 00001154 */
0000111C  2F0C                     move.l     -[A7], A4
0000111E  486E FFF3                pea.l      [A6 - 0xD]
00001122  4EAD 1922                jsr        [A5 + 0x1922 /* export_800, CODE:16 @ 00000C02 */]
00001126  42A7                     clr.l      -[A7]
00001128  3013                     move.w     D0, [A3]
0000112A  48C0                     ext.l      D0
0000112C  2F00                     move.l     -[A7], D0
0000112E  4EAD 18DA                jsr        [A5 + 0x18DA /* export_791, CODE:16 @ 00000896 */]
00001132  2E1F                     move.l     D7, [A7]+
00001134  6714                     beq        +0x16 /* 0000114A */
00001136  2F0B                     move.l     -[A7], A3
00001138  2047                     movea.l    A0, D7
0000113A  2F10                     move.l     -[A7], [A0]
0000113C  3013                     move.w     D0, [A3]
0000113E  48C0                     ext.l      D0
00001140  2F00                     move.l     -[A7], D0
00001142  4EAD 19B2                jsr        [A5 + 0x19B2 /* export_818, CODE:16 @ 000010BE */]
00001146  2D47 000E                move.l     [A6 + 0xE], D7
label0000114A:
0000114A  2F0C                     move.l     -[A7], A4
0000114C  1F2E FFF3                move.b     -[A7], [A6 - 0xD]
00001150  4EAD 03F2                jsr        [A5 + 0x3F2 /* export_122, CODE:1 @ 00004D00 */]
label00001154:
00001154  2F2E 000A                move.l     -[A7], [A6 + 0xA]
00001158  4267                     clr.w      -[A7]
0000115A  4EAD 1F1A                jsr        [A5 + 0x1F1A /* export_991, CODE:19 @ 000006D4 */]
label0000115E:
0000115E  4CDF 1880                movem.l    D7,A3,A4, [A7]+
00001162  4E5E                     unlink     A6
00001164  205F                     movea.l    A0, [A7]+
00001166  5C4F                     addq.w     A7, 6
00001168  4ED0                     jmp        [A0]
export_956:
0000116A  4E56 FFF0                link       A6, -0x0010
0000116E  48E7 0318                movem.l    -[A7], D6,D7,A3,A4
00001172  422E 0016                clr.b      [A6 + 0x16]
00001176  42A7                     clr.l      -[A7]
00001178  2F2E 0012                move.l     -[A7], [A6 + 0x12]
0000117C  4EAD 1F6A                jsr        [A5 + 0x1F6A /* export_1001, CODE:19 @ 000016EC */]
00001180  265F                     movea.l    A3, [A7]+
00001182  200B                     move.l     D0, A3
00001184  6776                     beq        +0x78 /* 000011FC */
00001186  2853                     movea.l    A4, [A3]
00001188  702E                     moveq.l    D0, 0x2E
0000118A  D9C0                     add.l      A4, D0
0000118C  7E00                     moveq.l    D7, 0x00
0000118E  2053                     movea.l    A0, [A3]
00001190  3D68 0020 FFF0           move.w     [A6 - 0x10], [A0 + 0x20]
00001196  7C01                     moveq.l    D6, 0x01
00001198  6038                     bra        +0x3A /* 000011D2 */
label0000119A:
0000119A  4A2C 0005                tst.b      [A4 + 0x5]
0000119E  6D28                     blt        +0x2A /* 000011C8 */
000011A0  4A6E 000C                tst.w      [A6 + 0xC]
000011A4  57C0                     seq        D0
000011A6  122C 0004                move.b     D1, [A4 + 0x4]
000011AA  4881                     ext.w      D1
000011AC  B26E 000C                cmp.w      D1, [A6 + 0xC]
000011B0  57C1                     seq        D1
000011B2  8001                     or.b       D0, D1
000011B4  6712                     beq        +0x14 /* 000011C8 */
000011B6  4267                     clr.w      -[A7]
000011B8  2F2E 000E                move.l     -[A7], [A6 + 0xE]
000011BC  486C 0006                pea.l      [A4 + 0x6]
000011C0  A8AD                     syscall    PtInRect
000011C2  101F                     move.b     D0, [A7]+
000011C4  6702                     beq        +0x4 /* 000011C8 */
000011C6  2E0C                     move.l     D7, A4
label000011C8:
000011C8  3014                     move.w     D0, [A4]
000011CA  48C0                     ext.l      D0
000011CC  D9C0                     add.l      A4, D0
000011CE  5246                     addq.w     D6, 1
000011D0  6906                     bvs        +0x8 /* 000011D8 */
label000011D2:
000011D2  BC6E FFF0                cmp.w      D6, [A6 - 0x10]
000011D6  6FC2                     ble        -0x3C /* 0000119A */
label000011D8:
000011D8  4A87                     tst.l      D7
000011DA  6716                     beq        +0x18 /* 000011F2 */
000011DC  2047                     movea.l    A0, D7
000011DE  226E 0008                movea.l    A1, [A6 + 0x8]
000011E2  7006                     moveq.l    D0, 0x06
label000011E4:
000011E4  22D8                     move.l     [A1]+, [A0]+
000011E6  51C8 FFFC                dbf        D0, -0x6 /* 000011E4 */
000011EA  3290                     move.w     [A1], [A0]
000011EC  1D7C 0001 0016           move.b     [A6 + 0x16], 0x1
label000011F2:
000011F2  2F2E 0012                move.l     -[A7], [A6 + 0x12]
000011F6  4267                     clr.w      -[A7]
000011F8  4EAD 1EE2                jsr        [A5 + 0x1EE2 /* export_984, CODE:19 @ 00000414 */]
label000011FC:
000011FC  4CDF 18C0                movem.l    D6,D7,A3,A4, [A7]+
00001200  4E5E                     unlink     A6
00001202  205F                     movea.l    A0, [A7]+
00001204  DEFC 000E                add.w      A7, 0xE
00001208  4ED0                     jmp        [A0]
export_957:
0000120A  4E56 FFF0                link       A6, -0x0010
0000120E  48E7 0318                movem.l    -[A7], D6,D7,A3,A4
00001212  422E 0016                clr.b      [A6 + 0x16]
00001216  42A7                     clr.l      -[A7]
00001218  2F2E 0012                move.l     -[A7], [A6 + 0x12]
0000121C  4EAD 1F7A                jsr        [A5 + 0x1F7A /* export_1003, CODE:19 @ 00001744 */]
00001220  265F                     movea.l    A3, [A7]+
00001222  200B                     move.l     D0, A3
00001224  6776                     beq        +0x78 /* 0000129C */
00001226  2853                     movea.l    A4, [A3]
00001228  7032                     moveq.l    D0, 0x32
0000122A  D9C0                     add.l      A4, D0
0000122C  7E00                     moveq.l    D7, 0x00
0000122E  2053                     movea.l    A0, [A3]
00001230  3D68 0024 FFF0           move.w     [A6 - 0x10], [A0 + 0x24]
00001236  7C01                     moveq.l    D6, 0x01
00001238  6038                     bra        +0x3A /* 00001272 */
label0000123A:
0000123A  4A2C 0005                tst.b      [A4 + 0x5]
0000123E  6D28                     blt        +0x2A /* 00001268 */
00001240  4A6E 000C                tst.w      [A6 + 0xC]
00001244  57C0                     seq        D0
00001246  122C 0004                move.b     D1, [A4 + 0x4]
0000124A  4881                     ext.w      D1
0000124C  B26E 000C                cmp.w      D1, [A6 + 0xC]
00001250  57C1                     seq        D1
00001252  8001                     or.b       D0, D1
00001254  6712                     beq        +0x14 /* 00001268 */
00001256  4267                     clr.w      -[A7]
00001258  2F2E 000E                move.l     -[A7], [A6 + 0xE]
0000125C  486C 0006                pea.l      [A4 + 0x6]
00001260  A8AD                     syscall    PtInRect
00001262  101F                     move.b     D0, [A7]+
00001264  6702                     beq        +0x4 /* 00001268 */
00001266  2E0C                     move.l     D7, A4
label00001268:
00001268  3014                     move.w     D0, [A4]
0000126A  48C0                     ext.l      D0
0000126C  D9C0                     add.l      A4, D0
0000126E  5246                     addq.w     D6, 1
00001270  6906                     bvs        +0x8 /* 00001278 */
label00001272:
00001272  BC6E FFF0                cmp.w      D6, [A6 - 0x10]
00001276  6FC2                     ble        -0x3C /* 0000123A */
label00001278:
00001278  4A87                     tst.l      D7
0000127A  6716                     beq        +0x18 /* 00001292 */
0000127C  2047                     movea.l    A0, D7
0000127E  226E 0008                movea.l    A1, [A6 + 0x8]
00001282  7006                     moveq.l    D0, 0x06
label00001284:
00001284  22D8                     move.l     [A1]+, [A0]+
00001286  51C8 FFFC                dbf        D0, -0x6 /* 00001284 */
0000128A  3290                     move.w     [A1], [A0]
0000128C  1D7C 0001 0016           move.b     [A6 + 0x16], 0x1
label00001292:
00001292  2F2E 0012                move.l     -[A7], [A6 + 0x12]
00001296  4267                     clr.w      -[A7]
00001298  4EAD 1EF2                jsr        [A5 + 0x1EF2 /* export_986, CODE:19 @ 00000450 */]
label0000129C:
0000129C  4CDF 18C0                movem.l    D6,D7,A3,A4, [A7]+
000012A0  4E5E                     unlink     A6
000012A2  205F                     movea.l    A0, [A7]+
000012A4  DEFC 000E                add.w      A7, 0xE
000012A8  4ED0                     jmp        [A0]
export_958:
000012AA  4E56 FFFC                link       A6, -0x0004
000012AE  7000                     moveq.l    D0, 0x00
000012B0  2B40 F62A                move.l     [A5 - 0x9D6], D0
000012B4  7000                     moveq.l    D0, 0x00
000012B6  2B40 F622                move.l     [A5 - 0x9DE], D0
000012BA  7000                     moveq.l    D0, 0x00
000012BC  2B40 F626                move.l     [A5 - 0x9DA], D0
000012C0  422D F2B8                clr.b      [A5 - 0xD48]
000012C4  422D F033                clr.b      [A5 - 0xFCD]
000012C8  7000                     moveq.l    D0, 0x00
000012CA  2B40 F2AE                move.l     [A5 - 0xD52], D0
000012CE  422D F2C0                clr.b      [A5 - 0xD40]
000012D2  426D F158                clr.w      [A5 - 0xEA8]
000012D6  3B7C 0001 F156           move.w     [A5 - 0xEAA], 0x1
000012DC  426D F2AA                clr.w      [A5 - 0xD56]
000012E0  3B78 0984 F2BC           move.w     [A5 - 0xD44], [0x00000984 /* AppFontID */]
000012E6  3B78 0BA8 F2BA           move.w     [A5 - 0xD46], [0x00000BA8 /* DefFontSize */]
000012EC  4A6D F2BA                tst.w      [A5 - 0xD46]
000012F0  6606                     bne        +0x8 /* 000012F8 */
000012F2  3B7C 000C F2BA           move.w     [A5 - 0xD46], 0xC
label000012F8:
000012F8  4E5E                     unlink     A6
000012FA  4E75                     rts
fn000012FC:
000012FC  4E56 FFF8                link       A6, -0x0008
00001300  48E7 0118                movem.l    -[A7], D7,A3,A4
00001304  7000                     moveq.l    D0, 0x00
00001306  2D40 000C                move.l     [A6 + 0xC], D0
0000130A  42A7                     clr.l      -[A7]
0000130C  226E 0008                movea.l    A1, [A6 + 0x8]
00001310  2069 FFFC                movea.l    A0, [A1 - 0x4]
00001314  2050                     movea.l    A0, [A0]
00001316  2F28 0010                move.l     -[A7], [A0 + 0x10]
0000131A  2F3A 0070                move.l     -[A7], [PC + 0x70 /* 0000138C, value 0x50414745 'PAGE' */]
0000131E  4EAD 1F22                jsr        [A5 + 0x1F22 /* export_992, CODE:19 @ 000007F0 */]
00001322  2E1F                     move.l     D7, [A7]+
00001324  42A7                     clr.l      -[A7]
00001326  2F07                     move.l     -[A7], D7
00001328  4EAD 1F92                jsr        [A5 + 0x1F92 /* export_1006, CODE:19 @ 00001B32 */]
0000132C  265F                     movea.l    A3, [A7]+
0000132E  200B                     move.l     D0, A3
00001330  6750                     beq        +0x52 /* 00001382 */
00001332  2853                     movea.l    A4, [A3]
00001334  206E 0008                movea.l    A0, [A6 + 0x8]
00001338  2968 0010 000C           move.l     [A4 + 0xC], [A0 + 0x10]
0000133E  7000                     moveq.l    D0, 0x00
00001340  2940 0010                move.l     [A4 + 0x10], D0
00001344  7000                     moveq.l    D0, 0x00
00001346  2940 0014                move.l     [A4 + 0x14], D0
0000134A  2013                     move.l     D0, [A3]
0000134C  7218                     moveq.l    D1, 0x18
0000134E  D081                     add.l      D0, D1
00001350  2F00                     move.l     -[A7], D0
00001352  2014                     move.l     D0, [A4]
00001354  7218                     moveq.l    D1, 0x18
00001356  9081                     sub.l      D0, D1
00001358  2F00                     move.l     -[A7], D0
0000135A  4EAD 1B42                jsr        [A5 + 0x1B42 /* export_868, CODE:16 @ 00001E7C */]
0000135E  42A7                     clr.l      -[A7]
00001360  2F0B                     move.l     -[A7], A3
00001362  206E 0008                movea.l    A0, [A6 + 0x8]
00001366  3F28 FFD6                move.w     -[A7], [A0 - 0x2A]
0000136A  4267                     clr.w      -[A7]
0000136C  4EAD 19AA                jsr        [A5 + 0x19AA /* export_817, CODE:16 @ 0000109E */]
00001370  295F 0010                move.l     [A4 + 0x10], [A7]+
00001374  2F07                     move.l     -[A7], D7
00001376  1F3C 0001                move.b     -[A7], 0x1
0000137A  4EAD 1F0A                jsr        [A5 + 0x1F0A /* export_989, CODE:19 @ 00000586 */]
0000137E  2D47 000C                move.l     [A6 + 0xC], D7
label00001382:
00001382  4CDF 1880                movem.l    D7,A3,A4, [A7]+
00001386  4E5E                     unlink     A6
00001388  2E9F                     move.l     [A7], [A7]+
0000138A  4E75                     rts
0000138C  5041                     addq.w     D1, 8
0000138E  4745                     chk.w      D3, D5
export_959:
fn00001390:
00001390  4E56 FFBE                link       A6, -0x0042
00001394  48E7 0F18                movem.l    -[A7], D4,D5,D6,D7,A3,A4
00001398  422E 0014                clr.b      [A6 + 0x14]
0000139C  102D F4CD                move.b     D0, [A5 - 0xB33]
000013A0  6704                     beq        +0x6 /* 000013A6 */
000013A2  6000 0422                bra        +0x424 /* 000017C6 */
label000013A6:
000013A6  42A7                     clr.l      -[A7]
000013A8  2F2E 0010                move.l     -[A7], [A6 + 0x10]
000013AC  4EAD 1F82                jsr        [A5 + 0x1F82 /* export_1004, CODE:19 @ 00001770 */]
000013B0  2D5F FFFC                move.l     [A6 - 0x4], [A7]+
000013B4  6604                     bne        +0x6 /* 000013BA */
000013B6  6000 040E                bra        +0x410 /* 000017C6 */
label000013BA:
000013BA  2F2E FFFC                move.l     -[A7], [A6 - 0x4]
000013BE  486E FFBF                pea.l      [A6 - 0x41]
000013C2  4EAD 1922                jsr        [A5 + 0x1922 /* export_800, CODE:16 @ 00000C02 */]
000013C6  206E FFFC                movea.l    A0, [A6 - 0x4]
000013CA  2050                     movea.l    A0, [A0]
000013CC  3028 0018                move.w     D0, [A0 + 0x18]
000013D0  48C0                     ext.l      D0
000013D2  2D40 FFD4                move.l     [A6 - 0x2C], D0
000013D6  206E FFFC                movea.l    A0, [A6 - 0x4]
000013DA  2050                     movea.l    A0, [A0]
000013DC  2028 0010                move.l     D0, [A0 + 0x10]
000013E0  7218                     moveq.l    D1, 0x18
000013E2  9081                     sub.l      D0, D1
000013E4  2F00                     move.l     -[A7], D0
000013E6  2F2E FFD4                move.l     -[A7], [A6 - 0x2C]
000013EA  4EAD 04F2                jsr        [A5 + 0x4F2 /* export_154, CODE:1 @ 00005224 */]
000013EE  201F                     move.l     D0, [A7]+
000013F0  3D40 FFD2                move.w     [A6 - 0x2E], D0
000013F4  4AAE 000C                tst.l      [A6 + 0xC]
000013F8  6C06                     bge        +0x8 /* 00001400 */
000013FA  7000                     moveq.l    D0, 0x00
000013FC  2D40 000C                move.l     [A6 + 0xC], D0
label00001400:
00001400  206E FFFC                movea.l    A0, [A6 - 0x4]
00001404  2050                     movea.l    A0, [A0]
00001406  202E 000C                move.l     D0, [A6 + 0xC]
0000140A  B0A8 0014                cmp.l      D0, [A0 + 0x14]
0000140E  6F0C                     ble        +0xE /* 0000141C */
00001410  206E FFFC                movea.l    A0, [A6 - 0x4]
00001414  2050                     movea.l    A0, [A0]
00001416  2D68 0014 000C           move.l     [A6 + 0xC], [A0 + 0x14]
label0000141C:
0000141C  206E FFFC                movea.l    A0, [A6 - 0x4]
00001420  2050                     movea.l    A0, [A0]
00001422  2028 000C                move.l     D0, [A0 + 0xC]
00001426  5280                     addq.l     D0, 1
00001428  7206                     moveq.l    D1, 0x06
0000142A  2F01                     move.l     -[A7], D1
0000142C  2F00                     move.l     -[A7], D0
0000142E  4EAD 04EA                jsr        [A5 + 0x4EA /* export_153, CODE:1 @ 000051F0 */]
00001432  201F                     move.l     D0, [A7]+
00001434  7230                     moveq.l    D1, 0x30
00001436  D081                     add.l      D0, D1
00001438  2D40 FFE0                move.l     [A6 - 0x20], D0
0000143C  206E FFFC                movea.l    A0, [A6 - 0x4]
00001440  2050                     movea.l    A0, [A0]
00001442  202E FFE0                move.l     D0, [A6 - 0x20]
00001446  B090                     cmp.l      D0, [A0]
00001448  6F22                     ble        +0x24 /* 0000146C */
0000144A  2F2E FFFC                move.l     -[A7], [A6 - 0x4]
0000144E  4EAD 022A                jsr        [A5 + 0x22A /* export_65, CODE:1 @ 00004682 */]
00001452  4267                     clr.w      -[A7]
00001454  2F2E 0010                move.l     -[A7], [A6 + 0x10]
00001458  2F3A 037A                move.l     -[A7], [PC + 0x37A /* 000017D4, value 0x4C495354 'LIST' */]
0000145C  2F2E FFE0                move.l     -[A7], [A6 - 0x20]
00001460  4EAD 1FCA                jsr        [A5 + 0x1FCA /* export_1013, CODE:19 @ 00001F1E */]
00001464  101F                     move.b     D0, [A7]+
00001466  6604                     bne        +0x6 /* 0000146C */
00001468  6000 0318                bra        +0x31A /* 00001782 */
label0000146C:
0000146C  2F2E FFFC                move.l     -[A7], [A6 - 0x4]
00001470  4EAD 0222                jsr        [A5 + 0x222 /* export_64, CODE:1 @ 00004678 */]
00001474  206E FFFC                movea.l    A0, [A6 - 0x4]
00001478  2050                     movea.l    A0, [A0]
0000147A  4AA8 000C                tst.l      [A0 + 0xC]
0000147E  662A                     bne        +0x2C /* 000014AA */
00001480  42A7                     clr.l      -[A7]
00001482  2F0E                     move.l     -[A7], A6
00001484  4EBA FE76                jsr        [PC - 0x18A /* 000012FC */]
00001488  2A1F                     move.l     D5, [A7]+
0000148A  6700 02F6                beq        +0x2F8 /* 00001782 */
0000148E  206E FFFC                movea.l    A0, [A6 - 0x4]
00001492  2050                     movea.l    A0, [A0]
00001494  7001                     moveq.l    D0, 0x01
00001496  2140 000C                move.l     [A0 + 0xC], D0
0000149A  206E FFFC                movea.l    A0, [A6 - 0x4]
0000149E  2850                     movea.l    A4, [A0]
000014A0  7030                     moveq.l    D0, 0x30
000014A2  D9C0                     add.l      A4, D0
000014A4  2885                     move.l     [A4], D5
000014A6  426C 0004                clr.w      [A4 + 0x4]
label000014AA:
000014AA  206E FFFC                movea.l    A0, [A6 - 0x4]
000014AE  2850                     movea.l    A4, [A0]
000014B0  7030                     moveq.l    D0, 0x30
000014B2  D9C0                     add.l      A4, D0
000014B4  2D6E 000C FFD8           move.l     [A6 - 0x28], [A6 + 0xC]
label000014BA:
000014BA  302C 0004                move.w     D0, [A4 + 0x4]
000014BE  48C0                     ext.l      D0
000014C0  B0AE FFD8                cmp.l      D0, [A6 - 0x28]
000014C4  6C0E                     bge        +0x10 /* 000014D4 */
000014C6  302C 0004                move.w     D0, [A4 + 0x4]
000014CA  48C0                     ext.l      D0
000014CC  91AE FFD8                sub.l      [A6 - 0x28], D0
000014D0  5C8C                     addq.l     A4, 6
000014D2  60E6                     bra        -0x18 /* 000014BA */
label000014D4:
000014D4  2D54 FFF4                move.l     [A6 - 0xC], [A4]
000014D8  42A7                     clr.l      -[A7]
000014DA  2F2E FFF4                move.l     -[A7], [A6 - 0xC]
000014DE  4EAD 1F92                jsr        [A5 + 0x1F92 /* export_1006, CODE:19 @ 00001B32 */]
000014E2  265F                     movea.l    A3, [A7]+
000014E4  200B                     move.l     D0, A3
000014E6  6700 029A                beq        +0x29C /* 00001782 */
000014EA  2053                     movea.l    A0, [A3]
000014EC  2F08                     move.l     -[A7], A0
000014EE  42A7                     clr.l      -[A7]
000014F0  2F0B                     move.l     -[A7], A3
000014F2  3F2E FFD6                move.w     -[A7], [A6 - 0x2A]
000014F6  3F2C 0004                move.w     -[A7], [A4 + 0x4]
000014FA  4EAD 19AA                jsr        [A5 + 0x19AA /* export_817, CODE:16 @ 0000109E */]
000014FE  201F                     move.l     D0, [A7]+
00001500  205F                     movea.l    A0, [A7]+
00001502  B0A8 0010                cmp.l      D0, [A0 + 0x10]
00001506  57C0                     seq        D0
00001508  4400                     neg.b      D0
0000150A  1D40 FFBE                move.b     [A6 - 0x42], D0
0000150E  302C 0004                move.w     D0, [A4 + 0x4]
00001512  B06E FFD2                cmp.w      D0, [A6 - 0x2E]
00001516  6C00 00A4                bge        +0xA6 /* 000015BC */
0000151A  2F2E FFD8                move.l     -[A7], [A6 - 0x28]
0000151E  2F2E FFD4                move.l     -[A7], [A6 - 0x2C]
00001522  4EAD 04EA                jsr        [A5 + 0x4EA /* export_153, CODE:1 @ 000051F0 */]
00001526  201F                     move.l     D0, [A7]+
00001528  7218                     moveq.l    D1, 0x18
0000152A  D081                     add.l      D0, D1
0000152C  2D40 FFDC                move.l     [A6 - 0x24], D0
00001530  2C2E FFDC                move.l     D6, [A6 - 0x24]
00001534  DC93                     add.l      D6, [A3]
00001536  2E2E FFD4                move.l     D7, [A6 - 0x2C]
0000153A  DE86                     add.l      D7, D6
0000153C  2053                     movea.l    A0, [A3]
0000153E  2010                     move.l     D0, [A0]
00001540  D093                     add.l      D0, [A3]
00001542  2D40 FFCE                move.l     [A6 - 0x32], D0
00001546  2F06                     move.l     -[A7], D6
00001548  2F07                     move.l     -[A7], D7
0000154A  202E FFCE                move.l     D0, [A6 - 0x32]
0000154E  9087                     sub.l      D0, D7
00001550  2F00                     move.l     -[A7], D0
00001552  4EAD 024A                jsr        [A5 + 0x24A /* export_69, CODE:1 @ 000046A6 */]
00001556  2F2E 0008                move.l     -[A7], [A6 + 0x8]
0000155A  2F06                     move.l     -[A7], D6
0000155C  2F2E FFD4                move.l     -[A7], [A6 - 0x2C]
00001560  4EAD 19B2                jsr        [A5 + 0x19B2 /* export_818, CODE:16 @ 000010BE */]
00001564  302C 0004                move.w     D0, [A4 + 0x4]
00001568  5240                     addq.w     D0, 1
0000156A  3940 0004                move.w     [A4 + 0x4], D0
0000156E  206E FFFC                movea.l    A0, [A6 - 0x4]
00001572  2050                     movea.l    A0, [A0]
00001574  2028 0014                move.l     D0, [A0 + 0x14]
00001578  5280                     addq.l     D0, 1
0000157A  206E FFFC                movea.l    A0, [A6 - 0x4]
0000157E  2050                     movea.l    A0, [A0]
00001580  2140 0014                move.l     [A0 + 0x14], D0
00001584  1D7C 0001 0014           move.b     [A6 + 0x14], 0x1
0000158A  102E FFBE                move.b     D0, [A6 - 0x42]
0000158E  671C                     beq        +0x1E /* 000015AC */
00001590  2053                     movea.l    A0, [A3]
00001592  2F08                     move.l     -[A7], A0
00001594  42A7                     clr.l      -[A7]
00001596  2F0B                     move.l     -[A7], A3
00001598  3F2E FFD6                move.w     -[A7], [A6 - 0x2A]
0000159C  3F2C 0004                move.w     -[A7], [A4 + 0x4]
000015A0  4EAD 19AA                jsr        [A5 + 0x19AA /* export_817, CODE:16 @ 0000109E */]
000015A4  201F                     move.l     D0, [A7]+
000015A6  205F                     movea.l    A0, [A7]+
000015A8  2140 0010                move.l     [A0 + 0x10], D0
label000015AC:
000015AC  2F2E FFF4                move.l     -[A7], [A6 - 0xC]
000015B0  1F3C 0001                move.b     -[A7], 0x1
000015B4  4EAD 1F0A                jsr        [A5 + 0x1F0A /* export_989, CODE:19 @ 00000586 */]
000015B8  6000 01C8                bra        +0x1CA /* 00001782 */
label000015BC:
000015BC  42A7                     clr.l      -[A7]
000015BE  2F0E                     move.l     -[A7], A6
000015C0  4EBA FD3A                jsr        [PC - 0x2C6 /* 000012FC */]
000015C4  2A1F                     move.l     D5, [A7]+
000015C6  42A7                     clr.l      -[A7]
000015C8  2F05                     move.l     -[A7], D5
000015CA  4EAD 1F92                jsr        [A5 + 0x1F92 /* export_1006, CODE:19 @ 00001B32 */]
000015CE  281F                     move.l     D4, [A7]+
000015D0  6700 01A6                beq        +0x1A8 /* 00001778 */
000015D4  2C0C                     move.l     D6, A4
000015D6  2E06                     move.l     D7, D6
000015D8  5C87                     addq.l     D7, 6
000015DA  206E FFFC                movea.l    A0, [A6 - 0x4]
000015DE  226E FFFC                movea.l    A1, [A6 - 0x4]
000015E2  2251                     movea.l    A1, [A1]
000015E4  2011                     move.l     D0, [A1]
000015E6  D090                     add.l      D0, [A0]
000015E8  2D40 FFCE                move.l     [A6 - 0x32], D0
000015EC  2F06                     move.l     -[A7], D6
000015EE  2F07                     move.l     -[A7], D7
000015F0  202E FFCE                move.l     D0, [A6 - 0x32]
000015F4  9087                     sub.l      D0, D7
000015F6  2F00                     move.l     -[A7], D0
000015F8  4EAD 024A                jsr        [A5 + 0x24A /* export_69, CODE:1 @ 000046A6 */]
000015FC  206E FFFC                movea.l    A0, [A6 - 0x4]
00001600  2050                     movea.l    A0, [A0]
00001602  2028 000C                move.l     D0, [A0 + 0xC]
00001606  5280                     addq.l     D0, 1
00001608  206E FFFC                movea.l    A0, [A6 - 0x4]
0000160C  2050                     movea.l    A0, [A0]
0000160E  2140 000C                move.l     [A0 + 0xC], D0
00001612  2D47 FFE4                move.l     [A6 - 0x1C], D7
00001616  206E FFE4                movea.l    A0, [A6 - 0x1C]
0000161A  2085                     move.l     [A0], D5
0000161C  206E FFE4                movea.l    A0, [A6 - 0x1C]
00001620  4268 0004                clr.w      [A0 + 0x4]
00001624  302C 0004                move.w     D0, [A4 + 0x4]
00001628  48C0                     ext.l      D0
0000162A  B0AE FFD8                cmp.l      D0, [A6 - 0x28]
0000162E  666E                     bne        +0x70 /* 0000169E */
00001630  2044                     movea.l    A0, D4
00001632  2E10                     move.l     D7, [A0]
00001634  7018                     moveq.l    D0, 0x18
00001636  DE80                     add.l      D7, D0
00001638  2F2E 0008                move.l     -[A7], [A6 + 0x8]
0000163C  2F07                     move.l     -[A7], D7
0000163E  2F2E FFD4                move.l     -[A7], [A6 - 0x2C]
00001642  4EAD 19B2                jsr        [A5 + 0x19B2 /* export_818, CODE:16 @ 000010BE */]
00001646  206E FFE4                movea.l    A0, [A6 - 0x1C]
0000164A  317C 0001 0004           move.w     [A0 + 0x4], 0x1
00001650  206E FFFC                movea.l    A0, [A6 - 0x4]
00001654  2050                     movea.l    A0, [A0]
00001656  2028 0014                move.l     D0, [A0 + 0x14]
0000165A  5280                     addq.l     D0, 1
0000165C  206E FFFC                movea.l    A0, [A6 - 0x4]
00001660  2050                     movea.l    A0, [A0]
00001662  2140 0014                move.l     [A0 + 0x14], D0
00001666  102E FFBE                move.b     D0, [A6 - 0x42]
0000166A  671E                     beq        +0x20 /* 0000168A */
0000166C  2044                     movea.l    A0, D4
0000166E  2050                     movea.l    A0, [A0]
00001670  2F08                     move.l     -[A7], A0
00001672  42A7                     clr.l      -[A7]
00001674  2F04                     move.l     -[A7], D4
00001676  3F2E FFD6                move.w     -[A7], [A6 - 0x2A]
0000167A  3F3C 0001                move.w     -[A7], 0x1
0000167E  4EAD 19AA                jsr        [A5 + 0x19AA /* export_817, CODE:16 @ 0000109E */]
00001682  201F                     move.l     D0, [A7]+
00001684  205F                     movea.l    A0, [A7]+
00001686  2140 0010                move.l     [A0 + 0x10], D0
label0000168A:
0000168A  2F05                     move.l     -[A7], D5
0000168C  1F3C 0001                move.b     -[A7], 0x1
00001690  4EAD 1F0A                jsr        [A5 + 0x1F0A /* export_989, CODE:19 @ 00000586 */]
00001694  1D7C 0001 0014           move.b     [A6 + 0x14], 0x1
0000169A  6000 00DC                bra        +0xDE /* 00001778 */
label0000169E:
0000169E  302C 0004                move.w     D0, [A4 + 0x4]
000016A2  48C0                     ext.l      D0
000016A4  81FC 0002                divs.w     D0, 0x2
000016A8  3D40 FFC2                move.w     [A6 - 0x3E], D0
000016AC  302C 0004                move.w     D0, [A4 + 0x4]
000016B0  906E FFC2                sub.w      D0, [A6 - 0x3E]
000016B4  3D40 FFC4                move.w     [A6 - 0x3C], D0
000016B8  396E FFC4 0004           move.w     [A4 + 0x4], [A6 - 0x3C]
000016BE  206E FFE4                movea.l    A0, [A6 - 0x1C]
000016C2  316E FFC2 0004           move.w     [A0 + 0x4], [A6 - 0x3E]
000016C8  2013                     move.l     D0, [A3]
000016CA  7218                     moveq.l    D1, 0x18
000016CC  D081                     add.l      D0, D1
000016CE  322E FFC4                move.w     D1, [A6 - 0x3C]
000016D2  48C1                     ext.l      D1
000016D4  2F01                     move.l     -[A7], D1
000016D6  2F2E FFD4                move.l     -[A7], [A6 - 0x2C]
000016DA  4EAD 04EA                jsr        [A5 + 0x4EA /* export_153, CODE:1 @ 000051F0 */]
000016DE  2C1F                     move.l     D6, [A7]+
000016E0  DC80                     add.l      D6, D0
000016E2  2044                     movea.l    A0, D4
000016E4  2E10                     move.l     D7, [A0]
000016E6  7018                     moveq.l    D0, 0x18
000016E8  DE80                     add.l      D7, D0
000016EA  302E FFC2                move.w     D0, [A6 - 0x3E]
000016EE  48C0                     ext.l      D0
000016F0  2F00                     move.l     -[A7], D0
000016F2  2F2E FFD4                move.l     -[A7], [A6 - 0x2C]
000016F6  4EAD 04EA                jsr        [A5 + 0x4EA /* export_153, CODE:1 @ 000051F0 */]
000016FA  201F                     move.l     D0, [A7]+
000016FC  3D40 FFC0                move.w     [A6 - 0x40], D0
00001700  2F06                     move.l     -[A7], D6
00001702  2F07                     move.l     -[A7], D7
00001704  302E FFC0                move.w     D0, [A6 - 0x40]
00001708  48C0                     ext.l      D0
0000170A  2F00                     move.l     -[A7], D0
0000170C  4EAD 024A                jsr        [A5 + 0x24A /* export_69, CODE:1 @ 000046A6 */]
00001710  2F06                     move.l     -[A7], D6
00001712  302E FFC0                move.w     D0, [A6 - 0x40]
00001716  48C0                     ext.l      D0
00001718  2F00                     move.l     -[A7], D0
0000171A  4EAD 1B42                jsr        [A5 + 0x1B42 /* export_868, CODE:16 @ 00001E7C */]
0000171E  102E FFBE                move.b     D0, [A6 - 0x42]
00001722  673A                     beq        +0x3C /* 0000175E */
00001724  2053                     movea.l    A0, [A3]
00001726  2F08                     move.l     -[A7], A0
00001728  42A7                     clr.l      -[A7]
0000172A  2F0B                     move.l     -[A7], A3
0000172C  3F2E FFD6                move.w     -[A7], [A6 - 0x2A]
00001730  3F2E FFC4                move.w     -[A7], [A6 - 0x3C]
00001734  4EAD 19AA                jsr        [A5 + 0x19AA /* export_817, CODE:16 @ 0000109E */]
00001738  201F                     move.l     D0, [A7]+
0000173A  205F                     movea.l    A0, [A7]+
0000173C  2140 0010                move.l     [A0 + 0x10], D0
00001740  2044                     movea.l    A0, D4
00001742  2050                     movea.l    A0, [A0]
00001744  2F08                     move.l     -[A7], A0
00001746  42A7                     clr.l      -[A7]
00001748  2F04                     move.l     -[A7], D4
0000174A  3F2E FFD6                move.w     -[A7], [A6 - 0x2A]
0000174E  3F2E FFC2                move.w     -[A7], [A6 - 0x3E]
00001752  4EAD 19AA                jsr        [A5 + 0x19AA /* export_817, CODE:16 @ 0000109E */]
00001756  201F                     move.l     D0, [A7]+
00001758  205F                     movea.l    A0, [A7]+
0000175A  2140 0010                move.l     [A0 + 0x10], D0
label0000175E:
0000175E  2F05                     move.l     -[A7], D5
00001760  1F3C 0001                move.b     -[A7], 0x1
00001764  4EAD 1F0A                jsr        [A5 + 0x1F0A /* export_989, CODE:19 @ 00000586 */]
00001768  2F2E FFF4                move.l     -[A7], [A6 - 0xC]
0000176C  1F3C 0001                move.b     -[A7], 0x1
00001770  4EAD 1F0A                jsr        [A5 + 0x1F0A /* export_989, CODE:19 @ 00000586 */]
00001774  6000 FD34                bra        -0x2CA /* 000014AA */
label00001778:
00001778  2F2E FFF4                move.l     -[A7], [A6 - 0xC]
0000177C  4267                     clr.w      -[A7]
0000177E  4EAD 1F0A                jsr        [A5 + 0x1F0A /* export_989, CODE:19 @ 00000586 */]
label00001782:
00001782  2F2E FFFC                move.l     -[A7], [A6 - 0x4]
00001786  1F2E FFBF                move.b     -[A7], [A6 - 0x41]
0000178A  4EAD 03F2                jsr        [A5 + 0x3F2 /* export_122, CODE:1 @ 00004D00 */]
0000178E  206E FFFC                movea.l    A0, [A6 - 0x4]
00001792  2050                     movea.l    A0, [A0]
00001794  226E FFFC                movea.l    A1, [A6 - 0x4]
00001798  2251                     movea.l    A1, [A1]
0000179A  2368 0014 0024           move.l     [A1 + 0x24], [A0 + 0x14]
000017A0  206E FFFC                movea.l    A0, [A6 - 0x4]
000017A4  2050                     movea.l    A0, [A0]
000017A6  2F08                     move.l     -[A7], A0
000017A8  42A7                     clr.l      -[A7]
000017AA  2F2E FFFC                move.l     -[A7], [A6 - 0x4]
000017AE  4EAD 19A2                jsr        [A5 + 0x19A2 /* export_816, CODE:16 @ 00001074 */]
000017B2  201F                     move.l     D0, [A7]+
000017B4  205F                     movea.l    A0, [A7]+
000017B6  2140 0020                move.l     [A0 + 0x20], D0
000017BA  2F2E 0010                move.l     -[A7], [A6 + 0x10]
000017BE  1F3C 0001                move.b     -[A7], 0x1
000017C2  4EAD 1EFA                jsr        [A5 + 0x1EFA /* export_987, CODE:19 @ 0000046E */]
label000017C6:
000017C6  4CDF 18F0                movem.l    D4,D5,D6,D7,A3,A4, [A7]+
000017CA  4E5E                     unlink     A6
000017CC  205F                     movea.l    A0, [A7]+
000017CE  DEFC 000C                add.w      A7, 0xC
000017D2  4ED0                     jmp        [A0]
000017D4  4C49 5354                divu.l     D4:D5, A1
fn000017D8:
000017D8  4E56 FFEC                link       A6, -0x0014
000017DC  48E7 0F08                movem.l    -[A7], D4,D5,D6,D7,A4
000017E0  282E 0010                move.l     D4, [A6 + 0x10]
000017E4  422E 0014                clr.b      [A6 + 0x14]
000017E8  4AAE 000C                tst.l      [A6 + 0xC]
000017EC  6C04                     bge        +0x6 /* 000017F2 */
000017EE  6000 009A                bra        +0x9C /* 0000188A */
label000017F2:
000017F2  42A7                     clr.l      -[A7]
000017F4  2F04                     move.l     -[A7], D4
000017F6  4EAD 1F9A                jsr        [A5 + 0x1F9A /* export_1007, CODE:19 @ 00001B6A */]
000017FA  285F                     movea.l    A4, [A7]+
000017FC  200C                     move.l     D0, A4
000017FE  6604                     bne        +0x6 /* 00001804 */
00001800  6000 0088                bra        +0x8A /* 0000188A */
label00001804:
00001804  2054                     movea.l    A0, [A4]
00001806  2A10                     move.l     D5, [A0]
00001808  2054                     movea.l    A0, [A4]
0000180A  2D68 0004 FFF0           move.l     [A6 - 0x10], [A0 + 0x4]
00001810  41EE FFF0                lea.l      A0, [A6 - 0x10]
00001814  43FA 0086                lea.l      A1, [PC + 0x86 /* 0000189C, value 0x43415244 'CARD' */]
00001818  7003                     moveq.l    D0, 0x03
label0000181A:
0000181A  B109                     cmpm.b     [A0]+, [A1]+
0000181C  56C8 FFFC                dbne       D0, -0x6 /* 0000181A */
00001820  6614                     bne        +0x16 /* 00001836 */
00001822  206E 0008                movea.l    A0, [A6 + 0x8]
00001826  7032                     moveq.l    D0, 0x32
00001828  2080                     move.l     [A0], D0
0000182A  42A7                     clr.l      -[A7]
0000182C  2F0C                     move.l     -[A7], A4
0000182E  4EBA 1E90                jsr        [PC + 0x1E90 /* 000036C0 */]
00001832  2E1F                     move.l     D7, [A7]+
00001834  6028                     bra        +0x2A /* 0000185E */
label00001836:
00001836  41EE FFF0                lea.l      A0, [A6 - 0x10]
0000183A  43FA 005C                lea.l      A1, [PC + 0x5C /* 00001898, value 0x424B4744 'BKGD' */]
0000183E  7003                     moveq.l    D0, 0x03
label00001840:
00001840  B109                     cmpm.b     [A0]+, [A1]+
00001842  56C8 FFFC                dbne       D0, -0x6 /* 00001840 */
00001846  6614                     bne        +0x16 /* 0000185C */
00001848  206E 0008                movea.l    A0, [A6 + 0x8]
0000184C  702E                     moveq.l    D0, 0x2E
0000184E  2080                     move.l     [A0], D0
00001850  42A7                     clr.l      -[A7]
00001852  2F0C                     move.l     -[A7], A4
00001854  4EBA 1DFA                jsr        [PC + 0x1DFA /* 00003650 */]
00001858  2E1F                     move.l     D7, [A7]+
0000185A  6002                     bra        +0x4 /* 0000185E */
label0000185C:
0000185C  6024                     bra        +0x26 /* 00001882 */
label0000185E:
0000185E  2C2E 000C                move.l     D6, [A6 + 0xC]
00001862  DC87                     add.l      D6, D7
00001864  BA86                     cmp.l      D5, D6
00001866  6C14                     bge        +0x16 /* 0000187C */
00001868  4267                     clr.w      -[A7]
0000186A  2F04                     move.l     -[A7], D4
0000186C  2F2E FFF0                move.l     -[A7], [A6 - 0x10]
00001870  2F06                     move.l     -[A7], D6
00001872  4EAD 1FCA                jsr        [A5 + 0x1FCA /* export_1013, CODE:19 @ 00001F1E */]
00001876  101F                     move.b     D0, [A7]+
00001878  6602                     bne        +0x4 /* 0000187C */
0000187A  6006                     bra        +0x8 /* 00001882 */
label0000187C:
0000187C  1D7C 0001 0014           move.b     [A6 + 0x14], 0x1
label00001882:
00001882  2F04                     move.l     -[A7], D4
00001884  4267                     clr.w      -[A7]
00001886  4EAD 1F1A                jsr        [A5 + 0x1F1A /* export_991, CODE:19 @ 000006D4 */]
label0000188A:
0000188A  4CDF 10F0                movem.l    D4,D5,D6,D7,A4, [A7]+
0000188E  4E5E                     unlink     A6
00001890  205F                     movea.l    A0, [A7]+
00001892  DEFC 000C                add.w      A7, 0xC
00001896  4ED0                     jmp        [A0]
00001898  424B 4744 4341 5244      dc.b       "BKGDCARD"
fn000018A0:
000018A0  4E56 FFF8                link       A6, -0x0008
000018A4  48E7 0118                movem.l    -[A7], D7,A3,A4
000018A8  286E 0008                movea.l    A4, [A6 + 0x8]
000018AC  422E 000C                clr.b      [A6 + 0xC]
000018B0  102D F2B3                move.b     D0, [A5 - 0xD4D]
000018B4  6746                     beq        +0x48 /* 000018FC */
000018B6  4267                     clr.w      -[A7]
000018B8  2F2C FFD0                move.l     -[A7], [A4 - 0x30]
000018BC  202C FFF4                move.l     D0, [A4 - 0xC]
000018C0  90AC FFD0                sub.l      D0, [A4 - 0x30]
000018C4  3F00                     move.w     -[A7], D0
000018C6  2F3C 8206 0010           move.l     -[A7], 0x82060010
000018CC  A8B5                     syscall    ScriptUtil
000018CE  4A5F                     tst.w      [A7]+
000018D0  6F04                     ble        +0x6 /* 000018D6 */
000018D2  6000 00B2                bra        +0xB4 /* 00001986 */
label000018D6:
000018D6  42A7                     clr.l      -[A7]
000018D8  2F2C FFF8                move.l     -[A7], [A4 - 0x8]
000018DC  4EAD 1ADA                jsr        [A5 + 0x1ADA /* export_855, CODE:16 @ 00001C66 */]
000018E0  2E1F                     move.l     D7, [A7]+
000018E2  4267                     clr.w      -[A7]
000018E4  2F2C FFF8                move.l     -[A7], [A4 - 0x8]
000018E8  2F2C FFF4                move.l     -[A7], [A4 - 0xC]
000018EC  3F07                     move.w     -[A7], D7
000018EE  3F07                     move.w     -[A7], D7
000018F0  4EAD 0442                jsr        [A5 + 0x442 /* export_132, CODE:1 @ 00004D5A */]
000018F4  4A5F                     tst.w      [A7]+
000018F6  6704                     beq        +0x6 /* 000018FC */
000018F8  6000 008C                bra        +0x8E /* 00001986 */
label000018FC:
000018FC  102D F03D                move.b     D0, [A5 - 0xFC3]
00001900  6742                     beq        +0x44 /* 00001944 */
00001902  202C FFF4                move.l     D0, [A4 - 0xC]
00001906  B0AC FFD0                cmp.l      D0, [A4 - 0x30]
0000190A  57C0                     seq        D0
0000190C  4A00                     tst.b      D0
0000190E  6634                     bne        +0x36 /* 00001944 */
00001910  2F00                     move.l     -[A7], D0
00001912  4267                     clr.w      -[A7]
00001914  2F2C FFF4                move.l     -[A7], [A4 - 0xC]
00001918  3F3C FFFF                move.w     -[A7], 0xFFFF
0000191C  4EAD 19E2                jsr        [A5 + 0x19E2 /* export_824, CODE:16 @ 00001232 */]
00001920  121F                     move.b     D1, [A7]+
00001922  201F                     move.l     D0, [A7]+
00001924  8001                     or.b       D0, D1
00001926  0240 0001                andi.w     D0, 0x1
0000192A  6618                     bne        +0x1A /* 00001944 */
0000192C  2F00                     move.l     -[A7], D0
0000192E  4267                     clr.w      -[A7]
00001930  2F2C FFF4                move.l     -[A7], [A4 - 0xC]
00001934  4267                     clr.w      -[A7]
00001936  4EAD 19E2                jsr        [A5 + 0x19E2 /* export_824, CODE:16 @ 00001232 */]
0000193A  121F                     move.b     D1, [A7]+
0000193C  201F                     move.l     D0, [A7]+
0000193E  8001                     or.b       D0, D1
00001940  6602                     bne        +0x4 /* 00001944 */
00001942  6042                     bra        +0x44 /* 00001986 */
label00001944:
00001944  102D F03C                move.b     D0, [A5 - 0xFC4]
00001948  6736                     beq        +0x38 /* 00001980 */
0000194A  42A7                     clr.l      -[A7]
0000194C  2F2C FFF8                move.l     -[A7], [A4 - 0x8]
00001950  4EAD 1ADA                jsr        [A5 + 0x1ADA /* export_855, CODE:16 @ 00001C66 */]
00001954  265F                     movea.l    A3, [A7]+
00001956  D7EC FFF4                add.l      A3, [A4 - 0xC]
0000195A  4267                     clr.w      -[A7]
0000195C  2F0B                     move.l     -[A7], A3
0000195E  4267                     clr.w      -[A7]
00001960  4EAD 19E2                jsr        [A5 + 0x19E2 /* export_824, CODE:16 @ 00001232 */]
00001964  101F                     move.b     D0, [A7]+
00001966  6618                     bne        +0x1A /* 00001980 */
00001968  2F00                     move.l     -[A7], D0
0000196A  4267                     clr.w      -[A7]
0000196C  2F0B                     move.l     -[A7], A3
0000196E  3F3C FFFF                move.w     -[A7], 0xFFFF
00001972  4EAD 19E2                jsr        [A5 + 0x19E2 /* export_824, CODE:16 @ 00001232 */]
00001976  121F                     move.b     D1, [A7]+
00001978  201F                     move.l     D0, [A7]+
0000197A  8001                     or.b       D0, D1
0000197C  6602                     bne        +0x4 /* 00001980 */
0000197E  6006                     bra        +0x8 /* 00001986 */
label00001980:
00001980  1D7C 0001 000C           move.b     [A6 + 0xC], 0x1
label00001986:
00001986  4CDF 1880                movem.l    D7,A3,A4, [A7]+
0000198A  4E5E                     unlink     A6
0000198C  2E9F                     move.l     [A7], [A7]+
0000198E  4E75                     rts
fn00001990:
00001990  4E56 0000                link       A6, 0
00001994  2F0C                     move.l     -[A7], A4
00001996  286E 0008                movea.l    A4, [A6 + 0x8]
0000199A  396C FFFC FFE0           move.w     [A4 - 0x20], [A4 - 0x4]
000019A0  296E 000C FFDC           move.l     [A4 - 0x24], [A6 + 0xC]
000019A6  202C FFF4                move.l     D0, [A4 - 0xC]
000019AA  90AC FFD0                sub.l      D0, [A4 - 0x30]
000019AE  2940 FFD8                move.l     [A4 - 0x28], D0
000019B2  42A7                     clr.l      -[A7]
000019B4  2F2C FFF8                move.l     -[A7], [A4 - 0x8]
000019B8  4EAD 1ADA                jsr        [A5 + 0x1ADA /* export_855, CODE:16 @ 00001C66 */]
000019BC  295F FFE2                move.l     [A4 - 0x1E], [A7]+
000019C0  7001                     moveq.l    D0, 0x01
000019C2  B06D F03E                cmp.w      D0, [A5 - 0xFC2]
000019C6  56C0                     sne        D0
000019C8  7203                     moveq.l    D1, 0x03
000019CA  B26D F03E                cmp.w      D1, [A5 - 0xFC2]
000019CE  56C1                     sne        D1
000019D0  C001                     and.b      D0, D1
000019D2  6718                     beq        +0x1A /* 000019EC */
label000019D4:
000019D4  4267                     clr.w      -[A7]
000019D6  2F2C FFF4                move.l     -[A7], [A4 - 0xC]
000019DA  3F2C FFE4                move.w     -[A7], [A4 - 0x1C]
000019DE  4EAD 19E2                jsr        [A5 + 0x19E2 /* export_824, CODE:16 @ 00001232 */]
000019E2  101F                     move.b     D0, [A7]+
000019E4  6606                     bne        +0x8 /* 000019EC */
000019E6  52AC FFE2                addq.l     [A4 - 0x1E], 1
000019EA  60E8                     bra        -0x16 /* 000019D4 */
label000019EC:
000019EC  202C FFE2                move.l     D0, [A4 - 0x1E]
000019F0  D0AC FFD8                add.l      D0, [A4 - 0x28]
000019F4  2940 FFD4                move.l     [A4 - 0x2C], D0
000019F8  285F                     movea.l    A4, [A7]+
000019FA  4E5E                     unlink     A6
000019FC  205F                     movea.l    A0, [A7]+
000019FE  504F                     addq.w     A7, 8
00001A00  4ED0                     jmp        [A0]
fn00001A02:
00001A02  4E56 FFBE                link       A6, -0x0042
00001A06  48E7 0F08                movem.l    -[A7], D4,D5,D6,D7,A4
00001A0A  4EAD 181A                jsr        [A5 + 0x181A /* export_767, CODE:16 @ 00000216 */]
00001A0E  52AD F2B4                addq.l     [A5 - 0xD4C], 1
00001A12  4267                     clr.w      -[A7]
00001A14  4EAD 17FA                jsr        [A5 + 0x17FA /* export_763, CODE:16 @ 0000009E */]
00001A18  101F                     move.b     D0, [A7]+
00001A1A  6720                     beq        +0x22 /* 00001A3C */
00001A1C  426D F04C                clr.w      [A5 - 0xFB4]
00001A20  7000                     moveq.l    D0, 0x00
00001A22  2B40 F048                move.l     [A5 - 0xFB8], D0
00001A26  7000                     moveq.l    D0, 0x00
00001A28  2B40 F044                move.l     [A5 - 0xFBC], D0
00001A2C  7000                     moveq.l    D0, 0x00
00001A2E  2B40 F040                move.l     [A5 - 0xFC0], D0
00001A32  1D7C 0001 000C           move.b     [A6 + 0xC], 0x1
00001A38  6000 0288                bra        +0x28A /* 00001CC2 */
label00001A3C:
00001A3C  422E 000C                clr.b      [A6 + 0xC]
00001A40  206E 0008                movea.l    A0, [A6 + 0x8]
00001A44  2C10                     move.l     D6, [A0]
00001A46  42A7                     clr.l      -[A7]
00001A48  2F06                     move.l     -[A7], D6
00001A4A  4EAD 1F7A                jsr        [A5 + 0x1F7A /* export_1003, CODE:19 @ 00001744 */]
00001A4E  285F                     movea.l    A4, [A7]+
00001A50  200C                     move.l     D0, A4
00001A52  6604                     bne        +0x6 /* 00001A58 */
00001A54  6000 026C                bra        +0x26E /* 00001CC2 */
label00001A58:
00001A58  3E2D F2AA                move.w     D7, [A5 - 0xD56]
00001A5C  6040                     bra        +0x42 /* 00001A9E */
label00001A5E:
00001A5E  3007                     move.w     D0, D7
00001A60  5340                     subq.w     D0, 1
00001A62  41ED F25A                lea.l      A0, [A5 - 0xDA6]
00001A66  E540                     asl        D0.w, 2
00001A68  2D70 0000 FFF8           move.l     [A6 - 0x8], [A0 + D0.w]
00001A6E  2014                     move.l     D0, [A4]
00001A70  7232                     moveq.l    D1, 0x32
00001A72  D081                     add.l      D0, D1
00001A74  2054                     movea.l    A0, [A4]
00001A76  2228 0028                move.l     D1, [A0 + 0x28]
00001A7A  D280                     add.l      D1, D0
00001A7C  2D41 FFF4                move.l     [A6 - 0xC], D1
00001A80  4267                     clr.w      -[A7]
00001A82  2F2E FFF8                move.l     -[A7], [A6 - 0x8]
00001A86  2F2E FFF4                move.l     -[A7], [A6 - 0xC]
00001A8A  2054                     movea.l    A0, [A4]
00001A8C  3F28 002C                move.w     -[A7], [A0 + 0x2C]
00001A90  4EAD 1B1A                jsr        [A5 + 0x1B1A /* export_863, CODE:16 @ 00001D9A */]
00001A94  101F                     move.b     D0, [A7]+
00001A96  6604                     bne        +0x6 /* 00001A9C */
00001A98  6000 0220                bra        +0x222 /* 00001CBA */
label00001A9C:
00001A9C  5347                     subq.w     D7, 1
label00001A9E:
00001A9E  7001                     moveq.l    D0, 0x01
00001AA0  B047                     cmp.w      D0, D7
00001AA2  6FBA                     ble        -0x44 /* 00001A5E */
00001AA4  2054                     movea.l    A0, [A4]
00001AA6  2D68 0020 FFCC           move.l     [A6 - 0x34], [A0 + 0x20]
00001AAC  4267                     clr.w      -[A7]
00001AAE  2F2E FFCC                move.l     -[A7], [A6 - 0x34]
00001AB2  3F3C 0002                move.w     -[A7], 0x2
00001AB6  4EBA E676                jsr        [PC - 0x198A /* 0000012E */]
00001ABA  3D5F FFF2                move.w     [A6 - 0xE], [A7]+
00001ABE  4267                     clr.w      -[A7]
00001AC0  2F06                     move.l     -[A7], D6
00001AC2  3F3C 0002                move.w     -[A7], 0x2
00001AC6  4EBA E666                jsr        [PC - 0x199A /* 0000012E */]
00001ACA  3D5F FFF0                move.w     [A6 - 0x10], [A7]+
00001ACE  BCAD F038                cmp.l      D6, [A5 - 0xFC8]
00001AD2  6716                     beq        +0x18 /* 00001AEA */
00001AD4  4A6D F04C                tst.w      [A5 - 0xFB4]
00001AD8  6F04                     ble        +0x6 /* 00001ADE */
00001ADA  426D F04C                clr.w      [A5 - 0xFB4]
label00001ADE:
00001ADE  7000                     moveq.l    D0, 0x00
00001AE0  2B40 F048                move.l     [A5 - 0xFB8], D0
00001AE4  7000                     moveq.l    D0, 0x00
00001AE6  2B40 F044                move.l     [A5 - 0xFBC], D0
label00001AEA:
00001AEA  7A01                     moveq.l    D5, 0x01
00001AEC  3D6E FFF2 FFEC           move.w     [A6 - 0x14], [A6 - 0xE]
00001AF2  7801                     moveq.l    D4, 0x01
00001AF4  3D6E FFF0 FFE8           move.w     [A6 - 0x18], [A6 - 0x10]
00001AFA  4A6D F04C                tst.w      [A5 - 0xFB4]
00001AFE  6C22                     bge        +0x24 /* 00001B22 */
00001B00  302D F04C                move.w     D0, [A5 - 0xFB4]
00001B04  4440                     neg.w      D0
00001B06  3A00                     move.w     D5, D0
00001B08  BA6E FFF2                cmp.w      D5, [A6 - 0xE]
00001B0C  6E00 01AC                bgt        +0x1AE /* 00001CBA */
00001B10  302D F04C                move.w     D0, [A5 - 0xFB4]
00001B14  4440                     neg.w      D0
00001B16  3D40 FFEC                move.w     [A6 - 0x14], D0
00001B1A  4244                     clr.w      D4
00001B1C  3D7C FFFF FFE8           move.w     [A6 - 0x18], 0xFFFF
label00001B22:
00001B22  4A6D F04C                tst.w      [A5 - 0xFB4]
00001B26  6F18                     ble        +0x1A /* 00001B40 */
00001B28  BCAD F048                cmp.l      D6, [A5 - 0xFB8]
00001B2C  660E                     bne        +0x10 /* 00001B3C */
00001B2E  4245                     clr.w      D5
00001B30  3D7C FFFF FFEC           move.w     [A6 - 0x14], 0xFFFF
00001B36  382D F04C                move.w     D4, [A5 - 0xFB4]
00001B3A  6004                     bra        +0x6 /* 00001B40 */
label00001B3C:
00001B3C  3A2D F04C                move.w     D5, [A5 - 0xFB4]
label00001B40:
00001B40  3D6D F2AA FFC2           move.w     [A6 - 0x3E], [A5 - 0xD56]
00001B46  7E01                     moveq.l    D7, 0x01
00001B48  6000 014A                bra        +0x14C /* 00001C94 */
label00001B4C:
00001B4C  3007                     move.w     D0, D7
00001B4E  5340                     subq.w     D0, 1
00001B50  41ED F25A                lea.l      A0, [A5 - 0xDA6]
00001B54  E540                     asl        D0.w, 2
00001B56  2D70 0000 FFF8           move.l     [A6 - 0x8], [A0 + D0.w]
00001B5C  3D6E FFEC FFC0           move.w     [A6 - 0x40], [A6 - 0x14]
00001B62  3D45 FFFC                move.w     [A6 - 0x4], D5
00001B66  607C                     bra        +0x7E /* 00001BE4 */
label00001B68:
00001B68  4267                     clr.w      -[A7]
00001B6A  2F2E FFCC                move.l     -[A7], [A6 - 0x34]
00001B6E  3F2E FFFC                move.w     -[A7], [A6 - 0x4]
00001B72  3F3C 0002                move.w     -[A7], 0x2
00001B76  4EBA F1EC                jsr        [PC - 0xE14 /* 00000D64 */]
00001B7A  3D5F FFE6                move.w     [A6 - 0x1A], [A7]+
00001B7E  42A7                     clr.l      -[A7]
00001B80  2F0C                     move.l     -[A7], A4
00001B82  3F2E FFE6                move.w     -[A7], [A6 - 0x1A]
00001B86  4EAD 1C32                jsr        [A5 + 0x1C32 /* export_898, CODE:17 @ 00000A32 */]
00001B8A  2D5F FFD0                move.l     [A6 - 0x30], [A7]+
00001B8E  674E                     beq        +0x50 /* 00001BDE */
00001B90  2D6E FFD0 FFF4           move.l     [A6 - 0xC], [A6 - 0x30]
00001B96  BA6E FFFC                cmp.w      D5, [A6 - 0x4]
00001B9A  6608                     bne        +0xA /* 00001BA4 */
00001B9C  202D F044                move.l     D0, [A5 - 0xFBC]
00001BA0  D1AE FFF4                add.l      [A6 - 0xC], D0
label00001BA4:
00001BA4  42A7                     clr.l      -[A7]
00001BA6  2F2E FFF8                move.l     -[A7], [A6 - 0x8]
00001BAA  2F2E FFF4                move.l     -[A7], [A6 - 0xC]
00001BAE  4EAD 1AEA                jsr        [A5 + 0x1AEA /* export_857, CODE:16 @ 00001C7C */]
00001BB2  2D5F FFF4                move.l     [A6 - 0xC], [A7]+
00001BB6  6726                     beq        +0x28 /* 00001BDE */
00001BB8  4267                     clr.w      -[A7]
00001BBA  2F0E                     move.l     -[A7], A6
00001BBC  4EBA FCE2                jsr        [PC - 0x31E /* 000018A0 */]
00001BC0  101F                     move.b     D0, [A7]+
00001BC2  6606                     bne        +0x8 /* 00001BCA */
00001BC4  52AE FFF4                addq.l     [A6 - 0xC], 1
00001BC8  60DA                     bra        -0x24 /* 00001BA4 */
label00001BCA:
00001BCA  7001                     moveq.l    D0, 0x01
00001BCC  B047                     cmp.w      D0, D7
00001BCE  660A                     bne        +0xC /* 00001BDA */
00001BD0  2F2E FFCC                move.l     -[A7], [A6 - 0x34]
00001BD4  2F0E                     move.l     -[A7], A6
00001BD6  4EBA FDB8                jsr        [PC - 0x248 /* 00001990 */]
label00001BDA:
00001BDA  6000 00B4                bra        +0xB6 /* 00001C90 */
label00001BDE:
00001BDE  526E FFFC                addq.w     [A6 - 0x4], 1
00001BE2  690C                     bvs        +0xE /* 00001BF0 */
label00001BE4:
00001BE4  302E FFFC                move.w     D0, [A6 - 0x4]
00001BE8  B06E FFC0                cmp.w      D0, [A6 - 0x40]
00001BEC  6F00 FF7A                ble        -0x84 /* 00001B68 */
label00001BF0:
00001BF0  3D6E FFE8 FFBE           move.w     [A6 - 0x42], [A6 - 0x18]
00001BF6  3D44 FFFC                move.w     [A6 - 0x4], D4
00001BFA  6000 0086                bra        +0x88 /* 00001C82 */
label00001BFE:
00001BFE  4267                     clr.w      -[A7]
00001C00  2F06                     move.l     -[A7], D6
00001C02  3F2E FFFC                move.w     -[A7], [A6 - 0x4]
00001C06  3F3C 0002                move.w     -[A7], 0x2
00001C0A  4EBA F158                jsr        [PC - 0xEA8 /* 00000D64 */]
00001C0E  3D5F FFE6                move.w     [A6 - 0x1A], [A7]+
00001C12  42A7                     clr.l      -[A7]
00001C14  2F0C                     move.l     -[A7], A4
00001C16  302E FFE6                move.w     D0, [A6 - 0x1A]
00001C1A  4440                     neg.w      D0
00001C1C  3F00                     move.w     -[A7], D0
00001C1E  4EAD 1C32                jsr        [A5 + 0x1C32 /* export_898, CODE:17 @ 00000A32 */]
00001C22  2D5F FFD0                move.l     [A6 - 0x30], [A7]+
00001C26  6754                     beq        +0x56 /* 00001C7C */
00001C28  2D6E FFD0 FFF4           move.l     [A6 - 0xC], [A6 - 0x30]
00001C2E  B86E FFFC                cmp.w      D4, [A6 - 0x4]
00001C32  57C0                     seq        D0
00001C34  BCAD F048                cmp.l      D6, [A5 - 0xFB8]
00001C38  57C1                     seq        D1
00001C3A  C001                     and.b      D0, D1
00001C3C  6708                     beq        +0xA /* 00001C46 */
00001C3E  202D F044                move.l     D0, [A5 - 0xFBC]
00001C42  D1AE FFF4                add.l      [A6 - 0xC], D0
label00001C46:
00001C46  42A7                     clr.l      -[A7]
00001C48  2F2E FFF8                move.l     -[A7], [A6 - 0x8]
00001C4C  2F2E FFF4                move.l     -[A7], [A6 - 0xC]
00001C50  4EAD 1AEA                jsr        [A5 + 0x1AEA /* export_857, CODE:16 @ 00001C7C */]
00001C54  2D5F FFF4                move.l     [A6 - 0xC], [A7]+
00001C58  6722                     beq        +0x24 /* 00001C7C */
00001C5A  4267                     clr.w      -[A7]
00001C5C  2F0E                     move.l     -[A7], A6
00001C5E  4EBA FC40                jsr        [PC - 0x3C0 /* 000018A0 */]
00001C62  101F                     move.b     D0, [A7]+
00001C64  6606                     bne        +0x8 /* 00001C6C */
00001C66  52AE FFF4                addq.l     [A6 - 0xC], 1
00001C6A  60DA                     bra        -0x24 /* 00001C46 */
label00001C6C:
00001C6C  7001                     moveq.l    D0, 0x01
00001C6E  B047                     cmp.w      D0, D7
00001C70  6608                     bne        +0xA /* 00001C7A */
00001C72  2F06                     move.l     -[A7], D6
00001C74  2F0E                     move.l     -[A7], A6
00001C76  4EBA FD18                jsr        [PC - 0x2E8 /* 00001990 */]
label00001C7A:
00001C7A  6014                     bra        +0x16 /* 00001C90 */
label00001C7C:
00001C7C  526E FFFC                addq.w     [A6 - 0x4], 1
00001C80  690C                     bvs        +0xE /* 00001C8E */
label00001C82:
00001C82  302E FFFC                move.w     D0, [A6 - 0x4]
00001C86  B06E FFBE                cmp.w      D0, [A6 - 0x42]
00001C8A  6F00 FF72                ble        -0x8C /* 00001BFE */
label00001C8E:
00001C8E  602A                     bra        +0x2C /* 00001CBA */
label00001C90:
00001C90  5247                     addq.w     D7, 1
00001C92  6908                     bvs        +0xA /* 00001C9C */
label00001C94:
00001C94  BE6E FFC2                cmp.w      D7, [A6 - 0x3E]
00001C98  6F00 FEB2                ble        -0x14C /* 00001B4C */
label00001C9C:
00001C9C  1D7C 0001 000C           move.b     [A6 + 0xC], 0x1
00001CA2  3B6E FFE0 F04C           move.w     [A5 - 0xFB4], [A6 - 0x20]
00001CA8  2B6E FFDC F048           move.l     [A5 - 0xFB8], [A6 - 0x24]
00001CAE  2B6E FFD8 F044           move.l     [A5 - 0xFBC], [A6 - 0x28]
00001CB4  2B6E FFD4 F040           move.l     [A5 - 0xFC0], [A6 - 0x2C]
label00001CBA:
00001CBA  2F06                     move.l     -[A7], D6
00001CBC  4267                     clr.w      -[A7]
00001CBE  4EAD 1EF2                jsr        [A5 + 0x1EF2 /* export_986, CODE:19 @ 00000450 */]
label00001CC2:
00001CC2  4CDF 10F0                movem.l    D4,D5,D6,D7,A4, [A7]+
00001CC6  4E5E                     unlink     A6
00001CC8  2E9F                     move.l     [A7], [A7]+
00001CCA  4E75                     rts
export_960:
fn00001CCC:
00001CCC  4E56 FF7C                link       A6, -0x0084
00001CD0  7000                     moveq.l    D0, 0x00
00001CD2  2D40 0010                move.l     [A6 + 0x10], D0
00001CD6  4AAE 0008                tst.l      [A6 + 0x8]
00001CDA  6E02                     bgt        +0x4 /* 00001CDE */
00001CDC  6042                     bra        +0x44 /* 00001D20 */
label00001CDE:
00001CDE  202E 0008                move.l     D0, [A6 + 0x8]
00001CE2  B0AD F626                cmp.l      D0, [A5 - 0x9DA]
00001CE6  57C0                     seq        D0
00001CE8  222E 000C                move.l     D1, [A6 + 0xC]
00001CEC  B2AD F670                cmp.l      D1, [A5 - 0x990]
00001CF0  57C1                     seq        D1
00001CF2  C001                     and.b      D0, D1
00001CF4  6708                     beq        +0xA /* 00001CFE */
00001CF6  2D6D F62A 0010           move.l     [A6 + 0x10], [A5 - 0x9D6]
00001CFC  6022                     bra        +0x24 /* 00001D20 */
label00001CFE:
00001CFE  4267                     clr.w      -[A7]
00001D00  2F2E 000C                move.l     -[A7], [A6 + 0xC]
00001D04  2F2E 0008                move.l     -[A7], [A6 + 0x8]
00001D08  486E FF7C                pea.l      [A6 - 0x84]
00001D0C  4EBA EE90                jsr        [PC - 0x1170 /* 00000B9E */]
00001D10  101F                     move.b     D0, [A7]+
00001D12  670C                     beq        +0xE /* 00001D20 */
00001D14  2D6E FF7C 0010           move.l     [A6 + 0x10], [A6 - 0x84]
00001D1A  2B6D F4C4 F2AE           move.l     [A5 - 0xD52], [A5 - 0xB3C]
label00001D20:
00001D20  4E5E                     unlink     A6
00001D22  205F                     movea.l    A0, [A7]+
00001D24  504F                     addq.w     A7, 8
00001D26  4ED0                     jmp        [A0]
fn00001D28:
00001D28  4E56 FEAE                link       A6, -0x0152
00001D2C  48E7 0F18                movem.l    -[A7], D4,D5,D6,D7,A3,A4
00001D30  206E 0010                movea.l    A0, [A6 + 0x10]
00001D34  43EE FFE2                lea.l      A1, [A6 - 0x1E]
00001D38  7006                     moveq.l    D0, 0x06
label00001D3A:
00001D3A  22D8                     move.l     [A1]+, [A0]+
00001D3C  51C8 FFFC                dbf        D0, -0x6 /* 00001D3A */
00001D40  3290                     move.w     [A1], [A0]
00001D42  206E 000C                movea.l    A0, [A6 + 0xC]
00001D46  43EE FEE2                lea.l      A1, [A6 - 0x11E]
00001D4A  703F                     moveq.l    D0, 0x3F
label00001D4C:
00001D4C  22D8                     move.l     [A1]+, [A0]+
00001D4E  51C8 FFFC                dbf        D0, -0x6 /* 00001D4C */
00001D52  422E 0018                clr.b      [A6 + 0x18]
00001D56  3D6E FFE4 FEB0           move.w     [A6 - 0x150], [A6 - 0x1C]
00001D5C  4240                     clr.w      D0
00001D5E  102E FEE2                move.b     D0, [A6 - 0x11E]
00001D62  3A00                     move.w     D5, D0
00001D64  5245                     addq.w     D5, 1
00001D66  41EE FEE2                lea.l      A0, [A6 - 0x11E]
00001D6A  4230 5000                clr.b      [A0 + D5.w]
00001D6E  42A7                     clr.l      -[A7]
00001D70  206E 0008                movea.l    A0, [A6 + 0x8]
00001D74  2F10                     move.l     -[A7], [A0]
00001D76  4EAD 1ADA                jsr        [A5 + 0x1ADA /* export_855, CODE:16 @ 00001C66 */]
00001D7A  201F                     move.l     D0, [A7]+
00001D7C  5280                     addq.l     D0, 1
00001D7E  2D40 FEB6                move.l     [A6 - 0x14A], D0
00001D82  7001                     moveq.l    D0, 0x01
00001D84  2D40 FEB2                move.l     [A6 - 0x14E], D0
00001D88  3005                     move.w     D0, D5
00001D8A  D07C 001E                add.w      D0, 0x1E
00001D8E  48C0                     ext.l      D0
00001D90  222E FEB6                move.l     D1, [A6 - 0x14A]
00001D94  D280                     add.l      D1, D0
00001D96  2E2E FEB2                move.l     D7, [A6 - 0x14E]
00001D9A  DE81                     add.l      D7, D1
00001D9C  1007                     move.b     D0, D7
00001D9E  0240 0001                andi.w     D0, 0x1
00001DA2  6702                     beq        +0x4 /* 00001DA6 */
00001DA4  5287                     addq.l     D7, 1
label00001DA6:
00001DA6  0C87 0000 7FFF           cmpi.l     D7, 0x7FFF
00001DAC  6F04                     ble        +0x6 /* 00001DB2 */
00001DAE  6000 0166                bra        +0x168 /* 00001F16 */
label00001DB2:
00001DB2  3D47 FFE2                move.w     [A6 - 0x1E], D7
00001DB6  4A6E FEB0                tst.w      [A6 - 0x150]
00001DBA  5EC0                     sgt        D0
00001DBC  4A00                     tst.b      D0
00001DBE  6700 0156                beq        +0x158 /* 00001F16 */
00001DC2  2F00                     move.l     -[A7], D0
00001DC4  4267                     clr.w      -[A7]
00001DC6  2F2E 0014                move.l     -[A7], [A6 + 0x14]
00001DCA  2F07                     move.l     -[A7], D7
00001DCC  486E FEDA                pea.l      [A6 - 0x126]
00001DD0  4EBA FA06                jsr        [PC - 0x5FA /* 000017D8 */]
00001DD4  121F                     move.b     D1, [A7]+
00001DD6  201F                     move.l     D0, [A7]+
00001DD8  C001                     and.b      D0, D1
00001DDA  6700 013A                beq        +0x13C /* 00001F16 */
00001DDE  42A7                     clr.l      -[A7]
00001DE0  2F2E 0014                move.l     -[A7], [A6 + 0x14]
00001DE4  4EAD 1F9A                jsr        [A5 + 0x1F9A /* export_1007, CODE:19 @ 00001B6A */]
00001DE8  265F                     movea.l    A3, [A7]+
00001DEA  286E FEDA                movea.l    A4, [A6 - 0x126]
00001DEE  D9D3                     add.l      A4, [A3]
00001DF0  280C                     move.l     D4, A4
00001DF2  700E                     moveq.l    D0, 0x0E
00001DF4  9880                     sub.l      D4, D0
00001DF6  2044                     movea.l    A0, D4
00001DF8  3D50 FEAE                move.w     [A6 - 0x152], [A0]
00001DFC  3D7C 0001 FED0           move.w     [A6 - 0x130], 0x1
00001E02  6000 00FA                bra        +0xFC /* 00001EFE */
label00001E06:
00001E06  3014                     move.w     D0, [A4]
00001E08  48C0                     ext.l      D0
00001E0A  2C00                     move.l     D6, D0
00001E0C  302C 0002                move.w     D0, [A4 + 0x2]
00001E10  B06E FEB0                cmp.w      D0, [A6 - 0x150]
00001E14  6600 00E0                bne        +0xE2 /* 00001EF6 */
00001E18  BC87                     cmp.l      D6, D7
00001E1A  6742                     beq        +0x44 /* 00001E5E */
00001E1C  200C                     move.l     D0, A4
00001E1E  D086                     add.l      D0, D6
00001E20  2D40 FEC4                move.l     [A6 - 0x13C], D0
00001E24  200C                     move.l     D0, A4
00001E26  D087                     add.l      D0, D7
00001E28  2D40 FEC0                move.l     [A6 - 0x140], D0
00001E2C  2053                     movea.l    A0, [A3]
00001E2E  2010                     move.l     D0, [A0]
00001E30  D093                     add.l      D0, [A3]
00001E32  2D40 FEBC                move.l     [A6 - 0x144], D0
00001E36  2F2E FEC4                move.l     -[A7], [A6 - 0x13C]
00001E3A  2F2E FEC0                move.l     -[A7], [A6 - 0x140]
00001E3E  202E FEBC                move.l     D0, [A6 - 0x144]
00001E42  90AE FEC4                sub.l      D0, [A6 - 0x13C]
00001E46  9087                     sub.l      D0, D7
00001E48  2F00                     move.l     -[A7], D0
00001E4A  4EAD 024A                jsr        [A5 + 0x24A /* export_69, CODE:1 @ 000046A6 */]
00001E4E  2044                     movea.l    A0, D4
00001E50  2007                     move.l     D0, D7
00001E52  D0A8 0004                add.l      D0, [A0 + 0x4]
00001E56  9086                     sub.l      D0, D6
00001E58  2044                     movea.l    A0, D4
00001E5A  2140 0004                move.l     [A0 + 0x4], D0
label00001E5E:
00001E5E  41EE FFE2                lea.l      A0, [A6 - 0x1E]
00001E62  224C                     movea.l    A1, A4
00001E64  7006                     moveq.l    D0, 0x06
label00001E66:
00001E66  22D8                     move.l     [A1]+, [A0]+
00001E68  51C8 FFFC                dbf        D0, -0x6 /* 00001E66 */
00001E6C  3290                     move.w     [A1], [A0]
00001E6E  41EE FEE2                lea.l      A0, [A6 - 0x11E]
00001E72  2008                     move.l     D0, A0
00001E74  5280                     addq.l     D0, 1
00001E76  2D40 FEC4                move.l     [A6 - 0x13C], D0
00001E7A  200C                     move.l     D0, A4
00001E7C  721E                     moveq.l    D1, 0x1E
00001E7E  D081                     add.l      D0, D1
00001E80  2D40 FEC0                move.l     [A6 - 0x140], D0
00001E84  486E FEC4                pea.l      [A6 - 0x13C]
00001E88  486E FEC0                pea.l      [A6 - 0x140]
00001E8C  4EAD 19CA                jsr        [A5 + 0x19CA /* export_821, CODE:16 @ 00001164 */]
00001E90  52AE FEC0                addq.l     [A6 - 0x140], 1
00001E94  206E FEC0                movea.l    A0, [A6 - 0x140]
00001E98  4210                     clr.b      [A0]
00001E9A  206E 0008                movea.l    A0, [A6 + 0x8]
00001E9E  2D50 FEC4                move.l     [A6 - 0x13C], [A0]
00001EA2  52AE FEC0                addq.l     [A6 - 0x140], 1
00001EA6  486E FEC4                pea.l      [A6 - 0x13C]
00001EAA  486E FEC0                pea.l      [A6 - 0x140]
00001EAE  4EAD 19CA                jsr        [A5 + 0x19CA /* export_821, CODE:16 @ 00001164 */]
00001EB2  52AE FEC0                addq.l     [A6 - 0x140], 1
00001EB6  3005                     move.w     D0, D5
00001EB8  48C0                     ext.l      D0
00001EBA  222E FEB6                move.l     D1, [A6 - 0x14A]
00001EBE  D280                     add.l      D1, D0
00001EC0  202E FEB2                move.l     D0, [A6 - 0x14E]
00001EC4  D081                     add.l      D0, D1
00001EC6  0240 0001                andi.w     D0, 0x1
00001ECA  670A                     beq        +0xC /* 00001ED6 */
00001ECC  206E FEC0                movea.l    A0, [A6 - 0x140]
00001ED0  4210                     clr.b      [A0]
00001ED2  52AE FEC0                addq.l     [A6 - 0x140], 1
label00001ED6:
00001ED6  202E FEC0                move.l     D0, [A6 - 0x140]
00001EDA  908C                     sub.l      D0, A4
00001EDC  3214                     move.w     D1, [A4]
00001EDE  48C1                     ext.l      D1
00001EE0  B280                     cmp.l      D1, D0
00001EE2  670A                     beq        +0xC /* 00001EEE */
00001EE4  2F3C 0000 572A           move.l     -[A7], 0x572A /* 'W*' */
00001EEA  4EAD 185A                jsr        [A5 + 0x185A /* export_775, CODE:16 @ 0000042E */]
label00001EEE:
00001EEE  1D7C 0001 0018           move.b     [A6 + 0x18], 0x1
00001EF4  6014                     bra        +0x16 /* 00001F0A */
label00001EF6:
00001EF6  D9C6                     add.l      A4, D6
00001EF8  526E FED0                addq.w     [A6 - 0x130], 1
00001EFC  690C                     bvs        +0xE /* 00001F0A */
label00001EFE:
00001EFE  302E FED0                move.w     D0, [A6 - 0x130]
00001F02  B06E FEAE                cmp.w      D0, [A6 - 0x152]
00001F06  6F00 FEFE                ble        -0x100 /* 00001E06 */
label00001F0A:
00001F0A  2F2E 0014                move.l     -[A7], [A6 + 0x14]
00001F0E  1F3C 0001                move.b     -[A7], 0x1
00001F12  4EAD 1F1A                jsr        [A5 + 0x1F1A /* export_991, CODE:19 @ 000006D4 */]
label00001F16:
00001F16  4CDF 18F0                movem.l    D4,D5,D6,D7,A3,A4, [A7]+
00001F1A  4E5E                     unlink     A6
00001F1C  205F                     movea.l    A0, [A7]+
00001F1E  DEFC 0010                add.w      A7, 0x10
00001F22  4ED0                     jmp        [A0]
fn00001F24:
00001F24  4E56 FFC4                link       A6, -0x003C
00001F28  48E7 0118                movem.l    -[A7], D7,A3,A4
00001F2C  3E2E 0008                move.w     D7, [A6 + 0x8]
00001F30  4267                     clr.w      -[A7]
00001F32  2F2D F670                move.l     -[A7], [A5 - 0x990]
00001F36  486E FFC4                pea.l      [A6 - 0x3C]
00001F3A  4EBA ED26                jsr        [PC - 0x12DA /* 00000C62 */]
00001F3E  101F                     move.b     D0, [A7]+
00001F40  662A                     bne        +0x2C /* 00001F6C */
00001F42  426D F158                clr.w      [A5 - 0xEA8]
00001F46  3B7C 0001 F156           move.w     [A5 - 0xEAA], 0x1
00001F4C  486D F0D2                pea.l      [A5 - 0xF2E]
00001F50  2F3C 0000 0084           move.l     -[A7], 0x84
00001F56  4EAD 1B42                jsr        [A5 + 0x1B42 /* export_868, CODE:16 @ 00001E7C */]
00001F5A  486D F04E                pea.l      [A5 - 0xFB2]
00001F5E  2F3C 0000 0084           move.l     -[A7], 0x84
00001F64  4EAD 1B42                jsr        [A5 + 0x1B42 /* export_868, CODE:16 @ 00001E7C */]
00001F68  6000 01E8                bra        +0x1EA /* 00002152 */
label00001F6C:
00001F6C  4267                     clr.w      -[A7]
00001F6E  2F2E 000A                move.l     -[A7], [A6 + 0xA]
00001F72  486D F2C0                pea.l      [A5 - 0xD40]
00001F76  4EAD 1AC2                jsr        [A5 + 0x1AC2 /* export_852, CODE:16 @ 00001B82 */]
00001F7A  BE6D F03E                cmp.w      D7, [A5 - 0xFC2]
00001F7E  57C0                     seq        D0
00001F80  C01F                     and.b      D0, [A7]+
00001F82  322D F158                move.w     D1, [A5 - 0xEA8]
00001F86  B26E FFE2                cmp.w      D1, [A6 - 0x1E]
00001F8A  57C1                     seq        D1
00001F8C  C001                     and.b      D0, D1
00001F8E  322D F156                move.w     D1, [A5 - 0xEAA]
00001F92  B26E FFE0                cmp.w      D1, [A6 - 0x20]
00001F96  57C1                     seq        D1
00001F98  C001                     and.b      D0, D1
00001F9A  6704                     beq        +0x6 /* 00001FA0 */
00001F9C  6000 01B4                bra        +0x1B6 /* 00002152 */
label00001FA0:
00001FA0  102D F2B3                move.b     D0, [A5 - 0xD4D]
00001FA4  6720                     beq        +0x22 /* 00001FC6 */
00001FA6  202E 000A                move.l     D0, [A6 + 0xA]
00001FAA  5280                     addq.l     D0, 1
00001FAC  2D40 FFF4                move.l     [A6 - 0xC], D0
00001FB0  4267                     clr.w      -[A7]
00001FB2  2F2E FFF4                move.l     -[A7], [A6 - 0xC]
00001FB6  4267                     clr.w      -[A7]
00001FB8  2F3C 8206 0010           move.l     -[A7], 0x82060010
00001FBE  A8B5                     syscall    ScriptUtil
00001FC0  4A5F                     tst.w      [A7]+
00001FC2  6702                     beq        +0x4 /* 00001FC6 */
00001FC4  7E03                     moveq.l    D7, 0x03
label00001FC6:
00001FC6  206E 000A                movea.l    A0, [A6 + 0xA]
00001FCA  43ED F2C0                lea.l      A1, [A5 - 0xD40]
00001FCE  703F                     moveq.l    D0, 0x3F
label00001FD0:
00001FD0  22D8                     move.l     [A1]+, [A0]+
00001FD2  51C8 FFFC                dbf        D0, -0x6 /* 00001FD0 */
00001FD6  3B47 F03E                move.w     [A5 - 0xFC2], D7
00001FDA  3B6E FFE2 F158           move.w     [A5 - 0xEA8], [A6 - 0x1E]
00001FE0  3B6E FFE0 F156           move.w     [A5 - 0xEAA], [A6 - 0x20]
00001FE6  3007                     move.w     D0, D7
00001FE8  6712                     beq        +0x14 /* 00001FFC */
00001FEA  5340                     subq.w     D0, 1
00001FEC  671A                     beq        +0x1C /* 00002008 */
00001FEE  5340                     subq.w     D0, 1
00001FF0  6720                     beq        +0x22 /* 00002012 */
00001FF2  5340                     subq.w     D0, 1
00001FF4  6712                     beq        +0x14 /* 00002008 */
00001FF6  5340                     subq.w     D0, 1
00001FF8  6718                     beq        +0x1A /* 00002012 */
00001FFA  6022                     bra        +0x24 /* 0000201E */
label00001FFC:
00001FFC  1B7C 0001 F03D           move.b     [A5 - 0xFC3], 0x1
00002002  422D F03C                clr.b      [A5 - 0xFC4]
00002006  6016                     bra        +0x18 /* 0000201E */
label00002008:
00002008  422D F03D                clr.b      [A5 - 0xFC3]
0000200C  422D F03C                clr.b      [A5 - 0xFC4]
00002010  600C                     bra        +0xE /* 0000201E */
label00002012:
00002012  1B7C 0001 F03D           move.b     [A5 - 0xFC3], 0x1
00002018  1B7C 0001 F03C           move.b     [A5 - 0xFC4], 0x1
label0000201E:
0000201E  486D F0D2                pea.l      [A5 - 0xF2E]
00002022  2F3C 0000 0084           move.l     -[A7], 0x84
00002028  4EAD 1B42                jsr        [A5 + 0x1B42 /* export_868, CODE:16 @ 00001E7C */]
0000202C  486D F04E                pea.l      [A5 - 0xFB2]
00002030  2F3C 0000 0084           move.l     -[A7], 0x84
00002036  4EAD 1B42                jsr        [A5 + 0x1B42 /* export_868, CODE:16 @ 00001E7C */]
0000203A  42A7                     clr.l      -[A7]
0000203C  486D F2C0                pea.l      [A5 - 0xD40]
00002040  4EAD 1B52                jsr        [A5 + 0x1B52 /* export_870, CODE:16 @ 00001EBC */]
00002044  2D5F FFF4                move.l     [A6 - 0xC], [A7]+
00002048  7003                     moveq.l    D0, 0x03
0000204A  B047                     cmp.w      D0, D7
0000204C  6608                     bne        +0xA /* 00002056 */
0000204E  486E FFF4                pea.l      [A6 - 0xC]
00002052  4EAD 1AAA                jsr        [A5 + 0x1AAA /* export_849, CODE:16 @ 00001A5C */]
label00002056:
00002056  7001                     moveq.l    D0, 0x01
00002058  B047                     cmp.w      D0, D7
0000205A  6728                     beq        +0x2A /* 00002084 */
0000205C  2F2E FFF4                move.l     -[A7], [A6 - 0xC]
00002060  486D F0D6                pea.l      [A5 - 0xF2A]
00002064  2F2D F156                move.l     -[A7], [A5 - 0xEAA]
00002068  3F3C 0001                move.w     -[A7], 0x1
0000206C  4EAD 198A                jsr        [A5 + 0x198A /* export_813, CODE:16 @ 00000EFE */]
00002070  2F2E FFF4                move.l     -[A7], [A6 - 0xC]
00002074  486D F052                pea.l      [A5 - 0xFAE]
00002078  2F2D F156                move.l     -[A7], [A5 - 0xEAA]
0000207C  3F3C 0002                move.w     -[A7], 0x2
00002080  4EAD 198A                jsr        [A5 + 0x198A /* export_813, CODE:16 @ 00000EFE */]
label00002084:
00002084  426D F2AA                clr.w      [A5 - 0xD56]
00002088  49ED F15A                lea.l      A4, [A5 - 0xEA6]
0000208C  200C                     move.l     D0, A4
0000208E  D0BC 0000 0100           add.l      D0, 0x100
00002094  2640                     movea.l    A3, D0
00002096  97FC 0000 0001           sub.l      A3, 0x1
0000209C  42A7                     clr.l      -[A7]
0000209E  486D F2C0                pea.l      [A5 - 0xD40]
000020A2  4EAD 1B52                jsr        [A5 + 0x1B52 /* export_870, CODE:16 @ 00001EBC */]
000020A6  2D5F FFF4                move.l     [A6 - 0xC], [A7]+
000020AA  7003                     moveq.l    D0, 0x03
000020AC  B047                     cmp.w      D0, D7
000020AE  57C0                     seq        D0
000020B0  7204                     moveq.l    D1, 0x04
000020B2  B247                     cmp.w      D1, D7
000020B4  57C1                     seq        D1
000020B6  8001                     or.b       D0, D1
000020B8  6734                     beq        +0x36 /* 000020EE */
000020BA  206E FFF4                movea.l    A0, [A6 - 0xC]
000020BE  4A10                     tst.b      [A0]
000020C0  6700 008E                beq        +0x90 /* 00002150 */
000020C4  3B7C 0001 F2AA           move.w     [A5 - 0xD56], 0x1
000020CA  2B4C F25A                move.l     [A5 - 0xDA6], A4
label000020CE:
000020CE  206E FFF4                movea.l    A0, [A6 - 0xC]
000020D2  4A10                     tst.b      [A0]
000020D4  56C0                     sne        D0
000020D6  B7CC                     cmpa.l     A3, A4
000020D8  56C1                     sne        D1
000020DA  C001                     and.b      D0, D1
000020DC  670E                     beq        +0x10 /* 000020EC */
000020DE  206E FFF4                movea.l    A0, [A6 - 0xC]
000020E2  1890                     move.b     [A4], [A0]
000020E4  528C                     addq.l     A4, 1
000020E6  52AE FFF4                addq.l     [A6 - 0xC], 1
000020EA  60E2                     bra        -0x1C /* 000020CE */
label000020EC:
000020EC  6062                     bra        +0x64 /* 00002150 */
label000020EE:
000020EE  486E FFF4                pea.l      [A6 - 0xC]
000020F2  4EAD 1ABA                jsr        [A5 + 0x1ABA /* export_851, CODE:16 @ 00001B6E */]
000020F6  206E FFF4                movea.l    A0, [A6 - 0xC]
000020FA  4A10                     tst.b      [A0]
000020FC  6752                     beq        +0x54 /* 00002150 */
000020FE  526D F2AA                addq.w     [A5 - 0xD56], 1
00002102  302D F2AA                move.w     D0, [A5 - 0xD56]
00002106  5340                     subq.w     D0, 1
00002108  41ED F25A                lea.l      A0, [A5 - 0xDA6]
0000210C  E540                     asl        D0.w, 2
0000210E  218C 0000                move.l     [A0 + D0.w], A4
label00002112:
00002112  206E FFF4                movea.l    A0, [A6 - 0xC]
00002116  7020                     moveq.l    D0, 0x20
00002118  B010                     cmp.b      D0, [A0]
0000211A  671E                     beq        +0x20 /* 0000213A */
0000211C  206E FFF4                movea.l    A0, [A6 - 0xC]
00002120  1890                     move.b     [A4], [A0]
00002122  528C                     addq.l     A4, 1
00002124  52AE FFF4                addq.l     [A6 - 0xC], 1
00002128  206E FFF4                movea.l    A0, [A6 - 0xC]
0000212C  4A10                     tst.b      [A0]
0000212E  57C0                     seq        D0
00002130  B7CC                     cmpa.l     A3, A4
00002132  57C1                     seq        D1
00002134  8001                     or.b       D0, D1
00002136  6618                     bne        +0x1A /* 00002150 */
00002138  60D8                     bra        -0x26 /* 00002112 */
label0000213A:
0000213A  4214                     clr.b      [A4]
0000213C  528C                     addq.l     A4, 1
0000213E  7014                     moveq.l    D0, 0x14
00002140  B06D F2AA                cmp.w      D0, [A5 - 0xD56]
00002144  57C0                     seq        D0
00002146  B7CC                     cmpa.l     A3, A4
00002148  57C1                     seq        D1
0000214A  8001                     or.b       D0, D1
0000214C  6602                     bne        +0x4 /* 00002150 */
0000214E  609E                     bra        -0x60 /* 000020EE */
label00002150:
00002150  4214                     clr.b      [A4]
label00002152:
00002152  4CDF 1880                movem.l    D7,A3,A4, [A7]+
00002156  4E5E                     unlink     A6
00002158  205F                     movea.l    A0, [A7]+
0000215A  5C4F                     addq.w     A7, 6
0000215C  4ED0                     jmp        [A0]
export_961:
0000215E  4E56 FDEA                link       A6, -0x0216
00002162  48E7 0F18                movem.l    -[A7], D4,D5,D6,D7,A3,A4
00002166  206E 0008                movea.l    A0, [A6 + 0x8]
0000216A  43EE FF00                lea.l      A1, [A6 - 0x100]
0000216E  703F                     moveq.l    D0, 0x3F
label00002170:
00002170  22D8                     move.l     [A1]+, [A0]+
00002172  51C8 FFFC                dbf        D0, -0x6 /* 00002170 */
00002176  426E 0012                clr.w      [A6 + 0x12]
0000217A  42A7                     clr.l      -[A7]
0000217C  2F2E 000E                move.l     -[A7], [A6 + 0xE]
00002180  4EAD 1F9A                jsr        [A5 + 0x1F9A /* export_1007, CODE:19 @ 00001B6A */]
00002184  265F                     movea.l    A3, [A7]+
00002186  200B                     move.l     D0, A3
00002188  6700 0098                beq        +0x9A /* 00002222 */
0000218C  2053                     movea.l    A0, [A3]
0000218E  5888                     addq.l     A0, 4
00002190  43FA 00A2                lea.l      A1, [PC + 0xA2 /* 00002234, value 0x43415244 'CARD' */]
00002194  7003                     moveq.l    D0, 0x03
label00002196:
00002196  B109                     cmpm.b     [A0]+, [A1]+
00002198  56C8 FFFC                dbne       D0, -0x6 /* 00002196 */
0000219C  6604                     bne        +0x6 /* 000021A2 */
0000219E  7E32                     moveq.l    D7, 0x32
000021A0  6018                     bra        +0x1A /* 000021BA */
label000021A2:
000021A2  2053                     movea.l    A0, [A3]
000021A4  5888                     addq.l     A0, 4
000021A6  43FA 0088                lea.l      A1, [PC + 0x88 /* 00002230, value 0x424B4744 'BKGD' */]
000021AA  7003                     moveq.l    D0, 0x03
label000021AC:
000021AC  B109                     cmpm.b     [A0]+, [A1]+
000021AE  56C8 FFFC                dbne       D0, -0x6 /* 000021AC */
000021B2  6604                     bne        +0x6 /* 000021B8 */
000021B4  7E2E                     moveq.l    D7, 0x2E
000021B6  6002                     bra        +0x4 /* 000021BA */
label000021B8:
000021B8  605E                     bra        +0x60 /* 00002218 */
label000021BA:
000021BA  3007                     move.w     D0, D7
000021BC  48C0                     ext.l      D0
000021BE  2840                     movea.l    A4, D0
000021C0  D9D3                     add.l      A4, [A3]
000021C2  2A0C                     move.l     D5, A4
000021C4  700E                     moveq.l    D0, 0x0E
000021C6  9A80                     sub.l      D5, D0
000021C8  2045                     movea.l    A0, D5
000021CA  3D50 FDEA                move.w     [A6 - 0x216], [A0]
000021CE  7C01                     moveq.l    D6, 0x01
000021D0  6040                     bra        +0x42 /* 00002212 */
label000021D2:
000021D2  102C 0004                move.b     D0, [A4 + 0x4]
000021D6  4880                     ext.w      D0
000021D8  B06E 000C                cmp.w      D0, [A6 + 0xC]
000021DC  662A                     bne        +0x2C /* 00002208 */
000021DE  280C                     move.l     D4, A4
000021E0  701E                     moveq.l    D0, 0x1E
000021E2  D880                     add.l      D4, D0
000021E4  2F04                     move.l     -[A7], D4
000021E6  486E FDEC                pea.l      [A6 - 0x214]
000021EA  4EAD 1B5A                jsr        [A5 + 0x1B5A /* export_871, CODE:16 @ 00001ECC */]
000021EE  4267                     clr.w      -[A7]
000021F0  486E FDEC                pea.l      [A6 - 0x214]
000021F4  486E FF00                pea.l      [A6 - 0x100]
000021F8  4EAD 1AC2                jsr        [A5 + 0x1AC2 /* export_852, CODE:16 @ 00001B82 */]
000021FC  101F                     move.b     D0, [A7]+
000021FE  6708                     beq        +0xA /* 00002208 */
00002200  3D6C 0002 0012           move.w     [A6 + 0x12], [A4 + 0x2]
00002206  6010                     bra        +0x12 /* 00002218 */
label00002208:
00002208  3014                     move.w     D0, [A4]
0000220A  48C0                     ext.l      D0
0000220C  D9C0                     add.l      A4, D0
0000220E  5246                     addq.w     D6, 1
00002210  6906                     bvs        +0x8 /* 00002218 */
label00002212:
00002212  BC6E FDEA                cmp.w      D6, [A6 - 0x216]
00002216  6FBA                     ble        -0x44 /* 000021D2 */
label00002218:
00002218  2F2E 000E                move.l     -[A7], [A6 + 0xE]
0000221C  4267                     clr.w      -[A7]
0000221E  4EAD 1F1A                jsr        [A5 + 0x1F1A /* export_991, CODE:19 @ 000006D4 */]
label00002222:
00002222  4CDF 18F0                movem.l    D4,D5,D6,D7,A3,A4, [A7]+
00002226  4E5E                     unlink     A6
00002228  205F                     movea.l    A0, [A7]+
0000222A  DEFC 000A                add.w      A7, 0xA /* '\n' */
0000222E  4ED0                     jmp        [A0]
00002230  424B 4744 4341 5244      dc.b       "BKGDCARD"
export_962:
00002238  4E56 FFDE                link       A6, -0x0022
0000223C  48E7 0F18                movem.l    -[A7], D4,D5,D6,D7,A3,A4
00002240  422E 0010                clr.b      [A6 + 0x10]
00002244  42A7                     clr.l      -[A7]
00002246  2F2E 000C                move.l     -[A7], [A6 + 0xC]
0000224A  4EAD 1F9A                jsr        [A5 + 0x1F9A /* export_1007, CODE:19 @ 00001B6A */]
0000224E  2E1F                     move.l     D7, [A7]+
00002250  6604                     bne        +0x6 /* 00002256 */
00002252  6000 011E                bra        +0x120 /* 00002372 */
label00002256:
00002256  2F07                     move.l     -[A7], D7
00002258  486E FFE1                pea.l      [A6 - 0x1F]
0000225C  4EAD 1922                jsr        [A5 + 0x1922 /* export_800, CODE:16 @ 00000C02 */]
00002260  2047                     movea.l    A0, D7
00002262  2050                     movea.l    A0, [A0]
00002264  5888                     addq.l     A0, 4
00002266  43FA 011A                lea.l      A1, [PC + 0x11A /* 00002382, value 0x43415244 'CARD' */]
0000226A  7003                     moveq.l    D0, 0x03
label0000226C:
0000226C  B109                     cmpm.b     [A0]+, [A1]+
0000226E  56C8 FFFC                dbne       D0, -0x6 /* 0000226C */
00002272  6608                     bne        +0xA /* 0000227C */
00002274  7032                     moveq.l    D0, 0x32
00002276  2D40 FFF8                move.l     [A6 - 0x8], D0
0000227A  6020                     bra        +0x22 /* 0000229C */
label0000227C:
0000227C  2047                     movea.l    A0, D7
0000227E  2050                     movea.l    A0, [A0]
00002280  5888                     addq.l     A0, 4
00002282  43FA 00FA                lea.l      A1, [PC + 0xFA /* 0000237E, value 0x424B4744 'BKGD' */]
00002286  7003                     moveq.l    D0, 0x03
label00002288:
00002288  B109                     cmpm.b     [A0]+, [A1]+
0000228A  56C8 FFFC                dbne       D0, -0x6 /* 00002288 */
0000228E  6608                     bne        +0xA /* 00002298 */
00002290  702E                     moveq.l    D0, 0x2E
00002292  2D40 FFF8                move.l     [A6 - 0x8], D0
00002296  6004                     bra        +0x6 /* 0000229C */
label00002298:
00002298  6000 00C2                bra        +0xC4 /* 0000235C */
label0000229C:
0000229C  2047                     movea.l    A0, D7
0000229E  286E FFF8                movea.l    A4, [A6 - 0x8]
000022A2  D9D0                     add.l      A4, [A0]
000022A4  264C                     movea.l    A3, A4
000022A6  200C                     move.l     D0, A4
000022A8  720E                     moveq.l    D1, 0x0E
000022AA  9081                     sub.l      D0, D1
000022AC  2D40 FFF2                move.l     [A6 - 0xE], D0
000022B0  206E FFF2                movea.l    A0, [A6 - 0xE]
000022B4  3D50 FFDE                move.w     [A6 - 0x22], [A0]
000022B8  7C01                     moveq.l    D6, 0x01
000022BA  6000 0098                bra        +0x9A /* 00002354 */
label000022BE:
000022BE  302B 0002                move.w     D0, [A3 + 0x2]
000022C2  B06E 000A                cmp.w      D0, [A6 + 0xA]
000022C6  667E                     bne        +0x80 /* 00002346 */
000022C8  102E 0008                move.b     D0, [A6 + 0x8]
000022CC  670A                     beq        +0xC /* 000022D8 */
000022CE  7001                     moveq.l    D0, 0x01
000022D0  B046                     cmp.w      D0, D6
000022D2  6700 0088                beq        +0x8A /* 0000235C */
000022D6  6012                     bra        +0x14 /* 000022EA */
label000022D8:
000022D8  206E FFF2                movea.l    A0, [A6 - 0xE]
000022DC  BC50                     cmp.w      D6, [A0]
000022DE  677C                     beq        +0x7E /* 0000235C */
000022E0  284B                     movea.l    A4, A3
000022E2  3014                     move.w     D0, [A4]
000022E4  48C0                     ext.l      D0
000022E6  2640                     movea.l    A3, D0
000022E8  D7CC                     add.l      A3, A4
label000022EA:
000022EA  3814                     move.w     D4, [A4]
000022EC  3D53 FFE4                move.w     [A6 - 0x1C], [A3]
000022F0  42A7                     clr.l      -[A7]
000022F2  3004                     move.w     D0, D4
000022F4  48C0                     ext.l      D0
000022F6  2F00                     move.l     -[A7], D0
000022F8  4EAD 18DA                jsr        [A5 + 0x18DA /* export_791, CODE:16 @ 00000896 */]
000022FC  2A1F                     move.l     D5, [A7]+
000022FE  6744                     beq        +0x46 /* 00002344 */
00002300  2F0C                     move.l     -[A7], A4
00002302  2045                     movea.l    A0, D5
00002304  2F10                     move.l     -[A7], [A0]
00002306  3004                     move.w     D0, D4
00002308  48C0                     ext.l      D0
0000230A  2F00                     move.l     -[A7], D0
0000230C  4EAD 19B2                jsr        [A5 + 0x19B2 /* export_818, CODE:16 @ 000010BE */]
00002310  2F0B                     move.l     -[A7], A3
00002312  2F0C                     move.l     -[A7], A4
00002314  302E FFE4                move.w     D0, [A6 - 0x1C]
00002318  48C0                     ext.l      D0
0000231A  2F00                     move.l     -[A7], D0
0000231C  4EAD 19B2                jsr        [A5 + 0x19B2 /* export_818, CODE:16 @ 000010BE */]
00002320  2045                     movea.l    A0, D5
00002322  2F10                     move.l     -[A7], [A0]
00002324  302E FFE4                move.w     D0, [A6 - 0x1C]
00002328  48C0                     ext.l      D0
0000232A  D08C                     add.l      D0, A4
0000232C  2F00                     move.l     -[A7], D0
0000232E  3004                     move.w     D0, D4
00002330  48C0                     ext.l      D0
00002332  2F00                     move.l     -[A7], D0
00002334  4EAD 19B2                jsr        [A5 + 0x19B2 /* export_818, CODE:16 @ 000010BE */]
00002338  2F05                     move.l     -[A7], D5
0000233A  4EAD 18D2                jsr        [A5 + 0x18D2 /* export_790, CODE:16 @ 0000083E */]
0000233E  1D7C 0001 0010           move.b     [A6 + 0x10], 0x1
label00002344:
00002344  6016                     bra        +0x18 /* 0000235C */
label00002346:
00002346  284B                     movea.l    A4, A3
00002348  3014                     move.w     D0, [A4]
0000234A  48C0                     ext.l      D0
0000234C  2640                     movea.l    A3, D0
0000234E  D7CC                     add.l      A3, A4
00002350  5246                     addq.w     D6, 1
00002352  6908                     bvs        +0xA /* 0000235C */
label00002354:
00002354  BC6E FFDE                cmp.w      D6, [A6 - 0x22]
00002358  6F00 FF64                ble        -0x9A /* 000022BE */
label0000235C:
0000235C  2F07                     move.l     -[A7], D7
0000235E  1F2E FFE1                move.b     -[A7], [A6 - 0x1F]
00002362  4EAD 03F2                jsr        [A5 + 0x3F2 /* export_122, CODE:1 @ 00004D00 */]
00002366  2F2E 000C                move.l     -[A7], [A6 + 0xC]
0000236A  1F3C 0001                move.b     -[A7], 0x1
0000236E  4EAD 1F1A                jsr        [A5 + 0x1F1A /* export_991, CODE:19 @ 000006D4 */]
label00002372:
00002372  4CDF 18F0                movem.l    D4,D5,D6,D7,A3,A4, [A7]+
00002376  4E5E                     unlink     A6
00002378  205F                     movea.l    A0, [A7]+
0000237A  504F                     addq.w     A7, 8
0000237C  4ED0                     jmp        [A0]
0000237E  424B 4744 4341 5244      dc.b       "BKGDCARD"
fn00002386:
00002386  4E56 FFFC                link       A6, -0x0004
0000238A  2F0C                     move.l     -[A7], A4
0000238C  286E 0008                movea.l    A4, [A6 + 0x8]
00002390  422E 0010                clr.b      [A6 + 0x10]
00002394  7000                     moveq.l    D0, 0x00
00002396  2940 FFEA                move.l     [A4 - 0x16], D0
0000239A  206C FFFC                movea.l    A0, [A4 - 0x4]
0000239E  2010                     move.l     D0, [A0]
000023A0  7230                     moveq.l    D1, 0x30
000023A2  D081                     add.l      D0, D1
000023A4  2940 FFF6                move.l     [A4 - 0xA], D0
label000023A8:
000023A8  202C FFF6                move.l     D0, [A4 - 0xA]
000023AC  B0AC FFF2                cmp.l      D0, [A4 - 0xE]
000023B0  6728                     beq        +0x2A /* 000023DA */
000023B2  206C FFF6                movea.l    A0, [A4 - 0xA]
000023B6  2010                     move.l     D0, [A0]
000023B8  B0AE 000C                cmp.l      D0, [A6 + 0xC]
000023BC  6608                     bne        +0xA /* 000023C6 */
000023BE  1D7C 0001 0010           move.b     [A6 + 0x10], 0x1
000023C4  6014                     bra        +0x16 /* 000023DA */
label000023C6:
000023C6  206C FFF6                movea.l    A0, [A4 - 0xA]
000023CA  3028 0004                move.w     D0, [A0 + 0x4]
000023CE  48C0                     ext.l      D0
000023D0  D1AC FFEA                add.l      [A4 - 0x16], D0
000023D4  5CAC FFF6                addq.l     [A4 - 0xA], 6
000023D8  60CE                     bra        -0x30 /* 000023A8 */
label000023DA:
000023DA  285F                     movea.l    A4, [A7]+
000023DC  4E5E                     unlink     A6
000023DE  205F                     movea.l    A0, [A7]+
000023E0  504F                     addq.w     A7, 8
000023E2  4ED0                     jmp        [A0]
fn000023E4:
000023E4  4E56 FFF0                link       A6, -0x0010
000023E8  48E7 0718                movem.l    -[A7], D5,D6,D7,A3,A4
000023EC  286E 0008                movea.l    A4, [A6 + 0x8]
000023F0  206C FFF6                movea.l    A0, [A4 - 0xA]
000023F4  2E10                     move.l     D7, [A0]
000023F6  42A7                     clr.l      -[A7]
000023F8  2F07                     move.l     -[A7], D7
000023FA  4EAD 1F92                jsr        [A5 + 0x1F92 /* export_1006, CODE:19 @ 00001B32 */]
000023FE  265F                     movea.l    A3, [A7]+
00002400  200B                     move.l     D0, A3
00002402  6610                     bne        +0x12 /* 00002414 */
00002404  206C FFF6                movea.l    A0, [A4 - 0xA]
00002408  3028 0004                move.w     D0, [A0 + 0x4]
0000240C  48C0                     ext.l      D0
0000240E  D1AC FFEA                add.l      [A4 - 0x16], D0
00002412  6078                     bra        +0x7A /* 0000248C */
label00002414:
00002414  2C13                     move.l     D6, [A3]
00002416  7018                     moveq.l    D0, 0x18
00002418  DC80                     add.l      D6, D0
0000241A  206C FFF6                movea.l    A0, [A4 - 0xA]
0000241E  3D68 0004 FFF0           move.w     [A6 - 0x10], [A0 + 0x4]
00002424  7A01                     moveq.l    D5, 0x01
00002426  6056                     bra        +0x58 /* 0000247E */
label00002428:
00002428  52AC FFEA                addq.l     [A4 - 0x16], 1
0000242C  2046                     movea.l    A0, D6
0000242E  2010                     move.l     D0, [A0]
00002430  B0AC 0008                cmp.l      D0, [A4 + 0x8]
00002434  6640                     bne        +0x42 /* 00002476 */
00002436  2F07                     move.l     -[A7], D7
00002438  4267                     clr.w      -[A7]
0000243A  4EAD 1F0A                jsr        [A5 + 0x1F0A /* export_989, CODE:19 @ 00000586 */]
0000243E  2B47 F2AE                move.l     [A5 - 0xD52], D7
00002442  206E 0008                movea.l    A0, [A6 + 0x8]
00002446  216C FFEA 0010           move.l     [A0 + 0x10], [A4 - 0x16]
0000244C  202C 000C                move.l     D0, [A4 + 0xC]
00002450  B0AD F670                cmp.l      D0, [A5 - 0x990]
00002454  57C0                     seq        D0
00002456  222C 0008                move.l     D1, [A4 + 0x8]
0000245A  B2AD F62A                cmp.l      D1, [A5 - 0x9D6]
0000245E  57C1                     seq        D1
00002460  C001                     and.b      D0, D1
00002462  6706                     beq        +0x8 /* 0000246A */
00002464  2B6C FFEA F626           move.l     [A5 - 0x9DA], [A4 - 0x16]
label0000246A:
0000246A  206E 0008                movea.l    A0, [A6 + 0x8]
0000246E  2C48                     movea.l    A6, A0
00002470  4EFA 0178                jmp        [PC + 0x178 /* 000025EA */]
00002474  0000 DCAC                ori.b      D0, 0xAC
// begin alternate branch 00002476-0000247A
label00002476:
00002476  DCAC FFEE                add.l      D6, [A4 - 0x12]
// end alternate branch 00002476-0000247A
label00002476: // (misaligned)
00002478  FFEE                     .invalid   <<F/7/7>>
0000247A  5245                     addq.w     D5, 1
0000247C  6906                     bvs        +0x8 /* 00002484 */
label0000247E:
0000247E  BA6E FFF0                cmp.w      D5, [A6 - 0x10]
00002482  6FA4                     ble        -0x5A /* 00002428 */
label00002484:
00002484  2F07                     move.l     -[A7], D7
00002486  4267                     clr.w      -[A7]
00002488  4EAD 1F0A                jsr        [A5 + 0x1F0A /* export_989, CODE:19 @ 00000586 */]
label0000248C:
0000248C  5CAC FFF6                addq.l     [A4 - 0xA], 6
00002490  202C FFF6                move.l     D0, [A4 - 0xA]
00002494  B0AC FFF2                cmp.l      D0, [A4 - 0xE]
00002498  6614                     bne        +0x16 /* 000024AE */
0000249A  7000                     moveq.l    D0, 0x00
0000249C  2940 FFEA                move.l     [A4 - 0x16], D0
000024A0  206C FFFC                movea.l    A0, [A4 - 0x4]
000024A4  2010                     move.l     D0, [A0]
000024A6  7230                     moveq.l    D1, 0x30
000024A8  D081                     add.l      D0, D1
000024AA  2940 FFF6                move.l     [A4 - 0xA], D0
label000024AE:
000024AE  4CDF 18E0                movem.l    D5,D6,D7,A3,A4, [A7]+
000024B2  4E5E                     unlink     A6
000024B4  2E9F                     move.l     [A7], [A7]+
000024B6  4E75                     rts
export_963:
fn000024B8:
000024B8  4E56 FFDA                link       A6, -0x0026
000024BC  48E7 1F38                movem.l    -[A7], D3,D4,D5,D6,D7,A2,A3,A4
000024C0  202E 000C                move.l     D0, [A6 + 0xC]
000024C4  B0AD F670                cmp.l      D0, [A5 - 0x990]
000024C8  57C0                     seq        D0
000024CA  222E 0008                move.l     D1, [A6 + 0x8]
000024CE  B2AD F62A                cmp.l      D1, [A5 - 0x9D6]
000024D2  57C1                     seq        D1
000024D4  C001                     and.b      D0, D1
000024D6  4AAD F626                tst.l      [A5 - 0x9DA]
000024DA  56C1                     sne        D1
000024DC  C001                     and.b      D0, D1
000024DE  670A                     beq        +0xC /* 000024EA */
000024E0  2D6D F626 0010           move.l     [A6 + 0x10], [A5 - 0x9DA]
000024E6  6000 011C                bra        +0x11E /* 00002604 */
label000024EA:
000024EA  7000                     moveq.l    D0, 0x00
000024EC  2D40 0010                move.l     [A6 + 0x10], D0
000024F0  42A7                     clr.l      -[A7]
000024F2  2F2E 000C                move.l     -[A7], [A6 + 0xC]
000024F6  4EAD 1F82                jsr        [A5 + 0x1F82 /* export_1004, CODE:19 @ 00001770 */]
000024FA  2D5F FFFC                move.l     [A6 - 0x4], [A7]+
000024FE  6604                     bne        +0x6 /* 00002504 */
00002500  6000 0102                bra        +0x104 /* 00002604 */
label00002504:
00002504  2F2E FFFC                move.l     -[A7], [A6 - 0x4]
00002508  486E FFFB                pea.l      [A6 - 0x5]
0000250C  4EAD 1922                jsr        [A5 + 0x1922 /* export_800, CODE:16 @ 00000C02 */]
00002510  206E FFFC                movea.l    A0, [A6 - 0x4]
00002514  2050                     movea.l    A0, [A0]
00002516  3028 0018                move.w     D0, [A0 + 0x18]
0000251A  48C0                     ext.l      D0
0000251C  2D40 FFEE                move.l     [A6 - 0x12], D0
00002520  206E FFFC                movea.l    A0, [A6 - 0x4]
00002524  2010                     move.l     D0, [A0]
00002526  7230                     moveq.l    D1, 0x30
00002528  D081                     add.l      D0, D1
0000252A  2D40 FFF6                move.l     [A6 - 0xA], D0
0000252E  206E FFFC                movea.l    A0, [A6 - 0x4]
00002532  2050                     movea.l    A0, [A0]
00002534  2F28 000C                move.l     -[A7], [A0 + 0xC]
00002538  7006                     moveq.l    D0, 0x06
0000253A  2F00                     move.l     -[A7], D0
0000253C  4EAD 04EA                jsr        [A5 + 0x4EA /* export_153, CODE:1 @ 000051F0 */]
00002540  201F                     move.l     D0, [A7]+
00002542  D0AE FFF6                add.l      D0, [A6 - 0xA]
00002546  2D40 FFF2                move.l     [A6 - 0xE], D0
0000254A  42A7                     clr.l      -[A7]
0000254C  2F2E 0008                move.l     -[A7], [A6 + 0x8]
00002550  4EAD 1F7A                jsr        [A5 + 0x1F7A /* export_1003, CODE:19 @ 00001744 */]
00002554  2D5F FFE2                move.l     [A6 - 0x1E], [A7]+
00002558  6742                     beq        +0x44 /* 0000259C */
0000255A  206E FFE2                movea.l    A0, [A6 - 0x1E]
0000255E  2050                     movea.l    A0, [A0]
00002560  2D68 001C FFDE           move.l     [A6 - 0x22], [A0 + 0x1C]
00002566  2F2E 0008                move.l     -[A7], [A6 + 0x8]
0000256A  4267                     clr.w      -[A7]
0000256C  4EAD 1EF2                jsr        [A5 + 0x1EF2 /* export_986, CODE:19 @ 00000450 */]
00002570  4AAE FFDE                tst.l      [A6 - 0x22]
00002574  56C0                     sne        D0
00002576  4A00                     tst.b      D0
00002578  6722                     beq        +0x24 /* 0000259C */
0000257A  2F00                     move.l     -[A7], D0
0000257C  4267                     clr.w      -[A7]
0000257E  2F2E FFDE                move.l     -[A7], [A6 - 0x22]
00002582  2F0E                     move.l     -[A7], A6
00002584  4EBA FE00                jsr        [PC - 0x200 /* 00002386 */]
00002588  121F                     move.b     D1, [A7]+
0000258A  201F                     move.l     D0, [A7]+
0000258C  C001                     and.b      D0, D1
0000258E  670C                     beq        +0xE /* 0000259C */
00002590  2F0E                     move.l     -[A7], A6
00002592  4EBA FE50                jsr        [PC - 0x1B0 /* 000023E4 */]
00002596  2F0E                     move.l     -[A7], A6
00002598  4EBA FE4A                jsr        [PC - 0x1B6 /* 000023E4 */]
label0000259C:
0000259C  4267                     clr.w      -[A7]
0000259E  2F2D F2AE                move.l     -[A7], [A5 - 0xD52]
000025A2  2F0E                     move.l     -[A7], A6
000025A4  4EBA FDE0                jsr        [PC - 0x220 /* 00002386 */]
000025A8  101F                     move.b     D0, [A7]+
000025AA  6614                     bne        +0x16 /* 000025C0 */
000025AC  7000                     moveq.l    D0, 0x00
000025AE  2D40 FFEA                move.l     [A6 - 0x16], D0
000025B2  206E FFFC                movea.l    A0, [A6 - 0x4]
000025B6  2010                     move.l     D0, [A0]
000025B8  7230                     moveq.l    D1, 0x30
000025BA  D081                     add.l      D0, D1
000025BC  2D40 FFF6                move.l     [A6 - 0xA], D0
label000025C0:
000025C0  206E FFFC                movea.l    A0, [A6 - 0x4]
000025C4  2050                     movea.l    A0, [A0]
000025C6  2D68 000C FFDA           move.l     [A6 - 0x26], [A0 + 0xC]
000025CC  7001                     moveq.l    D0, 0x01
000025CE  2D40 FFE6                move.l     [A6 - 0x1A], D0
000025D2  600C                     bra        +0xE /* 000025E0 */
label000025D4:
000025D4  2F0E                     move.l     -[A7], A6
000025D6  4EBA FE0C                jsr        [PC - 0x1F4 /* 000023E4 */]
000025DA  52AE FFE6                addq.l     [A6 - 0x1A], 1
000025DE  690A                     bvs        +0xC /* 000025EA */
label000025E0:
000025E0  202E FFE6                move.l     D0, [A6 - 0x1A]
000025E4  B0AE FFDA                cmp.l      D0, [A6 - 0x26]
000025E8  6FEA                     ble        -0x14 /* 000025D4 */
label000025EA:
000025EA  4FEE FFBA                lea.l      A7, [A6 - 0x46]
000025EE  2F2E FFFC                move.l     -[A7], [A6 - 0x4]
000025F2  1F2E FFFB                move.b     -[A7], [A6 - 0x5]
000025F6  4EAD 03F2                jsr        [A5 + 0x3F2 /* export_122, CODE:1 @ 00004D00 */]
000025FA  2F2E 000C                move.l     -[A7], [A6 + 0xC]
000025FE  4267                     clr.w      -[A7]
00002600  4EAD 1EFA                jsr        [A5 + 0x1EFA /* export_987, CODE:19 @ 0000046E */]
label00002604:
00002604  4CDF 1CF8                movem.l    D3,D4,D5,D6,D7,A2,A3,A4, [A7]+
00002608  4E5E                     unlink     A6
0000260A  205F                     movea.l    A0, [A7]+
0000260C  504F                     addq.w     A7, 8
0000260E  4ED0                     jmp        [A0]
export_964:
fn00002610:
00002610  4E56 FFB6                link       A6, -0x004A
00002614  48E7 0F18                movem.l    -[A7], D4,D5,D6,D7,A3,A4
00002618  7000                     moveq.l    D0, 0x00
0000261A  2D40 0020                move.l     [A6 + 0x20], D0
0000261E  4EBA DAEC                jsr        [PC - 0x2514 /* 0000010C */]
00002622  42A7                     clr.l      -[A7]
00002624  2F2E 001C                move.l     -[A7], [A6 + 0x1C]
00002628  4EAD 1F82                jsr        [A5 + 0x1F82 /* export_1004, CODE:19 @ 00001770 */]
0000262C  2E1F                     move.l     D7, [A7]+
0000262E  6604                     bne        +0x6 /* 00002634 */
00002630  6000 0344                bra        +0x346 /* 00002976 */
label00002634:
00002634  2F07                     move.l     -[A7], D7
00002636  486E FFD3                pea.l      [A6 - 0x2D]
0000263A  4EAD 1922                jsr        [A5 + 0x1922 /* export_800, CODE:16 @ 00000C02 */]
0000263E  2047                     movea.l    A0, D7
00002640  2050                     movea.l    A0, [A0]
00002642  3A28 0018                move.w     D5, [A0 + 0x18]
00002646  202E 0018                move.l     D0, [A6 + 0x18]
0000264A  5280                     addq.l     D0, 1
0000264C  2D40 FFE8                move.l     [A6 - 0x18], D0
00002650  7001                     moveq.l    D0, 0x01
00002652  B0AE FFE8                cmp.l      D0, [A6 - 0x18]
00002656  6F06                     ble        +0x8 /* 0000265E */
00002658  7001                     moveq.l    D0, 0x01
0000265A  2D40 FFE8                move.l     [A6 - 0x18], D0
label0000265E:
0000265E  2047                     movea.l    A0, D7
00002660  2050                     movea.l    A0, [A0]
00002662  202E FFE8                move.l     D0, [A6 - 0x18]
00002666  B0A8 0014                cmp.l      D0, [A0 + 0x14]
0000266A  6F06                     ble        +0x8 /* 00002672 */
0000266C  7001                     moveq.l    D0, 0x01
0000266E  2D40 FFE8                move.l     [A6 - 0x18], D0
label00002672:
00002672  2047                     movea.l    A0, D7
00002674  2850                     movea.l    A4, [A0]
00002676  7030                     moveq.l    D0, 0x30
00002678  D9C0                     add.l      A4, D0
0000267A  2047                     movea.l    A0, D7
0000267C  2050                     movea.l    A0, [A0]
0000267E  2F28 000C                move.l     -[A7], [A0 + 0xC]
00002682  7006                     moveq.l    D0, 0x06
00002684  2F00                     move.l     -[A7], D0
00002686  4EAD 04EA                jsr        [A5 + 0x4EA /* export_153, CODE:1 @ 000051F0 */]
0000268A  201F                     move.l     D0, [A7]+
0000268C  D08C                     add.l      D0, A4
0000268E  2D40 FFF4                move.l     [A6 - 0xC], D0
00002692  2D6E FFE8 FFE4           move.l     [A6 - 0x1C], [A6 - 0x18]
label00002698:
00002698  302C 0004                move.w     D0, [A4 + 0x4]
0000269C  48C0                     ext.l      D0
0000269E  B0AE FFE4                cmp.l      D0, [A6 - 0x1C]
000026A2  6C0E                     bge        +0x10 /* 000026B2 */
000026A4  302C 0004                move.w     D0, [A4 + 0x4]
000026A8  48C0                     ext.l      D0
000026AA  91AE FFE4                sub.l      [A6 - 0x1C], D0
000026AE  5C8C                     addq.l     A4, 6
000026B0  60E6                     bra        -0x18 /* 00002698 */
label000026B2:
000026B2  2814                     move.l     D4, [A4]
000026B4  42A7                     clr.l      -[A7]
000026B6  2F04                     move.l     -[A7], D4
000026B8  4EAD 1F92                jsr        [A5 + 0x1F92 /* export_1006, CODE:19 @ 00001B32 */]
000026BC  265F                     movea.l    A3, [A7]+
000026BE  200B                     move.l     D0, A3
000026C0  6700 0288                beq        +0x28A /* 0000294A */
000026C4  2F0B                     move.l     -[A7], A3
000026C6  486E FFD2                pea.l      [A6 - 0x2E]
000026CA  4EAD 1922                jsr        [A5 + 0x1922 /* export_800, CODE:16 @ 00000C02 */]
000026CE  422E FFBC                clr.b      [A6 - 0x44]
000026D2  422E FFBE                clr.b      [A6 - 0x42]
000026D6  102E 0008                move.b     D0, [A6 + 0x8]
000026DA  6736                     beq        +0x38 /* 00002712 */
000026DC  082D 0004 F688           btst.b     [A5 - 0x978], 0x4
000026E2  56C1                     sne        D1
000026E4  C001                     and.b      D0, D1
000026E6  672A                     beq        +0x2C /* 00002712 */
000026E8  2053                     movea.l    A0, [A3]
000026EA  2F08                     move.l     -[A7], A0
000026EC  42A7                     clr.l      -[A7]
000026EE  2F0B                     move.l     -[A7], A3
000026F0  3F05                     move.w     -[A7], D5
000026F2  3F2C 0004                move.w     -[A7], [A4 + 0x4]
000026F6  4EAD 19AA                jsr        [A5 + 0x19AA /* export_817, CODE:16 @ 0000109E */]
000026FA  201F                     move.l     D0, [A7]+
000026FC  205F                     movea.l    A0, [A7]+
000026FE  B0A8 0010                cmp.l      D0, [A0 + 0x10]
00002702  6608                     bne        +0xA /* 0000270C */
00002704  1D7C 0001 FFBE           move.b     [A6 - 0x42], 0x1
0000270A  6006                     bra        +0x8 /* 00002712 */
label0000270C:
0000270C  1D7C 0001 FFBC           move.b     [A6 - 0x44], 0x1
label00002712:
00002712  1D6E FFBE FFBD           move.b     [A6 - 0x43], [A6 - 0x42]
00002718  2C13                     move.l     D6, [A3]
0000271A  7018                     moveq.l    D0, 0x18
0000271C  DC80                     add.l      D6, D0
0000271E  3005                     move.w     D0, D5
00002720  C1EC 0004                muls.w     D0, [A4 + 0x4]
00002724  48C0                     ext.l      D0
00002726  D086                     add.l      D0, D6
00002728  2D40 FFD6                move.l     [A6 - 0x2A], D0
0000272C  202E FFE4                move.l     D0, [A6 - 0x1C]
00002730  5380                     subq.l     D0, 1
00002732  3205                     move.w     D1, D5
00002734  48C1                     ext.l      D1
00002736  2F00                     move.l     -[A7], D0
00002738  2F01                     move.l     -[A7], D1
0000273A  4EAD 04EA                jsr        [A5 + 0x4EA /* export_153, CODE:1 @ 000051F0 */]
0000273E  DC9F                     add.l      D6, [A7]+
00002740  2047                     movea.l    A0, D7
00002742  2050                     movea.l    A0, [A0]
00002744  3D68 001C FFD4           move.w     [A6 - 0x2C], [A0 + 0x1C]
0000274A  4AAE 0014                tst.l      [A6 + 0x14]
0000274E  57C0                     seq        D0
00002750  4AAE 0010                tst.l      [A6 + 0x10]
00002754  57C1                     seq        D1
00002756  8001                     or.b       D0, D1
00002758  4400                     neg.b      D0
0000275A  1D40 FFBF                move.b     [A6 - 0x41], D0
0000275E  202E 0014                move.l     D0, [A6 + 0x14]
00002762  5880                     addq.l     D0, 4
00002764  2D40 FFC4                move.l     [A6 - 0x3C], D0
00002768  202E 0010                move.l     D0, [A6 + 0x10]
0000276C  5880                     addq.l     D0, 4
0000276E  2D40 FFC0                move.l     [A6 - 0x40], D0
00002772  2047                     movea.l    A0, D7
00002774  2050                     movea.l    A0, [A0]
00002776  2D68 0014 FFB8           move.l     [A6 - 0x48], [A0 + 0x14]
0000277C  7001                     moveq.l    D0, 0x01
0000277E  2D40 FFDE                move.l     [A6 - 0x22], D0
00002782  6000 01A8                bra        +0x1AA /* 0000292C */
label00002786:
00002786  102E FFBF                move.b     D0, [A6 - 0x41]
0000278A  6728                     beq        +0x2A /* 000027B4 */
0000278C  102E FFBD                move.b     D0, [A6 - 0x43]
00002790  C02E FFBE                and.b      D0, [A6 - 0x42]
00002794  1B40 F2AD                move.b     [A5 - 0xD53], D0
00002798  1D6E FFBE FFBD           move.b     [A6 - 0x43], [A6 - 0x42]
0000279E  2046                     movea.l    A0, D6
000027A0  0828 0005 0004           btst.b     [A0 + 0x4], 0x5
000027A6  660A                     bne        +0xC /* 000027B2 */
000027A8  422D F2AD                clr.b      [A5 - 0xD53]
000027AC  1D7C 0001 FFBC           move.b     [A6 - 0x44], 0x1
label000027B2:
000027B2  6074                     bra        +0x76 /* 00002828 */
label000027B4:
000027B4  2006                     move.l     D0, D6
000027B6  5880                     addq.l     D0, 4
000027B8  2D40 FFCA                move.l     [A6 - 0x36], D0
000027BC  206E FFCA                movea.l    A0, [A6 - 0x36]
000027C0  0810 0005                btst.b     [A0], 0x5
000027C4  6708                     beq        +0xA /* 000027CE */
000027C6  2D6E FFC0 FFCE           move.l     [A6 - 0x32], [A6 - 0x40]
000027CC  600C                     bra        +0xE /* 000027DA */
label000027CE:
000027CE  2D6E FFC4 FFCE           move.l     [A6 - 0x32], [A6 - 0x3C]
000027D4  1D7C 0001 FFBC           move.b     [A6 - 0x44], 0x1
label000027DA:
000027DA  206E FFCE                movea.l    A0, [A6 - 0x32]
000027DE  226E FFCA                movea.l    A1, [A6 - 0x36]
000027E2  2011                     move.l     D0, [A1]
000027E4  C090                     and.l      D0, [A0]
000027E6  206E FFCE                movea.l    A0, [A6 - 0x32]
000027EA  B090                     cmp.l      D0, [A0]
000027EC  667A                     bne        +0x7C /* 00002868 */
000027EE  3D6E FFD4 FFB6           move.w     [A6 - 0x4A], [A6 - 0x2C]
000027F4  3D7C 0002 FFC8           move.w     [A6 - 0x38], 0x2
000027FA  6022                     bra        +0x24 /* 0000281E */
label000027FC:
000027FC  58AE FFCE                addq.l     [A6 - 0x32], 4
00002800  58AE FFCA                addq.l     [A6 - 0x36], 4
00002804  206E FFCE                movea.l    A0, [A6 - 0x32]
00002808  226E FFCA                movea.l    A1, [A6 - 0x36]
0000280C  2011                     move.l     D0, [A1]
0000280E  C090                     and.l      D0, [A0]
00002810  206E FFCE                movea.l    A0, [A6 - 0x32]
00002814  B090                     cmp.l      D0, [A0]
00002816  6650                     bne        +0x52 /* 00002868 */
00002818  526E FFC8                addq.w     [A6 - 0x38], 1
0000281C  690A                     bvs        +0xC /* 00002828 */
label0000281E:
0000281E  302E FFC8                move.w     D0, [A6 - 0x38]
00002822  B06E FFB6                cmp.w      D0, [A6 - 0x4A]
00002826  6FD4                     ble        -0x2A /* 000027FC */
label00002828:
00002828  4267                     clr.w      -[A7]
0000282A  2F06                     move.l     -[A7], D6
0000282C  2F2E 000C                move.l     -[A7], [A6 + 0xC]
00002830  205F                     movea.l    A0, [A7]+
00002832  4E90                     jsr        [A0]
00002834  101F                     move.b     D0, [A7]+
00002836  6730                     beq        +0x32 /* 00002868 */
00002838  202E 0018                move.l     D0, [A6 + 0x18]
0000283C  D1AE FFDE                add.l      [A6 - 0x22], D0
00002840  2047                     movea.l    A0, D7
00002842  2050                     movea.l    A0, [A0]
00002844  202E FFDE                move.l     D0, [A6 - 0x22]
00002848  B0A8 0014                cmp.l      D0, [A0 + 0x14]
0000284C  6F0C                     ble        +0xE /* 0000285A */
0000284E  2047                     movea.l    A0, D7
00002850  2050                     movea.l    A0, [A0]
00002852  2028 0014                move.l     D0, [A0 + 0x14]
00002856  91AE FFDE                sub.l      [A6 - 0x22], D0
label0000285A:
0000285A  2D6E FFDE 0020           move.l     [A6 + 0x20], [A6 - 0x22]
00002860  2B44 F2AE                move.l     [A5 - 0xD52], D4
00002864  6000 00D2                bra        +0xD4 /* 00002938 */
label00002868:
00002868  3005                     move.w     D0, D5
0000286A  48C0                     ext.l      D0
0000286C  DC80                     add.l      D6, D0
0000286E  BCAE FFD6                cmp.l      D6, [A6 - 0x2A]
00002872  6600 00B2                bne        +0xB4 /* 00002926 */
00002876  102E 000A                move.b     D0, [A6 + 0xA]
0000287A  6712                     beq        +0x14 /* 0000288E */
0000287C  2F00                     move.l     -[A7], D0
0000287E  4267                     clr.w      -[A7]
00002880  4EAD 17FA                jsr        [A5 + 0x17FA /* export_763, CODE:16 @ 0000009E */]
00002884  121F                     move.b     D1, [A7]+
00002886  201F                     move.l     D0, [A7]+
00002888  C001                     and.b      D0, D1
0000288A  6600 00AC                bne        +0xAE /* 00002938 */
label0000288E:
0000288E  2F0B                     move.l     -[A7], A3
00002890  1F2E FFD2                move.b     -[A7], [A6 - 0x2E]
00002894  4EAD 03F2                jsr        [A5 + 0x3F2 /* export_122, CODE:1 @ 00004D00 */]
00002898  2F04                     move.l     -[A7], D4
0000289A  4267                     clr.w      -[A7]
0000289C  4EAD 1F0A                jsr        [A5 + 0x1F0A /* export_989, CODE:19 @ 00000586 */]
000028A0  5C8C                     addq.l     A4, 6
000028A2  B9EE FFF4                cmpa.l     A4, [A6 - 0xC]
000028A6  6608                     bne        +0xA /* 000028B0 */
000028A8  2047                     movea.l    A0, D7
000028AA  2850                     movea.l    A4, [A0]
000028AC  7030                     moveq.l    D0, 0x30
000028AE  D9C0                     add.l      A4, D0
label000028B0:
000028B0  2814                     move.l     D4, [A4]
000028B2  42A7                     clr.l      -[A7]
000028B4  2F04                     move.l     -[A7], D4
000028B6  4EAD 1F92                jsr        [A5 + 0x1F92 /* export_1006, CODE:19 @ 00001B32 */]
000028BA  265F                     movea.l    A3, [A7]+
000028BC  200B                     move.l     D0, A3
000028BE  6608                     bne        +0xA /* 000028C8 */
000028C0  700C                     moveq.l    D0, 0x0C
000028C2  2F00                     move.l     -[A7], D0
000028C4  4EAD 185A                jsr        [A5 + 0x185A /* export_775, CODE:16 @ 0000042E */]
label000028C8:
000028C8  2F0B                     move.l     -[A7], A3
000028CA  486E FFD2                pea.l      [A6 - 0x2E]
000028CE  4EAD 1922                jsr        [A5 + 0x1922 /* export_800, CODE:16 @ 00000C02 */]
000028D2  422E FFBE                clr.b      [A6 - 0x42]
000028D6  102E 0008                move.b     D0, [A6 + 0x8]
000028DA  6736                     beq        +0x38 /* 00002912 */
000028DC  082D 0004 F688           btst.b     [A5 - 0x978], 0x4
000028E2  56C1                     sne        D1
000028E4  C001                     and.b      D0, D1
000028E6  672A                     beq        +0x2C /* 00002912 */
000028E8  2053                     movea.l    A0, [A3]
000028EA  2F08                     move.l     -[A7], A0
000028EC  42A7                     clr.l      -[A7]
000028EE  2F0B                     move.l     -[A7], A3
000028F0  3F05                     move.w     -[A7], D5
000028F2  3F2C 0004                move.w     -[A7], [A4 + 0x4]
000028F6  4EAD 19AA                jsr        [A5 + 0x19AA /* export_817, CODE:16 @ 0000109E */]
000028FA  201F                     move.l     D0, [A7]+
000028FC  205F                     movea.l    A0, [A7]+
000028FE  B0A8 0010                cmp.l      D0, [A0 + 0x10]
00002902  6608                     bne        +0xA /* 0000290C */
00002904  1D7C 0001 FFBE           move.b     [A6 - 0x42], 0x1
0000290A  6006                     bra        +0x8 /* 00002912 */
label0000290C:
0000290C  1D7C 0001 FFBC           move.b     [A6 - 0x44], 0x1
label00002912:
00002912  2C13                     move.l     D6, [A3]
00002914  7018                     moveq.l    D0, 0x18
00002916  DC80                     add.l      D6, D0
00002918  3005                     move.w     D0, D5
0000291A  C1EC 0004                muls.w     D0, [A4 + 0x4]
0000291E  48C0                     ext.l      D0
00002920  D086                     add.l      D0, D6
00002922  2D40 FFD6                move.l     [A6 - 0x2A], D0
label00002926:
00002926  52AE FFDE                addq.l     [A6 - 0x22], 1
0000292A  690C                     bvs        +0xE /* 00002938 */
label0000292C:
0000292C  202E FFDE                move.l     D0, [A6 - 0x22]
00002930  B0AE FFB8                cmp.l      D0, [A6 - 0x48]
00002934  6F00 FE50                ble        -0x1AE /* 00002786 */
label00002938:
00002938  2F0B                     move.l     -[A7], A3
0000293A  1F2E FFD2                move.b     -[A7], [A6 - 0x2E]
0000293E  4EAD 03F2                jsr        [A5 + 0x3F2 /* export_122, CODE:1 @ 00004D00 */]
00002942  2F04                     move.l     -[A7], D4
00002944  4267                     clr.w      -[A7]
00002946  4EAD 1F0A                jsr        [A5 + 0x1F0A /* export_989, CODE:19 @ 00000586 */]
label0000294A:
0000294A  2F07                     move.l     -[A7], D7
0000294C  1F2E FFD3                move.b     -[A7], [A6 - 0x2D]
00002950  4EAD 03F2                jsr        [A5 + 0x3F2 /* export_122, CODE:1 @ 00004D00 */]
00002954  2F2E 001C                move.l     -[A7], [A6 + 0x1C]
00002958  4267                     clr.w      -[A7]
0000295A  4EAD 1EFA                jsr        [A5 + 0x1EFA /* export_987, CODE:19 @ 0000046E */]
0000295E  4AAD F6A4                tst.l      [A5 - 0x95C]
00002962  56C0                     sne        D0
00002964  C02E FFBC                and.b      D0, [A6 - 0x44]
00002968  670C                     beq        +0xE /* 00002976 */
0000296A  7000                     moveq.l    D0, 0x00
0000296C  2B40 F6A4                move.l     [A5 - 0x95C], D0
00002970  1B7C 0001 F63B           move.b     [A5 - 0x9C5], 0x1
label00002976:
00002976  4CDF 18F0                movem.l    D4,D5,D6,D7,A3,A4, [A7]+
0000297A  4E5E                     unlink     A6
0000297C  205F                     movea.l    A0, [A7]+
0000297E  DEFC 0018                add.w      A7, 0x18
00002982  4ED0                     jmp        [A0]
export_965:
00002984  4E56 FEE4                link       A6, -0x011C
00002988  48E7 0F18                movem.l    -[A7], D4,D5,D6,D7,A3,A4
0000298C  206E 0008                movea.l    A0, [A6 + 0x8]
00002990  43EE FF00                lea.l      A1, [A6 - 0x100]
00002994  703F                     moveq.l    D0, 0x3F
label00002996:
00002996  22D8                     move.l     [A1]+, [A0]+
00002998  51C8 FFFC                dbf        D0, -0x6 /* 00002996 */
0000299C  282E 000C                move.l     D4, [A6 + 0xC]
000029A0  422E 0010                clr.b      [A6 + 0x10]
000029A4  4267                     clr.w      -[A7]
000029A6  486E FF00                pea.l      [A6 - 0x100]
000029AA  4EAD 180A                jsr        [A5 + 0x180A /* export_765, CODE:16 @ 000001CC */]
000029AE  101F                     move.b     D0, [A7]+
000029B0  6704                     beq        +0x6 /* 000029B6 */
000029B2  6000 00C4                bra        +0xC6 /* 00002A78 */
label000029B6:
000029B6  4240                     clr.w      D0
000029B8  102E FF00                move.b     D0, [A6 - 0x100]
000029BC  3E00                     move.w     D7, D0
000029BE  5247                     addq.w     D7, 1
000029C0  41EE FF00                lea.l      A0, [A6 - 0x100]
000029C4  4230 7000                clr.b      [A0 + D7.w]
000029C8  4267                     clr.w      -[A7]
000029CA  2F04                     move.l     -[A7], D4
000029CC  3007                     move.w     D0, D7
000029CE  48C0                     ext.l      D0
000029D0  2F00                     move.l     -[A7], D0
000029D2  486E FEF8                pea.l      [A6 - 0x108]
000029D6  4EBA EE00                jsr        [PC - 0x1200 /* 000017D8 */]
000029DA  101F                     move.b     D0, [A7]+
000029DC  6700 009A                beq        +0x9C /* 00002A78 */
000029E0  42A7                     clr.l      -[A7]
000029E2  2F04                     move.l     -[A7], D4
000029E4  4EAD 1F6A                jsr        [A5 + 0x1F6A /* export_1001, CODE:19 @ 000016EC */]
000029E8  285F                     movea.l    A4, [A7]+
000029EA  2054                     movea.l    A0, [A4]
000029EC  2028 0024                move.l     D0, [A0 + 0x24]
000029F0  722E                     moveq.l    D1, 0x2E
000029F2  D081                     add.l      D0, D1
000029F4  2054                     movea.l    A0, [A4]
000029F6  2228 002A                move.l     D1, [A0 + 0x2A]
000029FA  D280                     add.l      D1, D0
000029FC  2D41 FEF8                move.l     [A6 - 0x108], D1
00002A00  266E FEF8                movea.l    A3, [A6 - 0x108]
00002A04  D7D4                     add.l      A3, [A4]
00002A06  42A7                     clr.l      -[A7]
00002A08  2F0B                     move.l     -[A7], A3
00002A0A  4EAD 1ADA                jsr        [A5 + 0x1ADA /* export_855, CODE:16 @ 00001C66 */]
00002A0E  201F                     move.l     D0, [A7]+
00002A10  5280                     addq.l     D0, 1
00002A12  3C00                     move.w     D6, D0
00002A14  BC47                     cmp.w      D6, D7
00002A16  6734                     beq        +0x36 /* 00002A4C */
00002A18  3006                     move.w     D0, D6
00002A1A  48C0                     ext.l      D0
00002A1C  D08B                     add.l      D0, A3
00002A1E  2D40 FEEC                move.l     [A6 - 0x114], D0
00002A22  3007                     move.w     D0, D7
00002A24  48C0                     ext.l      D0
00002A26  D08B                     add.l      D0, A3
00002A28  2D40 FEE8                move.l     [A6 - 0x118], D0
00002A2C  2054                     movea.l    A0, [A4]
00002A2E  2A10                     move.l     D5, [A0]
00002A30  DA94                     add.l      D5, [A4]
00002A32  2F2E FEEC                move.l     -[A7], [A6 - 0x114]
00002A36  2F2E FEE8                move.l     -[A7], [A6 - 0x118]
00002A3A  2005                     move.l     D0, D5
00002A3C  90AE FEEC                sub.l      D0, [A6 - 0x114]
00002A40  3207                     move.w     D1, D7
00002A42  48C1                     ext.l      D1
00002A44  9081                     sub.l      D0, D1
00002A46  2F00                     move.l     -[A7], D0
00002A48  4EAD 024A                jsr        [A5 + 0x24A /* export_69, CODE:1 @ 000046A6 */]
label00002A4C:
00002A4C  41EE FF00                lea.l      A0, [A6 - 0x100]
00002A50  2008                     move.l     D0, A0
00002A52  5280                     addq.l     D0, 1
00002A54  2D40 FEEC                move.l     [A6 - 0x114], D0
00002A58  2D4B FEE8                move.l     [A6 - 0x118], A3
00002A5C  486E FEEC                pea.l      [A6 - 0x114]
00002A60  486E FEE8                pea.l      [A6 - 0x118]
00002A64  4EAD 19CA                jsr        [A5 + 0x19CA /* export_821, CODE:16 @ 00001164 */]
00002A68  1D7C 0001 0010           move.b     [A6 + 0x10], 0x1
00002A6E  2F04                     move.l     -[A7], D4
00002A70  1F3C 0001                move.b     -[A7], 0x1
00002A74  4EAD 1EE2                jsr        [A5 + 0x1EE2 /* export_984, CODE:19 @ 00000414 */]
label00002A78:
00002A78  4CDF 18F0                movem.l    D4,D5,D6,D7,A3,A4, [A7]+
00002A7C  4E5E                     unlink     A6
00002A7E  205F                     movea.l    A0, [A7]+
00002A80  504F                     addq.w     A7, 8
00002A82  4ED0                     jmp        [A0]
export_966:
00002A84  4E56 FFE0                link       A6, -0x0020
00002A88  48E7 0718                movem.l    -[A7], D5,D6,D7,A3,A4
00002A8C  2A2E 000C                move.l     D5, [A6 + 0xC]
00002A90  422E 0010                clr.b      [A6 + 0x10]
00002A94  42A7                     clr.l      -[A7]
00002A96  206E 0008                movea.l    A0, [A6 + 0x8]
00002A9A  2F10                     move.l     -[A7], [A0]
00002A9C  4EAD 1ADA                jsr        [A5 + 0x1ADA /* export_855, CODE:16 @ 00001C66 */]
00002AA0  2E1F                     move.l     D7, [A7]+
00002AA2  5287                     addq.l     D7, 1
00002AA4  0C87 0000 7530           cmpi.l     D7, 0x7530 /* 'u0' */
00002AAA  6E00 00BE                bgt        +0xC0 /* 00002B6A */
00002AAE  4267                     clr.w      -[A7]
00002AB0  2F05                     move.l     -[A7], D5
00002AB2  2F07                     move.l     -[A7], D7
00002AB4  486E FFF8                pea.l      [A6 - 0x8]
00002AB8  4EBA ED1E                jsr        [PC - 0x12E2 /* 000017D8 */]
00002ABC  101F                     move.b     D0, [A7]+
00002ABE  6604                     bne        +0x6 /* 00002AC4 */
00002AC0  6000 00A8                bra        +0xAA /* 00002B6A */
label00002AC4:
00002AC4  42A7                     clr.l      -[A7]
00002AC6  2F05                     move.l     -[A7], D5
00002AC8  4EAD 1F6A                jsr        [A5 + 0x1F6A /* export_1001, CODE:19 @ 000016EC */]
00002ACC  285F                     movea.l    A4, [A7]+
00002ACE  2054                     movea.l    A0, [A4]
00002AD0  2028 0024                move.l     D0, [A0 + 0x24]
00002AD4  722E                     moveq.l    D1, 0x2E
00002AD6  D081                     add.l      D0, D1
00002AD8  2054                     movea.l    A0, [A4]
00002ADA  2228 002A                move.l     D1, [A0 + 0x2A]
00002ADE  D280                     add.l      D1, D0
00002AE0  2D41 FFF8                move.l     [A6 - 0x8], D1
00002AE4  202E FFF8                move.l     D0, [A6 - 0x8]
00002AE8  D094                     add.l      D0, [A4]
00002AEA  2D40 FFEC                move.l     [A6 - 0x14], D0
00002AEE  486E FFEC                pea.l      [A6 - 0x14]
00002AF2  4EAD 1932                jsr        [A5 + 0x1932 /* export_802, CODE:16 @ 00000C5A */]
00002AF6  42A7                     clr.l      -[A7]
00002AF8  2F2E FFEC                move.l     -[A7], [A6 - 0x14]
00002AFC  4EAD 1ADA                jsr        [A5 + 0x1ADA /* export_855, CODE:16 @ 00001C66 */]
00002B00  2C1F                     move.l     D6, [A7]+
00002B02  5286                     addq.l     D6, 1
00002B04  BC87                     cmp.l      D6, D7
00002B06  6730                     beq        +0x32 /* 00002B38 */
00002B08  2006                     move.l     D0, D6
00002B0A  D0AE FFEC                add.l      D0, [A6 - 0x14]
00002B0E  2D40 FFE8                move.l     [A6 - 0x18], D0
00002B12  2007                     move.l     D0, D7
00002B14  D0AE FFEC                add.l      D0, [A6 - 0x14]
00002B18  2D40 FFE4                move.l     [A6 - 0x1C], D0
00002B1C  2054                     movea.l    A0, [A4]
00002B1E  2650                     movea.l    A3, [A0]
00002B20  D7D4                     add.l      A3, [A4]
00002B22  2F2E FFE8                move.l     -[A7], [A6 - 0x18]
00002B26  2F2E FFE4                move.l     -[A7], [A6 - 0x1C]
00002B2A  200B                     move.l     D0, A3
00002B2C  90AE FFE8                sub.l      D0, [A6 - 0x18]
00002B30  9087                     sub.l      D0, D7
00002B32  2F00                     move.l     -[A7], D0
00002B34  4EAD 024A                jsr        [A5 + 0x24A /* export_69, CODE:1 @ 000046A6 */]
label00002B38:
00002B38  206E 0008                movea.l    A0, [A6 + 0x8]
00002B3C  2D50 FFE8                move.l     [A6 - 0x18], [A0]
00002B40  2D6E FFEC FFE4           move.l     [A6 - 0x1C], [A6 - 0x14]
00002B46  486E FFE8                pea.l      [A6 - 0x18]
00002B4A  486E FFE4                pea.l      [A6 - 0x1C]
00002B4E  4EAD 19CA                jsr        [A5 + 0x19CA /* export_821, CODE:16 @ 00001164 */]
00002B52  1D7C 0001 0010           move.b     [A6 + 0x10], 0x1
00002B58  2F05                     move.l     -[A7], D5
00002B5A  1F3C 0001                move.b     -[A7], 0x1
00002B5E  4EAD 1EE2                jsr        [A5 + 0x1EE2 /* export_984, CODE:19 @ 00000414 */]
00002B62  2F05                     move.l     -[A7], D5
00002B64  4267                     clr.w      -[A7]
00002B66  4EAD 1092                jsr        [A5 + 0x1092 /* export_526, CODE:9 @ 00004638 */]
label00002B6A:
00002B6A  4CDF 18E0                movem.l    D5,D6,D7,A3,A4, [A7]+
00002B6E  4E5E                     unlink     A6
00002B70  205F                     movea.l    A0, [A7]+
00002B72  504F                     addq.w     A7, 8
00002B74  4ED0                     jmp        [A0]
export_967:
00002B76  4E56 FEE4                link       A6, -0x011C
00002B7A  48E7 0F18                movem.l    -[A7], D4,D5,D6,D7,A3,A4
00002B7E  206E 0008                movea.l    A0, [A6 + 0x8]
00002B82  43EE FF00                lea.l      A1, [A6 - 0x100]
00002B86  703F                     moveq.l    D0, 0x3F
label00002B88:
00002B88  22D8                     move.l     [A1]+, [A0]+
00002B8A  51C8 FFFC                dbf        D0, -0x6 /* 00002B88 */
00002B8E  2A2E 000C                move.l     D5, [A6 + 0xC]
00002B92  422E 0010                clr.b      [A6 + 0x10]
00002B96  4267                     clr.w      -[A7]
00002B98  486E FF00                pea.l      [A6 - 0x100]
00002B9C  4EAD 180A                jsr        [A5 + 0x180A /* export_765, CODE:16 @ 000001CC */]
00002BA0  101F                     move.b     D0, [A7]+
00002BA2  6704                     beq        +0x6 /* 00002BA8 */
00002BA4  6000 00DA                bra        +0xDC /* 00002C80 */
label00002BA8:
00002BA8  4240                     clr.w      D0
00002BAA  102E FF00                move.b     D0, [A6 - 0x100]
00002BAE  3E00                     move.w     D7, D0
00002BB0  5247                     addq.w     D7, 1
00002BB2  41EE FF00                lea.l      A0, [A6 - 0x100]
00002BB6  4230 7000                clr.b      [A0 + D7.w]
00002BBA  4267                     clr.w      -[A7]
00002BBC  2F05                     move.l     -[A7], D5
00002BBE  3007                     move.w     D0, D7
00002BC0  48C0                     ext.l      D0
00002BC2  2F00                     move.l     -[A7], D0
00002BC4  486E FEF8                pea.l      [A6 - 0x108]
00002BC8  4EBA EC0E                jsr        [PC - 0x13F2 /* 000017D8 */]
00002BCC  101F                     move.b     D0, [A7]+
00002BCE  6700 00B0                beq        +0xB2 /* 00002C80 */
00002BD2  42A7                     clr.l      -[A7]
00002BD4  2F05                     move.l     -[A7], D5
00002BD6  4EAD 1F7A                jsr        [A5 + 0x1F7A /* export_1003, CODE:19 @ 00001744 */]
00002BDA  285F                     movea.l    A4, [A7]+
00002BDC  2054                     movea.l    A0, [A4]
00002BDE  2028 0028                move.l     D0, [A0 + 0x28]
00002BE2  7232                     moveq.l    D1, 0x32
00002BE4  D081                     add.l      D0, D1
00002BE6  2054                     movea.l    A0, [A4]
00002BE8  2228 002E                move.l     D1, [A0 + 0x2E]
00002BEC  D280                     add.l      D1, D0
00002BEE  2D41 FEF8                move.l     [A6 - 0x108], D1
00002BF2  266E FEF8                movea.l    A3, [A6 - 0x108]
00002BF6  D7D4                     add.l      A3, [A4]
00002BF8  42A7                     clr.l      -[A7]
00002BFA  2F0B                     move.l     -[A7], A3
00002BFC  4EAD 1ADA                jsr        [A5 + 0x1ADA /* export_855, CODE:16 @ 00001C66 */]
00002C00  201F                     move.l     D0, [A7]+
00002C02  5280                     addq.l     D0, 1
00002C04  3C00                     move.w     D6, D0
00002C06  BC47                     cmp.w      D6, D7
00002C08  6734                     beq        +0x36 /* 00002C3E */
00002C0A  3006                     move.w     D0, D6
00002C0C  48C0                     ext.l      D0
00002C0E  D08B                     add.l      D0, A3
00002C10  2D40 FEEC                move.l     [A6 - 0x114], D0
00002C14  3007                     move.w     D0, D7
00002C16  48C0                     ext.l      D0
00002C18  D08B                     add.l      D0, A3
00002C1A  2D40 FEE8                move.l     [A6 - 0x118], D0
00002C1E  2054                     movea.l    A0, [A4]
00002C20  2810                     move.l     D4, [A0]
00002C22  D894                     add.l      D4, [A4]
00002C24  2F2E FEEC                move.l     -[A7], [A6 - 0x114]
00002C28  2F2E FEE8                move.l     -[A7], [A6 - 0x118]
00002C2C  2004                     move.l     D0, D4
00002C2E  90AE FEEC                sub.l      D0, [A6 - 0x114]
00002C32  3207                     move.w     D1, D7
00002C34  48C1                     ext.l      D1
00002C36  9081                     sub.l      D0, D1
00002C38  2F00                     move.l     -[A7], D0
00002C3A  4EAD 024A                jsr        [A5 + 0x24A /* export_69, CODE:1 @ 000046A6 */]
label00002C3E:
00002C3E  41EE FF00                lea.l      A0, [A6 - 0x100]
00002C42  2008                     move.l     D0, A0
00002C44  5280                     addq.l     D0, 1
00002C46  2D40 FEEC                move.l     [A6 - 0x114], D0
00002C4A  2D4B FEE8                move.l     [A6 - 0x118], A3
00002C4E  486E FEEC                pea.l      [A6 - 0x114]
00002C52  486E FEE8                pea.l      [A6 - 0x118]
00002C56  4EAD 19CA                jsr        [A5 + 0x19CA /* export_821, CODE:16 @ 00001164 */]
00002C5A  1D7C 0001 0010           move.b     [A6 + 0x10], 0x1
00002C60  2F05                     move.l     -[A7], D5
00002C62  1F3C 0001                move.b     -[A7], 0x1
00002C66  4EAD 1EF2                jsr        [A5 + 0x1EF2 /* export_986, CODE:19 @ 00000450 */]
00002C6A  2F2D F670                move.l     -[A7], [A5 - 0x990]
00002C6E  42A7                     clr.l      -[A7]
00002C70  2F2D F670                move.l     -[A7], [A5 - 0x990]
00002C74  2F05                     move.l     -[A7], D5
00002C76  4EBA F840                jsr        [PC - 0x7C0 /* 000024B8 */]
00002C7A  4267                     clr.w      -[A7]
00002C7C  4EBA 0C9A                jsr        [PC + 0xC9A /* 00003918 */]
label00002C80:
00002C80  4CDF 18F0                movem.l    D4,D5,D6,D7,A3,A4, [A7]+
00002C84  4E5E                     unlink     A6
00002C86  205F                     movea.l    A0, [A7]+
00002C88  504F                     addq.w     A7, 8
00002C8A  4ED0                     jmp        [A0]
export_968:
00002C8C  4E56 FFE4                link       A6, -0x001C
00002C90  48E7 0718                movem.l    -[A7], D5,D6,D7,A3,A4
00002C94  2A2E 000C                move.l     D5, [A6 + 0xC]
00002C98  422E 0010                clr.b      [A6 + 0x10]
00002C9C  42A7                     clr.l      -[A7]
00002C9E  206E 0008                movea.l    A0, [A6 + 0x8]
00002CA2  2F10                     move.l     -[A7], [A0]
00002CA4  4EAD 1ADA                jsr        [A5 + 0x1ADA /* export_855, CODE:16 @ 00001C66 */]
00002CA8  201F                     move.l     D0, [A7]+
00002CAA  5280                     addq.l     D0, 1
00002CAC  3E00                     move.w     D7, D0
00002CAE  0C47 7530                cmpi.w     D7, 0x7530 /* 'u0' */
00002CB2  6E00 00CC                bgt        +0xCE /* 00002D80 */
00002CB6  4267                     clr.w      -[A7]
00002CB8  2F05                     move.l     -[A7], D5
00002CBA  3007                     move.w     D0, D7
00002CBC  48C0                     ext.l      D0
00002CBE  2F00                     move.l     -[A7], D0
00002CC0  486E FFF8                pea.l      [A6 - 0x8]
00002CC4  4EBA EB12                jsr        [PC - 0x14EE /* 000017D8 */]
00002CC8  101F                     move.b     D0, [A7]+
00002CCA  6604                     bne        +0x6 /* 00002CD0 */
00002CCC  6000 00B2                bra        +0xB4 /* 00002D80 */
label00002CD0:
00002CD0  42A7                     clr.l      -[A7]
00002CD2  2F05                     move.l     -[A7], D5
00002CD4  4EAD 1F7A                jsr        [A5 + 0x1F7A /* export_1003, CODE:19 @ 00001744 */]
00002CD8  285F                     movea.l    A4, [A7]+
00002CDA  2054                     movea.l    A0, [A4]
00002CDC  2028 0028                move.l     D0, [A0 + 0x28]
00002CE0  7232                     moveq.l    D1, 0x32
00002CE2  D081                     add.l      D0, D1
00002CE4  2054                     movea.l    A0, [A4]
00002CE6  2228 002E                move.l     D1, [A0 + 0x2E]
00002CEA  D280                     add.l      D1, D0
00002CEC  2D41 FFF8                move.l     [A6 - 0x8], D1
00002CF0  202E FFF8                move.l     D0, [A6 - 0x8]
00002CF4  D094                     add.l      D0, [A4]
00002CF6  2D40 FFF0                move.l     [A6 - 0x10], D0
00002CFA  486E FFF0                pea.l      [A6 - 0x10]
00002CFE  4EAD 1932                jsr        [A5 + 0x1932 /* export_802, CODE:16 @ 00000C5A */]
00002D02  42A7                     clr.l      -[A7]
00002D04  2F2E FFF0                move.l     -[A7], [A6 - 0x10]
00002D08  4EAD 1ADA                jsr        [A5 + 0x1ADA /* export_855, CODE:16 @ 00001C66 */]
00002D0C  201F                     move.l     D0, [A7]+
00002D0E  5280                     addq.l     D0, 1
00002D10  3C00                     move.w     D6, D0
00002D12  BC47                     cmp.w      D6, D7
00002D14  6738                     beq        +0x3A /* 00002D4E */
00002D16  3006                     move.w     D0, D6
00002D18  48C0                     ext.l      D0
00002D1A  D0AE FFF0                add.l      D0, [A6 - 0x10]
00002D1E  2D40 FFEC                move.l     [A6 - 0x14], D0
00002D22  3007                     move.w     D0, D7
00002D24  48C0                     ext.l      D0
00002D26  D0AE FFF0                add.l      D0, [A6 - 0x10]
00002D2A  2D40 FFE8                move.l     [A6 - 0x18], D0
00002D2E  2054                     movea.l    A0, [A4]
00002D30  2650                     movea.l    A3, [A0]
00002D32  D7D4                     add.l      A3, [A4]
00002D34  2F2E FFEC                move.l     -[A7], [A6 - 0x14]
00002D38  2F2E FFE8                move.l     -[A7], [A6 - 0x18]
00002D3C  200B                     move.l     D0, A3
00002D3E  90AE FFEC                sub.l      D0, [A6 - 0x14]
00002D42  3207                     move.w     D1, D7
00002D44  48C1                     ext.l      D1
00002D46  9081                     sub.l      D0, D1
00002D48  2F00                     move.l     -[A7], D0
00002D4A  4EAD 024A                jsr        [A5 + 0x24A /* export_69, CODE:1 @ 000046A6 */]
label00002D4E:
00002D4E  206E 0008                movea.l    A0, [A6 + 0x8]
00002D52  2D50 FFEC                move.l     [A6 - 0x14], [A0]
00002D56  2D6E FFF0 FFE8           move.l     [A6 - 0x18], [A6 - 0x10]
00002D5C  486E FFEC                pea.l      [A6 - 0x14]
00002D60  486E FFE8                pea.l      [A6 - 0x18]
00002D64  4EAD 19CA                jsr        [A5 + 0x19CA /* export_821, CODE:16 @ 00001164 */]
00002D68  1D7C 0001 0010           move.b     [A6 + 0x10], 0x1
00002D6E  2F05                     move.l     -[A7], D5
00002D70  1F3C 0001                move.b     -[A7], 0x1
00002D74  4EAD 1EF2                jsr        [A5 + 0x1EF2 /* export_986, CODE:19 @ 00000450 */]
00002D78  2F05                     move.l     -[A7], D5
00002D7A  4267                     clr.w      -[A7]
00002D7C  4EAD 109A                jsr        [A5 + 0x109A /* export_527, CODE:9 @ 000046AA */]
label00002D80:
00002D80  4CDF 18E0                movem.l    D5,D6,D7,A3,A4, [A7]+
00002D84  4E5E                     unlink     A6
00002D86  205F                     movea.l    A0, [A7]+
00002D88  504F                     addq.w     A7, 8
00002D8A  4ED0                     jmp        [A0]
fn00002D8C:
00002D8C  4E56 FFDE                link       A6, -0x0022
00002D90  48E7 0F18                movem.l    -[A7], D4,D5,D6,D7,A3,A4
00002D94  422E 0014                clr.b      [A6 + 0x14]
00002D98  4AAE 000C                tst.l      [A6 + 0xC]
00002D9C  6E04                     bgt        +0x6 /* 00002DA2 */
00002D9E  6000 00E8                bra        +0xEA /* 00002E88 */
label00002DA2:
00002DA2  42A7                     clr.l      -[A7]
00002DA4  2F2E 0010                move.l     -[A7], [A6 + 0x10]
00002DA8  4EAD 1F82                jsr        [A5 + 0x1F82 /* export_1004, CODE:19 @ 00001770 */]
00002DAC  2C1F                     move.l     D6, [A7]+
00002DAE  6604                     bne        +0x6 /* 00002DB4 */
00002DB0  6000 00D6                bra        +0xD8 /* 00002E88 */
label00002DB4:
00002DB4  2046                     movea.l    A0, D6
00002DB6  2050                     movea.l    A0, [A0]
00002DB8  202E 000C                move.l     D0, [A6 + 0xC]
00002DBC  B0A8 0014                cmp.l      D0, [A0 + 0x14]
00002DC0  6E00 00BC                bgt        +0xBE /* 00002E7E */
00002DC4  2046                     movea.l    A0, D6
00002DC6  2050                     movea.l    A0, [A0]
00002DC8  3028 0018                move.w     D0, [A0 + 0x18]
00002DCC  48C0                     ext.l      D0
00002DCE  2E00                     move.l     D7, D0
00002DD0  2046                     movea.l    A0, D6
00002DD2  2850                     movea.l    A4, [A0]
00002DD4  7030                     moveq.l    D0, 0x30
00002DD6  D9C0                     add.l      A4, D0
00002DD8  2A2E 000C                move.l     D5, [A6 + 0xC]
label00002DDC:
00002DDC  302C 0004                move.w     D0, [A4 + 0x4]
00002DE0  48C0                     ext.l      D0
00002DE2  B085                     cmp.l      D0, D5
00002DE4  6C0C                     bge        +0xE /* 00002DF2 */
00002DE6  302C 0004                move.w     D0, [A4 + 0x4]
00002DEA  48C0                     ext.l      D0
00002DEC  9A80                     sub.l      D5, D0
00002DEE  5C8C                     addq.l     A4, 6
00002DF0  60EA                     bra        -0x14 /* 00002DDC */
label00002DF2:
00002DF2  2814                     move.l     D4, [A4]
00002DF4  42A7                     clr.l      -[A7]
00002DF6  2F04                     move.l     -[A7], D4
00002DF8  4EAD 1F92                jsr        [A5 + 0x1F92 /* export_1006, CODE:19 @ 00001B32 */]
00002DFC  265F                     movea.l    A3, [A7]+
00002DFE  200B                     move.l     D0, A3
00002E00  677C                     beq        +0x7E /* 00002E7E */
00002E02  2053                     movea.l    A0, [A3]
00002E04  2F08                     move.l     -[A7], A0
00002E06  42A7                     clr.l      -[A7]
00002E08  2F0B                     move.l     -[A7], A3
00002E0A  3F07                     move.w     -[A7], D7
00002E0C  3F2C 0004                move.w     -[A7], [A4 + 0x4]
00002E10  4EAD 19AA                jsr        [A5 + 0x19AA /* export_817, CODE:16 @ 0000109E */]
00002E14  201F                     move.l     D0, [A7]+
00002E16  205F                     movea.l    A0, [A7]+
00002E18  B0A8 0010                cmp.l      D0, [A0 + 0x10]
00002E1C  57C0                     seq        D0
00002E1E  4400                     neg.b      D0
00002E20  1D40 FFDF                move.b     [A6 - 0x21], D0
00002E24  2005                     move.l     D0, D5
00002E26  5380                     subq.l     D0, 1
00002E28  2F00                     move.l     -[A7], D0
00002E2A  2F07                     move.l     -[A7], D7
00002E2C  4EAD 04EA                jsr        [A5 + 0x4EA /* export_153, CODE:1 @ 000051F0 */]
00002E30  201F                     move.l     D0, [A7]+
00002E32  7218                     moveq.l    D1, 0x18
00002E34  D081                     add.l      D0, D1
00002E36  2D40 FFE4                move.l     [A6 - 0x1C], D0
00002E3A  D093                     add.l      D0, [A3]
00002E3C  2D40 FFE0                move.l     [A6 - 0x20], D0
00002E40  2F2E 0008                move.l     -[A7], [A6 + 0x8]
00002E44  2F2E FFE0                move.l     -[A7], [A6 - 0x20]
00002E48  2F07                     move.l     -[A7], D7
00002E4A  4EAD 19B2                jsr        [A5 + 0x19B2 /* export_818, CODE:16 @ 000010BE */]
00002E4E  1D7C 0001 0014           move.b     [A6 + 0x14], 0x1
00002E54  102E FFDF                move.b     D0, [A6 - 0x21]
00002E58  671A                     beq        +0x1C /* 00002E74 */
00002E5A  2053                     movea.l    A0, [A3]
00002E5C  2F08                     move.l     -[A7], A0
00002E5E  42A7                     clr.l      -[A7]
00002E60  2F0B                     move.l     -[A7], A3
00002E62  3F07                     move.w     -[A7], D7
00002E64  3F2C 0004                move.w     -[A7], [A4 + 0x4]
00002E68  4EAD 19AA                jsr        [A5 + 0x19AA /* export_817, CODE:16 @ 0000109E */]
00002E6C  201F                     move.l     D0, [A7]+
00002E6E  205F                     movea.l    A0, [A7]+
00002E70  2140 0010                move.l     [A0 + 0x10], D0
label00002E74:
00002E74  2F04                     move.l     -[A7], D4
00002E76  1F3C 0001                move.b     -[A7], 0x1
00002E7A  4EAD 1F0A                jsr        [A5 + 0x1F0A /* export_989, CODE:19 @ 00000586 */]
label00002E7E:
00002E7E  2F2E 0010                move.l     -[A7], [A6 + 0x10]
00002E82  4267                     clr.w      -[A7]
00002E84  4EAD 1EFA                jsr        [A5 + 0x1EFA /* export_987, CODE:19 @ 0000046E */]
label00002E88:
00002E88  4CDF 18F0                movem.l    D4,D5,D6,D7,A3,A4, [A7]+
00002E8C  4E5E                     unlink     A6
00002E8E  205F                     movea.l    A0, [A7]+
00002E90  DEFC 000C                add.w      A7, 0xC
00002E94  4ED0                     jmp        [A0]
export_969:
00002E96  4E56 FFD8                link       A6, -0x0028
00002E9A  48E7 0118                movem.l    -[A7], D7,A3,A4
00002E9E  206E 0008                movea.l    A0, [A6 + 0x8]
00002EA2  43EE FFE2                lea.l      A1, [A6 - 0x1E]
00002EA6  7006                     moveq.l    D0, 0x06
label00002EA8:
00002EA8  22D8                     move.l     [A1]+, [A0]+
00002EAA  51C8 FFFC                dbf        D0, -0x6 /* 00002EA8 */
00002EAE  3290                     move.w     [A1], [A0]
00002EB0  422E 0010                clr.b      [A6 + 0x10]
00002EB4  4A6E FFFA                tst.w      [A6 - 0x6]
00002EB8  5FC0                     sle        D0
00002EBA  4A6E FFFE                tst.w      [A6 - 0x2]
00002EBE  5FC1                     sle        D1
00002EC0  8001                     or.b       D0, D1
00002EC2  6702                     beq        +0x4 /* 00002EC6 */
00002EC4  6062                     bra        +0x64 /* 00002F28 */
label00002EC6:
00002EC6  42A7                     clr.l      -[A7]
00002EC8  2F2E 000C                move.l     -[A7], [A6 + 0xC]
00002ECC  4EAD 1F9A                jsr        [A5 + 0x1F9A /* export_1007, CODE:19 @ 00001B6A */]
00002ED0  265F                     movea.l    A3, [A7]+
00002ED2  200B                     move.l     D0, A3
00002ED4  6752                     beq        +0x54 /* 00002F28 */
00002ED6  4207                     clr.b      D7
00002ED8  42A7                     clr.l      -[A7]
00002EDA  2F0B                     move.l     -[A7], A3
00002EDC  3F2E FFE4                move.w     -[A7], [A6 - 0x1C]
00002EE0  4EBA E03C                jsr        [PC - 0x1FC4 /* 00000F1E */]
00002EE4  285F                     movea.l    A4, [A7]+
00002EE6  200C                     move.l     D0, A4
00002EE8  6734                     beq        +0x36 /* 00002F1E */
00002EEA  3D54 FFE2                move.w     [A6 - 0x1E], [A4]
00002EEE  4267                     clr.w      -[A7]
00002EF0  486E FFE2                pea.l      [A6 - 0x1E]
00002EF4  2F0C                     move.l     -[A7], A4
00002EF6  3F3C 001E                move.w     -[A7], 0x1E
00002EFA  4EAD 19FA                jsr        [A5 + 0x19FA /* export_827, CODE:16 @ 00001412 */]
00002EFE  1E1F                     move.b     D7, [A7]+
00002F00  0A07 0001                xori.b     D7, 0x1
00002F04  1007                     move.b     D0, D7
00002F06  6710                     beq        +0x12 /* 00002F18 */
00002F08  41EE FFE2                lea.l      A0, [A6 - 0x1E]
00002F0C  224C                     movea.l    A1, A4
00002F0E  7006                     moveq.l    D0, 0x06
label00002F10:
00002F10  22D8                     move.l     [A1]+, [A0]+
00002F12  51C8 FFFC                dbf        D0, -0x6 /* 00002F10 */
00002F16  3290                     move.w     [A1], [A0]
label00002F18:
00002F18  1D7C 0001 0010           move.b     [A6 + 0x10], 0x1
label00002F1E:
00002F1E  2F2E 000C                move.l     -[A7], [A6 + 0xC]
00002F22  1F07                     move.b     -[A7], D7
00002F24  4EAD 1F1A                jsr        [A5 + 0x1F1A /* export_991, CODE:19 @ 000006D4 */]
label00002F28:
00002F28  4CDF 1880                movem.l    D7,A3,A4, [A7]+
00002F2C  4E5E                     unlink     A6
00002F2E  205F                     movea.l    A0, [A7]+
00002F30  504F                     addq.w     A7, 8
00002F32  4ED0                     jmp        [A0]
export_970:
00002F34  4E56 FDDE                link       A6, -0x0222
00002F38  206E 0008                movea.l    A0, [A6 + 0x8]
00002F3C  43EE FF00                lea.l      A1, [A6 - 0x100]
00002F40  703F                     moveq.l    D0, 0x3F
label00002F42:
00002F42  22D8                     move.l     [A1]+, [A0]+
00002F44  51C8 FFFC                dbf        D0, -0x6 /* 00002F42 */
00002F48  422E 0012                clr.b      [A6 + 0x12]
00002F4C  4267                     clr.w      -[A7]
00002F4E  486E FF00                pea.l      [A6 - 0x100]
00002F52  4EAD 180A                jsr        [A5 + 0x180A /* export_765, CODE:16 @ 000001CC */]
00002F56  101F                     move.b     D0, [A7]+
00002F58  6702                     beq        +0x4 /* 00002F5C */
00002F5A  6064                     bra        +0x66 /* 00002FC0 */
label00002F5C:
00002F5C  4267                     clr.w      -[A7]
00002F5E  2F2E 000E                move.l     -[A7], [A6 + 0xE]
00002F62  3F2E 000C                move.w     -[A7], [A6 + 0xC]
00002F66  486E FEE2                pea.l      [A6 - 0x11E]
00002F6A  486E FDE2                pea.l      [A6 - 0x21E]
00002F6E  486E FDDE                pea.l      [A6 - 0x222]
00002F72  4EBA 0890                jsr        [PC + 0x890 /* 00003804 */]
00002F76  101F                     move.b     D0, [A7]+
00002F78  6746                     beq        +0x48 /* 00002FC0 */
00002F7A  4267                     clr.w      -[A7]
00002F7C  486E FF00                pea.l      [A6 - 0x100]
00002F80  486E FDE2                pea.l      [A6 - 0x21E]
00002F84  4240                     clr.w      D0
00002F86  102E FF00                move.b     D0, [A6 - 0x100]
00002F8A  5240                     addq.w     D0, 1
00002F8C  3F00                     move.w     -[A7], D0
00002F8E  4EAD 19FA                jsr        [A5 + 0x19FA /* export_827, CODE:16 @ 00001412 */]
00002F92  101F                     move.b     D0, [A7]+
00002F94  6708                     beq        +0xA /* 00002F9E */
00002F96  1D7C 0001 0012           move.b     [A6 + 0x12], 0x1
00002F9C  601A                     bra        +0x1C /* 00002FB8 */
label00002F9E:
00002F9E  4267                     clr.w      -[A7]
00002FA0  2F2E 000E                move.l     -[A7], [A6 + 0xE]
00002FA4  486E FEE2                pea.l      [A6 - 0x11E]
00002FA8  486E FF00                pea.l      [A6 - 0x100]
00002FAC  2F2E FDDE                move.l     -[A7], [A6 - 0x222]
00002FB0  4EBA ED76                jsr        [PC - 0x128A /* 00001D28 */]
00002FB4  1D5F 0012                move.b     [A6 + 0x12], [A7]+
label00002FB8:
00002FB8  2F2E FDDE                move.l     -[A7], [A6 - 0x222]
00002FBC  4EAD 18D2                jsr        [A5 + 0x18D2 /* export_790, CODE:16 @ 0000083E */]
label00002FC0:
00002FC0  4E5E                     unlink     A6
00002FC2  205F                     movea.l    A0, [A7]+
00002FC4  DEFC 000A                add.w      A7, 0xA /* '\n' */
00002FC8  4ED0                     jmp        [A0]
export_971:
00002FCA  4E56 FED6                link       A6, -0x012A
00002FCE  48E7 0708                movem.l    -[A7], D5,D6,D7,A4
00002FD2  286E 0008                movea.l    A4, [A6 + 0x8]
00002FD6  2A2E 000E                move.l     D5, [A6 + 0xE]
00002FDA  422E 0012                clr.b      [A6 + 0x12]
00002FDE  42A7                     clr.l      -[A7]
00002FE0  2F14                     move.l     -[A7], [A4]
00002FE2  4EAD 1ADA                jsr        [A5 + 0x1ADA /* export_855, CODE:16 @ 00001C66 */]
00002FE6  2E1F                     move.l     D7, [A7]+
00002FE8  0C87 0000 7530           cmpi.l     D7, 0x7530 /* 'u0' */
00002FEE  6F02                     ble        +0x4 /* 00002FF2 */
00002FF0  607C                     bra        +0x7E /* 0000306E */
label00002FF2:
00002FF2  4267                     clr.w      -[A7]
00002FF4  2F05                     move.l     -[A7], D5
00002FF6  3F2E 000C                move.w     -[A7], [A6 + 0xC]
00002FFA  486E FFE2                pea.l      [A6 - 0x1E]
00002FFE  486E FEE2                pea.l      [A6 - 0x11E]
00003002  486E FEDE                pea.l      [A6 - 0x122]
00003006  4EBA 07FC                jsr        [PC + 0x7FC /* 00003804 */]
0000300A  101F                     move.b     D0, [A7]+
0000300C  6760                     beq        +0x62 /* 0000306E */
0000300E  42A7                     clr.l      -[A7]
00003010  206E FEDE                movea.l    A0, [A6 - 0x122]
00003014  2F10                     move.l     -[A7], [A0]
00003016  4EAD 1ADA                jsr        [A5 + 0x1ADA /* export_855, CODE:16 @ 00001C66 */]
0000301A  2C1F                     move.l     D6, [A7]+
0000301C  BE86                     cmp.l      D7, D6
0000301E  57C0                     seq        D0
00003020  4A00                     tst.b      D0
00003022  6722                     beq        +0x24 /* 00003046 */
00003024  2F00                     move.l     -[A7], D0
00003026  4267                     clr.w      -[A7]
00003028  2F14                     move.l     -[A7], [A4]
0000302A  206E FEDE                movea.l    A0, [A6 - 0x122]
0000302E  2F10                     move.l     -[A7], [A0]
00003030  3F07                     move.w     -[A7], D7
00003032  4EAD 19FA                jsr        [A5 + 0x19FA /* export_827, CODE:16 @ 00001412 */]
00003036  121F                     move.b     D1, [A7]+
00003038  201F                     move.l     D0, [A7]+
0000303A  C001                     and.b      D0, D1
0000303C  6708                     beq        +0xA /* 00003046 */
0000303E  1D7C 0001 0012           move.b     [A6 + 0x12], 0x1
00003044  6020                     bra        +0x22 /* 00003066 */
label00003046:
00003046  4267                     clr.w      -[A7]
00003048  2F05                     move.l     -[A7], D5
0000304A  486E FFE2                pea.l      [A6 - 0x1E]
0000304E  486E FEE2                pea.l      [A6 - 0x11E]
00003052  2F0C                     move.l     -[A7], A4
00003054  4EBA ECD2                jsr        [PC - 0x132E /* 00001D28 */]
00003058  1D5F 0012                move.b     [A6 + 0x12], [A7]+
0000305C  2F05                     move.l     -[A7], D5
0000305E  3F2E 000C                move.w     -[A7], [A6 + 0xC]
00003062  4EAD 10A2                jsr        [A5 + 0x10A2 /* export_528, CODE:9 @ 00004722 */]
label00003066:
00003066  2F2E FEDE                move.l     -[A7], [A6 - 0x122]
0000306A  4EAD 18D2                jsr        [A5 + 0x18D2 /* export_790, CODE:16 @ 0000083E */]
label0000306E:
0000306E  4CDF 10E0                movem.l    D5,D6,D7,A4, [A7]+
00003072  4E5E                     unlink     A6
00003074  205F                     movea.l    A0, [A7]+
00003076  DEFC 000A                add.w      A7, 0xA /* '\n' */
0000307A  4ED0                     jmp        [A0]
export_972:
0000307C  4E56 FBAA                link       A6, -0x0456
00003080  206E 0008                movea.l    A0, [A6 + 0x8]
00003084  43EE FF00                lea.l      A1, [A6 - 0x100]
00003088  703F                     moveq.l    D0, 0x3F
label0000308A:
0000308A  22D8                     move.l     [A1]+, [A0]+
0000308C  51C8 FFFC                dbf        D0, -0x6 /* 0000308A */
00003090  4267                     clr.w      -[A7]
00003092  486E FF00                pea.l      [A6 - 0x100]
00003096  486D FD48                pea.l      [A5 - 0x2B8]
0000309A  1F3C 0001                move.b     -[A7], 0x1
0000309E  1F3C 0001                move.b     -[A7], 0x1
000030A2  4EAD 02A2                jsr        [A5 + 0x2A2 /* export_80, CODE:1 @ 0000475C */]
000030A6  101F                     move.b     D0, [A7]+
000030A8  670A                     beq        +0xC /* 000030B4 */
000030AA  1D7C 0001 000C           move.b     [A6 + 0xC], 0x1
000030B0  6000 013C                bra        +0x13E /* 000031EE */
label000030B4:
000030B4  422E 000C                clr.b      [A6 + 0xC]
000030B8  102D F4CD                move.b     D0, [A5 - 0xB33]
000030BC  6704                     beq        +0x6 /* 000030C2 */
000030BE  6000 012E                bra        +0x130 /* 000031EE */
label000030C2:
000030C2  4240                     clr.w      D0
000030C4  102E FF00                move.b     D0, [A6 - 0x100]
000030C8  721E                     moveq.l    D1, 0x1E
000030CA  B240                     cmp.w      D1, D0
000030CC  6C04                     bge        +0x6 /* 000030D2 */
000030CE  6000 011E                bra        +0x120 /* 000031EE */
label000030D2:
000030D2  4267                     clr.w      -[A7]
000030D4  486E FF00                pea.l      [A6 - 0x100]
000030D8  4EAD 180A                jsr        [A5 + 0x180A /* export_765, CODE:16 @ 000001CC */]
000030DC  101F                     move.b     D0, [A7]+
000030DE  6704                     beq        +0x6 /* 000030E4 */
000030E0  6000 010C                bra        +0x10E /* 000031EE */
label000030E4:
000030E4  486D FC48                pea.l      [A5 - 0x3B8]
000030E8  486D FD48                pea.l      [A5 - 0x2B8]
000030EC  486E FBAA                pea.l      [A6 - 0x456]
000030F0  3F3C 0002                move.w     -[A7], 0x2
000030F4  4EAD 050A                jsr        [A5 + 0x50A /* export_157, CODE:1 @ 0000531E */]
000030F8  41EE FCAE                lea.l      A0, [A6 - 0x352]
000030FC  43EE FBAA                lea.l      A1, [A6 - 0x456]
00003100  703F                     moveq.l    D0, 0x3F
label00003102:
00003102  20D9                     move.l     [A0]+, [A1]+
00003104  51C8 FFFC                dbf        D0, -0x6 /* 00003102 */
00003108  4267                     clr.w      -[A7]
0000310A  486E FCAE                pea.l      [A6 - 0x352]
0000310E  486D F4FE                pea.l      [A5 - 0xB02]
00003112  486D F5FE                pea.l      [A5 - 0xA02]
00003116  486E FBAA                pea.l      [A6 - 0x456]
0000311A  3F3C 0002                move.w     -[A7], 0x2
0000311E  4EAD 050A                jsr        [A5 + 0x50A /* export_157, CODE:1 @ 0000531E */]
00003122  486E FBAA                pea.l      [A6 - 0x456]
00003126  4EAD 1AC2                jsr        [A5 + 0x1AC2 /* export_852, CODE:16 @ 00001B82 */]
0000312A  101F                     move.b     D0, [A7]+
0000312C  670C                     beq        +0xE /* 0000313A */
0000312E  3F3C 0015                move.w     -[A7], 0x15
00003132  4EAD 187A                jsr        [A5 + 0x187A /* export_779, CODE:16 @ 00000500 */]
00003136  6000 00B6                bra        +0xB8 /* 000031EE */
label0000313A:
0000313A  487A 00B8                pea.l      [PC + 0xB8 /* 000031F4, value 0x13A4E56 */]
0000313E  486E FF00                pea.l      [A6 - 0x100]
00003142  4EAD 0502                jsr        [A5 + 0x502 /* export_156, CODE:1 @ 000052D2 */]
00003146  4A5F                     tst.w      [A7]+
00003148  670C                     beq        +0xE /* 00003156 */
0000314A  3F3C 0016                move.w     -[A7], 0x16
0000314E  4EAD 187A                jsr        [A5 + 0x187A /* export_779, CODE:16 @ 00000500 */]
00003152  6000 009A                bra        +0x9C /* 000031EE */
label00003156:
00003156  2F2D F4E0                move.l     -[A7], [A5 - 0xB20]
0000315A  1F3C 0001                move.b     -[A7], 0x1
0000315E  4EAD 108A                jsr        [A5 + 0x108A /* export_525, CODE:9 @ 000045EC */]
00003162  486D FC48                pea.l      [A5 - 0x3B8]
00003166  486E FF00                pea.l      [A6 - 0x100]
0000316A  486E FBAA                pea.l      [A6 - 0x456]
0000316E  3F3C 0002                move.w     -[A7], 0x2
00003172  4EAD 050A                jsr        [A5 + 0x50A /* export_157, CODE:1 @ 0000531E */]
00003176  41EE FE00                lea.l      A0, [A6 - 0x200]
0000317A  43EE FBAA                lea.l      A1, [A6 - 0x456]
0000317E  703F                     moveq.l    D0, 0x3F
label00003180:
00003180  20D9                     move.l     [A0]+, [A1]+
00003182  51C8 FFFC                dbf        D0, -0x6 /* 00003180 */
00003186  486E FDAE                pea.l      [A6 - 0x252]
0000318A  7050                     moveq.l    D0, 0x50
0000318C  2F00                     move.l     -[A7], D0
0000318E  4EAD 1B42                jsr        [A5 + 0x1B42 /* export_868, CODE:16 @ 00001E7C */]
00003192  41EE FCAE                lea.l      A0, [A6 - 0x352]
00003196  2D48 FDC0                move.l     [A6 - 0x240], A0
0000319A  41EE FE00                lea.l      A0, [A6 - 0x200]
0000319E  2D48 FDCA                move.l     [A6 - 0x236], A0
000031A2  4267                     clr.w      -[A7]
000031A4  486E FDAE                pea.l      [A6 - 0x252]
000031A8  4267                     clr.w      -[A7]
000031AA  4EAD 02D2                jsr        [A5 + 0x2D2 /* export_86, CODE:1 @ 000047FC */]
000031AE  4A5F                     tst.w      [A7]+
000031B0  6634                     bne        +0x36 /* 000031E6 */
000031B2  2D6D F4E0 FCAA           move.l     [A6 - 0x356], [A5 - 0xB20]
000031B8  41ED FD48                lea.l      A0, [A5 - 0x2B8]
000031BC  43EE FF00                lea.l      A1, [A6 - 0x100]
000031C0  7007                     moveq.l    D0, 0x07
label000031C2:
000031C2  20D9                     move.l     [A0]+, [A1]+
000031C4  51C8 FFFC                dbf        D0, -0x6 /* 000031C2 */
000031C8  42A7                     clr.l      -[A7]
000031CA  486E FE00                pea.l      [A6 - 0x200]
000031CE  4EAD 1FE2                jsr        [A5 + 0x1FE2 /* export_1016, CODE:19 @ 0000227C */]
000031D2  2B5F F4E0                move.l     [A5 - 0xB20], [A7]+
000031D6  2F2E FCAA                move.l     -[A7], [A6 - 0x356]
000031DA  4EAD 215A                jsr        [A5 + 0x215A /* export_1063, CODE:20 @ 000034F6 */]
000031DE  1D7C 0001 000C           move.b     [A6 + 0xC], 0x1
000031E4  6008                     bra        +0xA /* 000031EE */
label000031E6:
000031E6  3F3C 0017                move.w     -[A7], 0x17
000031EA  4EAD 187A                jsr        [A5 + 0x187A /* export_779, CODE:16 @ 00000500 */]
label000031EE:
000031EE  4E5E                     unlink     A6
000031F0  2E9F                     move.l     [A7], [A7]+
000031F2  4E75                     rts
000031F4  013A 4E56                btst       [PC + 0x4E56 /* 0000804C */], D0
// begin alternate branch 000031F6-000031FA
export_973:
000031F6  4E56 FFAA                link       A6, -0x0056
// end alternate branch 000031F6-000031FA
export_973: // at 000031F6 (misaligned)
000031F8  FFAA                     .invalid   <<F/6/7>>
000031FA  48E7 0308                movem.l    -[A7], D6,D7,A4
000031FE  286E 0008                movea.l    A4, [A6 + 0x8]
00003202  422E 000C                clr.b      [A6 + 0xC]
00003206  102D F4CD                move.b     D0, [A5 - 0xB33]
0000320A  6704                     beq        +0x6 /* 00003210 */
0000320C  6000 00C8                bra        +0xCA /* 000032D6 */
label00003210:
00003210  42A7                     clr.l      -[A7]
00003212  2F14                     move.l     -[A7], [A4]
00003214  4EAD 1ADA                jsr        [A5 + 0x1ADA /* export_855, CODE:16 @ 00001C66 */]
00003218  2E1F                     move.l     D7, [A7]+
0000321A  5287                     addq.l     D7, 1
0000321C  0C87 0000 7530           cmpi.l     D7, 0x7530 /* 'u0' */
00003222  6F04                     ble        +0x6 /* 00003228 */
00003224  6000 00B0                bra        +0xB2 /* 000032D6 */
label00003228:
00003228  4267                     clr.w      -[A7]
0000322A  2007                     move.l     D0, D7
0000322C  D0BC 0000 0600           add.l      D0, 0x600
00003232  90AD F63C                sub.l      D0, [A5 - 0x9C4]
00003236  2F00                     move.l     -[A7], D0
00003238  4EAD 1F3A                jsr        [A5 + 0x1F3A /* export_995, CODE:19 @ 00001096 */]
0000323C  101F                     move.b     D0, [A7]+
0000323E  6700 0096                beq        +0x98 /* 000032D6 */
00003242  2F2D F636                move.l     -[A7], [A5 - 0x9CA]
00003246  2F07                     move.l     -[A7], D7
00003248  4EAD 1982                jsr        [A5 + 0x1982 /* export_812, CODE:16 @ 00000EAC */]
0000324C  4267                     clr.w      -[A7]
0000324E  3EB8 0220                move.w     [A7], [0x00000220 /* MemErr */]
00003252  4A5F                     tst.w      [A7]+
00003254  6702                     beq        +0x4 /* 00003258 */
00003256  607E                     bra        +0x80 /* 000032D6 */
label00003258:
00003258  202D F4E0                move.l     D0, [A5 - 0xB20]
0000325C  B0AD F4F0                cmp.l      D0, [A5 - 0xB10]
00003260  6624                     bne        +0x26 /* 00003286 */
00003262  2F2D F4F4                move.l     -[A7], [A5 - 0xB0C]
00003266  2F07                     move.l     -[A7], D7
00003268  4EAD 1982                jsr        [A5 + 0x1982 /* export_812, CODE:16 @ 00000EAC */]
0000326C  4267                     clr.w      -[A7]
0000326E  3EB8 0220                move.w     [A7], [0x00000220 /* MemErr */]
00003272  4A5F                     tst.w      [A7]+
00003274  6702                     beq        +0x4 /* 00003278 */
00003276  605E                     bra        +0x60 /* 000032D6 */
label00003278:
00003278  2F14                     move.l     -[A7], [A4]
0000327A  206D F4F4                movea.l    A0, [A5 - 0xB0C]
0000327E  2F10                     move.l     -[A7], [A0]
00003280  2F07                     move.l     -[A7], D7
00003282  4EAD 19B2                jsr        [A5 + 0x19B2 /* export_818, CODE:16 @ 000010BE */]
label00003286:
00003286  2F14                     move.l     -[A7], [A4]
00003288  206D F636                movea.l    A0, [A5 - 0x9CA]
0000328C  2F10                     move.l     -[A7], [A0]
0000328E  2F07                     move.l     -[A7], D7
00003290  4EAD 19B2                jsr        [A5 + 0x19B2 /* export_818, CODE:16 @ 000010BE */]
00003294  2F3C 0000 0600           move.l     -[A7], 0x600
0000329A  2F07                     move.l     -[A7], D7
0000329C  206D F636                movea.l    A0, [A5 - 0x9CA]
000032A0  2F10                     move.l     -[A7], [A0]
000032A2  4EAD 1FF2                jsr        [A5 + 0x1FF2 /* export_1018, CODE:19 @ 00002464 */]
000032A6  486E FFAA                pea.l      [A6 - 0x56]
000032AA  7050                     moveq.l    D0, 0x50
000032AC  2F00                     move.l     -[A7], D0
000032AE  4EAD 1B42                jsr        [A5 + 0x1B42 /* export_868, CODE:16 @ 00001E7C */]
000032B2  3D6D FD68 FFC2           move.w     [A6 - 0x3E], [A5 - 0x298]
000032B8  4267                     clr.w      -[A7]
000032BA  486E FFAA                pea.l      [A6 - 0x56]
000032BE  4267                     clr.w      -[A7]
000032C0  4EAD 02E2                jsr        [A5 + 0x2E2 /* export_88, CODE:1 @ 00004820 */]
000032C4  3C1F                     move.w     D6, [A7]+
000032C6  1D7C 0001 000C           move.b     [A6 + 0xC], 0x1
000032CC  2F2D F4E0                move.l     -[A7], [A5 - 0xB20]
000032D0  4267                     clr.w      -[A7]
000032D2  4EAD 108A                jsr        [A5 + 0x108A /* export_525, CODE:9 @ 000045EC */]
label000032D6:
000032D6  4CDF 10C0                movem.l    D6,D7,A4, [A7]+
000032DA  4E5E                     unlink     A6
000032DC  2E9F                     move.l     [A7], [A7]+
000032DE  4E75                     rts
export_974:
000032E0  4E56 FFCE                link       A6, -0x0032
000032E4  48E7 0F18                movem.l    -[A7], D4,D5,D6,D7,A3,A4
000032E8  422E 0016                clr.b      [A6 + 0x16]
000032EC  206E 0008                movea.l    A0, [A6 + 0x8]
000032F0  4210                     clr.b      [A0]
000032F2  4A6E 0010                tst.w      [A6 + 0x10]
000032F6  6700 0230                beq        +0x232 /* 00003528 */
000032FA  42A7                     clr.l      -[A7]
000032FC  206E 000C                movea.l    A0, [A6 + 0xC]
00003300  2F10                     move.l     -[A7], [A0]
00003302  4EAD 1ADA                jsr        [A5 + 0x1ADA /* export_855, CODE:16 @ 00001C66 */]
00003306  2C1F                     move.l     D6, [A7]+
00003308  5686                     addq.l     D6, 3
0000330A  0C86 0000 7530           cmpi.l     D6, 0x7530 /* 'u0' */
00003310  6E00 0216                bgt        +0x218 /* 00003528 */
00003314  42A7                     clr.l      -[A7]
00003316  2F2E 0012                move.l     -[A7], [A6 + 0x12]
0000331A  4EAD 1F7A                jsr        [A5 + 0x1F7A /* export_1003, CODE:19 @ 00001744 */]
0000331E  265F                     movea.l    A3, [A7]+
00003320  200B                     move.l     D0, A3
00003322  6700 0204                beq        +0x206 /* 00003528 */
00003326  42A7                     clr.l      -[A7]
00003328  2F0B                     move.l     -[A7], A3
0000332A  3F2E 0010                move.w     -[A7], [A6 + 0x10]
0000332E  4EAD 1C32                jsr        [A5 + 0x1C32 /* export_898, CODE:17 @ 00000A32 */]
00003332  2E1F                     move.l     D7, [A7]+
00003334  6604                     bne        +0x6 /* 0000333A */
00003336  7A00                     moveq.l    D5, 0x00
00003338  6014                     bra        +0x16 /* 0000334E */
label0000333A:
0000333A  42A7                     clr.l      -[A7]
0000333C  2F07                     move.l     -[A7], D7
0000333E  4EAD 1ADA                jsr        [A5 + 0x1ADA /* export_855, CODE:16 @ 00001C66 */]
00003342  2A1F                     move.l     D5, [A7]+
00003344  5685                     addq.l     D5, 3
00003346  2007                     move.l     D0, D7
00003348  9093                     sub.l      D0, [A3]
0000334A  2D40 FFD8                move.l     [A6 - 0x28], D0
label0000334E:
0000334E  BA86                     cmp.l      D5, D6
00003350  57C0                     seq        D0
00003352  4A00                     tst.b      D0
00003354  6720                     beq        +0x22 /* 00003376 */
00003356  2F00                     move.l     -[A7], D0
00003358  4267                     clr.w      -[A7]
0000335A  2F07                     move.l     -[A7], D7
0000335C  206E 000C                movea.l    A0, [A6 + 0xC]
00003360  2F10                     move.l     -[A7], [A0]
00003362  2206                     move.l     D1, D6
00003364  5781                     subq.l     D1, 3
00003366  3F01                     move.w     -[A7], D1
00003368  4EAD 19FA                jsr        [A5 + 0x19FA /* export_827, CODE:16 @ 00001412 */]
0000336C  121F                     move.b     D1, [A7]+
0000336E  201F                     move.l     D0, [A7]+
00003370  C001                     and.b      D0, D1
00003372  6600 01A0                bne        +0x1A2 /* 00003514 */
label00003376:
00003376  42A7                     clr.l      -[A7]
00003378  2F0B                     move.l     -[A7], A3
0000337A  4EBA 0344                jsr        [PC + 0x344 /* 000036C0 */]
0000337E  2006                     move.l     D0, D6
00003380  D09F                     add.l      D0, [A7]+
00003382  2800                     move.l     D4, D0
00003384  9885                     sub.l      D4, D5
00003386  7003                     moveq.l    D0, 0x03
00003388  B086                     cmp.l      D0, D6
0000338A  6658                     bne        +0x5A /* 000033E4 */
0000338C  4A87                     tst.l      D7
0000338E  6700 0184                beq        +0x186 /* 00003514 */
00003392  2007                     move.l     D0, D7
00003394  5580                     subq.l     D0, 2
00003396  2D40 FFE4                move.l     [A6 - 0x1C], D0
0000339A  2005                     move.l     D0, D5
0000339C  D0AE FFE4                add.l      D0, [A6 - 0x1C]
000033A0  2D40 FFE8                move.l     [A6 - 0x18], D0
000033A4  2053                     movea.l    A0, [A3]
000033A6  2010                     move.l     D0, [A0]
000033A8  D093                     add.l      D0, [A3]
000033AA  2D40 FFE0                move.l     [A6 - 0x20], D0
000033AE  2F2E FFE8                move.l     -[A7], [A6 - 0x18]
000033B2  2F2E FFE4                move.l     -[A7], [A6 - 0x1C]
000033B6  202E FFE0                move.l     D0, [A6 - 0x20]
000033BA  90AE FFE8                sub.l      D0, [A6 - 0x18]
000033BE  2F00                     move.l     -[A7], D0
000033C0  4EAD 024A                jsr        [A5 + 0x24A /* export_69, CODE:1 @ 000046A6 */]
000033C4  2053                     movea.l    A0, [A3]
000033C6  3028 002C                move.w     D0, [A0 + 0x2C]
000033CA  5340                     subq.w     D0, 1
000033CC  2053                     movea.l    A0, [A3]
000033CE  3140 002C                move.w     [A0 + 0x2C], D0
000033D2  2053                     movea.l    A0, [A3]
000033D4  2028 002E                move.l     D0, [A0 + 0x2E]
000033D8  9085                     sub.l      D0, D5
000033DA  2053                     movea.l    A0, [A3]
000033DC  2140 002E                move.l     [A0 + 0x2E], D0
000033E0  6000 00D4                bra        +0xD6 /* 000034B6 */
label000033E4:
000033E4  2053                     movea.l    A0, [A3]
000033E6  B890                     cmp.l      D4, [A0]
000033E8  6F18                     ble        +0x1A /* 00003402 */
000033EA  4267                     clr.w      -[A7]
000033EC  2F2E 0012                move.l     -[A7], [A6 + 0x12]
000033F0  2F3A 0144                move.l     -[A7], [PC + 0x144 /* 00003536, value 0x43415244 'CARD' */]
000033F4  2F04                     move.l     -[A7], D4
000033F6  4EAD 1FCA                jsr        [A5 + 0x1FCA /* export_1013, CODE:19 @ 00001F1E */]
000033FA  101F                     move.b     D0, [A7]+
000033FC  6604                     bne        +0x6 /* 00003402 */
000033FE  6000 011A                bra        +0x11C /* 0000351A */
label00003402:
00003402  2853                     movea.l    A4, [A3]
00003404  4A87                     tst.l      D7
00003406  6624                     bne        +0x26 /* 0000342C */
00003408  202C 0028                move.l     D0, [A4 + 0x28]
0000340C  7232                     moveq.l    D1, 0x32
0000340E  D081                     add.l      D0, D1
00003410  222C 002E                move.l     D1, [A4 + 0x2E]
00003414  D280                     add.l      D1, D0
00003416  2D41 FFEC                move.l     [A6 - 0x14], D1
0000341A  2E2E FFEC                move.l     D7, [A6 - 0x14]
0000341E  DE93                     add.l      D7, [A3]
00003420  302C 002C                move.w     D0, [A4 + 0x2C]
00003424  5240                     addq.w     D0, 1
00003426  3940 002C                move.w     [A4 + 0x2C], D0
0000342A  600A                     bra        +0xC /* 00003436 */
label0000342C:
0000342C  202E FFD8                move.l     D0, [A6 - 0x28]
00003430  D093                     add.l      D0, [A3]
00003432  2E00                     move.l     D7, D0
00003434  5587                     subq.l     D7, 2
label00003436:
00003436  BA86                     cmp.l      D5, D6
00003438  6752                     beq        +0x54 /* 0000348C */
0000343A  2006                     move.l     D0, D6
0000343C  D0AC 002E                add.l      D0, [A4 + 0x2E]
00003440  9085                     sub.l      D0, D5
00003442  2940 002E                move.l     [A4 + 0x2E], D0
00003446  2007                     move.l     D0, D7
00003448  D085                     add.l      D0, D5
0000344A  2D40 FFE8                move.l     [A6 - 0x18], D0
0000344E  2007                     move.l     D0, D7
00003450  D086                     add.l      D0, D6
00003452  2D40 FFE4                move.l     [A6 - 0x1C], D0
00003456  2014                     move.l     D0, [A4]
00003458  D093                     add.l      D0, [A3]
0000345A  2D40 FFE0                move.l     [A6 - 0x20], D0
0000345E  BA86                     cmp.l      D5, D6
00003460  6C0E                     bge        +0x10 /* 00003470 */
00003462  202E FFE0                move.l     D0, [A6 - 0x20]
00003466  90AE FFE4                sub.l      D0, [A6 - 0x1C]
0000346A  2D40 FFD0                move.l     [A6 - 0x30], D0
0000346E  600C                     bra        +0xE /* 0000347C */
label00003470:
00003470  202E FFE0                move.l     D0, [A6 - 0x20]
00003474  90AE FFE8                sub.l      D0, [A6 - 0x18]
00003478  2D40 FFD0                move.l     [A6 - 0x30], D0
label0000347C:
0000347C  2F2E FFE8                move.l     -[A7], [A6 - 0x18]
00003480  2F2E FFE4                move.l     -[A7], [A6 - 0x1C]
00003484  2F2E FFD0                move.l     -[A7], [A6 - 0x30]
00003488  4EAD 024A                jsr        [A5 + 0x24A /* export_69, CODE:1 @ 000046A6 */]
label0000348C:
0000348C  486E 0010                pea.l      [A6 + 0x10]
00003490  2F07                     move.l     -[A7], D7
00003492  7002                     moveq.l    D0, 0x02
00003494  2F00                     move.l     -[A7], D0
00003496  4EAD 19B2                jsr        [A5 + 0x19B2 /* export_818, CODE:16 @ 000010BE */]
0000349A  206E 000C                movea.l    A0, [A6 + 0xC]
0000349E  2D50 FFE8                move.l     [A6 - 0x18], [A0]
000034A2  2007                     move.l     D0, D7
000034A4  5480                     addq.l     D0, 2
000034A6  2D40 FFE4                move.l     [A6 - 0x1C], D0
000034AA  486E FFE8                pea.l      [A6 - 0x18]
000034AE  486E FFE4                pea.l      [A6 - 0x1C]
000034B2  4EAD 19CA                jsr        [A5 + 0x19CA /* export_821, CODE:16 @ 00001164 */]
label000034B6:
000034B6  206E 0008                movea.l    A0, [A6 + 0x8]
000034BA  10BC 0001                move.b     [A0], 0x1
000034BE  202E 0012                move.l     D0, [A6 + 0x12]
000034C2  B0AD F62A                cmp.l      D0, [A5 - 0x9D6]
000034C6  6608                     bne        +0xA /* 000034D0 */
000034C8  1B7C 0001 F033           move.b     [A5 - 0xFCD], 0x1
000034CE  6022                     bra        +0x24 /* 000034F2 */
label000034D0:
000034D0  42A7                     clr.l      -[A7]
000034D2  2F2D F670                move.l     -[A7], [A5 - 0x990]
000034D6  2F2E 0012                move.l     -[A7], [A6 + 0x12]
000034DA  4EBA EFDC                jsr        [PC - 0x1024 /* 000024B8 */]
000034DE  2D5F FFDC                move.l     [A6 - 0x24], [A7]+
000034E2  6736                     beq        +0x38 /* 0000351A */
000034E4  2F2D F670                move.l     -[A7], [A5 - 0x990]
000034E8  2F2E FFDC                move.l     -[A7], [A6 - 0x24]
000034EC  4267                     clr.w      -[A7]
000034EE  4EBA 0428                jsr        [PC + 0x428 /* 00003918 */]
label000034F2:
000034F2  2004                     move.l     D0, D4
000034F4  D0BC 0000 0400           add.l      D0, 0x400
000034FA  2053                     movea.l    A0, [A3]
000034FC  B090                     cmp.l      D0, [A0]
000034FE  6C14                     bge        +0x16 /* 00003514 */
00003500  4267                     clr.w      -[A7]
00003502  2F2E 0012                move.l     -[A7], [A6 + 0x12]
00003506  2F3A 002E                move.l     -[A7], [PC + 0x2E /* 00003536, value 0x43415244 'CARD' */]
0000350A  2F04                     move.l     -[A7], D4
0000350C  4EAD 1FCA                jsr        [A5 + 0x1FCA /* export_1013, CODE:19 @ 00001F1E */]
00003510  1D5F FFCF                move.b     [A6 - 0x31], [A7]+
label00003514:
00003514  1D7C 0001 0016           move.b     [A6 + 0x16], 0x1
label0000351A:
0000351A  2F2E 0012                move.l     -[A7], [A6 + 0x12]
0000351E  206E 0008                movea.l    A0, [A6 + 0x8]
00003522  1F10                     move.b     -[A7], [A0]
00003524  4EAD 1EF2                jsr        [A5 + 0x1EF2 /* export_986, CODE:19 @ 00000450 */]
label00003528:
00003528  4CDF 18F0                movem.l    D4,D5,D6,D7,A3,A4, [A7]+
0000352C  4E5E                     unlink     A6
0000352E  205F                     movea.l    A0, [A7]+
00003530  DEFC 000E                add.w      A7, 0xE
00003534  4ED0                     jmp        [A0]
00003536  4341                     chk.w      D1, D1
00003538  5244                     addq.w     D4, 1
export_975:
0000353A  4E56 FFDA                link       A6, -0x0026
0000353E  48E7 0F18                movem.l    -[A7], D4,D5,D6,D7,A3,A4
00003542  422E 0010                clr.b      [A6 + 0x10]
00003546  206E 0008                movea.l    A0, [A6 + 0x8]
0000354A  2050                     movea.l    A0, [A0]
0000354C  3828 0002                move.w     D4, [A0 + 0x2]
00003550  206E 0008                movea.l    A0, [A6 + 0x8]
00003554  2050                     movea.l    A0, [A0]
00003556  3E10                     move.w     D7, [A0]
00003558  4A44                     tst.w      D4
0000355A  5EC0                     sgt        D0
0000355C  4A00                     tst.b      D0
0000355E  6700 00E4                beq        +0xE6 /* 00003644 */
00003562  2F00                     move.l     -[A7], D0
00003564  4267                     clr.w      -[A7]
00003566  2F2E 000C                move.l     -[A7], [A6 + 0xC]
0000356A  3207                     move.w     D1, D7
0000356C  48C1                     ext.l      D1
0000356E  2F01                     move.l     -[A7], D1
00003570  486E FFF8                pea.l      [A6 - 0x8]
00003574  4EBA E262                jsr        [PC - 0x1D9E /* 000017D8 */]
00003578  121F                     move.b     D1, [A7]+
0000357A  201F                     move.l     D0, [A7]+
0000357C  C001                     and.b      D0, D1
0000357E  6700 00C4                beq        +0xC6 /* 00003644 */
00003582  42A7                     clr.l      -[A7]
00003584  2F2E 000C                move.l     -[A7], [A6 + 0xC]
00003588  4EAD 1F9A                jsr        [A5 + 0x1F9A /* export_1007, CODE:19 @ 00001B6A */]
0000358C  265F                     movea.l    A3, [A7]+
0000358E  286E FFF8                movea.l    A4, [A6 - 0x8]
00003592  D9D3                     add.l      A4, [A3]
00003594  2A0C                     move.l     D5, A4
00003596  700E                     moveq.l    D0, 0x0E
00003598  9A80                     sub.l      D5, D0
0000359A  2045                     movea.l    A0, D5
0000359C  3D50 FFDA                move.w     [A6 - 0x26], [A0]
000035A0  3D7C 0001 FFEE           move.w     [A6 - 0x12], 0x1
000035A6  6000 0084                bra        +0x86 /* 0000362C */
label000035AA:
000035AA  3C14                     move.w     D6, [A4]
000035AC  B86C 0002                cmp.w      D4, [A4 + 0x2]
000035B0  666E                     bne        +0x70 /* 00003620 */
000035B2  BC47                     cmp.w      D6, D7
000035B4  6750                     beq        +0x52 /* 00003606 */
000035B6  3006                     move.w     D0, D6
000035B8  48C0                     ext.l      D0
000035BA  D08C                     add.l      D0, A4
000035BC  2D40 FFE6                move.l     [A6 - 0x1A], D0
000035C0  3007                     move.w     D0, D7
000035C2  48C0                     ext.l      D0
000035C4  D08C                     add.l      D0, A4
000035C6  2D40 FFE2                move.l     [A6 - 0x1E], D0
000035CA  2053                     movea.l    A0, [A3]
000035CC  2010                     move.l     D0, [A0]
000035CE  D093                     add.l      D0, [A3]
000035D0  2D40 FFDE                move.l     [A6 - 0x22], D0
000035D4  2F2E FFE6                move.l     -[A7], [A6 - 0x1A]
000035D8  2F2E FFE2                move.l     -[A7], [A6 - 0x1E]
000035DC  202E FFDE                move.l     D0, [A6 - 0x22]
000035E0  90AE FFE6                sub.l      D0, [A6 - 0x1A]
000035E4  3207                     move.w     D1, D7
000035E6  48C1                     ext.l      D1
000035E8  9081                     sub.l      D0, D1
000035EA  2F00                     move.l     -[A7], D0
000035EC  4EAD 024A                jsr        [A5 + 0x24A /* export_69, CODE:1 @ 000046A6 */]
000035F0  2045                     movea.l    A0, D5
000035F2  3007                     move.w     D0, D7
000035F4  48C0                     ext.l      D0
000035F6  D0A8 0004                add.l      D0, [A0 + 0x4]
000035FA  3206                     move.w     D1, D6
000035FC  48C1                     ext.l      D1
000035FE  9081                     sub.l      D0, D1
00003600  2045                     movea.l    A0, D5
00003602  2140 0004                move.l     [A0 + 0x4], D0
label00003606:
00003606  206E 0008                movea.l    A0, [A6 + 0x8]
0000360A  2F10                     move.l     -[A7], [A0]
0000360C  2F0C                     move.l     -[A7], A4
0000360E  3007                     move.w     D0, D7
00003610  48C0                     ext.l      D0
00003612  2F00                     move.l     -[A7], D0
00003614  4EAD 19B2                jsr        [A5 + 0x19B2 /* export_818, CODE:16 @ 000010BE */]
00003618  1D7C 0001 0010           move.b     [A6 + 0x10], 0x1
0000361E  6018                     bra        +0x1A /* 00003638 */
label00003620:
00003620  3006                     move.w     D0, D6
00003622  48C0                     ext.l      D0
00003624  D9C0                     add.l      A4, D0
00003626  526E FFEE                addq.w     [A6 - 0x12], 1
0000362A  690C                     bvs        +0xE /* 00003638 */
label0000362C:
0000362C  302E FFEE                move.w     D0, [A6 - 0x12]
00003630  B06E FFDA                cmp.w      D0, [A6 - 0x26]
00003634  6F00 FF74                ble        -0x8A /* 000035AA */
label00003638:
00003638  2F2E 000C                move.l     -[A7], [A6 + 0xC]
0000363C  1F3C 0001                move.b     -[A7], 0x1
00003640  4EAD 1F1A                jsr        [A5 + 0x1F1A /* export_991, CODE:19 @ 000006D4 */]
label00003644:
00003644  4CDF 18F0                movem.l    D4,D5,D6,D7,A3,A4, [A7]+
00003648  4E5E                     unlink     A6
0000364A  205F                     movea.l    A0, [A7]+
0000364C  504F                     addq.w     A7, 8
0000364E  4ED0                     jmp        [A0]
export_976:
fn00003650:
00003650  4E56 FFF8                link       A6, -0x0008
00003654  48E7 0108                movem.l    -[A7], D7,A4
00003658  286E 0008                movea.l    A4, [A6 + 0x8]
0000365C  2054                     movea.l    A0, [A4]
0000365E  2028 0024                move.l     D0, [A0 + 0x24]
00003662  722E                     moveq.l    D1, 0x2E
00003664  D081                     add.l      D0, D1
00003666  2054                     movea.l    A0, [A4]
00003668  2E28 002A                move.l     D7, [A0 + 0x2A]
0000366C  DE80                     add.l      D7, D0
0000366E  2007                     move.l     D0, D7
00003670  D094                     add.l      D0, [A4]
00003672  2D40 FFF8                move.l     [A6 - 0x8], D0
00003676  486E FFF8                pea.l      [A6 - 0x8]
0000367A  4EAD 1932                jsr        [A5 + 0x1932 /* export_802, CODE:16 @ 00000C5A */]
0000367E  486E FFF8                pea.l      [A6 - 0x8]
00003682  4EAD 1932                jsr        [A5 + 0x1932 /* export_802, CODE:16 @ 00000C5A */]
00003686  202E FFF8                move.l     D0, [A6 - 0x8]
0000368A  9094                     sub.l      D0, [A4]
0000368C  2D40 000C                move.l     [A6 + 0xC], D0
00003690  4CDF 1080                movem.l    D7,A4, [A7]+
00003694  4E5E                     unlink     A6
00003696  2E9F                     move.l     [A7], [A7]+
00003698  4E75                     rts
export_977:
0000369A  4E56 0000                link       A6, 0
0000369E  2F0C                     move.l     -[A7], A4
000036A0  206E 0008                movea.l    A0, [A6 + 0x8]
000036A4  2850                     movea.l    A4, [A0]
000036A6  202C 0034                move.l     D0, [A4 + 0x34]
000036AA  723C                     moveq.l    D1, 0x3C
000036AC  D081                     add.l      D0, D1
000036AE  222C 0038                move.l     D1, [A4 + 0x38]
000036B2  D280                     add.l      D1, D0
000036B4  2D41 000C                move.l     [A6 + 0xC], D1
000036B8  285F                     movea.l    A4, [A7]+
000036BA  4E5E                     unlink     A6
000036BC  2E9F                     move.l     [A7], [A7]+
000036BE  4E75                     rts
export_978:
fn000036C0:
000036C0  4E56 FFF8                link       A6, -0x0008
000036C4  48E7 0108                movem.l    -[A7], D7,A4
000036C8  286E 0008                movea.l    A4, [A6 + 0x8]
000036CC  2054                     movea.l    A0, [A4]
000036CE  2028 0028                move.l     D0, [A0 + 0x28]
000036D2  7232                     moveq.l    D1, 0x32
000036D4  D081                     add.l      D0, D1
000036D6  2054                     movea.l    A0, [A4]
000036D8  2E28 002E                move.l     D7, [A0 + 0x2E]
000036DC  DE80                     add.l      D7, D0
000036DE  2007                     move.l     D0, D7
000036E0  D094                     add.l      D0, [A4]
000036E2  2D40 FFF8                move.l     [A6 - 0x8], D0
000036E6  486E FFF8                pea.l      [A6 - 0x8]
000036EA  4EAD 1932                jsr        [A5 + 0x1932 /* export_802, CODE:16 @ 00000C5A */]
000036EE  486E FFF8                pea.l      [A6 - 0x8]
000036F2  4EAD 1932                jsr        [A5 + 0x1932 /* export_802, CODE:16 @ 00000C5A */]
000036F6  202E FFF8                move.l     D0, [A6 - 0x8]
000036FA  9094                     sub.l      D0, [A4]
000036FC  2D40 000C                move.l     [A6 + 0xC], D0
00003700  4CDF 1080                movem.l    D7,A4, [A7]+
00003704  4E5E                     unlink     A6
00003706  2E9F                     move.l     [A7], [A7]+
00003708  4E75                     rts
export_979:
0000370A  4E56 FEF8                link       A6, -0x0108
0000370E  48E7 0718                movem.l    -[A7], D5,D6,D7,A3,A4
00003712  206E 001E                movea.l    A0, [A6 + 0x1E]
00003716  43EE FF00                lea.l      A1, [A6 - 0x100]
0000371A  703F                     moveq.l    D0, 0x3F
label0000371C:
0000371C  22D8                     move.l     [A1]+, [A0]+
0000371E  51C8 FFFC                dbf        D0, -0x6 /* 0000371C */
00003722  286E 0018                movea.l    A4, [A6 + 0x18]
00003726  266E 0010                movea.l    A3, [A6 + 0x10]
0000372A  2C2E 000C                move.l     D6, [A6 + 0xC]
0000372E  2A2E 0014                move.l     D5, [A6 + 0x14]
00003732  486E FF00                pea.l      [A6 - 0x100]
00003736  3F2E 001C                move.w     -[A7], [A6 + 0x1C]
0000373A  4EBA E7E8                jsr        [PC - 0x1818 /* 00001F24 */]
0000373E  4A6D F2AA                tst.w      [A5 - 0xD56]
00003742  6700 0098                beq        +0x9A /* 000037DC */
00003746  2045                     movea.l    A0, D5
00003748  3B50 F04C                move.w     [A5 - 0xFB4], [A0]
0000374C  2B53 F048                move.l     [A5 - 0xFB8], [A3]
00003750  2046                     movea.l    A0, D6
00003752  2B50 F044                move.l     [A5 - 0xFBC], [A0]
00003756  42A7                     clr.l      -[A7]
00003758  2F2D F670                move.l     -[A7], [A5 - 0x990]
0000375C  2F14                     move.l     -[A7], [A4]
0000375E  4EBA E56C                jsr        [PC - 0x1A94 /* 00001CCC */]
00003762  2D5F FEFC                move.l     [A6 - 0x104], [A7]+
00003766  2E14                     move.l     D7, [A4]
00003768  2B6E FEFC F038           move.l     [A5 - 0xFC8], [A6 - 0x104]
0000376E  4AAE FEFC                tst.l      [A6 - 0x104]
00003772  6768                     beq        +0x6A /* 000037DC */
00003774  4267                     clr.w      -[A7]
00003776  4EAD 1602                jsr        [A5 + 0x1602 /* export_700, CODE:15 @ 0000114C */]
0000377A  7000                     moveq.l    D0, 0x00
0000377C  2B40 F2B4                move.l     [A5 - 0xD4C], D0
00003780  4EAD 181A                jsr        [A5 + 0x181A /* export_767, CODE:16 @ 00000216 */]
00003784  42A7                     clr.l      -[A7]
00003786  2F2D F670                move.l     -[A7], [A5 - 0x990]
0000378A  2014                     move.l     D0, [A4]
0000378C  5380                     subq.l     D0, 1
0000378E  2F00                     move.l     -[A7], D0
00003790  486D F0D2                pea.l      [A5 - 0xF2E]
00003794  486D F04E                pea.l      [A5 - 0xFB2]
00003798  487A E268                pea.l      [PC - 0x1D98 /* 00001A02, value 0x4E56FFBE */]
0000379C  1F3C 0001                move.b     -[A7], 0x1
000037A0  4267                     clr.w      -[A7]
000037A2  4EBA EE6C                jsr        [PC - 0x1194 /* 00002610 */]
000037A6  289F                     move.l     [A4], [A7]+
000037A8  6618                     bne        +0x1A /* 000037C2 */
000037AA  7000                     moveq.l    D0, 0x00
000037AC  2B40 F038                move.l     [A5 - 0xFC8], D0
000037B0  2887                     move.l     [A4], D7
000037B2  4267                     clr.w      -[A7]
000037B4  486E FEFC                pea.l      [A6 - 0x104]
000037B8  4EBA E248                jsr        [PC - 0x1DB8 /* 00001A02 */]
000037BC  101F                     move.b     D0, [A7]+
000037BE  6602                     bne        +0x4 /* 000037C2 */
000037C0  601A                     bra        +0x1C /* 000037DC */
label000037C2:
000037C2  2045                     movea.l    A0, D5
000037C4  30AD F04C                move.w     [A0], [A5 - 0xFB4]
000037C8  26AD F048                move.l     [A3], [A5 - 0xFB8]
000037CC  2046                     movea.l    A0, D6
000037CE  20AD F044                move.l     [A0], [A5 - 0xFBC]
000037D2  206E 0008                movea.l    A0, [A6 + 0x8]
000037D6  20AD F040                move.l     [A0], [A5 - 0xFC0]
000037DA  601A                     bra        +0x1C /* 000037F6 */
label000037DC:
000037DC  7000                     moveq.l    D0, 0x00
000037DE  2880                     move.l     [A4], D0
000037E0  2045                     movea.l    A0, D5
000037E2  4250                     clr.w      [A0]
000037E4  7000                     moveq.l    D0, 0x00
000037E6  2680                     move.l     [A3], D0
000037E8  2046                     movea.l    A0, D6
000037EA  7000                     moveq.l    D0, 0x00
000037EC  2080                     move.l     [A0], D0
000037EE  206E 0008                movea.l    A0, [A6 + 0x8]
000037F2  7000                     moveq.l    D0, 0x00
000037F4  2080                     move.l     [A0], D0
label000037F6:
000037F6  4CDF 18E0                movem.l    D5,D6,D7,A3,A4, [A7]+
000037FA  4E5E                     unlink     A6
000037FC  205F                     movea.l    A0, [A7]+
000037FE  DEFC 001A                add.w      A7, 0x1A
00003802  4ED0                     jmp        [A0]
fn00003804:
00003804  4E56 FFE0                link       A6, -0x0020
00003808  48E7 0F18                movem.l    -[A7], D4,D5,D6,D7,A3,A4
0000380C  282E 0016                move.l     D4, [A6 + 0x16]
00003810  422E 001A                clr.b      [A6 + 0x1A]
00003814  4A6E 0014                tst.w      [A6 + 0x14]
00003818  5EC0                     sgt        D0
0000381A  4A00                     tst.b      D0
0000381C  6700 00EC                beq        +0xEE /* 0000390A */
00003820  2F00                     move.l     -[A7], D0
00003822  4267                     clr.w      -[A7]
00003824  2F04                     move.l     -[A7], D4
00003826  42A7                     clr.l      -[A7]
00003828  486E FFF8                pea.l      [A6 - 0x8]
0000382C  4EBA DFAA                jsr        [PC - 0x2056 /* 000017D8 */]
00003830  121F                     move.b     D1, [A7]+
00003832  201F                     move.l     D0, [A7]+
00003834  C001                     and.b      D0, D1
00003836  6700 00D2                beq        +0xD4 /* 0000390A */
0000383A  42A7                     clr.l      -[A7]
0000383C  2F04                     move.l     -[A7], D4
0000383E  4EAD 1F9A                jsr        [A5 + 0x1F9A /* export_1007, CODE:19 @ 00001B6A */]
00003842  265F                     movea.l    A3, [A7]+
00003844  2F0B                     move.l     -[A7], A3
00003846  486E FFE3                pea.l      [A6 - 0x1D]
0000384A  4EAD 1922                jsr        [A5 + 0x1922 /* export_800, CODE:16 @ 00000C02 */]
0000384E  286E FFF8                movea.l    A4, [A6 - 0x8]
00003852  D9D3                     add.l      A4, [A3]
00003854  2A0C                     move.l     D5, A4
00003856  700E                     moveq.l    D0, 0x0E
00003858  9A80                     sub.l      D5, D0
0000385A  2045                     movea.l    A0, D5
0000385C  3D50 FFE0                move.w     [A6 - 0x20], [A0]
00003860  7E01                     moveq.l    D7, 0x01
00003862  6000 008C                bra        +0x8E /* 000038F0 */
label00003866:
00003866  3C14                     move.w     D6, [A4]
00003868  302C 0002                move.w     D0, [A4 + 0x2]
0000386C  B06E 0014                cmp.w      D0, [A6 + 0x14]
00003870  6674                     bne        +0x76 /* 000038E6 */
00003872  206E 0008                movea.l    A0, [A6 + 0x8]
00003876  2F08                     move.l     -[A7], A0
00003878  42A7                     clr.l      -[A7]
0000387A  3006                     move.w     D0, D6
0000387C  48C0                     ext.l      D0
0000387E  2F00                     move.l     -[A7], D0
00003880  4EAD 18DA                jsr        [A5 + 0x18DA /* export_791, CODE:16 @ 00000896 */]
00003884  201F                     move.l     D0, [A7]+
00003886  205F                     movea.l    A0, [A7]+
00003888  2080                     move.l     [A0], D0
0000388A  206E 0008                movea.l    A0, [A6 + 0x8]
0000388E  4A90                     tst.l      [A0]
00003890  6752                     beq        +0x54 /* 000038E4 */
00003892  206E 0010                movea.l    A0, [A6 + 0x10]
00003896  224C                     movea.l    A1, A4
00003898  7006                     moveq.l    D0, 0x06
label0000389A:
0000389A  20D9                     move.l     [A0]+, [A1]+
0000389C  51C8 FFFC                dbf        D0, -0x6 /* 0000389A */
000038A0  3091                     move.w     [A0], [A1]
000038A2  200C                     move.l     D0, A4
000038A4  721E                     moveq.l    D1, 0x1E
000038A6  D081                     add.l      D0, D1
000038A8  2D40 FFE8                move.l     [A6 - 0x18], D0
000038AC  2F2E FFE8                move.l     -[A7], [A6 - 0x18]
000038B0  2F2E 000C                move.l     -[A7], [A6 + 0xC]
000038B4  4EAD 1B5A                jsr        [A5 + 0x1B5A /* export_871, CODE:16 @ 00001ECC */]
000038B8  486E FFE8                pea.l      [A6 - 0x18]
000038BC  4EAD 1932                jsr        [A5 + 0x1932 /* export_802, CODE:16 @ 00000C5A */]
000038C0  486E FFE8                pea.l      [A6 - 0x18]
000038C4  4EAD 1932                jsr        [A5 + 0x1932 /* export_802, CODE:16 @ 00000C5A */]
000038C8  206E 0008                movea.l    A0, [A6 + 0x8]
000038CC  2050                     movea.l    A0, [A0]
000038CE  2D50 FFE4                move.l     [A6 - 0x1C], [A0]
000038D2  486E FFE8                pea.l      [A6 - 0x18]
000038D6  486E FFE4                pea.l      [A6 - 0x1C]
000038DA  4EAD 19CA                jsr        [A5 + 0x19CA /* export_821, CODE:16 @ 00001164 */]
000038DE  1D7C 0001 001A           move.b     [A6 + 0x1A], 0x1
label000038E4:
000038E4  6012                     bra        +0x14 /* 000038F8 */
label000038E6:
000038E6  3006                     move.w     D0, D6
000038E8  48C0                     ext.l      D0
000038EA  D9C0                     add.l      A4, D0
000038EC  5247                     addq.w     D7, 1
000038EE  6908                     bvs        +0xA /* 000038F8 */
label000038F0:
000038F0  BE6E FFE0                cmp.w      D7, [A6 - 0x20]
000038F4  6F00 FF70                ble        -0x8E /* 00003866 */
label000038F8:
000038F8  2F0B                     move.l     -[A7], A3
000038FA  1F2E FFE3                move.b     -[A7], [A6 - 0x1D]
000038FE  4EAD 03F2                jsr        [A5 + 0x3F2 /* export_122, CODE:1 @ 00004D00 */]
00003902  2F04                     move.l     -[A7], D4
00003904  4267                     clr.w      -[A7]
00003906  4EAD 1F1A                jsr        [A5 + 0x1F1A /* export_991, CODE:19 @ 000006D4 */]
label0000390A:
0000390A  4CDF 18F0                movem.l    D4,D5,D6,D7,A3,A4, [A7]+
0000390E  4E5E                     unlink     A6
00003910  205F                     movea.l    A0, [A7]+
00003912  DEFC 0012                add.w      A7, 0x12
00003916  4ED0                     jmp        [A0]
export_980:
fn00003918:
00003918  4E56 FEB6                link       A6, -0x014A
0000391C  48E7 0F18                movem.l    -[A7], D4,D5,D6,D7,A3,A4
00003920  2C2E 000A                move.l     D6, [A6 + 0xA]
00003924  282E 000E                move.l     D4, [A6 + 0xE]
00003928  4267                     clr.w      -[A7]
0000392A  2F04                     move.l     -[A7], D4
0000392C  486E FFD0                pea.l      [A6 - 0x30]
00003930  4EBA D330                jsr        [PC - 0x2CD0 /* 00000C62 */]
00003934  101F                     move.b     D0, [A7]+
00003936  660A                     bne        +0xC /* 00003942 */
00003938  2F3C 0005 EA36           move.l     -[A7], 0x5EA36
0000393E  4EAD 185A                jsr        [A5 + 0x185A /* export_775, CODE:16 @ 0000042E */]
label00003942:
00003942  BCAE FFE4                cmp.l      D6, [A6 - 0x1C]
00003946  6E00 013E                bgt        +0x140 /* 00003A86 */
0000394A  4267                     clr.w      -[A7]
0000394C  2F04                     move.l     -[A7], D4
0000394E  2F06                     move.l     -[A7], D6
00003950  486E FF4C                pea.l      [A6 - 0xB4]
00003954  4EBA D248                jsr        [PC - 0x2DB8 /* 00000B9E */]
00003958  101F                     move.b     D0, [A7]+
0000395A  660A                     bne        +0xC /* 00003966 */
0000395C  2F3C 0006 AE05           move.l     -[A7], 0x6AE05
00003962  4EAD 185A                jsr        [A5 + 0x185A /* export_775, CODE:16 @ 0000042E */]
label00003966:
00003966  42A7                     clr.l      -[A7]
00003968  2F2E FF4C                move.l     -[A7], [A6 - 0xB4]
0000396C  4EAD 1F7A                jsr        [A5 + 0x1F7A /* export_1003, CODE:19 @ 00001744 */]
00003970  285F                     movea.l    A4, [A7]+
00003972  200C                     move.l     D0, A4
00003974  6608                     bne        +0xA /* 0000397E */
00003976  4EAD 1812                jsr        [A5 + 0x1812 /* export_766, CODE:16 @ 00000208 */]
0000397A  6000 010A                bra        +0x10C /* 00003A86 */
label0000397E:
0000397E  082E 0006 FF50           btst.b     [A6 - 0xB0], 0x6
00003984  56C0                     sne        D0
00003986  7201                     moveq.l    D1, 0x01
00003988  B286                     cmp.l      D1, D6
0000398A  57C1                     seq        D1
0000398C  8001                     or.b       D0, D1
0000398E  4400                     neg.b      D0
00003990  1E00                     move.b     D7, D0
00003992  486E FF50                pea.l      [A6 - 0xB0]
00003996  302E FFEC                move.w     D0, [A6 - 0x14]
0000399A  48C0                     ext.l      D0
0000399C  2F00                     move.l     -[A7], D0
0000399E  4EAD 1B4A                jsr        [A5 + 0x1B4A /* export_869, CODE:16 @ 00001E9C */]
000039A2  102E 0008                move.b     D0, [A6 + 0x8]
000039A6  6732                     beq        +0x34 /* 000039DA */
000039A8  7E01                     moveq.l    D7, 0x01
000039AA  4267                     clr.w      -[A7]
000039AC  2F04                     move.l     -[A7], D4
000039AE  2006                     move.l     D0, D6
000039B0  5380                     subq.l     D0, 1
000039B2  2F00                     move.l     -[A7], D0
000039B4  486E FEC8                pea.l      [A6 - 0x138]
000039B8  4EBA D1E4                jsr        [PC - 0x2E1C /* 00000B9E */]
000039BC  101F                     move.b     D0, [A7]+
000039BE  671A                     beq        +0x1C /* 000039DA */
000039C0  2054                     movea.l    A0, [A4]
000039C2  2F08                     move.l     -[A7], A0
000039C4  42A7                     clr.l      -[A7]
000039C6  2F2E FEC8                move.l     -[A7], [A6 - 0x138]
000039CA  4EAD 1ECA                jsr        [A5 + 0x1ECA /* export_981, CODE:19 @ 000000FC */]
000039CE  201F                     move.l     D0, [A7]+
000039D0  205F                     movea.l    A0, [A7]+
000039D2  B0A8 0020                cmp.l      D0, [A0 + 0x20]
000039D6  56C7                     sne        D7
000039D8  4407                     neg.b      D7
label000039DA:
000039DA  1007                     move.b     D0, D7
000039DC  6706                     beq        +0x8 /* 000039E4 */
000039DE  08EE 0006 FF50           bset.b     [A6 - 0xB0], 0x6
label000039E4:
000039E4  7001                     moveq.l    D0, 0x01
000039E6  B06E FFEA                cmp.w      D0, [A6 - 0x16]
000039EA  6C06                     bge        +0x8 /* 000039F2 */
000039EC  08EE 0005 FF50           bset.b     [A6 - 0xB0], 0x5
label000039F2:
000039F2  2014                     move.l     D0, [A4]
000039F4  7232                     moveq.l    D1, 0x32
000039F6  D081                     add.l      D0, D1
000039F8  2054                     movea.l    A0, [A4]
000039FA  2228 0028                move.l     D1, [A0 + 0x28]
000039FE  D280                     add.l      D1, D0
00003A00  2D41 FEC0                move.l     [A6 - 0x140], D1
00003A04  2054                     movea.l    A0, [A4]
00003A06  2668 002E                movea.l    A3, [A0 + 0x2E]
00003A0A  D7EE FEC0                add.l      A3, [A6 - 0x140]
00003A0E  4A13                     tst.b      [A3]
00003A10  6718                     beq        +0x1A /* 00003A2A */
00003A12  08EE 0007 FF50           bset.b     [A6 - 0xB0], 0x7
00003A18  2F0B                     move.l     -[A7], A3
00003A1A  486E FF50                pea.l      [A6 - 0xB0]
00003A1E  2F2E FFEC                move.l     -[A7], [A6 - 0x14]
00003A22  3F2E FFEA                move.w     -[A7], [A6 - 0x16]
00003A26  4EAD 198A                jsr        [A5 + 0x198A /* export_813, CODE:16 @ 00000EFE */]
label00003A2A:
00003A2A  2054                     movea.l    A0, [A4]
00003A2C  3D68 002C FEB6           move.w     [A6 - 0x14A], [A0 + 0x2C]
00003A32  7A01                     moveq.l    D5, 0x01
00003A34  6024                     bra        +0x26 /* 00003A5A */
label00003A36:
00003A36  54AE FEC0                addq.l     [A6 - 0x140], 2
00003A3A  2F2E FEC0                move.l     -[A7], [A6 - 0x140]
00003A3E  486E FF50                pea.l      [A6 - 0xB0]
00003A42  2F2E FFEC                move.l     -[A7], [A6 - 0x14]
00003A46  3F2E FFEA                move.w     -[A7], [A6 - 0x16]
00003A4A  4EAD 198A                jsr        [A5 + 0x198A /* export_813, CODE:16 @ 00000EFE */]
00003A4E  486E FEC0                pea.l      [A6 - 0x140]
00003A52  4EAD 1932                jsr        [A5 + 0x1932 /* export_802, CODE:16 @ 00000C5A */]
00003A56  5245                     addq.w     D5, 1
00003A58  6906                     bvs        +0x8 /* 00003A60 */
label00003A5A:
00003A5A  BA6E FEB6                cmp.w      D5, [A6 - 0x14A]
00003A5E  6FD6                     ble        -0x28 /* 00003A36 */
label00003A60:
00003A60  2F2E FF4C                move.l     -[A7], [A6 - 0xB4]
00003A64  4267                     clr.w      -[A7]
00003A66  4EAD 1EF2                jsr        [A5 + 0x1EF2 /* export_986, CODE:19 @ 00000450 */]
00003A6A  4267                     clr.w      -[A7]
00003A6C  2F04                     move.l     -[A7], D4
00003A6E  2F06                     move.l     -[A7], D6
00003A70  486E FF4C                pea.l      [A6 - 0xB4]
00003A74  4EBA F316                jsr        [PC - 0xCEA /* 00002D8C */]
00003A78  101F                     move.b     D0, [A7]+
00003A7A  660A                     bne        +0xC /* 00003A86 */
00003A7C  2F3C 000C C3EB           move.l     -[A7], 0xCC3EB
00003A82  4EAD 185A                jsr        [A5 + 0x185A /* export_775, CODE:16 @ 0000042E */]
label00003A86:
00003A86  4CDF 18F0                movem.l    D4,D5,D6,D7,A3,A4, [A7]+
00003A8A  4E5E                     unlink     A6
00003A8C  205F                     movea.l    A0, [A7]+
00003A8E  DEFC 000A                add.w      A7, 0xA /* '\n' */
00003A92  4ED0                     jmp        [A0]
