# near model CODE resource
# jump table entries: 1464-1537 (74 of them)
export_183:
fn00000000:
00000000  4E56 FFFA                link       A6, -0x0006
00000004  48E7 0108                movem.l    -[A7], D7,A4
00000008  4267                     clr.w      -[A7]
0000000A  4EBA 2706                jsr        [PC + 0x2706 /* 00002712 */]
0000000E  101F                     move.b     D0, [A7]+
00000010  677C                     beq        +0x7E /* 0000008E */
00000012  42A7                     clr.l      -[A7]
00000014  A975                     syscall    TickCount
00000016  202D DC24                move.l     D0, [A5 - 0x23DC]
0000001A  D0BC 0000 05DC           add.l      D0, 0x5DC
00000020  B09F                     cmp.l      D0, [A7]+
00000022  6E6A                     bgt        +0x6C /* 0000008E */
00000024  42A7                     clr.l      -[A7]
00000026  A975                     syscall    TickCount
00000028  2B5F DC24                move.l     [A5 - 0x23DC], [A7]+
0000002C  42A7                     clr.l      -[A7]
0000002E  703C                     moveq.l    D0, 0x3C
00000030  2F00                     move.l     -[A7], D0
00000032  4EAD 18DA                jsr        [A5 + 0x18DA /* export_791, CODE:16 @ 00000896 */]
00000036  285F                     movea.l    A4, [A7]+
00000038  2054                     movea.l    A0, [A4]
0000003A  10BC 0025                move.b     [A0], 0x25 /* '%' */
0000003E  7E01                     moveq.l    D7, 0x01
00000040  600A                     bra        +0xC /* 0000004C */
label00000042:
00000042  2054                     movea.l    A0, [A4]
00000044  11BC 0020 7000           move.b     [A0 + D7.w], 0x20 /* ' ' */
0000004A  5247                     addq.w     D7, 1
label0000004C:
0000004C  703A                     moveq.l    D0, 0x3A
0000004E  B047                     cmp.w      D0, D7
00000050  6CF0                     bge        -0xE /* 00000042 */
00000052  2054                     movea.l    A0, [A4]
00000054  117C 000D 003B           move.b     [A0 + 0x3B], 0xD /* '\r' */
0000005A  2F3C 0000 00BE           move.l     -[A7], 0xBE
00000060  42A7                     clr.l      -[A7]
00000062  A8F2                     syscall    PicComment
00000064  7E01                     moveq.l    D7, 0x01
00000066  600C                     bra        +0xE /* 00000074 */
label00000068:
00000068  2F3C 003C 00C0           move.l     -[A7], 0x3C00C0
0000006E  2F0C                     move.l     -[A7], A4
00000070  A8F2                     syscall    PicComment
00000072  5247                     addq.w     D7, 1
label00000074:
00000074  7045                     moveq.l    D0, 0x45
00000076  B047                     cmp.w      D0, D7
00000078  6CEE                     bge        -0x10 /* 00000068 */
0000007A  2F3C 0000 00BF           move.l     -[A7], 0xBF
00000080  42A7                     clr.l      -[A7]
00000082  A8F2                     syscall    PicComment
00000084  2F0C                     move.l     -[A7], A4
00000086  4EAD 18D2                jsr        [A5 + 0x18D2 /* export_790, CODE:16 @ 0000083E */]
0000008A  4EAD 181A                jsr        [A5 + 0x181A /* export_767, CODE:16 @ 00000216 */]
label0000008E:
0000008E  4CDF 1080                movem.l    D7,A4, [A7]+
00000092  4E5E                     unlink     A6
00000094  4E75                     rts
export_184:
fn00000096:
00000096  4E56 0000                link       A6, 0
0000009A  206D DBFC                movea.l    A0, [A5 - 0x2404]
0000009E  2050                     movea.l    A0, [A0]
000000A0  3028 0018                move.w     D0, [A0 + 0x18]
000000A4  48C0                     ext.l      D0
000000A6  81FC 0100                divs.w     D0, 0x100
000000AA  7205                     moveq.l    D1, 0x05
000000AC  B240                     cmp.w      D1, D0
000000AE  57C0                     seq        D0
000000B0  4400                     neg.b      D0
000000B2  1D40 0008                move.b     [A6 + 0x8], D0
000000B6  4E5E                     unlink     A6
000000B8  4E75                     rts
export_185:
fn000000BA:
000000BA  4E56 FED8                link       A6, -0x0128
000000BE  48E7 0F08                movem.l    -[A7], D4,D5,D6,D7,A4
000000C2  206E 0008                movea.l    A0, [A6 + 0x8]
000000C6  43EE FEE0                lea.l      A1, [A6 - 0x120]
000000CA  7047                     moveq.l    D0, 0x47
label000000CC:
000000CC  22D8                     move.l     [A1]+, [A0]+
000000CE  51C8 FFFC                dbf        D0, -0x6 /* 000000CC */
000000D2  486E FEE0                pea.l      [A6 - 0x120]
000000D6  4EBA 0302                jsr        [PC + 0x302 /* 000003DA */]
000000DA  3E2D DC42                move.w     D7, [A5 - 0x23BE]
000000DE  3C2D DC44                move.w     D6, [A5 - 0x23BC]
000000E2  4A2E FEFE                tst.b      [A6 - 0x102]
000000E6  6628                     bne        +0x2A /* 00000110 */
000000E8  49ED DC0C                lea.l      A4, [A5 - 0x23F4]
000000EC  4267                     clr.w      -[A7]
000000EE  3F2C 0002                move.w     -[A7], [A4 + 0x2]
000000F2  302C 0002                move.w     D0, [A4 + 0x2]
000000F6  D06C 0006                add.w      D0, [A4 + 0x6]
000000FA  906D D7D4                sub.w      D0, [A5 - 0x282C]
000000FE  48C0                     ext.l      D0
00000100  81FC 0002                divs.w     D0, 0x2
00000104  3F00                     move.w     -[A7], D0
00000106  4EAD 18BA                jsr        [A5 + 0x18BA /* export_787, CODE:16 @ 000007C6 */]
0000010A  3B5F DC06                move.w     [A5 - 0x23FA], [A7]+
0000010E  602A                     bra        +0x2C /* 0000013A */
label00000110:
00000110  102E FEF9                move.b     D0, [A6 - 0x107]
00000114  6704                     beq        +0x6 /* 0000011A */
00000116  4247                     clr.w      D7
00000118  4246                     clr.w      D6
label0000011A:
0000011A  302D DC08                move.w     D0, [A5 - 0x23F8]
0000011E  906D DC04                sub.w      D0, [A5 - 0x23FC]
00000122  B06D D7D2                cmp.w      D0, [A5 - 0x282E]
00000126  5DC0                     slt        D0
00000128  322D DC0A                move.w     D1, [A5 - 0x23F6]
0000012C  926D DC06                sub.w      D1, [A5 - 0x23FA]
00000130  B26D D7D4                cmp.w      D1, [A5 - 0x282C]
00000134  5DC1                     slt        D1
00000136  8001                     or.b       D0, D1
00000138  671E                     beq        +0x20 /* 00000158 */
label0000013A:
0000013A  3B7C 0001 DC4A           move.w     [A5 - 0x23B6], 0x1
00000140  3B7C 0001 DC4C           move.w     [A5 - 0x23B4], 0x1
00000146  426D DC46                clr.w      [A5 - 0x23BA]
0000014A  426D DC48                clr.w      [A5 - 0x23B8]
0000014E  3B7C 0001 D7CC           move.w     [A5 - 0x2834], 0x1
00000154  6000 024C                bra        +0x24E /* 000003A2 */
label00000158:
00000158  302D DC0A                move.w     D0, [A5 - 0x23F6]
0000015C  906D DC06                sub.w      D0, [A5 - 0x23FA]
00000160  D046                     add.w      D0, D6
00000162  3206                     move.w     D1, D6
00000164  D26D D7D4                add.w      D1, [A5 - 0x282C]
00000168  48C0                     ext.l      D0
0000016A  81C1                     divs.w     D0, D1
0000016C  3B40 DC4A                move.w     [A5 - 0x23B6], D0
00000170  302D DC08                move.w     D0, [A5 - 0x23F8]
00000174  906D DC04                sub.w      D0, [A5 - 0x23FC]
00000178  D047                     add.w      D0, D7
0000017A  3207                     move.w     D1, D7
0000017C  D26D D7D2                add.w      D1, [A5 - 0x282E]
00000180  48C0                     ext.l      D0
00000182  81C1                     divs.w     D0, D1
00000184  3B40 DC4C                move.w     [A5 - 0x23B4], D0
00000188  102E FEF6                move.b     D0, [A6 - 0x10A]
0000018C  6766                     beq        +0x68 /* 000001F4 */
0000018E  4267                     clr.w      -[A7]
00000190  4EBA 4942                jsr        [PC + 0x4942 /* 00004AD4 */]
00000194  101F                     move.b     D0, [A7]+
00000196  674A                     beq        +0x4C /* 000001E2 */
00000198  206D DBFC                movea.l    A0, [A5 - 0x2404]
0000019C  2050                     movea.l    A0, [A0]
0000019E  49E8 0010                lea.l      A4, [A0 + 0x10]
000001A2  302C 0004                move.w     D0, [A4 + 0x4]
000001A6  D054                     add.w      D0, [A4]
000001A8  48C0                     ext.l      D0
000001AA  81FC 0002                divs.w     D0, 0x2
000001AE  3A00                     move.w     D5, D0
000001B0  906D DC04                sub.w      D0, [A5 - 0x23FC]
000001B4  3207                     move.w     D1, D7
000001B6  D26D D7D2                add.w      D1, [A5 - 0x282E]
000001BA  48C0                     ext.l      D0
000001BC  81C1                     divs.w     D0, D1
000001BE  E340                     asl        D0.w, 1
000001C0  3B40 DC4C                move.w     [A5 - 0x23B4], D0
000001C4  4A6D DC4C                tst.w      [A5 - 0x23B4]
000001C8  6616                     bne        +0x18 /* 000001E0 */
000001CA  302D DC04                move.w     D0, [A5 - 0x23FC]
000001CE  9054                     sub.w      D0, [A4]
000001D0  3205                     move.w     D1, D5
000001D2  9240                     sub.w      D1, D0
000001D4  48C1                     ext.l      D1
000001D6  83ED D7D2                divs.w     D1, [A5 - 0x282E]
000001DA  E341                     asl        D1.w, 1
000001DC  3B41 DC4C                move.w     [A5 - 0x23B4], D1
label000001E0:
000001E0  6012                     bra        +0x14 /* 000001F4 */
label000001E2:
000001E2  302D DC4A                move.w     D0, [A5 - 0x23B6]
000001E6  48C0                     ext.l      D0
000001E8  81FC 0002                divs.w     D0, 0x2
000001EC  4840                     swap.w     D0
000001EE  4A40                     tst.w      D0
000001F0  916D DC4A                sub.w      [A5 - 0x23B6], D0
label000001F4:
000001F4  4A6D DC4A                tst.w      [A5 - 0x23B6]
000001F8  6606                     bne        +0x8 /* 00000200 */
000001FA  3B7C 0001 DC4A           move.w     [A5 - 0x23B6], 0x1
label00000200:
00000200  4A6D DC4C                tst.w      [A5 - 0x23B4]
00000204  6606                     bne        +0x8 /* 0000020C */
00000206  3B7C 0001 DC4C           move.w     [A5 - 0x23B4], 0x1
label0000020C:
0000020C  7001                     moveq.l    D0, 0x01
0000020E  B06D DC4A                cmp.w      D0, [A5 - 0x23B6]
00000212  660C                     bne        +0xE /* 00000220 */
00000214  426D DC46                clr.w      [A5 - 0x23BA]
00000218  3B7C 0001 D7CC           move.w     [A5 - 0x2834], 0x1
0000021E  6020                     bra        +0x22 /* 00000240 */
label00000220:
00000220  302D DC0A                move.w     D0, [A5 - 0x23F6]
00000224  906D DC06                sub.w      D0, [A5 - 0x23FA]
00000228  322D D7D4                move.w     D1, [A5 - 0x282C]
0000022C  C3ED DC4A                muls.w     D1, [A5 - 0x23B6]
00000230  9041                     sub.w      D0, D1
00000232  322D DC4A                move.w     D1, [A5 - 0x23B6]
00000236  5341                     subq.w     D1, 1
00000238  48C0                     ext.l      D0
0000023A  81C1                     divs.w     D0, D1
0000023C  3B40 DC46                move.w     [A5 - 0x23BA], D0
label00000240:
00000240  7001                     moveq.l    D0, 0x01
00000242  B06D DC4C                cmp.w      D0, [A5 - 0x23B4]
00000246  6606                     bne        +0x8 /* 0000024E */
00000248  426D DC48                clr.w      [A5 - 0x23B8]
0000024C  6046                     bra        +0x48 /* 00000294 */
label0000024E:
0000024E  4267                     clr.w      -[A7]
00000250  4EBA 4882                jsr        [PC + 0x4882 /* 00004AD4 */]
00000254  101F                     move.b     D0, [A7]+
00000256  C02E FEF6                and.b      D0, [A6 - 0x10A]
0000025A  6718                     beq        +0x1A /* 00000274 */
0000025C  3005                     move.w     D0, D5
0000025E  906D DC04                sub.w      D0, [A5 - 0x23FC]
00000262  E340                     asl        D0.w, 1
00000264  48C0                     ext.l      D0
00000266  81ED DC4C                divs.w     D0, [A5 - 0x23B4]
0000026A  906D D7D2                sub.w      D0, [A5 - 0x282E]
0000026E  3B40 DC48                move.w     [A5 - 0x23B8], D0
00000272  6020                     bra        +0x22 /* 00000294 */
label00000274:
00000274  302D DC08                move.w     D0, [A5 - 0x23F8]
00000278  906D DC04                sub.w      D0, [A5 - 0x23FC]
0000027C  322D D7D2                move.w     D1, [A5 - 0x282E]
00000280  C3ED DC4C                muls.w     D1, [A5 - 0x23B4]
00000284  9041                     sub.w      D0, D1
00000286  322D DC4C                move.w     D1, [A5 - 0x23B4]
0000028A  5341                     subq.w     D1, 1
0000028C  48C0                     ext.l      D0
0000028E  81C1                     divs.w     D0, D1
00000290  3B40 DC48                move.w     [A5 - 0x23B8], D0
label00000294:
00000294  4267                     clr.w      -[A7]
00000296  4EBA 483C                jsr        [PC + 0x483C /* 00004AD4 */]
0000029A  302D DC48                move.w     D0, [A5 - 0x23B8]
0000029E  D07C 001E                add.w      D0, 0x1E
000002A2  B06D DC46                cmp.w      D0, [A5 - 0x23BA]
000002A6  5DC0                     slt        D0
000002A8  C01F                     and.b      D0, [A7]+
000002AA  670C                     beq        +0xE /* 000002B8 */
000002AC  302D DC48                move.w     D0, [A5 - 0x23B8]
000002B0  D07C 001E                add.w      D0, 0x1E
000002B4  3B40 DC46                move.w     [A5 - 0x23BA], D0
label000002B8:
000002B8  7002                     moveq.l    D0, 0x02
000002BA  B06D DC4A                cmp.w      D0, [A5 - 0x23B6]
000002BE  57C0                     seq        D0
000002C0  2F00                     move.l     -[A7], D0
000002C2  4267                     clr.w      -[A7]
000002C4  4EBA 480E                jsr        [PC + 0x480E /* 00004AD4 */]
000002C8  121F                     move.b     D1, [A7]+
000002CA  201F                     move.l     D0, [A7]+
000002CC  0A01 0001                xori.b     D1, 0x1
000002D0  C001                     and.b      D0, D1
000002D2  7264                     moveq.l    D1, 0x64
000002D4  B26D DC46                cmp.w      D1, [A5 - 0x23BA]
000002D8  5DC1                     slt        D1
000002DA  C001                     and.b      D0, D1
000002DC  670E                     beq        +0x10 /* 000002EC */
000002DE  302D DC46                move.w     D0, [A5 - 0x23BA]
000002E2  48C0                     ext.l      D0
000002E4  81FC 0002                divs.w     D0, 0x2
000002E8  3B40 DC46                move.w     [A5 - 0x23BA], D0
label000002EC:
000002EC  7002                     moveq.l    D0, 0x02
000002EE  B06D DC4C                cmp.w      D0, [A5 - 0x23B4]
000002F2  57C0                     seq        D0
000002F4  7264                     moveq.l    D1, 0x64
000002F6  B26D DC48                cmp.w      D1, [A5 - 0x23B8]
000002FA  5DC1                     slt        D1
000002FC  C001                     and.b      D0, D1
000002FE  6720                     beq        +0x22 /* 00000320 */
00000300  302D DC46                move.w     D0, [A5 - 0x23BA]
00000304  48C0                     ext.l      D0
00000306  81FC 0004                divs.w     D0, 0x4
0000030A  D06D DC04                add.w      D0, [A5 - 0x23FC]
0000030E  3B40 DC04                move.w     [A5 - 0x23FC], D0
00000312  302D DC48                move.w     D0, [A5 - 0x23B8]
00000316  48C0                     ext.l      D0
00000318  81FC 0002                divs.w     D0, 0x2
0000031C  3B40 DC48                move.w     [A5 - 0x23B8], D0
label00000320:
00000320  102E FEF9                move.b     D0, [A6 - 0x107]
00000324  6708                     beq        +0xA /* 0000032E */
00000326  426D DC46                clr.w      [A5 - 0x23BA]
0000032A  426D DC48                clr.w      [A5 - 0x23B8]
label0000032E:
0000032E  49ED DC0C                lea.l      A4, [A5 - 0x23F4]
00000332  302C 0006                move.w     D0, [A4 + 0x6]
00000336  D06C 0002                add.w      D0, [A4 + 0x2]
0000033A  322D DC46                move.w     D1, [A5 - 0x23BA]
0000033E  D26D D7D4                add.w      D1, [A5 - 0x282C]
00000342  C3ED DC4A                muls.w     D1, [A5 - 0x23B6]
00000346  926D DC46                sub.w      D1, [A5 - 0x23BA]
0000034A  9041                     sub.w      D0, D1
0000034C  48C0                     ext.l      D0
0000034E  81FC 0002                divs.w     D0, 0x2
00000352  3800                     move.w     D4, D0
00000354  4267                     clr.w      -[A7]
00000356  3F2D DC06                move.w     -[A7], [A5 - 0x23FA]
0000035A  3F04                     move.w     -[A7], D4
0000035C  4EAD 18BA                jsr        [A5 + 0x18BA /* export_787, CODE:16 @ 000007C6 */]
00000360  3B5F DC06                move.w     [A5 - 0x23FA], [A7]+
00000364  102E FEF9                move.b     D0, [A6 - 0x107]
00000368  C02E FEF6                and.b      D0, [A6 - 0x10A]
0000036C  7201                     moveq.l    D1, 0x01
0000036E  B26D DC4A                cmp.w      D1, [A5 - 0x23B6]
00000372  5DC1                     slt        D1
00000374  C001                     and.b      D0, D1
00000376  2F00                     move.l     -[A7], D0
00000378  4267                     clr.w      -[A7]
0000037A  4EBA 4758                jsr        [PC + 0x4758 /* 00004AD4 */]
0000037E  121F                     move.b     D1, [A7]+
00000380  201F                     move.l     D0, [A7]+
00000382  0A01 0001                xori.b     D1, 0x1
00000386  C001                     and.b      D0, D1
00000388  6718                     beq        +0x1A /* 000003A2 */
0000038A  4267                     clr.w      -[A7]
0000038C  4EBA 14BC                jsr        [PC + 0x14BC /* 0000184A */]
00000390  301F                     move.w     D0, [A7]+
00000392  48C0                     ext.l      D0
00000394  81FC 0002                divs.w     D0, 0x2
00000398  322D DC06                move.w     D1, [A5 - 0x23FA]
0000039C  9240                     sub.w      D1, D0
0000039E  3B41 DC06                move.w     [A5 - 0x23FA], D1
label000003A2:
000003A2  4CDF 10F0                movem.l    D4,D5,D6,D7,A4, [A7]+
000003A6  4E5E                     unlink     A6
000003A8  2E9F                     move.l     [A7], [A7]+
000003AA  4E75                     rts
fn000003AC:
000003AC  4E56 0000                link       A6, 0
000003B0  302D D7D2                move.w     D0, [A5 - 0x282E]
000003B4  E340                     asl        D0.w, 1
000003B6  3B40 D7D2                move.w     [A5 - 0x282E], D0
000003BA  302D D7D4                move.w     D0, [A5 - 0x282C]
000003BE  E340                     asl        D0.w, 1
000003C0  3B40 D7D4                move.w     [A5 - 0x282C], D0
000003C4  302D DC44                move.w     D0, [A5 - 0x23BC]
000003C8  E340                     asl        D0.w, 1
000003CA  3B40 DC44                move.w     [A5 - 0x23BC], D0
000003CE  E340                     asl        D0.w, 1
000003D0  3B40 DC42                move.w     [A5 - 0x23BE], D0
000003D4  4E5E                     unlink     A6
000003D6  2E9F                     move.l     [A7], [A7]+
000003D8  4E75                     rts
export_186:
fn000003DA:
000003DA  4E56 FEE0                link       A6, -0x0120
000003DE  206E 0008                movea.l    A0, [A6 + 0x8]
000003E2  43EE FEE0                lea.l      A1, [A6 - 0x120]
000003E6  7047                     moveq.l    D0, 0x47
label000003E8:
000003E8  22D8                     move.l     [A1]+, [A0]+
000003EA  51C8 FFFC                dbf        D0, -0x6 /* 000003E8 */
000003EE  4267                     clr.w      -[A7]
000003F0  486E FEE0                pea.l      [A6 - 0x120]
000003F4  4EBA 4356                jsr        [PC + 0x4356 /* 0000474C */]
000003F8  101F                     move.b     D0, [A7]+
000003FA  670E                     beq        +0x10 /* 0000040A */
000003FC  3B7C 00AB D7D2           move.w     [A5 - 0x282E], 0xAB
00000402  3B7C 0100 D7D4           move.w     [A5 - 0x282C], 0x100
00000408  600C                     bra        +0xE /* 00000416 */
label0000040A:
0000040A  3B7C 0156 D7D2           move.w     [A5 - 0x282E], 0x156
00000410  3B7C 0200 D7D4           move.w     [A5 - 0x282C], 0x200
label00000416:
00000416  486D D7B2                pea.l      [A5 - 0x284E]
0000041A  42A7                     clr.l      -[A7]
0000041C  2F2D D7D2                move.l     -[A7], [A5 - 0x282E]
00000420  A8A7                     syscall    SetRect
00000422  3B7C 000C DC44           move.w     [A5 - 0x23BC], 0xC
00000428  7003                     moveq.l    D0, 0x03
0000042A  B02E FEFE                cmp.b      D0, [A6 - 0x102]
0000042E  6608                     bne        +0xA /* 00000438 */
00000430  3B7C 000C DC42           move.w     [A5 - 0x23BE], 0xC
00000436  6006                     bra        +0x8 /* 0000043E */
label00000438:
00000438  3B7C 000A DC42           move.w     [A5 - 0x23BE], 0xA /* '\n' */
label0000043E:
0000043E  4267                     clr.w      -[A7]
00000440  4EBA 462A                jsr        [PC + 0x462A /* 00004A6C */]
00000444  101F                     move.b     D0, [A7]+
00000446  6726                     beq        +0x28 /* 0000046E */
00000448  102E FEFE                move.b     D0, [A6 - 0x102]
0000044C  4880                     ext.w      D0
0000044E  6712                     beq        +0x14 /* 00000462 */
00000450  5340                     subq.w     D0, 1
00000452  670E                     beq        +0x10 /* 00000462 */
00000454  5340                     subq.w     D0, 1
00000456  6702                     beq        +0x4 /* 0000045A */
00000458  6014                     bra        +0x16 /* 0000046E */
label0000045A:
0000045A  2F0E                     move.l     -[A7], A6
0000045C  4EBA FF4E                jsr        [PC - 0xB2 /* 000003AC */]
00000460  600C                     bra        +0xE /* 0000046E */
label00000462:
00000462  2F0E                     move.l     -[A7], A6
00000464  4EBA FF46                jsr        [PC - 0xBA /* 000003AC */]
00000468  2F0E                     move.l     -[A7], A6
0000046A  4EBA FF40                jsr        [PC - 0xC0 /* 000003AC */]
label0000046E:
0000046E  4267                     clr.w      -[A7]
00000470  4EBA FC24                jsr        [PC - 0x3DC /* 00000096 */]
00000474  7002                     moveq.l    D0, 0x02
00000476  B02E FEFE                cmp.b      D0, [A6 - 0x102]
0000047A  57C0                     seq        D0
0000047C  C01F                     and.b      D0, [A7]+
0000047E  6706                     beq        +0x8 /* 00000486 */
00000480  2F0E                     move.l     -[A7], A6
00000482  4EBA FF28                jsr        [PC - 0xD8 /* 000003AC */]
label00000486:
00000486  4267                     clr.w      -[A7]
00000488  4EBA 464A                jsr        [PC + 0x464A /* 00004AD4 */]
0000048C  101F                     move.b     D0, [A7]+
0000048E  0A00 0001                xori.b     D0, 0x1
00000492  C02D D9EE                and.b      D0, [A5 - 0x2612]
00000496  6708                     beq        +0xA /* 000004A0 */
00000498  3B7C 0002 D7CC           move.w     [A5 - 0x2834], 0x2
0000049E  6006                     bra        +0x8 /* 000004A6 */
label000004A0:
000004A0  3B7C 0001 D7CC           move.w     [A5 - 0x2834], 0x1
label000004A6:
000004A6  4E5E                     unlink     A6
000004A8  2E9F                     move.l     [A7], [A7]+
000004AA  4E75                     rts
export_187:
fn000004AC:
000004AC  4E56 FF00                link       A6, -0x0100
000004B0  206E 0008                movea.l    A0, [A6 + 0x8]
000004B4  43EE FF00                lea.l      A1, [A6 - 0x100]
000004B8  703F                     moveq.l    D0, 0x3F
label000004BA:
000004BA  22D8                     move.l     [A1]+, [A0]+
000004BC  51C8 FFFC                dbf        D0, -0x6 /* 000004BA */
000004C0  486D DC0C                pea.l      [A5 - 0x23F4]
000004C4  1F3C 0001                move.b     -[A7], 0x1
000004C8  4EBA 195C                jsr        [PC + 0x195C /* 00001E26 */]
000004CC  486D DC0C                pea.l      [A5 - 0x23F4]
000004D0  2F2D DBFC                move.l     -[A7], [A5 - 0x2404]
000004D4  1F2E 000C                move.b     -[A7], [A6 + 0xC]
000004D8  486D D9D8                pea.l      [A5 - 0x2628]
000004DC  4EBA 1B60                jsr        [PC + 0x1B60 /* 0000203E */]
000004E0  41ED DC04                lea.l      A0, [A5 - 0x23FC]
000004E4  43ED DC0C                lea.l      A1, [A5 - 0x23F4]
000004E8  20D9                     move.l     [A0]+, [A1]+
000004EA  20D9                     move.l     [A0]+, [A1]+
000004EC  486D DC04                pea.l      [A5 - 0x23FC]
000004F0  486E FF00                pea.l      [A6 - 0x100]
000004F4  4267                     clr.w      -[A7]
000004F6  4EBA 1A1A                jsr        [PC + 0x1A1A /* 00001F12 */]
000004FA  4E5E                     unlink     A6
000004FC  205F                     movea.l    A0, [A7]+
000004FE  5C4F                     addq.w     A7, 6
00000500  4ED0                     jmp        [A0]
fn00000502:
00000502  4E56 0000                link       A6, 0
00000506  102D DC51                move.b     D0, [A5 - 0x23AF]
0000050A  670C                     beq        +0xE /* 00000518 */
0000050C  3F3C 0013                move.w     -[A7], 0x13
00000510  4EBA 2C02                jsr        [PC + 0x2C02 /* 00003114 */]
00000514  4EBA 002C                jsr        [PC + 0x2C /* 00000542 */]
label00000518:
00000518  4E5E                     unlink     A6
0000051A  4E75                     rts
export_188:
0000051C  4E56 FFFC                link       A6, -0x0004
00000520  42A7                     clr.l      -[A7]
00000522  2F3A 001A                move.l     -[A7], [PC + 0x1A /* 0000053E, value 0x53545223 'STR#' */]
00000526  3F3C 0065                move.w     -[A7], 0x65 /* 'e' */
0000052A  A9A0                     syscall    GetResource
0000052C  2D5F FFFC                move.l     [A6 - 0x4], [A7]+
00000530  2F2E FFFC                move.l     -[A7], [A6 - 0x4]
00000534  A9A3                     syscall    ReleaseResource
00000536  422D DC2D                clr.b      [A5 - 0x23D3]
0000053A  4E5E                     unlink     A6
0000053C  4E75                     rts
0000053E  5354                     subq.w     [A4], 1
00000540  5223                     addq.b     -[A3], 1
fn00000542:
00000542  4E56 FFE0                link       A6, -0x0020
00000546  102D D7BF                move.b     D0, [A5 - 0x2841]
0000054A  671A                     beq        +0x1C /* 00000566 */
0000054C  486E FFE2                pea.l      [A6 - 0x1E]
00000550  A874                     syscall    GetPort
00000552  2F2D D736                move.l     -[A7], [A5 - 0x28CA]
00000556  A873                     syscall    SetPort
00000558  486D DAF8                pea.l      [A5 - 0x2508]
0000055C  4EBA 2C1A                jsr        [PC + 0x2C1A /* 00003178 */]
00000560  2F2E FFE2                move.l     -[A7], [A6 - 0x1E]
00000564  A873                     syscall    SetPort
label00000566:
00000566  2F2D D736                move.l     -[A7], [A5 - 0x28CA]
0000056A  4EAD 0132                jsr        [A5 + 0x132 /* export_34, CODE:1 @ 00003DBA */]
0000056E  4EAD 181A                jsr        [A5 + 0x181A /* export_767, CODE:16 @ 00000216 */]
00000572  206D DBFC                movea.l    A0, [A5 - 0x2404]
00000576  2050                     movea.l    A0, [A0]
00000578  7001                     moveq.l    D0, 0x01
0000057A  B028 0044                cmp.b      D0, [A0 + 0x44]
0000057E  57C0                     seq        D0
00000580  2F00                     move.l     -[A7], D0
00000582  4267                     clr.w      -[A7]
00000584  4EBA 1ECC                jsr        [PC + 0x1ECC /* 00002452 */]
00000588  321F                     move.w     D1, [A7]+
0000058A  201F                     move.l     D0, [A7]+
0000058C  4A41                     tst.w      D1
0000058E  57C1                     seq        D1
00000590  C001                     and.b      D0, D1
00000592  6724                     beq        +0x26 /* 000005B8 */
00000594  3F3C 0003                move.w     -[A7], 0x3
00000598  4EBA 0EC8                jsr        [PC + 0xEC8 /* 00001462 */]
0000059C  2F2D D732                move.l     -[A7], [A5 - 0x28CE]
000005A0  A981                     syscall    DrawDialog
000005A2  2F2D DBFC                move.l     -[A7], [A5 - 0x2404]
000005A6  42A7                     clr.l      -[A7]
000005A8  42A7                     clr.l      -[A7]
000005AA  42A7                     clr.l      -[A7]
000005AC  486E FFE6                pea.l      [A6 - 0x1A]
000005B0  4EAD 0162                jsr        [A5 + 0x162 /* export_40, CODE:1 @ 00003E0E */]
000005B4  4EAD 181A                jsr        [A5 + 0x181A /* export_767, CODE:16 @ 00000216 */]
label000005B8:
000005B8  2F2D D732                move.l     -[A7], [A5 - 0x28CE]
000005BC  4EAD 201A                jsr        [A5 + 0x201A /* export_1023, CODE:20 @ 000002FA */]
000005C0  4EBA 392C                jsr        [PC + 0x392C /* 00003EEE */]
000005C4  41ED E2F2                lea.l      A0, [A5 - 0x1D0E]
000005C8  43ED ED82                lea.l      A1, [A5 - 0x127E]
000005CC  20D9                     move.l     [A0]+, [A1]+
000005CE  20D9                     move.l     [A0]+, [A1]+
000005D0  4EBA 1EBC                jsr        [PC + 0x1EBC /* 0000248E */]
000005D4  486D D72E                pea.l      [A5 - 0x28D2]
000005D8  486D D73A                pea.l      [A5 - 0x28C6]
000005DC  4EBA 0C2E                jsr        [PC + 0xC2E /* 0000120C */]
000005E0  4EBA 09FC                jsr        [PC + 0x9FC /* 00000FDE */]
000005E4  7003                     moveq.l    D0, 0x03
000005E6  B06D DC32                cmp.w      D0, [A5 - 0x23CE]
000005EA  57C0                     seq        D0
000005EC  122D DC2A                move.b     D1, [A5 - 0x23D6]
000005F0  0A01 0001                xori.b     D1, 0x1
000005F4  C001                     and.b      D0, D1
000005F6  6710                     beq        +0x12 /* 00000608 */
000005F8  206D DBFC                movea.l    A0, [A5 - 0x2404]
000005FC  2050                     movea.l    A0, [A0]
000005FE  4868 0018                pea.l      [A0 + 0x18]
00000602  700F                     moveq.l    D0, 0x0F
00000604  2F00                     move.l     -[A7], D0
00000606  A85F                     syscall    BitClr
label00000608:
00000608  4267                     clr.w      -[A7]
0000060A  A994                     syscall    CurResFile
0000060C  3D5F FFE0                move.w     [A6 - 0x20], [A7]+
00000610  4EAD 0192                jsr        [A5 + 0x192 /* export_46, CODE:1 @ 00003E62 */]
00000614  4EAD 0172                jsr        [A5 + 0x172 /* export_42, CODE:1 @ 00003E2A */]
00000618  3F2E FFE0                move.w     -[A7], [A6 - 0x20]
0000061C  A998                     syscall    UseResFile
0000061E  4267                     clr.w      -[A7]
00000620  4EBA 1E52                jsr        [PC + 0x1E52 /* 00002474 */]
00000624  422D DC51                clr.b      [A5 - 0x23AF]
00000628  422D D7C0                clr.b      [A5 - 0x2840]
0000062C  4EBA 1154                jsr        [PC + 0x1154 /* 00001782 */]
00000630  4EAD 1862                jsr        [A5 + 0x1862 /* export_776, CODE:16 @ 00000474 */]
00000634  4E5E                     unlink     A6
00000636  4E75                     rts
fn00000638:
00000638  4E56 0000                link       A6, 0
0000063C  2F0C                     move.l     -[A7], A4
0000063E  286E 0008                movea.l    A4, [A6 + 0x8]
00000642  2F2C FFD0                move.l     -[A7], [A4 - 0x30]
00000646  487A 0022                pea.l      [PC + 0x22 /* 0000066A, value 0x6677361, pstring "gsave " */]
0000064A  A907                     syscall    SetString
0000064C  206C FFD0                movea.l    A0, [A4 - 0x30]
00000650  2050                     movea.l    A0, [A0]
00000652  10BC 0020                move.b     [A0], 0x20 /* ' ' */
00000656  2F3C 0007 00C0           move.l     -[A7], 0x700C0
0000065C  2F2C FFD0                move.l     -[A7], [A4 - 0x30]
00000660  A8F2                     syscall    PicComment
00000662  285F                     movea.l    A4, [A7]+
00000664  4E5E                     unlink     A6
00000666  2E9F                     move.l     [A7], [A7]+
00000668  4E75                     rts
0000066A  0667 7361                addi.w     -[A7], 0x7361 /* 'sa' */
0000066E  7665                     moveq.l    D3, 0x65
00000670  2000                     move.l     D0, D0
fn00000672:
00000672  4E56 0000                link       A6, 0
00000676  2F0C                     move.l     -[A7], A4
00000678  286E 0008                movea.l    A4, [A6 + 0x8]
0000067C  2F2C FFD0                move.l     -[A7], [A4 - 0x30]
00000680  487A 0022                pea.l      [PC + 0x22 /* 000006A4, value 0x9677265 '\tgre', pstring "grestore " */]
00000684  A907                     syscall    SetString
00000686  206C FFD0                movea.l    A0, [A4 - 0x30]
0000068A  2050                     movea.l    A0, [A0]
0000068C  10BC 0020                move.b     [A0], 0x20 /* ' ' */
00000690  2F3C 000A 00C0           move.l     -[A7], 0xA00C0
00000696  2F2C FFD0                move.l     -[A7], [A4 - 0x30]
0000069A  A8F2                     syscall    PicComment
0000069C  285F                     movea.l    A4, [A7]+
0000069E  4E5E                     unlink     A6
000006A0  2E9F                     move.l     [A7], [A7]+
000006A2  4E75                     rts
000006A4  0967                     bchg       -[A7], D4
000006A6  7265                     moveq.l    D1, 0x65
000006A8  7374                     moveq.l    D1, 0x74
000006AA  6F72                     ble        +0x74 /* 0000071E */
000006AC  6520                     bcs        +0x22 /* 000006CE */
fn000006AE:
000006AE  4E56 FFC4                link       A6, -0x003C
000006B2  48E7 0108                movem.l    -[A7], D7,A4
000006B6  286E 0008                movea.l    A4, [A6 + 0x8]
000006BA  2F2C FFD0                move.l     -[A7], [A4 - 0x30]
000006BE  486E FFC4                pea.l      [A6 - 0x3C]
000006C2  302E 000C                move.w     D0, [A6 + 0xC]
000006C6  48C0                     ext.l      D0
000006C8  2F00                     move.l     -[A7], D0
000006CA  4EAD 1902                jsr        [A5 + 0x1902 /* export_796, CODE:16 @ 000009D4 */]
label000006CE:
000006CE  487A 0040                pea.l      [PC + 0x40 /* 00000710, value 0x11203420, pstring " 4 div dup scale " */]
000006D2  486E FFD8                pea.l      [A6 - 0x28]
000006D6  3F3C 0002                move.w     -[A7], 0x2
000006DA  4EAD 050A                jsr        [A5 + 0x50A /* export_157, CODE:1 @ 0000531E */]
000006DE  486E FFD8                pea.l      [A6 - 0x28]
000006E2  A907                     syscall    SetString
000006E4  206C FFD0                movea.l    A0, [A4 - 0x30]
000006E8  2050                     movea.l    A0, [A0]
000006EA  4247                     clr.w      D7
000006EC  1E10                     move.b     D7, [A0]
000006EE  206C FFD0                movea.l    A0, [A4 - 0x30]
000006F2  2050                     movea.l    A0, [A0]
000006F4  10BC 0020                move.b     [A0], 0x20 /* ' ' */
000006F8  3F3C 00C0                move.w     -[A7], 0xC0
000006FC  3F07                     move.w     -[A7], D7
000006FE  2F2C FFD0                move.l     -[A7], [A4 - 0x30]
00000702  A8F2                     syscall    PicComment
00000704  4CDF 1080                movem.l    D7,A4, [A7]+
00000708  4E5E                     unlink     A6
0000070A  205F                     movea.l    A0, [A7]+
0000070C  5C4F                     addq.w     A7, 6
0000070E  4ED0                     jmp        [A0]
00000710  1120                     move.b     -[A0], -[A0]
00000712  3420                     move.w     D2, -[A0]
00000714  6469                     bcc        +0x6B /* 0000077F */
00000716  7620                     moveq.l    D3, 0x20
00000718  6475                     bcc        +0x77 /* 0000078F */
0000071A  7020                     moveq.l    D0, 0x20
0000071C  7363                     moveq.l    D1, 0x63
label0000071E:
0000071E  616C                     bsr        +0x6E /* 0000078C */
00000720  6520                     bcs        +0x22 /* 00000742 */
fn00000722:
00000722  4E56 FFA2                link       A6, -0x005E
00000726  48E7 0108                movem.l    -[A7], D7,A4
0000072A  286E 0008                movea.l    A4, [A6 + 0x8]
0000072E  2F2C FFD0                move.l     -[A7], [A4 - 0x30]
00000732  486E FFB6                pea.l      [A6 - 0x4A]
00000736  302E 000E                move.w     D0, [A6 + 0xE]
0000073A  48C0                     ext.l      D0
0000073C  2F00                     move.l     -[A7], D0
0000073E  4EAD 1902                jsr        [A5 + 0x1902 /* export_796, CODE:16 @ 000009D4 */]
label00000742:
00000742  487A 0064                pea.l      [PC + 0x64 /* 000007A8, value 0x1204E56 */]
00000746  486E FFA2                pea.l      [A6 - 0x5E]
0000074A  302E 000C                move.w     D0, [A6 + 0xC]
0000074E  48C0                     ext.l      D0
00000750  2F00                     move.l     -[A7], D0
00000752  4EAD 1902                jsr        [A5 + 0x1902 /* export_796, CODE:16 @ 000009D4 */]
00000756  487A 0044                pea.l      [PC + 0x44 /* 0000079C, value 0xB207472, pstring " translate " */]
0000075A  486E FFCA                pea.l      [A6 - 0x36]
0000075E  3F3C 0004                move.w     -[A7], 0x4
00000762  4EAD 050A                jsr        [A5 + 0x50A /* export_157, CODE:1 @ 0000531E */]
00000766  486E FFCA                pea.l      [A6 - 0x36]
0000076A  A907                     syscall    SetString
0000076C  206C FFD0                movea.l    A0, [A4 - 0x30]
00000770  2050                     movea.l    A0, [A0]
00000772  4240                     clr.w      D0
00000774  1010                     move.b     D0, [A0]
00000776  3E00                     move.w     D7, D0
00000778  5247                     addq.w     D7, 1
0000077A  206C FFD0                movea.l    A0, [A4 - 0x30]
0000077E  2050                     movea.l    A0, [A0]
00000780  10BC 0020                move.b     [A0], 0x20 /* ' ' */
00000784  3F3C 00C0                move.w     -[A7], 0xC0
00000788  3F07                     move.w     -[A7], D7
0000078A  2F2C FFD0                move.l     -[A7], [A4 - 0x30]
// begin alternate branch 0000078C-0000078E
fn0000078C:
0000078C  FFD0                     .invalid   <<F/7/7>>
// end alternate branch 0000078C-0000078E
fn0000078C: // (misaligned)
0000078E  A8F2                     syscall    PicComment
00000790  4CDF 1080                movem.l    D7,A4, [A7]+
00000794  4E5E                     unlink     A6
00000796  205F                     movea.l    A0, [A7]+
00000798  504F                     addq.w     A7, 8
0000079A  4ED0                     jmp        [A0]
0000079C  0B20                     btst       -[A0], D5
0000079E  7472                     moveq.l    D2, 0x72
000007A0  616E                     bsr        +0x70 /* 00000810 */
000007A2  736C                     moveq.l    D1, 0x6C
000007A4  6174                     bsr        +0x76 /* 0000081A */
000007A6  6520                     bcs        +0x22 /* 000007C8 */
000007A8  0120                     btst       -[A0], D0
fn000007AA:
000007AA  4E56 FFC2                link       A6, -0x003E
000007AE  48E7 0108                movem.l    -[A7], D7,A4
000007B2  286E 0008                movea.l    A4, [A6 + 0x8]
000007B6  2F2C FFD0                move.l     -[A7], [A4 - 0x30]
000007BA  487A 0062                pea.l      [PC + 0x62 /* 0000081E, value 0x72F6879, pstring "/hyprs " */]
000007BE  486E FFC2                pea.l      [A6 - 0x3E]
000007C2  302E 000C                move.w     D0, [A6 + 0xC]
000007C6  48C0                     ext.l      D0
label000007C8:
000007C8  2F00                     move.l     -[A7], D0
000007CA  4EAD 1902                jsr        [A5 + 0x1902 /* export_796, CODE:16 @ 000009D4 */]
000007CE  487A 0040                pea.l      [PC + 0x40 /* 00000810, value 0xC207374, pstring " string def " */]
000007D2  486E FFD6                pea.l      [A6 - 0x2A]
000007D6  3F3C 0003                move.w     -[A7], 0x3
000007DA  4EAD 050A                jsr        [A5 + 0x50A /* export_157, CODE:1 @ 0000531E */]
000007DE  486E FFD6                pea.l      [A6 - 0x2A]
000007E2  A907                     syscall    SetString
000007E4  206C FFD0                movea.l    A0, [A4 - 0x30]
000007E8  2050                     movea.l    A0, [A0]
000007EA  4247                     clr.w      D7
000007EC  1E10                     move.b     D7, [A0]
000007EE  206C FFD0                movea.l    A0, [A4 - 0x30]
000007F2  2050                     movea.l    A0, [A0]
000007F4  10BC 0020                move.b     [A0], 0x20 /* ' ' */
000007F8  3F3C 00C0                move.w     -[A7], 0xC0
000007FC  3F07                     move.w     -[A7], D7
000007FE  2F2C FFD0                move.l     -[A7], [A4 - 0x30]
00000802  A8F2                     syscall    PicComment
00000804  4CDF 1080                movem.l    D7,A4, [A7]+
00000808  4E5E                     unlink     A6
0000080A  205F                     movea.l    A0, [A7]+
0000080C  5C4F                     addq.w     A7, 6
0000080E  4ED0                     jmp        [A0]
fn00000810:
00000810  0C20 7374                cmpi.b     -[A0], 0x74 /* 't' */
00000814  7269                     moveq.l    D1, 0x69
00000816  6E67                     bgt        +0x69 /* 0000087F */
00000818  2064                     movea.l    A0, -[A4]
fn0000081A:
0000081A  6566                     bcs        +0x68 /* 00000882 */
0000081C  2000                     move.l     D0, D0
0000081E  072F 6879                btst       [A7 + 0x6879], D3
00000822  7072                     moveq.l    D0, 0x72
00000824  7320                     moveq.l    D1, 0x20
fn00000826:
00000826  4E56 0000                link       A6, 0
0000082A  2F0C                     move.l     -[A7], A4
0000082C  286E 0008                movea.l    A4, [A6 + 0x8]
00000830  2F2C FFD0                move.l     -[A7], [A4 - 0x30]
00000834  487A 0022                pea.l      [PC + 0x22 /* 00000858, value 0x1D637572, pstring "currentfile hyprs readstring " */]
00000838  A907                     syscall    SetString
0000083A  206C FFD0                movea.l    A0, [A4 - 0x30]
0000083E  2050                     movea.l    A0, [A0]
00000840  10BC 0020                move.b     [A0], 0x20 /* ' ' */
00000844  2F3C 001E 00C0           move.l     -[A7], 0x1E00C0
0000084A  2F2C FFD0                move.l     -[A7], [A4 - 0x30]
0000084E  A8F2                     syscall    PicComment
00000850  285F                     movea.l    A4, [A7]+
00000852  4E5E                     unlink     A6
00000854  2E9F                     move.l     [A7], [A7]+
00000856  4E75                     rts
00000858  1D63 7572                move.b     [A6 + 0x7572], -[A3]
0000085C  7265                     moveq.l    D1, 0x65
0000085E  6E74                     bgt        +0x76 /* 000008D4 */
00000860  6669                     bne        +0x6B /* 000008CB */
00000862  6C65                     bge        +0x67 /* 000008C9 */
00000864  2068 7970                movea.l    A0, [A0 + 0x7970]
00000868  7273                     moveq.l    D1, 0x73
0000086A  2072 6561 6473           movea.l    A0, [[A2 + 0x6473]]
00000870  7472                     moveq.l    D2, 0x72
00000872  696E                     bvs        +0x70 /* 000008E2 */
00000874  6720                     beq        +0x22 /* 00000896 */
fn00000876:
00000876  4E56 0000                link       A6, 0
0000087A  2F0C                     move.l     -[A7], A4
0000087C  286E 0008                movea.l    A4, [A6 + 0x8]
00000880  2F2C FFD0                move.l     -[A7], [A4 - 0x30]
// begin alternate branch 00000882-00000884
label00000882:
00000882  FFD0                     .invalid   <<F/7/7>>
// end alternate branch 00000882-00000884
label00000882: // (misaligned)
00000884  487A 0022                pea.l      [PC + 0x22 /* 000008A8, value 0x8706F70, pstring "pop pop " */]
00000888  A907                     syscall    SetString
0000088A  206C FFD0                movea.l    A0, [A4 - 0x30]
0000088E  2050                     movea.l    A0, [A0]
00000890  10BC 0020                move.b     [A0], 0x20 /* ' ' */
00000894  2F3C 0009 00C0           move.l     -[A7], 0x900C0
// begin alternate branch 00000896-0000089A
label00000896:
00000896  0009 00C0                ori.b      A1, 0xC0
// end alternate branch 00000896-0000089A
label00000896: // (misaligned)
0000089A  2F2C FFD0                move.l     -[A7], [A4 - 0x30]
0000089E  A8F2                     syscall    PicComment
000008A0  285F                     movea.l    A4, [A7]+
000008A2  4E5E                     unlink     A6
000008A4  2E9F                     move.l     [A7], [A7]+
000008A6  4E75                     rts
000008A8  0870 6F70 2070           bchg.b     [A0 + D2.w + 0x70], 0x70 /* 'p' */
000008AE  6F70                     ble        +0x72 /* 00000920 */
000008B0  2000                     move.l     D0, D0
fn000008B2:
000008B2  4E56 0000                link       A6, 0
000008B6  2F0C                     move.l     -[A7], A4
000008B8  286E 0008                movea.l    A4, [A6 + 0x8]
000008BC  2F2C FFD0                move.l     -[A7], [A4 - 0x30]
000008C0  487A 0022                pea.l      [PC + 0x22 /* 000008E4, value 0xB2D3930, pstring "-90 rotate " */]
000008C4  A907                     syscall    SetString
000008C6  206C FFD0                movea.l    A0, [A4 - 0x30]
000008CA  2050                     movea.l    A0, [A0]
000008CC  10BC 0020                move.b     [A0], 0x20 /* ' ' */
000008D0  2F3C 000C 00C0           move.l     -[A7], 0xC00C0
// begin alternate branch 000008D4-000008D6
label000008D4:
000008D4  00C0                     .incomplete
// end alternate branch 000008D4-000008D6
label000008D4: // (misaligned)
000008D6  2F2C FFD0                move.l     -[A7], [A4 - 0x30]
000008DA  A8F2                     syscall    PicComment
000008DC  285F                     movea.l    A4, [A7]+
000008DE  4E5E                     unlink     A6
000008E0  2E9F                     move.l     [A7], [A7]+
label000008E2:
000008E2  4E75                     rts
000008E4  0B2D 3930                btst       [A5 + 0x3930], D5
000008E8  2072 6F74                movea.l    A0, <<invalid full ext with I/IS == 4>>
000008EC  6174                     bsr        +0x76 /* 00000962 */
000008EE  6520                     bcs        +0x22 /* 00000910 */
fn000008F0:
000008F0  4E56 FDEA                link       A6, -0x0216
000008F4  48E7 0108                movem.l    -[A7], D7,A4
000008F8  286E 0008                movea.l    A4, [A6 + 0x8]
000008FC  286C 0008                movea.l    A4, [A4 + 0x8]
00000900  486E FDEA                pea.l      [A6 - 0x216]
00000904  302E 000C                move.w     D0, [A6 + 0xC]
00000908  48C0                     ext.l      D0
0000090A  2F00                     move.l     -[A7], D0
0000090C  4EAD 1902                jsr        [A5 + 0x1902 /* export_796, CODE:16 @ 000009D4 */]
label00000910:
00000910  205F                     movea.l    A0, [A7]+
00000912  43EE FF00                lea.l      A1, [A6 - 0x100]
00000916  7004                     moveq.l    D0, 0x04
label00000918:
00000918  22D8                     move.l     [A1]+, [A0]+
0000091A  51C8 FFFC                dbf        D0, -0x6 /* 00000918 */
0000091E  2F2C FFD0                move.l     -[A7], [A4 - 0x30]
// begin alternate branch 00000920-00000922
label00000920:
00000920  FFD0                     .invalid   <<F/7/7>>
// end alternate branch 00000920-00000922
label00000920: // (misaligned)
00000922  487A 0076                pea.l      [PC + 0x76 /* 0000099A, value 0x6687970, pstring "hyprm " */]
00000926  486E FF00                pea.l      [A6 - 0x100]
0000092A  487A 0054                pea.l      [PC + 0x54 /* 00000980, value 0x19206765, pstring " get abs .0001 le {hyprm " */]
0000092E  486E FF00                pea.l      [A6 - 0x100]
00000932  487A 0040                pea.l      [PC + 0x40 /* 00000974, value 0xB203020, pstring " 0 put} if " */]
00000936  486E FDFE                pea.l      [A6 - 0x202]
0000093A  3F3C 0005                move.w     -[A7], 0x5
0000093E  4EAD 050A                jsr        [A5 + 0x50A /* export_157, CODE:1 @ 0000531E */]
00000942  486E FDFE                pea.l      [A6 - 0x202]
00000946  A907                     syscall    SetString
00000948  206C FFD0                movea.l    A0, [A4 - 0x30]
0000094C  2050                     movea.l    A0, [A0]
0000094E  4247                     clr.w      D7
00000950  1E10                     move.b     D7, [A0]
00000952  206C FFD0                movea.l    A0, [A4 - 0x30]
00000956  2050                     movea.l    A0, [A0]
00000958  10BC 0020                move.b     [A0], 0x20 /* ' ' */
0000095C  3F3C 00C0                move.w     -[A7], 0xC0
00000960  3F07                     move.w     -[A7], D7
fn00000962:
00000962  2F2C FFD0                move.l     -[A7], [A4 - 0x30]
00000966  A8F2                     syscall    PicComment
00000968  4CDF 1080                movem.l    D7,A4, [A7]+
0000096C  4E5E                     unlink     A6
0000096E  205F                     movea.l    A0, [A7]+
00000970  5C4F                     addq.w     A7, 6
00000972  4ED0                     jmp        [A0]
00000974  0B20                     btst       -[A0], D5
00000976  3020                     move.w     D0, -[A0]
00000978  7075                     moveq.l    D0, 0x75
0000097A  747D                     moveq.l    D2, 0x7D
0000097C  2069 6620                movea.l    A0, [A1 + 0x6620]
00000980  1920                     move.b     -[A4], -[A0]
00000982  6765                     beq        +0x67 /* 000009E9 */
00000984  7420                     moveq.l    D2, 0x20
00000986  6162                     bsr        +0x64 /* 000009EA */
00000988  7320                     moveq.l    D1, 0x20
0000098A  2E30 3030                move.l     D7, [A0 + D3.w + 0x30]
0000098E  3120                     move.w     -[A0], -[A0]
00000990  6C65                     bge        +0x67 /* 000009F7 */
00000992  207B 6879                movea.l    A0, [PC + D6 + 0x79]
00000996  7072                     moveq.l    D0, 0x72
00000998  6D20                     blt        +0x22 /* 000009BA */
0000099A  0668 7970 726D           addi.w     [A0 + 0x726D], 0x7970 /* 'yp' */
000009A0  2000                     move.l     D0, D0
fn000009A2:
000009A2  4E56 FFFE                link       A6, -0x0002
000009A6  48E7 0108                movem.l    -[A7], D7,A4
000009AA  286E 0008                movea.l    A4, [A6 + 0x8]
000009AE  2F2C FFD0                move.l     -[A7], [A4 - 0x30]
000009B2  487A 006A                pea.l      [PC + 0x6A /* 00000A1E, value 0x202F6879 ' /hy', pstring "/hyprm matrix currentmatrix def " */]
000009B6  A907                     syscall    SetString
000009B8  206C FFD0                movea.l    A0, [A4 - 0x30]
// begin alternate branch 000009BA-000009BC
label000009BA:
000009BA  FFD0                     .invalid   <<F/7/7>>
// end alternate branch 000009BA-000009BC
label000009BA: // (misaligned)
000009BC  2050                     movea.l    A0, [A0]
000009BE  10BC 0020                move.b     [A0], 0x20 /* ' ' */
000009C2  2F3C 0021 00C0           move.l     -[A7], 0x2100C0
000009C8  2F2C FFD0                move.l     -[A7], [A4 - 0x30]
000009CC  A8F2                     syscall    PicComment
000009CE  4247                     clr.w      D7
000009D0  600A                     bra        +0xC /* 000009DC */
label000009D2:
000009D2  3F07                     move.w     -[A7], D7
000009D4  2F0E                     move.l     -[A7], A6
000009D6  4EBA FF18                jsr        [PC - 0xE8 /* 000008F0 */]
000009DA  5247                     addq.w     D7, 1
label000009DC:
000009DC  7005                     moveq.l    D0, 0x05
000009DE  B047                     cmp.w      D0, D7
000009E0  6CF0                     bge        -0xE /* 000009D2 */
000009E2  2F2C FFD0                move.l     -[A7], [A4 - 0x30]
000009E6  487A 0024                pea.l      [PC + 0x24 /* 00000A0C, value 0x10687970, pstring "hyprm setmatrix " */]
fn000009EA:
000009EA  A907                     syscall    SetString
000009EC  206C FFD0                movea.l    A0, [A4 - 0x30]
000009F0  2050                     movea.l    A0, [A0]
000009F2  10BC 0020                move.b     [A0], 0x20 /* ' ' */
000009F6  2F3C 0011 00C0           move.l     -[A7], 0x1100C0
000009FC  2F2C FFD0                move.l     -[A7], [A4 - 0x30]
00000A00  A8F2                     syscall    PicComment
00000A02  4CDF 1080                movem.l    D7,A4, [A7]+
00000A06  4E5E                     unlink     A6
00000A08  2E9F                     move.l     [A7], [A7]+
00000A0A  4E75                     rts
00000A0C  1068 7970                movea.b    A0, [A0 + 0x7970]
00000A10  726D                     moveq.l    D1, 0x6D
00000A12  2073 6574                movea.l    A0, <<invalid full ext with I/IS == 4>>
00000A16  6D61                     blt        +0x63 /* 00000A79 */
00000A18  7472                     moveq.l    D2, 0x72
00000A1A  6978                     bvs        +0x7A /* 00000A94 */
00000A1C  2000                     move.l     D0, D0
00000A1E  202F 6879                move.l     D0, [A7 + 0x6879]
00000A22  7072                     moveq.l    D0, 0x72
00000A24  6D20                     blt        +0x22 /* 00000A46 */
00000A26  6D61                     blt        +0x63 /* 00000A89 */
00000A28  7472                     moveq.l    D2, 0x72
00000A2A  6978                     bvs        +0x7A /* 00000AA4 */
00000A2C  2063                     movea.l    A0, -[A3]
00000A2E  7572                     moveq.l    D2, 0x72
00000A30  7265                     moveq.l    D1, 0x65
00000A32  6E74                     bgt        +0x76 /* 00000AA8 */
00000A34  6D61                     blt        +0x63 /* 00000A97 */
00000A36  7472                     moveq.l    D2, 0x72
00000A38  6978                     bvs        +0x7A /* 00000AB2 */
00000A3A  2064                     movea.l    A0, -[A4]
00000A3C  6566                     bcs        +0x68 /* 00000AA4 */
00000A3E  2000                     move.l     D0, D0
fn00000A40:
00000A40  4E56 FDEA                link       A6, -0x0216
00000A44  48E7 0108                movem.l    -[A7], D7,A4
// begin alternate branch 00000A46-00000A48
label00000A46:
00000A46  0108                     btst       A0, D0
// end alternate branch 00000A46-00000A48
label00000A46: // (misaligned)
00000A48  286E 0008                movea.l    A4, [A6 + 0x8]
00000A4C  486E FDEA                pea.l      [A6 - 0x216]
00000A50  302E 000C                move.w     D0, [A6 + 0xC]
00000A54  48C0                     ext.l      D0
00000A56  2F00                     move.l     -[A7], D0
00000A58  4EAD 1902                jsr        [A5 + 0x1902 /* export_796, CODE:16 @ 000009D4 */]
00000A5C  205F                     movea.l    A0, [A7]+
00000A5E  43EE FF00                lea.l      A1, [A6 - 0x100]
00000A62  7004                     moveq.l    D0, 0x04
label00000A64:
00000A64  22D8                     move.l     [A1]+, [A0]+
00000A66  51C8 FFFC                dbf        D0, -0x6 /* 00000A64 */
00000A6A  2F2C FFD0                move.l     -[A7], [A4 - 0x30]
00000A6E  486E FDEA                pea.l      [A6 - 0x216]
00000A72  302E 000E                move.w     D0, [A6 + 0xE]
00000A76  48C0                     ext.l      D0
00000A78  2F00                     move.l     -[A7], D0
00000A7A  4EAD 1902                jsr        [A5 + 0x1902 /* export_796, CODE:16 @ 000009D4 */]
00000A7E  487A 0078                pea.l      [PC + 0x78 /* 00000AF8, value 0x1204E56 */]
00000A82  486E FF00                pea.l      [A6 - 0x100]
00000A86  487A 005E                pea.l      [PC + 0x5E /* 00000AE6, value 0x11207472, pstring " true [1 0 0 1 0 " */]
00000A8A  486E FF00                pea.l      [A6 - 0x100]
00000A8E  487A 0040                pea.l      [PC + 0x40 /* 00000AD0, value 0x145D207B, pstring "] {hyprs} imagemask " */]
00000A92  486E FDFE                pea.l      [A6 - 0x202]
// begin alternate branch 00000A94-00000A96
label00000A94:
00000A94  FDFE                     .invalid   <<F/7/6>>
// end alternate branch 00000A94-00000A96
label00000A94: // (misaligned)
00000A96  3F3C 0006                move.w     -[A7], 0x6
00000A9A  4EAD 050A                jsr        [A5 + 0x50A /* export_157, CODE:1 @ 0000531E */]
00000A9E  486E FDFE                pea.l      [A6 - 0x202]
00000AA2  A907                     syscall    SetString
label00000AA4:
00000AA4  206C FFD0                movea.l    A0, [A4 - 0x30]
label00000AA8:
00000AA8  2050                     movea.l    A0, [A0]
00000AAA  4247                     clr.w      D7
00000AAC  1E10                     move.b     D7, [A0]
00000AAE  206C FFD0                movea.l    A0, [A4 - 0x30]
label00000AB2:
00000AB2  2050                     movea.l    A0, [A0]
00000AB4  10BC 0020                move.b     [A0], 0x20 /* ' ' */
00000AB8  3F3C 00C0                move.w     -[A7], 0xC0
00000ABC  3F07                     move.w     -[A7], D7
00000ABE  2F2C FFD0                move.l     -[A7], [A4 - 0x30]
00000AC2  A8F2                     syscall    PicComment
00000AC4  4CDF 1080                movem.l    D7,A4, [A7]+
00000AC8  4E5E                     unlink     A6
00000ACA  205F                     movea.l    A0, [A7]+
00000ACC  504F                     addq.w     A7, 8
00000ACE  4ED0                     jmp        [A0]
00000AD0  145D                     movea.b    A2, [A5]+
00000AD2  207B 6879                movea.l    A0, [PC + D6 + 0x79]
00000AD6  7072                     moveq.l    D0, 0x72
00000AD8  737D                     moveq.l    D1, 0x7D
00000ADA  2069 6D61                movea.l    A0, [A1 + 0x6D61]
00000ADE  6765                     beq        +0x67 /* 00000B45 */
00000AE0  6D61                     blt        +0x63 /* 00000B43 */
00000AE2  736B                     moveq.l    D1, 0x6B
00000AE4  2000                     move.l     D0, D0
00000AE6  1120                     move.b     -[A0], -[A0]
00000AE8  7472                     moveq.l    D2, 0x72
00000AEA  7565                     moveq.l    D2, 0x65
00000AEC  205B                     movea.l    A0, [A3]+
00000AEE  3120                     move.w     -[A0], -[A0]
00000AF0  3020                     move.w     D0, -[A0]
00000AF2  3020                     move.w     D0, -[A0]
00000AF4  3120                     move.w     -[A0], -[A0]
00000AF6  3020                     move.w     D0, -[A0]
00000AF8  0120                     btst       -[A0], D0
fn00000AFA:
00000AFA  4E56 0000                link       A6, 0
00000AFE  4267                     clr.w      -[A7]
00000B00  226E 0008                movea.l    A1, [A6 + 0x8]
00000B04  2069 FFCC                movea.l    A0, [A1 - 0x34]
00000B08  2F10                     move.l     -[A7], [A0]
00000B0A  3F2E 0010                move.w     -[A7], [A6 + 0x10]
00000B0E  4EBA 4014                jsr        [PC + 0x4014 /* 00004B24 */]
00000B12  101F                     move.b     D0, [A7]+
00000B14  6702                     beq        +0x4 /* 00000B18 */
00000B16  602E                     bra        +0x30 /* 00000B46 */
label00000B18:
00000B18  2F2E 0008                move.l     -[A7], [A6 + 0x8]
00000B1C  4EBA FD08                jsr        [PC - 0x2F8 /* 00000826 */]
00000B20  3F3C 00C0                move.w     -[A7], 0xC0
00000B24  3F2E 0010                move.w     -[A7], [A6 + 0x10]
00000B28  206E 0008                movea.l    A0, [A6 + 0x8]
00000B2C  2F28 FFCC                move.l     -[A7], [A0 - 0x34]
00000B30  A8F2                     syscall    PicComment
00000B32  2F2E 0008                move.l     -[A7], [A6 + 0x8]
00000B36  4EBA FD3E                jsr        [PC - 0x2C2 /* 00000876 */]
00000B3A  2F2E 000C                move.l     -[A7], [A6 + 0xC]
00000B3E  2F2E 0008                move.l     -[A7], [A6 + 0x8]
00000B42  4EBA FEFC                jsr        [PC - 0x104 /* 00000A40 */]
label00000B46:
00000B46  4E5E                     unlink     A6
00000B48  205F                     movea.l    A0, [A7]+
00000B4A  DEFC 000A                add.w      A7, 0xA /* '\n' */
00000B4E  4ED0                     jmp        [A0]
export_189:
fn00000B50:
00000B50  4E56 FFAA                link       A6, -0x0056
00000B54  48E7 0F00                movem.l    -[A7], D4,D5,D6,D7
00000B58  206E 0014                movea.l    A0, [A6 + 0x14]
00000B5C  43EE FFF2                lea.l      A1, [A6 - 0xE]
00000B60  22D8                     move.l     [A1]+, [A0]+
00000B62  22D8                     move.l     [A1]+, [A0]+
00000B64  22D8                     move.l     [A1]+, [A0]+
00000B66  3290                     move.w     [A1], [A0]
00000B68  206E 0010                movea.l    A0, [A6 + 0x10]
00000B6C  43EE FFE4                lea.l      A1, [A6 - 0x1C]
00000B70  22D8                     move.l     [A1]+, [A0]+
00000B72  22D8                     move.l     [A1]+, [A0]+
00000B74  22D8                     move.l     [A1]+, [A0]+
00000B76  3290                     move.w     [A1], [A0]
00000B78  206E 000C                movea.l    A0, [A6 + 0xC]
00000B7C  43EE FFDC                lea.l      A1, [A6 - 0x24]
00000B80  22D8                     move.l     [A1]+, [A0]+
00000B82  22D8                     move.l     [A1]+, [A0]+
00000B84  206E 0008                movea.l    A0, [A6 + 0x8]
00000B88  43EE FFD4                lea.l      A1, [A6 - 0x2C]
00000B8C  22D8                     move.l     [A1]+, [A0]+
00000B8E  22D8                     move.l     [A1]+, [A0]+
00000B90  4267                     clr.w      -[A7]
00000B92  1F2D D9F6                move.b     -[A7], [A5 - 0x260A]
00000B96  4EBA 328C                jsr        [PC + 0x328C /* 00003E24 */]
00000B9A  101F                     move.b     D0, [A7]+
00000B9C  6700 0414                beq        +0x416 /* 00000FB2 */
00000BA0  42A7                     clr.l      -[A7]
00000BA2  487A 0438                pea.l      [PC + 0x438 /* 00000FDC, value 0x4E56 'NV', cstring "" */]
00000BA6  A906                     syscall    NewString
00000BA8  2D5F FFD0                move.l     [A6 - 0x30], [A7]+
00000BAC  4267                     clr.w      -[A7]
00000BAE  4EBA 3F46                jsr        [PC + 0x3F46 /* 00004AF6 */]
00000BB2  101F                     move.b     D0, [A7]+
00000BB4  0A00 0001                xori.b     D0, 0x1
00000BB8  1D40 FFAF                move.b     [A6 - 0x51], D0
00000BBC  6712                     beq        +0x14 /* 00000BD0 */
00000BBE  42A7                     clr.l      -[A7]
00000BC0  2F3C 0000 B000           move.l     -[A7], 0xB000
00000BC6  4EAD 18DA                jsr        [A5 + 0x18DA /* export_791, CODE:16 @ 00000896 */]
00000BCA  2D5F FFCC                move.l     [A6 - 0x34], [A7]+
00000BCE  6010                     bra        +0x12 /* 00000BE0 */
label00000BD0:
00000BD0  42A7                     clr.l      -[A7]
00000BD2  2F3C 0000 5800           move.l     -[A7], 0x5800 /* 'X\0' */
00000BD8  4EAD 18DA                jsr        [A5 + 0x18DA /* export_791, CODE:16 @ 00000896 */]
00000BDC  2D5F FFCC                move.l     [A6 - 0x34], [A7]+
label00000BE0:
00000BE0  4AAE FFCC                tst.l      [A6 - 0x34]
00000BE4  6700 03AA                beq        +0x3AC /* 00000F90 */
00000BE8  206D D736                movea.l    A0, [A5 - 0x28CA]
00000BEC  4868 0010                pea.l      [A0 + 0x10]
00000BF0  A87B                     syscall    ClipRect
00000BF2  42A7                     clr.l      -[A7]
00000BF4  A893                     syscall    MoveTo
00000BF6  42A7                     clr.l      -[A7]
00000BF8  A89B                     syscall    PenSize
00000BFA  42A7                     clr.l      -[A7]
00000BFC  A892                     syscall    Line
00000BFE  2F3C 0001 0001           move.l     -[A7], 0x10001
00000C04  A89B                     syscall    PenSize
00000C06  2F3C 0000 00BE           move.l     -[A7], 0xBE
00000C0C  42A7                     clr.l      -[A7]
00000C0E  A8F2                     syscall    PicComment
00000C10  2F0E                     move.l     -[A7], A6
00000C12  4EBA FA24                jsr        [PC - 0x5DC /* 00000638 */]
00000C16  102E FFAF                move.b     D0, [A6 - 0x51]
00000C1A  6716                     beq        +0x18 /* 00000C32 */
00000C1C  3F2E FFD6                move.w     -[A7], [A6 - 0x2A]
00000C20  302E FFD8                move.w     D0, [A6 - 0x28]
00000C24  D07C 000A                add.w      D0, 0xA /* '\n' */
00000C28  3F00                     move.w     -[A7], D0
00000C2A  2F0E                     move.l     -[A7], A6
00000C2C  4EBA FAF4                jsr        [PC - 0x50C /* 00000722 */]
00000C30  600A                     bra        +0xC /* 00000C3C */
label00000C32:
00000C32  2F2E FFD4                move.l     -[A7], [A6 - 0x2C]
00000C36  2F0E                     move.l     -[A7], A6
00000C38  4EBA FAE8                jsr        [PC - 0x518 /* 00000722 */]
label00000C3C:
00000C3C  102D D9F6                move.b     D0, [A5 - 0x260A]
00000C40  4880                     ext.w      D0
00000C42  670A                     beq        +0xC /* 00000C4E */
00000C44  5340                     subq.w     D0, 1
00000C46  6706                     beq        +0x8 /* 00000C4E */
00000C48  5340                     subq.w     D0, 1
00000C4A  670E                     beq        +0x10 /* 00000C5A */
00000C4C  6016                     bra        +0x18 /* 00000C64 */
label00000C4E:
00000C4E  3F3C 0001                move.w     -[A7], 0x1
00000C52  2F0E                     move.l     -[A7], A6
00000C54  4EBA FA58                jsr        [PC - 0x5A8 /* 000006AE */]
00000C58  600A                     bra        +0xC /* 00000C64 */
label00000C5A:
00000C5A  3F3C 0002                move.w     -[A7], 0x2
00000C5E  2F0E                     move.l     -[A7], A6
00000C60  4EBA FA4C                jsr        [PC - 0x5B4 /* 000006AE */]
label00000C64:
00000C64  102E FFAF                move.b     D0, [A6 - 0x51]
00000C68  6700 0160                beq        +0x162 /* 00000DCA */
00000C6C  206E FFCC                movea.l    A0, [A6 - 0x34]
00000C70  2010                     move.l     D0, [A0]
00000C72  D0BC 0000 5800           add.l      D0, 0x5800 /* 'X\0' */
00000C78  2D40 FFC4                move.l     [A6 - 0x3C], D0
00000C7C  2F2E FFC4                move.l     -[A7], [A6 - 0x3C]
00000C80  2F3C 0000 5800           move.l     -[A7], 0x5800 /* 'X\0' */
00000C86  4EBA 44CA                jsr        [PC + 0x44CA /* 00005152 */]
00000C8A  2F2E FFF2                move.l     -[A7], [A6 - 0xE]
00000C8E  2F2E FFC4                move.l     -[A7], [A6 - 0x3C]
00000C92  2F3C 0156 0020           move.l     -[A7], 0x1560020
00000C98  4EAD 1512                jsr        [A5 + 0x1512 /* export_670, CODE:14 @ 000008FA */]
00000C9C  3F3C 5800                move.w     -[A7], 0x5800 /* 'X\0' */
00000CA0  2F0E                     move.l     -[A7], A6
00000CA2  4EBA FB06                jsr        [PC - 0x4FA /* 000007AA */]
00000CA6  102D D9F6                move.b     D0, [A5 - 0x260A]
00000CAA  4880                     ext.w      D0
00000CAC  670E                     beq        +0x10 /* 00000CBC */
00000CAE  5340                     subq.w     D0, 1
00000CB0  670A                     beq        +0xC /* 00000CBC */
00000CB2  5340                     subq.w     D0, 1
00000CB4  6712                     beq        +0x14 /* 00000CC8 */
00000CB6  5340                     subq.w     D0, 1
00000CB8  671A                     beq        +0x1C /* 00000CD4 */
00000CBA  6022                     bra        +0x24 /* 00000CDE */
label00000CBC:
00000CBC  7810                     moveq.l    D4, 0x10
00000CBE  3A3C 0580                move.w     D5, 0x580
00000CC2  3C3C 0080                move.w     D6, 0x80
00000CC6  6016                     bra        +0x18 /* 00000CDE */
label00000CC8:
00000CC8  7804                     moveq.l    D4, 0x04
00000CCA  3A3C 02C0                move.w     D5, 0x2C0
00000CCE  3C3C 0100                move.w     D6, 0x100
00000CD2  600A                     bra        +0xC /* 00000CDE */
label00000CD4:
00000CD4  7801                     moveq.l    D4, 0x01
00000CD6  3A3C 0160                move.w     D5, 0x160
00000CDA  3C3C 0200                move.w     D6, 0x200
label00000CDE:
00000CDE  2F0E                     move.l     -[A7], A6
00000CE0  4EBA FBD0                jsr        [PC - 0x430 /* 000008B2 */]
00000CE4  2F0E                     move.l     -[A7], A6
00000CE6  4EBA FCBA                jsr        [PC - 0x346 /* 000009A2 */]
00000CEA  2D7C 0000 5800 FFB0      move.l     [A6 - 0x50], 0x5800 /* 'X\0' */
00000CF2  3D44 FFAC                move.w     [A6 - 0x54], D4
00000CF6  3D7C 0001 FFC8           move.w     [A6 - 0x38], 0x1
00000CFC  6000 00BC                bra        +0xBE /* 00000DBA */
label00000D00:
00000D00  4267                     clr.w      -[A7]
00000D02  3F06                     move.w     -[A7], D6
00000D04  2F0E                     move.l     -[A7], A6
00000D06  4EBA FA1A                jsr        [PC - 0x5E6 /* 00000722 */]
00000D0A  206E FFCC                movea.l    A0, [A6 - 0x34]
00000D0E  202E FFB0                move.l     D0, [A6 - 0x50]
00000D12  D090                     add.l      D0, [A0]
00000D14  2D40 FFC4                move.l     [A6 - 0x3C], D0
00000D18  206E FFCC                movea.l    A0, [A6 - 0x34]
00000D1C  2D50 FFC0                move.l     [A6 - 0x40], [A0]
00000D20  102D D9F6                move.b     D0, [A5 - 0x260A]
00000D24  4880                     ext.w      D0
00000D26  670E                     beq        +0x10 /* 00000D36 */
00000D28  5340                     subq.w     D0, 1
00000D2A  670A                     beq        +0xC /* 00000D36 */
00000D2C  5340                     subq.w     D0, 1
00000D2E  6724                     beq        +0x26 /* 00000D54 */
00000D30  5340                     subq.w     D0, 1
00000D32  673E                     beq        +0x40 /* 00000D72 */
00000D34  604E                     bra        +0x50 /* 00000D84 */
label00000D36:
00000D36  7E01                     moveq.l    D7, 0x01
00000D38  6012                     bra        +0x14 /* 00000D4C */
label00000D3A:
00000D3A  486E FFC4                pea.l      [A6 - 0x3C]
00000D3E  486E FFC0                pea.l      [A6 - 0x40]
00000D42  3F3C 002C                move.w     -[A7], 0x2C /* ',' */
00000D46  4EBA 3E76                jsr        [PC + 0x3E76 /* 00004BBE */]
00000D4A  5247                     addq.w     D7, 1
label00000D4C:
00000D4C  7020                     moveq.l    D0, 0x20
00000D4E  B047                     cmp.w      D0, D7
00000D50  6CE8                     bge        -0x16 /* 00000D3A */
00000D52  6030                     bra        +0x32 /* 00000D84 */
label00000D54:
00000D54  7E01                     moveq.l    D7, 0x01
00000D56  6012                     bra        +0x14 /* 00000D6A */
label00000D58:
00000D58  486E FFC4                pea.l      [A6 - 0x3C]
00000D5C  486E FFC0                pea.l      [A6 - 0x40]
00000D60  3F3C 002C                move.w     -[A7], 0x2C /* ',' */
00000D64  4EBA 3DF6                jsr        [PC + 0x3DF6 /* 00004B5C */]
00000D68  5247                     addq.w     D7, 1
label00000D6A:
00000D6A  0C47 0080                cmpi.w     D7, 0x80
00000D6E  6FE8                     ble        -0x16 /* 00000D58 */
00000D70  6012                     bra        +0x14 /* 00000D84 */
label00000D72:
00000D72  2F2E FFC4                move.l     -[A7], [A6 - 0x3C]
00000D76  2F2E FFC0                move.l     -[A7], [A6 - 0x40]
00000D7A  2F3C 0000 5800           move.l     -[A7], 0x5800 /* 'X\0' */
00000D80  4EAD 024A                jsr        [A5 + 0x24A /* export_69, CODE:1 @ 000046A6 */]
label00000D84:
00000D84  206E FFCC                movea.l    A0, [A6 - 0x34]
00000D88  202E FFC4                move.l     D0, [A6 - 0x3C]
00000D8C  9090                     sub.l      D0, [A0]
00000D8E  2D40 FFB0                move.l     [A6 - 0x50], D0
00000D92  3F3C 5800                move.w     -[A7], 0x5800 /* 'X\0' */
00000D96  3F05                     move.w     -[A7], D5
00000D98  3F06                     move.w     -[A7], D6
00000D9A  2F0E                     move.l     -[A7], A6
00000D9C  4EBA FD5C                jsr        [PC - 0x2A4 /* 00000AFA */]
00000DA0  4EBA 3CA6                jsr        [PC + 0x3CA6 /* 00004A48 */]
00000DA4  4267                     clr.w      -[A7]
00000DA6  4EBA 16AA                jsr        [PC + 0x16AA /* 00002452 */]
00000DAA  4A5F                     tst.w      [A7]+
00000DAC  6600 01C8                bne        +0x1CA /* 00000F76 */
00000DB0  4EAD 181A                jsr        [A5 + 0x181A /* export_767, CODE:16 @ 00000216 */]
00000DB4  526E FFC8                addq.w     [A6 - 0x38], 1
00000DB8  690C                     bvs        +0xE /* 00000DC6 */
label00000DBA:
00000DBA  302E FFC8                move.w     D0, [A6 - 0x38]
00000DBE  B06E FFAC                cmp.w      D0, [A6 - 0x54]
00000DC2  6F00 FF3C                ble        -0xC2 /* 00000D00 */
label00000DC6:
00000DC6  6000 01AE                bra        +0x1B0 /* 00000F76 */
label00000DCA:
00000DCA  2D6E FFF2 FFC4           move.l     [A6 - 0x3C], [A6 - 0xE]
00000DD0  102D D9F6                move.b     D0, [A5 - 0x260A]
00000DD4  4880                     ext.w      D0
00000DD6  670E                     beq        +0x10 /* 00000DE6 */
00000DD8  5340                     subq.w     D0, 1
00000DDA  670A                     beq        +0xC /* 00000DE6 */
00000DDC  5340                     subq.w     D0, 1
00000DDE  6722                     beq        +0x24 /* 00000E02 */
00000DE0  5340                     subq.w     D0, 1
00000DE2  673C                     beq        +0x3E /* 00000E20 */
00000DE4  604A                     bra        +0x4C /* 00000E30 */
label00000DE6:
00000DE6  3D7C 5800 FFB6           move.w     [A6 - 0x4A], 0x5800 /* 'X\0' */
00000DEC  3D7C 3000 FFB4           move.w     [A6 - 0x4C], 0x3000 /* '0\0' */
00000DF2  3A3C 0800                move.w     D5, 0x800
00000DF6  7C58                     moveq.l    D6, 0x58
00000DF8  3D7C 0030 FFB8           move.w     [A6 - 0x48], 0x30 /* '0' */
00000DFE  780F                     moveq.l    D4, 0x0F
00000E00  602E                     bra        +0x30 /* 00000E30 */
label00000E02:
00000E02  3D7C 5600 FFB6           move.w     [A6 - 0x4A], 0x5600 /* 'V\0' */
00000E08  3D7C 5400 FFB4           move.w     [A6 - 0x4C], 0x5400 /* 'T\0' */
00000E0E  3A3C 0400                move.w     D5, 0x400
00000E12  3C3C 00AC                move.w     D6, 0xAC
00000E16  3D7C 00A8 FFB8           move.w     [A6 - 0x48], 0xA8
00000E1C  7803                     moveq.l    D4, 0x03
00000E1E  6010                     bra        +0x12 /* 00000E30 */
label00000E20:
00000E20  3D7C 5580 FFB6           move.w     [A6 - 0x4A], 0x5580
00000E26  3A3C 0200                move.w     D5, 0x200
00000E2A  3C3C 0156                move.w     D6, 0x156
00000E2E  7801                     moveq.l    D4, 0x01
label00000E30:
00000E30  3F2E FFB6                move.w     -[A7], [A6 - 0x4A]
00000E34  2F0E                     move.l     -[A7], A6
00000E36  4EBA F972                jsr        [PC - 0x68E /* 000007AA */]
00000E3A  3D44 FFAA                move.w     [A6 - 0x56], D4
00000E3E  3D7C 0001 FFC8           move.w     [A6 - 0x38], 0x1
00000E44  6000 00A2                bra        +0xA4 /* 00000EE8 */
label00000E48:
00000E48  4267                     clr.w      -[A7]
00000E4A  3F06                     move.w     -[A7], D6
00000E4C  2F0E                     move.l     -[A7], A6
00000E4E  4EBA F8D2                jsr        [PC - 0x72E /* 00000722 */]
00000E52  206E FFCC                movea.l    A0, [A6 - 0x34]
00000E56  2D50 FFC0                move.l     [A6 - 0x40], [A0]
00000E5A  102D D9F6                move.b     D0, [A5 - 0x260A]
00000E5E  4880                     ext.w      D0
00000E60  670E                     beq        +0x10 /* 00000E70 */
00000E62  5340                     subq.w     D0, 1
00000E64  670A                     beq        +0xC /* 00000E70 */
00000E66  5340                     subq.w     D0, 1
00000E68  6724                     beq        +0x26 /* 00000E8E */
00000E6A  5340                     subq.w     D0, 1
00000E6C  673E                     beq        +0x40 /* 00000EAC */
00000E6E  6050                     bra        +0x52 /* 00000EC0 */
label00000E70:
00000E70  7E01                     moveq.l    D7, 0x01
00000E72  6012                     bra        +0x14 /* 00000E86 */
label00000E74:
00000E74  486E FFC4                pea.l      [A6 - 0x3C]
00000E78  486E FFC0                pea.l      [A6 - 0x40]
00000E7C  3F3C 0040                move.w     -[A7], 0x40 /* '@' */
00000E80  4EBA 3D3C                jsr        [PC + 0x3D3C /* 00004BBE */]
00000E84  5247                     addq.w     D7, 1
label00000E86:
00000E86  7016                     moveq.l    D0, 0x16
00000E88  B047                     cmp.w      D0, D7
00000E8A  6CE8                     bge        -0x16 /* 00000E74 */
00000E8C  6032                     bra        +0x34 /* 00000EC0 */
label00000E8E:
00000E8E  7E01                     moveq.l    D7, 0x01
00000E90  6012                     bra        +0x14 /* 00000EA4 */
label00000E92:
00000E92  486E FFC4                pea.l      [A6 - 0x3C]
00000E96  486E FFC0                pea.l      [A6 - 0x40]
00000E9A  3F3C 0040                move.w     -[A7], 0x40 /* '@' */
00000E9E  4EBA 3CBC                jsr        [PC + 0x3CBC /* 00004B5C */]
00000EA2  5247                     addq.w     D7, 1
label00000EA4:
00000EA4  7056                     moveq.l    D0, 0x56
00000EA6  B047                     cmp.w      D0, D7
00000EA8  6CE8                     bge        -0x16 /* 00000E92 */
00000EAA  6014                     bra        +0x16 /* 00000EC0 */
label00000EAC:
00000EAC  2F2E FFC4                move.l     -[A7], [A6 - 0x3C]
00000EB0  206E FFCC                movea.l    A0, [A6 - 0x34]
00000EB4  2F10                     move.l     -[A7], [A0]
00000EB6  2F3C 0000 5580           move.l     -[A7], 0x5580
00000EBC  4EAD 024A                jsr        [A5 + 0x24A /* export_69, CODE:1 @ 000046A6 */]
label00000EC0:
00000EC0  3F2E FFB6                move.w     -[A7], [A6 - 0x4A]
00000EC4  3F05                     move.w     -[A7], D5
00000EC6  3F06                     move.w     -[A7], D6
00000EC8  2F0E                     move.l     -[A7], A6
00000ECA  4EBA FC2E                jsr        [PC - 0x3D2 /* 00000AFA */]
00000ECE  4EBA 3B78                jsr        [PC + 0x3B78 /* 00004A48 */]
00000ED2  4267                     clr.w      -[A7]
00000ED4  4EBA 157C                jsr        [PC + 0x157C /* 00002452 */]
00000ED8  4A5F                     tst.w      [A7]+
00000EDA  6600 009A                bne        +0x9C /* 00000F76 */
00000EDE  4EAD 181A                jsr        [A5 + 0x181A /* export_767, CODE:16 @ 00000216 */]
00000EE2  526E FFC8                addq.w     [A6 - 0x38], 1
00000EE6  690C                     bvs        +0xE /* 00000EF4 */
label00000EE8:
00000EE8  302E FFC8                move.w     D0, [A6 - 0x38]
00000EEC  B06E FFAA                cmp.w      D0, [A6 - 0x56]
00000EF0  6F00 FF56                ble        -0xA8 /* 00000E48 */
label00000EF4:
00000EF4  7003                     moveq.l    D0, 0x03
00000EF6  B02D D9F6                cmp.b      D0, [A5 - 0x260A]
00000EFA  677A                     beq        +0x7C /* 00000F76 */
00000EFC  3F2E FFB4                move.w     -[A7], [A6 - 0x4C]
00000F00  2F0E                     move.l     -[A7], A6
00000F02  4EBA F8A6                jsr        [PC - 0x75A /* 000007AA */]
00000F06  4267                     clr.w      -[A7]
00000F08  3F2E FFB8                move.w     -[A7], [A6 - 0x48]
00000F0C  2F0E                     move.l     -[A7], A6
00000F0E  4EBA F812                jsr        [PC - 0x7EE /* 00000722 */]
00000F12  206E FFCC                movea.l    A0, [A6 - 0x34]
00000F16  2D50 FFC0                move.l     [A6 - 0x40], [A0]
00000F1A  102D D9F6                move.b     D0, [A5 - 0x260A]
00000F1E  4880                     ext.w      D0
00000F20  670A                     beq        +0xC /* 00000F2C */
00000F22  5340                     subq.w     D0, 1
00000F24  6706                     beq        +0x8 /* 00000F2C */
00000F26  5340                     subq.w     D0, 1
00000F28  6720                     beq        +0x22 /* 00000F4A */
00000F2A  603A                     bra        +0x3C /* 00000F66 */
label00000F2C:
00000F2C  7E01                     moveq.l    D7, 0x01
00000F2E  6012                     bra        +0x14 /* 00000F42 */
label00000F30:
00000F30  486E FFC4                pea.l      [A6 - 0x3C]
00000F34  486E FFC0                pea.l      [A6 - 0x40]
00000F38  3F3C 0040                move.w     -[A7], 0x40 /* '@' */
00000F3C  4EBA 3C80                jsr        [PC + 0x3C80 /* 00004BBE */]
00000F40  5247                     addq.w     D7, 1
label00000F42:
00000F42  700C                     moveq.l    D0, 0x0C
00000F44  B047                     cmp.w      D0, D7
00000F46  6CE8                     bge        -0x16 /* 00000F30 */
00000F48  601C                     bra        +0x1E /* 00000F66 */
label00000F4A:
00000F4A  7E01                     moveq.l    D7, 0x01
00000F4C  6012                     bra        +0x14 /* 00000F60 */
label00000F4E:
00000F4E  486E FFC4                pea.l      [A6 - 0x3C]
00000F52  486E FFC0                pea.l      [A6 - 0x40]
00000F56  3F3C 0040                move.w     -[A7], 0x40 /* '@' */
00000F5A  4EBA 3C00                jsr        [PC + 0x3C00 /* 00004B5C */]
00000F5E  5247                     addq.w     D7, 1
label00000F60:
00000F60  7054                     moveq.l    D0, 0x54
00000F62  B047                     cmp.w      D0, D7
00000F64  6CE8                     bge        -0x16 /* 00000F4E */
label00000F66:
00000F66  3F2E FFB4                move.w     -[A7], [A6 - 0x4C]
00000F6A  3F05                     move.w     -[A7], D5
00000F6C  3F2E FFB8                move.w     -[A7], [A6 - 0x48]
00000F70  2F0E                     move.l     -[A7], A6
00000F72  4EBA FB86                jsr        [PC - 0x47A /* 00000AFA */]
label00000F76:
00000F76  2F0E                     move.l     -[A7], A6
00000F78  4EBA F6F8                jsr        [PC - 0x908 /* 00000672 */]
00000F7C  2F3C 0000 00BF           move.l     -[A7], 0xBF
00000F82  42A7                     clr.l      -[A7]
00000F84  A8F2                     syscall    PicComment
00000F86  2F2E FFCC                move.l     -[A7], [A6 - 0x34]
00000F8A  4EAD 18D2                jsr        [A5 + 0x18D2 /* export_790, CODE:16 @ 0000083E */]
00000F8E  6018                     bra        +0x1A /* 00000FA8 */
label00000F90:
00000F90  486E FFF2                pea.l      [A6 - 0xE]
00000F94  486E FFE4                pea.l      [A6 - 0x1C]
00000F98  486E FFDC                pea.l      [A6 - 0x24]
00000F9C  486E FFD4                pea.l      [A6 - 0x2C]
00000FA0  3F3C 0001                move.w     -[A7], 0x1
00000FA4  42A7                     clr.l      -[A7]
00000FA6  A8EC                     syscall    CopyBits
label00000FA8:
00000FA8  2F2E FFD0                move.l     -[A7], [A6 - 0x30]
00000FAC  4EAD 18D2                jsr        [A5 + 0x18D2 /* export_790, CODE:16 @ 0000083E */]
00000FB0  6018                     bra        +0x1A /* 00000FCA */
label00000FB2:
00000FB2  486E FFF2                pea.l      [A6 - 0xE]
00000FB6  486E FFE4                pea.l      [A6 - 0x1C]
00000FBA  486E FFDC                pea.l      [A6 - 0x24]
00000FBE  486E FFD4                pea.l      [A6 - 0x2C]
00000FC2  3F3C 0001                move.w     -[A7], 0x1
00000FC6  42A7                     clr.l      -[A7]
00000FC8  A8EC                     syscall    CopyBits
label00000FCA:
00000FCA  4EAD 181A                jsr        [A5 + 0x181A /* export_767, CODE:16 @ 00000216 */]
00000FCE  4CDF 00F0                movem.l    D4,D5,D6,D7, [A7]+
00000FD2  4E5E                     unlink     A6
00000FD4  205F                     movea.l    A0, [A7]+
00000FD6  DEFC 0010                add.w      A7, 0x10
00000FDA  4ED0                     jmp        [A0]
00000FDC  0000 4E56                ori.b      D0, 0x56 /* 'V' */
// begin alternate branch 00000FDE-00000FE4
export_190:
fn00000FDE:
00000FDE  4E56 0000                link       A6, 0
00000FE2  4267                     clr.w      -[A7]
// end alternate branch 00000FDE-00000FE4
export_190: // at 00000FDE (misaligned)
fn00000FDE: // (misaligned)
00000FE0  0000 4267                ori.b      D0, 0x67 /* 'g' */
00000FE4  4EBA 0D14                jsr        [PC + 0xD14 /* 00001CFA */]
00000FE8  101F                     move.b     D0, [A7]+
00000FEA  6708                     beq        +0xA /* 00000FF4 */
00000FEC  2F2D DC00                move.l     -[A7], [A5 - 0x2400]
00000FF0  4EAD 18D2                jsr        [A5 + 0x18D2 /* export_790, CODE:16 @ 0000083E */]
label00000FF4:
00000FF4  4E5E                     unlink     A6
00000FF6  4E75                     rts
export_191:
fn00000FF8:
00000FF8  4E56 0000                link       A6, 0
00000FFC  4267                     clr.w      -[A7]
00000FFE  4EBA 0CFA                jsr        [PC + 0xCFA /* 00001CFA */]
00001002  1B5F DC29                move.b     [A5 - 0x23D7], [A7]+
00001006  4E5E                     unlink     A6
00001008  4E75                     rts
export_192:
fn0000100A:
0000100A  4E56 FFEA                link       A6, -0x0016
0000100E  206E 0008                movea.l    A0, [A6 + 0x8]
00001012  43EE FFF8                lea.l      A1, [A6 - 0x8]
00001016  22D8                     move.l     [A1]+, [A0]+
00001018  22D8                     move.l     [A1]+, [A0]+
0000101A  486E FFF4                pea.l      [A6 - 0xC]
0000101E  A874                     syscall    GetPort
00001020  206E FFF4                movea.l    A0, [A6 - 0xC]
00001024  43EE FFEC                lea.l      A1, [A6 - 0x14]
00001028  41E8 003A                lea.l      A0, [A0 + 0x3A]
0000102C  22D8                     move.l     [A1]+, [A0]+
0000102E  22D8                     move.l     [A1]+, [A0]+
00001030  206E FFF4                movea.l    A0, [A6 - 0xC]
00001034  3D68 0038 FFEA           move.w     [A6 - 0x16], [A0 + 0x38]
0000103A  206E FFF4                movea.l    A0, [A6 - 0xC]
0000103E  41E8 003A                lea.l      A0, [A0 + 0x3A]
00001042  43ED FE90                lea.l      A1, [A5 - 0x170]
00001046  20D9                     move.l     [A0]+, [A1]+
00001048  20D9                     move.l     [A0]+, [A1]+
0000104A  206E FFF4                movea.l    A0, [A6 - 0xC]
0000104E  317C 000F 0038           move.w     [A0 + 0x38], 0xF
00001054  486E FFF8                pea.l      [A6 - 0x8]
00001058  A8A2                     syscall    PaintRect
0000105A  206E FFF4                movea.l    A0, [A6 - 0xC]
0000105E  41E8 003A                lea.l      A0, [A0 + 0x3A]
00001062  43EE FFEC                lea.l      A1, [A6 - 0x14]
00001066  20D9                     move.l     [A0]+, [A1]+
00001068  20D9                     move.l     [A0]+, [A1]+
0000106A  206E FFF4                movea.l    A0, [A6 - 0xC]
0000106E  316E FFEA 0038           move.w     [A0 + 0x38], [A6 - 0x16]
00001074  4E5E                     unlink     A6
00001076  2E9F                     move.l     [A7], [A7]+
00001078  4E75                     rts
export_193:
0000107A  4E56 FEE0                link       A6, -0x0120
0000107E  206E 0008                movea.l    A0, [A6 + 0x8]
00001082  43EE FEE0                lea.l      A1, [A6 - 0x120]
00001086  7047                     moveq.l    D0, 0x47
label00001088:
00001088  22D8                     move.l     [A1]+, [A0]+
0000108A  51C8 FFFC                dbf        D0, -0x6 /* 00001088 */
0000108E  102E FEF3                move.b     D0, [A6 - 0x10D]
00001092  6714                     beq        +0x16 /* 000010A8 */
00001094  4267                     clr.w      -[A7]
00001096  302E 000C                move.w     D0, [A6 + 0xC]
0000109A  48C0                     ext.l      D0
0000109C  2F00                     move.l     -[A7], D0
0000109E  4EBA 07F6                jsr        [PC + 0x7F6 /* 00001896 */]
000010A2  3D5F 000E                move.w     [A6 + 0xE], [A7]+
000010A6  600E                     bra        +0x10 /* 000010B6 */
label000010A8:
000010A8  4267                     clr.w      -[A7]
000010AA  3F2E 000C                move.w     -[A7], [A6 + 0xC]
000010AE  4EBA 36CA                jsr        [PC + 0x36CA /* 0000477A */]
000010B2  3D5F 000E                move.w     [A6 + 0xE], [A7]+
label000010B6:
000010B6  4E5E                     unlink     A6
000010B8  205F                     movea.l    A0, [A7]+
000010BA  5C4F                     addq.w     A7, 6
000010BC  4ED0                     jmp        [A0]
fn000010BE:
000010BE  4E56 0000                link       A6, 0
000010C2  102D D7C1                move.b     D0, [A5 - 0x283F]
000010C6  673E                     beq        +0x40 /* 00001106 */
000010C8  2F2D D72E                move.l     -[A7], [A5 - 0x28D2]
000010CC  4EAD 01DA                jsr        [A5 + 0x1DA /* export_55, CODE:1 @ 000043FE */]
000010D0  2F2D D72E                move.l     -[A7], [A5 - 0x28D2]
000010D4  4EAD 0222                jsr        [A5 + 0x222 /* export_64, CODE:1 @ 00004678 */]
000010D8  206D D72E                movea.l    A0, [A5 - 0x28D2]
000010DC  226D D73A                movea.l    A1, [A5 - 0x28C6]
000010E0  2350 0002                move.l     [A1 + 0x2], [A0]
000010E4  206D D72E                movea.l    A0, [A5 - 0x28D2]
000010E8  2B50 D720                move.l     [A5 - 0x28E0], [A0]
000010EC  102E 0008                move.b     D0, [A6 + 0x8]
000010F0  670E                     beq        +0x10 /* 00001100 */
000010F2  206D D72E                movea.l    A0, [A5 - 0x28D2]
000010F6  2F10                     move.l     -[A7], [A0]
000010F8  2F2D D7BA                move.l     -[A7], [A5 - 0x2846]
000010FC  4EBA 4054                jsr        [PC + 0x4054 /* 00005152 */]
label00001100:
00001100  2F2D D73A                move.l     -[A7], [A5 - 0x28C6]
00001104  A873                     syscall    SetPort
label00001106:
00001106  4E5E                     unlink     A6
00001108  205F                     movea.l    A0, [A7]+
0000110A  544F                     addq.w     A7, 2
0000110C  4ED0                     jmp        [A0]
fn0000110E:
0000110E  4E56 0000                link       A6, 0
00001112  102D D7C1                move.b     D0, [A5 - 0x283F]
00001116  6708                     beq        +0xA /* 00001120 */
00001118  2F2D D72E                move.l     -[A7], [A5 - 0x28D2]
0000111C  4EAD 022A                jsr        [A5 + 0x22A /* export_65, CODE:1 @ 00004682 */]
label00001120:
00001120  4E5E                     unlink     A6
00001122  4E75                     rts
fn00001124:
00001124  4E56 FFFC                link       A6, -0x0004
00001128  48E7 0108                movem.l    -[A7], D7,A4
0000112C  286E 0010                movea.l    A4, [A6 + 0x10]
00001130  4267                     clr.w      -[A7]
00001132  4EBA 07AE                jsr        [PC + 0x7AE /* 000018E2 */]
00001136  101F                     move.b     D0, [A7]+
00001138  C02D DC2E                and.b      D0, [A5 - 0x23D2]
0000113C  6700 00BC                beq        +0xBE /* 000011FA */
00001140  4267                     clr.w      -[A7]
00001142  1F2D D9F6                move.b     -[A7], [A5 - 0x260A]
00001146  4EBA 2D12                jsr        [PC + 0x2D12 /* 00003E5A */]
0000114A  101F                     move.b     D0, [A7]+
0000114C  6734                     beq        +0x36 /* 00001182 */
0000114E  7000                     moveq.l    D0, 0x00
00001150  2880                     move.l     [A4], D0
00001152  1B7C 0001 DC2A           move.b     [A5 - 0x23D6], 0x1
00001158  4267                     clr.w      -[A7]
0000115A  4EBA 0762                jsr        [PC + 0x762 /* 000018BE */]
0000115E  101F                     move.b     D0, [A7]+
00001160  671E                     beq        +0x20 /* 00001180 */
00001162  206D DBFC                movea.l    A0, [A5 - 0x2404]
00001166  2050                     movea.l    A0, [A0]
00001168  41E8 0018                lea.l      A0, [A0 + 0x18]
0000116C  0250 FFFE                andi.w     [A0], 0xFFFE
00001170  0050 0001                ori.w      [A0], 0x1
00001174  206D DBFC                movea.l    A0, [A5 - 0x2404]
00001178  2050                     movea.l    A0, [A0]
0000117A  0268 FFDF 0018           andi.w     [A0 + 0x18], 0xFFDF
label00001180:
00001180  6014                     bra        +0x16 /* 00001196 */
label00001182:
00001182  42A7                     clr.l      -[A7]
00001184  2F2E 0018                move.l     -[A7], [A6 + 0x18]
00001188  2F2E 0014                move.l     -[A7], [A6 + 0x14]
0000118C  486D DC0C                pea.l      [A5 - 0x23F4]
00001190  4EBA 0B8C                jsr        [PC + 0xB8C /* 00001D1E */]
00001194  289F                     move.l     [A4], [A7]+
label00001196:
00001196  4A94                     tst.l      [A4]
00001198  56C0                     sne        D0
0000119A  4400                     neg.b      D0
0000119C  1B40 D7C1                move.b     [A5 - 0x283F], D0
000011A0  671E                     beq        +0x20 /* 000011C0 */
000011A2  206E 000C                movea.l    A0, [A6 + 0xC]
000011A6  20AE 0008                move.l     [A0], [A6 + 0x8]
000011AA  2F2E 000C                move.l     -[A7], [A6 + 0xC]
000011AE  2F2E 0018                move.l     -[A7], [A6 + 0x18]
000011B2  4EBA 0C14                jsr        [PC + 0xC14 /* 00001DC8 */]
000011B6  1F3C 0001                move.b     -[A7], 0x1
000011BA  4EBA 3026                jsr        [PC + 0x3026 /* 000041E2 */]
000011BE  603E                     bra        +0x40 /* 000011FE */
label000011C0:
000011C0  4267                     clr.w      -[A7]
000011C2  4EBA 301E                jsr        [PC + 0x301E /* 000041E2 */]
000011C6  4267                     clr.w      -[A7]
000011C8  4EBA 0718                jsr        [PC + 0x718 /* 000018E2 */]
000011CC  102D DC2C                move.b     D0, [A5 - 0x23D4]
000011D0  C01F                     and.b      D0, [A7]+
000011D2  6724                     beq        +0x26 /* 000011F8 */
000011D4  1F3C 0001                move.b     -[A7], 0x1
000011D8  4EBA 3266                jsr        [PC + 0x3266 /* 00004440 */]
000011DC  4267                     clr.w      -[A7]
000011DE  2F2D DBFC                move.l     -[A7], [A5 - 0x2404]
000011E2  4EAD 015A                jsr        [A5 + 0x15A /* export_39, CODE:1 @ 00003E00 */]
000011E6  1E1F                     move.b     D7, [A7]+
000011E8  4267                     clr.w      -[A7]
000011EA  486D D9F8                pea.l      [A5 - 0x2608]
000011EE  4EBA F2BC                jsr        [PC - 0xD44 /* 000004AC */]
000011F2  1B7C 0001 DC2B           move.b     [A5 - 0x23D5], 0x1
label000011F8:
000011F8  6004                     bra        +0x6 /* 000011FE */
label000011FA:
000011FA  422D D7C1                clr.b      [A5 - 0x283F]
label000011FE:
000011FE  4CDF 1080                movem.l    D7,A4, [A7]+
00001202  4E5E                     unlink     A6
00001204  205F                     movea.l    A0, [A7]+
00001206  DEFC 0014                add.w      A7, 0x14
0000120A  4ED0                     jmp        [A0]
export_194:
fn0000120C:
0000120C  4E56 FFFE                link       A6, -0x0002
00001210  4267                     clr.w      -[A7]
00001212  4EBA 2FCE                jsr        [PC + 0x2FCE /* 000041E2 */]
00001216  102D D7C1                move.b     D0, [A5 - 0x283F]
0000121A  6712                     beq        +0x14 /* 0000122E */
0000121C  206E 000C                movea.l    A0, [A6 + 0xC]
00001220  2F10                     move.l     -[A7], [A0]
00001222  4EAD 18D2                jsr        [A5 + 0x18D2 /* export_790, CODE:16 @ 0000083E */]
00001226  206E 0008                movea.l    A0, [A6 + 0x8]
0000122A  2F10                     move.l     -[A7], [A0]
0000122C  A87D                     syscall    ClosePort
label0000122E:
0000122E  102D DC2B                move.b     D0, [A5 - 0x23D5]
00001232  6718                     beq        +0x1A /* 0000124C */
00001234  4267                     clr.w      -[A7]
00001236  4EBA 3208                jsr        [PC + 0x3208 /* 00004440 */]
0000123A  4267                     clr.w      -[A7]
0000123C  2F2D DBFC                move.l     -[A7], [A5 - 0x2404]
00001240  4EAD 015A                jsr        [A5 + 0x15A /* export_39, CODE:1 @ 00003E00 */]
00001244  1D5F FFFF                move.b     [A6 - 0x1], [A7]+
00001248  422D DC2B                clr.b      [A5 - 0x23D5]
label0000124C:
0000124C  4E5E                     unlink     A6
0000124E  205F                     movea.l    A0, [A7]+
00001250  504F                     addq.w     A7, 8
00001252  4ED0                     jmp        [A0]
export_195:
fn00001254:
00001254  4E56 FCE2                link       A6, -0x031E
00001258  48E7 0300                movem.l    -[A7], D6,D7
0000125C  206E 000A                movea.l    A0, [A6 + 0xA]
00001260  43EE FF00                lea.l      A1, [A6 - 0x100]
00001264  703F                     moveq.l    D0, 0x3F
label00001266:
00001266  22D8                     move.l     [A1]+, [A0]+
00001268  51C8 FFFC                dbf        D0, -0x6 /* 00001266 */
0000126C  4240                     clr.w      D0
0000126E  102E FF00                move.b     D0, [A6 - 0x100]
00001272  4A40                     tst.w      D0
00001274  6700 0106                beq        +0x108 /* 0000137C */
00001278  4EAD 181A                jsr        [A5 + 0x181A /* export_767, CODE:16 @ 00000216 */]
0000127C  41EE FCFA                lea.l      A0, [A6 - 0x306]
00001280  43EE FF00                lea.l      A1, [A6 - 0x100]
00001284  703F                     moveq.l    D0, 0x3F
label00001286:
00001286  20D9                     move.l     [A0]+, [A1]+
00001288  51C8 FFFC                dbf        D0, -0x6 /* 00001286 */
0000128C  4240                     clr.w      D0
0000128E  102E FCFA                move.b     D0, [A6 - 0x306]
00001292  3D40 FCF6                move.w     [A6 - 0x30A], D0
00001296  7E01                     moveq.l    D7, 0x01
00001298  607E                     bra        +0x80 /* 00001318 */
label0000129A:
0000129A  4240                     clr.w      D0
0000129C  41EE FCFA                lea.l      A0, [A6 - 0x306]
000012A0  1030 7000                move.b     D0, [A0 + D7.w]
000012A4  7201                     moveq.l    D1, 0x01
000012A6  B240                     cmp.w      D1, D0
000012A8  666A                     bne        +0x6C /* 00001314 */
000012AA  102D F2B3                move.b     D0, [A5 - 0xD4D]
000012AE  0A00 0001                xori.b     D0, 0x1
000012B2  4A00                     tst.b      D0
000012B4  6622                     bne        +0x24 /* 000012D8 */
000012B6  2F00                     move.l     -[A7], D0
000012B8  4267                     clr.w      -[A7]
000012BA  486E FCFA                pea.l      [A6 - 0x306]
000012BE  3F07                     move.w     -[A7], D7
000012C0  2F3C 8206 0010           move.l     -[A7], 0x82060010
000012C6  A8B5                     syscall    ScriptUtil
000012C8  321F                     move.w     D1, [A7]+
000012CA  201F                     move.l     D0, [A7]+
000012CC  4A41                     tst.w      D1
000012CE  57C1                     seq        D1
000012D0  8001                     or.b       D0, D1
000012D2  0240 0001                andi.w     D0, 0x1
000012D6  673C                     beq        +0x3E /* 00001314 */
label000012D8:
000012D8  486E FCFA                pea.l      [A6 - 0x306]
000012DC  3F07                     move.w     -[A7], D7
000012DE  3F3C 0001                move.w     -[A7], 0x1
000012E2  4EAD 051A                jsr        [A5 + 0x51A /* export_159, CODE:1 @ 000053C0 */]
000012E6  486E FCE2                pea.l      [A6 - 0x31E]
000012EA  302E 0008                move.w     D0, [A6 + 0x8]
000012EE  48C0                     ext.l      D0
000012F0  2F00                     move.l     -[A7], D0
000012F2  4EAD 1902                jsr        [A5 + 0x1902 /* export_796, CODE:16 @ 000009D4 */]
000012F6  205F                     movea.l    A0, [A7]+
000012F8  43EE FDFA                lea.l      A1, [A6 - 0x206]
000012FC  7004                     moveq.l    D0, 0x04
label000012FE:
000012FE  22D8                     move.l     [A1]+, [A0]+
00001300  51C8 FFFC                dbf        D0, -0x6 /* 000012FE */
00001304  486E FDFA                pea.l      [A6 - 0x206]
00001308  486E FCFA                pea.l      [A6 - 0x306]
0000130C  3F07                     move.w     -[A7], D7
0000130E  4EAD 0522                jsr        [A5 + 0x522 /* export_160, CODE:1 @ 000053F6 */]
00001312  600C                     bra        +0xE /* 00001320 */
label00001314:
00001314  5247                     addq.w     D7, 1
00001316  6908                     bvs        +0xA /* 00001320 */
label00001318:
00001318  BE6E FCF6                cmp.w      D7, [A6 - 0x30A]
0000131C  6F00 FF7C                ble        -0x82 /* 0000129A */
label00001320:
00001320  42A7                     clr.l      -[A7]
00001322  4267                     clr.w      -[A7]
00001324  4EBA 0394                jsr        [PC + 0x394 /* 000016BA */]
00001328  301F                     move.w     D0, [A7]+
0000132A  48C0                     ext.l      D0
0000132C  2F00                     move.l     -[A7], D0
0000132E  4EBA 2CF6                jsr        [PC + 0x2CF6 /* 00004026 */]
00001332  3C1F                     move.w     D6, [A7]+
00001334  3F06                     move.w     -[A7], D6
00001336  A88A                     syscall    TextSize
00001338  3F3C 0003                move.w     -[A7], 0x3
0000133C  A887                     syscall    TextFont
0000133E  102D F2B3                move.b     D0, [A5 - 0xD4D]
00001342  670E                     beq        +0x10 /* 00001352 */
00001344  3F2D F2BC                move.w     -[A7], [A5 - 0xD44]
00001348  A887                     syscall    TextFont
0000134A  3F2D F2BC                move.w     -[A7], [A5 - 0xD44]
0000134E  4EAD 21D2                jsr        [A5 + 0x21D2 /* export_1078, CODE:20 @ 00004516 */]
label00001352:
00001352  3F3A 0034                move.w     -[A7], [PC + 0x34 /* 00001388, value 0x0, cstring "" */]
00001356  A888                     syscall    TextFace
00001358  4267                     clr.w      -[A7]
0000135A  A889                     syscall    TextMode
0000135C  3006                     move.w     D0, D6
0000135E  48C0                     ext.l      D0
00001360  81FC 0004                divs.w     D0, 0x4
00001364  9C40                     sub.w      D6, D0
00001366  3F2D DC0E                move.w     -[A7], [A5 - 0x23F2]
0000136A  3006                     move.w     D0, D6
0000136C  D06D DC0C                add.w      D0, [A5 - 0x23F4]
00001370  5240                     addq.w     D0, 1
00001372  3F00                     move.w     -[A7], D0
00001374  A893                     syscall    MoveTo
00001376  486E FCFA                pea.l      [A6 - 0x306]
0000137A  A884                     syscall    DrawString
label0000137C:
0000137C  4CDF 00C0                movem.l    D6,D7, [A7]+
00001380  4E5E                     unlink     A6
00001382  205F                     movea.l    A0, [A7]+
00001384  5C4F                     addq.w     A7, 6
00001386  4ED0                     jmp        [A0]
00001388  0000 4E56                ori.b      D0, 0x56 /* 'V' */
// begin alternate branch 0000138A-0000138E
export_196:
0000138A  4E56 FFF4                link       A6, -0x000C
// end alternate branch 0000138A-0000138E
export_196: // at 0000138A (misaligned)
0000138C  FFF4                     .invalid   <<F/7/7>>
0000138E  48E7 0018                movem.l    -[A7], A3,A4
00001392  486E FFF4                pea.l      [A6 - 0xC]
00001396  A874                     syscall    GetPort
00001398  2F2E 000C                move.l     -[A7], [A6 + 0xC]
0000139C  2F2E 0008                move.l     -[A7], [A6 + 0x8]
000013A0  4EAD 21FA                jsr        [A5 + 0x21FA /* export_1083, CODE:20 @ 000046E4 */]
000013A4  1B7C 0001 EFE2           move.b     [A5 - 0x101E], 0x1
000013AA  42A7                     clr.l      -[A7]
000013AC  2F2D F62A                move.l     -[A7], [A5 - 0x9D6]
000013B0  4EAD 1F7A                jsr        [A5 + 0x1F7A /* export_1003, CODE:19 @ 00001744 */]
000013B4  285F                     movea.l    A4, [A7]+
000013B6  200C                     move.l     D0, A4
000013B8  6606                     bne        +0x8 /* 000013C0 */
000013BA  4EBA 1346                jsr        [PC + 0x1346 /* 00002702 */]
000013BE  603E                     bra        +0x40 /* 000013FE */
label000013C0:
000013C0  42A7                     clr.l      -[A7]
000013C2  2054                     movea.l    A0, [A4]
000013C4  2F28 0020                move.l     -[A7], [A0 + 0x20]
000013C8  4EAD 1F6A                jsr        [A5 + 0x1F6A /* export_1001, CODE:19 @ 000016EC */]
000013CC  265F                     movea.l    A3, [A7]+
000013CE  200B                     move.l     D0, A3
000013D0  6606                     bne        +0x8 /* 000013D8 */
000013D2  4EBA 132E                jsr        [PC + 0x132E /* 00002702 */]
000013D6  601C                     bra        +0x1E /* 000013F4 */
label000013D8:
000013D8  4EBA 0F30                jsr        [PC + 0xF30 /* 0000230A */]
000013DC  2F2D ECE4                move.l     -[A7], [A5 - 0x131C]
000013E0  486D ED82                pea.l      [A5 - 0x127E]
000013E4  4EAD 158A                jsr        [A5 + 0x158A /* export_685, CODE:15 @ 000006FE */]
000013E8  2054                     movea.l    A0, [A4]
000013EA  2F28 0020                move.l     -[A7], [A0 + 0x20]
000013EE  4267                     clr.w      -[A7]
000013F0  4EAD 1EE2                jsr        [A5 + 0x1EE2 /* export_984, CODE:19 @ 00000414 */]
label000013F4:
000013F4  2F2D F62A                move.l     -[A7], [A5 - 0x9D6]
000013F8  4267                     clr.w      -[A7]
000013FA  4EAD 1EF2                jsr        [A5 + 0x1EF2 /* export_986, CODE:19 @ 00000450 */]
label000013FE:
000013FE  2F2E FFF4                move.l     -[A7], [A6 - 0xC]
00001402  A873                     syscall    SetPort
00001404  4CDF 1800                movem.l    A3,A4, [A7]+
00001408  4E5E                     unlink     A6
0000140A  205F                     movea.l    A0, [A7]+
0000140C  504F                     addq.w     A7, 8
0000140E  4ED0                     jmp        [A0]
export_197:
fn00001410:
00001410  4E56 FFFC                link       A6, -0x0004
00001414  486E FFFC                pea.l      [A6 - 0x4]
00001418  A874                     syscall    GetPort
0000141A  42A7                     clr.l      -[A7]
0000141C  3F3C 0066                move.w     -[A7], 0x66 /* 'f' */
00001420  42A7                     clr.l      -[A7]
00001422  70FF                     moveq.l    D0, 0xFFFFFFFF
00001424  2F00                     move.l     -[A7], D0
00001426  A97C                     syscall    GetNewDialog
00001428  2B5F D732                move.l     [A5 - 0x28CE], [A7]+
0000142C  2F2D D732                move.l     -[A7], [A5 - 0x28CE]
00001430  4EAD 182A                jsr        [A5 + 0x182A /* export_769, CODE:16 @ 000002AC */]
00001434  3F3C 0002                move.w     -[A7], 0x2
00001438  4EBA 0028                jsr        [PC + 0x28 /* 00001462 */]
0000143C  2F2D D732                move.l     -[A7], [A5 - 0x28CE]
00001440  A915                     syscall    ShowWindow
00001442  2F2D D732                move.l     -[A7], [A5 - 0x28CE]
00001446  A981                     syscall    DrawDialog
00001448  2F2D D732                move.l     -[A7], [A5 - 0x28CE]
0000144C  A873                     syscall    SetPort
0000144E  206D D732                movea.l    A0, [A5 - 0x28CE]
00001452  4868 0010                pea.l      [A0 + 0x10]
00001456  A92A                     syscall    ValidRect
00001458  2F2E FFFC                move.l     -[A7], [A6 - 0x4]
0000145C  A873                     syscall    SetPort
0000145E  4E5E                     unlink     A6
00001460  4E75                     rts
export_198:
fn00001462:
00001462  4E56 FFFE                link       A6, -0x0002
00001466  2F07                     move.l     -[A7], D7
00001468  7E02                     moveq.l    D7, 0x02
0000146A  601A                     bra        +0x1C /* 00001486 */
label0000146C:
0000146C  BE6E 0008                cmp.w      D7, [A6 + 0x8]
00001470  660A                     bne        +0xC /* 0000147C */
00001472  2F2D D732                move.l     -[A7], [A5 - 0x28CE]
00001476  3F07                     move.w     -[A7], D7
00001478  A828                     syscall    ShowDialogItem/ShowDItem
0000147A  6008                     bra        +0xA /* 00001484 */
label0000147C:
0000147C  2F2D D732                move.l     -[A7], [A5 - 0x28CE]
00001480  3F07                     move.w     -[A7], D7
00001482  A827                     syscall    HideDialogItem/HideDItem
label00001484:
00001484  5247                     addq.w     D7, 1
label00001486:
00001486  7006                     moveq.l    D0, 0x06
00001488  B047                     cmp.w      D0, D7
0000148A  6CE0                     bge        -0x1E /* 0000146C */
0000148C  2E1F                     move.l     D7, [A7]+
0000148E  4E5E                     unlink     A6
00001490  205F                     movea.l    A0, [A7]+
00001492  544F                     addq.w     A7, 2
00001494  4ED0                     jmp        [A0]
fn00001496:
00001496  4E56 FEFA                link       A6, -0x0106
0000149A  48E7 0300                movem.l    -[A7], D6,D7
0000149E  206E 000C                movea.l    A0, [A6 + 0xC]
000014A2  43EE FF00                lea.l      A1, [A6 - 0x100]
000014A6  703F                     moveq.l    D0, 0x3F
label000014A8:
000014A8  22D8                     move.l     [A1]+, [A0]+
000014AA  51C8 FFFC                dbf        D0, -0x6 /* 000014A8 */
000014AE  1D7C 0001 0010           move.b     [A6 + 0x10], 0x1
000014B4  4247                     clr.w      D7
000014B6  1E2E FF00                move.b     D7, [A6 - 0x100]
000014BA  4A47                     tst.w      D7
000014BC  5DC0                     slt        D0
000014BE  206E 0008                movea.l    A0, [A6 + 0x8]
000014C2  BE68 000C                cmp.w      D7, [A0 + 0xC]
000014C6  5EC1                     sgt        D1
000014C8  8001                     or.b       D0, D1
000014CA  6706                     beq        +0x8 /* 000014D2 */
000014CC  422E 0010                clr.b      [A6 + 0x10]
000014D0  6042                     bra        +0x44 /* 00001514 */
label000014D2:
000014D2  4A47                     tst.w      D7
000014D4  673E                     beq        +0x40 /* 00001514 */
000014D6  3D47 FEFA                move.w     [A6 - 0x106], D7
000014DA  7C01                     moveq.l    D6, 0x01
000014DC  6030                     bra        +0x32 /* 0000150E */
label000014DE:
000014DE  4240                     clr.w      D0
000014E0  41EE FF00                lea.l      A0, [A6 - 0x100]
000014E4  1030 6000                move.b     D0, [A0 + D6.w]
000014E8  4A40                     tst.w      D0
000014EA  6B18                     bmi        +0x1A /* 00001504 */
000014EC  B07C 003F                cmp.w      D0, 0x3F /* '?' */
000014F0  6E12                     bgt        +0x14 /* 00001504 */
000014F2  43FA 0034                lea.l      A1, [PC + 0x34 /* 00001528, value 0x4E56FEEA */]
000014F6  3200                     move.w     D1, D0
000014F8  E649                     lsr        D1.w, 3
000014FA  4441                     neg.w      D1
000014FC  0131 10FF                btst       [A1 + D1.w - 0x1], D0
00001500  0A3C 0004                xori.b     ccr, 4
label00001504:
00001504  6704                     beq        +0x6 /* 0000150A */
00001506  422E 0010                clr.b      [A6 + 0x10]
label0000150A:
0000150A  5246                     addq.w     D6, 1
0000150C  6906                     bvs        +0x8 /* 00001514 */
label0000150E:
0000150E  BC6E FEFA                cmp.w      D6, [A6 - 0x106]
00001512  6FCA                     ble        -0x34 /* 000014DE */
label00001514:
00001514  4CDF 00C0                movem.l    D6,D7, [A7]+
00001518  4E5E                     unlink     A6
0000151A  205F                     movea.l    A0, [A7]+
0000151C  504F                     addq.w     A7, 8
0000151E  4ED0                     jmp        [A0]
00001520  03FF                     .incomplete
00001522  0000 0000                ori.b      D0, 0x0
00001526  0000 4E56                ori.b      D0, 0x56 /* 'V' */
// begin alternate branch 00001528-00001542
export_199:
00001528  4E56 FEEA                link       A6, -0x0116
0000152C  2F2E 0010                move.l     -[A7], [A6 + 0x10]
00001530  3F2E 000E                move.w     -[A7], [A6 + 0xE]
00001534  486E FEFE                pea.l      [A6 - 0x102]
00001538  486E FEFA                pea.l      [A6 - 0x106]
0000153C  486E FEF2                pea.l      [A6 - 0x10E]
00001540  A98D                     syscall    GetDialogItem/GetDItem
// end alternate branch 00001528-00001542
export_199: // at 00001528 (misaligned)
0000152A  FEEA 2F2E                .extension 0xEEA <<F/2-3/7>> // unimplemented
0000152E  0010 3F2E                ori.b      [A0], 0x2E /* '.' */
00001532  000E 486E                ori.b      A6, 0x6E /* 'n' */
00001536  FEFE 486E                .extension 0xEFE <<F/2-3/7>> // unimplemented
0000153A  FEFA 486E                .extension 0xEFA <<F/2-3/7>> // unimplemented
0000153E  FEF2 A98D                .extension 0xEF2 <<F/2-3/7>> // unimplemented
00001542  2F2E FEFA                move.l     -[A7], [A6 - 0x106]
00001546  486E FF00                pea.l      [A6 - 0x100]
0000154A  A990                     syscall    GetDialogItemText/GetIText
0000154C  4267                     clr.w      -[A7]
0000154E  486E FF00                pea.l      [A6 - 0x100]
00001552  2F0E                     move.l     -[A7], A6
00001554  4EBA FF40                jsr        [PC - 0xC0 /* 00001496 */]
00001558  101F                     move.b     D0, [A7]+
0000155A  6726                     beq        +0x28 /* 00001582 */
0000155C  4240                     clr.w      D0
0000155E  102E FF00                move.b     D0, [A6 - 0x100]
00001562  4A40                     tst.w      D0
00001564  660A                     bne        +0xC /* 00001570 */
00001566  206E 0008                movea.l    A0, [A6 + 0x8]
0000156A  30BC 0131                move.w     [A0], 0x131
0000156E  601C                     bra        +0x1E /* 0000158C */
label00001570:
00001570  206E 0008                movea.l    A0, [A6 + 0x8]
00001574  43EE FF00                lea.l      A1, [A6 - 0x100]
00001578  703F                     moveq.l    D0, 0x3F
label0000157A:
0000157A  20D9                     move.l     [A0]+, [A1]+
0000157C  51C8 FFFC                dbf        D0, -0x6 /* 0000157A */
00001580  600A                     bra        +0xC /* 0000158C */
label00001582:
00001582  2F2E FEFA                move.l     -[A7], [A6 - 0x106]
00001586  2F2E 0008                move.l     -[A7], [A6 + 0x8]
0000158A  A98F                     syscall    SetDialogItemText/SetIText
label0000158C:
0000158C  4E5E                     unlink     A6
0000158E  205F                     movea.l    A0, [A7]+
00001590  DEFC 000C                add.w      A7, 0xC
00001594  4ED0                     jmp        [A0]
export_200:
00001596  4E56 FFEE                link       A6, -0x0012
0000159A  2F07                     move.l     -[A7], D7
0000159C  4247                     clr.w      D7
0000159E  486E FFF0                pea.l      [A6 - 0x10]
000015A2  A976                     syscall    GetKeys
000015A4  7038                     moveq.l    D0, 0x38
000015A6  3200                     move.w     D1, D0
000015A8  E641                     asr        D1.w, 3
000015AA  0136 10F0                btst       [A6 + D1.w - 0x10], D0
000015AE  6704                     beq        +0x6 /* 000015B4 */
000015B0  DE7C 0200                add.w      D7, 0x200
label000015B4:
000015B4  7037                     moveq.l    D0, 0x37
000015B6  3200                     move.w     D1, D0
000015B8  E641                     asr        D1.w, 3
000015BA  0136 10F0                btst       [A6 + D1.w - 0x10], D0
000015BE  6704                     beq        +0x6 /* 000015C4 */
000015C0  DE7C 0100                add.w      D7, 0x100
label000015C4:
000015C4  4267                     clr.w      -[A7]
000015C6  A974                     syscall    Button
000015C8  101F                     move.b     D0, [A7]+
000015CA  6604                     bne        +0x6 /* 000015D0 */
000015CC  DE7C 0080                add.w      D7, 0x80
label000015D0:
000015D0  3D47 0008                move.w     [A6 + 0x8], D7
000015D4  2E1F                     move.l     D7, [A7]+
000015D6  4E5E                     unlink     A6
000015D8  4E75                     rts
export_201:
000015DA  4E56 FEFE                link       A6, -0x0102
000015DE  2F07                     move.l     -[A7], D7
000015E0  2F2E 000C                move.l     -[A7], [A6 + 0xC]
000015E4  486E FF00                pea.l      [A6 - 0x100]
000015E8  A990                     syscall    GetDialogItemText/GetIText
000015EA  4240                     clr.w      D0
000015EC  102E FF00                move.b     D0, [A6 - 0x100]
000015F0  0C40 00FF                cmpi.w     D0, 0xFF
000015F4  6D3A                     blt        +0x3C /* 00001630 */
000015F6  7E01                     moveq.l    D7, 0x01
000015F8  102D F2B3                move.b     D0, [A5 - 0xD4D]
000015FC  671E                     beq        +0x20 /* 0000161C */
label000015FE:
000015FE  4267                     clr.w      -[A7]
00001600  486E FF00                pea.l      [A6 - 0x100]
00001604  303C 00FF                move.w     D0, 0xFF
00001608  9047                     sub.w      D0, D7
0000160A  3F00                     move.w     -[A7], D0
0000160C  2F3C 8206 0010           move.l     -[A7], 0x82060010
00001612  A8B5                     syscall    ScriptUtil
00001614  4A5F                     tst.w      [A7]+
00001616  6F04                     ble        +0x6 /* 0000161C */
00001618  5247                     addq.w     D7, 1
0000161A  60E2                     bra        -0x1C /* 000015FE */
label0000161C:
0000161C  303C 00FF                move.w     D0, 0xFF
00001620  9047                     sub.w      D0, D7
00001622  1D40 FF00                move.b     [A6 - 0x100], D0
00001626  2F2E 000C                move.l     -[A7], [A6 + 0xC]
0000162A  486E FF00                pea.l      [A6 - 0x100]
0000162E  A98F                     syscall    SetDialogItemText/SetIText
label00001630:
00001630  206E 0008                movea.l    A0, [A6 + 0x8]
00001634  43EE FF00                lea.l      A1, [A6 - 0x100]
00001638  703F                     moveq.l    D0, 0x3F
label0000163A:
0000163A  20D9                     move.l     [A0]+, [A1]+
0000163C  51C8 FFFC                dbf        D0, -0x6 /* 0000163A */
00001640  2E1F                     move.l     D7, [A7]+
00001642  4E5E                     unlink     A6
00001644  205F                     movea.l    A0, [A7]+
00001646  504F                     addq.w     A7, 8
00001648  4ED0                     jmp        [A0]
export_202:
fn0000164A:
0000164A  4E56 0000                link       A6, 0
0000164E  102D F2B3                move.b     D0, [A5 - 0xD4D]
00001652  6708                     beq        +0xA /* 0000165C */
00001654  3D6D F2BC 000A           move.w     [A6 + 0xA], [A5 - 0xD44]
0000165A  6056                     bra        +0x58 /* 000016B2 */
label0000165C:
0000165C  206D DBFC                movea.l    A0, [A5 - 0x2404]
00001660  2050                     movea.l    A0, [A0]
00001662  3028 0018                move.w     D0, [A0 + 0x18]
00001666  48C0                     ext.l      D0
00001668  81FC 0100                divs.w     D0, 0x100
0000166C  5340                     subq.w     D0, 1
0000166E  670E                     beq        +0x10 /* 0000167E */
00001670  5540                     subq.w     D0, 2
00001672  6712                     beq        +0x14 /* 00001686 */
00001674  5340                     subq.w     D0, 1
00001676  6724                     beq        +0x26 /* 0000169C */
00001678  5340                     subq.w     D0, 1
0000167A  6728                     beq        +0x2A /* 000016A4 */
0000167C  602E                     bra        +0x30 /* 000016AC */
label0000167E:
0000167E  3D7C 0003 000A           move.w     [A6 + 0xA], 0x3
00001684  602C                     bra        +0x2E /* 000016B2 */
label00001686:
00001686  102E 0008                move.b     D0, [A6 + 0x8]
0000168A  6708                     beq        +0xA /* 00001694 */
0000168C  3D7C 0016 000A           move.w     [A6 + 0xA], 0x16
00001692  601E                     bra        +0x20 /* 000016B2 */
label00001694:
00001694  3D7C 0015 000A           move.w     [A6 + 0xA], 0x15
0000169A  6016                     bra        +0x18 /* 000016B2 */
label0000169C:
0000169C  3D7C 0015 000A           move.w     [A6 + 0xA], 0x15
000016A2  600E                     bra        +0x10 /* 000016B2 */
label000016A4:
000016A4  3D7C 0015 000A           move.w     [A6 + 0xA], 0x15
000016AA  6006                     bra        +0x8 /* 000016B2 */
label000016AC:
000016AC  3D7C 0003 000A           move.w     [A6 + 0xA], 0x3
label000016B2:
000016B2  4E5E                     unlink     A6
000016B4  205F                     movea.l    A0, [A7]+
000016B6  544F                     addq.w     A7, 2
000016B8  4ED0                     jmp        [A0]
export_203:
fn000016BA:
000016BA  4E56 0000                link       A6, 0
000016BE  102D F2B3                move.b     D0, [A5 - 0xD4D]
000016C2  6708                     beq        +0xA /* 000016CC */
000016C4  3D6D F2BA 000A           move.w     [A6 + 0xA], [A5 - 0xD46]
000016CA  604A                     bra        +0x4C /* 00001716 */
label000016CC:
000016CC  102E 0008                move.b     D0, [A6 + 0x8]
000016D0  4880                     ext.w      D0
000016D2  6712                     beq        +0x14 /* 000016E6 */
000016D4  5340                     subq.w     D0, 1
000016D6  6716                     beq        +0x18 /* 000016EE */
000016D8  5340                     subq.w     D0, 1
000016DA  6722                     beq        +0x24 /* 000016FE */
000016DC  5340                     subq.w     D0, 1
000016DE  6716                     beq        +0x18 /* 000016F6 */
000016E0  5340                     subq.w     D0, 1
000016E2  671A                     beq        +0x1C /* 000016FE */
000016E4  6030                     bra        +0x32 /* 00001716 */
label000016E6:
000016E6  3D7C 000C 000A           move.w     [A6 + 0xA], 0xC
000016EC  6028                     bra        +0x2A /* 00001716 */
label000016EE:
000016EE  3D7C 000A 000A           move.w     [A6 + 0xA], 0xA /* '\n' */
000016F4  6020                     bra        +0x22 /* 00001716 */
label000016F6:
000016F6  3D7C 0009 000A           move.w     [A6 + 0xA], 0x9 /* '\t' */
000016FC  6018                     bra        +0x1A /* 00001716 */
label000016FE:
000016FE  4267                     clr.w      -[A7]
00001700  4EBA 01E0                jsr        [PC + 0x1E0 /* 000018E2 */]
00001704  101F                     move.b     D0, [A7]+
00001706  6708                     beq        +0xA /* 00001710 */
00001708  3D7C 0009 000A           move.w     [A6 + 0xA], 0x9 /* '\t' */
0000170E  6006                     bra        +0x8 /* 00001716 */
label00001710:
00001710  3D7C 000A 000A           move.w     [A6 + 0xA], 0xA /* '\n' */
label00001716:
00001716  4E5E                     unlink     A6
00001718  205F                     movea.l    A0, [A7]+
0000171A  544F                     addq.w     A7, 2
0000171C  4ED0                     jmp        [A0]
fn0000171E:
0000171E  4E56 0000                link       A6, 0
00001722  4267                     clr.w      -[A7]
00001724  4EBA 1A14                jsr        [PC + 0x1A14 /* 0000313A */]
00001728  101F                     move.b     D0, [A7]+
0000172A  6736                     beq        +0x38 /* 00001762 */
0000172C  206E 0008                movea.l    A0, [A6 + 0x8]
00001730  30BC 0004                move.w     [A0], 0x4
00001734  206E 0008                movea.l    A0, [A6 + 0x8]
00001738  4268 0002                clr.w      [A0 + 0x2]
0000173C  2F2E 0008                move.l     -[A7], [A6 + 0x8]
00001740  4EAD 016A                jsr        [A5 + 0x16A /* export_41, CODE:1 @ 00003E1C */]
00001744  4267                     clr.w      -[A7]
00001746  4EBA 0D0A                jsr        [PC + 0xD0A /* 00002452 */]
0000174A  4A5F                     tst.w      [A7]+
0000174C  57C0                     seq        D0
0000174E  206E 0008                movea.l    A0, [A6 + 0x8]
00001752  4A68 0002                tst.w      [A0 + 0x2]
00001756  57C1                     seq        D1
00001758  C001                     and.b      D0, D1
0000175A  4400                     neg.b      D0
0000175C  1B40 DC2E                move.b     [A5 - 0x23D2], D0
00001760  6004                     bra        +0x6 /* 00001766 */
label00001762:
00001762  422D DC2E                clr.b      [A5 - 0x23D2]
label00001766:
00001766  102D DC2E                move.b     D0, [A5 - 0x23D2]
0000176A  660A                     bne        +0xC /* 00001776 */
0000176C  422D DC2C                clr.b      [A5 - 0x23D4]
00001770  4267                     clr.w      -[A7]
00001772  4EBA 0D00                jsr        [PC + 0xD00 /* 00002474 */]
label00001776:
00001776  1D6D DC2E 000C           move.b     [A6 + 0xC], [A5 - 0x23D2]
0000177C  4E5E                     unlink     A6
0000177E  2E9F                     move.l     [A7], [A7]+
00001780  4E75                     rts
export_204:
fn00001782:
00001782  4E56 0000                link       A6, 0
00001786  2F2D DBF8                move.l     -[A7], [A5 - 0x2408]
0000178A  4EAD 18D2                jsr        [A5 + 0x18D2 /* export_790, CODE:16 @ 0000083E */]
0000178E  4E5E                     unlink     A6
00001790  4E75                     rts
fn00001792:
00001792  4E56 FFF8                link       A6, -0x0008
00001796  48E7 0018                movem.l    -[A7], A3,A4
0000179A  42A7                     clr.l      -[A7]
0000179C  2F2D F67C                move.l     -[A7], [A5 - 0x984]
000017A0  2F3A 00A4                move.l     -[A7], [PC + 0xA4 /* 00001846, value 0x50524E54 'PRNT' */]
000017A4  4EAD 1F8A                jsr        [A5 + 0x1F8A /* export_1005, CODE:19 @ 00001926 */]
000017A8  285F                     movea.l    A4, [A7]+
000017AA  200C                     move.l     D0, A4
000017AC  6700 0082                beq        +0x84 /* 00001830 */
000017B0  2054                     movea.l    A0, [A4]
000017B2  7006                     moveq.l    D0, 0x06
000017B4  B068 000C                cmp.w      D0, [A0 + 0xC]
000017B8  665E                     bne        +0x60 /* 00001818 */
000017BA  2054                     movea.l    A0, [A4]
000017BC  43ED D9D8                lea.l      A1, [A5 - 0x2628]
000017C0  41E8 000E                lea.l      A0, [A0 + 0xE]
000017C4  7047                     moveq.l    D0, 0x47
label000017C6:
000017C6  22D8                     move.l     [A1]+, [A0]+
000017C8  51C8 FFFC                dbf        D0, -0x6 /* 000017C6 */
000017CC  102D D9F3                move.b     D0, [A5 - 0x260D]
000017D0  4880                     ext.w      D0
000017D2  4A40                     tst.w      D0
000017D4  6B18                     bmi        +0x1A /* 000017EE */
000017D6  B07C 0007                cmp.w      D0, 0x7
000017DA  6E12                     bgt        +0x14 /* 000017EE */
000017DC  41FA 0068                lea.l      A0, [PC + 0x68 /* 00001846, value 0x50524E54 'PRNT' */]
000017E0  3200                     move.w     D1, D0
000017E2  E649                     lsr        D1.w, 3
000017E4  4441                     neg.w      D1
000017E6  0130 10FF                btst       [A0 + D1.w - 0x1], D0
000017EA  0A3C 0004                xori.b     ccr, 4
label000017EE:
000017EE  57C0                     seq        D0
000017F0  C02D D9F2                and.b      D0, [A5 - 0x260E]
000017F4  6720                     beq        +0x22 /* 00001816 */
000017F6  2654                     movea.l    A3, [A4]
000017F8  D7FC 0000 012E           add.l      A3, 0x12E
000017FE  4A53                     tst.w      [A3]
00001800  6714                     beq        +0x16 /* 00001816 */
00001802  2F0B                     move.l     -[A7], A3
00001804  486D D7D6                pea.l      [A5 - 0x282A]
00001808  3013                     move.w     D0, [A3]
0000180A  E540                     asl        D0.w, 2
0000180C  5440                     addq.w     D0, 2
0000180E  48C0                     ext.l      D0
00001810  2F00                     move.l     -[A7], D0
00001812  4EAD 024A                jsr        [A5 + 0x24A /* export_69, CODE:1 @ 000046A6 */]
label00001816:
00001816  600C                     bra        +0xE /* 00001824 */
label00001818:
00001818  486D D9D8                pea.l      [A5 - 0x2628]
0000181C  4EBA 03BC                jsr        [PC + 0x3BC /* 00001BDA */]
00001820  426D D7D6                clr.w      [A5 - 0x282A]
label00001824:
00001824  2F2D F67C                move.l     -[A7], [A5 - 0x984]
00001828  4267                     clr.w      -[A7]
0000182A  4EAD 1F02                jsr        [A5 + 0x1F02 /* export_988, CODE:19 @ 000004D6 */]
0000182E  600C                     bra        +0xE /* 0000183C */
label00001830:
00001830  486D D9D8                pea.l      [A5 - 0x2628]
00001834  4EBA 03A4                jsr        [PC + 0x3A4 /* 00001BDA */]
00001838  426D D7D6                clr.w      [A5 - 0x282A]
label0000183C:
0000183C  4CDF 1800                movem.l    A3,A4, [A7]+
00001840  4E5E                     unlink     A6
00001842  4E75                     rts
00001844  000C 5052                ori.b      A4, 0x52 /* 'R' */
00001848  4E54 4E56                link       A4, -0xFFFFB1AA
// begin alternate branch 0000184A-0000184E
export_205:
fn0000184A:
0000184A  4E56 FFFE                link       A6, -0x0002
// end alternate branch 0000184A-0000184E
export_205: // at 0000184A (misaligned)
fn0000184A: // (misaligned)
0000184C  FFFE                     .invalid   <<F/7/7>>
0000184E  2F07                     move.l     -[A7], D7
00001850  102D DC2E                move.b     D0, [A5 - 0x23D2]
00001854  6710                     beq        +0x12 /* 00001866 */
00001856  302D DC34                move.w     D0, [A5 - 0x23CC]
0000185A  48C0                     ext.l      D0
0000185C  81FC 0002                divs.w     D0, 0x2
00001860  3D40 0008                move.w     [A6 + 0x8], D0
00001864  602A                     bra        +0x2C /* 00001890 */
label00001866:
00001866  4267                     clr.w      -[A7]
00001868  4EBA 0E2A                jsr        [PC + 0xE2A /* 00002694 */]
0000186C  3E1F                     move.w     D7, [A7]+
0000186E  0C47 0668                cmpi.w     D7, 0x668
00001872  6C08                     bge        +0xA /* 0000187C */
00001874  3D7C 0024 0008           move.w     [A6 + 0x8], 0x24 /* '$' */
0000187A  6014                     bra        +0x16 /* 00001890 */
label0000187C:
0000187C  0C47 0CD0                cmpi.w     D7, 0xCD0
00001880  6C08                     bge        +0xA /* 0000188A */
00001882  3D7C 0048 0008           move.w     [A6 + 0x8], 0x48 /* 'H' */
00001888  6006                     bra        +0x8 /* 00001890 */
label0000188A:
0000188A  3D7C 0090 0008           move.w     [A6 + 0x8], 0x90
label00001890:
00001890  2E1F                     move.l     D7, [A7]+
00001892  4E5E                     unlink     A6
00001894  4E75                     rts
export_206:
fn00001896:
00001896  4E56 0000                link       A6, 0
0000189A  2F2E 0008                move.l     -[A7], [A6 + 0x8]
0000189E  2F3C 0000 02D0           move.l     -[A7], 0x2D0
000018A4  4EAD 04EA                jsr        [A5 + 0x4EA /* export_153, CODE:1 @ 000051F0 */]
000018A8  2F3C 0000 01FC           move.l     -[A7], 0x1FC
000018AE  4EAD 04F2                jsr        [A5 + 0x4F2 /* export_154, CODE:1 @ 00005224 */]
000018B2  201F                     move.l     D0, [A7]+
000018B4  3D40 000C                move.w     [A6 + 0xC], D0
000018B8  4E5E                     unlink     A6
000018BA  2E9F                     move.l     [A7], [A7]+
000018BC  4E75                     rts
export_207:
fn000018BE:
000018BE  4E56 0000                link       A6, 0
000018C2  206D DBFC                movea.l    A0, [A5 - 0x2404]
000018C6  2050                     movea.l    A0, [A0]
000018C8  3028 0018                move.w     D0, [A0 + 0x18]
000018CC  48C0                     ext.l      D0
000018CE  81FC 0100                divs.w     D0, 0x100
000018D2  7201                     moveq.l    D1, 0x01
000018D4  B240                     cmp.w      D1, D0
000018D6  57C0                     seq        D0
000018D8  4400                     neg.b      D0
000018DA  1D40 0008                move.b     [A6 + 0x8], D0
000018DE  4E5E                     unlink     A6
000018E0  4E75                     rts
export_208:
fn000018E2:
000018E2  4E56 0000                link       A6, 0
000018E6  4267                     clr.w      -[A7]
000018E8  4EBA FFD4                jsr        [PC - 0x2C /* 000018BE */]
000018EC  101F                     move.b     D0, [A7]+
000018EE  660E                     bne        +0x10 /* 000018FE */
000018F0  2F00                     move.l     -[A7], D0
000018F2  4267                     clr.w      -[A7]
000018F4  4EBA E7A0                jsr        [PC - 0x1860 /* 00000096 */]
000018F8  121F                     move.b     D1, [A7]+
000018FA  201F                     move.l     D0, [A7]+
000018FC  8001                     or.b       D0, D1
label000018FE:
000018FE  1D40 0008                move.b     [A6 + 0x8], D0
00001902  4E5E                     unlink     A6
00001904  4E75                     rts
export_209:
fn00001906:
00001906  4E56 FDF4                link       A6, -0x020C
0000190A  2F07                     move.l     -[A7], D7
0000190C  206E 000C                movea.l    A0, [A6 + 0xC]
00001910  43EE FF00                lea.l      A1, [A6 - 0x100]
00001914  703F                     moveq.l    D0, 0x3F
label00001916:
00001916  22D8                     move.l     [A1]+, [A0]+
00001918  51C8 FFFC                dbf        D0, -0x6 /* 00001916 */
0000191C  206E 0008                movea.l    A0, [A6 + 0x8]
00001920  43EE FF00                lea.l      A1, [A6 - 0x100]
00001924  703F                     moveq.l    D0, 0x3F
label00001926:
00001926  20D9                     move.l     [A0]+, [A1]+
00001928  51C8 FFFC                dbf        D0, -0x6 /* 00001926 */
0000192C  486E FEFA                pea.l      [A6 - 0x106]
00001930  4EAD 0282                jsr        [A5 + 0x282 /* export_76, CODE:1 @ 00004728 */]
00001934  206E 0008                movea.l    A0, [A6 + 0x8]
00001938  4240                     clr.w      D0
0000193A  1010                     move.b     D0, [A0]
0000193C  3D40 FDF8                move.w     [A6 - 0x208], D0
00001940  7E01                     moveq.l    D7, 0x01
00001942  606E                     bra        +0x70 /* 000019B2 */
label00001944:
00001944  206E 0008                movea.l    A0, [A6 + 0x8]
00001948  4240                     clr.w      D0
0000194A  1030 7000                move.b     D0, [A0 + D7.w]
0000194E  7204                     moveq.l    D1, 0x04
00001950  B240                     cmp.w      D1, D0
00001952  665A                     bne        +0x5C /* 000019AE */
00001954  102D F2B3                move.b     D0, [A5 - 0xD4D]
00001958  0A00 0001                xori.b     D0, 0x1
0000195C  4A00                     tst.b      D0
0000195E  6622                     bne        +0x24 /* 00001982 */
00001960  2F00                     move.l     -[A7], D0
00001962  4267                     clr.w      -[A7]
00001964  2F2E 0008                move.l     -[A7], [A6 + 0x8]
00001968  3F07                     move.w     -[A7], D7
0000196A  2F3C 8206 0010           move.l     -[A7], 0x82060010
00001970  A8B5                     syscall    ScriptUtil
00001972  321F                     move.w     D1, [A7]+
00001974  201F                     move.l     D0, [A7]+
00001976  4A41                     tst.w      D1
00001978  57C1                     seq        D1
0000197A  8001                     or.b       D0, D1
0000197C  0240 0001                andi.w     D0, 0x1
00001980  672C                     beq        +0x2E /* 000019AE */
label00001982:
00001982  2F2E 0008                move.l     -[A7], [A6 + 0x8]
00001986  3F07                     move.w     -[A7], D7
00001988  3F3C 0001                move.w     -[A7], 0x1
0000198C  4EAD 051A                jsr        [A5 + 0x51A /* export_159, CODE:1 @ 000053C0 */]
00001990  2F2E FEFA                move.l     -[A7], [A6 - 0x106]
00001994  4267                     clr.w      -[A7]
00001996  486E FDFA                pea.l      [A6 - 0x206]
0000199A  4EAD 042A                jsr        [A5 + 0x42A /* export_129, CODE:1 @ 00004D46 */]
0000199E  486E FDFA                pea.l      [A6 - 0x206]
000019A2  2F2E 0008                move.l     -[A7], [A6 + 0x8]
000019A6  3F07                     move.w     -[A7], D7
000019A8  4EAD 0522                jsr        [A5 + 0x522 /* export_160, CODE:1 @ 000053F6 */]
000019AC  600A                     bra        +0xC /* 000019B8 */
label000019AE:
000019AE  5247                     addq.w     D7, 1
000019B0  6906                     bvs        +0x8 /* 000019B8 */
label000019B2:
000019B2  BE6E FDF8                cmp.w      D7, [A6 - 0x208]
000019B6  6F8C                     ble        -0x72 /* 00001944 */
label000019B8:
000019B8  206E 0008                movea.l    A0, [A6 + 0x8]
000019BC  4240                     clr.w      D0
000019BE  1010                     move.b     D0, [A0]
000019C0  3D40 FDF6                move.w     [A6 - 0x20A], D0
000019C4  7E01                     moveq.l    D7, 0x01
000019C6  606E                     bra        +0x70 /* 00001A36 */
label000019C8:
000019C8  206E 0008                movea.l    A0, [A6 + 0x8]
000019CC  4240                     clr.w      D0
000019CE  1030 7000                move.b     D0, [A0 + D7.w]
000019D2  7202                     moveq.l    D1, 0x02
000019D4  B240                     cmp.w      D1, D0
000019D6  665A                     bne        +0x5C /* 00001A32 */
000019D8  102D F2B3                move.b     D0, [A5 - 0xD4D]
000019DC  0A00 0001                xori.b     D0, 0x1
000019E0  4A00                     tst.b      D0
000019E2  6622                     bne        +0x24 /* 00001A06 */
000019E4  2F00                     move.l     -[A7], D0
000019E6  4267                     clr.w      -[A7]
000019E8  2F2E 0008                move.l     -[A7], [A6 + 0x8]
000019EC  3F07                     move.w     -[A7], D7
000019EE  2F3C 8206 0010           move.l     -[A7], 0x82060010
000019F4  A8B5                     syscall    ScriptUtil
000019F6  321F                     move.w     D1, [A7]+
000019F8  201F                     move.l     D0, [A7]+
000019FA  4A41                     tst.w      D1
000019FC  57C1                     seq        D1
000019FE  8001                     or.b       D0, D1
00001A00  0240 0001                andi.w     D0, 0x1
00001A04  672C                     beq        +0x2E /* 00001A32 */
label00001A06:
00001A06  2F2E 0008                move.l     -[A7], [A6 + 0x8]
00001A0A  3F07                     move.w     -[A7], D7
00001A0C  3F3C 0001                move.w     -[A7], 0x1
00001A10  4EAD 051A                jsr        [A5 + 0x51A /* export_159, CODE:1 @ 000053C0 */]
00001A14  2F2E FEFA                move.l     -[A7], [A6 - 0x106]
00001A18  4267                     clr.w      -[A7]
00001A1A  486E FDFA                pea.l      [A6 - 0x206]
00001A1E  4EAD 0422                jsr        [A5 + 0x422 /* export_128, CODE:1 @ 00004D40 */]
00001A22  486E FDFA                pea.l      [A6 - 0x206]
00001A26  2F2E 0008                move.l     -[A7], [A6 + 0x8]
00001A2A  3F07                     move.w     -[A7], D7
00001A2C  4EAD 0522                jsr        [A5 + 0x522 /* export_160, CODE:1 @ 000053F6 */]
00001A30  600A                     bra        +0xC /* 00001A3C */
label00001A32:
00001A32  5247                     addq.w     D7, 1
00001A34  6906                     bvs        +0x8 /* 00001A3C */
label00001A36:
00001A36  BE6E FDF6                cmp.w      D7, [A6 - 0x20A]
00001A3A  6F8C                     ble        -0x72 /* 000019C8 */
label00001A3C:
00001A3C  206E 0008                movea.l    A0, [A6 + 0x8]
00001A40  4240                     clr.w      D0
00001A42  1010                     move.b     D0, [A0]
00001A44  3D40 FDF4                move.w     [A6 - 0x20C], D0
00001A48  7E01                     moveq.l    D7, 0x01
00001A4A  6060                     bra        +0x62 /* 00001AAC */
label00001A4C:
00001A4C  206E 0008                movea.l    A0, [A6 + 0x8]
00001A50  4240                     clr.w      D0
00001A52  1030 7000                move.b     D0, [A0 + D7.w]
00001A56  7205                     moveq.l    D1, 0x05
00001A58  B240                     cmp.w      D1, D0
00001A5A  664C                     bne        +0x4E /* 00001AA8 */
00001A5C  102D F2B3                move.b     D0, [A5 - 0xD4D]
00001A60  0A00 0001                xori.b     D0, 0x1
00001A64  4A00                     tst.b      D0
00001A66  6622                     bne        +0x24 /* 00001A8A */
00001A68  2F00                     move.l     -[A7], D0
00001A6A  4267                     clr.w      -[A7]
00001A6C  2F2E 0008                move.l     -[A7], [A6 + 0x8]
00001A70  3F07                     move.w     -[A7], D7
00001A72  2F3C 8206 0010           move.l     -[A7], 0x82060010
00001A78  A8B5                     syscall    ScriptUtil
00001A7A  321F                     move.w     D1, [A7]+
00001A7C  201F                     move.l     D0, [A7]+
00001A7E  4A41                     tst.w      D1
00001A80  57C1                     seq        D1
00001A82  8001                     or.b       D0, D1
00001A84  0240 0001                andi.w     D0, 0x1
00001A88  671E                     beq        +0x20 /* 00001AA8 */
label00001A8A:
00001A8A  2F2E 0008                move.l     -[A7], [A6 + 0x8]
00001A8E  3F07                     move.w     -[A7], D7
00001A90  3F3C 0001                move.w     -[A7], 0x1
00001A94  4EAD 051A                jsr        [A5 + 0x51A /* export_159, CODE:1 @ 000053C0 */]
00001A98  486D FD48                pea.l      [A5 - 0x2B8]
00001A9C  2F2E 0008                move.l     -[A7], [A6 + 0x8]
00001AA0  3F07                     move.w     -[A7], D7
00001AA2  4EAD 0522                jsr        [A5 + 0x522 /* export_160, CODE:1 @ 000053F6 */]
00001AA6  600A                     bra        +0xC /* 00001AB2 */
label00001AA8:
00001AA8  5247                     addq.w     D7, 1
00001AAA  6906                     bvs        +0x8 /* 00001AB2 */
label00001AAC:
00001AAC  BE6E FDF4                cmp.w      D7, [A6 - 0x20C]
00001AB0  6F9A                     ble        -0x64 /* 00001A4C */
label00001AB2:
00001AB2  2E1F                     move.l     D7, [A7]+
00001AB4  4E5E                     unlink     A6
00001AB6  205F                     movea.l    A0, [A7]+
00001AB8  504F                     addq.w     A7, 8
00001ABA  4ED0                     jmp        [A0]
fn00001ABC:
00001ABC  4E56 FD66                link       A6, -0x029A
00001AC0  48E7 0700                movem.l    -[A7], D5,D6,D7
00001AC4  102D DC50                move.b     D0, [A5 - 0x23B0]
00001AC8  6704                     beq        +0x6 /* 00001ACE */
00001ACA  6000 0104                bra        +0x106 /* 00001BD0 */
label00001ACE:
00001ACE  1B7C 0001 DC50           move.b     [A5 - 0x23B0], 0x1
00001AD4  4EAD 018A                jsr        [A5 + 0x18A /* export_45, CODE:1 @ 00003E54 */]
00001AD8  422D DC2F                clr.b      [A5 - 0x23D1]
00001ADC  422D DC51                clr.b      [A5 - 0x23AF]
00001AE0  422D D7C0                clr.b      [A5 - 0x2840]
00001AE4  422D DC2E                clr.b      [A5 - 0x23D2]
00001AE8  422D D7BF                clr.b      [A5 - 0x2841]
00001AEC  422D DC2D                clr.b      [A5 - 0x23D3]
00001AF0  422D DC2C                clr.b      [A5 - 0x23D4]
00001AF4  422D DC2B                clr.b      [A5 - 0x23D5]
00001AF8  4267                     clr.w      -[A7]
00001AFA  4EBA 0978                jsr        [PC + 0x978 /* 00002474 */]
00001AFE  42A7                     clr.l      -[A7]
00001B00  7078                     moveq.l    D0, 0x78
00001B02  2F00                     move.l     -[A7], D0
00001B04  4EAD 18DA                jsr        [A5 + 0x18DA /* export_791, CODE:16 @ 00000896 */]
00001B08  2B5F DBFC                move.l     [A5 - 0x2404], [A7]+
00001B0C  670A                     beq        +0xC /* 00001B18 */
00001B0E  2F2D DBFC                move.l     -[A7], [A5 - 0x2404]
00001B12  4EAD 014A                jsr        [A5 + 0x14A /* export_37, CODE:1 @ 00003DE4 */]
00001B16  6068                     bra        +0x6A /* 00001B80 */
label00001B18:
00001B18  1B7C 0001 DC2F           move.b     [A5 - 0x23D1], 0x1
00001B1E  4267                     clr.w      -[A7]
00001B20  4EBA 0930                jsr        [PC + 0x930 /* 00002452 */]
00001B24  3E1F                     move.w     D7, [A7]+
00001B26  4A47                     tst.w      D7
00001B28  6626                     bne        +0x28 /* 00001B50 */
00001B2A  486E FE7A                pea.l      [A6 - 0x186]
00001B2E  3F3C 0012                move.w     -[A7], 0x12
00001B32  4EBA 07F4                jsr        [PC + 0x7F4 /* 00002328 */]
00001B36  486E FD7A                pea.l      [A6 - 0x286]
00001B3A  3F3C 0017                move.w     -[A7], 0x17
00001B3E  4EBA 07E8                jsr        [PC + 0x7E8 /* 00002328 */]
00001B42  487A 0094                pea.l      [PC + 0x94 /* 00001BD8, value 0x4E56 'NV', cstring "" */]
00001B46  487A 0090                pea.l      [PC + 0x90 /* 00001BD8, value 0x4E56 'NV', cstring "" */]
00001B4A  4EBA 0676                jsr        [PC + 0x676 /* 000021C2 */]
00001B4E  6064                     bra        +0x66 /* 00001BB4 */
label00001B50:
00001B50  486E FE7A                pea.l      [A6 - 0x186]
00001B54  3F3C 0012                move.w     -[A7], 0x12
00001B58  4EBA 07CE                jsr        [PC + 0x7CE /* 00002328 */]
00001B5C  487A 007A                pea.l      [PC + 0x7A /* 00001BD8, value 0x4E56 'NV', cstring "" */]
00001B60  486E FD7A                pea.l      [A6 - 0x286]
00001B64  3F3C 0006                move.w     -[A7], 0x6
00001B68  4EBA 07BE                jsr        [PC + 0x7BE /* 00002328 */]
00001B6C  486E FD66                pea.l      [A6 - 0x29A]
00001B70  3007                     move.w     D0, D7
00001B72  48C0                     ext.l      D0
00001B74  2F00                     move.l     -[A7], D0
00001B76  4EAD 1902                jsr        [A5 + 0x1902 /* export_796, CODE:16 @ 000009D4 */]
00001B7A  4EBA 0646                jsr        [PC + 0x646 /* 000021C2 */]
00001B7E  6034                     bra        +0x36 /* 00001BB4 */
label00001B80:
00001B80  3B7C 0001 DC4E           move.w     [A5 - 0x23B2], 0x1
00001B86  4267                     clr.w      -[A7]
00001B88  486E FF7C                pea.l      [A6 - 0x84]
00001B8C  4EBA FB90                jsr        [PC - 0x470 /* 0000171E */]
00001B90  1A1F                     move.b     D5, [A7]+
00001B92  3B7C 0048 DC34           move.w     [A5 - 0x23CC], 0x48 /* 'H' */
00001B98  486D D9D8                pea.l      [A5 - 0x2628]
00001B9C  4EBA 003C                jsr        [PC + 0x3C /* 00001BDA */]
00001BA0  206D DBFC                movea.l    A0, [A5 - 0x2404]
00001BA4  2050                     movea.l    A0, [A0]
00001BA6  3028 0018                move.w     D0, [A0 + 0x18]
00001BAA  48C0                     ext.l      D0
00001BAC  81FC 0100                divs.w     D0, 0x100
00001BB0  3B40 DC32                move.w     [A5 - 0x23CE], D0
label00001BB4:
00001BB4  4267                     clr.w      -[A7]
00001BB6  A994                     syscall    CurResFile
00001BB8  3C1F                     move.w     D6, [A7]+
00001BBA  4EAD 0192                jsr        [A5 + 0x192 /* export_46, CODE:1 @ 00003E62 */]
00001BBE  4EAD 0172                jsr        [A5 + 0x172 /* export_42, CODE:1 @ 00003E2A */]
00001BC2  3F06                     move.w     -[A7], D6
00001BC4  A998                     syscall    UseResFile
00001BC6  102D DC2F                move.b     D0, [A5 - 0x23D1]
00001BCA  6604                     bne        +0x6 /* 00001BD0 */
00001BCC  4EBA 0100                jsr        [PC + 0x100 /* 00001CCE */]
label00001BD0:
00001BD0  4CDF 00E0                movem.l    D5,D6,D7, [A7]+
00001BD4  4E5E                     unlink     A6
00001BD6  4E75                     rts
00001BD8  0000 4E56                ori.b      D0, 0x56 /* 'V' */
// begin alternate branch 00001BDA-00001BE0
fn00001BDA:
00001BDA  4E56 0000                link       A6, 0
00001BDE  2F0C                     move.l     -[A7], A4
// end alternate branch 00001BDA-00001BE0
fn00001BDA: // (misaligned)
00001BDC  0000 2F0C                ori.b      D0, 0xC
00001BE0  286E 0008                movea.l    A4, [A6 + 0x8]
00001BE4  38BC 0001                move.w     [A4], 0x1
00001BE8  397C 0064 0002           move.w     [A4 + 0x2], 0x64 /* 'd' */
00001BEE  397C 0064 0004           move.w     [A4 + 0x4], 0x64 /* 'd' */
00001BF4  422C 0012                clr.b      [A4 + 0x12]
00001BF8  4267                     clr.w      -[A7]
00001BFA  4EAD 0432                jsr        [A5 + 0x432 /* export_130, CODE:1 @ 00004D4C */]
00001BFE  195F 0013                move.b     [A4 + 0x13], [A7]+
00001C02  102C 0013                move.b     D0, [A4 + 0x13]
00001C06  6722                     beq        +0x24 /* 00001C2A */
00001C08  426C 0006                clr.w      [A4 + 0x6]
00001C0C  426C 0008                clr.w      [A4 + 0x8]
00001C10  397C 008B 000C           move.w     [A4 + 0xC], 0x8B
00001C16  397C 0039 000A           move.w     [A4 + 0xA], 0x39 /* '9' */
00001C1C  397C 008B 0010           move.w     [A4 + 0x10], 0x8B
00001C22  397C 0039 000E           move.w     [A4 + 0xE], 0x39 /* '9' */
00001C28  6022                     bra        +0x24 /* 00001C4C */
label00001C2A:
00001C2A  426C 0006                clr.w      [A4 + 0x6]
00001C2E  397C 0002 0008           move.w     [A4 + 0x8], 0x2
00001C34  397C 005A 000C           move.w     [A4 + 0xC], 0x5A /* 'Z' */
00001C3A  397C 0020 000A           move.w     [A4 + 0xA], 0x20 /* ' ' */
00001C40  397C 005A 0010           move.w     [A4 + 0x10], 0x5A /* 'Z' */
00001C46  397C 0020 000E           move.w     [A4 + 0xE], 0x20 /* ' ' */
label00001C4C:
00001C4C  196D F2B3 0014           move.b     [A4 + 0x14], [A5 - 0xD4D]
00001C52  197C 0001 0015           move.b     [A4 + 0x15], 0x1
00001C58  422C 0016                clr.b      [A4 + 0x16]
00001C5C  197C 0001 0017           move.b     [A4 + 0x17], 0x1
00001C62  197C 0001 0018           move.b     [A4 + 0x18], 0x1
00001C68  422C 0019                clr.b      [A4 + 0x19]
00001C6C  197C 0001 001A           move.b     [A4 + 0x1A], 0x1
00001C72  197C 0002 001B           move.b     [A4 + 0x1B], 0x2
00001C78  197C 0001 001C           move.b     [A4 + 0x1C], 0x1
00001C7E  422C 001D                clr.b      [A4 + 0x1D]
00001C82  197C 0001 001E           move.b     [A4 + 0x1E], 0x1
00001C88  422C 0020                clr.b      [A4 + 0x20]
00001C8C  285F                     movea.l    A4, [A7]+
00001C8E  4E5E                     unlink     A6
00001C90  2E9F                     move.l     [A7], [A7]+
00001C92  4E75                     rts
export_210:
00001C94  4E56 FFF8                link       A6, -0x0008
00001C98  206E 0008                movea.l    A0, [A6 + 0x8]
00001C9C  43EE FFF8                lea.l      A1, [A6 - 0x8]
00001CA0  22D8                     move.l     [A1]+, [A0]+
00001CA2  22D8                     move.l     [A1]+, [A0]+
00001CA4  7002                     moveq.l    D0, 0x02
00001CA6  B02E 000C                cmp.b      D0, [A6 + 0xC]
00001CAA  670A                     beq        +0xC /* 00001CB6 */
00001CAC  1F2E 000C                move.b     -[A7], [A6 + 0xC]
00001CB0  486E FFF8                pea.l      [A6 - 0x8]
00001CB4  A8A0                     syscall    StdRect
label00001CB6:
00001CB6  4E5E                     unlink     A6
00001CB8  205F                     movea.l    A0, [A7]+
00001CBA  5C4F                     addq.w     A7, 6
00001CBC  4ED0                     jmp        [A0]
export_211:
fn00001CBE:
00001CBE  4E56 0000                link       A6, 0
00001CC2  2F2D D732                move.l     -[A7], [A5 - 0x28CE]
00001CC6  4EAD 201A                jsr        [A5 + 0x201A /* export_1023, CODE:20 @ 000002FA */]
00001CCA  4E5E                     unlink     A6
00001CCC  4E75                     rts
fn00001CCE:
00001CCE  4E56 FFFC                link       A6, -0x0004
00001CD2  2F0C                     move.l     -[A7], A4
00001CD4  206D DBFC                movea.l    A0, [A5 - 0x2404]
00001CD8  2050                     movea.l    A0, [A0]
00001CDA  49E8 0018                lea.l      A4, [A0 + 0x18]
00001CDE  3014                     move.w     D0, [A4]
00001CE0  48C0                     ext.l      D0
00001CE2  81FC 0100                divs.w     D0, 0x100
00001CE6  7203                     moveq.l    D1, 0x03
00001CE8  B240                     cmp.w      D1, D0
00001CEA  6608                     bne        +0xA /* 00001CF4 */
00001CEC  2F0C                     move.l     -[A7], A4
00001CEE  700D                     moveq.l    D0, 0x0D
00001CF0  2F00                     move.l     -[A7], D0
00001CF2  A85F                     syscall    BitClr
label00001CF4:
00001CF4  285F                     movea.l    A4, [A7]+
00001CF6  4E5E                     unlink     A6
00001CF8  4E75                     rts
export_212:
fn00001CFA:
00001CFA  4E56 0000                link       A6, 0
00001CFE  206D DBFC                movea.l    A0, [A5 - 0x2404]
00001D02  2050                     movea.l    A0, [A0]
00001D04  3028 0018                move.w     D0, [A0 + 0x18]
00001D08  48C0                     ext.l      D0
00001D0A  81FC 0100                divs.w     D0, 0x100
00001D0E  7203                     moveq.l    D1, 0x03
00001D10  B240                     cmp.w      D1, D0
00001D12  57C0                     seq        D0
00001D14  4400                     neg.b      D0
00001D16  1D40 0008                move.b     [A6 + 0x8], D0
00001D1A  4E5E                     unlink     A6
00001D1C  4E75                     rts
export_213:
fn00001D1E:
00001D1E  4E56 FFEE                link       A6, -0x0012
00001D22  48E7 0318                movem.l    -[A7], D6,D7,A3,A4
00001D26  206E 0008                movea.l    A0, [A6 + 0x8]
00001D2A  43EE FFF8                lea.l      A1, [A6 - 0x8]
00001D2E  22D8                     move.l     [A1]+, [A0]+
00001D30  22D8                     move.l     [A1]+, [A0]+
00001D32  266E 000C                movea.l    A3, [A6 + 0xC]
00001D36  286E 0010                movea.l    A4, [A6 + 0x10]
00001D3A  4267                     clr.w      -[A7]
00001D3C  302E FFFE                move.w     D0, [A6 - 0x2]
00001D40  906E FFFA                sub.w      D0, [A6 - 0x6]
00001D44  3F00                     move.w     -[A7], D0
00001D46  4EBA 0582                jsr        [PC + 0x582 /* 000022CA */]
00001D4A  395F 0004                move.w     [A4 + 0x4], [A7]+
00001D4E  302C 0004                move.w     D0, [A4 + 0x4]
00001D52  48C0                     ext.l      D0
00001D54  2E00                     move.l     D7, D0
00001D56  302E FFFC                move.w     D0, [A6 - 0x4]
00001D5A  906E FFF8                sub.w      D0, [A6 - 0x8]
00001D5E  48C0                     ext.l      D0
00001D60  2F07                     move.l     -[A7], D7
00001D62  2F00                     move.l     -[A7], D0
00001D64  4EAD 04EA                jsr        [A5 + 0x4EA /* export_153, CODE:1 @ 000051F0 */]
00001D68  2E1F                     move.l     D7, [A7]+
00001D6A  204C                     movea.l    A0, A4
00001D6C  5C88                     addq.l     A0, 6
00001D6E  43EE FFF8                lea.l      A1, [A6 - 0x8]
00001D72  20D9                     move.l     [A0]+, [A1]+
00001D74  20D9                     move.l     [A0]+, [A1]+
00001D76  42A7                     clr.l      -[A7]
00001D78  2F07                     move.l     -[A7], D7
00001D7A  4EAD 18DA                jsr        [A5 + 0x18DA /* export_791, CODE:16 @ 00000896 */]
00001D7E  269F                     move.l     [A3], [A7]+
00001D80  6604                     bne        +0x6 /* 00001D86 */
00001D82  7E00                     moveq.l    D7, 0x00
00001D84  6030                     bra        +0x32 /* 00001DB6 */
label00001D86:
00001D86  42A7                     clr.l      -[A7]
00001D88  4EAD 1F4A                jsr        [A5 + 0x1F4A /* export_997, CODE:19 @ 00001378 */]
00001D8C  0C9F 0000 8000           cmpi.l     [A7]+, 0x8000
00001D92  6C22                     bge        +0x24 /* 00001DB6 */
00001D94  4EAD 1ED2                jsr        [A5 + 0x1ED2 /* export_982, CODE:19 @ 00000172 */]
00001D98  42A7                     clr.l      -[A7]
00001D9A  A9FA                     syscall    UnloadScrap/UnlodeScrap
00001D9C  201F                     move.l     D0, [A7]+
00001D9E  3C00                     move.w     D6, D0
00001DA0  42A7                     clr.l      -[A7]
00001DA2  4EAD 1F4A                jsr        [A5 + 0x1F4A /* export_997, CODE:19 @ 00001378 */]
00001DA6  0C9F 0000 8000           cmpi.l     [A7]+, 0x8000
00001DAC  6C08                     bge        +0xA /* 00001DB6 */
00001DAE  2F13                     move.l     -[A7], [A3]
00001DB0  4EAD 18D2                jsr        [A5 + 0x18D2 /* export_790, CODE:16 @ 0000083E */]
00001DB4  7E00                     moveq.l    D7, 0x00
label00001DB6:
00001DB6  2D47 0014                move.l     [A6 + 0x14], D7
00001DBA  4CDF 18C0                movem.l    D6,D7,A3,A4, [A7]+
00001DBE  4E5E                     unlink     A6
00001DC0  205F                     movea.l    A0, [A7]+
00001DC2  DEFC 000C                add.w      A7, 0xC
00001DC6  4ED0                     jmp        [A0]
export_214:
fn00001DC8:
00001DC8  4E56 FFEE                link       A6, -0x0012
00001DCC  206E 0008                movea.l    A0, [A6 + 0x8]
00001DD0  43EE FFF2                lea.l      A1, [A6 - 0xE]
00001DD4  22D8                     move.l     [A1]+, [A0]+
00001DD6  22D8                     move.l     [A1]+, [A0]+
00001DD8  22D8                     move.l     [A1]+, [A0]+
00001DDA  3290                     move.w     [A1], [A0]
00001DDC  486E FFEE                pea.l      [A6 - 0x12]
00001DE0  A874                     syscall    GetPort
00001DE2  206E 000C                movea.l    A0, [A6 + 0xC]
00001DE6  2F10                     move.l     -[A7], [A0]
00001DE8  A86F                     syscall    OpenPort
00001DEA  486E FFF2                pea.l      [A6 - 0xE]
00001DEE  A875                     syscall    SetPBits/SetPortBits
00001DF0  206E 000C                movea.l    A0, [A6 + 0xC]
00001DF4  2050                     movea.l    A0, [A0]
00001DF6  41E8 0010                lea.l      A0, [A0 + 0x10]
00001DFA  43EE FFF8                lea.l      A1, [A6 - 0x8]
00001DFE  20D9                     move.l     [A0]+, [A1]+
00001E00  20D9                     move.l     [A0]+, [A1]+
00001E02  206E 000C                movea.l    A0, [A6 + 0xC]
00001E06  2050                     movea.l    A0, [A0]
00001E08  2F28 0018                move.l     -[A7], [A0 + 0x18]
00001E0C  486E FFF8                pea.l      [A6 - 0x8]
00001E10  A8DF                     syscall    RectRgn
00001E12  486E FFF8                pea.l      [A6 - 0x8]
00001E16  A87B                     syscall    ClipRect
00001E18  2F2E FFEE                move.l     -[A7], [A6 - 0x12]
00001E1C  A873                     syscall    SetPort
00001E1E  4E5E                     unlink     A6
00001E20  205F                     movea.l    A0, [A7]+
00001E22  504F                     addq.w     A7, 8
00001E24  4ED0                     jmp        [A0]
export_215:
fn00001E26:
00001E26  4E56 FFFC                link       A6, -0x0004
00001E2A  48E7 0308                movem.l    -[A7], D6,D7,A4
00001E2E  206D DBFC                movea.l    A0, [A5 - 0x2404]
00001E32  2050                     movea.l    A0, [A0]
00001E34  226E 000A                movea.l    A1, [A6 + 0xA]
00001E38  5088                     addq.l     A0, 8
00001E3A  22D8                     move.l     [A1]+, [A0]+
00001E3C  22D8                     move.l     [A1]+, [A0]+
00001E3E  102E 0008                move.b     D0, [A6 + 0x8]
00001E42  677E                     beq        +0x80 /* 00001EC2 */
00001E44  206D DBFC                movea.l    A0, [A5 - 0x2404]
00001E48  2850                     movea.l    A4, [A0]
00001E4A  302C 0014                move.w     D0, [A4 + 0x14]
00001E4E  906C 000C                sub.w      D0, [A4 + 0xC]
00001E52  322C 0008                move.w     D1, [A4 + 0x8]
00001E56  926C 0010                sub.w      D1, [A4 + 0x10]
00001E5A  3E00                     move.w     D7, D0
00001E5C  9E41                     sub.w      D7, D1
00001E5E  4A47                     tst.w      D7
00001E60  6F10                     ble        +0x12 /* 00001E72 */
00001E62  206E 000A                movea.l    A0, [A6 + 0xA]
00001E66  3007                     move.w     D0, D7
00001E68  D050                     add.w      D0, [A0]
00001E6A  206E 000A                movea.l    A0, [A6 + 0xA]
00001E6E  3080                     move.w     [A0], D0
00001E70  6012                     bra        +0x14 /* 00001E84 */
label00001E72:
00001E72  206E 000A                movea.l    A0, [A6 + 0xA]
00001E76  3007                     move.w     D0, D7
00001E78  D068 0004                add.w      D0, [A0 + 0x4]
00001E7C  206E 000A                movea.l    A0, [A6 + 0xA]
00001E80  3140 0004                move.w     [A0 + 0x4], D0
label00001E84:
00001E84  302C 0016                move.w     D0, [A4 + 0x16]
00001E88  906C 000E                sub.w      D0, [A4 + 0xE]
00001E8C  322C 000A                move.w     D1, [A4 + 0xA]
00001E90  926C 0012                sub.w      D1, [A4 + 0x12]
00001E94  3C00                     move.w     D6, D0
00001E96  9C41                     sub.w      D6, D1
00001E98  4A46                     tst.w      D6
00001E9A  6F14                     ble        +0x16 /* 00001EB0 */
00001E9C  206E 000A                movea.l    A0, [A6 + 0xA]
00001EA0  3006                     move.w     D0, D6
00001EA2  D068 0002                add.w      D0, [A0 + 0x2]
00001EA6  206E 000A                movea.l    A0, [A6 + 0xA]
00001EAA  3140 0002                move.w     [A0 + 0x2], D0
00001EAE  6012                     bra        +0x14 /* 00001EC2 */
label00001EB0:
00001EB0  206E 000A                movea.l    A0, [A6 + 0xA]
00001EB4  3006                     move.w     D0, D6
00001EB6  D068 0006                add.w      D0, [A0 + 0x6]
00001EBA  206E 000A                movea.l    A0, [A6 + 0xA]
00001EBE  3140 0006                move.w     [A0 + 0x6], D0
label00001EC2:
00001EC2  4267                     clr.w      -[A7]
00001EC4  4EBA FA1C                jsr        [PC - 0x5E4 /* 000018E2 */]
00001EC8  102D DC2E                move.b     D0, [A5 - 0x23D2]
00001ECC  C01F                     and.b      D0, [A7]+
00001ECE  C02D DC2C                and.b      D0, [A5 - 0x23D4]
00001ED2  2F00                     move.l     -[A7], D0
00001ED4  4267                     clr.w      -[A7]
00001ED6  4EBA 2C1E                jsr        [PC + 0x2C1E /* 00004AF6 */]
00001EDA  121F                     move.b     D1, [A7]+
00001EDC  201F                     move.l     D0, [A7]+
00001EDE  C001                     and.b      D0, D1
00001EE0  6724                     beq        +0x26 /* 00001F06 */
00001EE2  2F2E 000A                move.l     -[A7], [A6 + 0xA]
00001EE6  206E 000A                movea.l    A0, [A6 + 0xA]
00001EEA  3F10                     move.w     -[A7], [A0]
00001EEC  206E 000A                movea.l    A0, [A6 + 0xA]
00001EF0  3F28 0002                move.w     -[A7], [A0 + 0x2]
00001EF4  206E 000A                movea.l    A0, [A6 + 0xA]
00001EF8  3F28 0004                move.w     -[A7], [A0 + 0x4]
00001EFC  206E 000A                movea.l    A0, [A6 + 0xA]
00001F00  3F28 0006                move.w     -[A7], [A0 + 0x6]
00001F04  A8A7                     syscall    SetRect
label00001F06:
00001F06  4CDF 10C0                movem.l    D6,D7,A4, [A7]+
00001F0A  4E5E                     unlink     A6
00001F0C  205F                     movea.l    A0, [A7]+
00001F0E  5C4F                     addq.w     A7, 6
00001F10  4ED0                     jmp        [A0]
export_216:
fn00001F12:
00001F12  4E56 FEFE                link       A6, -0x0102
00001F16  206E 000A                movea.l    A0, [A6 + 0xA]
00001F1A  43EE FF00                lea.l      A1, [A6 - 0x100]
00001F1E  703F                     moveq.l    D0, 0x3F
label00001F20:
00001F20  22D8                     move.l     [A1]+, [A0]+
00001F22  51C8 FFFC                dbf        D0, -0x6 /* 00001F20 */
00001F26  4240                     clr.w      D0
00001F28  102E FF00                move.b     D0, [A6 - 0x100]
00001F2C  4A40                     tst.w      D0
00001F2E  56C0                     sne        D0
00001F30  802E 0008                or.b       D0, [A6 + 0x8]
00001F34  0240 0001                andi.w     D0, 0x1
00001F38  6718                     beq        +0x1A /* 00001F52 */
00001F3A  4267                     clr.w      -[A7]
00001F3C  7016                     moveq.l    D0, 0x16
00001F3E  2F00                     move.l     -[A7], D0
00001F40  4EBA 20E4                jsr        [PC + 0x20E4 /* 00004026 */]
00001F44  3D5F FEFE                move.w     [A6 - 0x102], [A7]+
00001F48  206E 000E                movea.l    A0, [A6 + 0xE]
00001F4C  302E FEFE                move.w     D0, [A6 - 0x102]
00001F50  D150                     add.w      [A0], D0
label00001F52:
00001F52  4E5E                     unlink     A6
00001F54  205F                     movea.l    A0, [A7]+
00001F56  DEFC 000A                add.w      A7, 0xA /* '\n' */
00001F5A  4ED0                     jmp        [A0]
fn00001F5C:
00001F5C  4E56 0000                link       A6, 0
00001F60  2F0C                     move.l     -[A7], A4
00001F62  286E 0008                movea.l    A4, [A6 + 0x8]
00001F66  206C 0012                movea.l    A0, [A4 + 0x12]
00001F6A  302E 000C                move.w     D0, [A6 + 0xC]
00001F6E  9068 0004                sub.w      D0, [A0 + 0x4]
00001F72  B06C FEDC                cmp.w      D0, [A4 - 0x124]
00001F76  6C10                     bge        +0x12 /* 00001F88 */
00001F78  302E 000C                move.w     D0, [A6 + 0xC]
00001F7C  906C FEDC                sub.w      D0, [A4 - 0x124]
00001F80  206C 0012                movea.l    A0, [A4 + 0x12]
00001F84  3140 0004                move.w     [A0 + 0x4], D0
label00001F88:
00001F88  285F                     movea.l    A4, [A7]+
00001F8A  4E5E                     unlink     A6
00001F8C  205F                     movea.l    A0, [A7]+
00001F8E  5C4F                     addq.w     A7, 6
00001F90  4ED0                     jmp        [A0]
fn00001F92:
00001F92  4E56 FFFE                link       A6, -0x0002
00001F96  48E7 0108                movem.l    -[A7], D7,A4
00001F9A  286E 0008                movea.l    A4, [A6 + 0x8]
00001F9E  7003                     moveq.l    D0, 0x03
00001FA0  C1EC FEDC                muls.w     D0, [A4 - 0x124]
00001FA4  48C0                     ext.l      D0
00001FA6  81FC 0002                divs.w     D0, 0x2
00001FAA  3E00                     move.w     D7, D0
00001FAC  206C 0012                movea.l    A0, [A4 + 0x12]
00001FB0  3028 0002                move.w     D0, [A0 + 0x2]
00001FB4  906E 000C                sub.w      D0, [A6 + 0xC]
00001FB8  BE40                     cmp.w      D7, D0
00001FBA  6F0E                     ble        +0x10 /* 00001FCA */
00001FBC  3007                     move.w     D0, D7
00001FBE  D06E 000C                add.w      D0, [A6 + 0xC]
00001FC2  206C 0012                movea.l    A0, [A4 + 0x12]
00001FC6  3140 0002                move.w     [A0 + 0x2], D0
label00001FCA:
00001FCA  4CDF 1080                movem.l    D7,A4, [A7]+
00001FCE  4E5E                     unlink     A6
00001FD0  205F                     movea.l    A0, [A7]+
00001FD2  5C4F                     addq.w     A7, 6
00001FD4  4ED0                     jmp        [A0]
fn00001FD6:
00001FD6  4E56 0000                link       A6, 0
00001FDA  2F0C                     move.l     -[A7], A4
00001FDC  286E 0008                movea.l    A4, [A6 + 0x8]
00001FE0  206C 0012                movea.l    A0, [A4 + 0x12]
00001FE4  302E 000C                move.w     D0, [A6 + 0xC]
00001FE8  9068 0006                sub.w      D0, [A0 + 0x6]
00001FEC  B06C FEDC                cmp.w      D0, [A4 - 0x124]
00001FF0  6C10                     bge        +0x12 /* 00002002 */
00001FF2  302E 000C                move.w     D0, [A6 + 0xC]
00001FF6  906C FEDC                sub.w      D0, [A4 - 0x124]
00001FFA  206C 0012                movea.l    A0, [A4 + 0x12]
00001FFE  3140 0006                move.w     [A0 + 0x6], D0
label00002002:
00002002  285F                     movea.l    A4, [A7]+
00002004  4E5E                     unlink     A6
00002006  205F                     movea.l    A0, [A7]+
00002008  5C4F                     addq.w     A7, 6
0000200A  4ED0                     jmp        [A0]
fn0000200C:
0000200C  4E56 0000                link       A6, 0
00002010  2F0C                     move.l     -[A7], A4
00002012  286E 0008                movea.l    A4, [A6 + 0x8]
00002016  206C 0012                movea.l    A0, [A4 + 0x12]
0000201A  3010                     move.w     D0, [A0]
0000201C  906E 000C                sub.w      D0, [A6 + 0xC]
00002020  B06C FEDC                cmp.w      D0, [A4 - 0x124]
00002024  6C0E                     bge        +0x10 /* 00002034 */
00002026  302C FEDC                move.w     D0, [A4 - 0x124]
0000202A  D06E 000C                add.w      D0, [A6 + 0xC]
0000202E  206C 0012                movea.l    A0, [A4 + 0x12]
00002032  3080                     move.w     [A0], D0
label00002034:
00002034  285F                     movea.l    A4, [A7]+
00002036  4E5E                     unlink     A6
00002038  205F                     movea.l    A0, [A7]+
0000203A  5C4F                     addq.w     A7, 6
0000203C  4ED0                     jmp        [A0]
export_217:
fn0000203E:
0000203E  4E56 FEDC                link       A6, -0x0124
00002042  48E7 0308                movem.l    -[A7], D6,D7,A4
00002046  206E 0008                movea.l    A0, [A6 + 0x8]
0000204A  43EE FEE0                lea.l      A1, [A6 - 0x120]
0000204E  7047                     moveq.l    D0, 0x47
label00002050:
00002050  22D8                     move.l     [A1]+, [A0]+
00002052  51C8 FFFC                dbf        D0, -0x6 /* 00002050 */
00002056  1E2E 000C                move.b     D7, [A6 + 0xC]
0000205A  4267                     clr.w      -[A7]
0000205C  4EBA F7EC                jsr        [PC - 0x814 /* 0000184A */]
00002060  3D5F FEDC                move.w     [A6 - 0x124], [A7]+
00002064  206E 000E                movea.l    A0, [A6 + 0xE]
00002068  2050                     movea.l    A0, [A0]
0000206A  49E8 0010                lea.l      A4, [A0 + 0x10]
0000206E  4267                     clr.w      -[A7]
00002070  4EBA 2A84                jsr        [PC + 0x2A84 /* 00004AF6 */]
00002074  101F                     move.b     D0, [A7]+
00002076  6700 00A2                beq        +0xA4 /* 0000211A */
0000207A  4267                     clr.w      -[A7]
0000207C  4EBA 2A56                jsr        [PC + 0x2A56 /* 00004AD4 */]
00002080  101F                     move.b     D0, [A7]+
00002082  672C                     beq        +0x2E /* 000020B0 */
00002084  1007                     move.b     D0, D7
00002086  0A00 0001                xori.b     D0, 0x1
0000208A  C02E FEF6                and.b      D0, [A6 - 0x10A]
0000208E  6714                     beq        +0x16 /* 000020A4 */
00002090  3F14                     move.w     -[A7], [A4]
00002092  2F0E                     move.l     -[A7], A6
00002094  4EBA FF76                jsr        [PC - 0x8A /* 0000200C */]
00002098  3F2C 0004                move.w     -[A7], [A4 + 0x4]
0000209C  2F0E                     move.l     -[A7], A6
0000209E  4EBA FEBC                jsr        [PC - 0x144 /* 00001F5C */]
000020A2  6074                     bra        +0x76 /* 00002118 */
label000020A4:
000020A4  3F2C 0002                move.w     -[A7], [A4 + 0x2]
000020A8  2F0E                     move.l     -[A7], A6
000020AA  4EBA FEE6                jsr        [PC - 0x11A /* 00001F92 */]
000020AE  6068                     bra        +0x6A /* 00002118 */
label000020B0:
000020B0  1007                     move.b     D0, D7
000020B2  0A00 0001                xori.b     D0, 0x1
000020B6  C02E FEF6                and.b      D0, [A6 - 0x10A]
000020BA  7202                     moveq.l    D1, 0x02
000020BC  B22E FEFC                cmp.b      D1, [A6 - 0x104]
000020C0  57C1                     seq        D1
000020C2  2407                     move.l     D2, D7
000020C4  C401                     and.b      D2, D1
000020C6  4A2E FEFD                tst.b      [A6 - 0x103]
000020CA  56C1                     sne        D1
000020CC  C401                     and.b      D2, D1
000020CE  8002                     or.b       D0, D2
000020D0  6712                     beq        +0x14 /* 000020E4 */
000020D2  3F14                     move.w     -[A7], [A4]
000020D4  2F0E                     move.l     -[A7], A6
000020D6  4EBA FEBA                jsr        [PC - 0x146 /* 00001F92 */]
000020DA  3F2C 0004                move.w     -[A7], [A4 + 0x4]
000020DE  2F0E                     move.l     -[A7], A6
000020E0  4EBA FEF4                jsr        [PC - 0x10C /* 00001FD6 */]
label000020E4:
000020E4  102E FEF6                move.b     D0, [A6 - 0x10A]
000020E8  0A00 0001                xori.b     D0, 0x1
000020EC  2207                     move.l     D1, D7
000020EE  8200                     or.b       D1, D0
000020F0  6726                     beq        +0x28 /* 00002118 */
000020F2  206D DBFC                movea.l    A0, [A5 - 0x2404]
000020F6  2050                     movea.l    A0, [A0]
000020F8  3C2C 0006                move.w     D6, [A4 + 0x6]
000020FC  9C68 000E                sub.w      D6, [A0 + 0xE]
00002100  BC6E FEDC                cmp.w      D6, [A6 - 0x124]
00002104  6C12                     bge        +0x14 /* 00002118 */
00002106  206E 0012                movea.l    A0, [A6 + 0x12]
0000210A  302E FEDC                move.w     D0, [A6 - 0x124]
0000210E  9046                     sub.w      D0, D6
00002110  D050                     add.w      D0, [A0]
00002112  206E 0012                movea.l    A0, [A6 + 0x12]
00002116  3080                     move.w     [A0], D0
label00002118:
00002118  604C                     bra        +0x4E /* 00002166 */
label0000211A:
0000211A  1007                     move.b     D0, D7
0000211C  0A00 0001                xori.b     D0, 0x1
00002120  C02E FEF6                and.b      D0, [A6 - 0x10A]
00002124  7202                     moveq.l    D1, 0x02
00002126  B22E FEFC                cmp.b      D1, [A6 - 0x104]
0000212A  57C1                     seq        D1
0000212C  2407                     move.l     D2, D7
0000212E  C401                     and.b      D2, D1
00002130  4A2E FEFD                tst.b      [A6 - 0x103]
00002134  56C1                     sne        D1
00002136  C401                     and.b      D2, D1
00002138  8002                     or.b       D0, D2
0000213A  6714                     beq        +0x16 /* 00002150 */
0000213C  3F2C 0002                move.w     -[A7], [A4 + 0x2]
00002140  2F0E                     move.l     -[A7], A6
00002142  4EBA FE4E                jsr        [PC - 0x1B2 /* 00001F92 */]
00002146  3F2C 0006                move.w     -[A7], [A4 + 0x6]
0000214A  2F0E                     move.l     -[A7], A6
0000214C  4EBA FE88                jsr        [PC - 0x178 /* 00001FD6 */]
label00002150:
00002150  102E FEF6                move.b     D0, [A6 - 0x10A]
00002154  0A00 0001                xori.b     D0, 0x1
00002158  2207                     move.l     D1, D7
0000215A  8200                     or.b       D1, D0
0000215C  6708                     beq        +0xA /* 00002166 */
0000215E  3F14                     move.w     -[A7], [A4]
00002160  2F0E                     move.l     -[A7], A6
00002162  4EBA FEA8                jsr        [PC - 0x158 /* 0000200C */]
label00002166:
00002166  4CDF 10C0                movem.l    D6,D7,A4, [A7]+
0000216A  4E5E                     unlink     A6
0000216C  205F                     movea.l    A0, [A7]+
0000216E  DEFC 000E                add.w      A7, 0xE
00002172  4ED0                     jmp        [A0]
export_218:
fn00002174:
00002174  4E56 FFFC                link       A6, -0x0004
00002178  102D DC2F                move.b     D0, [A5 - 0x23D1]
0000217C  6708                     beq        +0xA /* 00002186 */
0000217E  7000                     moveq.l    D0, 0x00
00002180  2B40 DBF8                move.l     [A5 - 0x2408], D0
00002184  6010                     bra        +0x12 /* 00002196 */
label00002186:
00002186  42A7                     clr.l      -[A7]
00002188  486D ED82                pea.l      [A5 - 0x127E]
0000218C  486D ED82                pea.l      [A5 - 0x127E]
00002190  A9D2                     syscall    TENew
00002192  2B5F DBF8                move.l     [A5 - 0x2408], [A7]+
label00002196:
00002196  4AAD DBF8                tst.l      [A5 - 0x2408]
0000219A  660E                     bne        +0x10 /* 000021AA */
0000219C  422E 0008                clr.b      [A6 + 0x8]
000021A0  3F3C 0010                move.w     -[A7], 0x10
000021A4  4EBA 0F6E                jsr        [PC + 0xF6E /* 00003114 */]
000021A8  6014                     bra        +0x16 /* 000021BE */
label000021AA:
000021AA  1D7C 0001 0008           move.b     [A6 + 0x8], 0x1
000021B0  41ED 19EA                lea.l      A0, [A5 + 0x19EA /* export_825, CODE:16 @ 00001240 */]
000021B4  226D DBF8                movea.l    A1, [A5 - 0x2408]
000021B8  2251                     movea.l    A1, [A1]
000021BA  2348 0026                move.l     [A1 + 0x26], A0
label000021BE:
000021BE  4E5E                     unlink     A6
000021C0  4E75                     rts
export_219:
fn000021C2:
000021C2  4E56 FBE8                link       A6, -0x0418
000021C6  2F0C                     move.l     -[A7], A4
000021C8  206E 0014                movea.l    A0, [A6 + 0x14]
000021CC  43EE FF00                lea.l      A1, [A6 - 0x100]
000021D0  703F                     moveq.l    D0, 0x3F
label000021D2:
000021D2  22D8                     move.l     [A1]+, [A0]+
000021D4  51C8 FFFC                dbf        D0, -0x6 /* 000021D2 */
000021D8  206E 0010                movea.l    A0, [A6 + 0x10]
000021DC  43EE FE00                lea.l      A1, [A6 - 0x200]
000021E0  703F                     moveq.l    D0, 0x3F
label000021E2:
000021E2  22D8                     move.l     [A1]+, [A0]+
000021E4  51C8 FFFC                dbf        D0, -0x6 /* 000021E2 */
000021E8  206E 000C                movea.l    A0, [A6 + 0xC]
000021EC  43EE FD00                lea.l      A1, [A6 - 0x300]
000021F0  703F                     moveq.l    D0, 0x3F
label000021F2:
000021F2  22D8                     move.l     [A1]+, [A0]+
000021F4  51C8 FFFC                dbf        D0, -0x6 /* 000021F2 */
000021F8  206E 0008                movea.l    A0, [A6 + 0x8]
000021FC  43EE FC00                lea.l      A1, [A6 - 0x400]
00002200  703F                     moveq.l    D0, 0x3F
label00002202:
00002202  22D8                     move.l     [A1]+, [A0]+
00002204  51C8 FFFC                dbf        D0, -0x6 /* 00002202 */
00002208  486E FBF8                pea.l      [A6 - 0x408]
0000220C  A874                     syscall    GetPort
0000220E  486E FF00                pea.l      [A6 - 0x100]
00002212  486E FE00                pea.l      [A6 - 0x200]
00002216  486E FD00                pea.l      [A6 - 0x300]
0000221A  486E FC00                pea.l      [A6 - 0x400]
0000221E  A98B                     syscall    ParamText
00002220  4EAD 1862                jsr        [A5 + 0x1862 /* export_776, CODE:16 @ 00000474 */]
00002224  42A7                     clr.l      -[A7]
00002226  3F3C 006B                move.w     -[A7], 0x6B /* 'k' */
0000222A  42A7                     clr.l      -[A7]
0000222C  70FF                     moveq.l    D0, 0xFFFFFFFF
0000222E  2F00                     move.l     -[A7], D0
00002230  A97C                     syscall    GetNewDialog
00002232  285F                     movea.l    A4, [A7]+
00002234  2F0C                     move.l     -[A7], A4
00002236  4EAD 182A                jsr        [A5 + 0x182A /* export_769, CODE:16 @ 000002AC */]
0000223A  2F0C                     move.l     -[A7], A4
0000223C  3F3C 0001                move.w     -[A7], 0x1
00002240  486E FBF6                pea.l      [A6 - 0x40A]
00002244  486E FBF0                pea.l      [A6 - 0x410]
00002248  486E FBE8                pea.l      [A6 - 0x418]
0000224C  A98D                     syscall    GetDialogItem/GetDItem
0000224E  486E FBE8                pea.l      [A6 - 0x418]
00002252  2F3C FFFC FFFC           move.l     -[A7], 0xFFFCFFFC
00002258  A8A9                     syscall    InsetRect
0000225A  2F0C                     move.l     -[A7], A4
0000225C  A915                     syscall    ShowWindow
0000225E  2F0C                     move.l     -[A7], A4
00002260  A873                     syscall    SetPort
00002262  2F3C 0003 0003           move.l     -[A7], 0x30003
00002268  A89B                     syscall    PenSize
0000226A  486E FBE8                pea.l      [A6 - 0x418]
0000226E  2F3C 000F 000F           move.l     -[A7], 0xF000F
00002274  A8B0                     syscall    FrameRoundRect
00002276  A89E                     syscall    PenNormal
00002278  2F0C                     move.l     -[A7], A4
0000227A  A981                     syscall    DrawDialog
0000227C  486C 0010                pea.l      [A4 + 0x10]
00002280  A92A                     syscall    ValidRect
00002282  41ED E2F2                lea.l      A0, [A5 - 0x1D0E]
00002286  43ED ED82                lea.l      A1, [A5 - 0x127E]
0000228A  20D9                     move.l     [A0]+, [A1]+
0000228C  20D9                     move.l     [A0]+, [A1]+
0000228E  4EBA 01FE                jsr        [PC + 0x1FE /* 0000248E */]
label00002292:
00002292  42A7                     clr.l      -[A7]
00002294  486E FBF4                pea.l      [A6 - 0x40C]
00002298  A991                     syscall    ModalDialog
0000229A  7001                     moveq.l    D0, 0x01
0000229C  B06E FBF4                cmp.w      D0, [A6 - 0x40C]
000022A0  66F0                     bne        -0xE /* 00002292 */
000022A2  2F0C                     move.l     -[A7], A4
000022A4  4EAD 201A                jsr        [A5 + 0x201A /* export_1023, CODE:20 @ 000002FA */]
000022A8  2F2E FBF8                move.l     -[A7], [A6 - 0x408]
000022AC  A873                     syscall    SetPort
000022AE  41ED E2F2                lea.l      A0, [A5 - 0x1D0E]
000022B2  43ED ED82                lea.l      A1, [A5 - 0x127E]
000022B6  20D9                     move.l     [A0]+, [A1]+
000022B8  20D9                     move.l     [A0]+, [A1]+
000022BA  4EBA 01D2                jsr        [PC + 0x1D2 /* 0000248E */]
000022BE  285F                     movea.l    A4, [A7]+
000022C0  4E5E                     unlink     A6
000022C2  205F                     movea.l    A0, [A7]+
000022C4  DEFC 0010                add.w      A7, 0x10
000022C8  4ED0                     jmp        [A0]
fn000022CA:
000022CA  4E56 FFFE                link       A6, -0x0002
000022CE  2F07                     move.l     -[A7], D7
000022D0  302E 0008                move.w     D0, [A6 + 0x8]
000022D4  48C0                     ext.l      D0
000022D6  81FC 0008                divs.w     D0, 0x8
000022DA  3E00                     move.w     D7, D0
000022DC  302E 0008                move.w     D0, [A6 + 0x8]
000022E0  48C0                     ext.l      D0
000022E2  81FC 0008                divs.w     D0, 0x8
000022E6  4840                     swap.w     D0
000022E8  4A40                     tst.w      D0
000022EA  6702                     beq        +0x4 /* 000022EE */
000022EC  5247                     addq.w     D7, 1
label000022EE:
000022EE  3007                     move.w     D0, D7
000022F0  48C0                     ext.l      D0
000022F2  81FC 0002                divs.w     D0, 0x2
000022F6  4840                     swap.w     D0
000022F8  4A40                     tst.w      D0
000022FA  D047                     add.w      D0, D7
000022FC  3D40 000A                move.w     [A6 + 0xA], D0
00002300  2E1F                     move.l     D7, [A7]+
00002302  4E5E                     unlink     A6
00002304  205F                     movea.l    A0, [A7]+
00002306  544F                     addq.w     A7, 2
00002308  4ED0                     jmp        [A0]
export_220:
fn0000230A:
0000230A  4E56 0000                link       A6, 0
0000230E  1F3C 0001                move.b     -[A7], 0x1
00002312  A834                     syscall    SetFScaleDisable
00002314  486D ED82                pea.l      [A5 - 0x127E]
00002318  4EAD 16D2                jsr        [A5 + 0x16D2 /* export_726, CODE:15 @ 0000402E */]
0000231C  4267                     clr.w      -[A7]
0000231E  4EBA F59E                jsr        [PC - 0xA62 /* 000018BE */]
00002322  A834                     syscall    SetFScaleDisable
00002324  4E5E                     unlink     A6
00002326  4E75                     rts
export_221:
fn00002328:
00002328  4E56 FF00                link       A6, -0x0100
0000232C  486E FF00                pea.l      [A6 - 0x100]
00002330  3F3C 0065                move.w     -[A7], 0x65 /* 'e' */
00002334  3F2E 0008                move.w     -[A7], [A6 + 0x8]
00002338  4EAD 048A                jsr        [A5 + 0x48A /* export_141, CODE:1 @ 00004E6C */]
0000233C  206E 000A                movea.l    A0, [A6 + 0xA]
00002340  43EE FF00                lea.l      A1, [A6 - 0x100]
00002344  703F                     moveq.l    D0, 0x3F
label00002346:
00002346  20D9                     move.l     [A0]+, [A1]+
00002348  51C8 FFFC                dbf        D0, -0x6 /* 00002346 */
0000234C  4E5E                     unlink     A6
0000234E  205F                     movea.l    A0, [A7]+
00002350  544F                     addq.w     A7, 2
00002352  4ED0                     jmp        [A0]
export_222:
00002354  4E56 FFE8                link       A6, -0x0018
00002358  2F0C                     move.l     -[A7], A4
0000235A  2F2E 0008                move.l     -[A7], [A6 + 0x8]
0000235E  3F2E 000E                move.w     -[A7], [A6 + 0xE]
00002362  486E FFFE                pea.l      [A6 - 0x2]
00002366  486E FFFA                pea.l      [A6 - 0x6]
0000236A  486E FFF2                pea.l      [A6 - 0xE]
0000236E  A98D                     syscall    GetDialogItem/GetDItem
00002370  0C6E 00FF 000C           cmpi.w     [A6 + 0xC], 0xFF
00002376  6648                     bne        +0x4A /* 000023C0 */
00002378  486E FFE8                pea.l      [A6 - 0x18]
0000237C  A874                     syscall    GetPort
0000237E  2F2E 0008                move.l     -[A7], [A6 + 0x8]
00002382  A873                     syscall    SetPort
00002384  42A7                     clr.l      -[A7]
00002386  A8D8                     syscall    NewRgn
00002388  285F                     movea.l    A4, [A7]+
0000238A  2F0C                     move.l     -[A7], A4
0000238C  A87A                     syscall    GetClip
0000238E  486E FFF2                pea.l      [A6 - 0xE]
00002392  4EBA EC76                jsr        [PC - 0x138A /* 0000100A */]
00002396  486E FFF2                pea.l      [A6 - 0xE]
0000239A  42A7                     clr.l      -[A7]
0000239C  42A7                     clr.l      -[A7]
0000239E  A8A7                     syscall    SetRect
000023A0  486E FFF2                pea.l      [A6 - 0xE]
000023A4  A87B                     syscall    ClipRect
000023A6  2F2E FFFA                move.l     -[A7], [A6 - 0x6]
000023AA  3F3C 00FF                move.w     -[A7], 0xFF
000023AE  A95D                     syscall    HiliteControl
000023B0  2F0C                     move.l     -[A7], A4
000023B2  A879                     syscall    SetClip
000023B4  2F0C                     move.l     -[A7], A4
000023B6  A8D9                     syscall    DisposRgn/DisposeRgn
000023B8  2F2E FFE8                move.l     -[A7], [A6 - 0x18]
000023BC  A873                     syscall    SetPort
000023BE  600A                     bra        +0xC /* 000023CA */
label000023C0:
000023C0  2F2E FFFA                move.l     -[A7], [A6 - 0x6]
000023C4  3F2E 000C                move.w     -[A7], [A6 + 0xC]
000023C8  A95D                     syscall    HiliteControl
label000023CA:
000023CA  285F                     movea.l    A4, [A7]+
000023CC  4E5E                     unlink     A6
000023CE  205F                     movea.l    A0, [A7]+
000023D0  504F                     addq.w     A7, 8
000023D2  4ED0                     jmp        [A0]
export_223:
000023D4  4E56 FFF6                link       A6, -0x000A
000023D8  48E7 0108                movem.l    -[A7], D7,A4
000023DC  4EBA 266A                jsr        [PC + 0x266A /* 00004A48 */]
000023E0  486E FFFC                pea.l      [A6 - 0x4]
000023E4  A874                     syscall    GetPort
000023E6  286D D732                movea.l    A4, [A5 - 0x28CE]
000023EA  4267                     clr.w      -[A7]
000023EC  206D ED96                movea.l    A0, [A5 - 0x126A]
000023F0  2F28 007A                move.l     -[A7], [A0 + 0x7A]
000023F4  A8E2                     syscall    EmptyRgn
000023F6  1E1F                     move.b     D7, [A7]+
000023F8  0A07 0001                xori.b     D7, 0x1
000023FC  4267                     clr.w      -[A7]
000023FE  2F2C 007A                move.l     -[A7], [A4 + 0x7A]
00002402  A8E2                     syscall    EmptyRgn
00002404  101F                     move.b     D0, [A7]+
00002406  0A00 0001                xori.b     D0, 0x1
0000240A  8007                     or.b       D0, D7
0000240C  6716                     beq        +0x18 /* 00002424 */
0000240E  2F2D D732                move.l     -[A7], [A5 - 0x28CE]
00002412  A873                     syscall    SetPort
00002414  2F2D D732                move.l     -[A7], [A5 - 0x28CE]
00002418  A981                     syscall    DrawDialog
0000241A  206D D732                movea.l    A0, [A5 - 0x28CE]
0000241E  4868 0010                pea.l      [A0 + 0x10]
00002422  A92A                     syscall    ValidRect
label00002424:
00002424  1007                     move.b     D0, D7
00002426  670C                     beq        +0xE /* 00002434 */
00002428  41ED E2F2                lea.l      A0, [A5 - 0x1D0E]
0000242C  43ED ED82                lea.l      A1, [A5 - 0x127E]
00002430  20D9                     move.l     [A0]+, [A1]+
00002432  20D9                     move.l     [A0]+, [A1]+
label00002434:
00002434  4EBA 0058                jsr        [PC + 0x58 /* 0000248E */]
00002438  1007                     move.b     D0, D7
0000243A  6708                     beq        +0xA /* 00002444 */
0000243C  1F3C 0001                move.b     -[A7], 0x1
00002440  4EBA 0066                jsr        [PC + 0x66 /* 000024A8 */]
label00002444:
00002444  2F2E FFFC                move.l     -[A7], [A6 - 0x4]
00002448  A873                     syscall    SetPort
0000244A  4CDF 1080                movem.l    D7,A4, [A7]+
0000244E  4E5E                     unlink     A6
00002450  4E75                     rts
export_224:
fn00002452:
00002452  4E56 FFFE                link       A6, -0x0002
00002456  2F07                     move.l     -[A7], D7
00002458  4267                     clr.w      -[A7]
0000245A  4EAD 017A                jsr        [A5 + 0x17A /* export_43, CODE:1 @ 00003E38 */]
0000245E  3E1F                     move.w     D7, [A7]+
00002460  4A47                     tst.w      D7
00002462  6704                     beq        +0x6 /* 00002468 */
00002464  3B47 DC30                move.w     [A5 - 0x23D0], D7
label00002468:
00002468  3D6D DC30 0008           move.w     [A6 + 0x8], [A5 - 0x23D0]
0000246E  2E1F                     move.l     D7, [A7]+
00002470  4E5E                     unlink     A6
00002472  4E75                     rts
export_225:
fn00002474:
00002474  4E56 0000                link       A6, 0
00002478  3F2E 0008                move.w     -[A7], [A6 + 0x8]
0000247C  4EAD 0182                jsr        [A5 + 0x182 /* export_44, CODE:1 @ 00003E46 */]
00002480  3B6E 0008 DC30           move.w     [A5 - 0x23D0], [A6 + 0x8]
00002486  4E5E                     unlink     A6
00002488  205F                     movea.l    A0, [A7]+
0000248A  544F                     addq.w     A7, 2
0000248C  4ED0                     jmp        [A0]
export_226:
fn0000248E:
0000248E  4E56 0000                link       A6, 0
00002492  1F3C 0001                move.b     -[A7], 0x1
00002496  A834                     syscall    SetFScaleDisable
00002498  4EAD 22A2                jsr        [A5 + 0x22A2 /* export_1104, CODE:20 @ 00005D82 */]
0000249C  4267                     clr.w      -[A7]
0000249E  4EBA F41E                jsr        [PC - 0xBE2 /* 000018BE */]
000024A2  A834                     syscall    SetFScaleDisable
000024A4  4E5E                     unlink     A6
000024A6  4E75                     rts
export_227:
fn000024A8:
000024A8  4E56 FFF0                link       A6, -0x0010
000024AC  48E7 0018                movem.l    -[A7], A3,A4
000024B0  486E FFFC                pea.l      [A6 - 0x4]
000024B4  A874                     syscall    GetPort
000024B6  1B7C 0001 EFE2           move.b     [A5 - 0x101E], 0x1
000024BC  4267                     clr.w      -[A7]
000024BE  4EBA 25D0                jsr        [PC + 0x25D0 /* 00004A90 */]
000024C2  102E 0008                move.b     D0, [A6 + 0x8]
000024C6  C01F                     and.b      D0, [A7]+
000024C8  802D DC2A                or.b       D0, [A5 - 0x23D6]
000024CC  6710                     beq        +0x12 /* 000024DE */
000024CE  1B7C 0001 EFE1           move.b     [A5 - 0x101F], 0x1
000024D4  4EBA FE34                jsr        [PC - 0x1CC /* 0000230A */]
000024D8  422D EFE1                clr.b      [A5 - 0x101F]
000024DC  6004                     bra        +0x6 /* 000024E2 */
label000024DE:
000024DE  4EBA FE2A                jsr        [PC - 0x1D6 /* 0000230A */]
label000024E2:
000024E2  4267                     clr.w      -[A7]
000024E4  4EBA 25AA                jsr        [PC + 0x25AA /* 00004A90 */]
000024E8  102E 0008                move.b     D0, [A6 + 0x8]
000024EC  C01F                     and.b      D0, [A7]+
000024EE  6700 0082                beq        +0x84 /* 00002572 */
000024F2  486D ED44                pea.l      [A5 - 0x12BC]
000024F6  4EBA 2AB0                jsr        [PC + 0x2AB0 /* 00004FA8 */]
000024FA  42A7                     clr.l      -[A7]
000024FC  2F2D F62A                move.l     -[A7], [A5 - 0x9D6]
00002500  4EAD 1F7A                jsr        [A5 + 0x1F7A /* export_1003, CODE:19 @ 00001744 */]
00002504  285F                     movea.l    A4, [A7]+
00002506  200C                     move.l     D0, A4
00002508  6606                     bne        +0x8 /* 00002510 */
0000250A  4EBA 01F6                jsr        [PC + 0x1F6 /* 00002702 */]
0000250E  6062                     bra        +0x64 /* 00002572 */
label00002510:
00002510  42A7                     clr.l      -[A7]
00002512  2054                     movea.l    A0, [A4]
00002514  2F28 0020                move.l     -[A7], [A0 + 0x20]
00002518  4EAD 1F6A                jsr        [A5 + 0x1F6A /* export_1001, CODE:19 @ 000016EC */]
0000251C  265F                     movea.l    A3, [A7]+
0000251E  200B                     move.l     D0, A3
00002520  6606                     bne        +0x8 /* 00002528 */
00002522  4EBA 01DE                jsr        [PC + 0x1DE /* 00002702 */]
00002526  6040                     bra        +0x42 /* 00002568 */
label00002528:
00002528  426E FFF2                clr.w      [A6 - 0xE]
0000252C  426E FFF0                clr.w      [A6 - 0x10]
00002530  41ED E2F2                lea.l      A0, [A5 - 0x1D0E]
00002534  43ED ED82                lea.l      A1, [A5 - 0x127E]
00002538  20D9                     move.l     [A0]+, [A1]+
0000253A  20D9                     move.l     [A0]+, [A1]+
0000253C  486D EE38                pea.l      [A5 - 0x11C8]
00002540  A873                     syscall    SetPort
00002542  1F3C 0001                move.b     -[A7], 0x1
00002546  A834                     syscall    SetFScaleDisable
00002548  2F0C                     move.l     -[A7], A4
0000254A  2F0B                     move.l     -[A7], A3
0000254C  2F2E FFF0                move.l     -[A7], [A6 - 0x10]
00002550  4EBA 01D2                jsr        [PC + 0x1D2 /* 00002724 */]
00002554  4267                     clr.w      -[A7]
00002556  4EBA F366                jsr        [PC - 0xC9A /* 000018BE */]
0000255A  A834                     syscall    SetFScaleDisable
0000255C  2054                     movea.l    A0, [A4]
0000255E  2F28 0020                move.l     -[A7], [A0 + 0x20]
00002562  4267                     clr.w      -[A7]
00002564  4EAD 1EE2                jsr        [A5 + 0x1EE2 /* export_984, CODE:19 @ 00000414 */]
label00002568:
00002568  2F2D F62A                move.l     -[A7], [A5 - 0x9D6]
0000256C  4267                     clr.w      -[A7]
0000256E  4EAD 1EF2                jsr        [A5 + 0x1EF2 /* export_986, CODE:19 @ 00000450 */]
label00002572:
00002572  2F2E FFFC                move.l     -[A7], [A6 - 0x4]
00002576  A873                     syscall    SetPort
00002578  4CDF 1800                movem.l    A3,A4, [A7]+
0000257C  4E5E                     unlink     A6
0000257E  205F                     movea.l    A0, [A7]+
00002580  544F                     addq.w     A7, 2
00002582  4ED0                     jmp        [A0]
export_228:
fn00002584:
00002584  4E56 FFFC                link       A6, -0x0004
00002588  4EBA F532                jsr        [PC - 0xACE /* 00001ABC */]
0000258C  42A7                     clr.l      -[A7]
0000258E  2F3A 001C                move.l     -[A7], [PC + 0x1C /* 000025AC, value 0x53545223 'STR#' */]
00002592  3F3C 0065                move.w     -[A7], 0x65 /* 'e' */
00002596  A9A0                     syscall    GetResource
00002598  2D5F FFFC                move.l     [A6 - 0x4], [A7]+
0000259C  2F2E FFFC                move.l     -[A7], [A6 - 0x4]
000025A0  A9A2                     syscall    LoadResource
000025A2  1B7C 0001 DC2D           move.b     [A5 - 0x23D3], 0x1
000025A8  4E5E                     unlink     A6
000025AA  4E75                     rts
000025AC  5354                     subq.w     [A4], 1
000025AE  5223                     addq.b     -[A3], 1
fn000025B0:
000025B0  4E56 FFF4                link       A6, -0x000C
000025B4  48E7 0300                movem.l    -[A7], D6,D7
000025B8  4267                     clr.w      -[A7]
000025BA  4EBA FBB8                jsr        [PC - 0x448 /* 00002174 */]
000025BE  101F                     move.b     D0, [A7]+
000025C0  6706                     beq        +0x8 /* 000025C8 */
000025C2  422D D7C0                clr.b      [A5 - 0x2840]
000025C6  6014                     bra        +0x16 /* 000025DC */
label000025C8:
000025C8  4267                     clr.w      -[A7]
000025CA  4EBA FEA8                jsr        [PC - 0x158 /* 00002474 */]
000025CE  422D DC51                clr.b      [A5 - 0x23AF]
000025D2  1B7C 0001 D7C0           move.b     [A5 - 0x2840], 0x1
000025D8  6000 00AE                bra        +0xB0 /* 00002688 */
label000025DC:
000025DC  422D D9F8                clr.b      [A5 - 0x2608]
000025E0  486E FFF6                pea.l      [A6 - 0xA]
000025E4  A874                     syscall    GetPort
000025E6  102E 0008                move.b     D0, [A6 + 0x8]
000025EA  6718                     beq        +0x1A /* 00002604 */
000025EC  4267                     clr.w      -[A7]
000025EE  2F2D DBFC                move.l     -[A7], [A5 - 0x2404]
000025F2  486D D9D8                pea.l      [A5 - 0x2628]
000025F6  4EAD 0842                jsr        [A5 + 0x842 /* export_260, CODE:5 @ 000048EA */]
000025FA  1E1F                     move.b     D7, [A7]+
000025FC  486D 0842                pea.l      [A5 + 0x842 /* export_260, CODE:5 @ 000048EA */]
00002600  A9F1                     syscall    UnloadSeg
00002602  6020                     bra        +0x22 /* 00002624 */
label00002604:
00002604  2F2D DBFC                move.l     -[A7], [A5 - 0x2404]
00002608  3F3C 0001                move.w     -[A7], 0x1
0000260C  4EBA 1B40                jsr        [PC + 0x1B40 /* 0000414E */]
00002610  3B7C 0001 DC4E           move.w     [A5 - 0x23B2], 0x1
00002616  4267                     clr.w      -[A7]
00002618  2F2D DBFC                move.l     -[A7], [A5 - 0x2404]
0000261C  4EAD 015A                jsr        [A5 + 0x15A /* export_39, CODE:1 @ 00003E00 */]
00002620  1E1F                     move.b     D7, [A7]+
00002622  7E01                     moveq.l    D7, 0x01
label00002624:
00002624  1007                     move.b     D0, D7
00002626  6752                     beq        +0x54 /* 0000267A */
00002628  4EBA E9CE                jsr        [PC - 0x1632 /* 00000FF8 */]
0000262C  4EBA 1FD8                jsr        [PC + 0x1FD8 /* 00004606 */]
00002630  4267                     clr.w      -[A7]
00002632  4EBA FE1E                jsr        [PC - 0x1E2 /* 00002452 */]
00002636  4A5F                     tst.w      [A7]+
00002638  6608                     bne        +0xA /* 00002642 */
0000263A  1B7C 0001 DC51           move.b     [A5 - 0x23AF], 0x1
00002640  6040                     bra        +0x42 /* 00002682 */
label00002642:
00002642  4EBA 18AA                jsr        [PC + 0x18AA /* 00003EEE */]
00002646  2F2D D736                move.l     -[A7], [A5 - 0x28CA]
0000264A  4EAD 0132                jsr        [A5 + 0x132 /* export_34, CODE:1 @ 00003DBA */]
0000264E  4267                     clr.w      -[A7]
00002650  A994                     syscall    CurResFile
00002652  3C1F                     move.w     D6, [A7]+
00002654  4EAD 0192                jsr        [A5 + 0x192 /* export_46, CODE:1 @ 00003E62 */]
00002658  4EAD 0172                jsr        [A5 + 0x172 /* export_42, CODE:1 @ 00003E2A */]
0000265C  3F06                     move.w     -[A7], D6
0000265E  A998                     syscall    UseResFile
00002660  2F2D D732                move.l     -[A7], [A5 - 0x28CE]
00002664  4EAD 201A                jsr        [A5 + 0x201A /* export_1023, CODE:20 @ 000002FA */]
00002668  4267                     clr.w      -[A7]
0000266A  4EBA FE08                jsr        [PC - 0x1F8 /* 00002474 */]
0000266E  422D DC51                clr.b      [A5 - 0x23AF]
00002672  1B7C 0001 D7C0           move.b     [A5 - 0x2840], 0x1
00002678  6008                     bra        +0xA /* 00002682 */
label0000267A:
0000267A  422D DC51                clr.b      [A5 - 0x23AF]
0000267E  4EAD 192A                jsr        [A5 + 0x192A /* export_801, CODE:16 @ 00000C2C */]
label00002682:
00002682  2F2E FFF6                move.l     -[A7], [A6 - 0xA]
00002686  A873                     syscall    SetPort
label00002688:
00002688  4CDF 00C0                movem.l    D6,D7, [A7]+
0000268C  4E5E                     unlink     A6
0000268E  205F                     movea.l    A0, [A7]+
00002690  544F                     addq.w     A7, 2
00002692  4ED0                     jmp        [A0]
fn00002694:
00002694  4E56 0000                link       A6, 0
00002698  2F0C                     move.l     -[A7], A4
0000269A  206D DBFC                movea.l    A0, [A5 - 0x2404]
0000269E  2050                     movea.l    A0, [A0]
000026A0  49E8 0008                lea.l      A4, [A0 + 0x8]
000026A4  302C 0004                move.w     D0, [A4 + 0x4]
000026A8  9054                     sub.w      D0, [A4]
000026AA  322C 0006                move.w     D1, [A4 + 0x6]
000026AE  926C 0002                sub.w      D1, [A4 + 0x2]
000026B2  D240                     add.w      D1, D0
000026B4  3D41 0008                move.w     [A6 + 0x8], D1
000026B8  285F                     movea.l    A4, [A7]+
000026BA  4E5E                     unlink     A6
000026BC  4E75                     rts
export_229:
000026BE  4E56 0000                link       A6, 0
000026C2  206E 000C                movea.l    A0, [A6 + 0xC]
000026C6  4AA8 0068                tst.l      [A0 + 0x68]
000026CA  6610                     bne        +0x12 /* 000026DC */
000026CC  2F2E 0008                move.l     -[A7], [A6 + 0x8]
000026D0  A8EA                     syscall    SetStdProcs
000026D2  206E 000C                movea.l    A0, [A6 + 0xC]
000026D6  216E 0008 0068           move.l     [A0 + 0x68], [A6 + 0x8]
label000026DC:
000026DC  41FA 227C                lea.l      A0, [PC + 0x227C /* 0000495A, value 0x4E56FFF0 */]
000026E0  226E 000C                movea.l    A1, [A6 + 0xC]
000026E4  2269 0068                movea.l    A1, [A1 + 0x68]
000026E8  2348 0028                move.l     [A1 + 0x28], A0
000026EC  41FA 20A8                lea.l      A0, [PC + 0x20A8 /* 00004796, value 0x4E56FFD4 */]
000026F0  226E 000C                movea.l    A1, [A6 + 0xC]
000026F4  2269 0068                movea.l    A1, [A1 + 0x68]
000026F8  2288                     move.l     [A1], A0
000026FA  4E5E                     unlink     A6
000026FC  205F                     movea.l    A0, [A7]+
000026FE  504F                     addq.w     A7, 8
00002700  4ED0                     jmp        [A0]
export_230:
fn00002702:
00002702  4E56 0000                link       A6, 0
00002706  3F3C FF94                move.w     -[A7], 0xFF94
0000270A  4EBA FD68                jsr        [PC - 0x298 /* 00002474 */]
0000270E  4E5E                     unlink     A6
00002710  4E75                     rts
export_231:
fn00002712:
00002712  4E56 0000                link       A6, 0
00002716  4267                     clr.w      -[A7]
00002718  4EBA F5E0                jsr        [PC - 0xA20 /* 00001CFA */]
0000271C  1D5F 0008                move.b     [A6 + 0x8], [A7]+
00002720  4E5E                     unlink     A6
00002722  4E75                     rts
export_232:
fn00002724:
00002724  4E56 FFAE                link       A6, -0x0052
00002728  48E7 0F18                movem.l    -[A7], D4,D5,D6,D7,A3,A4
0000272C  266E 0010                movea.l    A3, [A6 + 0x10]
00002730  2A2E 000C                move.l     D5, [A6 + 0xC]
00002734  2F05                     move.l     -[A7], D5
00002736  4EAD 01DA                jsr        [A5 + 0x1DA /* export_55, CODE:1 @ 000043FE */]
0000273A  2F0B                     move.l     -[A7], A3
0000273C  4EAD 01DA                jsr        [A5 + 0x1DA /* export_55, CODE:1 @ 000043FE */]
00002740  2F05                     move.l     -[A7], D5
00002742  486E FFB3                pea.l      [A6 - 0x4D]
00002746  4EAD 1922                jsr        [A5 + 0x1922 /* export_800, CODE:16 @ 00000C02 */]
0000274A  2F0B                     move.l     -[A7], A3
0000274C  486E FFB2                pea.l      [A6 - 0x4E]
00002750  4EAD 1922                jsr        [A5 + 0x1922 /* export_800, CODE:16 @ 00000C02 */]
00002754  486E FFF2                pea.l      [A6 - 0xE]
00002758  A874                     syscall    GetPort
0000275A  206E FFF2                movea.l    A0, [A6 - 0xE]
0000275E  2828 0068                move.l     D4, [A0 + 0x68]
00002762  6612                     bne        +0x14 /* 00002776 */
00002764  486E FFB6                pea.l      [A6 - 0x4A]
00002768  A8EA                     syscall    SetStdProcs
0000276A  41EE FFB6                lea.l      A0, [A6 - 0x4A]
0000276E  226E FFF2                movea.l    A1, [A6 - 0xE]
00002772  2348 0068                move.l     [A1 + 0x68], A0
label00002776:
00002776  206E FFF2                movea.l    A0, [A6 - 0xE]
0000277A  2068 0068                movea.l    A0, [A0 + 0x68]
0000277E  2D68 0008 FFEA           move.l     [A6 - 0x16], [A0 + 0x8]
00002784  41FA F50E                lea.l      A0, [PC - 0xAF2 /* 00001C94, value 0x4E56FFF8 */]
00002788  226E FFF2                movea.l    A1, [A6 - 0xE]
0000278C  2269 0068                movea.l    A1, [A1 + 0x68]
00002790  2348 0008                move.l     [A1 + 0x8], A0
00002794  1B7C 0001 EFE1           move.b     [A5 - 0x101F], 0x1
0000279A  2045                     movea.l    A0, D5
0000279C  2850                     movea.l    A4, [A0]
0000279E  702E                     moveq.l    D0, 0x2E
000027A0  D9C0                     add.l      A4, D0
000027A2  2045                     movea.l    A0, D5
000027A4  2050                     movea.l    A0, [A0]
000027A6  3D68 0020 FFB0           move.w     [A6 - 0x50], [A0 + 0x20]
000027AC  7E01                     moveq.l    D7, 0x01
000027AE  6050                     bra        +0x52 /* 00002800 */
label000027B0:
000027B0  7002                     moveq.l    D0, 0x02
000027B2  B02C 0004                cmp.b      D0, [A4 + 0x4]
000027B6  57C0                     seq        D0
000027B8  4A2C 0005                tst.b      [A4 + 0x5]
000027BC  5CC1                     sge        D1
000027BE  C001                     and.b      D0, D1
000027C0  6734                     beq        +0x36 /* 000027F6 */
000027C2  4267                     clr.w      -[A7]
000027C4  2053                     movea.l    A0, [A3]
000027C6  2F28 0020                move.l     -[A7], [A0 + 0x20]
000027CA  3F2C 0002                move.w     -[A7], [A4 + 0x2]
000027CE  4EAD 171A                jsr        [A5 + 0x171A /* export_735, CODE:15 @ 00004892 */]
000027D2  101F                     move.b     D0, [A7]+
000027D4  6620                     bne        +0x22 /* 000027F6 */
000027D6  42A7                     clr.l      -[A7]
000027D8  2F0B                     move.l     -[A7], A3
000027DA  3F2C 0002                move.w     -[A7], [A4 + 0x2]
000027DE  4EAD 1C32                jsr        [A5 + 0x1C32 /* export_898, CODE:17 @ 00000A32 */]
000027E2  2C1F                     move.l     D6, [A7]+
000027E4  6710                     beq        +0x12 /* 000027F6 */
000027E6  2F0C                     move.l     -[A7], A4
000027E8  1F3C 0001                move.b     -[A7], 0x1
000027EC  2F06                     move.l     -[A7], D6
000027EE  2F2E 0008                move.l     -[A7], [A6 + 0x8]
000027F2  4EBA 00BA                jsr        [PC + 0xBA /* 000028AE */]
label000027F6:
000027F6  3014                     move.w     D0, [A4]
000027F8  48C0                     ext.l      D0
000027FA  D9C0                     add.l      A4, D0
000027FC  5247                     addq.w     D7, 1
000027FE  6906                     bvs        +0x8 /* 00002806 */
label00002800:
00002800  BE6E FFB0                cmp.w      D7, [A6 - 0x50]
00002804  6FAA                     ble        -0x54 /* 000027B0 */
label00002806:
00002806  2853                     movea.l    A4, [A3]
00002808  7032                     moveq.l    D0, 0x32
0000280A  D9C0                     add.l      A4, D0
0000280C  2053                     movea.l    A0, [A3]
0000280E  3D68 0024 FFAE           move.w     [A6 - 0x52], [A0 + 0x24]
00002814  7E01                     moveq.l    D7, 0x01
00002816  6050                     bra        +0x52 /* 00002868 */
label00002818:
00002818  7002                     moveq.l    D0, 0x02
0000281A  B02C 0004                cmp.b      D0, [A4 + 0x4]
0000281E  57C0                     seq        D0
00002820  4A2C 0005                tst.b      [A4 + 0x5]
00002824  5CC1                     sge        D1
00002826  C001                     and.b      D0, D1
00002828  6734                     beq        +0x36 /* 0000285E */
0000282A  4267                     clr.w      -[A7]
0000282C  2F2D F62A                move.l     -[A7], [A5 - 0x9D6]
00002830  3F2C 0002                move.w     -[A7], [A4 + 0x2]
00002834  4EAD 171A                jsr        [A5 + 0x171A /* export_735, CODE:15 @ 00004892 */]
00002838  101F                     move.b     D0, [A7]+
0000283A  6622                     bne        +0x24 /* 0000285E */
0000283C  42A7                     clr.l      -[A7]
0000283E  2F0B                     move.l     -[A7], A3
00002840  302C 0002                move.w     D0, [A4 + 0x2]
00002844  4440                     neg.w      D0
00002846  3F00                     move.w     -[A7], D0
00002848  4EAD 1C32                jsr        [A5 + 0x1C32 /* export_898, CODE:17 @ 00000A32 */]
0000284C  2C1F                     move.l     D6, [A7]+
0000284E  670E                     beq        +0x10 /* 0000285E */
00002850  2F0C                     move.l     -[A7], A4
00002852  4267                     clr.w      -[A7]
00002854  2F06                     move.l     -[A7], D6
00002856  2F2E 0008                move.l     -[A7], [A6 + 0x8]
0000285A  4EBA 0052                jsr        [PC + 0x52 /* 000028AE */]
label0000285E:
0000285E  3014                     move.w     D0, [A4]
00002860  48C0                     ext.l      D0
00002862  D9C0                     add.l      A4, D0
00002864  5247                     addq.w     D7, 1
00002866  6906                     bvs        +0x8 /* 0000286E */
label00002868:
00002868  BE6E FFAE                cmp.w      D7, [A6 - 0x52]
0000286C  6FAA                     ble        -0x54 /* 00002818 */
label0000286E:
0000286E  422D EFE1                clr.b      [A5 - 0x101F]
00002872  4EAD 2262                jsr        [A5 + 0x2262 /* export_1096, CODE:20 @ 0000535A */]
00002876  206E FFF2                movea.l    A0, [A6 - 0xE]
0000287A  2068 0068                movea.l    A0, [A0 + 0x68]
0000287E  216E FFEA 0008           move.l     [A0 + 0x8], [A6 - 0x16]
00002884  206E FFF2                movea.l    A0, [A6 - 0xE]
00002888  2144 0068                move.l     [A0 + 0x68], D4
0000288C  2F05                     move.l     -[A7], D5
0000288E  1F2E FFB3                move.b     -[A7], [A6 - 0x4D]
00002892  4EAD 03F2                jsr        [A5 + 0x3F2 /* export_122, CODE:1 @ 00004D00 */]
00002896  2F0B                     move.l     -[A7], A3
00002898  1F2E FFB2                move.b     -[A7], [A6 - 0x4E]
0000289C  4EAD 03F2                jsr        [A5 + 0x3F2 /* export_122, CODE:1 @ 00004D00 */]
000028A0  4CDF 18F0                movem.l    D4,D5,D6,D7,A3,A4, [A7]+
000028A4  4E5E                     unlink     A6
000028A6  205F                     movea.l    A0, [A7]+
000028A8  DEFC 000C                add.w      A7, 0xC
000028AC  4ED0                     jmp        [A0]
fn000028AE:
000028AE  4E56 FFE8                link       A6, -0x0018
000028B2  48E7 0018                movem.l    -[A7], A3,A4
000028B6  266E 0012                movea.l    A3, [A6 + 0x12]
000028BA  206E 000C                movea.l    A0, [A6 + 0xC]
000028BE  4A10                     tst.b      [A0]
000028C0  6604                     bne        +0x6 /* 000028C6 */
000028C2  6000 009E                bra        +0xA0 /* 00002962 */
label000028C6:
000028C6  2F0B                     move.l     -[A7], A3
000028C8  1F2E 0010                move.b     -[A7], [A6 + 0x10]
000028CC  486E FFF4                pea.l      [A6 - 0xC]
000028D0  486E FFEC                pea.l      [A6 - 0x14]
000028D4  4EAD 159A                jsr        [A5 + 0x159A /* export_687, CODE:15 @ 00000838 */]
000028D8  486E FFF4                pea.l      [A6 - 0xC]
000028DC  2F2E 0008                move.l     -[A7], [A6 + 0x8]
000028E0  A8A8                     syscall    OffsetRect
000028E2  486E FFEC                pea.l      [A6 - 0x14]
000028E6  2F2E 0008                move.l     -[A7], [A6 + 0x8]
000028EA  A8A8                     syscall    OffsetRect
000028EC  486E FFFC                pea.l      [A6 - 0x4]
000028F0  A874                     syscall    GetPort
000028F2  206D DBF8                movea.l    A0, [A5 - 0x2408]
000028F6  2850                     movea.l    A4, [A0]
000028F8  296E FFFC 0052           move.l     [A4 + 0x52], [A6 - 0x4]
000028FE  41EE FFF4                lea.l      A0, [A6 - 0xC]
00002902  224C                     movea.l    A1, A4
00002904  22D8                     move.l     [A1]+, [A0]+
00002906  22D8                     move.l     [A1]+, [A0]+
00002908  204C                     movea.l    A0, A4
0000290A  5088                     addq.l     A0, 8
0000290C  43EE FFEC                lea.l      A1, [A6 - 0x14]
00002910  20D9                     move.l     [A0]+, [A1]+
00002912  20D9                     move.l     [A0]+, [A1]+
00002914  396B 001C 0018           move.w     [A4 + 0x18], [A3 + 0x1C]
0000291A  302C 0018                move.w     D0, [A4 + 0x18]
0000291E  48C0                     ext.l      D0
00002920  81FC 0004                divs.w     D0, 0x4
00002924  322C 0018                move.w     D1, [A4 + 0x18]
00002928  9240                     sub.w      D1, D0
0000292A  3941 001A                move.w     [A4 + 0x1A], D1
0000292E  396B 0014 003A           move.w     [A4 + 0x3A], [A3 + 0x14]
00002934  396B 0016 004A           move.w     [A4 + 0x4A], [A3 + 0x16]
0000293A  196B 001A 004C           move.b     [A4 + 0x4C], [A3 + 0x1A]
00002940  397C 0001 004E           move.w     [A4 + 0x4E], 0x1
00002946  396B 0018 0050           move.w     [A4 + 0x50], [A3 + 0x18]
0000294C  2F2E 000C                move.l     -[A7], [A6 + 0xC]
00002950  2F2D DBF8                move.l     -[A7], [A5 - 0x2408]
00002954  4EAD 1662                jsr        [A5 + 0x1662 /* export_712, CODE:15 @ 00002D26 */]
00002958  486E FFF4                pea.l      [A6 - 0xC]
0000295C  2F2D DBF8                move.l     -[A7], [A5 - 0x2408]
00002960  A9D3                     syscall    TEUpdate
label00002962:
00002962  4CDF 1800                movem.l    A3,A4, [A7]+
00002966  4E5E                     unlink     A6
00002968  205F                     movea.l    A0, [A7]+
0000296A  DEFC 000E                add.w      A7, 0xE
0000296E  4ED0                     jmp        [A0]
fn00002970:
00002970  4E56 FE00                link       A6, -0x0200
00002974  4267                     clr.w      -[A7]
00002976  4EBA FADA                jsr        [PC - 0x526 /* 00002452 */]
0000297A  4A5F                     tst.w      [A7]+
0000297C  666E                     bne        +0x70 /* 000029EC */
0000297E  1D7C 0001 0008           move.b     [A6 + 0x8], 0x1
00002984  102D DC2E                move.b     D0, [A5 - 0x23D2]
00002988  6660                     bne        +0x62 /* 000029EA */
0000298A  422E 0008                clr.b      [A6 + 0x8]
0000298E  206D DBFC                movea.l    A0, [A5 - 0x2404]
00002992  2050                     movea.l    A0, [A0]
00002994  3028 0018                move.w     D0, [A0 + 0x18]
00002998  48C0                     ext.l      D0
0000299A  81FC 0100                divs.w     D0, 0x100
0000299E  5340                     subq.w     D0, 1
000029A0  6706                     beq        +0x8 /* 000029A8 */
000029A2  5540                     subq.w     D0, 2
000029A4  6720                     beq        +0x22 /* 000029C6 */
000029A6  603C                     bra        +0x3E /* 000029E4 */
label000029A8:
000029A8  486E FF00                pea.l      [A6 - 0x100]
000029AC  3F3C 0019                move.w     -[A7], 0x19
000029B0  4EBA F976                jsr        [PC - 0x68A /* 00002328 */]
000029B4  487A 0062                pea.l      [PC + 0x62 /* 00002A18, value 0x4E56 'NV', cstring "" */]
000029B8  487A 005E                pea.l      [PC + 0x5E /* 00002A18, value 0x4E56 'NV', cstring "" */]
000029BC  487A 005A                pea.l      [PC + 0x5A /* 00002A18, value 0x4E56 'NV', cstring "" */]
000029C0  4EBA F800                jsr        [PC - 0x800 /* 000021C2 */]
000029C4  604E                     bra        +0x50 /* 00002A14 */
label000029C6:
000029C6  486E FF00                pea.l      [A6 - 0x100]
000029CA  3F3C 0018                move.w     -[A7], 0x18
000029CE  4EBA F958                jsr        [PC - 0x6A8 /* 00002328 */]
000029D2  487A 0044                pea.l      [PC + 0x44 /* 00002A18, value 0x4E56 'NV', cstring "" */]
000029D6  487A 0040                pea.l      [PC + 0x40 /* 00002A18, value 0x4E56 'NV', cstring "" */]
000029DA  487A 003C                pea.l      [PC + 0x3C /* 00002A18, value 0x4E56 'NV', cstring "" */]
000029DE  4EBA F7E2                jsr        [PC - 0x81E /* 000021C2 */]
000029E2  6030                     bra        +0x32 /* 00002A14 */
label000029E4:
000029E4  1D7C 0001 0008           move.b     [A6 + 0x8], 0x1
label000029EA:
000029EA  6028                     bra        +0x2A /* 00002A14 */
label000029EC:
000029EC  486E FF00                pea.l      [A6 - 0x100]
000029F0  3F3C 000E                move.w     -[A7], 0xE
000029F4  4EBA F932                jsr        [PC - 0x6CE /* 00002328 */]
000029F8  487A 001E                pea.l      [PC + 0x1E /* 00002A18, value 0x4E56 'NV', cstring "" */]
000029FC  486E FE00                pea.l      [A6 - 0x200]
00002A00  3F3C 0017                move.w     -[A7], 0x17
00002A04  4EBA F922                jsr        [PC - 0x6DE /* 00002328 */]
00002A08  487A 000E                pea.l      [PC + 0xE /* 00002A18, value 0x4E56 'NV', cstring "" */]
00002A0C  4EBA F7B4                jsr        [PC - 0x84C /* 000021C2 */]
00002A10  422E 0008                clr.b      [A6 + 0x8]
label00002A14:
00002A14  4E5E                     unlink     A6
00002A16  4E75                     rts
00002A18  0000 4E56                ori.b      D0, 0x56 /* 'V' */
// begin alternate branch 00002A1A-00002A1E
export_233:
00002A1A  4E56 FF78                link       A6, -0x0088
// end alternate branch 00002A1A-00002A1E
export_233: // at 00002A1A (misaligned)
00002A1C  FF78                     .extension 0xF78 <<F/4-5/7>> // unimplemented
00002A1E  48E7 0F08                movem.l    -[A7], D4,D5,D6,D7,A4
00002A22  3E2E 0008                move.w     D7, [A6 + 0x8]
00002A26  102D DC2D                move.b     D0, [A5 - 0x23D3]
00002A2A  6604                     bne        +0x6 /* 00002A30 */
00002A2C  4EBA FB56                jsr        [PC - 0x4AA /* 00002584 */]
label00002A30:
00002A30  7005                     moveq.l    D0, 0x05
00002A32  B047                     cmp.w      D0, D7
00002A34  5CC0                     sge        D0
00002A36  3207                     move.w     D1, D7
00002A38  6B18                     bmi        +0x1A /* 00002A52 */
00002A3A  B27C 0007                cmp.w      D1, 0x7
00002A3E  6E12                     bgt        +0x14 /* 00002A52 */
00002A40  41FA 028E                lea.l      A0, [PC + 0x28E /* 00002CD0, value 0x4E560000 'NV\0\0', cstring "NV" */]
00002A44  3401                     move.w     D2, D1
00002A46  E64A                     lsr        D2.w, 3
00002A48  4442                     neg.w      D2
00002A4A  0330 20FF                btst       [A0 + D2.w - 0x1], D1
00002A4E  0A3C 0004                xori.b     ccr, 4
label00002A52:
00002A52  57C1                     seq        D1
00002A54  8001                     or.b       D0, D1
00002A56  6704                     beq        +0x6 /* 00002A5C */
00002A58  4EBA DAA8                jsr        [PC - 0x2558 /* 00000502 */]
label00002A5C:
00002A5C  3007                     move.w     D0, D7
00002A5E  6B18                     bmi        +0x1A /* 00002A78 */
00002A60  B07C 000F                cmp.w      D0, 0xF
00002A64  6E12                     bgt        +0x14 /* 00002A78 */
00002A66  41FA 0266                lea.l      A0, [PC + 0x266 /* 00002CCE, value 0xC04E56, cstring "" */]
00002A6A  3200                     move.w     D1, D0
00002A6C  E649                     lsr        D1.w, 3
00002A6E  4441                     neg.w      D1
00002A70  0130 10FF                btst       [A0 + D1.w - 0x1], D0
00002A74  0A3C 0004                xori.b     ccr, 4
label00002A78:
00002A78  6778                     beq        +0x7A /* 00002AF2 */
00002A7A  4EAD 018A                jsr        [A5 + 0x18A /* export_45, CODE:1 @ 00003E54 */]
00002A7E  4267                     clr.w      -[A7]
00002A80  2F2D DBFC                move.l     -[A7], [A5 - 0x2404]
00002A84  4EAD 015A                jsr        [A5 + 0x15A /* export_39, CODE:1 @ 00003E00 */]
00002A88  1C1F                     move.b     D6, [A7]+
00002A8A  206D DBFC                movea.l    A0, [A5 - 0x2404]
00002A8E  2050                     movea.l    A0, [A0]
00002A90  3028 0018                move.w     D0, [A0 + 0x18]
00002A94  48C0                     ext.l      D0
00002A96  81FC 0100                divs.w     D0, 0x100
00002A9A  3A00                     move.w     D5, D0
00002A9C  BA6D DC32                cmp.w      D5, [A5 - 0x23CE]
00002AA0  6710                     beq        +0x12 /* 00002AB2 */
00002AA2  3B45 DC32                move.w     [A5 - 0x23CE], D5
00002AA6  2F2D DBFC                move.l     -[A7], [A5 - 0x2404]
00002AAA  4EAD 014A                jsr        [A5 + 0x14A /* export_37, CODE:1 @ 00003DE4 */]
00002AAE  4EBA F21E                jsr        [PC - 0xDE2 /* 00001CCE */]
label00002AB2:
00002AB2  206D DBFC                movea.l    A0, [A5 - 0x2404]
00002AB6  2050                     movea.l    A0, [A0]
00002AB8  49E8 0018                lea.l      A4, [A0 + 0x18]
00002ABC  7003                     moveq.l    D0, 0x03
00002ABE  B06D DC32                cmp.w      D0, [A5 - 0x23CE]
00002AC2  57C0                     seq        D0
00002AC4  7201                     moveq.l    D1, 0x01
00002AC6  B247                     cmp.w      D1, D7
00002AC8  56C1                     sne        D1
00002ACA  C001                     and.b      D0, D1
00002ACC  6718                     beq        +0x1A /* 00002AE6 */
00002ACE  4267                     clr.w      -[A7]
00002AD0  2F0C                     move.l     -[A7], A4
00002AD2  700F                     moveq.l    D0, 0x0F
00002AD4  2F00                     move.l     -[A7], D0
00002AD6  A85D                     syscall    BitTst
00002AD8  1B5F DC2A                move.b     [A5 - 0x23D6], [A7]+
00002ADC  2F0C                     move.l     -[A7], A4
00002ADE  700F                     moveq.l    D0, 0x0F
00002AE0  2F00                     move.l     -[A7], D0
00002AE2  A85E                     syscall    BitSet
00002AE4  6004                     bra        +0x6 /* 00002AEA */
label00002AE6:
00002AE6  422D DC2A                clr.b      [A5 - 0x23D6]
label00002AEA:
00002AEA  4EBA 184C                jsr        [PC + 0x184C /* 00004338 */]
00002AEE  422D DC28                clr.b      [A5 - 0x23D8]
label00002AF2:
00002AF2  3007                     move.w     D0, D7
00002AF4  6B18                     bmi        +0x1A /* 00002B0E */
00002AF6  B07C 000F                cmp.w      D0, 0xF
00002AFA  6E12                     bgt        +0x14 /* 00002B0E */
00002AFC  41FA 01CE                lea.l      A0, [PC + 0x1CE /* 00002CCC, value 0x70000C0 */]
00002B00  3200                     move.w     D1, D0
00002B02  E649                     lsr        D1.w, 3
00002B04  4441                     neg.w      D1
00002B06  0130 10FF                btst       [A0 + D1.w - 0x1], D0
00002B0A  0A3C 0004                xori.b     ccr, 4
label00002B0E:
00002B0E  6608                     bne        +0xA /* 00002B18 */
00002B10  4267                     clr.w      -[A7]
00002B12  4EBA EDAA                jsr        [PC - 0x1256 /* 000018BE */]
00002B16  A834                     syscall    SetFScaleDisable
label00002B18:
00002B18  3007                     move.w     D0, D7
00002B1A  6B18                     bmi        +0x1A /* 00002B34 */
00002B1C  B07C 0007                cmp.w      D0, 0x7
00002B20  6E12                     bgt        +0x14 /* 00002B34 */
00002B22  41FA 01A6                lea.l      A0, [PC + 0x1A6 /* 00002CCA, value 0x33C0700 */]
00002B26  3200                     move.w     D1, D0
00002B28  E649                     lsr        D1.w, 3
00002B2A  4441                     neg.w      D1
00002B2C  0130 10FF                btst       [A0 + D1.w - 0x1], D0
00002B30  0A3C 0004                xori.b     ccr, 4
label00002B34:
00002B34  6604                     bne        +0x6 /* 00002B3A */
00002B36  4EBA EC5A                jsr        [PC - 0x13A6 /* 00001792 */]
label00002B3A:
00002B3A  7005                     moveq.l    D0, 0x05
00002B3C  B047                     cmp.w      D0, D7
00002B3E  6D00 009C                blt        +0x9E /* 00002BDC */
00002B42  4267                     clr.w      -[A7]
00002B44  2F2D DBFC                move.l     -[A7], [A5 - 0x2404]
00002B48  4EAD 015A                jsr        [A5 + 0x15A /* export_39, CODE:1 @ 00003E00 */]
00002B4C  1C1F                     move.b     D6, [A7]+
00002B4E  4267                     clr.w      -[A7]
00002B50  4EBA F900                jsr        [PC - 0x700 /* 00002452 */]
00002B54  4A5F                     tst.w      [A7]+
00002B56  660C                     bne        +0xE /* 00002B64 */
00002B58  4267                     clr.w      -[A7]
00002B5A  486E FF7A                pea.l      [A6 - 0x86]
00002B5E  4EBA EBBE                jsr        [PC - 0x1442 /* 0000171E */]
00002B62  1C1F                     move.b     D6, [A7]+
label00002B64:
00002B64  4267                     clr.w      -[A7]
00002B66  4EBA FE08                jsr        [PC - 0x1F8 /* 00002970 */]
00002B6A  101F                     move.b     D0, [A7]+
00002B6C  6746                     beq        +0x48 /* 00002BB4 */
00002B6E  3007                     move.w     D0, D7
00002B70  5340                     subq.w     D0, 1
00002B72  6712                     beq        +0x14 /* 00002B86 */
00002B74  5340                     subq.w     D0, 1
00002B76  671A                     beq        +0x1C /* 00002B92 */
00002B78  5340                     subq.w     D0, 1
00002B7A  6722                     beq        +0x24 /* 00002B9E */
00002B7C  5340                     subq.w     D0, 1
00002B7E  6728                     beq        +0x2A /* 00002BA8 */
00002B80  5340                     subq.w     D0, 1
00002B82  672A                     beq        +0x2C /* 00002BAE */
00002B84  602E                     bra        +0x30 /* 00002BB4 */
label00002B86:
00002B86  4EAD 082A                jsr        [A5 + 0x82A /* export_257, CODE:5 @ 000000BA */]
00002B8A  486D 082A                pea.l      [A5 + 0x82A /* export_257, CODE:5 @ 000000BA */]
00002B8E  A9F1                     syscall    UnloadSeg
00002B90  6022                     bra        +0x24 /* 00002BB4 */
label00002B92:
00002B92  4EAD 0832                jsr        [A5 + 0x832 /* export_258, CODE:5 @ 000006EE */]
00002B96  486D 0832                pea.l      [A5 + 0x832 /* export_258, CODE:5 @ 000006EE */]
00002B9A  A9F1                     syscall    UnloadSeg
00002B9C  6016                     bra        +0x18 /* 00002BB4 */
label00002B9E:
00002B9E  1F3C 0001                move.b     -[A7], 0x1
00002BA2  4EBA 0BDC                jsr        [PC + 0xBDC /* 00003780 */]
00002BA6  600C                     bra        +0xE /* 00002BB4 */
label00002BA8:
00002BA8  4EBA 0BB6                jsr        [PC + 0xBB6 /* 00003760 */]
00002BAC  6006                     bra        +0x8 /* 00002BB4 */
label00002BAE:
00002BAE  4267                     clr.w      -[A7]
00002BB0  4EBA 0BCE                jsr        [PC + 0xBCE /* 00003780 */]
label00002BB4:
00002BB4  4267                     clr.w      -[A7]
00002BB6  4EBA F8BC                jsr        [PC - 0x744 /* 00002474 */]
00002BBA  3007                     move.w     D0, D7
00002BBC  6B18                     bmi        +0x1A /* 00002BD6 */
00002BBE  B07C 0007                cmp.w      D0, 0x7
00002BC2  6E12                     bgt        +0x14 /* 00002BD6 */
00002BC4  41FA 0102                lea.l      A0, [PC + 0x102 /* 00002CC8, value 0xF8033C, cstring "" */]
00002BC8  3200                     move.w     D1, D0
00002BCA  E649                     lsr        D1.w, 3
00002BCC  4441                     neg.w      D1
00002BCE  0130 10FF                btst       [A0 + D1.w - 0x1], D0
00002BD2  0A3C 0004                xori.b     ccr, 4
label00002BD6:
00002BD6  6604                     bne        +0x6 /* 00002BDC */
00002BD8  4EBA 191E                jsr        [PC + 0x191E /* 000044F8 */]
label00002BDC:
00002BDC  7006                     moveq.l    D0, 0x06
00002BDE  B047                     cmp.w      D0, D7
00002BE0  6E5C                     bgt        +0x5E /* 00002C3E */
00002BE2  3007                     move.w     D0, D7
00002BE4  5D40                     subq.w     D0, 6
00002BE6  6712                     beq        +0x14 /* 00002BFA */
00002BE8  5340                     subq.w     D0, 1
00002BEA  6716                     beq        +0x18 /* 00002C02 */
00002BEC  5340                     subq.w     D0, 1
00002BEE  671C                     beq        +0x1E /* 00002C0C */
00002BF0  5340                     subq.w     D0, 1
00002BF2  6734                     beq        +0x36 /* 00002C28 */
00002BF4  5340                     subq.w     D0, 1
00002BF6  673C                     beq        +0x3E /* 00002C34 */
00002BF8  6044                     bra        +0x46 /* 00002C3E */
label00002BFA:
00002BFA  4267                     clr.w      -[A7]
00002BFC  4EBA F9B2                jsr        [PC - 0x64E /* 000025B0 */]
00002C00  603C                     bra        +0x3E /* 00002C3E */
label00002C02:
00002C02  1F3C 0001                move.b     -[A7], 0x1
00002C06  4EBA F9A8                jsr        [PC - 0x658 /* 000025B0 */]
00002C0A  6032                     bra        +0x34 /* 00002C3E */
label00002C0C:
00002C0C  102D DC51                move.b     D0, [A5 - 0x23AF]
00002C10  6706                     beq        +0x8 /* 00002C18 */
00002C12  4EBA 12AA                jsr        [PC + 0x12AA /* 00003EBE */]
00002C16  6026                     bra        +0x28 /* 00002C3E */
label00002C18:
00002C18  102D D7C0                move.b     D0, [A5 - 0x2840]
00002C1C  6608                     bne        +0xA /* 00002C26 */
00002C1E  3F3C 0014                move.w     -[A7], 0x14
00002C22  4EBA 04F0                jsr        [PC + 0x4F0 /* 00003114 */]
label00002C26:
00002C26  6016                     bra        +0x18 /* 00002C3E */
label00002C28:
00002C28  102D DC51                move.b     D0, [A5 - 0x23AF]
00002C2C  6704                     beq        +0x6 /* 00002C32 */
00002C2E  4EBA D912                jsr        [PC - 0x26EE /* 00000542 */]
label00002C32:
00002C32  600A                     bra        +0xC /* 00002C3E */
label00002C34:
00002C34  102D DC51                move.b     D0, [A5 - 0x23AF]
00002C38  6704                     beq        +0x6 /* 00002C3E */
00002C3A  4EBA D3C4                jsr        [PC - 0x2C3C /* 00000000 */]
label00002C3E:
00002C3E  3007                     move.w     D0, D7
00002C40  6B18                     bmi        +0x1A /* 00002C5A */
00002C42  B07C 000F                cmp.w      D0, 0xF
00002C46  6E12                     bgt        +0x14 /* 00002C5A */
00002C48  41FA 007C                lea.l      A0, [PC + 0x7C /* 00002CC6, value 0x1800F8, cstring "" */]
00002C4C  3200                     move.w     D1, D0
00002C4E  E649                     lsr        D1.w, 3
00002C50  4441                     neg.w      D1
00002C52  0130 10FF                btst       [A0 + D1.w - 0x1], D0
00002C56  0A3C 0004                xori.b     ccr, 4
label00002C5A:
00002C5A  6724                     beq        +0x26 /* 00002C80 */
00002C5C  7003                     moveq.l    D0, 0x03
00002C5E  B06D DC32                cmp.w      D0, [A5 - 0x23CE]
00002C62  57C0                     seq        D0
00002C64  122D DC2A                move.b     D1, [A5 - 0x23D6]
00002C68  0A01 0001                xori.b     D1, 0x1
00002C6C  C001                     and.b      D0, D1
00002C6E  6710                     beq        +0x12 /* 00002C80 */
00002C70  206D DBFC                movea.l    A0, [A5 - 0x2404]
00002C74  2050                     movea.l    A0, [A0]
00002C76  4868 0018                pea.l      [A0 + 0x18]
00002C7A  700F                     moveq.l    D0, 0x0F
00002C7C  2F00                     move.l     -[A7], D0
00002C7E  A85F                     syscall    BitClr
label00002C80:
00002C80  3007                     move.w     D0, D7
00002C82  6B18                     bmi        +0x1A /* 00002C9C */
00002C84  B07C 000F                cmp.w      D0, 0xF
00002C88  6E12                     bgt        +0x14 /* 00002C9C */
00002C8A  41FA 0038                lea.l      A0, [PC + 0x38 /* 00002CC4, value 0x5C20018 */]
00002C8E  3200                     move.w     D1, D0
00002C90  E649                     lsr        D1.w, 3
00002C92  4441                     neg.w      D1
00002C94  0130 10FF                btst       [A0 + D1.w - 0x1], D0
00002C98  0A3C 0004                xori.b     ccr, 4
label00002C9C:
00002C9C  6712                     beq        +0x14 /* 00002CB0 */
00002C9E  4267                     clr.w      -[A7]
00002CA0  A994                     syscall    CurResFile
00002CA2  381F                     move.w     D4, [A7]+
00002CA4  4EAD 0192                jsr        [A5 + 0x192 /* export_46, CODE:1 @ 00003E62 */]
00002CA8  4EAD 0172                jsr        [A5 + 0x172 /* export_42, CODE:1 @ 00003E2A */]
00002CAC  3F04                     move.w     -[A7], D4
00002CAE  A998                     syscall    UseResFile
label00002CB0:
00002CB0  1F3C 0001                move.b     -[A7], 0x1
00002CB4  A834                     syscall    SetFScaleDisable
00002CB6  4CDF 10F0                movem.l    D4,D5,D6,D7,A4, [A7]+
00002CBA  4E5E                     unlink     A6
00002CBC  205F                     movea.l    A0, [A7]+
00002CBE  544F                     addq.w     A7, 2
00002CC0  4ED0                     jmp        [A0]
00002CC2  07C0                     .incomplete
00002CC4  05C2                     .incomplete
00002CC6  0018 00F8                ori.b      [A0]+, 0xF8
00002CCA  033C 0700                btst       0x0, D1
00002CCE  00C0                     .incomplete
fn00002CD0:
00002CD0  4E56 0000                link       A6, 0
00002CD4  4267                     clr.w      -[A7]
00002CD6  4EBA F77A                jsr        [PC - 0x886 /* 00002452 */]
00002CDA  4A5F                     tst.w      [A7]+
00002CDC  6736                     beq        +0x38 /* 00002D14 */
00002CDE  2F2D D736                move.l     -[A7], [A5 - 0x28CA]
00002CE2  4EAD 0142                jsr        [A5 + 0x142 /* export_36, CODE:1 @ 00003DD6 */]
00002CE6  422D D7BF                clr.b      [A5 - 0x2841]
00002CEA  226E 0008                movea.l    A1, [A6 + 0x8]
00002CEE  2069 FFFC                movea.l    A0, [A1 - 0x4]
00002CF2  2050                     movea.l    A0, [A0]
00002CF4  2F28 0020                move.l     -[A7], [A0 + 0x20]
00002CF8  4267                     clr.w      -[A7]
00002CFA  4EAD 1EE2                jsr        [A5 + 0x1EE2 /* export_984, CODE:19 @ 00000414 */]
00002CFE  2F2D F62A                move.l     -[A7], [A5 - 0x9D6]
00002D02  4267                     clr.w      -[A7]
00002D04  4EAD 1EF2                jsr        [A5 + 0x1EF2 /* export_986, CODE:19 @ 00000450 */]
00002D08  206E 0008                movea.l    A0, [A6 + 0x8]
00002D0C  2C48                     movea.l    A6, A0
00002D0E  4EFA 03F8                jmp        [PC + 0x3F8 /* 00003108 */]
00002D12  0000 4E5E                ori.b      D0, 0x5E /* '^' */
// begin alternate branch 00002D14-00002D16
label00002D14:
00002D14  4E5E                     unlink     A6
// end alternate branch 00002D14-00002D16
label00002D14: // (misaligned)
00002D16  2E9F                     move.l     [A7], [A7]+
00002D18  4E75                     rts
fn00002D1A:
00002D1A  4E56 FFFC                link       A6, -0x0004
00002D1E  2F2D D736                move.l     -[A7], [A5 - 0x28CA]
00002D22  42A7                     clr.l      -[A7]
00002D24  4EAD 013A                jsr        [A5 + 0x13A /* export_35, CODE:1 @ 00003DC8 */]
00002D28  1B7C 0001 D7BF           move.b     [A5 - 0x2841], 0x1
00002D2E  4EAD 181A                jsr        [A5 + 0x181A /* export_767, CODE:16 @ 00000216 */]
00002D32  426D D7CA                clr.w      [A5 - 0x2836]
00002D36  3B6D DC06 D7CE           move.w     [A5 - 0x2832], [A5 - 0x23FA]
00002D3C  3B6D DC04 D7D0           move.w     [A5 - 0x2830], [A5 - 0x23FC]
00002D42  486D D7AA                pea.l      [A5 - 0x2856]
00002D46  3F2D D7CE                move.w     -[A7], [A5 - 0x2832]
00002D4A  3F2D DC04                move.w     -[A7], [A5 - 0x23FC]
00002D4E  302D D7D4                move.w     D0, [A5 - 0x282C]
00002D52  D06D D7CE                add.w      D0, [A5 - 0x2832]
00002D56  3F00                     move.w     -[A7], D0
00002D58  302D D7D2                move.w     D0, [A5 - 0x282E]
00002D5C  D06D DC04                add.w      D0, [A5 - 0x23FC]
00002D60  3F00                     move.w     -[A7], D0
00002D62  A8A7                     syscall    SetRect
00002D64  102D D7C1                move.b     D0, [A5 - 0x283F]
00002D68  672C                     beq        +0x2E /* 00002D96 */
00002D6A  206D D72E                movea.l    A0, [A5 - 0x28D2]
00002D6E  2F10                     move.l     -[A7], [A0]
00002D70  2F2D D7BA                move.l     -[A7], [A5 - 0x2846]
00002D74  7004                     moveq.l    D0, 0x04
00002D76  2F00                     move.l     -[A7], D0
00002D78  4EAD 04F2                jsr        [A5 + 0x4F2 /* export_154, CODE:1 @ 00005224 */]
00002D7C  4EAD 1B4A                jsr        [A5 + 0x1B4A /* export_869, CODE:16 @ 00001E9C */]
00002D80  206D D72E                movea.l    A0, [A5 - 0x28D2]
00002D84  202D D7BA                move.l     D0, [A5 - 0x2846]
00002D88  D090                     add.l      D0, [A0]
00002D8A  5580                     subq.l     D0, 2
00002D8C  2D40 FFFC                move.l     [A6 - 0x4], D0
00002D90  206E FFFC                movea.l    A0, [A6 - 0x4]
00002D94  4250                     clr.w      [A0]
label00002D96:
00002D96  2F2E 0008                move.l     -[A7], [A6 + 0x8]
00002D9A  4EBA FF34                jsr        [PC - 0xCC /* 00002CD0 */]
00002D9E  3F2D D7C2                move.w     -[A7], [A5 - 0x283E]
00002DA2  4EBA 15AA                jsr        [PC + 0x15AA /* 0000434E */]
00002DA6  4E5E                     unlink     A6
00002DA8  2E9F                     move.l     [A7], [A7]+
00002DAA  4E75                     rts
export_234:
fn00002DAC:
00002DAC  4E56 FFDC                link       A6, -0x0024
00002DB0  48E7 1F38                movem.l    -[A7], D3,D4,D5,D6,D7,A2,A3,A4
00002DB4  42A7                     clr.l      -[A7]
00002DB6  2F2D F62A                move.l     -[A7], [A5 - 0x9D6]
00002DBA  4EAD 1F7A                jsr        [A5 + 0x1F7A /* export_1003, CODE:19 @ 00001744 */]
00002DBE  2D5F FFFC                move.l     [A6 - 0x4], [A7]+
00002DC2  6604                     bne        +0x6 /* 00002DC8 */
00002DC4  4EBA F93C                jsr        [PC - 0x6C4 /* 00002702 */]
label00002DC8:
00002DC8  4267                     clr.w      -[A7]
00002DCA  4EBA F686                jsr        [PC - 0x97A /* 00002452 */]
00002DCE  4A5F                     tst.w      [A7]+
00002DD0  6704                     beq        +0x6 /* 00002DD6 */
00002DD2  6000 0334                bra        +0x336 /* 00003108 */
label00002DD6:
00002DD6  42A7                     clr.l      -[A7]
00002DD8  206E FFFC                movea.l    A0, [A6 - 0x4]
00002DDC  2050                     movea.l    A0, [A0]
00002DDE  2F28 0020                move.l     -[A7], [A0 + 0x20]
00002DE2  4EAD 1F6A                jsr        [A5 + 0x1F6A /* export_1001, CODE:19 @ 000016EC */]
00002DE6  2D5F FFF8                move.l     [A6 - 0x8], [A7]+
00002DEA  6608                     bne        +0xA /* 00002DF4 */
00002DEC  4EBA F914                jsr        [PC - 0x6EC /* 00002702 */]
00002DF0  6000 030C                bra        +0x30E /* 000030FE */
label00002DF4:
00002DF4  486E FFF4                pea.l      [A6 - 0xC]
00002DF8  A874                     syscall    GetPort
00002DFA  102D D7BF                move.b     D0, [A5 - 0x2841]
00002DFE  6606                     bne        +0x8 /* 00002E06 */
00002E00  2F0E                     move.l     -[A7], A6
00002E02  4EBA FF16                jsr        [PC - 0xEA /* 00002D1A */]
label00002E06:
00002E06  2F2D D736                move.l     -[A7], [A5 - 0x28CA]
00002E0A  A873                     syscall    SetPort
00002E0C  4267                     clr.w      -[A7]
00002E0E  4EBA E2AE                jsr        [PC - 0x1D52 /* 000010BE */]
00002E12  7002                     moveq.l    D0, 0x02
00002E14  B06D D7CC                cmp.w      D0, [A5 - 0x2834]
00002E18  6610                     bne        +0x12 /* 00002E2A */
00002E1A  302D DC4A                move.w     D0, [A5 - 0x23B6]
00002E1E  48C0                     ext.l      D0
00002E20  81FC 0002                divs.w     D0, 0x2
00002E24  3B40 D7C8                move.w     [A5 - 0x2838], D0
00002E28  6006                     bra        +0x8 /* 00002E30 */
label00002E2A:
00002E2A  3B6D DC4A D7C8           move.w     [A5 - 0x2838], [A5 - 0x23B6]
label00002E30:
00002E30  1F3C 0001                move.b     -[A7], 0x1
00002E34  4EBA F672                jsr        [PC - 0x98E /* 000024A8 */]
00002E38  4267                     clr.w      -[A7]
00002E3A  4EBA F616                jsr        [PC - 0x9EA /* 00002452 */]
00002E3E  4A5F                     tst.w      [A7]+
00002E40  6708                     beq        +0xA /* 00002E4A */
00002E42  4EBA F8BE                jsr        [PC - 0x742 /* 00002702 */]
00002E46  6000 028A                bra        +0x28C /* 000030D2 */
label00002E4A:
00002E4A  4EAD 181A                jsr        [A5 + 0x181A /* export_767, CODE:16 @ 00000216 */]
00002E4E  4267                     clr.w      -[A7]
00002E50  4EBA F8C0                jsr        [PC - 0x740 /* 00002712 */]
00002E54  101F                     move.b     D0, [A7]+
00002E56  671A                     beq        +0x1C /* 00002E72 */
00002E58  486D ED44                pea.l      [A5 - 0x12BC]
00002E5C  206D D736                movea.l    A0, [A5 - 0x28CA]
00002E60  4868 0002                pea.l      [A0 + 0x2]
00002E64  486D D7B2                pea.l      [A5 - 0x284E]
00002E68  486D D7AA                pea.l      [A5 - 0x2856]
00002E6C  4EBA DCE2                jsr        [PC - 0x231E /* 00000B50 */]
00002E70  6066                     bra        +0x68 /* 00002ED8 */
label00002E72:
00002E72  4267                     clr.w      -[A7]
00002E74  486D D9D8                pea.l      [A5 - 0x2628]
00002E78  4EBA 18D2                jsr        [PC + 0x18D2 /* 0000474C */]
00002E7C  101F                     move.b     D0, [A7]+
00002E7E  6716                     beq        +0x18 /* 00002E96 */
00002E80  486D ED44                pea.l      [A5 - 0x12BC]
00002E84  486D ED44                pea.l      [A5 - 0x12BC]
00002E88  486D ED82                pea.l      [A5 - 0x127E]
00002E8C  486D D7B2                pea.l      [A5 - 0x284E]
00002E90  4267                     clr.w      -[A7]
00002E92  42A7                     clr.l      -[A7]
00002E94  A8EC                     syscall    CopyBits
label00002E96:
00002E96  102D D7C1                move.b     D0, [A5 - 0x283F]
00002E9A  6712                     beq        +0x14 /* 00002EAE */
00002E9C  41EE FFE4                lea.l      A0, [A6 - 0x1C]
00002EA0  43ED D720                lea.l      A1, [A5 - 0x28E0]
00002EA4  20D9                     move.l     [A0]+, [A1]+
00002EA6  20D9                     move.l     [A0]+, [A1]+
00002EA8  20D9                     move.l     [A0]+, [A1]+
00002EAA  3091                     move.w     [A0], [A1]
00002EAC  6012                     bra        +0x14 /* 00002EC0 */
label00002EAE:
00002EAE  206D D736                movea.l    A0, [A5 - 0x28CA]
00002EB2  43EE FFE4                lea.l      A1, [A6 - 0x1C]
00002EB6  5488                     addq.l     A0, 2
00002EB8  22D8                     move.l     [A1]+, [A0]+
00002EBA  22D8                     move.l     [A1]+, [A0]+
00002EBC  22D8                     move.l     [A1]+, [A0]+
00002EBE  3290                     move.w     [A1], [A0]
label00002EC0:
00002EC0  486D ED44                pea.l      [A5 - 0x12BC]
00002EC4  486E FFE4                pea.l      [A6 - 0x1C]
00002EC8  486D D7B2                pea.l      [A5 - 0x284E]
00002ECC  486D D7AA                pea.l      [A5 - 0x2856]
00002ED0  3F3C 0001                move.w     -[A7], 0x1
00002ED4  42A7                     clr.l      -[A7]
00002ED6  A8EC                     syscall    CopyBits
label00002ED8:
00002ED8  102D DC2A                move.b     D0, [A5 - 0x23D6]
00002EDC  6714                     beq        +0x16 /* 00002EF2 */
00002EDE  4EAD 181A                jsr        [A5 + 0x181A /* export_767, CODE:16 @ 00000216 */]
00002EE2  2F2E FFFC                move.l     -[A7], [A6 - 0x4]
00002EE6  2F2E FFF8                move.l     -[A7], [A6 - 0x8]
00002EEA  2F2D D7AA                move.l     -[A7], [A5 - 0x2856]
00002EEE  4EBA F834                jsr        [PC - 0x7CC /* 00002724 */]
label00002EF2:
00002EF2  4EAD 181A                jsr        [A5 + 0x181A /* export_767, CODE:16 @ 00000216 */]
00002EF6  486D D7AA                pea.l      [A5 - 0x2856]
00002EFA  302D DC46                move.w     D0, [A5 - 0x23BA]
00002EFE  D06D D7D4                add.w      D0, [A5 - 0x282C]
00002F02  3F00                     move.w     -[A7], D0
00002F04  4267                     clr.w      -[A7]
00002F06  A8A8                     syscall    OffsetRect
00002F08  526D D7C4                addq.w     [A5 - 0x283C], 1
00002F0C  4EBA 1B3A                jsr        [PC + 0x1B3A /* 00004A48 */]
00002F10  2F0E                     move.l     -[A7], A6
00002F12  4EBA FDBC                jsr        [PC - 0x244 /* 00002CD0 */]
00002F16  302D D7C4                move.w     D0, [A5 - 0x283C]
00002F1A  B06D D7C8                cmp.w      D0, [A5 - 0x2838]
00002F1E  6600 01B2                bne        +0x1B4 /* 000030D2 */
00002F22  426D D7C4                clr.w      [A5 - 0x283C]
00002F26  526D D7C6                addq.w     [A5 - 0x283A], 1
00002F2A  3B6D D7CE D7AC           move.w     [A5 - 0x2854], [A5 - 0x2832]
00002F30  302D D7D2                move.w     D0, [A5 - 0x282E]
00002F34  D06D D7AA                add.w      D0, [A5 - 0x2856]
00002F38  322D DC48                move.w     D1, [A5 - 0x23B8]
00002F3C  D240                     add.w      D1, D0
00002F3E  3B41 D7AA                move.w     [A5 - 0x2856], D1
00002F42  302D DC4C                move.w     D0, [A5 - 0x23B4]
00002F46  48C0                     ext.l      D0
00002F48  81FC 0002                divs.w     D0, 0x2
00002F4C  B06D D7C6                cmp.w      D0, [A5 - 0x283A]
00002F50  57C0                     seq        D0
00002F52  C02D D9EE                and.b      D0, [A5 - 0x2612]
00002F56  2F00                     move.l     -[A7], D0
00002F58  4267                     clr.w      -[A7]
00002F5A  4EBA 1B78                jsr        [PC + 0x1B78 /* 00004AD4 */]
00002F5E  121F                     move.b     D1, [A7]+
00002F60  201F                     move.l     D0, [A7]+
00002F62  C001                     and.b      D0, D1
00002F64  676E                     beq        +0x70 /* 00002FD4 */
00002F66  206D DBFC                movea.l    A0, [A5 - 0x2404]
00002F6A  2050                     movea.l    A0, [A0]
00002F6C  41E8 0010                lea.l      A0, [A0 + 0x10]
00002F70  2D48 FFE0                move.l     [A6 - 0x20], A0
00002F74  226E FFE0                movea.l    A1, [A6 - 0x20]
00002F78  3029 0004                move.w     D0, [A1 + 0x4]
00002F7C  D050                     add.w      D0, [A0]
00002F7E  48C0                     ext.l      D0
00002F80  81FC 0002                divs.w     D0, 0x2
00002F84  3D40 FFF2                move.w     [A6 - 0xE], D0
00002F88  102D D9F1                move.b     D0, [A5 - 0x260F]
00002F8C  6718                     beq        +0x1A /* 00002FA6 */
00002F8E  4267                     clr.w      -[A7]
00002F90  4EBA E8B8                jsr        [PC - 0x1748 /* 0000184A */]
00002F94  301F                     move.w     D0, [A7]+
00002F96  48C0                     ext.l      D0
00002F98  81FC 0004                divs.w     D0, 0x4
00002F9C  D06E FFF2                add.w      D0, [A6 - 0xE]
00002FA0  3B40 D7AA                move.w     [A5 - 0x2856], D0
00002FA4  602E                     bra        +0x30 /* 00002FD4 */
label00002FA6:
00002FA6  4267                     clr.w      -[A7]
00002FA8  3F2D D7AA                move.w     -[A7], [A5 - 0x2856]
00002FAC  302D DC48                move.w     D0, [A5 - 0x23B8]
00002FB0  D06E FFF2                add.w      D0, [A6 - 0xE]
00002FB4  3F00                     move.w     -[A7], D0
00002FB6  4EAD 18BA                jsr        [A5 + 0x18BA /* export_787, CODE:16 @ 000007C6 */]
00002FBA  3B5F D7AA                move.w     [A5 - 0x2856], [A7]+
00002FBE  4240                     clr.w      D0
00002FC0  102D D9F8                move.b     D0, [A5 - 0x2608]
00002FC4  4A40                     tst.w      D0
00002FC6  670C                     beq        +0xE /* 00002FD4 */
00002FC8  302D DC48                move.w     D0, [A5 - 0x23B8]
00002FCC  D06D D7AA                add.w      D0, [A5 - 0x2856]
00002FD0  3B40 D7AA                move.w     [A5 - 0x2856], D0
label00002FD4:
00002FD4  302D D7D4                move.w     D0, [A5 - 0x282C]
00002FD8  D06D D7AC                add.w      D0, [A5 - 0x2854]
00002FDC  3B40 D7B0                move.w     [A5 - 0x2850], D0
00002FE0  302D D7D2                move.w     D0, [A5 - 0x282E]
00002FE4  D06D D7AA                add.w      D0, [A5 - 0x2856]
00002FE8  3B40 D7AE                move.w     [A5 - 0x2852], D0
00002FEC  302D D7C6                move.w     D0, [A5 - 0x283A]
00002FF0  B06D DC4C                cmp.w      D0, [A5 - 0x23B4]
00002FF4  6600 00DC                bne        +0xDE /* 000030D2 */
00002FF8  302D DC4A                move.w     D0, [A5 - 0x23B6]
00002FFC  48C0                     ext.l      D0
00002FFE  81FC 0002                divs.w     D0, 0x2
00003002  322D DC46                move.w     D1, [A5 - 0x23BA]
00003006  D26D D7D4                add.w      D1, [A5 - 0x282C]
0000300A  C1C1                     muls.w     D0, D1
0000300C  D16D D7CE                add.w      [A5 - 0x2832], D0
00003010  426D D7C6                clr.w      [A5 - 0x283A]
00003014  526D D7CA                addq.w     [A5 - 0x2836], 1
00003018  102D D9F1                move.b     D0, [A5 - 0x260F]
0000301C  C02D D9EE                and.b      D0, [A5 - 0x2612]
00003020  2F00                     move.l     -[A7], D0
00003022  4267                     clr.w      -[A7]
00003024  4EBA 1AAE                jsr        [PC + 0x1AAE /* 00004AD4 */]
00003028  121F                     move.b     D1, [A7]+
0000302A  201F                     move.l     D0, [A7]+
0000302C  0A01 0001                xori.b     D1, 0x1
00003030  C001                     and.b      D0, D1
00003032  6762                     beq        +0x64 /* 00003096 */
00003034  206D DBFC                movea.l    A0, [A5 - 0x2404]
00003038  2050                     movea.l    A0, [A0]
0000303A  41E8 0010                lea.l      A0, [A0 + 0x10]
0000303E  2D48 FFDC                move.l     [A6 - 0x24], A0
00003042  4267                     clr.w      -[A7]
00003044  4EBA 1AB0                jsr        [PC + 0x1AB0 /* 00004AF6 */]
00003048  101F                     move.b     D0, [A7]+
0000304A  671A                     beq        +0x1C /* 00003066 */
0000304C  206E FFDC                movea.l    A0, [A6 - 0x24]
00003050  226E FFDC                movea.l    A1, [A6 - 0x24]
00003054  3029 0004                move.w     D0, [A1 + 0x4]
00003058  D050                     add.w      D0, [A0]
0000305A  48C0                     ext.l      D0
0000305C  81FC 0002                divs.w     D0, 0x2
00003060  3D40 FFF2                move.w     [A6 - 0xE], D0
00003064  601A                     bra        +0x1C /* 00003080 */
label00003066:
00003066  206E FFDC                movea.l    A0, [A6 - 0x24]
0000306A  226E FFDC                movea.l    A1, [A6 - 0x24]
0000306E  3029 0006                move.w     D0, [A1 + 0x6]
00003072  D068 0002                add.w      D0, [A0 + 0x2]
00003076  48C0                     ext.l      D0
00003078  81FC 0002                divs.w     D0, 0x2
0000307C  3D40 FFF2                move.w     [A6 - 0xE], D0
label00003080:
00003080  4267                     clr.w      -[A7]
00003082  4EBA E7C6                jsr        [PC - 0x183A /* 0000184A */]
00003086  301F                     move.w     D0, [A7]+
00003088  48C0                     ext.l      D0
0000308A  81FC 0004                divs.w     D0, 0x4
0000308E  D06E FFF2                add.w      D0, [A6 - 0xE]
00003092  3B40 D7CE                move.w     [A5 - 0x2832], D0
label00003096:
00003096  486D D7AA                pea.l      [A5 - 0x2856]
0000309A  3F2D D7CE                move.w     -[A7], [A5 - 0x2832]
0000309E  3F2D DC04                move.w     -[A7], [A5 - 0x23FC]
000030A2  302D D7D4                move.w     D0, [A5 - 0x282C]
000030A6  D06D D7CE                add.w      D0, [A5 - 0x2832]
000030AA  3F00                     move.w     -[A7], D0
000030AC  302D D7D2                move.w     D0, [A5 - 0x282E]
000030B0  D06D DC04                add.w      D0, [A5 - 0x23FC]
000030B4  3F00                     move.w     -[A7], D0
000030B6  A8A7                     syscall    SetRect
000030B8  302D D7CA                move.w     D0, [A5 - 0x2836]
000030BC  B06D D7CC                cmp.w      D0, [A5 - 0x2834]
000030C0  6610                     bne        +0x12 /* 000030D2 */
000030C2  486D DAF8                pea.l      [A5 - 0x2508]
000030C6  4EBA 00B0                jsr        [PC + 0xB0 /* 00003178 */]
000030CA  4EAD 181A                jsr        [A5 + 0x181A /* export_767, CODE:16 @ 00000216 */]
000030CE  4EBA 1978                jsr        [PC + 0x1978 /* 00004A48 */]
label000030D2:
000030D2  4EBA E03A                jsr        [PC - 0x1FC6 /* 0000110E */]
000030D6  4267                     clr.w      -[A7]
000030D8  4EBA 19B6                jsr        [PC + 0x19B6 /* 00004A90 */]
000030DC  101F                     move.b     D0, [A7]+
000030DE  802D DC2A                or.b       D0, [A5 - 0x23D6]
000030E2  6704                     beq        +0x6 /* 000030E8 */
000030E4  4EBA F224                jsr        [PC - 0xDDC /* 0000230A */]
label000030E8:
000030E8  2F2E FFF4                move.l     -[A7], [A6 - 0xC]
000030EC  A873                     syscall    SetPort
000030EE  206E FFFC                movea.l    A0, [A6 - 0x4]
000030F2  2050                     movea.l    A0, [A0]
000030F4  2F28 0020                move.l     -[A7], [A0 + 0x20]
000030F8  4267                     clr.w      -[A7]
000030FA  4EAD 1EE2                jsr        [A5 + 0x1EE2 /* export_984, CODE:19 @ 00000414 */]
label000030FE:
000030FE  2F2D F62A                move.l     -[A7], [A5 - 0x9D6]
00003102  4267                     clr.w      -[A7]
00003104  4EAD 1EF2                jsr        [A5 + 0x1EF2 /* export_986, CODE:19 @ 00000450 */]
label00003108:
00003108  4FEE FFBC                lea.l      A7, [A6 - 0x44]
0000310C  4CDF 1CF8                movem.l    D3,D4,D5,D6,D7,A2,A3,A4, [A7]+
00003110  4E5E                     unlink     A6
00003112  4E75                     rts
fn00003114:
00003114  4E56 FEFE                link       A6, -0x0102
00003118  2F3C 03E8 0000           move.l     -[A7], 0x3E80000
0000311E  486E FEFE                pea.l      [A6 - 0x102]
00003122  3F2E 0008                move.w     -[A7], [A6 + 0x8]
00003126  4EBA F200                jsr        [PC - 0xE00 /* 00002328 */]
0000312A  4EAD 1802                jsr        [A5 + 0x1802 /* export_764, CODE:16 @ 0000010A */]
0000312E  3D5F FFFE                move.w     [A6 - 0x2], [A7]+
00003132  4E5E                     unlink     A6
00003134  205F                     movea.l    A0, [A7]+
00003136  544F                     addq.w     A7, 2
00003138  4ED0                     jmp        [A0]
fn0000313A:
0000313A  4E56 0000                link       A6, 0
0000313E  206D DBFC                movea.l    A0, [A5 - 0x2404]
00003142  2050                     movea.l    A0, [A0]
00003144  3028 0018                move.w     D0, [A0 + 0x18]
00003148  48C0                     ext.l      D0
0000314A  81FC 0100                divs.w     D0, 0x100
0000314E  4A40                     tst.w      D0
00003150  6B18                     bmi        +0x1A /* 0000316A */
00003152  B07C 0007                cmp.w      D0, 0x7
00003156  6E12                     bgt        +0x14 /* 0000316A */
00003158  41FA 001E                lea.l      A0, [PC + 0x1E /* 00003178, value 0x4E56FEE0 */]
0000315C  3200                     move.w     D1, D0
0000315E  E649                     lsr        D1.w, 3
00003160  4441                     neg.w      D1
00003162  0130 10FF                btst       [A0 + D1.w - 0x1], D0
00003166  0A3C 0004                xori.b     ccr, 4
label0000316A:
0000316A  57C0                     seq        D0
0000316C  4400                     neg.b      D0
0000316E  1D40 0008                move.b     [A6 + 0x8], D0
00003172  4E5E                     unlink     A6
00003174  4E75                     rts
00003176  003A 4E56 FEE0           ori.b      [PC - 0x120 /* 00003058, value 0xD0 */], 0x56 /* 'V' */
// begin alternate branch 00003178-0000317C
export_235:
fn00003178:
00003178  4E56 FEE0                link       A6, -0x0120
// end alternate branch 00003178-0000317C
export_235: // at 00003178 (misaligned)
fn00003178: // (misaligned)
0000317C  206E 0008                movea.l    A0, [A6 + 0x8]
00003180  43EE FF00                lea.l      A1, [A6 - 0x100]
00003184  703F                     moveq.l    D0, 0x3F
label00003186:
00003186  22D8                     move.l     [A1]+, [A0]+
00003188  51C8 FFFC                dbf        D0, -0x6 /* 00003186 */
0000318C  486E FEFC                pea.l      [A6 - 0x104]
00003190  A874                     syscall    GetPort
00003192  4267                     clr.w      -[A7]
00003194  4EBA DF28                jsr        [PC - 0x20D8 /* 000010BE */]
00003198  102D D7C1                move.b     D0, [A5 - 0x283F]
0000319C  6606                     bne        +0x8 /* 000031A4 */
0000319E  2F2D D736                move.l     -[A7], [A5 - 0x28CA]
000031A2  A873                     syscall    SetPort
label000031A4:
000031A4  486E FF00                pea.l      [A6 - 0x100]
000031A8  3F2D D7C2                move.w     -[A7], [A5 - 0x283E]
000031AC  4EBA E0A6                jsr        [PC - 0x1F5A /* 00001254 */]
000031B0  2F2E FEFC                move.l     -[A7], [A6 - 0x104]
000031B4  A873                     syscall    SetPort
000031B6  102D D7C1                move.b     D0, [A5 - 0x283F]
000031BA  6704                     beq        +0x6 /* 000031C0 */
000031BC  4EBA 04A0                jsr        [PC + 0x4A0 /* 0000365E */]
label000031C0:
000031C0  4EBA DF4C                jsr        [PC - 0x20B4 /* 0000110E */]
000031C4  2F2D D736                move.l     -[A7], [A5 - 0x28CA]
000031C8  4EAD 0142                jsr        [A5 + 0x142 /* export_36, CODE:1 @ 00003DD6 */]
000031CC  206D DBFC                movea.l    A0, [A5 - 0x2404]
000031D0  2050                     movea.l    A0, [A0]
000031D2  7001                     moveq.l    D0, 0x01
000031D4  B028 0044                cmp.b      D0, [A0 + 0x44]
000031D8  664C                     bne        +0x4E /* 00003226 */
000031DA  2F2D D736                move.l     -[A7], [A5 - 0x28CA]
000031DE  4EAD 0132                jsr        [A5 + 0x132 /* export_34, CODE:1 @ 00003DBA */]
000031E2  4267                     clr.w      -[A7]
000031E4  4EBA F26C                jsr        [PC - 0xD94 /* 00002452 */]
000031E8  4A5F                     tst.w      [A7]+
000031EA  663A                     bne        +0x3C /* 00003226 */
000031EC  2F2D DBFC                move.l     -[A7], [A5 - 0x2404]
000031F0  42A7                     clr.l      -[A7]
000031F2  42A7                     clr.l      -[A7]
000031F4  42A7                     clr.l      -[A7]
000031F6  486E FEE0                pea.l      [A6 - 0x120]
000031FA  4EAD 0162                jsr        [A5 + 0x162 /* export_40, CODE:1 @ 00003E0E */]
000031FE  4267                     clr.w      -[A7]
00003200  4EBA F250                jsr        [PC - 0xDB0 /* 00002452 */]
00003204  3D5F FEFA                move.w     [A6 - 0x106], [A7]+
00003208  2F2D DBFC                move.l     -[A7], [A5 - 0x2404]
0000320C  3F2D D9D8                move.w     -[A7], [A5 - 0x2628]
00003210  4EBA 0F3C                jsr        [PC + 0xF3C /* 0000414E */]
00003214  42A7                     clr.l      -[A7]
00003216  2F2D DBFC                move.l     -[A7], [A5 - 0x2404]
0000321A  42A7                     clr.l      -[A7]
0000321C  42A7                     clr.l      -[A7]
0000321E  4EAD 012A                jsr        [A5 + 0x12A /* export_33, CODE:1 @ 00003DAC */]
00003222  2B5F D736                move.l     [A5 - 0x28CA], [A7]+
label00003226:
00003226  422D D7BF                clr.b      [A5 - 0x2841]
0000322A  526D D7C2                addq.w     [A5 - 0x283E], 1
0000322E  4E5E                     unlink     A6
00003230  2E9F                     move.l     [A7], [A7]+
00003232  4E75                     rts
fn00003234:
00003234  4E56 FFAA                link       A6, -0x0056
00003238  48E7 0308                movem.l    -[A7], D6,D7,A4
0000323C  206E 0018                movea.l    A0, [A6 + 0x18]
00003240  43EE FFF2                lea.l      A1, [A6 - 0xE]
00003244  22D8                     move.l     [A1]+, [A0]+
00003246  22D8                     move.l     [A1]+, [A0]+
00003248  22D8                     move.l     [A1]+, [A0]+
0000324A  3290                     move.w     [A1], [A0]
0000324C  206E 0014                movea.l    A0, [A6 + 0x14]
00003250  43EE FFE4                lea.l      A1, [A6 - 0x1C]
00003254  22D8                     move.l     [A1]+, [A0]+
00003256  22D8                     move.l     [A1]+, [A0]+
00003258  22D8                     move.l     [A1]+, [A0]+
0000325A  3290                     move.w     [A1], [A0]
0000325C  206E 0010                movea.l    A0, [A6 + 0x10]
00003260  43EE FFDC                lea.l      A1, [A6 - 0x24]
00003264  22D8                     move.l     [A1]+, [A0]+
00003266  22D8                     move.l     [A1]+, [A0]+
00003268  206E 000C                movea.l    A0, [A6 + 0xC]
0000326C  43EE FFD4                lea.l      A1, [A6 - 0x2C]
00003270  22D8                     move.l     [A1]+, [A0]+
00003272  22D8                     move.l     [A1]+, [A0]+
00003274  486E FFBA                pea.l      [A6 - 0x46]
00003278  302E FFDE                move.w     D0, [A6 - 0x22]
0000327C  E340                     asl        D0.w, 1
0000327E  3F00                     move.w     -[A7], D0
00003280  302E FFDC                move.w     D0, [A6 - 0x24]
00003284  E340                     asl        D0.w, 1
00003286  3F00                     move.w     -[A7], D0
00003288  302E FFE2                move.w     D0, [A6 - 0x1E]
0000328C  E340                     asl        D0.w, 1
0000328E  3F00                     move.w     -[A7], D0
00003290  302E FFE0                move.w     D0, [A6 - 0x20]
00003294  E340                     asl        D0.w, 1
00003296  3F00                     move.w     -[A7], D0
00003298  A8A7                     syscall    SetRect
0000329A  486E FFD4                pea.l      [A6 - 0x2C]
0000329E  302E FFD6                move.w     D0, [A6 - 0x2A]
000032A2  E340                     asl        D0.w, 1
000032A4  3F00                     move.w     -[A7], D0
000032A6  302E FFD4                move.w     D0, [A6 - 0x2C]
000032AA  E340                     asl        D0.w, 1
000032AC  3F00                     move.w     -[A7], D0
000032AE  302E FFDA                move.w     D0, [A6 - 0x26]
000032B2  E340                     asl        D0.w, 1
000032B4  3F00                     move.w     -[A7], D0
000032B6  302E FFD8                move.w     D0, [A6 - 0x28]
000032BA  E340                     asl        D0.w, 1
000032BC  3F00                     move.w     -[A7], D0
000032BE  A8A7                     syscall    SetRect
000032C0  42A7                     clr.l      -[A7]
000032C2  302E FFF6                move.w     D0, [A6 - 0xA]
000032C6  E340                     asl        D0.w, 1
000032C8  322E FFD8                move.w     D1, [A6 - 0x28]
000032CC  926E FFD4                sub.w      D1, [A6 - 0x2C]
000032D0  C1C1                     muls.w     D0, D1
000032D2  48C0                     ext.l      D0
000032D4  2F00                     move.l     -[A7], D0
000032D6  4EAD 18DA                jsr        [A5 + 0x18DA /* export_791, CODE:16 @ 00000896 */]
000032DA  285F                     movea.l    A4, [A7]+
000032DC  200C                     move.l     D0, A4
000032DE  660C                     bne        +0xE /* 000032EC */
000032E0  3F3C FF94                move.w     -[A7], 0xFF94
000032E4  4EBA F18E                jsr        [PC - 0xE72 /* 00002474 */]
000032E8  6000 00A4                bra        +0xA6 /* 0000338E */
label000032EC:
000032EC  302E FFDC                move.w     D0, [A6 - 0x24]
000032F0  906E FFF8                sub.w      D0, [A6 - 0x8]
000032F4  48C0                     ext.l      D0
000032F6  2C00                     move.l     D6, D0
000032F8  302E FFF6                move.w     D0, [A6 - 0xA]
000032FC  48C0                     ext.l      D0
000032FE  2F00                     move.l     -[A7], D0
00003300  2F06                     move.l     -[A7], D6
00003302  4EAD 04EA                jsr        [A5 + 0x4EA /* export_153, CODE:1 @ 000051F0 */]
00003306  201F                     move.l     D0, [A7]+
00003308  D0AE FFF2                add.l      D0, [A6 - 0xE]
0000330C  2D40 FFB6                move.l     [A6 - 0x4A], D0
00003310  2D54 FFB2                move.l     [A6 - 0x4E], [A4]
00003314  302E FFE0                move.w     D0, [A6 - 0x20]
00003318  906E FFDC                sub.w      D0, [A6 - 0x24]
0000331C  3D40 FFAA                move.w     [A6 - 0x56], D0
00003320  7E01                     moveq.l    D7, 0x01
00003322  6014                     bra        +0x16 /* 00003338 */
label00003324:
00003324  486E FFB6                pea.l      [A6 - 0x4A]
00003328  486E FFB2                pea.l      [A6 - 0x4E]
0000332C  3F2E FFF6                move.w     -[A7], [A6 - 0xA]
00003330  4EBA 182A                jsr        [PC + 0x182A /* 00004B5C */]
00003334  5247                     addq.w     D7, 1
00003336  6906                     bvs        +0x8 /* 0000333E */
label00003338:
00003338  BE6E FFAA                cmp.w      D7, [A6 - 0x56]
0000333C  6FE6                     ble        -0x18 /* 00003324 */
label0000333E:
0000333E  2F0C                     move.l     -[A7], A4
00003340  4EAD 0222                jsr        [A5 + 0x222 /* export_64, CODE:1 @ 00004678 */]
00003344  2D54 FFC2                move.l     [A6 - 0x3E], [A4]
00003348  486E FFC8                pea.l      [A6 - 0x38]
0000334C  302E FFFA                move.w     D0, [A6 - 0x6]
00003350  E340                     asl        D0.w, 1
00003352  3F00                     move.w     -[A7], D0
00003354  3F2E FFBA                move.w     -[A7], [A6 - 0x46]
00003358  302E FFFE                move.w     D0, [A6 - 0x2]
0000335C  E340                     asl        D0.w, 1
0000335E  3F00                     move.w     -[A7], D0
00003360  3F2E FFBE                move.w     -[A7], [A6 - 0x42]
00003364  A8A7                     syscall    SetRect
00003366  302E FFF6                move.w     D0, [A6 - 0xA]
0000336A  E340                     asl        D0.w, 1
0000336C  3D40 FFC6                move.w     [A6 - 0x3A], D0
00003370  486E FFC2                pea.l      [A6 - 0x3E]
00003374  486E FFE4                pea.l      [A6 - 0x1C]
00003378  486E FFBA                pea.l      [A6 - 0x46]
0000337C  486E FFD4                pea.l      [A6 - 0x2C]
00003380  3F3C 0001                move.w     -[A7], 0x1
00003384  42A7                     clr.l      -[A7]
00003386  A8EC                     syscall    CopyBits
00003388  2F0C                     move.l     -[A7], A4
0000338A  4EAD 18D2                jsr        [A5 + 0x18D2 /* export_790, CODE:16 @ 0000083E */]
label0000338E:
0000338E  4CDF 10C0                movem.l    D6,D7,A4, [A7]+
00003392  4E5E                     unlink     A6
00003394  205F                     movea.l    A0, [A7]+
00003396  DEFC 0014                add.w      A7, 0x14
0000339A  4ED0                     jmp        [A0]
fn0000339C:
0000339C  4E56 FFC4                link       A6, -0x003C
000033A0  206E 0018                movea.l    A0, [A6 + 0x18]
000033A4  43EE FFF2                lea.l      A1, [A6 - 0xE]
000033A8  22D8                     move.l     [A1]+, [A0]+
000033AA  22D8                     move.l     [A1]+, [A0]+
000033AC  22D8                     move.l     [A1]+, [A0]+
000033AE  3290                     move.w     [A1], [A0]
000033B0  206E 0014                movea.l    A0, [A6 + 0x14]
000033B4  43EE FFE4                lea.l      A1, [A6 - 0x1C]
000033B8  22D8                     move.l     [A1]+, [A0]+
000033BA  22D8                     move.l     [A1]+, [A0]+
000033BC  22D8                     move.l     [A1]+, [A0]+
000033BE  3290                     move.w     [A1], [A0]
000033C0  206E 0010                movea.l    A0, [A6 + 0x10]
000033C4  43EE FFDC                lea.l      A1, [A6 - 0x24]
000033C8  22D8                     move.l     [A1]+, [A0]+
000033CA  22D8                     move.l     [A1]+, [A0]+
000033CC  206E 000C                movea.l    A0, [A6 + 0xC]
000033D0  43EE FFD4                lea.l      A1, [A6 - 0x2C]
000033D4  22D8                     move.l     [A1]+, [A0]+
000033D6  22D8                     move.l     [A1]+, [A0]+
000033D8  4EAD 181A                jsr        [A5 + 0x181A /* export_767, CODE:16 @ 00000216 */]
000033DC  486E FFC4                pea.l      [A6 - 0x3C]
000033E0  3F2E FFDE                move.w     -[A7], [A6 - 0x22]
000033E4  302E FFDC                move.w     D0, [A6 - 0x24]
000033E8  907C 0010                sub.w      D0, 0x10
000033EC  3F00                     move.w     -[A7], D0
000033EE  3F2E FFE2                move.w     -[A7], [A6 - 0x1E]
000033F2  3F2E FFDC                move.w     -[A7], [A6 - 0x24]
000033F6  A8A7                     syscall    SetRect
000033F8  486E FFCC                pea.l      [A6 - 0x34]
000033FC  3F2E FFD6                move.w     -[A7], [A6 - 0x2A]
00003400  302E FFD4                move.w     D0, [A6 - 0x2C]
00003404  907C 0010                sub.w      D0, 0x10
00003408  3F00                     move.w     -[A7], D0
0000340A  3F2E FFDA                move.w     -[A7], [A6 - 0x26]
0000340E  3F2E FFD4                move.w     -[A7], [A6 - 0x2C]
00003412  A8A7                     syscall    SetRect
label00003414:
00003414  486E FFC4                pea.l      [A6 - 0x3C]
00003418  2F3C 0010 0000           move.l     -[A7], 0x100000
0000341E  A8A8                     syscall    OffsetRect
00003420  302E FFC8                move.w     D0, [A6 - 0x38]
00003424  B06E FFE0                cmp.w      D0, [A6 - 0x20]
00003428  6F06                     ble        +0x8 /* 00003430 */
0000342A  3D6E FFE0 FFC8           move.w     [A6 - 0x38], [A6 - 0x20]
label00003430:
00003430  486E FFCC                pea.l      [A6 - 0x34]
00003434  2F3C 0010 0000           move.l     -[A7], 0x100000
0000343A  A8A8                     syscall    OffsetRect
0000343C  302E FFD0                move.w     D0, [A6 - 0x30]
00003440  B06E FFD8                cmp.w      D0, [A6 - 0x28]
00003444  6F06                     ble        +0x8 /* 0000344C */
00003446  3D6E FFD8 FFD0           move.w     [A6 - 0x30], [A6 - 0x28]
label0000344C:
0000344C  102D DC28                move.b     D0, [A5 - 0x23D8]
00003450  671A                     beq        +0x1C /* 0000346C */
00003452  486E FFF2                pea.l      [A6 - 0xE]
00003456  486E FFE4                pea.l      [A6 - 0x1C]
0000345A  486E FFC4                pea.l      [A6 - 0x3C]
0000345E  486E FFCC                pea.l      [A6 - 0x34]
00003462  2F2E 0008                move.l     -[A7], [A6 + 0x8]
00003466  4EBA FDCC                jsr        [PC - 0x234 /* 00003234 */]
0000346A  6018                     bra        +0x1A /* 00003484 */
label0000346C:
0000346C  486E FFF2                pea.l      [A6 - 0xE]
00003470  486E FFE4                pea.l      [A6 - 0x1C]
00003474  486E FFC4                pea.l      [A6 - 0x3C]
00003478  486E FFCC                pea.l      [A6 - 0x34]
0000347C  3F3C 0001                move.w     -[A7], 0x1
00003480  42A7                     clr.l      -[A7]
00003482  A8EC                     syscall    CopyBits
label00003484:
00003484  4EBA 15C2                jsr        [PC + 0x15C2 /* 00004A48 */]
00003488  4EAD 181A                jsr        [A5 + 0x181A /* export_767, CODE:16 @ 00000216 */]
0000348C  302E FFC8                move.w     D0, [A6 - 0x38]
00003490  B06E FFE0                cmp.w      D0, [A6 - 0x20]
00003494  57C0                     seq        D0
00003496  2F00                     move.l     -[A7], D0
00003498  4267                     clr.w      -[A7]
0000349A  4EBA EFB6                jsr        [PC - 0x104A /* 00002452 */]
0000349E  321F                     move.w     D1, [A7]+
000034A0  201F                     move.l     D0, [A7]+
000034A2  4A41                     tst.w      D1
000034A4  56C1                     sne        D1
000034A6  8001                     or.b       D0, D1
000034A8  6700 FF6A                beq        -0x94 /* 00003414 */
000034AC  4E5E                     unlink     A6
000034AE  205F                     movea.l    A0, [A7]+
000034B0  DEFC 0014                add.w      A7, 0x14
000034B4  4ED0                     jmp        [A0]
fn000034B6:
000034B6  4E56 FFB2                link       A6, -0x004E
000034BA  48E7 0718                movem.l    -[A7], D5,D6,D7,A3,A4
000034BE  206E 0010                movea.l    A0, [A6 + 0x10]
000034C2  43EE FFF2                lea.l      A1, [A6 - 0xE]
000034C6  22D8                     move.l     [A1]+, [A0]+
000034C8  22D8                     move.l     [A1]+, [A0]+
000034CA  22D8                     move.l     [A1]+, [A0]+
000034CC  3290                     move.w     [A1], [A0]
000034CE  206E 000C                movea.l    A0, [A6 + 0xC]
000034D2  43EE FFE4                lea.l      A1, [A6 - 0x1C]
000034D6  22D8                     move.l     [A1]+, [A0]+
000034D8  22D8                     move.l     [A1]+, [A0]+
000034DA  22D8                     move.l     [A1]+, [A0]+
000034DC  3290                     move.w     [A1], [A0]
000034DE  486E FFB2                pea.l      [A6 - 0x4E]
000034E2  3F2E FFF8                move.w     -[A7], [A6 - 0x8]
000034E6  3F2E FFFA                move.w     -[A7], [A6 - 0x6]
000034EA  3F2E FFFC                move.w     -[A7], [A6 - 0x4]
000034EE  3F2E FFFE                move.w     -[A7], [A6 - 0x2]
000034F2  A8A7                     syscall    SetRect
000034F4  4267                     clr.w      -[A7]
000034F6  302E FFB8                move.w     D0, [A6 - 0x48]
000034FA  906E FFB4                sub.w      D0, [A6 - 0x4C]
000034FE  3F00                     move.w     -[A7], D0
00003500  4EBA EDC8                jsr        [PC - 0x1238 /* 000022CA */]
00003504  3D5F FFDA                move.w     [A6 - 0x26], [A7]+
00003508  302E FFDA                move.w     D0, [A6 - 0x26]
0000350C  E540                     asl        D0.w, 2
0000350E  48C0                     ext.l      D0
00003510  2E00                     move.l     D7, D0
00003512  2A07                     move.l     D5, D7
00003514  E585                     asl        D5, 2
00003516  42A7                     clr.l      -[A7]
00003518  2F05                     move.l     -[A7], D5
0000351A  4EAD 18DA                jsr        [A5 + 0x18DA /* export_791, CODE:16 @ 00000896 */]
0000351E  285F                     movea.l    A4, [A7]+
00003520  200C                     move.l     D0, A4
00003522  660C                     bne        +0xE /* 00003530 */
00003524  3F3C FF94                move.w     -[A7], 0xFF94
00003528  4EBA EF4A                jsr        [PC - 0x10B6 /* 00002474 */]
0000352C  6000 0122                bra        +0x124 /* 00003650 */
label00003530:
00003530  2F0C                     move.l     -[A7], A4
00003532  4EAD 01DA                jsr        [A5 + 0x1DA /* export_55, CODE:1 @ 000043FE */]
00003536  2F0C                     move.l     -[A7], A4
00003538  4EAD 0222                jsr        [A5 + 0x222 /* export_64, CODE:1 @ 00004678 */]
0000353C  2D54 FFD6                move.l     [A6 - 0x2A], [A4]
00003540  41EE FFDC                lea.l      A0, [A6 - 0x24]
00003544  43EE FFB2                lea.l      A1, [A6 - 0x4E]
00003548  20D9                     move.l     [A0]+, [A1]+
0000354A  20D9                     move.l     [A0]+, [A1]+
0000354C  426E FFDC                clr.w      [A6 - 0x24]
00003550  3D7C 0010 FFE0           move.w     [A6 - 0x20], 0x10
00003556  41EE FFBE                lea.l      A0, [A6 - 0x42]
0000355A  43EE FFB2                lea.l      A1, [A6 - 0x4E]
0000355E  20D9                     move.l     [A0]+, [A1]+
00003560  20D9                     move.l     [A0]+, [A1]+
00003562  302E FFBE                move.w     D0, [A6 - 0x42]
00003566  D07C 0010                add.w      D0, 0x10
0000356A  3D40 FFC2                move.w     [A6 - 0x3E], D0
0000356E  486E FFBE                pea.l      [A6 - 0x42]
00003572  2F3C FFF0 0000           move.l     -[A7], 0xFFF00000
00003578  A8A8                     syscall    OffsetRect
0000357A  302E FFFC                move.w     D0, [A6 - 0x4]
0000357E  906E FFF8                sub.w      D0, [A6 - 0x8]
00003582  48C0                     ext.l      D0
00003584  2C00                     move.l     D6, D0
00003586  302E FFF6                move.w     D0, [A6 - 0xA]
0000358A  48C0                     ext.l      D0
0000358C  2206                     move.l     D1, D6
0000358E  5381                     subq.l     D1, 1
00003590  2F00                     move.l     -[A7], D0
00003592  2F01                     move.l     -[A7], D1
00003594  4EAD 04EA                jsr        [A5 + 0x4EA /* export_153, CODE:1 @ 000051F0 */]
00003598  265F                     movea.l    A3, [A7]+
0000359A  D7EE FFF2                add.l      A3, [A6 - 0xE]
label0000359E:
0000359E  2F14                     move.l     -[A7], [A4]
000035A0  2F07                     move.l     -[A7], D7
000035A2  4EAD 1B4A                jsr        [A5 + 0x1B4A /* export_869, CODE:16 @ 00001E9C */]
000035A6  4EAD 181A                jsr        [A5 + 0x181A /* export_767, CODE:16 @ 00000216 */]
000035AA  2F0B                     move.l     -[A7], A3
000035AC  3F2E FFF6                move.w     -[A7], [A6 - 0xA]
000035B0  3F06                     move.w     -[A7], D6
000035B2  2F2E FFD6                move.l     -[A7], [A6 - 0x2A]
000035B6  3F2E FFDA                move.w     -[A7], [A6 - 0x26]
000035BA  4EBA 1886                jsr        [PC + 0x1886 /* 00004E42 */]
000035BE  486E FFBE                pea.l      [A6 - 0x42]
000035C2  2F3C 0010 0000           move.l     -[A7], 0x100000
000035C8  A8A8                     syscall    OffsetRect
000035CA  302E FFC2                move.w     D0, [A6 - 0x3E]
000035CE  B06E FFB6                cmp.w      D0, [A6 - 0x4A]
000035D2  6F16                     ble        +0x18 /* 000035EA */
000035D4  3D6E FFB6 FFC2           move.w     [A6 - 0x3E], [A6 - 0x4A]
000035DA  302E FFC2                move.w     D0, [A6 - 0x3E]
000035DE  906E FFBE                sub.w      D0, [A6 - 0x42]
000035E2  D06E FFDC                add.w      D0, [A6 - 0x24]
000035E6  3D40 FFE0                move.w     [A6 - 0x20], D0
label000035EA:
000035EA  4EAD 181A                jsr        [A5 + 0x181A /* export_767, CODE:16 @ 00000216 */]
000035EE  102D DC28                move.b     D0, [A5 - 0x23D8]
000035F2  671A                     beq        +0x1C /* 0000360E */
000035F4  486E FFD6                pea.l      [A6 - 0x2A]
000035F8  486E FFE4                pea.l      [A6 - 0x1C]
000035FC  486E FFDC                pea.l      [A6 - 0x24]
00003600  486E FFBE                pea.l      [A6 - 0x42]
00003604  2F2E 0008                move.l     -[A7], [A6 + 0x8]
00003608  4EBA FC2A                jsr        [PC - 0x3D6 /* 00003234 */]
0000360C  6016                     bra        +0x18 /* 00003624 */
label0000360E:
0000360E  486E FFD6                pea.l      [A6 - 0x2A]
00003612  486E FFE4                pea.l      [A6 - 0x1C]
00003616  486E FFDC                pea.l      [A6 - 0x24]
0000361A  486E FFBE                pea.l      [A6 - 0x42]
0000361E  4267                     clr.w      -[A7]
00003620  42A7                     clr.l      -[A7]
00003622  A8EC                     syscall    CopyBits
label00003624:
00003624  548B                     addq.l     A3, 2
00003626  4EBA 1420                jsr        [PC + 0x1420 /* 00004A48 */]
0000362A  302E FFC2                move.w     D0, [A6 - 0x3E]
0000362E  B06E FFB6                cmp.w      D0, [A6 - 0x4A]
00003632  57C0                     seq        D0
00003634  2F00                     move.l     -[A7], D0
00003636  4267                     clr.w      -[A7]
00003638  4EBA EE18                jsr        [PC - 0x11E8 /* 00002452 */]
0000363C  321F                     move.w     D1, [A7]+
0000363E  201F                     move.l     D0, [A7]+
00003640  4A41                     tst.w      D1
00003642  56C1                     sne        D1
00003644  8001                     or.b       D0, D1
00003646  6700 FF56                beq        -0xA8 /* 0000359E */
0000364A  2F0C                     move.l     -[A7], A4
0000364C  4EAD 18D2                jsr        [A5 + 0x18D2 /* export_790, CODE:16 @ 0000083E */]
label00003650:
00003650  4CDF 18E0                movem.l    D5,D6,D7,A3,A4, [A7]+
00003654  4E5E                     unlink     A6
00003656  205F                     movea.l    A0, [A7]+
00003658  DEFC 000C                add.w      A7, 0xC
0000365C  4ED0                     jmp        [A0]
fn0000365E:
0000365E  4E56 FFF8                link       A6, -0x0008
00003662  2F07                     move.l     -[A7], D7
00003664  3F2D D7C2                move.w     -[A7], [A5 - 0x283E]
00003668  4EBA 0D1E                jsr        [PC + 0xD1E /* 00004388 */]
0000366C  486E FFFA                pea.l      [A6 - 0x6]
00003670  A874                     syscall    GetPort
00003672  2F2D D736                move.l     -[A7], [A5 - 0x28CA]
00003676  A873                     syscall    SetPort
00003678  4267                     clr.w      -[A7]
0000367A  4EBA 147A                jsr        [PC + 0x147A /* 00004AF6 */]
0000367E  101F                     move.b     D0, [A7]+
00003680  C02D DC2C                and.b      D0, [A5 - 0x23D4]
00003684  6714                     beq        +0x16 /* 0000369A */
00003686  486D D720                pea.l      [A5 - 0x28E0]
0000368A  206D D736                movea.l    A0, [A5 - 0x28CA]
0000368E  4868 0002                pea.l      [A0 + 0x2]
00003692  2F0E                     move.l     -[A7], A6
00003694  4EBA FE20                jsr        [PC - 0x1E0 /* 000034B6 */]
00003698  601A                     bra        +0x1C /* 000036B4 */
label0000369A:
0000369A  486D D720                pea.l      [A5 - 0x28E0]
0000369E  206D D736                movea.l    A0, [A5 - 0x28CA]
000036A2  4868 0002                pea.l      [A0 + 0x2]
000036A6  486D D726                pea.l      [A5 - 0x28DA]
000036AA  486D D726                pea.l      [A5 - 0x28DA]
000036AE  2F0E                     move.l     -[A7], A6
000036B0  4EBA FCEA                jsr        [PC - 0x316 /* 0000339C */]
label000036B4:
000036B4  206D DBFC                movea.l    A0, [A5 - 0x2404]
000036B8  2050                     movea.l    A0, [A0]
000036BA  7001                     moveq.l    D0, 0x01
000036BC  B068 0042                cmp.w      D0, [A0 + 0x42]
000036C0  6C00 0092                bge        +0x94 /* 00003754 */
000036C4  206D DBFC                movea.l    A0, [A5 - 0x2404]
000036C8  2050                     movea.l    A0, [A0]
000036CA  3028 0042                move.w     D0, [A0 + 0x42]
000036CE  5340                     subq.w     D0, 1
000036D0  3D40 FFF8                move.w     [A6 - 0x8], D0
000036D4  7E01                     moveq.l    D7, 0x01
000036D6  6076                     bra        +0x78 /* 0000374E */
label000036D8:
000036D8  4267                     clr.w      -[A7]
000036DA  4EBA ED76                jsr        [PC - 0x128A /* 00002452 */]
000036DE  4A5F                     tst.w      [A7]+
000036E0  6672                     bne        +0x74 /* 00003754 */
000036E2  2F2D D736                move.l     -[A7], [A5 - 0x28CA]
000036E6  4EAD 0142                jsr        [A5 + 0x142 /* export_36, CODE:1 @ 00003DD6 */]
000036EA  4267                     clr.w      -[A7]
000036EC  4EBA ED64                jsr        [PC - 0x129C /* 00002452 */]
000036F0  4A5F                     tst.w      [A7]+
000036F2  6706                     beq        +0x8 /* 000036FA */
000036F4  422D D7BF                clr.b      [A5 - 0x2841]
000036F8  605A                     bra        +0x5C /* 00003754 */
label000036FA:
000036FA  2F2D D736                move.l     -[A7], [A5 - 0x28CA]
000036FE  42A7                     clr.l      -[A7]
00003700  4EAD 013A                jsr        [A5 + 0x13A /* export_35, CODE:1 @ 00003DC8 */]
00003704  4267                     clr.w      -[A7]
00003706  4EBA ED4A                jsr        [PC - 0x12B6 /* 00002452 */]
0000370A  4A5F                     tst.w      [A7]+
0000370C  663C                     bne        +0x3E /* 0000374A */
0000370E  4267                     clr.w      -[A7]
00003710  4EBA 13E4                jsr        [PC + 0x13E4 /* 00004AF6 */]
00003714  101F                     move.b     D0, [A7]+
00003716  C02D DC2C                and.b      D0, [A5 - 0x23D4]
0000371A  6714                     beq        +0x16 /* 00003730 */
0000371C  486D D720                pea.l      [A5 - 0x28E0]
00003720  206D D736                movea.l    A0, [A5 - 0x28CA]
00003724  4868 0002                pea.l      [A0 + 0x2]
00003728  2F0E                     move.l     -[A7], A6
0000372A  4EBA FD8A                jsr        [PC - 0x276 /* 000034B6 */]
0000372E  601A                     bra        +0x1C /* 0000374A */
label00003730:
00003730  486D D720                pea.l      [A5 - 0x28E0]
00003734  206D D736                movea.l    A0, [A5 - 0x28CA]
00003738  4868 0002                pea.l      [A0 + 0x2]
0000373C  486D D726                pea.l      [A5 - 0x28DA]
00003740  486D D726                pea.l      [A5 - 0x28DA]
00003744  2F0E                     move.l     -[A7], A6
00003746  4EBA FC54                jsr        [PC - 0x3AC /* 0000339C */]
label0000374A:
0000374A  5247                     addq.w     D7, 1
0000374C  6906                     bvs        +0x8 /* 00003754 */
label0000374E:
0000374E  BE6E FFF8                cmp.w      D7, [A6 - 0x8]
00003752  6F84                     ble        -0x7A /* 000036D8 */
label00003754:
00003754  2F2E FFFA                move.l     -[A7], [A6 - 0x6]
00003758  A873                     syscall    SetPort
0000375A  2E1F                     move.l     D7, [A7]+
0000375C  4E5E                     unlink     A6
0000375E  4E75                     rts
fn00003760:
00003760  4E56 0000                link       A6, 0
00003764  4267                     clr.w      -[A7]
00003766  4EBA EA0C                jsr        [PC - 0x15F4 /* 00002174 */]
0000376A  101F                     move.b     D0, [A7]+
0000376C  670E                     beq        +0x10 /* 0000377C */
0000376E  4EAD 084A                jsr        [A5 + 0x84A /* export_261, CODE:6 @ 0000204A */]
00003772  486D 084A                pea.l      [A5 + 0x84A /* export_261, CODE:6 @ 0000204A */]
00003776  A9F1                     syscall    UnloadSeg
00003778  4EBA E008                jsr        [PC - 0x1FF8 /* 00001782 */]
label0000377C:
0000377C  4E5E                     unlink     A6
0000377E  4E75                     rts
fn00003780:
00003780  4E56 0000                link       A6, 0
00003784  4267                     clr.w      -[A7]
00003786  4EBA E9EC                jsr        [PC - 0x1614 /* 00002174 */]
0000378A  101F                     move.b     D0, [A7]+
0000378C  6712                     beq        +0x14 /* 000037A0 */
0000378E  1F2E 0008                move.b     -[A7], [A6 + 0x8]
00003792  4EAD 0852                jsr        [A5 + 0x852 /* export_262, CODE:6 @ 000026F2 */]
00003796  486D 0852                pea.l      [A5 + 0x852 /* export_262, CODE:6 @ 000026F2 */]
0000379A  A9F1                     syscall    UnloadSeg
0000379C  4EBA DFE4                jsr        [PC - 0x201C /* 00001782 */]
label000037A0:
000037A0  4E5E                     unlink     A6
000037A2  205F                     movea.l    A0, [A7]+
000037A4  544F                     addq.w     A7, 2
000037A6  4ED0                     jmp        [A0]
fn000037A8:
000037A8  4E56 FDE4                link       A6, -0x021C
000037AC  2F0C                     move.l     -[A7], A4
000037AE  286E 0008                movea.l    A4, [A6 + 0x8]
000037B2  3F2D D7C2                move.w     -[A7], [A5 - 0x283E]
000037B6  4EBA 0B96                jsr        [PC + 0xB96 /* 0000434E */]
000037BA  41EC FEE2                lea.l      A0, [A4 - 0x11E]
000037BE  43ED DC0C                lea.l      A1, [A5 - 0x23F4]
000037C2  20D9                     move.l     [A0]+, [A1]+
000037C4  20D9                     move.l     [A0]+, [A1]+
000037C6  4267                     clr.w      -[A7]
000037C8  1F3C 0001                move.b     -[A7], 0x1
000037CC  4EBA DE7C                jsr        [PC - 0x2184 /* 0000164A */]
000037D0  A887                     syscall    TextFont
000037D2  42A7                     clr.l      -[A7]
000037D4  4EBA DEE4                jsr        [PC - 0x211C /* 000016BA */]
000037D8  A88A                     syscall    TextSize
000037DA  102D F2B3                move.b     D0, [A5 - 0xD4D]
000037DE  6708                     beq        +0xA /* 000037E8 */
000037E0  3F2D F2BC                move.w     -[A7], [A5 - 0xD44]
000037E4  4EAD 21D2                jsr        [A5 + 0x21D2 /* export_1078, CODE:20 @ 00004516 */]
label000037E8:
000037E8  3F3A 01AE                move.w     -[A7], [PC + 0x1AE /* 00003998, value 0x0, cstring "" */]
000037EC  A888                     syscall    TextFace
000037EE  486C FEF2                pea.l      [A4 - 0x10E]
000037F2  A88B                     syscall    GetFontInfo
000037F4  302C FEF2                move.w     D0, [A4 - 0x10E]
000037F8  D06D DC0C                add.w      D0, [A5 - 0x23F4]
000037FC  3940 FED6                move.w     [A4 - 0x12A], D0
00003800  3F2D DC0E                move.w     -[A7], [A5 - 0x23F2]
00003804  3F2C FED6                move.w     -[A7], [A4 - 0x12A]
00003808  A893                     syscall    MoveTo
0000380A  486C FDD4                pea.l      [A4 - 0x22C]
0000380E  A884                     syscall    DrawString
00003810  486C FCD0                pea.l      [A4 - 0x330]
00003814  A89A                     syscall    GetPen
00003816  302C FEF2                move.w     D0, [A4 - 0x10E]
0000381A  D06C FCD2                add.w      D0, [A4 - 0x32E]
0000381E  322C FEF4                move.w     D1, [A4 - 0x10C]
00003822  D240                     add.w      D1, D0
00003824  3941 FEE4                move.w     [A4 - 0x11C], D1
00003828  206D DBF8                movea.l    A0, [A5 - 0x2408]
0000382C  2050                     movea.l    A0, [A0]
0000382E  3028 005E                move.w     D0, [A0 + 0x5E]
00003832  B06C FEDA                cmp.w      D0, [A4 - 0x126]
00003836  6F66                     ble        +0x68 /* 0000389E */
00003838  486E FDF8                pea.l      [A6 - 0x208]
0000383C  3F3C 0003                move.w     -[A7], 0x3
00003840  4EBA EAE6                jsr        [PC - 0x151A /* 00002328 */]
00003844  486E FDE4                pea.l      [A6 - 0x21C]
00003848  302D D7C2                move.w     D0, [A5 - 0x283E]
0000384C  48C0                     ext.l      D0
0000384E  2F00                     move.l     -[A7], D0
00003850  4EAD 1902                jsr        [A5 + 0x1902 /* export_796, CODE:16 @ 000009D4 */]
00003854  486E FEF8                pea.l      [A6 - 0x108]
00003858  3F3C 0002                move.w     -[A7], 0x2
0000385C  4EAD 050A                jsr        [A5 + 0x50A /* export_157, CODE:1 @ 0000531E */]
00003860  41EC FCD4                lea.l      A0, [A4 - 0x32C]
00003864  43EE FEF8                lea.l      A1, [A6 - 0x108]
00003868  703F                     moveq.l    D0, 0x3F
label0000386A:
0000386A  20D9                     move.l     [A0]+, [A1]+
0000386C  51C8 FFFC                dbf        D0, -0x6 /* 0000386A */
00003870  4267                     clr.w      -[A7]
00003872  486C FCD4                pea.l      [A4 - 0x32C]
00003876  3F3C 0001                move.w     -[A7], 0x1
0000387A  4240                     clr.w      D0
0000387C  102C FCD4                move.b     D0, [A4 - 0x32C]
00003880  3F00                     move.w     -[A7], D0
00003882  A886                     syscall    TextWidth
00003884  302D DC12                move.w     D0, [A5 - 0x23EE]
00003888  905F                     sub.w      D0, [A7]+
0000388A  3940 FEE8                move.w     [A4 - 0x118], D0
0000388E  3F2C FEE8                move.w     -[A7], [A4 - 0x118]
00003892  3F2C FED6                move.w     -[A7], [A4 - 0x12A]
00003896  A893                     syscall    MoveTo
00003898  486C FCD4                pea.l      [A4 - 0x32C]
0000389C  A884                     syscall    DrawString
label0000389E:
0000389E  4240                     clr.w      D0
000038A0  102C FF00                move.b     D0, [A4 - 0x100]
000038A4  4A40                     tst.w      D0
000038A6  6760                     beq        +0x62 /* 00003908 */
000038A8  302C FEF4                move.w     D0, [A4 - 0x10C]
000038AC  D06C FEF2                add.w      D0, [A4 - 0x10E]
000038B0  322C FEE8                move.w     D1, [A4 - 0x118]
000038B4  9240                     sub.w      D1, D0
000038B6  3941 FEE8                move.w     [A4 - 0x118], D1
000038BA  4267                     clr.w      -[A7]
000038BC  3F2C FEE4                move.w     -[A7], [A4 - 0x11C]
000038C0  302D DC0E                move.w     D0, [A5 - 0x23F2]
000038C4  D06D DC12                add.w      D0, [A5 - 0x23EE]
000038C8  2F00                     move.l     -[A7], D0
000038CA  4267                     clr.w      -[A7]
000038CC  486C FF00                pea.l      [A4 - 0x100]
000038D0  3F3C 0001                move.w     -[A7], 0x1
000038D4  4241                     clr.w      D1
000038D6  122C FF00                move.b     D1, [A4 - 0x100]
000038DA  3F01                     move.w     -[A7], D1
000038DC  A886                     syscall    TextWidth
000038DE  321F                     move.w     D1, [A7]+
000038E0  201F                     move.l     D0, [A7]+
000038E2  9041                     sub.w      D0, D1
000038E4  48C0                     ext.l      D0
000038E6  81FC 0002                divs.w     D0, 0x2
000038EA  3F00                     move.w     -[A7], D0
000038EC  4EAD 18BA                jsr        [A5 + 0x18BA /* export_787, CODE:16 @ 000007C6 */]
000038F0  3F2C FED6                move.w     -[A7], [A4 - 0x12A]
000038F4  A893                     syscall    MoveTo
000038F6  486C FEE2                pea.l      [A4 - 0x11E]
000038FA  A87B                     syscall    ClipRect
000038FC  486C FF00                pea.l      [A4 - 0x100]
00003900  A884                     syscall    DrawString
00003902  486D DC0C                pea.l      [A5 - 0x23F4]
00003906  A87B                     syscall    ClipRect
label00003908:
00003908  4267                     clr.w      -[A7]
0000390A  4EBA EB46                jsr        [PC - 0x14BA /* 00002452 */]
0000390E  4A5F                     tst.w      [A7]+
00003910  663E                     bne        +0x40 /* 00003950 */
00003912  2F3C 0000 009B           move.l     -[A7], 0x9B
00003918  42A7                     clr.l      -[A7]
0000391A  A8F2                     syscall    PicComment
0000391C  206D DBF8                movea.l    A0, [A5 - 0x2408]
00003920  2050                     movea.l    A0, [A0]
00003922  43EE FFF8                lea.l      A1, [A6 - 0x8]
00003926  5088                     addq.l     A0, 8
00003928  22D8                     move.l     [A1]+, [A0]+
0000392A  22D8                     move.l     [A1]+, [A0]+
0000392C  486E FFF8                pea.l      [A6 - 0x8]
00003930  2F2D DBF8                move.l     -[A7], [A5 - 0x2408]
00003934  A9D3                     syscall    TEUpdate
00003936  2F3C 0000 009C           move.l     -[A7], 0x9C
0000393C  42A7                     clr.l      -[A7]
0000393E  A8F2                     syscall    PicComment
00003940  206D DBF8                movea.l    A0, [A5 - 0x2408]
00003944  2050                     movea.l    A0, [A0]
00003946  2F08                     move.l     -[A7], A0
00003948  4267                     clr.w      -[A7]
0000394A  3F2C FEDE                move.w     -[A7], [A4 - 0x122]
0000394E  A8A8                     syscall    OffsetRect
label00003950:
00003950  2F2D D736                move.l     -[A7], [A5 - 0x28CA]
00003954  4EAD 0142                jsr        [A5 + 0x142 /* export_36, CODE:1 @ 00003DD6 */]
00003958  7001                     moveq.l    D0, 0x01
0000395A  B06D D7C2                cmp.w      D0, [A5 - 0x283E]
0000395E  5DC0                     slt        D0
00003960  C02D DC29                and.b      D0, [A5 - 0x23D7]
00003964  122D DC29                move.b     D1, [A5 - 0x23D7]
00003968  0A01 0001                xori.b     D1, 0x1
0000396C  342D D7C2                move.w     D2, [A5 - 0x283E]
00003970  B46C FED8                cmp.w      D2, [A4 - 0x128]
00003974  5DC2                     slt        D2
00003976  C202                     and.b      D1, D2
00003978  8001                     or.b       D0, D1
0000397A  6714                     beq        +0x16 /* 00003990 */
0000397C  4267                     clr.w      -[A7]
0000397E  4EBA EAD2                jsr        [PC - 0x152E /* 00002452 */]
00003982  4A5F                     tst.w      [A7]+
00003984  660A                     bne        +0xC /* 00003990 */
00003986  2F2D D736                move.l     -[A7], [A5 - 0x28CA]
0000398A  42A7                     clr.l      -[A7]
0000398C  4EAD 013A                jsr        [A5 + 0x13A /* export_35, CODE:1 @ 00003DC8 */]
label00003990:
00003990  285F                     movea.l    A4, [A7]+
00003992  4E5E                     unlink     A6
00003994  2E9F                     move.l     [A7], [A7]+
00003996  4E75                     rts
00003998  0000 4E56                ori.b      D0, 0x56 /* 'V' */
// begin alternate branch 0000399A-000039A2
export_236:
0000399A  4E56 FCAC                link       A6, -0x0354
0000399E  48E7 0F18                movem.l    -[A7], D4,D5,D6,D7,A3,A4
// end alternate branch 0000399A-000039A2
export_236: // at 0000399A (misaligned)
0000399C  FCAC 48E7                .extension 0xCAC <<F/2-3/6>> // unimplemented
000039A0  0F18                     btst       [A0]+, D7
000039A2  206E 0008                movea.l    A0, [A6 + 0x8]
000039A6  43EE FF00                lea.l      A1, [A6 - 0x100]
000039AA  703F                     moveq.l    D0, 0x3F
label000039AC:
000039AC  22D8                     move.l     [A1]+, [A0]+
000039AE  51C8 FFFC                dbf        D0, -0x6 /* 000039AC */
000039B2  282E 000C                move.l     D4, [A6 + 0xC]
000039B6  4267                     clr.w      -[A7]
000039B8  4EBA EABA                jsr        [PC - 0x1546 /* 00002474 */]
000039BC  4EBA E0FE                jsr        [PC - 0x1F02 /* 00001ABC */]
000039C0  4267                     clr.w      -[A7]
000039C2  4EBA EFAC                jsr        [PC - 0x1054 /* 00002970 */]
000039C6  101F                     move.b     D0, [A7]+
000039C8  6604                     bne        +0x6 /* 000039CE */
000039CA  6000 044C                bra        +0x44E /* 00003E18 */
label000039CE:
000039CE  486E FEFC                pea.l      [A6 - 0x104]
000039D2  A874                     syscall    GetPort
000039D4  4EBA CB2C                jsr        [PC - 0x34D4 /* 00000502 */]
000039D8  2044                     movea.l    A0, D4
000039DA  2050                     movea.l    A0, [A0]
000039DC  4A68 003C                tst.w      [A0 + 0x3C]
000039E0  6E04                     bgt        +0x6 /* 000039E6 */
000039E2  6000 0434                bra        +0x436 /* 00003E18 */
label000039E6:
000039E6  102D DC2D                move.b     D0, [A5 - 0x23D3]
000039EA  6604                     bne        +0x6 /* 000039F0 */
000039EC  4EBA EB96                jsr        [PC - 0x146A /* 00002584 */]
label000039F0:
000039F0  4267                     clr.w      -[A7]
000039F2  4EBA E780                jsr        [PC - 0x1880 /* 00002174 */]
000039F6  101F                     move.b     D0, [A7]+
000039F8  6604                     bne        +0x6 /* 000039FE */
000039FA  6000 041C                bra        +0x41E /* 00003E18 */
label000039FE:
000039FE  4267                     clr.w      -[A7]
00003A00  4EBA DEBC                jsr        [PC - 0x2144 /* 000018BE */]
00003A04  A834                     syscall    SetFScaleDisable
00003A06  4EBA DA08                jsr        [PC - 0x25F8 /* 00001410 */]
00003A0A  1D7C 0003 FCD4           move.b     [A6 - 0x32C], 0x3
00003A10  1D7C 0002 FCD5           move.b     [A6 - 0x32B], 0x2
00003A16  1D7C 0020 FCD6           move.b     [A6 - 0x32A], 0x20 /* ' ' */
00003A1C  1D7C 0004 FCD7           move.b     [A6 - 0x329], 0x4
00003A22  486E FCD4                pea.l      [A6 - 0x32C]
00003A26  486E FDD4                pea.l      [A6 - 0x22C]
00003A2A  4EBA DEDA                jsr        [PC - 0x2126 /* 00001906 */]
00003A2E  4EAD 018A                jsr        [A5 + 0x18A /* export_45, CODE:1 @ 00003E54 */]
00003A32  4267                     clr.w      -[A7]
00003A34  4EBA EA1C                jsr        [PC - 0x15E4 /* 00002452 */]
00003A38  3D5F FED4                move.w     [A6 - 0x12C], [A7]+
00003A3C  4267                     clr.w      -[A7]
00003A3E  2F2D DBFC                move.l     -[A7], [A5 - 0x2404]
00003A42  4EAD 015A                jsr        [A5 + 0x15A /* export_39, CODE:1 @ 00003E00 */]
00003A46  1D5F FEFB                move.b     [A6 - 0x105], [A7]+
00003A4A  4EBA D5AC                jsr        [PC - 0x2A54 /* 00000FF8 */]
00003A4E  4267                     clr.w      -[A7]
00003A50  4EBA C644                jsr        [PC - 0x39BC /* 00000096 */]
00003A54  101F                     move.b     D0, [A7]+
00003A56  670C                     beq        +0xE /* 00003A64 */
00003A58  4267                     clr.w      -[A7]
00003A5A  2F2D DBFC                move.l     -[A7], [A5 - 0x2404]
00003A5E  4EBA 0A44                jsr        [PC + 0xA44 /* 000044A4 */]
00003A62  600C                     bra        +0xE /* 00003A70 */
label00003A64:
00003A64  3F3C 0048                move.w     -[A7], 0x48 /* 'H' */
00003A68  2F2D DBFC                move.l     -[A7], [A5 - 0x2404]
00003A6C  4EBA 0A36                jsr        [PC + 0xA36 /* 000044A4 */]
label00003A70:
00003A70  2F2D DBFC                move.l     -[A7], [A5 - 0x2404]
00003A74  3F3C 0001                move.w     -[A7], 0x1
00003A78  4EBA 06D4                jsr        [PC + 0x6D4 /* 0000414E */]
00003A7C  4267                     clr.w      -[A7]
00003A7E  4EBA 0762                jsr        [PC + 0x762 /* 000041E2 */]
00003A82  1F2D DC2C                move.b     -[A7], [A5 - 0x23D4]
00003A86  4EBA 09B8                jsr        [PC + 0x9B8 /* 00004440 */]
00003A8A  4EBA 08AC                jsr        [PC + 0x8AC /* 00004338 */]
00003A8E  4267                     clr.w      -[A7]
00003A90  4EBA DE2C                jsr        [PC - 0x21D4 /* 000018BE */]
00003A94  101F                     move.b     D0, [A7]+
00003A96  673A                     beq        +0x3C /* 00003AD2 */
00003A98  4267                     clr.w      -[A7]
00003A9A  1F3C 0001                move.b     -[A7], 0x1
00003A9E  4EBA 03BA                jsr        [PC + 0x3BA /* 00003E5A */]
00003AA2  101F                     move.b     D0, [A7]+
00003AA4  6720                     beq        +0x22 /* 00003AC6 */
00003AA6  206D DBFC                movea.l    A0, [A5 - 0x2404]
00003AAA  2050                     movea.l    A0, [A0]
00003AAC  41E8 0018                lea.l      A0, [A0 + 0x18]
00003AB0  0250 FFFE                andi.w     [A0], 0xFFFE
00003AB4  0050 0001                ori.w      [A0], 0x1
00003AB8  206D DBFC                movea.l    A0, [A5 - 0x2404]
00003ABC  2050                     movea.l    A0, [A0]
00003ABE  0268 FFDF 0018           andi.w     [A0 + 0x18], 0xFFDF
00003AC4  600C                     bra        +0xE /* 00003AD2 */
label00003AC6:
00003AC6  206D DBFC                movea.l    A0, [A5 - 0x2404]
00003ACA  2050                     movea.l    A0, [A0]
00003ACC  0268 FFFE 0018           andi.w     [A0 + 0x18], 0xFFFE
label00003AD2:
00003AD2  4267                     clr.w      -[A7]
00003AD4  2F2D DBFC                move.l     -[A7], [A5 - 0x2404]
00003AD8  4EAD 015A                jsr        [A5 + 0x15A /* export_39, CODE:1 @ 00003E00 */]
00003ADC  1D5F FEFB                move.b     [A6 - 0x105], [A7]+
00003AE0  4267                     clr.w      -[A7]
00003AE2  4EBA E96E                jsr        [PC - 0x1692 /* 00002452 */]
00003AE6  4A5F                     tst.w      [A7]+
00003AE8  6600 02CE                bne        +0x2D0 /* 00003DB8 */
00003AEC  206D DBFC                movea.l    A0, [A5 - 0x2404]
00003AF0  2050                     movea.l    A0, [A0]
00003AF2  43ED DC0C                lea.l      A1, [A5 - 0x23F4]
00003AF6  5088                     addq.l     A0, 8
00003AF8  22D8                     move.l     [A1]+, [A0]+
00003AFA  22D8                     move.l     [A1]+, [A0]+
00003AFC  4267                     clr.w      -[A7]
00003AFE  4EBA DD4A                jsr        [PC - 0x22B6 /* 0000184A */]
00003B02  7003                     moveq.l    D0, 0x03
00003B04  C1DF                     muls.w     D0, [A7]+
00003B06  48C0                     ext.l      D0
00003B08  81FC 0002                divs.w     D0, 0x2
00003B0C  3C00                     move.w     D6, D0
00003B0E  206D DBFC                movea.l    A0, [A5 - 0x2404]
00003B12  2050                     movea.l    A0, [A0]
00003B14  49E8 0010                lea.l      A4, [A0 + 0x10]
00003B18  4267                     clr.w      -[A7]
00003B1A  4EBA 0FDA                jsr        [PC + 0xFDA /* 00004AF6 */]
00003B1E  101F                     move.b     D0, [A7]+
00003B20  670C                     beq        +0xE /* 00003B2E */
00003B22  3006                     move.w     D0, D6
00003B24  D06C 0002                add.w      D0, [A4 + 0x2]
00003B28  3B40 DC0E                move.w     [A5 - 0x23F2], D0
00003B2C  6008                     bra        +0xA /* 00003B36 */
label00003B2E:
00003B2E  3006                     move.w     D0, D6
00003B30  D054                     add.w      D0, [A4]
00003B32  3B40 DC0C                move.w     [A5 - 0x23F4], D0
label00003B36:
00003B36  41EE FEE2                lea.l      A0, [A6 - 0x11E]
00003B3A  43ED DC0C                lea.l      A1, [A5 - 0x23F4]
00003B3E  20D9                     move.l     [A0]+, [A1]+
00003B40  20D9                     move.l     [A0]+, [A1]+
00003B42  4EBA 0638                jsr        [PC + 0x638 /* 0000417C */]
00003B46  42A7                     clr.l      -[A7]
00003B48  2F2D DBFC                move.l     -[A7], [A5 - 0x2404]
00003B4C  42A7                     clr.l      -[A7]
00003B4E  42A7                     clr.l      -[A7]
00003B50  4EAD 012A                jsr        [A5 + 0x12A /* export_33, CODE:1 @ 00003DAC */]
00003B54  2B5F D736                move.l     [A5 - 0x28CA], [A7]+
00003B58  4267                     clr.w      -[A7]
00003B5A  4EBA E8F6                jsr        [PC - 0x170A /* 00002452 */]
00003B5E  4A5F                     tst.w      [A7]+
00003B60  6600 0208                bne        +0x20A /* 00003D6A */
00003B64  2F2D D736                move.l     -[A7], [A5 - 0x28CA]
00003B68  42A7                     clr.l      -[A7]
00003B6A  4EAD 013A                jsr        [A5 + 0x13A /* export_35, CODE:1 @ 00003DC8 */]
00003B6E  4267                     clr.w      -[A7]
00003B70  4EBA E8E0                jsr        [PC - 0x1720 /* 00002452 */]
00003B74  3D5F FED4                move.w     [A6 - 0x12C], [A7]+
00003B78  2F2D D736                move.l     -[A7], [A5 - 0x28CA]
00003B7C  A873                     syscall    SetPort
00003B7E  4267                     clr.w      -[A7]
00003B80  1F3C 0001                move.b     -[A7], 0x1
00003B84  4EBA DAC4                jsr        [PC - 0x253C /* 0000164A */]
00003B88  A887                     syscall    TextFont
00003B8A  4267                     clr.w      -[A7]
00003B8C  1F3C 0002                move.b     -[A7], 0x2
00003B90  4EBA DB28                jsr        [PC - 0x24D8 /* 000016BA */]
00003B94  A88A                     syscall    TextSize
00003B96  102D F2B3                move.b     D0, [A5 - 0xD4D]
00003B9A  6708                     beq        +0xA /* 00003BA4 */
00003B9C  3F2D F2BC                move.w     -[A7], [A5 - 0xD44]
00003BA0  4EAD 21D2                jsr        [A5 + 0x21D2 /* export_1078, CODE:20 @ 00004516 */]
label00003BA4:
00003BA4  486E FEF2                pea.l      [A6 - 0x10E]
00003BA8  A88B                     syscall    GetFontInfo
00003BAA  3A2E FEF4                move.w     D5, [A6 - 0x10C]
00003BAE  DA6E FEF2                add.w      D5, [A6 - 0x10E]
00003BB2  41EE FEEA                lea.l      A0, [A6 - 0x116]
00003BB6  43ED DC0C                lea.l      A1, [A5 - 0x23F4]
00003BBA  20D9                     move.l     [A0]+, [A1]+
00003BBC  20D9                     move.l     [A0]+, [A1]+
00003BBE  302E FEEA                move.w     D0, [A6 - 0x116]
00003BC2  D07C 0016                add.w      D0, 0x16
00003BC6  3D40 FEEA                move.w     [A6 - 0x116], D0
00003BCA  302E FEEE                move.w     D0, [A6 - 0x112]
00003BCE  906E FEEA                sub.w      D0, [A6 - 0x116]
00003BD2  48C0                     ext.l      D0
00003BD4  81C5                     divs.w     D0, D5
00003BD6  4840                     swap.w     D0
00003BD8  4A40                     tst.w      D0
00003BDA  322E FEEE                move.w     D1, [A6 - 0x112]
00003BDE  9240                     sub.w      D1, D0
00003BE0  3D41 FEEE                move.w     [A6 - 0x112], D1
00003BE4  302E FEEA                move.w     D0, [A6 - 0x116]
00003BE8  906E FEEE                sub.w      D0, [A6 - 0x112]
00003BEC  3D40 FEDE                move.w     [A6 - 0x122], D0
00003BF0  302E FEEE                move.w     D0, [A6 - 0x112]
00003BF4  906E FEEA                sub.w      D0, [A6 - 0x116]
00003BF8  48C0                     ext.l      D0
00003BFA  81C5                     divs.w     D0, D5
00003BFC  3D40 FEDA                move.w     [A6 - 0x126], D0
00003C00  206D DBF8                movea.l    A0, [A5 - 0x2408]
00003C04  2850                     movea.l    A4, [A0]
00003C06  296D D736 0052           move.l     [A4 + 0x52], [A5 - 0x28CA]
00003C0C  41EE FEEA                lea.l      A0, [A6 - 0x116]
00003C10  224C                     movea.l    A1, A4
00003C12  22D8                     move.l     [A1]+, [A0]+
00003C14  22D8                     move.l     [A1]+, [A0]+
00003C16  204C                     movea.l    A0, A4
00003C18  5088                     addq.l     A0, 8
00003C1A  43EE FEEA                lea.l      A1, [A6 - 0x116]
00003C1E  20D9                     move.l     [A0]+, [A1]+
00003C20  20D9                     move.l     [A0]+, [A1]+
00003C22  302E FEF4                move.w     D0, [A6 - 0x10C]
00003C26  D06E FEF2                add.w      D0, [A6 - 0x10E]
00003C2A  3940 0018                move.w     [A4 + 0x18], D0
00003C2E  396E FEF2 001A           move.w     [A4 + 0x1A], [A6 - 0x10E]
00003C34  207C 0000 0BAC           movea.l    A0, 0xBAC
00003C3A  4A50                     tst.w      [A0]
00003C3C  6C08                     bge        +0xA /* 00003C46 */
00003C3E  3978 0BAC 003A           move.w     [A4 + 0x3A], [0x00000BAC /* TESysJust */]
00003C44  6004                     bra        +0x6 /* 00003C4A */
label00003C46:
00003C46  426C 003A                clr.w      [A4 + 0x3A]
label00003C4A:
00003C4A  4267                     clr.w      -[A7]
00003C4C  1F3C 0001                move.b     -[A7], 0x1
00003C50  4EBA D9F8                jsr        [PC - 0x2608 /* 0000164A */]
00003C54  395F 004A                move.w     [A4 + 0x4A], [A7]+
00003C58  4267                     clr.w      -[A7]
00003C5A  1F3C 0002                move.b     -[A7], 0x2
00003C5E  4EBA DA5A                jsr        [PC - 0x25A6 /* 000016BA */]
00003C62  395F 0050                move.w     [A4 + 0x50], [A7]+
00003C66  422C 004C                clr.b      [A4 + 0x4C]
00003C6A  397C 0001 004E           move.w     [A4 + 0x4E], 0x1
00003C70  2044                     movea.l    A0, D4
00003C72  2050                     movea.l    A0, [A0]
00003C74  2F28 003E                move.l     -[A7], [A0 + 0x3E]
00003C78  4EAD 01DA                jsr        [A5 + 0x1DA /* export_55, CODE:1 @ 000043FE */]
00003C7C  2044                     movea.l    A0, D4
00003C7E  2050                     movea.l    A0, [A0]
00003C80  2F28 003E                move.l     -[A7], [A0 + 0x3E]
00003C84  4EAD 0222                jsr        [A5 + 0x222 /* export_64, CODE:1 @ 00004678 */]
00003C88  2044                     movea.l    A0, D4
00003C8A  2850                     movea.l    A4, [A0]
00003C8C  206C 003E                movea.l    A0, [A4 + 0x3E]
00003C90  2650                     movea.l    A3, [A0]
00003C92  302C 0022                move.w     D0, [A4 + 0x22]
00003C96  906C 0020                sub.w      D0, [A4 + 0x20]
00003C9A  48C0                     ext.l      D0
00003C9C  2E00                     move.l     D7, D0
00003C9E  6E0A                     bgt        +0xC /* 00003CAA */
00003CA0  302C 003C                move.w     D0, [A4 + 0x3C]
00003CA4  48C0                     ext.l      D0
00003CA6  2E00                     move.l     D7, D0
00003CA8  6008                     bra        +0xA /* 00003CB2 */
label00003CAA:
00003CAA  302C 0020                move.w     D0, [A4 + 0x20]
00003CAE  48C0                     ext.l      D0
00003CB0  D7C0                     add.l      A3, D0
label00003CB2:
00003CB2  2F0B                     move.l     -[A7], A3
00003CB4  2F07                     move.l     -[A7], D7
00003CB6  2F2D DBF8                move.l     -[A7], [A5 - 0x2408]
00003CBA  A9CF                     syscall    TESetText
00003CBC  2044                     movea.l    A0, D4
00003CBE  2050                     movea.l    A0, [A0]
00003CC0  2F28 003E                move.l     -[A7], [A0 + 0x3E]
00003CC4  4EAD 022A                jsr        [A5 + 0x22A /* export_65, CODE:1 @ 00004682 */]
00003CC8  206D DBF8                movea.l    A0, [A5 - 0x2408]
00003CCC  2050                     movea.l    A0, [A0]
00003CCE  3028 005E                move.w     D0, [A0 + 0x5E]
00003CD2  48C0                     ext.l      D0
00003CD4  81EE FEDA                divs.w     D0, [A6 - 0x126]
00003CD8  3D40 FED8                move.w     [A6 - 0x128], D0
00003CDC  206D DBF8                movea.l    A0, [A5 - 0x2408]
00003CE0  2050                     movea.l    A0, [A0]
00003CE2  3028 005E                move.w     D0, [A0 + 0x5E]
00003CE6  48C0                     ext.l      D0
00003CE8  81EE FEDA                divs.w     D0, [A6 - 0x126]
00003CEC  4840                     swap.w     D0
00003CEE  4A40                     tst.w      D0
00003CF0  6704                     beq        +0x6 /* 00003CF6 */
00003CF2  526E FED8                addq.w     [A6 - 0x128], 1
label00003CF6:
00003CF6  102D DC29                move.b     D0, [A5 - 0x23D7]
00003CFA  6748                     beq        +0x4A /* 00003D44 */
00003CFC  206D DBF8                movea.l    A0, [A5 - 0x2408]
00003D00  2050                     movea.l    A0, [A0]
00003D02  2F08                     move.l     -[A7], A0
00003D04  4267                     clr.w      -[A7]
00003D06  302E FED8                move.w     D0, [A6 - 0x128]
00003D0A  5340                     subq.w     D0, 1
00003D0C  C1EE FEDE                muls.w     D0, [A6 - 0x122]
00003D10  3F00                     move.w     -[A7], D0
00003D12  A8A8                     syscall    OffsetRect
00003D14  302E FEDE                move.w     D0, [A6 - 0x122]
00003D18  4440                     neg.w      D0
00003D1A  3D40 FEDE                move.w     [A6 - 0x122], D0
00003D1E  3B6E FED8 D7C2           move.w     [A5 - 0x283E], [A6 - 0x128]
label00003D24:
00003D24  7001                     moveq.l    D0, 0x01
00003D26  B06D D7C2                cmp.w      D0, [A5 - 0x283E]
00003D2A  6E16                     bgt        +0x18 /* 00003D42 */
00003D2C  2F0E                     move.l     -[A7], A6
00003D2E  4EBA FA78                jsr        [PC - 0x588 /* 000037A8 */]
00003D32  4267                     clr.w      -[A7]
00003D34  4EBA E71C                jsr        [PC - 0x18E4 /* 00002452 */]
00003D38  4A5F                     tst.w      [A7]+
00003D3A  662E                     bne        +0x30 /* 00003D6A */
00003D3C  536D D7C2                subq.w     [A5 - 0x283E], 1
00003D40  60E2                     bra        -0x1C /* 00003D24 */
label00003D42:
00003D42  6026                     bra        +0x28 /* 00003D6A */
label00003D44:
00003D44  3B7C 0001 D7C2           move.w     [A5 - 0x283E], 0x1
label00003D4A:
00003D4A  302D D7C2                move.w     D0, [A5 - 0x283E]
00003D4E  B06E FED8                cmp.w      D0, [A6 - 0x128]
00003D52  6E16                     bgt        +0x18 /* 00003D6A */
00003D54  2F0E                     move.l     -[A7], A6
00003D56  4EBA FA50                jsr        [PC - 0x5B0 /* 000037A8 */]
00003D5A  4267                     clr.w      -[A7]
00003D5C  4EBA E6F4                jsr        [PC - 0x190C /* 00002452 */]
00003D60  4A5F                     tst.w      [A7]+
00003D62  6606                     bne        +0x8 /* 00003D6A */
00003D64  526D D7C2                addq.w     [A5 - 0x283E], 1
00003D68  60E0                     bra        -0x1E /* 00003D4A */
label00003D6A:
00003D6A  2F2D D736                move.l     -[A7], [A5 - 0x28CA]
00003D6E  4EAD 0132                jsr        [A5 + 0x132 /* export_34, CODE:1 @ 00003DBA */]
00003D72  206D DBFC                movea.l    A0, [A5 - 0x2404]
00003D76  2050                     movea.l    A0, [A0]
00003D78  7001                     moveq.l    D0, 0x01
00003D7A  B028 0044                cmp.b      D0, [A0 + 0x44]
00003D7E  57C0                     seq        D0
00003D80  2F00                     move.l     -[A7], D0
00003D82  4267                     clr.w      -[A7]
00003D84  4EBA E6CC                jsr        [PC - 0x1934 /* 00002452 */]
00003D88  321F                     move.w     D1, [A7]+
00003D8A  201F                     move.l     D0, [A7]+
00003D8C  4A41                     tst.w      D1
00003D8E  57C1                     seq        D1
00003D90  C001                     and.b      D0, D1
00003D92  6720                     beq        +0x22 /* 00003DB4 */
00003D94  3F3C 0003                move.w     -[A7], 0x3
00003D98  4EBA D6C8                jsr        [PC - 0x2938 /* 00001462 */]
00003D9C  2F2D D732                move.l     -[A7], [A5 - 0x28CE]
00003DA0  A981                     syscall    DrawDialog
00003DA2  2F2D DBFC                move.l     -[A7], [A5 - 0x2404]
00003DA6  42A7                     clr.l      -[A7]
00003DA8  42A7                     clr.l      -[A7]
00003DAA  42A7                     clr.l      -[A7]
00003DAC  486E FCB6                pea.l      [A6 - 0x34A]
00003DB0  4EAD 0162                jsr        [A5 + 0x162 /* export_40, CODE:1 @ 00003E0E */]
label00003DB4:
00003DB4  4EBA D228                jsr        [PC - 0x2DD8 /* 00000FDE */]
label00003DB8:
00003DB8  4267                     clr.w      -[A7]
00003DBA  4EBA 0684                jsr        [PC + 0x684 /* 00004440 */]
00003DBE  1F3C 0001                move.b     -[A7], 0x1
00003DC2  4EBA 041E                jsr        [PC + 0x41E /* 000041E2 */]
00003DC6  4EBA DEF6                jsr        [PC - 0x210A /* 00001CBE */]
00003DCA  4EBA 0122                jsr        [PC + 0x122 /* 00003EEE */]
00003DCE  4267                     clr.w      -[A7]
00003DD0  A994                     syscall    CurResFile
00003DD2  3D5F FCAC                move.w     [A6 - 0x354], [A7]+
00003DD6  4EAD 0192                jsr        [A5 + 0x192 /* export_46, CODE:1 @ 00003E62 */]
00003DDA  4EAD 0172                jsr        [A5 + 0x172 /* export_42, CODE:1 @ 00003E2A */]
00003DDE  3F2E FCAC                move.w     -[A7], [A6 - 0x354]
00003DE2  A998                     syscall    UseResFile
00003DE4  4267                     clr.w      -[A7]
00003DE6  4EBA E68C                jsr        [PC - 0x1974 /* 00002474 */]
00003DEA  2F2E FEFC                move.l     -[A7], [A6 - 0x104]
00003DEE  A873                     syscall    SetPort
00003DF0  4EBA D990                jsr        [PC - 0x2670 /* 00001782 */]
00003DF4  4267                     clr.w      -[A7]
00003DF6  4EAD 17FA                jsr        [A5 + 0x17FA /* export_763, CODE:16 @ 0000009E */]
00003DFA  101F                     move.b     D0, [A7]+
00003DFC  670A                     beq        +0xC /* 00003E08 */
00003DFE  2F3C 0000 0008           move.l     -[A7], 0x8
00003E04  201F                     move.l     D0, [A7]+
00003E06  A032                     syscall    FlushEvents
label00003E08:
00003E08  4267                     clr.w      -[A7]
00003E0A  4EBA DAB2                jsr        [PC - 0x254E /* 000018BE */]
00003E0E  101F                     move.b     D0, [A7]+
00003E10  6606                     bne        +0x8 /* 00003E18 */
00003E12  1F3C 0001                move.b     -[A7], 0x1
00003E16  A834                     syscall    SetFScaleDisable
label00003E18:
00003E18  4CDF 18F0                movem.l    D4,D5,D6,D7,A3,A4, [A7]+
00003E1C  4E5E                     unlink     A6
00003E1E  205F                     movea.l    A0, [A7]+
00003E20  504F                     addq.w     A7, 8
00003E22  4ED0                     jmp        [A0]
fn00003E24:
00003E24  4E56 FFFC                link       A6, -0x0004
00003E28  206D DBFC                movea.l    A0, [A5 - 0x2404]
00003E2C  2050                     movea.l    A0, [A0]
00003E2E  41E8 0018                lea.l      A0, [A0 + 0x18]
00003E32  2D48 FFFC                move.l     [A6 - 0x4], A0
00003E36  4267                     clr.w      -[A7]
00003E38  206E FFFC                movea.l    A0, [A6 - 0x4]
00003E3C  2F08                     move.l     -[A7], A0
00003E3E  700D                     moveq.l    D0, 0x0D
00003E40  2F00                     move.l     -[A7], D0
00003E42  A85D                     syscall    BitTst
00003E44  101F                     move.b     D0, [A7]+
00003E46  0A00 0001                xori.b     D0, 0x1
00003E4A  C02D D9ED                and.b      D0, [A5 - 0x2613]
00003E4E  1D40 000A                move.b     [A6 + 0xA], D0
00003E52  4E5E                     unlink     A6
00003E54  205F                     movea.l    A0, [A7]+
00003E56  544F                     addq.w     A7, 2
00003E58  4ED0                     jmp        [A0]
export_237:
fn00003E5A:
00003E5A  4E56 FFFE                link       A6, -0x0002
00003E5E  2F07                     move.l     -[A7], D7
00003E60  206D DBFC                movea.l    A0, [A5 - 0x2404]
00003E64  2050                     movea.l    A0, [A0]
00003E66  3028 0018                move.w     D0, [A0 + 0x18]
00003E6A  48C0                     ext.l      D0
00003E6C  81FC 0100                divs.w     D0, 0x100
00003E70  3E00                     move.w     D7, D0
00003E72  102E 0008                move.b     D0, [A6 + 0x8]
00003E76  4880                     ext.w      D0
00003E78  4A40                     tst.w      D0
00003E7A  6B18                     bmi        +0x1A /* 00003E94 */
00003E7C  B07C 0007                cmp.w      D0, 0x7
00003E80  6E12                     bgt        +0x14 /* 00003E94 */
00003E82  41FA 003A                lea.l      A0, [PC + 0x3A /* 00003EBE, value 0x4E56FFFC */]
00003E86  3200                     move.w     D1, D0
00003E88  E649                     lsr        D1.w, 3
00003E8A  4441                     neg.w      D1
00003E8C  0130 10FF                btst       [A0 + D1.w - 0x1], D0
00003E90  0A3C 0004                xori.b     ccr, 4
label00003E94:
00003E94  57C0                     seq        D0
00003E96  C02D F2B3                and.b      D0, [A5 - 0xD4D]
00003E9A  7201                     moveq.l    D1, 0x01
00003E9C  B247                     cmp.w      D1, D7
00003E9E  57C1                     seq        D1
00003EA0  C22D D9EC                and.b      D1, [A5 - 0x2614]
00003EA4  7405                     moveq.l    D2, 0x05
00003EA6  B447                     cmp.w      D2, D7
00003EA8  57C2                     seq        D2
00003EAA  8202                     or.b       D1, D2
00003EAC  C001                     and.b      D0, D1
00003EAE  1D40 000A                move.b     [A6 + 0xA], D0
00003EB2  2E1F                     move.l     D7, [A7]+
00003EB4  4E5E                     unlink     A6
00003EB6  205F                     movea.l    A0, [A7]+
00003EB8  544F                     addq.w     A7, 2
00003EBA  4ED0                     jmp        [A0]
00003EBC  0003 4E56                ori.b      D3, 0x56 /* 'V' */
// begin alternate branch 00003EBE-00003EC2
fn00003EBE:
00003EBE  4E56 FFFC                link       A6, -0x0004
// end alternate branch 00003EBE-00003EC2
fn00003EBE: // (misaligned)
00003EC0  FFFC                     .invalid   <<F/7/7>>
00003EC2  486E FFFC                pea.l      [A6 - 0x4]
00003EC6  A874                     syscall    GetPort
00003EC8  4EBA EEE2                jsr        [PC - 0x111E /* 00002DAC */]
00003ECC  4267                     clr.w      -[A7]
00003ECE  4EBA E582                jsr        [PC - 0x1A7E /* 00002452 */]
00003ED2  4A5F                     tst.w      [A7]+
00003ED4  670E                     beq        +0x10 /* 00003EE4 */
00003ED6  4EBA C66A                jsr        [PC - 0x3996 /* 00000542 */]
00003EDA  1B7C 0001 D7C0           move.b     [A5 - 0x2840], 0x1
00003EE0  4EAD 192A                jsr        [A5 + 0x192A /* export_801, CODE:16 @ 00000C2C */]
label00003EE4:
00003EE4  2F2E FFFC                move.l     -[A7], [A6 - 0x4]
00003EE8  A873                     syscall    SetPort
00003EEA  4E5E                     unlink     A6
00003EEC  4E75                     rts
export_238:
fn00003EEE:
00003EEE  4E56 FDEA                link       A6, -0x0216
00003EF2  2F07                     move.l     -[A7], D7
00003EF4  4267                     clr.w      -[A7]
00003EF6  4EBA E55A                jsr        [PC - 0x1AA6 /* 00002452 */]
00003EFA  3E1F                     move.w     D7, [A7]+
00003EFC  4A47                     tst.w      D7
00003EFE  6604                     bne        +0x6 /* 00003F04 */
00003F00  6000 011C                bra        +0x11E /* 0000401E */
label00003F04:
00003F04  3007                     move.w     D0, D7
00003F06  0440 E014                subi.w     D0, 0xE014
00003F0A  673A                     beq        +0x3C /* 00003F46 */
00003F0C  0440 0016                subi.w     D0, 0x16
00003F10  6734                     beq        +0x36 /* 00003F46 */
00003F12  0440 0011                subi.w     D0, 0x11
00003F16  6700 00B6                beq        +0xB8 /* 00003FCE */
00003F1A  0440 0FC0                subi.w     D0, 0xFC0
00003F1E  6700 0090                beq        +0x92 /* 00003FB0 */
00003F22  5340                     subq.w     D0, 1
00003F24  6764                     beq        +0x66 /* 00003F8A */
00003F26  0440 0F98                subi.w     D0, 0xF98
00003F2A  6752                     beq        +0x54 /* 00003F7E */
00003F2C  0440 004A                subi.w     D0, 0x4A /* 'J' */
00003F30  6740                     beq        +0x42 /* 00003F72 */
00003F32  5F40                     subq.w     D0, 7
00003F34  6710                     beq        +0x12 /* 00003F46 */
00003F36  0440 001A                subi.w     D0, 0x1A
00003F3A  670E                     beq        +0x10 /* 00003F4A */
00003F3C  0440 0081                subi.w     D0, 0x81
00003F40  6704                     beq        +0x6 /* 00003F46 */
00003F42  6000 00A8                bra        +0xAA /* 00003FEC */
label00003F46:
00003F46  6000 00D2                bra        +0xD4 /* 0000401A */
label00003F4A:
00003F4A  486E FEFE                pea.l      [A6 - 0x102]
00003F4E  3F3C 000F                move.w     -[A7], 0xF
00003F52  4EBA E3D4                jsr        [PC - 0x1C2C /* 00002328 */]
00003F56  486E FDFE                pea.l      [A6 - 0x202]
00003F5A  3F3C 001B                move.w     -[A7], 0x1B
00003F5E  4EBA E3C8                jsr        [PC - 0x1C38 /* 00002328 */]
00003F62  487A 00C0                pea.l      [PC + 0xC0 /* 00004024, value 0x4E56 'NV', cstring "" */]
00003F66  487A 00BC                pea.l      [PC + 0xBC /* 00004024, value 0x4E56 'NV', cstring "" */]
00003F6A  4EBA E256                jsr        [PC - 0x1DAA /* 000021C2 */]
00003F6E  6000 00AA                bra        +0xAC /* 0000401A */
label00003F72:
00003F72  3F3C 000F                move.w     -[A7], 0xF
00003F76  4EBA F19C                jsr        [PC - 0xE64 /* 00003114 */]
00003F7A  6000 009E                bra        +0xA0 /* 0000401A */
label00003F7E:
00003F7E  3F3C 0010                move.w     -[A7], 0x10
00003F82  4EBA F190                jsr        [PC - 0xE70 /* 00003114 */]
00003F86  6000 0092                bra        +0x94 /* 0000401A */
label00003F8A:
00003F8A  486E FEFE                pea.l      [A6 - 0x102]
00003F8E  3F3C 0011                move.w     -[A7], 0x11
00003F92  4EBA E394                jsr        [PC - 0x1C6C /* 00002328 */]
00003F96  486E FDFE                pea.l      [A6 - 0x202]
00003F9A  3F3C 001B                move.w     -[A7], 0x1B
00003F9E  4EBA E388                jsr        [PC - 0x1C78 /* 00002328 */]
00003FA2  487A 0080                pea.l      [PC + 0x80 /* 00004024, value 0x4E56 'NV', cstring "" */]
00003FA6  487A 007C                pea.l      [PC + 0x7C /* 00004024, value 0x4E56 'NV', cstring "" */]
00003FAA  4EBA E216                jsr        [PC - 0x1DEA /* 000021C2 */]
00003FAE  606A                     bra        +0x6C /* 0000401A */
label00003FB0:
00003FB0  486E FEFE                pea.l      [A6 - 0x102]
00003FB4  3F3C 001A                move.w     -[A7], 0x1A
00003FB8  4EBA E36E                jsr        [PC - 0x1C92 /* 00002328 */]
00003FBC  487A 0066                pea.l      [PC + 0x66 /* 00004024, value 0x4E56 'NV', cstring "" */]
00003FC0  487A 0062                pea.l      [PC + 0x62 /* 00004024, value 0x4E56 'NV', cstring "" */]
00003FC4  487A 005E                pea.l      [PC + 0x5E /* 00004024, value 0x4E56 'NV', cstring "" */]
00003FC8  4EBA E1F8                jsr        [PC - 0x1E08 /* 000021C2 */]
00003FCC  604C                     bra        +0x4E /* 0000401A */
label00003FCE:
00003FCE  486E FEFE                pea.l      [A6 - 0x102]
00003FD2  3F3C 0016                move.w     -[A7], 0x16
00003FD6  4EBA E350                jsr        [PC - 0x1CB0 /* 00002328 */]
00003FDA  487A 0048                pea.l      [PC + 0x48 /* 00004024, value 0x4E56 'NV', cstring "" */]
00003FDE  487A 0044                pea.l      [PC + 0x44 /* 00004024, value 0x4E56 'NV', cstring "" */]
00003FE2  487A 0040                pea.l      [PC + 0x40 /* 00004024, value 0x4E56 'NV', cstring "" */]
00003FE6  4EBA E1DA                jsr        [PC - 0x1E26 /* 000021C2 */]
00003FEA  602E                     bra        +0x30 /* 0000401A */
label00003FEC:
00003FEC  486E FEFE                pea.l      [A6 - 0x102]
00003FF0  3F3C 0011                move.w     -[A7], 0x11
00003FF4  4EBA E332                jsr        [PC - 0x1CCE /* 00002328 */]
00003FF8  487A 002A                pea.l      [PC + 0x2A /* 00004024, value 0x4E56 'NV', cstring "" */]
00003FFC  486E FDFE                pea.l      [A6 - 0x202]
00004000  3F3C 0006                move.w     -[A7], 0x6
00004004  4EBA E322                jsr        [PC - 0x1CDE /* 00002328 */]
00004008  486E FDEA                pea.l      [A6 - 0x216]
0000400C  3007                     move.w     D0, D7
0000400E  48C0                     ext.l      D0
00004010  2F00                     move.l     -[A7], D0
00004012  4EAD 1902                jsr        [A5 + 0x1902 /* export_796, CODE:16 @ 000009D4 */]
00004016  4EBA E1AA                jsr        [PC - 0x1E56 /* 000021C2 */]
label0000401A:
0000401A  4EAD 192A                jsr        [A5 + 0x192A /* export_801, CODE:16 @ 00000C2C */]
label0000401E:
0000401E  2E1F                     move.l     D7, [A7]+
00004020  4E5E                     unlink     A6
00004022  4E75                     rts
00004024  0000 4E56                ori.b      D0, 0x56 /* 'V' */
// begin alternate branch 00004026-0000402A
export_239:
fn00004026:
00004026  4E56 FFF8                link       A6, -0x0008
// end alternate branch 00004026-0000402A
export_239: // at 00004026 (misaligned)
fn00004026: // (misaligned)
00004028  FFF8                     .invalid   <<F/7/7>>
0000402A  48E7 0700                movem.l    -[A7], D5,D6,D7
0000402E  102D DC2E                move.b     D0, [A5 - 0x23D2]
00004032  6706                     beq        +0x8 /* 0000403A */
00004034  3E2D DC34                move.w     D7, [A5 - 0x23CC]
00004038  6022                     bra        +0x24 /* 0000405C */
label0000403A:
0000403A  4267                     clr.w      -[A7]
0000403C  4EBA E656                jsr        [PC - 0x19AA /* 00002694 */]
00004040  3A1F                     move.w     D5, [A7]+
00004042  0C45 0668                cmpi.w     D5, 0x668
00004046  6C04                     bge        +0x6 /* 0000404C */
00004048  7E48                     moveq.l    D7, 0x48
0000404A  6010                     bra        +0x12 /* 0000405C */
label0000404C:
0000404C  0C45 0CD0                cmpi.w     D5, 0xCD0
00004050  6C06                     bge        +0x8 /* 00004058 */
00004052  3E3C 0090                move.w     D7, 0x90
00004056  6004                     bra        +0x6 /* 0000405C */
label00004058:
00004058  3E3C 0120                move.w     D7, 0x120
label0000405C:
0000405C  102D DC28                move.b     D0, [A5 - 0x23D8]
00004060  670A                     beq        +0xC /* 0000406C */
00004062  3007                     move.w     D0, D7
00004064  48C0                     ext.l      D0
00004066  81FC 0002                divs.w     D0, 0x2
0000406A  3E00                     move.w     D7, D0
label0000406C:
0000406C  3007                     move.w     D0, D7
0000406E  48C0                     ext.l      D0
00004070  2C00                     move.l     D6, D0
00004072  2F2E 0008                move.l     -[A7], [A6 + 0x8]
00004076  2F06                     move.l     -[A7], D6
00004078  4EAD 04EA                jsr        [A5 + 0x4EA /* export_153, CODE:1 @ 000051F0 */]
0000407C  7048                     moveq.l    D0, 0x48
0000407E  2F00                     move.l     -[A7], D0
00004080  4EAD 04F2                jsr        [A5 + 0x4F2 /* export_154, CODE:1 @ 00005224 */]
00004084  2C1F                     move.l     D6, [A7]+
00004086  3D46 000C                move.w     [A6 + 0xC], D6
0000408A  4CDF 00E0                movem.l    D5,D6,D7, [A7]+
0000408E  4E5E                     unlink     A6
00004090  2E9F                     move.l     [A7], [A7]+
00004092  4E75                     rts
export_240:
fn00004094:
00004094  4E56 FFFC                link       A6, -0x0004
00004098  48E7 0300                movem.l    -[A7], D6,D7
0000409C  1C2E 000C                move.b     D6, [A6 + 0xC]
000040A0  102D DC2E                move.b     D0, [A5 - 0x23D2]
000040A4  6700 009C                beq        +0x9E /* 00004142 */
000040A8  206D DBFC                movea.l    A0, [A5 - 0x2404]
000040AC  2050                     movea.l    A0, [A0]
000040AE  3028 0018                move.w     D0, [A0 + 0x18]
000040B2  48C0                     ext.l      D0
000040B4  81FC 0100                divs.w     D0, 0x100
000040B8  5340                     subq.w     D0, 1
000040BA  670E                     beq        +0x10 /* 000040CA */
000040BC  5540                     subq.w     D0, 2
000040BE  6728                     beq        +0x2A /* 000040E8 */
000040C0  5340                     subq.w     D0, 1
000040C2  6748                     beq        +0x4A /* 0000410C */
000040C4  5340                     subq.w     D0, 1
000040C6  674A                     beq        +0x4C /* 00004112 */
000040C8  6078                     bra        +0x7A /* 00004142 */
label000040CA:
000040CA  1006                     move.b     D0, D6
000040CC  4880                     ext.w      D0
000040CE  670E                     beq        +0x10 /* 000040DE */
000040D0  5340                     subq.w     D0, 1
000040D2  670A                     beq        +0xC /* 000040DE */
000040D4  5340                     subq.w     D0, 1
000040D6  670A                     beq        +0xC /* 000040E2 */
000040D8  5340                     subq.w     D0, 1
000040DA  6706                     beq        +0x8 /* 000040E2 */
000040DC  605A                     bra        +0x5C /* 00004138 */
label000040DE:
000040DE  7E48                     moveq.l    D7, 0x48
000040E0  6056                     bra        +0x58 /* 00004138 */
label000040E2:
000040E2  3E3C 0090                move.w     D7, 0x90
000040E6  6050                     bra        +0x52 /* 00004138 */
label000040E8:
000040E8  1006                     move.b     D0, D6
000040EA  4880                     ext.w      D0
000040EC  670E                     beq        +0x10 /* 000040FC */
000040EE  5340                     subq.w     D0, 1
000040F0  670A                     beq        +0xC /* 000040FC */
000040F2  5340                     subq.w     D0, 1
000040F4  670A                     beq        +0xC /* 00004100 */
000040F6  5340                     subq.w     D0, 1
000040F8  670C                     beq        +0xE /* 00004106 */
000040FA  603C                     bra        +0x3E /* 00004138 */
label000040FC:
000040FC  7E4B                     moveq.l    D7, 0x4B
000040FE  6038                     bra        +0x3A /* 00004138 */
label00004100:
00004100  3E3C 0096                move.w     D7, 0x96
00004104  6032                     bra        +0x34 /* 00004138 */
label00004106:
00004106  3E3C 012C                move.w     D7, 0x12C
0000410A  602C                     bra        +0x2E /* 00004138 */
label0000410C:
0000410C  3E3C 012C                move.w     D7, 0x12C
00004110  6026                     bra        +0x28 /* 00004138 */
label00004112:
00004112  1006                     move.b     D0, D6
00004114  4880                     ext.w      D0
00004116  670E                     beq        +0x10 /* 00004126 */
00004118  5340                     subq.w     D0, 1
0000411A  670A                     beq        +0xC /* 00004126 */
0000411C  5340                     subq.w     D0, 1
0000411E  670A                     beq        +0xC /* 0000412A */
00004120  5340                     subq.w     D0, 1
00004122  670C                     beq        +0xE /* 00004130 */
00004124  6012                     bra        +0x14 /* 00004138 */
label00004126:
00004126  4247                     clr.w      D7
00004128  600E                     bra        +0x10 /* 00004138 */
label0000412A:
0000412A  3E3C 00D8                move.w     D7, 0xD8
0000412E  6008                     bra        +0xA /* 00004138 */
label00004130:
00004130  3E3C 00D8                move.w     D7, 0xD8
00004134  6002                     bra        +0x4 /* 00004138 */
00004136  600A                     bra        +0xC /* 00004142 */
label00004138:
00004138  3F07                     move.w     -[A7], D7
0000413A  2F2E 0008                move.l     -[A7], [A6 + 0x8]
0000413E  4EBA 0364                jsr        [PC + 0x364 /* 000044A4 */]
label00004142:
00004142  4CDF 00C0                movem.l    D6,D7, [A7]+
00004146  4E5E                     unlink     A6
00004148  205F                     movea.l    A0, [A7]+
0000414A  5C4F                     addq.w     A7, 6
0000414C  4ED0                     jmp        [A0]
export_241:
fn0000414E:
0000414E  4E56 0000                link       A6, 0
00004152  206E 000A                movea.l    A0, [A6 + 0xA]
00004156  2050                     movea.l    A0, [A0]
00004158  316E 0008 0042           move.w     [A0 + 0x42], [A6 + 0x8]
0000415E  4267                     clr.w      -[A7]
00004160  4EBA DB98                jsr        [PC - 0x2468 /* 00001CFA */]
00004164  101F                     move.b     D0, [A7]+
00004166  670C                     beq        +0xE /* 00004174 */
00004168  206E 000A                movea.l    A0, [A6 + 0xA]
0000416C  2050                     movea.l    A0, [A0]
0000416E  316E 0008 002E           move.w     [A0 + 0x2E], [A6 + 0x8]
label00004174:
00004174  4E5E                     unlink     A6
00004176  205F                     movea.l    A0, [A7]+
00004178  5C4F                     addq.w     A7, 6
0000417A  4ED0                     jmp        [A0]
export_242:
fn0000417C:
0000417C  4E56 FEFE                link       A6, -0x0102
00004180  4267                     clr.w      -[A7]
00004182  4EBA DB76                jsr        [PC - 0x248A /* 00001CFA */]
00004186  101F                     move.b     D0, [A7]+
00004188  6602                     bne        +0x4 /* 0000418C */
0000418A  6052                     bra        +0x54 /* 000041DE */
label0000418C:
0000418C  42A7                     clr.l      -[A7]
0000418E  486E FEFE                pea.l      [A6 - 0x102]
00004192  3F3C 0005                move.w     -[A7], 0x5
00004196  4EBA E190                jsr        [PC - 0x1E70 /* 00002328 */]
0000419A  A906                     syscall    NewString
0000419C  2B5F DC00                move.l     [A5 - 0x2400], [A7]+
000041A0  206D DBFC                movea.l    A0, [A5 - 0x2404]
000041A4  2050                     movea.l    A0, [A0]
000041A6  2F08                     move.l     -[A7], A0
000041A8  4267                     clr.w      -[A7]
000041AA  2F2D DC00                move.l     -[A7], [A5 - 0x2400]
000041AE  A86A                     syscall    HiWord
000041B0  301F                     move.w     D0, [A7]+
000041B2  205F                     movea.l    A0, [A7]+
000041B4  3140 0058                move.w     [A0 + 0x58], D0
000041B8  206D DBFC                movea.l    A0, [A5 - 0x2404]
000041BC  2050                     movea.l    A0, [A0]
000041BE  2F08                     move.l     -[A7], A0
000041C0  4267                     clr.w      -[A7]
000041C2  2F2D DC00                move.l     -[A7], [A5 - 0x2400]
000041C6  A86B                     syscall    LoWord
000041C8  301F                     move.w     D0, [A7]+
000041CA  205F                     movea.l    A0, [A7]+
000041CC  3140 005A                move.w     [A0 + 0x5A], D0
000041D0  4267                     clr.w      -[A7]
000041D2  2F2D DBFC                move.l     -[A7], [A5 - 0x2404]
000041D6  4EAD 015A                jsr        [A5 + 0x15A /* export_39, CODE:1 @ 00003E00 */]
000041DA  1D5F FFFF                move.b     [A6 - 0x1], [A7]+
label000041DE:
000041DE  4E5E                     unlink     A6
000041E0  4E75                     rts
export_243:
fn000041E2:
000041E2  4E56 FFF2                link       A6, -0x000E
000041E6  4267                     clr.w      -[A7]
000041E8  4EBA D6F8                jsr        [PC - 0x2908 /* 000018E2 */]
000041EC  101F                     move.b     D0, [A7]+
000041EE  C02D DC2E                and.b      D0, [A5 - 0x23D2]
000041F2  6734                     beq        +0x36 /* 00004228 */
000041F4  102E 0008                move.b     D0, [A6 + 0x8]
000041F8  6708                     beq        +0xA /* 00004202 */
000041FA  3D7C 0006 FFF4           move.w     [A6 - 0xC], 0x6
00004200  6006                     bra        +0x8 /* 00004208 */
label00004202:
00004202  3D7C 0007 FFF4           move.w     [A6 - 0xC], 0x7
label00004208:
00004208  426E FFF6                clr.w      [A6 - 0xA]
0000420C  2D6D DBFC FFFC           move.l     [A6 - 0x4], [A5 - 0x2404]
00004212  486E FFF4                pea.l      [A6 - 0xC]
00004216  4EAD 016A                jsr        [A5 + 0x16A /* export_41, CODE:1 @ 00003E1C */]
0000421A  4267                     clr.w      -[A7]
0000421C  2F2D DBFC                move.l     -[A7], [A5 - 0x2404]
00004220  4EAD 015A                jsr        [A5 + 0x15A /* export_39, CODE:1 @ 00003E00 */]
00004224  1D5F FFF3                move.b     [A6 - 0xD], [A7]+
label00004228:
00004228  4E5E                     unlink     A6
0000422A  205F                     movea.l    A0, [A7]+
0000422C  544F                     addq.w     A7, 2
0000422E  4ED0                     jmp        [A0]
export_244:
00004230  4E56 FEDE                link       A6, -0x0122
00004234  48E7 0118                movem.l    -[A7], D7,A3,A4
00004238  206E 000A                movea.l    A0, [A6 + 0xA]
0000423C  43EE FF00                lea.l      A1, [A6 - 0x100]
00004240  703F                     moveq.l    D0, 0x3F
label00004242:
00004242  22D8                     move.l     [A1]+, [A0]+
00004244  51C8 FFFC                dbf        D0, -0x6 /* 00004242 */
00004248  2E2E 0010                move.l     D7, [A6 + 0x10]
0000424C  2F07                     move.l     -[A7], D7
0000424E  3F2E 000E                move.w     -[A7], [A6 + 0xE]
00004252  486E FEFE                pea.l      [A6 - 0x102]
00004256  486E FEFA                pea.l      [A6 - 0x106]
0000425A  486E FEF2                pea.l      [A6 - 0x10E]
0000425E  A98D                     syscall    GetDialogItem/GetDItem
00004260  207C 0000 0BAC           movea.l    A0, 0xBAC
00004266  4A50                     tst.w      [A0]
00004268  6D10                     blt        +0x12 /* 0000427A */
0000426A  486E FEE6                pea.l      [A6 - 0x11A]
0000426E  42A7                     clr.l      -[A7]
00004270  42A7                     clr.l      -[A7]
00004272  A8A7                     syscall    SetRect
00004274  486E FEE6                pea.l      [A6 - 0x11A]
00004278  A87B                     syscall    ClipRect
label0000427A:
0000427A  2F2E FEFA                move.l     -[A7], [A6 - 0x106]
0000427E  486E FF00                pea.l      [A6 - 0x100]
00004282  A98F                     syscall    SetDialogItemText/SetIText
00004284  207C 0000 0BAC           movea.l    A0, 0xBAC
0000428A  4A50                     tst.w      [A0]
0000428C  6C02                     bge        +0x4 /* 00004290 */
0000428E  6060                     bra        +0x62 /* 000042F0 */
label00004290:
00004290  486E FEF2                pea.l      [A6 - 0x10E]
00004294  A87B                     syscall    ClipRect
00004296  2F07                     move.l     -[A7], D7
00004298  3F2E 000E                move.w     -[A7], [A6 + 0xE]
0000429C  42A7                     clr.l      -[A7]
0000429E  A97E                     syscall    SelectDialogItemText/SelIText
000042A0  2647                     movea.l    A3, D7
000042A2  206B 00A0                movea.l    A0, [A3 + 0xA0]
000042A6  2850                     movea.l    A4, [A0]
000042A8  302C 0006                move.w     D0, [A4 + 0x6]
000042AC  E740                     asl        D0.w, 3
000042AE  3940 0006                move.w     [A4 + 0x6], D0
000042B2  41EE FEDE                lea.l      A0, [A6 - 0x122]
000042B6  224C                     movea.l    A1, A4
000042B8  5089                     addq.l     A1, 8
000042BA  20D9                     move.l     [A0]+, [A1]+
000042BC  20D9                     move.l     [A0]+, [A1]+
000042BE  486E FEDE                pea.l      [A6 - 0x122]
000042C2  2F2B 00A0                move.l     -[A7], [A3 + 0xA0]
000042C6  A9D3                     syscall    TEUpdate
000042C8  206B 00A0                movea.l    A0, [A3 + 0xA0]
000042CC  2850                     movea.l    A4, [A0]
000042CE  302C 0006                move.w     D0, [A4 + 0x6]
000042D2  48C0                     ext.l      D0
000042D4  81FC 0008                divs.w     D0, 0x8
000042D8  3940 0006                move.w     [A4 + 0x6], D0
000042DC  2F07                     move.l     -[A7], D7
000042DE  3F2E 0008                move.w     -[A7], [A6 + 0x8]
000042E2  2F3C 7FFF 0000           move.l     -[A7], 0x7FFF0000
000042E8  A97E                     syscall    SelectDialogItemText/SelIText
000042EA  486B 0010                pea.l      [A3 + 0x10]
000042EE  A87B                     syscall    ClipRect
label000042F0:
000042F0  4CDF 1880                movem.l    D7,A3,A4, [A7]+
000042F4  4E5E                     unlink     A6
000042F6  205F                     movea.l    A0, [A7]+
000042F8  DEFC 000C                add.w      A7, 0xC
000042FC  4ED0                     jmp        [A0]
export_245:
000042FE  4E56 FFEC                link       A6, -0x0014
00004302  3F3C 0006                move.w     -[A7], 0x6
00004306  4EBA D15A                jsr        [PC - 0x2EA6 /* 00001462 */]
0000430A  486E FFEC                pea.l      [A6 - 0x14]
0000430E  302E 0008                move.w     D0, [A6 + 0x8]
00004312  48C0                     ext.l      D0
00004314  2F00                     move.l     -[A7], D0
00004316  4EAD 1902                jsr        [A5 + 0x1902 /* export_796, CODE:16 @ 000009D4 */]
0000431A  487A 001A                pea.l      [PC + 0x1A /* 00004336, value 0x4E56 'NV', cstring "" */]
0000431E  487A 0016                pea.l      [PC + 0x16 /* 00004336, value 0x4E56 'NV', cstring "" */]
00004322  487A 0012                pea.l      [PC + 0x12 /* 00004336, value 0x4E56 'NV', cstring "" */]
00004326  A98B                     syscall    ParamText
00004328  2F2D D732                move.l     -[A7], [A5 - 0x28CE]
0000432C  A981                     syscall    DrawDialog
0000432E  4E5E                     unlink     A6
00004330  205F                     movea.l    A0, [A7]+
00004332  544F                     addq.w     A7, 2
00004334  4ED0                     jmp        [A0]
00004336  0000 4E56                ori.b      D0, 0x56 /* 'V' */
// begin alternate branch 00004338-00004340
fn00004338:
00004338  4E56 0000                link       A6, 0
0000433C  41FA E096                lea.l      A0, [PC - 0x1F6A /* 000023D4, value 0x4E56FFF6 */]
// end alternate branch 00004338-00004340
fn00004338: // (misaligned)
0000433A  0000 41FA                ori.b      D0, 0xFA
0000433E  E096                     roxr       D6, 8
00004340  226D DBFC                movea.l    A1, [A5 - 0x2404]
00004344  2251                     movea.l    A1, [A1]
00004346  2348 0046                move.l     [A1 + 0x46], A0
0000434A  4E5E                     unlink     A6
0000434C  4E75                     rts
export_246:
fn0000434E:
0000434E  4E56 FFEC                link       A6, -0x0014
00004352  3F3C 0005                move.w     -[A7], 0x5
00004356  4EBA D10A                jsr        [PC - 0x2EF6 /* 00001462 */]
0000435A  486E FFEC                pea.l      [A6 - 0x14]
0000435E  302E 0008                move.w     D0, [A6 + 0x8]
00004362  48C0                     ext.l      D0
00004364  2F00                     move.l     -[A7], D0
00004366  4EAD 1902                jsr        [A5 + 0x1902 /* export_796, CODE:16 @ 000009D4 */]
0000436A  487A 001A                pea.l      [PC + 0x1A /* 00004386, value 0x4E56 'NV', cstring "" */]
0000436E  487A 0016                pea.l      [PC + 0x16 /* 00004386, value 0x4E56 'NV', cstring "" */]
00004372  487A 0012                pea.l      [PC + 0x12 /* 00004386, value 0x4E56 'NV', cstring "" */]
00004376  A98B                     syscall    ParamText
00004378  2F2D D732                move.l     -[A7], [A5 - 0x28CE]
0000437C  A981                     syscall    DrawDialog
0000437E  4E5E                     unlink     A6
00004380  205F                     movea.l    A0, [A7]+
00004382  544F                     addq.w     A7, 2
00004384  4ED0                     jmp        [A0]
00004386  0000 4E56                ori.b      D0, 0x56 /* 'V' */
// begin alternate branch 00004388-0000438C
fn00004388:
00004388  4E56 FFEC                link       A6, -0x0014
// end alternate branch 00004388-0000438C
fn00004388: // (misaligned)
0000438A  FFEC                     .invalid   <<F/7/7>>
0000438C  4267                     clr.w      -[A7]
0000438E  4EBA D552                jsr        [PC - 0x2AAE /* 000018E2 */]
00004392  101F                     move.b     D0, [A7]+
00004394  672C                     beq        +0x2E /* 000043C2 */
00004396  3F3C 0004                move.w     -[A7], 0x4
0000439A  4EBA D0C6                jsr        [PC - 0x2F3A /* 00001462 */]
0000439E  486E FFEC                pea.l      [A6 - 0x14]
000043A2  302E 0008                move.w     D0, [A6 + 0x8]
000043A6  48C0                     ext.l      D0
000043A8  2F00                     move.l     -[A7], D0
000043AA  4EAD 1902                jsr        [A5 + 0x1902 /* export_796, CODE:16 @ 000009D4 */]
000043AE  487A 001A                pea.l      [PC + 0x1A /* 000043CA, value 0x4E56 'NV', cstring "" */]
000043B2  487A 0016                pea.l      [PC + 0x16 /* 000043CA, value 0x4E56 'NV', cstring "" */]
000043B6  487A 0012                pea.l      [PC + 0x12 /* 000043CA, value 0x4E56 'NV', cstring "" */]
000043BA  A98B                     syscall    ParamText
000043BC  2F2D D732                move.l     -[A7], [A5 - 0x28CE]
000043C0  A981                     syscall    DrawDialog
label000043C2:
000043C2  4E5E                     unlink     A6
000043C4  205F                     movea.l    A0, [A7]+
000043C6  544F                     addq.w     A7, 2
000043C8  4ED0                     jmp        [A0]
000043CA  0000 4E56                ori.b      D0, 0x56 /* 'V' */
// begin alternate branch 000043CC-000043D0
export_247:
000043CC  4E56 FFFE                link       A6, -0x0002
// end alternate branch 000043CC-000043D0
export_247: // at 000043CC (misaligned)
000043CE  FFFE                     .invalid   <<F/7/7>>
000043D0  48E7 0108                movem.l    -[A7], D7,A4
000043D4  286E 000A                movea.l    A4, [A6 + 0xA]
000043D8  2054                     movea.l    A0, [A4]
000043DA  3028 0018                move.w     D0, [A0 + 0x18]
000043DE  48C0                     ext.l      D0
000043E0  81FC 0100                divs.w     D0, 0x100
000043E4  5340                     subq.w     D0, 1
000043E6  6728                     beq        +0x2A /* 00004410 */
000043E8  5540                     subq.w     D0, 2
000043EA  670A                     beq        +0xC /* 000043F6 */
000043EC  5340                     subq.w     D0, 1
000043EE  6706                     beq        +0x8 /* 000043F6 */
000043F0  5340                     subq.w     D0, 1
000043F2  671C                     beq        +0x1E /* 00004410 */
000043F4  603E                     bra        +0x40 /* 00004434 */
label000043F6:
000043F6  102E 0008                move.b     D0, [A6 + 0x8]
000043FA  670A                     beq        +0xC /* 00004406 */
000043FC  2054                     movea.l    A0, [A4]
000043FE  117C 0003 001F           move.b     [A0 + 0x1F], 0x3
00004404  6024                     bra        +0x26 /* 0000442A */
label00004406:
00004406  2054                     movea.l    A0, [A4]
00004408  117C 0002 001F           move.b     [A0 + 0x1F], 0x2
0000440E  601A                     bra        +0x1C /* 0000442A */
label00004410:
00004410  102E 0008                move.b     D0, [A6 + 0x8]
00004414  6708                     beq        +0xA /* 0000441E */
00004416  2054                     movea.l    A0, [A4]
00004418  4228 001F                clr.b      [A0 + 0x1F]
0000441C  600C                     bra        +0xE /* 0000442A */
label0000441E:
0000441E  2054                     movea.l    A0, [A4]
00004420  117C 0001 001F           move.b     [A0 + 0x1F], 0x1
00004426  6002                     bra        +0x4 /* 0000442A */
00004428  600A                     bra        +0xC /* 00004434 */
label0000442A:
0000442A  4267                     clr.w      -[A7]
0000442C  2F0C                     move.l     -[A7], A4
0000442E  4EAD 015A                jsr        [A5 + 0x15A /* export_39, CODE:1 @ 00003E00 */]
00004432  1E1F                     move.b     D7, [A7]+
label00004434:
00004434  4CDF 1080                movem.l    D7,A4, [A7]+
00004438  4E5E                     unlink     A6
0000443A  205F                     movea.l    A0, [A7]+
0000443C  5C4F                     addq.w     A7, 6
0000443E  4ED0                     jmp        [A0]
export_248:
fn00004440:
00004440  4E56 0000                link       A6, 0
00004444  2F0C                     move.l     -[A7], A4
00004446  206D DBFC                movea.l    A0, [A5 - 0x2404]
0000444A  2850                     movea.l    A4, [A0]
0000444C  4267                     clr.w      -[A7]
0000444E  4EBA D46E                jsr        [PC - 0x2B92 /* 000018BE */]
00004452  101F                     move.b     D0, [A7]+
00004454  671E                     beq        +0x20 /* 00004474 */
00004456  102E 0008                move.b     D0, [A6 + 0x8]
0000445A  670C                     beq        +0xE /* 00004468 */
0000445C  486C 0018                pea.l      [A4 + 0x18]
00004460  700E                     moveq.l    D0, 0x0E
00004462  2F00                     move.l     -[A7], D0
00004464  A85F                     syscall    BitClr
00004466  6032                     bra        +0x34 /* 0000449A */
label00004468:
00004468  486C 0018                pea.l      [A4 + 0x18]
0000446C  700E                     moveq.l    D0, 0x0E
0000446E  2F00                     move.l     -[A7], D0
00004470  A85E                     syscall    BitSet
00004472  6026                     bra        +0x28 /* 0000449A */
label00004474:
00004474  4267                     clr.w      -[A7]
00004476  4EBA BC1E                jsr        [PC - 0x43E2 /* 00000096 */]
0000447A  101F                     move.b     D0, [A7]+
0000447C  671C                     beq        +0x1E /* 0000449A */
0000447E  102E 0008                move.b     D0, [A6 + 0x8]
00004482  670C                     beq        +0xE /* 00004490 */
00004484  486C 0054                pea.l      [A4 + 0x54]
00004488  700E                     moveq.l    D0, 0x0E
0000448A  2F00                     move.l     -[A7], D0
0000448C  A85F                     syscall    BitClr
0000448E  600A                     bra        +0xC /* 0000449A */
label00004490:
00004490  486C 0054                pea.l      [A4 + 0x54]
00004494  700E                     moveq.l    D0, 0x0E
00004496  2F00                     move.l     -[A7], D0
00004498  A85E                     syscall    BitSet
label0000449A:
0000449A  285F                     movea.l    A4, [A7]+
0000449C  4E5E                     unlink     A6
0000449E  205F                     movea.l    A0, [A7]+
000044A0  544F                     addq.w     A7, 2
000044A2  4ED0                     jmp        [A0]
export_249:
fn000044A4:
000044A4  4E56 FFF0                link       A6, -0x0010
000044A8  102D DC2E                move.b     D0, [A5 - 0x23D2]
000044AC  6742                     beq        +0x44 /* 000044F0 */
000044AE  3D7C 0005 FFF0           move.w     [A6 - 0x10], 0x5
000044B4  426E FFF2                clr.w      [A6 - 0xE]
000044B8  2D6E 0008 FFF8           move.l     [A6 - 0x8], [A6 + 0x8]
000044BE  3D6E 000C FFFC           move.w     [A6 - 0x4], [A6 + 0xC]
000044C4  3D6E 000C FFFE           move.w     [A6 - 0x2], [A6 + 0xC]
000044CA  486E FFF0                pea.l      [A6 - 0x10]
000044CE  4EAD 016A                jsr        [A5 + 0x16A /* export_41, CODE:1 @ 00003E1C */]
000044D2  4267                     clr.w      -[A7]
000044D4  4EBA DF7C                jsr        [PC - 0x2084 /* 00002452 */]
000044D8  4A5F                     tst.w      [A7]+
000044DA  6614                     bne        +0x16 /* 000044F0 */
000044DC  4A6E 000C                tst.w      [A6 + 0xC]
000044E0  6608                     bne        +0xA /* 000044EA */
000044E2  3B7C 0048 DC34           move.w     [A5 - 0x23CC], 0x48 /* 'H' */
000044E8  6006                     bra        +0x8 /* 000044F0 */
label000044EA:
000044EA  3B6E 000C DC34           move.w     [A5 - 0x23CC], [A6 + 0xC]
label000044F0:
000044F0  4E5E                     unlink     A6
000044F2  205F                     movea.l    A0, [A7]+
000044F4  5C4F                     addq.w     A7, 6
000044F6  4ED0                     jmp        [A0]
fn000044F8:
000044F8  4E56 FFF6                link       A6, -0x000A
000044FC  48E7 0308                movem.l    -[A7], D6,D7,A4
00004500  42A7                     clr.l      -[A7]
00004502  2F2D F67C                move.l     -[A7], [A5 - 0x984]
00004506  2F3A 00FA                move.l     -[A7], [PC + 0xFA /* 00004602, value 0x50524E54 'PRNT' */]
0000450A  4EAD 1F8A                jsr        [A5 + 0x1F8A /* export_1005, CODE:19 @ 00001926 */]
0000450E  285F                     movea.l    A4, [A7]+
00004510  200C                     move.l     D0, A4
00004512  662C                     bne        +0x2E /* 00004540 */
00004514  42A7                     clr.l      -[A7]
00004516  2F3C 0000 012E           move.l     -[A7], 0x12E
0000451C  2F3A 00E4                move.l     -[A7], [PC + 0xE4 /* 00004602, value 0x50524E54 'PRNT' */]
00004520  4EAD 1F22                jsr        [A5 + 0x1F22 /* export_992, CODE:19 @ 000007F0 */]
00004524  2B5F F67C                move.l     [A5 - 0x984], [A7]+
00004528  42A7                     clr.l      -[A7]
0000452A  2F2D F67C                move.l     -[A7], [A5 - 0x984]
0000452E  2F3A 00D2                move.l     -[A7], [PC + 0xD2 /* 00004602, value 0x50524E54 'PRNT' */]
00004532  4EAD 1F8A                jsr        [A5 + 0x1F8A /* export_1005, CODE:19 @ 00001926 */]
00004536  285F                     movea.l    A4, [A7]+
00004538  200C                     move.l     D0, A4
0000453A  6604                     bne        +0x6 /* 00004540 */
0000453C  6000 00BA                bra        +0xBC /* 000045F8 */
label00004540:
00004540  102D D9F3                move.b     D0, [A5 - 0x260D]
00004544  4880                     ext.w      D0
00004546  4A40                     tst.w      D0
00004548  6B18                     bmi        +0x1A /* 00004562 */
0000454A  B07C 0007                cmp.w      D0, 0x7
0000454E  6E12                     bgt        +0x14 /* 00004562 */
00004550  41FA 00B0                lea.l      A0, [PC + 0xB0 /* 00004602, value 0x50524E54 'PRNT' */]
00004554  3200                     move.w     D1, D0
00004556  E649                     lsr        D1.w, 3
00004558  4441                     neg.w      D1
0000455A  0130 10FF                btst       [A0 + D1.w - 0x1], D0
0000455E  0A3C 0004                xori.b     ccr, 4
label00004562:
00004562  57C0                     seq        D0
00004564  C02D D9F2                and.b      D0, [A5 - 0x260E]
00004568  670E                     beq        +0x10 /* 00004578 */
0000456A  302D D7D6                move.w     D0, [A5 - 0x282A]
0000456E  E540                     asl        D0.w, 2
00004570  5440                     addq.w     D0, 2
00004572  48C0                     ext.l      D0
00004574  2E00                     move.l     D7, D0
00004576  6002                     bra        +0x4 /* 0000457A */
label00004578:
00004578  7E00                     moveq.l    D7, 0x00
label0000457A:
0000457A  4267                     clr.w      -[A7]
0000457C  2F2D F67C                move.l     -[A7], [A5 - 0x984]
00004580  2F3A 0080                move.l     -[A7], [PC + 0x80 /* 00004602, value 0x50524E54 'PRNT' */]
00004584  2007                     move.l     D0, D7
00004586  D0BC 0000 012E           add.l      D0, 0x12E
0000458C  2F00                     move.l     -[A7], D0
0000458E  4EAD 1FCA                jsr        [A5 + 0x1FCA /* export_1013, CODE:19 @ 00001F1E */]
00004592  1C1F                     move.b     D6, [A7]+
00004594  2054                     movea.l    A0, [A4]
00004596  317C 0006 000C           move.w     [A0 + 0xC], 0x6
0000459C  2054                     movea.l    A0, [A4]
0000459E  41E8 000E                lea.l      A0, [A0 + 0xE]
000045A2  43ED D9D8                lea.l      A1, [A5 - 0x2628]
000045A6  7047                     moveq.l    D0, 0x47
label000045A8:
000045A8  20D9                     move.l     [A0]+, [A1]+
000045AA  51C8 FFFC                dbf        D0, -0x6 /* 000045A8 */
000045AE  102D D9F3                move.b     D0, [A5 - 0x260D]
000045B2  4880                     ext.w      D0
000045B4  4A40                     tst.w      D0
000045B6  6B18                     bmi        +0x1A /* 000045D0 */
000045B8  B07C 0007                cmp.w      D0, 0x7
000045BC  6E12                     bgt        +0x14 /* 000045D0 */
000045BE  41FA 0042                lea.l      A0, [PC + 0x42 /* 00004602, value 0x50524E54 'PRNT' */]
000045C2  3200                     move.w     D1, D0
000045C4  E649                     lsr        D1.w, 3
000045C6  4441                     neg.w      D1
000045C8  0130 10FF                btst       [A0 + D1.w - 0x1], D0
000045CC  0A3C 0004                xori.b     ccr, 4
label000045D0:
000045D0  57C0                     seq        D0
000045D2  C02D D9F2                and.b      D0, [A5 - 0x260E]
000045D6  6714                     beq        +0x16 /* 000045EC */
000045D8  486D D7D6                pea.l      [A5 - 0x282A]
000045DC  2014                     move.l     D0, [A4]
000045DE  D0BC 0000 012E           add.l      D0, 0x12E
000045E4  2F00                     move.l     -[A7], D0
000045E6  2F07                     move.l     -[A7], D7
000045E8  4EAD 024A                jsr        [A5 + 0x24A /* export_69, CODE:1 @ 000046A6 */]
label000045EC:
000045EC  2F2D F67C                move.l     -[A7], [A5 - 0x984]
000045F0  1F3C 0001                move.b     -[A7], 0x1
000045F4  4EAD 1F02                jsr        [A5 + 0x1F02 /* export_988, CODE:19 @ 000004D6 */]
label000045F8:
000045F8  4CDF 10C0                movem.l    D6,D7,A4, [A7]+
000045FC  4E5E                     unlink     A6
000045FE  4E75                     rts
00004600  000C 5052                ori.b      A4, 0x52 /* 'R' */
00004604  4E54 4E56                link       A4, -0xFFFFB1AA
// begin alternate branch 00004606-0000460A
export_250:
fn00004606:
00004606  4E56 FFFE                link       A6, -0x0002
// end alternate branch 00004606-0000460A
export_250: // at 00004606 (misaligned)
fn00004606: // (misaligned)
00004608  FFFE                     .invalid   <<F/7/7>>
0000460A  48E7 0108                movem.l    -[A7], D7,A4
0000460E  4EAD 181A                jsr        [A5 + 0x181A /* export_767, CODE:16 @ 00000216 */]
00004612  4EBA FB68                jsr        [PC - 0x498 /* 0000417C */]
00004616  1F2D D9F6                move.b     -[A7], [A5 - 0x260A]
0000461A  2F2D DBFC                move.l     -[A7], [A5 - 0x2404]
0000461E  4EBA FA74                jsr        [PC - 0x58C /* 00004094 */]
00004622  4267                     clr.w      -[A7]
00004624  486D D9F8                pea.l      [A5 - 0x2608]
00004628  4EBA BE82                jsr        [PC - 0x417E /* 000004AC */]
0000462C  486D D720                pea.l      [A5 - 0x28E0]
00004630  486D D72E                pea.l      [A5 - 0x28D2]
00004634  486D D7BA                pea.l      [A5 - 0x2846]
00004638  486D D73A                pea.l      [A5 - 0x28C6]
0000463C  486D D73E                pea.l      [A5 - 0x28C2]
00004640  4EBA CAE2                jsr        [PC - 0x351E /* 00001124 */]
00004644  3B7C 0001 D7C2           move.w     [A5 - 0x283E], 0x1
0000464A  486D D9F8                pea.l      [A5 - 0x2608]
0000464E  486D DAF8                pea.l      [A5 - 0x2508]
00004652  4EBA D2B2                jsr        [PC - 0x2D4E /* 00001906 */]
00004656  486D D9D8                pea.l      [A5 - 0x2628]
0000465A  4EBA BA5E                jsr        [PC - 0x45A2 /* 000000BA */]
0000465E  4EBA CDB0                jsr        [PC - 0x3250 /* 00001410 */]
00004662  4EAD 181A                jsr        [A5 + 0x181A /* export_767, CODE:16 @ 00000216 */]
00004666  206D DBFC                movea.l    A0, [A5 - 0x2404]
0000466A  2050                     movea.l    A0, [A0]
0000466C  49E8 003E                lea.l      A4, [A0 + 0x3E]
00004670  38BC 0001                move.w     [A4], 0x1
00004674  397C 0080 0002           move.w     [A4 + 0x2], 0x80
0000467A  4267                     clr.w      -[A7]
0000467C  4EBA DDF6                jsr        [PC - 0x220A /* 00002474 */]
00004680  422D DC28                clr.b      [A5 - 0x23D8]
00004684  4267                     clr.w      -[A7]
00004686  4EBA D236                jsr        [PC - 0x2DCA /* 000018BE */]
0000468A  101F                     move.b     D0, [A7]+
0000468C  C02D D7C1                and.b      D0, [A5 - 0x283F]
00004690  122D D9F6                move.b     D1, [A5 - 0x260A]
00004694  4881                     ext.w      D1
00004696  4A41                     tst.w      D1
00004698  6B18                     bmi        +0x1A /* 000046B2 */
0000469A  B27C 0007                cmp.w      D1, 0x7
0000469E  6E12                     bgt        +0x14 /* 000046B2 */
000046A0  41FA 00AA                lea.l      A0, [PC + 0xAA /* 0000474C, value 0x4E56FEE0 */]
000046A4  3401                     move.w     D2, D1
000046A6  E64A                     lsr        D2.w, 3
000046A8  4442                     neg.w      D2
000046AA  0330 20FF                btst       [A0 + D2.w - 0x1], D1
000046AE  0A3C 0004                xori.b     ccr, 4
label000046B2:
000046B2  57C1                     seq        D1
000046B4  C001                     and.b      D0, D1
000046B6  C02D D9EC                and.b      D0, [A5 - 0x2614]
000046BA  6728                     beq        +0x2A /* 000046E4 */
000046BC  3F3C 0090                move.w     -[A7], 0x90
000046C0  2F2D DBFC                move.l     -[A7], [A5 - 0x2404]
000046C4  4EBA FDDE                jsr        [PC - 0x222 /* 000044A4 */]
000046C8  4267                     clr.w      -[A7]
000046CA  2F2D DBFC                move.l     -[A7], [A5 - 0x2404]
000046CE  4EAD 015A                jsr        [A5 + 0x15A /* export_39, CODE:1 @ 00003E00 */]
000046D2  1E1F                     move.b     D7, [A7]+
000046D4  4267                     clr.w      -[A7]
000046D6  4EBA DD7A                jsr        [PC - 0x2286 /* 00002452 */]
000046DA  4A5F                     tst.w      [A7]+
000046DC  57C0                     seq        D0
000046DE  4400                     neg.b      D0
000046E0  1B40 DC28                move.b     [A5 - 0x23D8], D0
label000046E4:
000046E4  42A7                     clr.l      -[A7]
000046E6  A975                     syscall    TickCount
000046E8  2B5F DC24                move.l     [A5 - 0x23DC], [A7]+
000046EC  42A7                     clr.l      -[A7]
000046EE  2F2D DBFC                move.l     -[A7], [A5 - 0x2404]
000046F2  42A7                     clr.l      -[A7]
000046F4  42A7                     clr.l      -[A7]
000046F6  4EAD 012A                jsr        [A5 + 0x12A /* export_33, CODE:1 @ 00003DAC */]
000046FA  2B5F D736                move.l     [A5 - 0x28CA], [A7]+
000046FE  4EAD 181A                jsr        [A5 + 0x181A /* export_767, CODE:16 @ 00000216 */]
00004702  422D D7BF                clr.b      [A5 - 0x2841]
00004706  426D D7C6                clr.w      [A5 - 0x283A]
0000470A  426D D7C4                clr.w      [A5 - 0x283C]
0000470E  4EBA 0338                jsr        [PC + 0x338 /* 00004A48 */]
00004712  4267                     clr.w      -[A7]
00004714  4EBA D1A8                jsr        [PC - 0x2E58 /* 000018BE */]
00004718  102D D7C1                move.b     D0, [A5 - 0x283F]
0000471C  0A00 0001                xori.b     D0, 0x1
00004720  C01F                     and.b      D0, [A7]+
00004722  2F00                     move.l     -[A7], D0
00004724  4267                     clr.w      -[A7]
00004726  1F2D D9F6                move.b     -[A7], [A5 - 0x260A]
0000472A  4EBA F72E                jsr        [PC - 0x8D2 /* 00003E5A */]
0000472E  121F                     move.b     D1, [A7]+
00004730  201F                     move.l     D0, [A7]+
00004732  0A01 0001                xori.b     D1, 0x1
00004736  C001                     and.b      D0, D1
00004738  6708                     beq        +0xA /* 00004742 */
0000473A  3F3C FF94                move.w     -[A7], 0xFF94
0000473E  4EBA DD34                jsr        [PC - 0x22CC /* 00002474 */]
label00004742:
00004742  4CDF 1080                movem.l    D7,A4, [A7]+
00004746  4E5E                     unlink     A6
00004748  4E75                     rts
0000474A  0003 4E56                ori.b      D3, 0x56 /* 'V' */
// begin alternate branch 0000474C-0000475A
fn0000474C:
0000474C  4E56 FEE0                link       A6, -0x0120
00004750  206E 0008                movea.l    A0, [A6 + 0x8]
00004754  43EE FEE0                lea.l      A1, [A6 - 0x120]
00004758  7047                     moveq.l    D0, 0x47
// end alternate branch 0000474C-0000475A
fn0000474C: // (misaligned)
0000474E  FEE0 206E                .extension 0xEE0 <<F/2-3/7>> // unimplemented
00004752  0008 43EE                ori.b      A0, 0xEE
00004756  FEE0 7047                .extension 0xEE0 <<F/2-3/7>> // unimplemented
label0000475A:
0000475A  22D8                     move.l     [A1]+, [A0]+
0000475C  51C8 FFFC                dbf        D0, -0x6 /* 0000475A */
00004760  4267                     clr.w      -[A7]
00004762  4EBA D15A                jsr        [PC - 0x2EA6 /* 000018BE */]
00004766  7003                     moveq.l    D0, 0x03
00004768  B02E FEFE                cmp.b      D0, [A6 - 0x102]
0000476C  57C0                     seq        D0
0000476E  C01F                     and.b      D0, [A7]+
00004770  1D40 000C                move.b     [A6 + 0xC], D0
00004774  4E5E                     unlink     A6
00004776  2E9F                     move.l     [A7], [A7]+
00004778  4E75                     rts
export_251:
fn0000477A:
0000477A  4E56 0000                link       A6, 0
0000477E  7009                     moveq.l    D0, 0x09
00004780  C1EE 0008                muls.w     D0, [A6 + 0x8]
00004784  48C0                     ext.l      D0
00004786  81FC 0004                divs.w     D0, 0x4
0000478A  3D40 000A                move.w     [A6 + 0xA], D0
0000478E  4E5E                     unlink     A6
00004790  205F                     movea.l    A0, [A7]+
00004792  544F                     addq.w     A7, 2
00004794  4ED0                     jmp        [A0]
fn00004796:
00004796  4E56 FFD4                link       A6, -0x002C
0000479A  48E7 0318                movem.l    -[A7], D6,D7,A3,A4
0000479E  266E 0010                movea.l    A3, [A6 + 0x10]
000047A2  3C2E 0014                move.w     D6, [A6 + 0x14]
000047A6  284B                     movea.l    A4, A3
000047A8  486E FFD8                pea.l      [A6 - 0x28]
000047AC  42A7                     clr.l      -[A7]
000047AE  2F3C 000A 000B           move.l     -[A7], 0xA000B
000047B4  A8A7                     syscall    SetRect
000047B6  7E01                     moveq.l    D7, 0x01
label000047B8:
000047B8  BC47                     cmp.w      D6, D7
000047BA  6D00 018E                blt        +0x190 /* 0000494A */
000047BE  4267                     clr.w      -[A7]
000047C0  2F0C                     move.l     -[A7], A4
000047C2  4EBA 0672                jsr        [PC + 0x672 /* 00004E36 */]
000047C6  301F                     move.w     D0, [A7]+
000047C8  6B18                     bmi        +0x1A /* 000047E2 */
000047CA  B07C 0007                cmp.w      D0, 0x7
000047CE  6E12                     bgt        +0x14 /* 000047E2 */
000047D0  41FA 0188                lea.l      A0, [PC + 0x188 /* 0000495A, value 0x4E56FFF0 */]
000047D4  3200                     move.w     D1, D0
000047D6  E649                     lsr        D1.w, 3
000047D8  4441                     neg.w      D1
000047DA  0130 10FF                btst       [A0 + D1.w - 0x1], D0
000047DE  0A3C 0004                xori.b     ccr, 4
label000047E2:
000047E2  6600 0122                bne        +0x124 /* 00004906 */
000047E6  102D F2B3                move.b     D0, [A5 - 0xD4D]
000047EA  6722                     beq        +0x24 /* 0000480E */
000047EC  2F00                     move.l     -[A7], D0
000047EE  4267                     clr.w      -[A7]
000047F0  2F0B                     move.l     -[A7], A3
000047F2  3207                     move.w     D1, D7
000047F4  5341                     subq.w     D1, 1
000047F6  3F01                     move.w     -[A7], D1
000047F8  2F3C 8206 0010           move.l     -[A7], 0x82060010
000047FE  A8B5                     syscall    ScriptUtil
00004800  321F                     move.w     D1, [A7]+
00004802  201F                     move.l     D0, [A7]+
00004804  4A41                     tst.w      D1
00004806  56C1                     sne        D1
00004808  C001                     and.b      D0, D1
0000480A  6600 00FA                bne        +0xFC /* 00004906 */
label0000480E:
0000480E  7001                     moveq.l    D0, 0x01
00004810  B047                     cmp.w      D0, D7
00004812  6C12                     bge        +0x14 /* 00004826 */
00004814  3007                     move.w     D0, D7
00004816  5340                     subq.w     D0, 1
00004818  3F00                     move.w     -[A7], D0
0000481A  2F0B                     move.l     -[A7], A3
0000481C  2F2E 000C                move.l     -[A7], [A6 + 0xC]
00004820  2F2E 0008                move.l     -[A7], [A6 + 0x8]
00004824  A882                     syscall    StdText
label00004826:
00004826  42A7                     clr.l      -[A7]
00004828  4EBA 0730                jsr        [PC + 0x730 /* 00004F5A */]
0000482C  2D5F FFE8                move.l     [A6 - 0x18], [A7]+
00004830  3D7C 0006 FFEC           move.w     [A6 - 0x14], 0x6
00004836  486E FFEE                pea.l      [A6 - 0x12]
0000483A  42A7                     clr.l      -[A7]
0000483C  2F3C 000A 0030           move.l     -[A7], 0xA0030 /* '\n\00' */
00004842  A8A7                     syscall    SetRect
00004844  4267                     clr.w      -[A7]
00004846  2F0C                     move.l     -[A7], A4
00004848  4EBA 05EC                jsr        [PC + 0x5EC /* 00004E36 */]
0000484C  301F                     move.w     D0, [A7]+
0000484E  5540                     subq.w     D0, 2
00004850  670A                     beq        +0xC /* 0000485C */
00004852  5540                     subq.w     D0, 2
00004854  6714                     beq        +0x16 /* 0000486A */
00004856  5340                     subq.w     D0, 1
00004858  671E                     beq        +0x20 /* 00004878 */
0000485A  6028                     bra        +0x2A /* 00004884 */
label0000485C:
0000485C  486E FFD8                pea.l      [A6 - 0x28]
00004860  2F3C 0000 000B           move.l     -[A7], 0xB
00004866  A8A8                     syscall    OffsetRect
00004868  601A                     bra        +0x1C /* 00004884 */
label0000486A:
0000486A  486E FFD8                pea.l      [A6 - 0x28]
0000486E  2F3C 0000 001A           move.l     -[A7], 0x1A
00004874  A8A8                     syscall    OffsetRect
00004876  600C                     bra        +0xE /* 00004884 */
label00004878:
00004878  486E FFD8                pea.l      [A6 - 0x28]
0000487C  2F3C 0000 0025           move.l     -[A7], 0x25 /* '%' */
00004882  A8A8                     syscall    OffsetRect
label00004884:
00004884  486E FFD4                pea.l      [A6 - 0x2C]
00004888  A874                     syscall    GetPort
0000488A  2F3C 0000 0001           move.l     -[A7], 0x1
00004890  A894                     syscall    Move
00004892  486E FFF6                pea.l      [A6 - 0xA]
00004896  A89A                     syscall    GetPen
00004898  486E FFE0                pea.l      [A6 - 0x20]
0000489C  3F2E FFF8                move.w     -[A7], [A6 - 0x8]
000048A0  302E FFF6                move.w     D0, [A6 - 0xA]
000048A4  907C 000A                sub.w      D0, 0xA /* '\n' */
000048A8  3F00                     move.w     -[A7], D0
000048AA  302E FFF8                move.w     D0, [A6 - 0x8]
000048AE  D07C 000B                add.w      D0, 0xB
000048B2  3F00                     move.w     -[A7], D0
000048B4  3F2E FFF6                move.w     -[A7], [A6 - 0xA]
000048B8  A8A7                     syscall    SetRect
000048BA  486E FFE8                pea.l      [A6 - 0x18]
000048BE  206E FFD4                movea.l    A0, [A6 - 0x2C]
000048C2  4868 0002                pea.l      [A0 + 0x2]
000048C6  486E FFD8                pea.l      [A6 - 0x28]
000048CA  486E FFE0                pea.l      [A6 - 0x20]
000048CE  3F3C 0001                move.w     -[A7], 0x1
000048D2  42A7                     clr.l      -[A7]
000048D4  A8EC                     syscall    CopyBits
000048D6  2F3C 0000 0001           move.l     -[A7], 0x1
000048DC  A894                     syscall    Move
000048DE  BC47                     cmp.w      D6, D7
000048E0  6F22                     ble        +0x24 /* 00004904 */
000048E2  2F3C 0000 000A           move.l     -[A7], 0xA /* '\n' */
000048E8  A894                     syscall    Move
000048EA  3006                     move.w     D0, D6
000048EC  9047                     sub.w      D0, D7
000048EE  3F00                     move.w     -[A7], D0
000048F0  3007                     move.w     D0, D7
000048F2  48C0                     ext.l      D0
000048F4  D08B                     add.l      D0, A3
000048F6  2F00                     move.l     -[A7], D0
000048F8  2F2E 000C                move.l     -[A7], [A6 + 0xC]
000048FC  2F2E 0008                move.l     -[A7], [A6 + 0x8]
00004900  4EBA FE94                jsr        [PC - 0x16C /* 00004796 */]
label00004904:
00004904  6044                     bra        +0x46 /* 0000494A */
label00004906:
00004906  BC47                     cmp.w      D6, D7
00004908  660E                     bne        +0x10 /* 00004918 */
0000490A  3F06                     move.w     -[A7], D6
0000490C  2F0B                     move.l     -[A7], A3
0000490E  2F2E 000C                move.l     -[A7], [A6 + 0xC]
00004912  2F2E 0008                move.l     -[A7], [A6 + 0x8]
00004916  A882                     syscall    StdText
label00004918:
00004918  5247                     addq.w     D7, 1
0000491A  528C                     addq.l     A4, 1
0000491C  102D F2B3                move.b     D0, [A5 - 0xD4D]
00004920  6724                     beq        +0x26 /* 00004946 */
label00004922:
00004922  4267                     clr.w      -[A7]
00004924  2F0B                     move.l     -[A7], A3
00004926  3007                     move.w     D0, D7
00004928  5340                     subq.w     D0, 1
0000492A  3F00                     move.w     -[A7], D0
0000492C  2F3C 8206 0010           move.l     -[A7], 0x82060010
00004932  A8B5                     syscall    ScriptUtil
00004934  4A5F                     tst.w      [A7]+
00004936  5EC0                     sgt        D0
00004938  BC47                     cmp.w      D6, D7
0000493A  5EC1                     sgt        D1
0000493C  C001                     and.b      D0, D1
0000493E  6706                     beq        +0x8 /* 00004946 */
00004940  5247                     addq.w     D7, 1
00004942  528C                     addq.l     A4, 1
00004944  60DC                     bra        -0x22 /* 00004922 */
label00004946:
00004946  6000 FE70                bra        -0x18E /* 000047B8 */
label0000494A:
0000494A  4CDF 18C0                movem.l    D6,D7,A3,A4, [A7]+
0000494E  4E5E                     unlink     A6
00004950  205F                     movea.l    A0, [A7]+
00004952  DEFC 000E                add.w      A7, 0xE
00004956  4ED0                     jmp        [A0]
00004958  0036 4E56 FFF0 48E7 0F18 ori.b      [0x48E70F18], 0x56 /* 'V' */
00004962  266E 0014                movea.l    A3, [A6 + 0x14]
00004966  2D7C 0100 0000 FFF4      move.l     [A6 - 0xC], 0x1000000
0000496E  2F3C 0001 0000           move.l     -[A7], 0x10000
00004974  486E FFF4                pea.l      [A6 - 0xC]
00004978  2F2E 0010                move.l     -[A7], [A6 + 0x10]
0000497C  2F2E 000C                move.l     -[A7], [A6 + 0xC]
00004980  2F2E 0008                move.l     -[A7], [A6 + 0x8]
00004984  A8ED                     syscall    StdTxMeas
00004986  381F                     move.w     D4, [A7]+
00004988  3A3C 000C                move.w     D5, 0xC
0000498C  9A44                     sub.w      D5, D4
0000498E  4267                     clr.w      -[A7]
00004990  3F2E 0018                move.w     -[A7], [A6 + 0x18]
00004994  2F0B                     move.l     -[A7], A3
00004996  2F2E 0010                move.l     -[A7], [A6 + 0x10]
0000499A  2F2E 000C                move.l     -[A7], [A6 + 0xC]
0000499E  2F2E 0008                move.l     -[A7], [A6 + 0x8]
000049A2  A8ED                     syscall    StdTxMeas
000049A4  3C1F                     move.w     D6, [A7]+
000049A6  284B                     movea.l    A4, A3
000049A8  7E01                     moveq.l    D7, 0x01
label000049AA:
000049AA  BE6E 0018                cmp.w      D7, [A6 + 0x18]
000049AE  6E00 0084                bgt        +0x86 /* 00004A34 */
000049B2  4267                     clr.w      -[A7]
000049B4  2F0C                     move.l     -[A7], A4
000049B6  4EBA 047E                jsr        [PC + 0x47E /* 00004E36 */]
000049BA  301F                     move.w     D0, [A7]+
000049BC  6B18                     bmi        +0x1A /* 000049D6 */
000049BE  B07C 0007                cmp.w      D0, 0x7
000049C2  6E12                     bgt        +0x14 /* 000049D6 */
000049C4  41FA 0082                lea.l      A0, [PC + 0x82 /* 00004A48, value 0x4E560000 'NV\0\0', cstring "NV" */]
000049C8  3200                     move.w     D1, D0
000049CA  E649                     lsr        D1.w, 3
000049CC  4441                     neg.w      D1
000049CE  0130 10FF                btst       [A0 + D1.w - 0x1], D0
000049D2  0A3C 0004                xori.b     ccr, 4
label000049D6:
000049D6  6632                     bne        +0x34 /* 00004A0A */
000049D8  102D F2B3                move.b     D0, [A5 - 0xD4D]
000049DC  0A00 0001                xori.b     D0, 0x1
000049E0  4A00                     tst.b      D0
000049E2  6624                     bne        +0x26 /* 00004A08 */
000049E4  2F00                     move.l     -[A7], D0
000049E6  4267                     clr.w      -[A7]
000049E8  2F0B                     move.l     -[A7], A3
000049EA  3207                     move.w     D1, D7
000049EC  5341                     subq.w     D1, 1
000049EE  3F01                     move.w     -[A7], D1
000049F0  2F3C 8206 0010           move.l     -[A7], 0x82060010
000049F6  A8B5                     syscall    ScriptUtil
000049F8  321F                     move.w     D1, [A7]+
000049FA  201F                     move.l     D0, [A7]+
000049FC  4A41                     tst.w      D1
000049FE  57C1                     seq        D1
00004A00  8001                     or.b       D0, D1
00004A02  0240 0001                andi.w     D0, 0x1
00004A06  6702                     beq        +0x4 /* 00004A0A */
label00004A08:
00004A08  DC45                     add.w      D6, D5
label00004A0A:
00004A0A  5247                     addq.w     D7, 1
00004A0C  528C                     addq.l     A4, 1
00004A0E  102D F2B3                move.b     D0, [A5 - 0xD4D]
00004A12  671C                     beq        +0x1E /* 00004A30 */
label00004A14:
00004A14  4267                     clr.w      -[A7]
00004A16  2F0B                     move.l     -[A7], A3
00004A18  3007                     move.w     D0, D7
00004A1A  5340                     subq.w     D0, 1
00004A1C  3F00                     move.w     -[A7], D0
00004A1E  2F3C 8206 0010           move.l     -[A7], 0x82060010
00004A24  A8B5                     syscall    ScriptUtil
00004A26  4A5F                     tst.w      [A7]+
00004A28  6F06                     ble        +0x8 /* 00004A30 */
00004A2A  5247                     addq.w     D7, 1
00004A2C  528C                     addq.l     A4, 1
00004A2E  60E4                     bra        -0x1A /* 00004A14 */
label00004A30:
00004A30  6000 FF78                bra        -0x86 /* 000049AA */
label00004A34:
00004A34  3D46 001A                move.w     [A6 + 0x1A], D6
00004A38  4CDF 18F0                movem.l    D4,D5,D6,D7,A3,A4, [A7]+
00004A3C  4E5E                     unlink     A6
00004A3E  205F                     movea.l    A0, [A7]+
00004A40  DEFC 0012                add.w      A7, 0x12
00004A44  4ED0                     jmp        [A0]
00004A46  0036 4E56 0000           ori.b      [A6 + D0.w], 0x56 /* 'V' */
// begin alternate branch 00004A48-00004A4C
export_252:
fn00004A48:
00004A48  4E56 0000                link       A6, 0
// end alternate branch 00004A48-00004A4C
export_252: // at 00004A48 (misaligned)
fn00004A48: // (misaligned)
00004A4C  4267                     clr.w      -[A7]
00004A4E  4EAD 17FA                jsr        [A5 + 0x17FA /* export_763, CODE:16 @ 0000009E */]
00004A52  4267                     clr.w      -[A7]
00004A54  4EBA D9FC                jsr        [PC - 0x2604 /* 00002452 */]
00004A58  4A5F                     tst.w      [A7]+
00004A5A  57C0                     seq        D0
00004A5C  C01F                     and.b      D0, [A7]+
00004A5E  6708                     beq        +0xA /* 00004A68 */
00004A60  3F3C 0080                move.w     -[A7], 0x80
00004A64  4EBA DA0E                jsr        [PC - 0x25F2 /* 00002474 */]
label00004A68:
00004A68  4E5E                     unlink     A6
00004A6A  4E75                     rts
export_253:
fn00004A6C:
00004A6C  4E56 0000                link       A6, 0
00004A70  206D DBFC                movea.l    A0, [A5 - 0x2404]
00004A74  2050                     movea.l    A0, [A0]
00004A76  3028 0018                move.w     D0, [A0 + 0x18]
00004A7A  48C0                     ext.l      D0
00004A7C  81FC 0100                divs.w     D0, 0x100
00004A80  7204                     moveq.l    D1, 0x04
00004A82  B240                     cmp.w      D1, D0
00004A84  57C0                     seq        D0
00004A86  4400                     neg.b      D0
00004A88  1D40 0008                move.b     [A6 + 0x8], D0
00004A8C  4E5E                     unlink     A6
00004A8E  4E75                     rts
fn00004A90:
00004A90  4E56 0000                link       A6, 0
00004A94  4267                     clr.w      -[A7]
00004A96  4EBA CE26                jsr        [PC - 0x31DA /* 000018BE */]
00004A9A  102D D9EC                move.b     D0, [A5 - 0x2614]
00004A9E  0A00 0001                xori.b     D0, 0x1
00004AA2  C01F                     and.b      D0, [A7]+
00004AA4  122D D9F6                move.b     D1, [A5 - 0x260A]
00004AA8  4881                     ext.w      D1
00004AAA  4A41                     tst.w      D1
00004AAC  6B18                     bmi        +0x1A /* 00004AC6 */
00004AAE  B27C 0007                cmp.w      D1, 0x7
00004AB2  6E12                     bgt        +0x14 /* 00004AC6 */
00004AB4  41FA 001E                lea.l      A0, [PC + 0x1E /* 00004AD4, value 0x4E560000 'NV\0\0', cstring "NV" */]
00004AB8  3401                     move.w     D2, D1
00004ABA  E64A                     lsr        D2.w, 3
00004ABC  4442                     neg.w      D2
00004ABE  0330 20FF                btst       [A0 + D2.w - 0x1], D1
00004AC2  0A3C 0004                xori.b     ccr, 4
label00004AC6:
00004AC6  56C1                     sne        D1
00004AC8  C001                     and.b      D0, D1
00004ACA  1D40 0008                move.b     [A6 + 0x8], D0
00004ACE  4E5E                     unlink     A6
00004AD0  4E75                     rts
00004AD2  0003 4E56                ori.b      D3, 0x56 /* 'V' */
// begin alternate branch 00004AD4-00004ADC
export_254:
fn00004AD4:
00004AD4  4E56 0000                link       A6, 0
00004AD8  302D DC10                move.w     D0, [A5 - 0x23F0]
// end alternate branch 00004AD4-00004ADC
export_254: // at 00004AD4 (misaligned)
fn00004AD4: // (misaligned)
00004AD6  0000 302D                ori.b      D0, 0x2D /* '-' */
00004ADA  DC10                     add.b      D6, [A0]
00004ADC  906D DC0C                sub.w      D0, [A5 - 0x23F4]
00004AE0  322D DC12                move.w     D1, [A5 - 0x23EE]
00004AE4  926D DC0E                sub.w      D1, [A5 - 0x23F2]
00004AE8  B240                     cmp.w      D1, D0
00004AEA  5DC0                     slt        D0
00004AEC  4400                     neg.b      D0
00004AEE  1D40 0008                move.b     [A6 + 0x8], D0
00004AF2  4E5E                     unlink     A6
00004AF4  4E75                     rts
export_255:
fn00004AF6:
00004AF6  4E56 0000                link       A6, 0
00004AFA  2F0C                     move.l     -[A7], A4
00004AFC  206D DBFC                movea.l    A0, [A5 - 0x2404]
00004B00  2050                     movea.l    A0, [A0]
00004B02  49E8 0008                lea.l      A4, [A0 + 0x8]
00004B06  302C 0004                move.w     D0, [A4 + 0x4]
00004B0A  9054                     sub.w      D0, [A4]
00004B0C  322C 0006                move.w     D1, [A4 + 0x6]
00004B10  926C 0002                sub.w      D1, [A4 + 0x2]
00004B14  B240                     cmp.w      D1, D0
00004B16  5DC0                     slt        D0
00004B18  4400                     neg.b      D0
00004B1A  1D40 0008                move.b     [A6 + 0x8], D0
00004B1E  285F                     movea.l    A4, [A7]+
00004B20  4E5E                     unlink     A6
00004B22  4E75                     rts
fn00004B24:
00004B24  205F                     movea.l    A0, [A7]+
00004B26  321F                     move.w     D1, [A7]+
00004B28  225F                     movea.l    A1, [A7]+
00004B2A  EA41                     asr        D1.w, 5
00004B2C  6020                     bra        +0x22 /* 00004B4E */
label00004B2E:
00004B2E  2019                     move.l     D0, [A1]+
00004B30  6626                     bne        +0x28 /* 00004B58 */
00004B32  2019                     move.l     D0, [A1]+
00004B34  6622                     bne        +0x24 /* 00004B58 */
00004B36  2019                     move.l     D0, [A1]+
00004B38  661E                     bne        +0x20 /* 00004B58 */
00004B3A  2019                     move.l     D0, [A1]+
00004B3C  661A                     bne        +0x1C /* 00004B58 */
00004B3E  2019                     move.l     D0, [A1]+
00004B40  6616                     bne        +0x18 /* 00004B58 */
00004B42  2019                     move.l     D0, [A1]+
00004B44  6612                     bne        +0x14 /* 00004B58 */
00004B46  2019                     move.l     D0, [A1]+
00004B48  660E                     bne        +0x10 /* 00004B58 */
00004B4A  2019                     move.l     D0, [A1]+
00004B4C  660A                     bne        +0xC /* 00004B58 */
label00004B4E:
00004B4E  51C9 FFDE                dbf        D1, -0x24 /* 00004B2E */
00004B52  70FF                     moveq.l    D0, 0xFFFFFFFF
00004B54  3E80                     move.w     [A7], D0
00004B56  4ED0                     jmp        [A0]
label00004B58:
00004B58  4257                     clr.w      [A7]
00004B5A  4ED0                     jmp        [A0]
fn00004B5C:
00004B5C  4E56 0000                link       A6, 0
00004B60  48E7 0030                movem.l    -[A7], A2,A3
00004B64  206E 000E                movea.l    A0, [A6 + 0xE]
00004B68  2050                     movea.l    A0, [A0]
00004B6A  226E 000A                movea.l    A1, [A6 + 0xA]
00004B6E  2251                     movea.l    A1, [A1]
00004B70  2449                     movea.l    A2, A1
00004B72  342E 0008                move.w     D2, [A6 + 0x8]
00004B76  7000                     moveq.l    D0, 0x00
00004B78  3002                     move.w     D0, D2
00004B7A  E380                     asl        D0, 1
00004B7C  D5C0                     add.l      A2, D0
00004B7E  47FA 00B6                lea.l      A3, [PC + 0xB6 /* 00004C36, value 0x3, cstring "" */]
00004B82  E24A                     lsr        D2.w, 1
00004B84  5342                     subq.w     D2, 1
label00004B86:
00004B86  7000                     moveq.l    D0, 0x00
00004B88  1018                     move.b     D0, [A0]+
00004B8A  E340                     asl        D0.w, 1
00004B8C  3233 0000                move.w     D1, [A3 + D0.w]
00004B90  4841                     swap.w     D1
00004B92  7000                     moveq.l    D0, 0x00
00004B94  1018                     move.b     D0, [A0]+
00004B96  E340                     asl        D0.w, 1
00004B98  3233 0000                move.w     D1, [A3 + D0.w]
00004B9C  22C1                     move.l     [A1]+, D1
00004B9E  24C1                     move.l     [A2]+, D1
00004BA0  51CA FFE4                dbf        D2, -0x1E /* 00004B86 */
00004BA4  226E 000E                movea.l    A1, [A6 + 0xE]
00004BA8  2288                     move.l     [A1], A0
00004BAA  226E 000A                movea.l    A1, [A6 + 0xA]
00004BAE  228A                     move.l     [A1], A2
00004BB0  4CDF 0C00                movem.l    A2,A3, [A7]+
00004BB4  4E5E                     unlink     A6
00004BB6  205F                     movea.l    A0, [A7]+
00004BB8  DEFC 000A                add.w      A7, 0xA /* '\n' */
00004BBC  4ED0                     jmp        [A0]
fn00004BBE:
00004BBE  4E56 0000                link       A6, 0
00004BC2  48E7 183C                movem.l    -[A7], D3,D4,A2,A3,A4,A5
00004BC6  206E 000E                movea.l    A0, [A6 + 0xE]
00004BCA  2050                     movea.l    A0, [A0]
00004BCC  226E 000A                movea.l    A1, [A6 + 0xA]
00004BD0  2251                     movea.l    A1, [A1]
00004BD2  382E 0008                move.w     D4, [A6 + 0x8]
00004BD6  7000                     moveq.l    D0, 0x00
00004BD8  3004                     move.w     D0, D4
00004BDA  E580                     asl        D0, 2
00004BDC  2449                     movea.l    A2, A1
00004BDE  D5C0                     add.l      A2, D0
00004BE0  264A                     movea.l    A3, A2
00004BE2  D7C0                     add.l      A3, D0
00004BE4  284B                     movea.l    A4, A3
00004BE6  D9C0                     add.l      A4, D0
00004BE8  4BFA 004C                lea.l      A5, [PC + 0x4C /* 00004C36, value 0x3, cstring "" */]
00004BEC  76FE                     moveq.l    D3, 0xFFFFFFFE
00004BEE  5344                     subq.w     D4, 1
label00004BF0:
00004BF0  7000                     moveq.l    D0, 0x00
00004BF2  1018                     move.b     D0, [A0]+
00004BF4  E340                     asl        D0.w, 1
00004BF6  3235 0000                move.w     D1, [A5 + D0.w]
00004BFA  7000                     moveq.l    D0, 0x00
00004BFC  1001                     move.b     D0, D1
00004BFE  E340                     asl        D0.w, 1
00004C00  3435 0000                move.w     D2, [A5 + D0.w]
00004C04  4842                     swap.w     D2
00004C06  EE49                     lsr        D1.w, 7
00004C08  C243                     and.w      D1, D3
00004C0A  3435 1000                move.w     D2, [A5 + D1.w]
00004C0E  4842                     swap.w     D2
00004C10  22C2                     move.l     [A1]+, D2
00004C12  24C2                     move.l     [A2]+, D2
00004C14  26C2                     move.l     [A3]+, D2
00004C16  28C2                     move.l     [A4]+, D2
00004C18  51CC FFD6                dbf        D4, -0x2C /* 00004BF0 */
00004C1C  226E 000E                movea.l    A1, [A6 + 0xE]
00004C20  2288                     move.l     [A1], A0
00004C22  226E 000A                movea.l    A1, [A6 + 0xA]
00004C26  228C                     move.l     [A1], A4
00004C28  4CDF 3C18                movem.l    D3,D4,A2,A3,A4,A5, [A7]+
00004C2C  4E5E                     unlink     A6
00004C2E  205F                     movea.l    A0, [A7]+
00004C30  DEFC 000A                add.w      A7, 0xA /* '\n' */
00004C34  4ED0                     jmp        [A0]
00004C36  0000 0003                ori.b      D0, 0x3
00004C3A  000C 000F                ori.b      A4, 0xF
00004C3E  0030 0033 003C           ori.b      [A0 + D0.w + 0x3C], 0x33 /* '3' */
00004C44  003F 00C0                ori.b      <<invalid special address>>, 0xC0
00004C48  00C3                     .incomplete
00004C4A  00CC                     .incomplete
00004C4C  00CF                     .incomplete
00004C4E  00F0                     .incomplete
00004C50  00F3                     .incomplete
00004C52  00FC                     .incomplete
00004C54  00FF                     .incomplete
00004C56  0300                     btst       D0, D1
00004C58  0303                     btst       D3, D1
00004C5A  030C                     btst       A4, D1
00004C5C  030F                     btst       A7, D1
00004C5E  0330 0333 033C 033F 0... btst       [[A0 + 0x33C033F + D0 * 2] + 0x3C003C3], D1
00004C6A  03CC                     .incomplete
00004C6C  03CF                     .incomplete
00004C6E  03F0                     .incomplete
00004C70  03F3                     .incomplete
00004C72  03FC                     .incomplete
00004C74  03FF                     .incomplete
00004C76  0C00 0C03                cmpi.b     D0, 0x3
00004C7A  0C0C 0C0F                cmpi.b     A4, 0xF
00004C7E  0C30 0C33 0C3C           cmpi.b     [A0 + D0 * 4 + 0x3C], 0x33 /* '3' */
00004C84  0C3F 0CC0                cmpi.b     <<invalid special address>>, 0xC0
00004C88  0CC3                     .incomplete
00004C8A  0CCC                     .incomplete
00004C8C  0CCF                     .incomplete
00004C8E  0CF0                     .incomplete
00004C90  0CF3                     .incomplete
00004C92  0CFC                     .incomplete
00004C94  0CFF                     .incomplete
00004C96  0F00                     btst       D0, D7
00004C98  0F03                     btst       D3, D7
00004C9A  0F0C                     btst       A4, D7
00004C9C  0F0F                     btst       A7, D7
00004C9E  0F30 0F33 0F3C 0F3F 0... btst       [[A0 + 0xF3C0F3F + D0 * 8] + 0xFC00FC3], D7
00004CAA  0FCC                     .incomplete
00004CAC  0FCF                     .incomplete
00004CAE  0FF0                     .incomplete
00004CB0  0FF3                     .incomplete
00004CB2  0FFC                     .incomplete
00004CB4  0FFF                     .incomplete
00004CB6  3000                     move.w     D0, D0
00004CB8  3003                     move.w     D0, D3
00004CBA  300C                     move.w     D0, A4
00004CBC  300F                     move.w     D0, A7
00004CBE  3030 3033                move.w     D0, [A0 + D3.w + 0x33]
00004CC2  303C 303F                move.w     D0, 0x303F /* '0?' */
00004CC6  30C0                     move.w     [A0]+, D0
00004CC8  30C3                     move.w     [A0]+, D3
00004CCA  30CC                     move.w     [A0]+, A4
00004CCC  30CF                     move.w     [A0]+, A7
00004CCE  30F0 30F3                move.w     [A0]+, [A0 + D3.w - 0xD]
00004CD2  30FC 30FF                move.w     [A0]+, 0x30FF
00004CD6  3300                     move.w     -[A1], D0
00004CD8  3303                     move.w     -[A1], D3
00004CDA  330C                     move.w     -[A1], A4
00004CDC  330F                     move.w     -[A1], A7
00004CDE  3330 3333 333C 333F 3... move.w     -[A1], [[A0 + 0x333C333F + D3 * 2] + 0x33C033C3]
00004CEA  33CC 33CF 33F0           move.w     [0x33CF33F0], A4
00004CF0  33F3 33FC 33FF 3C00      move.w     [0x33FF3C00], <<invalid full ext with I/IS == 4>>
00004CF8  3C03                     move.w     D6, D3
00004CFA  3C0C                     move.w     D6, A4
00004CFC  3C0F                     move.w     D6, A7
00004CFE  3C30 3C33                move.w     D6, [A0 + D3 * 4 + 0x33]
00004D02  3C3C 3C3F                move.w     D6, 0x3C3F /* '<?' */
00004D06  3CC0                     move.w     [A6]+, D0
00004D08  3CC3                     move.w     [A6]+, D3
00004D0A  3CCC                     move.w     [A6]+, A4
00004D0C  3CCF                     move.w     [A6]+, A7
00004D0E  3CF0 3CF3                move.w     [A6]+, [A0 + D3 * 4 - 0xD]
00004D12  3CFC 3CFF                move.w     [A6]+, 0x3CFF
00004D16  3F00                     move.w     -[A7], D0
00004D18  3F03                     move.w     -[A7], D3
00004D1A  3F0C                     move.w     -[A7], A4
00004D1C  3F0F                     move.w     -[A7], A7
00004D1E  3F30 3F33 3F3C 3F3F 3... move.w     -[A7], [[A0 + 0x3F3C3F3F + D3 * 8] + 0x3FC03FC3]
00004D2A  3FCC                     move.w     <<invalid special address>>, A4
00004D2C  3FCF                     move.w     <<invalid special address>>, A7
00004D2E  3FF0 3FF3 3FFC 3FFF C... move.w     <<invalid special address>>, [[0x3FFC3FFF] - 0x3FFF3FFD]
00004D3A  C00C                     and.b      D0, A4
00004D3C  C00F                     and.b      D0, A7
00004D3E  C030 C033                and.b      D0, [A0 + A4.w + 0x33]
00004D42  C03C C03F                and.b      D0, 0x3F /* '?' */
00004D46  C0C0                     mulu.w     D0, D0
00004D48  C0C3                     mulu.w     D0, D3
00004D4A  C0CC                     mulu.w     D0, A4
00004D4C  C0CF                     mulu.w     D0, A7
00004D4E  C0F0 C0F3                mulu.w     D0, [A0 + A4.w - 0xD]
00004D52  C0FC C0FF                mulu.w     D0, 0xC0FF
00004D56  C300                     abcd       D1, D0
00004D58  C303                     abcd       D1, D3
00004D5A  C30C                     abcd       -[A1], -[A4]
00004D5C  C30F                     abcd       -[A1], -[A7]
00004D5E  C330 C333 C33C C33F C... and.b      [[A0 - 0x3CC33CC1 + A4 * 2] - 0x3C3F3C3D], D1
00004D6A  C3CC                     muls.w     D1, A4
00004D6C  C3CF                     muls.w     D1, A7
00004D6E  C3F0 C3F3 C3FC C3FF C... muls.w     D1, [[-0x3C033C01] - 0x33FF33FD]
00004D7A  CC0C                     and.b      D6, A4
00004D7C  CC0F                     and.b      D6, A7
00004D7E  CC30 CC33                and.b      D6, [A0 + A4 * 4 + 0x33]
00004D82  CC3C CC3F                and.b      D6, 0x3F /* '?' */
00004D86  CCC0                     mulu.w     D6, D0
00004D88  CCC3                     mulu.w     D6, D3
00004D8A  CCCC                     mulu.w     D6, A4
00004D8C  CCCF                     mulu.w     D6, A7
00004D8E  CCF0 CCF3                mulu.w     D6, [A0 + A4 * 4 - 0xD]
00004D92  CCFC CCFF                mulu.w     D6, 0xCCFF
00004D96  CF00                     abcd       D7, D0
00004D98  CF03                     abcd       D7, D3
00004D9A  CF0C                     abcd       -[A7], -[A4]
00004D9C  CF0F                     abcd       -[A7], -[A7]
00004D9E  CF30 CF33 CF3C CF3F C... and.b      [[A0 - 0x30C330C1 + A4 * 8] - 0x303F303D], D7
00004DAA  CFCC                     muls.w     D7, A4
00004DAC  CFCF                     muls.w     D7, A7
00004DAE  CFF0 CFF3 CFFC CFFF F... muls.w     D7, [[-0x30033001] - 0xFFF0FFD]
00004DBA  F00C F00F                .invalid   0xF00C, 0xF00F // unimplemented
00004DBE  F030 F033 F03C           .invalid   0xF030, 0xF033 // unimplemented
00004DC4  F03F F0C0                .invalid   0xF03F, 0xF0C0 // unimplemented
00004DC8  F0C3 F0CC                .extension 0x0C3 <<F/2-3/0>> // unimplemented
00004DCC  F0CF F0F0                .extension 0x0CF <<F/2-3/0>> // unimplemented
00004DD0  F0F3 F0FC                .extension 0x0F3 <<F/2-3/0>> // unimplemented
00004DD4  F0FF F300                .extension 0x0FF <<F/2-3/0>> // unimplemented
00004DD8  F303                     .extension 0x303 <<F/4-5/1>> // unimplemented
00004DDA  F30C                     .extension 0x30C <<F/4-5/1>> // unimplemented
00004DDC  F30F                     .extension 0x30F <<F/4-5/1>> // unimplemented
00004DDE  F330                     .extension 0x330 <<F/4-5/1>> // unimplemented
00004DE0  F333                     .extension 0x333 <<F/4-5/1>> // unimplemented
00004DE2  F33C                     .extension 0x33C <<F/4-5/1>> // unimplemented
00004DE4  F33F                     .extension 0x33F <<F/4-5/1>> // unimplemented
00004DE6  F3C0                     .invalid   <<F/7/1>>
00004DE8  F3C3                     .invalid   <<F/7/1>>
00004DEA  F3CC                     .invalid   <<F/7/1>>
00004DEC  F3CF                     .invalid   <<F/7/1>>
00004DEE  F3F0                     .invalid   <<F/7/1>>
00004DF0  F3F3                     .invalid   <<F/7/1>>
00004DF2  F3FC                     .invalid   <<F/7/1>>
00004DF4  F3FF                     .invalid   <<F/7/1>>
00004DF6  FC00 FC03                .unknown   0xFC00 0xFC03 (W = 6)
00004DFA  FC0C FC0F                .unknown   0xFC0C 0xFC0F (W = 6)
00004DFE  FC30 FC33                .unknown   0xFC30 0xFC33 (W = 6)
00004E02  FC3C FC3F                .unknown   0xFC3C 0xFC3F (W = 6)
00004E06  FCC0 FCC3                .extension 0xCC0 <<F/2-3/6>> // unimplemented
00004E0A  FCCC FCCF                .extension 0xCCC <<F/2-3/6>> // unimplemented
00004E0E  FCF0 FCF3                .extension 0xCF0 <<F/2-3/6>> // unimplemented
00004E12  FCFC FCFF                .extension 0xCFC <<F/2-3/6>> // unimplemented
00004E16  FF00                     .extension 0xF00 <<F/4-5/7>> // unimplemented
00004E18  FF03                     .extension 0xF03 <<F/4-5/7>> // unimplemented
00004E1A  FF0C                     .extension 0xF0C <<F/4-5/7>> // unimplemented
00004E1C  FF0F                     .extension 0xF0F <<F/4-5/7>> // unimplemented
00004E1E  FF30                     .extension 0xF30 <<F/4-5/7>> // unimplemented
00004E20  FF33                     .extension 0xF33 <<F/4-5/7>> // unimplemented
00004E22  FF3C                     .extension 0xF3C <<F/4-5/7>> // unimplemented
00004E24  FF3F                     .extension 0xF3F <<F/4-5/7>> // unimplemented
00004E26  FFC0                     .invalid   <<F/7/7>>
00004E28  FFC3                     .invalid   <<F/7/7>>
00004E2A  FFCC                     .invalid   <<F/7/7>>
00004E2C  FFCF                     .invalid   <<F/7/7>>
00004E2E  FFF0                     .invalid   <<F/7/7>>
00004E30  FFF3                     .invalid   <<F/7/7>>
00004E32  FFFC                     .invalid   <<F/7/7>>
00004E34  FFFF                     .invalid   <<F/7/7>>
fn00004E36:
00004E36  205F                     movea.l    A0, [A7]+
00004E38  225F                     movea.l    A1, [A7]+
00004E3A  4240                     clr.w      D0
00004E3C  1011                     move.b     D0, [A1]
00004E3E  3E80                     move.w     [A7], D0
00004E40  4ED0                     jmp        [A0]
fn00004E42:
00004E42  4E56 0000                link       A6, 0
00004E46  48E7 1820                movem.l    -[A7], D3,D4,A2
00004E4A  206E 0012                movea.l    A0, [A6 + 0x12]
00004E4E  226E 000A                movea.l    A1, [A6 + 0xA]
00004E52  2449                     movea.l    A2, A1
00004E54  323C 8000                move.w     D1, 0x8000
00004E58  7400                     moveq.l    D2, 0x00
00004E5A  342E 0010                move.w     D2, [A6 + 0x10]
00004E5E  7600                     moveq.l    D3, 0x00
00004E60  362E 0008                move.w     D3, [A6 + 0x8]
00004E64  382E 000E                move.w     D4, [A6 + 0xE]
00004E68  5344                     subq.w     D4, 1
label00004E6A:
00004E6A  3010                     move.w     D0, [A0]
00004E6C  6700 0088                beq        +0x8A /* 00004EF6 */
00004E70  0C40 FFFF                cmpi.w     D0, 0xFFFF
00004E74  6700 00A4                beq        +0xA6 /* 00004F1A */
00004E78  D040                     add.w      D0, D0
00004E7A  6402                     bcc        +0x4 /* 00004E7E */
00004E7C  8352                     or.w       [A2], D1
label00004E7E:
00004E7E  D5C3                     add.l      A2, D3
00004E80  D040                     add.w      D0, D0
00004E82  6402                     bcc        +0x4 /* 00004E86 */
00004E84  8352                     or.w       [A2], D1
label00004E86:
00004E86  D5C3                     add.l      A2, D3
00004E88  D040                     add.w      D0, D0
00004E8A  6402                     bcc        +0x4 /* 00004E8E */
00004E8C  8352                     or.w       [A2], D1
label00004E8E:
00004E8E  D5C3                     add.l      A2, D3
00004E90  D040                     add.w      D0, D0
00004E92  6402                     bcc        +0x4 /* 00004E96 */
00004E94  8352                     or.w       [A2], D1
label00004E96:
00004E96  D5C3                     add.l      A2, D3
00004E98  D040                     add.w      D0, D0
00004E9A  6402                     bcc        +0x4 /* 00004E9E */
00004E9C  8352                     or.w       [A2], D1
label00004E9E:
00004E9E  D5C3                     add.l      A2, D3
00004EA0  D040                     add.w      D0, D0
00004EA2  6402                     bcc        +0x4 /* 00004EA6 */
00004EA4  8352                     or.w       [A2], D1
label00004EA6:
00004EA6  D5C3                     add.l      A2, D3
00004EA8  D040                     add.w      D0, D0
00004EAA  6402                     bcc        +0x4 /* 00004EAE */
00004EAC  8352                     or.w       [A2], D1
label00004EAE:
00004EAE  D5C3                     add.l      A2, D3
00004EB0  D040                     add.w      D0, D0
00004EB2  6402                     bcc        +0x4 /* 00004EB6 */
00004EB4  8352                     or.w       [A2], D1
label00004EB6:
00004EB6  D5C3                     add.l      A2, D3
00004EB8  D040                     add.w      D0, D0
00004EBA  6402                     bcc        +0x4 /* 00004EBE */
00004EBC  8352                     or.w       [A2], D1
label00004EBE:
00004EBE  D5C3                     add.l      A2, D3
00004EC0  D040                     add.w      D0, D0
00004EC2  6402                     bcc        +0x4 /* 00004EC6 */
00004EC4  8352                     or.w       [A2], D1
label00004EC6:
00004EC6  D5C3                     add.l      A2, D3
00004EC8  D040                     add.w      D0, D0
00004ECA  6402                     bcc        +0x4 /* 00004ECE */
00004ECC  8352                     or.w       [A2], D1
label00004ECE:
00004ECE  D5C3                     add.l      A2, D3
00004ED0  D040                     add.w      D0, D0
00004ED2  6402                     bcc        +0x4 /* 00004ED6 */
00004ED4  8352                     or.w       [A2], D1
label00004ED6:
00004ED6  D5C3                     add.l      A2, D3
00004ED8  D040                     add.w      D0, D0
00004EDA  6402                     bcc        +0x4 /* 00004EDE */
00004EDC  8352                     or.w       [A2], D1
label00004EDE:
00004EDE  D5C3                     add.l      A2, D3
00004EE0  D040                     add.w      D0, D0
00004EE2  6402                     bcc        +0x4 /* 00004EE6 */
00004EE4  8352                     or.w       [A2], D1
label00004EE6:
00004EE6  D5C3                     add.l      A2, D3
00004EE8  D040                     add.w      D0, D0
00004EEA  6402                     bcc        +0x4 /* 00004EEE */
00004EEC  8352                     or.w       [A2], D1
label00004EEE:
00004EEE  D5C3                     add.l      A2, D3
00004EF0  D040                     add.w      D0, D0
00004EF2  6402                     bcc        +0x4 /* 00004EF6 */
00004EF4  8352                     or.w       [A2], D1
label00004EF6:
00004EF6  91C2                     sub.l      A0, D2
00004EF8  2449                     movea.l    A2, A1
00004EFA  E259                     ror        D1.w, 1
00004EFC  6506                     bcs        +0x8 /* 00004F04 */
00004EFE  51CC FF6A                dbf        D4, -0x98 /* 00004E6A */
00004F02  6008                     bra        +0xA /* 00004F0C */
label00004F04:
00004F04  5489                     addq.l     A1, 2
00004F06  2449                     movea.l    A2, A1
00004F08  51CC FF60                dbf        D4, -0xA2 /* 00004E6A */
label00004F0C:
00004F0C  4CDF 0418                movem.l    D3,D4,A2, [A7]+
00004F10  4E5E                     unlink     A6
00004F12  205F                     movea.l    A0, [A7]+
00004F14  DEFC 000E                add.w      A7, 0xE
00004F18  4ED0                     jmp        [A0]
label00004F1A:
00004F1A  8352                     or.w       [A2], D1
00004F1C  D5C3                     add.l      A2, D3
00004F1E  8352                     or.w       [A2], D1
00004F20  D5C3                     add.l      A2, D3
00004F22  8352                     or.w       [A2], D1
00004F24  D5C3                     add.l      A2, D3
00004F26  8352                     or.w       [A2], D1
00004F28  D5C3                     add.l      A2, D3
00004F2A  8352                     or.w       [A2], D1
00004F2C  D5C3                     add.l      A2, D3
00004F2E  8352                     or.w       [A2], D1
00004F30  D5C3                     add.l      A2, D3
00004F32  8352                     or.w       [A2], D1
00004F34  D5C3                     add.l      A2, D3
00004F36  8352                     or.w       [A2], D1
00004F38  D5C3                     add.l      A2, D3
00004F3A  8352                     or.w       [A2], D1
00004F3C  D5C3                     add.l      A2, D3
00004F3E  8352                     or.w       [A2], D1
00004F40  D5C3                     add.l      A2, D3
00004F42  8352                     or.w       [A2], D1
00004F44  D5C3                     add.l      A2, D3
00004F46  8352                     or.w       [A2], D1
00004F48  D5C3                     add.l      A2, D3
00004F4A  8352                     or.w       [A2], D1
00004F4C  D5C3                     add.l      A2, D3
00004F4E  8352                     or.w       [A2], D1
00004F50  D5C3                     add.l      A2, D3
00004F52  8352                     or.w       [A2], D1
00004F54  D5C3                     add.l      A2, D3
00004F56  8352                     or.w       [A2], D1
00004F58  609C                     bra        -0x62 /* 00004EF6 */
fn00004F5A:
00004F5A  4E56 0000                link       A6, 0
00004F5E  41FA 000C                lea.l      A0, [PC + 0xC /* 00004F6C, value 0xFFDFF81F */]
00004F62  2D48 0008                move.l     [A6 + 0x8], A0
00004F66  4E5E                     unlink     A6
00004F68  205F                     movea.l    A0, [A7]+
00004F6A  4ED0                     jmp        [A0]
00004F6C  FFDF                     .invalid   <<F/7/7>>
00004F6E  F81F E7FE                .tblXX     0xF81F, 0xE7FE // unimplemented
00004F72  805F                     or.w       D0, [A7]+
00004F74  F821 17CE                .tblXX     0xF821, 0x17CE // unimplemented
00004F78  9250                     sub.w      D1, [A0]
00004F7A  0821 1702                btst.b     -[A1], 0x2
00004F7E  BF50                     xor.w      [A0], D7
00004F80  8821                     or.b       D4, -[A1]
00004F82  1400                     move.b     D2, D0
00004F84  9251                     sub.w      D1, [A1]
00004F86  8821                     or.b       D4, -[A1]
00004F88  1002                     move.b     D0, D2
00004F8A  9250                     sub.w      D1, [A0]
00004F8C  882F 940C                or.b       D4, [A7 - 0x6BF4]
00004F90  BF50                     xor.w      [A0], D7
00004F92  8821                     or.b       D4, -[A1]
00004F94  1332 9250                move.b     -[A1], [A2 + A1.w * 2 + 0x50]
00004F98  8820                     or.b       D4, -[A0]
00004F9A  14CE                     move.b     [A2]+, A6
00004F9C  8050                     or.w       D0, [A0]
00004F9E  0820 173E                btst.b     -[A0], 0x3E /* '>' */
00004FA2  FFDF                     .invalid   <<F/7/7>>
00004FA4  F81F E7FE                .tblXX     0xF81F, 0xE7FE // unimplemented
fn00004FA8:
00004FA8  4E56 FFFE                link       A6, -0x0002
00004FAC  48E7 1F38                movem.l    -[A7], D3,D4,D5,D6,D7,A2,A3,A4
00004FB0  226E 0008                movea.l    A1, [A6 + 0x8]
00004FB4  2451                     movea.l    A2, [A1]
00004FB6  264A                     movea.l    A3, A2
00004FB8  D6FC 0040                add.w      A3, 0x40 /* '@' */
00004FBC  49FA 0094                lea.l      A4, [PC + 0x94 /* 00005052, value 0x10203, cstring "" */]
00004FC0  7C0F                     moveq.l    D6, 0x0F
00004FC2  7E0F                     moveq.l    D7, 0x0F
00004FC4  3D7C 00AA FFFE           move.w     [A6 - 0x2], 0xAA
00004FCA  7800                     moveq.l    D4, 0x00
label00004FCC:
00004FCC  700F                     moveq.l    D0, 0x0F
label00004FCE:
00004FCE  7207                     moveq.l    D1, 0x07
00004FD0  2412                     move.l     D2, [A2]
00004FD2  2613                     move.l     D3, [A3]
00004FD4  660A                     bne        +0xC /* 00004FE0 */
00004FD6  B682                     cmp.l      D3, D2
00004FD8  6606                     bne        +0x8 /* 00004FE0 */
00004FDA  588A                     addq.l     A2, 4
00004FDC  588B                     addq.l     A3, 4
00004FDE  6052                     bra        +0x54 /* 00005032 */
label00004FE0:
00004FE0  E99A                     rol        D2, 4
00004FE2  1802                     move.b     D4, D2
00004FE4  1A03                     move.b     D5, D3
00004FE6  CA06                     and.b      D5, D6
00004FE8  4606                     not.b      D6
00004FEA  C806                     and.b      D4, D6
00004FEC  8805                     or.b       D4, D5
00004FEE  6728                     beq        +0x2A /* 00005018 */
00004FF0  1A34 4000                move.b     D5, [A4 + D4.w]
00004FF4  6620                     bne        +0x22 /* 00005016 */
00004FF6  0C04 005A                cmpi.b     D4, 0x5A /* 'Z' */
00004FFA  670C                     beq        +0xE /* 00005008 */
00004FFC  0C04 00A5                cmpi.b     D4, 0xA5
00005000  6706                     beq        +0x8 /* 00005008 */
00005002  C807                     and.b      D4, D7
00005004  1A04                     move.b     D5, D4
00005006  6010                     bra        +0x12 /* 00005018 */
label00005008:
00005008  082E 0000 FFFF           btst.b     [A6 - 0x1], 0x0
0000500E  6704                     beq        +0x6 /* 00005014 */
00005010  7AC0                     moveq.l    D5, 0xFFFFFFC0
00005012  6002                     bra        +0x4 /* 00005016 */
label00005014:
00005014  7A30                     moveq.l    D5, 0x30
label00005016:
00005016  1805                     move.b     D4, D5
label00005018:
00005018  C806                     and.b      D4, D6
0000501A  C606                     and.b      D3, D6
0000501C  4606                     not.b      D6
0000501E  CA06                     and.b      D5, D6
00005020  C406                     and.b      D2, D6
00005022  8404                     or.b       D2, D4
00005024  8605                     or.b       D3, D5
00005026  E99B                     rol        D3, 4
00005028  4607                     not.b      D7
0000502A  51C9 FFB4                dbf        D1, -0x4E /* 00004FE0 */
0000502E  24C2                     move.l     [A2]+, D2
00005030  26C3                     move.l     [A3]+, D3
label00005032:
00005032  51C8 FF9A                dbf        D0, -0x68 /* 00004FCE */
00005036  D4FC 0040                add.w      A2, 0x40 /* '@' */
0000503A  D6FC 0040                add.w      A3, 0x40 /* '@' */
0000503E  4607                     not.b      D7
00005040  536E FFFE                subq.w     [A6 - 0x2], 1
00005044  6C86                     bge        -0x78 /* 00004FCC */
00005046  4CDF 1CF8                movem.l    D3,D4,D5,D6,D7,A2,A3,A4, [A7]+
0000504A  4E5E                     unlink     A6
0000504C  205F                     movea.l    A0, [A7]+
0000504E  588F                     addq.l     A7, 4
00005050  4ED0                     jmp        [A0]
00005052  0001 0203                ori.b      D1, 0x3
00005056  0404 0003                subi.b     D4, 0x3
0000505A  0800 0203                btst.b     D0, 0x3
0000505E  0C0C 0C0F                cmpi.b     A4, 0xF
00005062  1011                     move.b     D0, [A1]
00005064  1211                     move.b     D1, [A1]
00005066  0011 1211                ori.b      [A1], 0x11
0000506A  0011 1211                ori.b      [A1], 0x11
0000506E  0C1D 1E1D                cmpi.b     [A5]+, 0x1D
00005072  2021                     move.l     D0, -[A1]
00005074  2222                     move.l     D1, -[A2]
00005076  0021 2222                ori.b      -[A1], 0x22 /* '\"' */
0000507A  0021 2222                ori.b      -[A1], 0x22 /* '\"' */
0000507E  0C2D 2E2E 3011           cmpi.b     [A5 + 0x3011], 0x2E /* '.' */
00005084  2233 3011                move.l     D1, [A3 + D3.w + 0x11]
00005088  2233 3011                move.l     D1, [A3 + D3.w + 0x11]
0000508C  2233 3C1D                move.l     D1, [A3 + D3 * 4 + 0x1D]
00005090  2E3F                     move.l     D7, <<invalid special address>>
00005092  4000                     negx.b     D0
00005094  0003 4444                ori.b      D3, 0x44 /* 'D' */
00005098  4447                     neg.w      D7
0000509A  4848                     pea.l      A0
0000509C  484B                     pea.l      A3
0000509E  4444                     neg.w      D4
000050A0  4447                     neg.w      D7
000050A2  4011                     negx.b     [A1]
000050A4  1211                     move.b     D1, [A1]
000050A6  4444                     neg.w      D4
000050A8  5655                     addq.w     [A5], 3
000050AA  4859                     pea.l      [A1]+
000050AC  0059 4455                ori.w      [A1]+, 0x4455 /* 'DU' */
000050B0  560F                     addq.b     A7, 3
000050B2  0021 2222                ori.b      -[A1], 0x22 /* '\"' */
000050B6  4465                     neg.w      -[A5]
000050B8  6666                     bne        +0x68 /* 00005120 */
000050BA  4869 6A6A                pea.l      [A1 + 0x6A6A]
000050BE  4465                     neg.w      -[A5]
000050C0  6666                     bne        +0x68 /* 00005128 */
000050C2  3011                     move.w     D0, [A1]
000050C4  2233 7455                move.l     D1, [A3 + D7.w * 4 + 0x55]
000050C8  6677                     bne        +0x79 /* 00005141 */
000050CA  7859                     moveq.l    D4, 0x59
000050CC  6A7B                     bpl        +0x7D /* 00005149 */
000050CE  7455                     moveq.l    D2, 0x55
000050D0  6677                     bne        +0x79 /* 00005149 */
000050D2  8000                     or.b       D0, D0
000050D4  0003 8484                ori.b      D3, 0x84
000050D8  8487                     or.l       D2, D7
000050DA  8888                     or.l       D4, A0
000050DC  888B                     or.l       D4, A3
000050DE  8888                     or.l       D4, A0
000050E0  888B                     or.l       D4, A3
000050E2  0011 1211                ori.b      [A1], 0x11
000050E6  8495                     or.l       D2, [A5]
000050E8  9695                     sub.l      D3, [A5]
000050EA  8899                     or.l       D4, [A1]+
000050EC  9A99                     sub.l      D5, [A1]+
000050EE  8899                     or.l       D4, [A1]+
000050F0  9A99                     sub.l      D5, [A1]+
000050F2  2021                     move.l     D0, -[A1]
000050F4  2222                     move.l     D1, -[A2]
000050F6  8400                     or.b       D2, D0
000050F8  A6A6                     syscall    vStdEntry, flags=6
000050FA  88A9 22AA                or.l       D4, [A1 + 0x22AA]
000050FE  88A9 AA0F                or.l       D4, [A1 - 0x55F1]
00005102  3011                     move.w     D0, [A1]
00005104  2233 B495                move.l     D1, [A3 + A3.w * 4 - 0x6B]
00005108  A6B7                     syscall    vSyncWait, flags=6
0000510A  B899                     cmp.l      D4, [A1]+
0000510C  AABB                     syscall    0xABB
0000510E  B899                     cmp.l      D4, [A1]+
00005110  AABB                     syscall    0xABB
00005112  C0C0                     mulu.w     D0, D0
00005114  C0C3                     mulu.w     D0, D3
00005116  4444                     neg.w      D4
00005118  4447                     neg.w      D7
0000511A  8888                     or.l       D4, A0
0000511C  888B                     or.l       D4, A3
0000511E  CCCC                     mulu.w     D6, A4
label00005120:
00005120  CCCF                     mulu.w     D6, A7
00005122  C0D1                     mulu.w     D0, [A1]
00005124  D2D1                     add.w      A1, [A1]
00005126  4455                     neg.w      [A5]
label00005128:
00005128  5655                     addq.w     [A5], 3
0000512A  8899                     or.l       D4, [A1]+
0000512C  9A99                     sub.l      D5, [A1]+
0000512E  CCDD                     mulu.w     D6, [A5]+
00005130  DEDD                     add.w      A7, [A5]+
00005132  C0E1                     mulu.w     D0, -[A1]
00005134  E2E2                     lsr   .w   -[A2]
00005136  4465                     neg.w      -[A5]
00005138  6666                     bne        +0x68 /* 000051A0 */
0000513A  88A9 AAAA                or.l       D4, [A1 - 0x5556]
0000513E  CCED EEEE                mulu.w     D6, [A5 - 0x1112]
00005142  F0D1 E2F3                .extension 0x0D1 <<F/2-3/0>> // unimplemented
00005146  74F0                     moveq.l    D2, 0xFFFFFFF0
00005148  6677                     bne        +0x79 /* 000051C1 */
0000514A  B899                     cmp.l      D4, [A1]+
0000514C  F0BB FCDD                .extension 0x0BB <<F/2-3/0>> // unimplemented
00005150  EEFF 205F                bfset      <<invalid special address>> {1:31}
// begin alternate branch 00005152-00005154
export_256:
fn00005152:
00005152  205F                     movea.l    A0, [A7]+
// end alternate branch 00005152-00005154
export_256: // at 00005152 (misaligned)
fn00005152: // (misaligned)
00005154  201F                     move.l     D0, [A7]+
00005156  225F                     movea.l    A1, [A7]+
00005158  7200                     moveq.l    D1, 0x00
0000515A  E488                     lsr        D0, 2
0000515C  6402                     bcc        +0x4 /* 00005160 */
0000515E  32C1                     move.w     [A1]+, D1
label00005160:
00005160  6002                     bra        +0x4 /* 00005164 */
label00005162:
00005162  22C1                     move.l     [A1]+, D1
label00005164:
00005164  51C8 FFFC                dbf        D0, -0x6 /* 00005162 */
00005168  4ED0                     jmp        [A0]
