# near model CODE resource
# jump table entries: 5408-5492 (85 of them)
export_676:
00000000  4E56 FFF4                link       A6, -0x000C
00000004  48E7 0718                movem.l    -[A7], D5,D6,D7,A3,A4
00000008  4EAD 1D2A                jsr        [A5 + 0x1D2A /* export_929, CODE:18 @ 0000010C */]
0000000C  1A2D E2E3                move.b     D5, [A5 - 0x1D1D]
00000010  4EBA 0FD8                jsr        [PC + 0xFD8 /* 00000FEA */]
00000014  102D F4CD                move.b     D0, [A5 - 0xB33]
00000018  6700 00C6                beq        +0xC8 /* 000000E0 */
0000001C  4267                     clr.w      -[A7]
0000001E  2F2D F62A                move.l     -[A7], [A5 - 0x9D6]
00000022  4EAD 1F62                jsr        [A5 + 0x1F62 /* export_1000, CODE:19 @ 000016BC */]
00000026  1C1F                     move.b     D6, [A7]+
00000028  4267                     clr.w      -[A7]
0000002A  2F2D F622                move.l     -[A7], [A5 - 0x9DE]
0000002E  4EAD 1F62                jsr        [A5 + 0x1F62 /* export_1000, CODE:19 @ 000016BC */]
00000032  1E1F                     move.b     D7, [A7]+
00000034  1B7C 0001 F4C3           move.b     [A5 - 0xB3D], 0x1
0000003A  4EAD 1ED2                jsr        [A5 + 0x1ED2 /* export_982, CODE:19 @ 00000172 */]
0000003E  422D F4C3                clr.b      [A5 - 0xB3D]
00000042  1006                     move.b     D0, D6
00000044  6736                     beq        +0x38 /* 0000007C */
00000046  2F2D F62A                move.l     -[A7], [A5 - 0x9D6]
0000004A  1F3C 0001                move.b     -[A7], 0x1
0000004E  4EAD 109A                jsr        [A5 + 0x109A /* export_527, CODE:9 @ 000046AA */]
00000052  42A7                     clr.l      -[A7]
00000054  2F2D F62A                move.l     -[A7], [A5 - 0x9D6]
00000058  4EAD 1F7A                jsr        [A5 + 0x1F7A /* export_1003, CODE:19 @ 00001744 */]
0000005C  285F                     movea.l    A4, [A7]+
0000005E  200C                     move.l     D0, A4
00000060  671A                     beq        +0x1C /* 0000007C */
00000062  2054                     movea.l    A0, [A4]
00000064  0828 0005 0010           btst.b     [A0 + 0x10], 0x5
0000006A  56C0                     sne        D0
0000006C  4400                     neg.b      D0
0000006E  1B40 E2E5                move.b     [A5 - 0x1D1B], D0
00000072  2F2D F62A                move.l     -[A7], [A5 - 0x9D6]
00000076  4267                     clr.w      -[A7]
00000078  4EAD 1EF2                jsr        [A5 + 0x1EF2 /* export_986, CODE:19 @ 00000450 */]
label0000007C:
0000007C  1007                     move.b     D0, D7
0000007E  6736                     beq        +0x38 /* 000000B6 */
00000080  2F2D F622                move.l     -[A7], [A5 - 0x9DE]
00000084  1F3C 0001                move.b     -[A7], 0x1
00000088  4EAD 1092                jsr        [A5 + 0x1092 /* export_526, CODE:9 @ 00004638 */]
0000008C  42A7                     clr.l      -[A7]
0000008E  2F2D F622                move.l     -[A7], [A5 - 0x9DE]
00000092  4EAD 1F6A                jsr        [A5 + 0x1F6A /* export_1001, CODE:19 @ 000016EC */]
00000096  265F                     movea.l    A3, [A7]+
00000098  200B                     move.l     D0, A3
0000009A  671A                     beq        +0x1C /* 000000B6 */
0000009C  2053                     movea.l    A0, [A3]
0000009E  0828 0005 0010           btst.b     [A0 + 0x10], 0x5
000000A4  56C0                     sne        D0
000000A6  4400                     neg.b      D0
000000A8  1B40 E2E4                move.b     [A5 - 0x1D1C], D0
000000AC  2F2D F622                move.l     -[A7], [A5 - 0x9DE]
000000B0  4267                     clr.w      -[A7]
000000B2  4EAD 1EE2                jsr        [A5 + 0x1EE2 /* export_984, CODE:19 @ 00000414 */]
label000000B6:
000000B6  2006                     move.l     D0, D6
000000B8  8007                     or.b       D0, D7
000000BA  8005                     or.b       D0, D5
000000BC  6722                     beq        +0x24 /* 000000E0 */
000000BE  41ED E2F2                lea.l      A0, [A5 - 0x1D0E]
000000C2  43ED ED82                lea.l      A1, [A5 - 0x127E]
000000C6  20D9                     move.l     [A0]+, [A1]+
000000C8  20D9                     move.l     [A0]+, [A1]+
000000CA  422D E2FB                clr.b      [A5 - 0x1D05]
000000CE  1007                     move.b     D0, D7
000000D0  6704                     beq        +0x6 /* 000000D6 */
000000D2  422D E2FC                clr.b      [A5 - 0x1D04]
label000000D6:
000000D6  102E 0008                move.b     D0, [A6 + 0x8]
000000DA  6704                     beq        +0x6 /* 000000E0 */
000000DC  4EBA 3626                jsr        [PC + 0x3626 /* 00003704 */]
label000000E0:
000000E0  4CDF 18E0                movem.l    D5,D6,D7,A3,A4, [A7]+
000000E4  4E5E                     unlink     A6
000000E6  205F                     movea.l    A0, [A7]+
000000E8  544F                     addq.w     A7, 2
000000EA  4ED0                     jmp        [A0]
export_677:
000000EC  4E56 FFFC                link       A6, -0x0004
000000F0  2F07                     move.l     -[A7], D7
000000F2  102D F4CD                move.b     D0, [A5 - 0xB33]
000000F6  6706                     beq        +0x8 /* 000000FE */
000000F8  4EBA 09EC                jsr        [PC + 0x9EC /* 00000AE6 */]
000000FC  6038                     bra        +0x3A /* 00000136 */
label000000FE:
000000FE  42A7                     clr.l      -[A7]
00000100  42A7                     clr.l      -[A7]
00000102  4EAD 1DF2                jsr        [A5 + 0x1DF2 /* export_954, CODE:18 @ 000010BC */]
00000106  2F2D F622                move.l     -[A7], [A5 - 0x9DE]
0000010A  4EAD 1D42                jsr        [A5 + 0x1D42 /* export_932, CODE:18 @ 000002C2 */]
0000010E  2E1F                     move.l     D7, [A7]+
00000110  660A                     bne        +0xC /* 0000011C */
00000112  3F3C 0001                move.w     -[A7], 0x1
00000116  4EAD 187A                jsr        [A5 + 0x187A /* export_779, CODE:16 @ 00000500 */]
0000011A  601A                     bra        +0x1C /* 00000136 */
label0000011C:
0000011C  2F07                     move.l     -[A7], D7
0000011E  487A 0024                pea.l      [PC + 0x24 /* 00000144, value 0x4E56 'NV', cstring "" */]
00000122  4EAD 20CA                jsr        [A5 + 0x20CA /* export_1045, CODE:20 @ 00001388 */]
00000126  41ED E0E8                lea.l      A0, [A5 - 0x1F18]
0000012A  43FA 0010                lea.l      A1, [PC + 0x10 /* 0000013C, value 0x76E6577, pstring "newCard" */]
0000012E  20D9                     move.l     [A0]+, [A1]+
00000130  20D9                     move.l     [A0]+, [A1]+
00000132  4EAD 0B8A                jsr        [A5 + 0xB8A /* export_365, CODE:8 @ 00003F30 */]
label00000136:
00000136  2E1F                     move.l     D7, [A7]+
00000138  4E5E                     unlink     A6
0000013A  4E75                     rts
0000013C  076E 6577                bchg       [A6 + 0x6577], D3
00000140  4361                     chk.w      D1, -[A1]
00000142  7264                     moveq.l    D1, 0x64
00000144  0000 4E56                ori.b      D0, 0x56 /* 'V' */
// begin alternate branch 00000146-0000014A
export_678:
00000146  4E56 FFF2                link       A6, -0x000E
// end alternate branch 00000146-0000014A
export_678: // at 00000146 (misaligned)
00000148  FFF2                     .invalid   <<F/7/7>>
0000014A  48E7 0708                movem.l    -[A7], D5,D6,D7,A4
0000014E  2F0D                     move.l     -[A7], A5
00000150  2A78 0904                movea.l    A5, [0x00000904 /* CurrentA5 */]
00000154  2F2D E20E                move.l     -[A7], [A5 - 0x1DF2]
00000158  205F                     movea.l    A0, [A7]+
0000015A  4E90                     jsr        [A0]
0000015C  2878 0A1C                movea.l    A4, [0x00000A1C /* MenuList */]
00000160  4267                     clr.w      -[A7]
00000162  2F0C                     move.l     -[A7], A4
00000164  2F2D E080                move.l     -[A7], [A5 - 0x1F80]
00000168  4EAD 188A                jsr        [A5 + 0x188A /* export_781, CODE:16 @ 00000552 */]
0000016C  101F                     move.b     D0, [A7]+
0000016E  6618                     bne        +0x1A /* 00000188 */
00000170  2F2D E080                move.l     -[A7], [A5 - 0x1F80]
00000174  4EAD 18D2                jsr        [A5 + 0x18D2 /* export_790, CODE:16 @ 0000083E */]
00000178  2B4C E080                move.l     [A5 - 0x1F80], A4
0000017C  4267                     clr.w      -[A7]
0000017E  486D E080                pea.l      [A5 - 0x1F80]
00000182  4EAD 0462                jsr        [A5 + 0x462 /* export_136, CODE:1 @ 00004DBC */]
00000186  3A1F                     move.w     D5, [A7]+
label00000188:
00000188  1B6D F4CD E07F           move.b     [A5 - 0x1F81], [A5 - 0xB33]
0000018E  1B6D EFDF E07E           move.b     [A5 - 0x1F82], [A5 - 0x1021]
00000194  102D E07E                move.b     D0, [A5 - 0x1F82]
00000198  802D E07F                or.b       D0, [A5 - 0x1F81]
0000019C  6700 009A                beq        +0x9C /* 00000238 */
000001A0  486E FFFC                pea.l      [A6 - 0x4]
000001A4  A910                     syscall    GetWMgrPort
000001A6  2F2E FFFC                move.l     -[A7], [A6 - 0x4]
000001AA  A873                     syscall    SetPort
000001AC  486D FE34                pea.l      [A5 - 0x1CC]
000001B0  A87B                     syscall    ClipRect
000001B2  3E38 0BAA                move.w     D7, [0x00000BAA /* MBarHeight */]
000001B6  5747                     subq.w     D7, 3
000001B8  102D E07F                move.b     D0, [A5 - 0x1F81]
000001BC  6726                     beq        +0x28 /* 000001E4 */
000001BE  206D E080                movea.l    A0, [A5 - 0x1F80]
000001C2  2050                     movea.l    A0, [A0]
000001C4  3C28 0002                move.w     D6, [A0 + 0x2]
000001C8  4EAD 21DA                jsr        [A5 + 0x21DA /* export_1079, CODE:20 @ 00004546 */]
000001CC  3006                     move.w     D0, D6
000001CE  5440                     addq.w     D0, 2
000001D0  3F00                     move.w     -[A7], D0
000001D2  3007                     move.w     D0, D7
000001D4  5740                     subq.w     D0, 3
000001D6  3F00                     move.w     -[A7], D0
000001D8  A893                     syscall    MoveTo
000001DA  3F3C 0041                move.w     -[A7], 0x41 /* 'A' */
000001DE  A883                     syscall    DrawChar
000001E0  4EAD 218A                jsr        [A5 + 0x218A /* export_1069, CODE:20 @ 00003950 */]
label000001E4:
000001E4  102D E07E                move.b     D0, [A5 - 0x1F82]
000001E8  674E                     beq        +0x50 /* 00000238 */
000001EA  A89E                     syscall    PenNormal
000001EC  486D DEF4                pea.l      [A5 - 0x210C]
000001F0  A89D                     syscall    PenPat
000001F2  2F3C 0000 0005           move.l     -[A7], 0x5
000001F8  A893                     syscall    MoveTo
000001FA  302D FE3A                move.w     D0, [A5 - 0x1C6]
000001FE  5D40                     subq.w     D0, 6
00000200  3F00                     move.w     -[A7], D0
00000202  4267                     clr.w      -[A7]
00000204  A891                     syscall    LineTo
00000206  2F3C 0001 0003           move.l     -[A7], 0x10003
0000020C  A893                     syscall    MoveTo
0000020E  302D FE3A                move.w     D0, [A5 - 0x1C6]
00000212  5940                     subq.w     D0, 4
00000214  3F00                     move.w     -[A7], D0
00000216  3F3C 0001                move.w     -[A7], 0x1
0000021A  A891                     syscall    LineTo
0000021C  2F3C 0002 0001           move.l     -[A7], 0x20001
00000222  A89B                     syscall    PenSize
00000224  4267                     clr.w      -[A7]
00000226  3F07                     move.w     -[A7], D7
00000228  A893                     syscall    MoveTo
0000022A  302D FE3A                move.w     D0, [A5 - 0x1C6]
0000022E  5340                     subq.w     D0, 1
00000230  3F00                     move.w     -[A7], D0
00000232  3F07                     move.w     -[A7], D7
00000234  A891                     syscall    LineTo
00000236  A89E                     syscall    PenNormal
label00000238:
00000238  2A5F                     movea.l    A5, [A7]+
0000023A  4CDF 10E0                movem.l    D5,D6,D7,A4, [A7]+
0000023E  4E5E                     unlink     A6
00000240  4E75                     rts
export_679:
00000242  4E56 0000                link       A6, 0
00000246  486D ED82                pea.l      [A5 - 0x127E]
0000024A  4EAD 207A                jsr        [A5 + 0x207A /* export_1035, CODE:20 @ 00000CEE */]
0000024E  486D 076A                pea.l      [A5 + 0x76A /* export_233, CODE:4 @ 00002A1A */]
00000252  A9F1                     syscall    UnloadSeg
00000254  1B7C 0001 EFE2           move.b     [A5 - 0x101E], 0x1
0000025A  1F3C 0001                move.b     -[A7], 0x1
0000025E  A834                     syscall    SetFScaleDisable
00000260  4267                     clr.w      -[A7]
00000262  4EAD 0492                jsr        [A5 + 0x492 /* export_142, CODE:1 @ 00004EB0 */]
00000266  4E5E                     unlink     A6
00000268  4E75                     rts
export_680:
0000026A  4E56 FD10                link       A6, -0x02F0
0000026E  48E7 0708                movem.l    -[A7], D5,D6,D7,A4
00000272  206E 000C                movea.l    A0, [A6 + 0xC]
00000276  43EE FFE0                lea.l      A1, [A6 - 0x20]
0000027A  7007                     moveq.l    D0, 0x07
label0000027C:
0000027C  22D8                     move.l     [A1]+, [A0]+
0000027E  51C8 FFFC                dbf        D0, -0x6 /* 0000027C */
00000282  206E 0008                movea.l    A0, [A6 + 0x8]
00000286  43EE FEE0                lea.l      A1, [A6 - 0x120]
0000028A  703F                     moveq.l    D0, 0x3F
label0000028C:
0000028C  22D8                     move.l     [A1]+, [A0]+
0000028E  51C8 FFFC                dbf        D0, -0x6 /* 0000028C */
00000292  486E FE28                pea.l      [A6 - 0x1D8]
00000296  4EBA 6154                jsr        [PC + 0x6154 /* 000063EC */]
0000029A  1D7C 0003 FE84           move.b     [A6 - 0x17C], 0x3
000002A0  41EE FE90                lea.l      A0, [A6 - 0x170]
000002A4  43EE FFE0                lea.l      A1, [A6 - 0x20]
000002A8  7007                     moveq.l    D0, 0x07
label000002AA:
000002AA  20D9                     move.l     [A0]+, [A1]+
000002AC  51C8 FFFC                dbf        D0, -0x6 /* 000002AA */
000002B0  1D7C 0005 FEB0           move.b     [A6 - 0x150], 0x5
000002B6  2D6D F4F0 FEDC           move.l     [A6 - 0x124], [A5 - 0xB10]
000002BC  4267                     clr.w      -[A7]
000002BE  486E FE84                pea.l      [A6 - 0x17C]
000002C2  4EAD 2042                jsr        [A5 + 0x2042 /* export_1028, CODE:20 @ 00000472 */]
000002C6  1A1F                     move.b     D5, [A7]+
000002C8  4267                     clr.w      -[A7]
000002CA  2F2D F622                move.l     -[A7], [A5 - 0x9DE]
000002CE  3F3C 0002                move.w     -[A7], 0x2
000002D2  487A 00EE                pea.l      [PC + 0xEE /* 000003C2, value 0x5706174, pstring "paths" */]
000002D6  4EAD 1E2A                jsr        [A5 + 0x1E2A /* export_961, CODE:18 @ 0000215E */]
000002DA  3E1F                     move.w     D7, [A7]+
000002DC  42A7                     clr.l      -[A7]
000002DE  2F2D F62A                move.l     -[A7], [A5 - 0x9D6]
000002E2  3F07                     move.w     -[A7], D7
000002E4  4EAD 1DEA                jsr        [A5 + 0x1DEA /* export_953, CODE:18 @ 00001012 */]
000002E8  285F                     movea.l    A4, [A7]+
000002EA  200C                     move.l     D0, A4
000002EC  6608                     bne        +0xA /* 000002F6 */
000002EE  4EAD 1812                jsr        [A5 + 0x1812 /* export_766, CODE:16 @ 00000208 */]
000002F2  6000 00B6                bra        +0xB8 /* 000003AA */
label000002F6:
000002F6  2D54 FE10                move.l     [A6 - 0x1F0], [A4]
label000002FA:
000002FA  486E FE10                pea.l      [A6 - 0x1F0]
000002FE  486E FD10                pea.l      [A6 - 0x2F0]
00000302  4EAD 189A                jsr        [A5 + 0x189A /* export_783, CODE:16 @ 000005D6 */]
00000306  4267                     clr.w      -[A7]
00000308  486E FD10                pea.l      [A6 - 0x2F0]
0000030C  486E FEE0                pea.l      [A6 - 0x120]
00000310  4EAD 1AC2                jsr        [A5 + 0x1AC2 /* export_852, CODE:16 @ 00001B82 */]
00000314  101F                     move.b     D0, [A7]+
00000316  6600 008C                bne        +0x8E /* 000003A4 */
0000031A  4240                     clr.w      D0
0000031C  102E FD10                move.b     D0, [A6 - 0x2F0]
00000320  4A40                     tst.w      D0
00000322  66D6                     bne        -0x28 /* 000002FA */
00000324  42A7                     clr.l      -[A7]
00000326  2F14                     move.l     -[A7], [A4]
00000328  4EAD 1ADA                jsr        [A5 + 0x1ADA /* export_855, CODE:16 @ 00001C66 */]
0000032C  2C1F                     move.l     D6, [A7]+
0000032E  2F0C                     move.l     -[A7], A4
00000330  4240                     clr.w      D0
00000332  102E FEE0                move.b     D0, [A6 - 0x120]
00000336  48C0                     ext.l      D0
00000338  D086                     add.l      D0, D6
0000033A  5480                     addq.l     D0, 2
0000033C  2F00                     move.l     -[A7], D0
0000033E  4EAD 1982                jsr        [A5 + 0x1982 /* export_812, CODE:16 @ 00000EAC */]
00000342  4267                     clr.w      -[A7]
00000344  3EB8 0220                move.w     [A7], [0x00000220 /* MemErr */]
00000348  4A5F                     tst.w      [A7]+
0000034A  6658                     bne        +0x5A /* 000003A4 */
0000034C  2006                     move.l     D0, D6
0000034E  D094                     add.l      D0, [A4]
00000350  2D40 FE18                move.l     [A6 - 0x1E8], D0
00000354  5380                     subq.l     D0, 1
00000356  2040                     movea.l    A0, D0
00000358  700D                     moveq.l    D0, 0x0D
0000035A  B010                     cmp.b      D0, [A0]
0000035C  670C                     beq        +0xE /* 0000036A */
0000035E  206E FE18                movea.l    A0, [A6 - 0x1E8]
00000362  10BC 000D                move.b     [A0], 0xD /* '\r' */
00000366  52AE FE18                addq.l     [A6 - 0x1E8], 1
label0000036A:
0000036A  42A7                     clr.l      -[A7]
0000036C  486E FEE0                pea.l      [A6 - 0x120]
00000370  4EAD 1B52                jsr        [A5 + 0x1B52 /* export_870, CODE:16 @ 00001EBC */]
00000374  2D5F FE14                move.l     [A6 - 0x1EC], [A7]+
00000378  486E FE14                pea.l      [A6 - 0x1EC]
0000037C  486E FE18                pea.l      [A6 - 0x1E8]
00000380  4EAD 19CA                jsr        [A5 + 0x19CA /* export_821, CODE:16 @ 00001164 */]
00000384  4267                     clr.w      -[A7]
00000386  2F2D F62A                move.l     -[A7], [A5 - 0x9D6]
0000038A  3F07                     move.w     -[A7], D7
0000038C  2F0C                     move.l     -[A7], A4
0000038E  486E FE27                pea.l      [A6 - 0x1D9]
00000392  4EAD 1E92                jsr        [A5 + 0x1E92 /* export_974, CODE:18 @ 000032E0 */]
00000396  101F                     move.b     D0, [A7]+
00000398  670A                     beq        +0xC /* 000003A4 */
0000039A  486E FFE0                pea.l      [A6 - 0x20]
0000039E  2F0C                     move.l     -[A7], A4
000003A0  4EAD 0BBA                jsr        [A5 + 0xBBA /* export_371, CODE:8 @ 000040F8 */]
label000003A4:
000003A4  2F0C                     move.l     -[A7], A4
000003A6  4EAD 01FA                jsr        [A5 + 0x1FA /* export_59, CODE:1 @ 00004636 */]
label000003AA:
000003AA  4267                     clr.w      -[A7]
000003AC  486E FE28                pea.l      [A6 - 0x1D8]
000003B0  4EAD 2042                jsr        [A5 + 0x2042 /* export_1028, CODE:20 @ 00000472 */]
000003B4  1A1F                     move.b     D5, [A7]+
000003B6  4CDF 10E0                movem.l    D5,D6,D7,A4, [A7]+
000003BA  4E5E                     unlink     A6
000003BC  205F                     movea.l    A0, [A7]+
000003BE  504F                     addq.w     A7, 8
000003C0  4ED0                     jmp        [A0]
000003C2  0570 6174                bchg       <<invalid full ext with I/IS == 4>>, D2
000003C6  6873                     bvc        +0x75 /* 0000043B */
export_681:
000003C8  4E56 0000                link       A6, 0
000003CC  4EAD 193A                jsr        [A5 + 0x193A /* export_803, CODE:16 @ 00000C72 */]
000003D0  3F3C 0001                move.w     -[A7], 0x1
000003D4  4EBA 0A74                jsr        [PC + 0xA74 /* 00000E4A */]
000003D8  4EAD 203A                jsr        [A5 + 0x203A /* export_1027, CODE:20 @ 00000458 */]
000003DC  102D EFDF                move.b     D0, [A5 - 0x1021]
000003E0  6704                     beq        +0x6 /* 000003E6 */
000003E2  4EAD 08BA                jsr        [A5 + 0x8BA /* export_275, CODE:7 @ 000037D8 */]
label000003E6:
000003E6  422D EFE4                clr.b      [A5 - 0x101C]
000003EA  422D EFE3                clr.b      [A5 - 0x101D]
000003EE  1B7C 0001 EFE2           move.b     [A5 - 0x101E], 0x1
000003F4  41ED E2F2                lea.l      A0, [A5 - 0x1D0E]
000003F8  43ED ED82                lea.l      A1, [A5 - 0x127E]
000003FC  20D9                     move.l     [A0]+, [A1]+
000003FE  20D9                     move.l     [A0]+, [A1]+
00000400  4EAD 1ED2                jsr        [A5 + 0x1ED2 /* export_982, CODE:19 @ 00000172 */]
00000404  4E5E                     unlink     A6
00000406  4E75                     rts
export_682:
fn00000408:
00000408  4E56 FFEC                link       A6, -0x0014
0000040C  48E7 0F18                movem.l    -[A7], D4,D5,D6,D7,A3,A4
00000410  2E2E 0008                move.l     D7, [A6 + 0x8]
00000414  2C2E 000C                move.l     D6, [A6 + 0xC]
00000418  6706                     beq        +0x8 /* 00000420 */
0000041A  2F06                     move.l     -[A7], D6
0000041C  4EAD 1D12                jsr        [A5 + 0x1D12 /* export_926, CODE:17 @ 00002B38 */]
label00000420:
00000420  4A87                     tst.l      D7
00000422  6706                     beq        +0x8 /* 0000042A */
00000424  2F07                     move.l     -[A7], D7
00000426  4EAD 1D12                jsr        [A5 + 0x1D12 /* export_926, CODE:17 @ 00002B38 */]
label0000042A:
0000042A  4AAE 0010                tst.l      [A6 + 0x10]
0000042E  6700 0088                beq        +0x8A /* 000004B8 */
00000432  42A7                     clr.l      -[A7]
00000434  2F2E 0010                move.l     -[A7], [A6 + 0x10]
00000438  4EAD 1F72                jsr        [A5 + 0x1F72 /* export_1002, CODE:19 @ 00001718 */]
0000043C  265F                     movea.l    A3, [A7]+
0000043E  200B                     move.l     D0, A3
00000440  6606                     bne        +0x8 /* 00000448 */
00000442  4EAD 1812                jsr        [A5 + 0x1812 /* export_766, CODE:16 @ 00000208 */]
00000446  6070                     bra        +0x72 /* 000004B8 */
label00000448:
00000448  4A86                     tst.l      D6
0000044A  672C                     beq        +0x2E /* 00000478 */
0000044C  2853                     movea.l    A4, [A3]
0000044E  4AAC 0034                tst.l      [A4 + 0x34]
00000452  6610                     bne        +0x12 /* 00000464 */
00000454  2F06                     move.l     -[A7], D6
00000456  486D FE98                pea.l      [A5 - 0x168]
0000045A  486C 001C                pea.l      [A4 + 0x1C]
0000045E  4EBA 4798                jsr        [PC + 0x4798 /* 00004BF8 */]
00000462  6014                     bra        +0x16 /* 00000478 */
label00000464:
00000464  2A13                     move.l     D5, [A3]
00000466  703C                     moveq.l    D0, 0x3C
00000468  DA80                     add.l      D5, D0
0000046A  2F05                     move.l     -[A7], D5
0000046C  2F06                     move.l     -[A7], D6
0000046E  486C 001C                pea.l      [A4 + 0x1C]
00000472  4267                     clr.w      -[A7]
00000474  4EAD 229A                jsr        [A5 + 0x229A /* export_1103, CODE:20 @ 000059E2 */]
label00000478:
00000478  4A87                     tst.l      D7
0000047A  6732                     beq        +0x34 /* 000004AE */
0000047C  2853                     movea.l    A4, [A3]
0000047E  4AAC 0038                tst.l      [A4 + 0x38]
00000482  6610                     bne        +0x12 /* 00000494 */
00000484  2F07                     move.l     -[A7], D7
00000486  486D FE98                pea.l      [A5 - 0x168]
0000048A  486C 0024                pea.l      [A4 + 0x24]
0000048E  4EBA 4768                jsr        [PC + 0x4768 /* 00004BF8 */]
00000492  601A                     bra        +0x1C /* 000004AE */
label00000494:
00000494  2013                     move.l     D0, [A3]
00000496  723C                     moveq.l    D1, 0x3C
00000498  D081                     add.l      D0, D1
0000049A  282C 0034                move.l     D4, [A4 + 0x34]
0000049E  D880                     add.l      D4, D0
000004A0  2F04                     move.l     -[A7], D4
000004A2  2F07                     move.l     -[A7], D7
000004A4  486C 0024                pea.l      [A4 + 0x24]
000004A8  4267                     clr.w      -[A7]
000004AA  4EAD 229A                jsr        [A5 + 0x229A /* export_1103, CODE:20 @ 000059E2 */]
label000004AE:
000004AE  2F2E 0010                move.l     -[A7], [A6 + 0x10]
000004B2  4267                     clr.w      -[A7]
000004B4  4EAD 1EEA                jsr        [A5 + 0x1EEA /* export_985, CODE:19 @ 00000432 */]
label000004B8:
000004B8  4CDF 18F0                movem.l    D4,D5,D6,D7,A3,A4, [A7]+
000004BC  4E5E                     unlink     A6
000004BE  205F                     movea.l    A0, [A7]+
000004C0  DEFC 000C                add.w      A7, 0xC
000004C4  4ED0                     jmp        [A0]
export_683:
fn000004C6:
000004C6  4E56 FFDE                link       A6, -0x0022
000004CA  48E7 0F18                movem.l    -[A7], D4,D5,D6,D7,A3,A4
000004CE  206E 000A                movea.l    A0, [A6 + 0xA]
000004D2  43EE FFF8                lea.l      A1, [A6 - 0x8]
000004D6  22D8                     move.l     [A1]+, [A0]+
000004D8  22D8                     move.l     [A1]+, [A0]+
000004DA  4267                     clr.w      -[A7]
000004DC  486D ED82                pea.l      [A5 - 0x127E]
000004E0  486E FFF8                pea.l      [A6 - 0x8]
000004E4  486E FFF8                pea.l      [A6 - 0x8]
000004E8  A8AA                     syscall    SectRect
000004EA  101F                     move.b     D0, [A7]+
000004EC  6604                     bne        +0x6 /* 000004F2 */
000004EE  6000 00C2                bra        +0xC4 /* 000005B2 */
label000004F2:
000004F2  3A2E FFFC                move.w     D5, [A6 - 0x4]
000004F6  9A6E FFF8                sub.w      D5, [A6 - 0x8]
000004FA  7000                     moveq.l    D0, 0x00
000004FC  302E FFFA                move.w     D0, [A6 - 0x6]
00000500  EA88                     lsr        D0, 5
00000502  3D40 FFE2                move.w     [A6 - 0x1E], D0
00000506  7000                     moveq.l    D0, 0x00
00000508  322E FFFE                move.w     D1, [A6 - 0x2]
0000050C  D27C 001F                add.w      D1, 0x1F
00000510  3001                     move.w     D0, D1
00000512  EA88                     lsr        D0, 5
00000514  322E FFE2                move.w     D1, [A6 - 0x1E]
00000518  48C1                     ext.l      D1
0000051A  9081                     sub.l      D0, D1
0000051C  3E00                     move.w     D7, D0
0000051E  E540                     asl        D0.w, 2
00000520  383C 0040                move.w     D4, 0x40 /* '@' */
00000524  9840                     sub.w      D4, D0
00000526  302E FFE2                move.w     D0, [A6 - 0x1E]
0000052A  E540                     asl        D0.w, 2
0000052C  322E FFF8                move.w     D1, [A6 - 0x8]
00000530  ED41                     asl        D1.w, 6
00000532  3C01                     move.w     D6, D1
00000534  DC40                     add.w      D6, D0
00000536  3006                     move.w     D0, D6
00000538  48C0                     ext.l      D0
0000053A  2840                     movea.l    A4, D0
0000053C  D9EE 001A                add.l      A4, [A6 + 0x1A]
00000540  3006                     move.w     D0, D6
00000542  48C0                     ext.l      D0
00000544  2640                     movea.l    A3, D0
00000546  D7EE 0016                add.l      A3, [A6 + 0x16]
0000054A  3006                     move.w     D0, D6
0000054C  48C0                     ext.l      D0
0000054E  D0AE 0012                add.l      D0, [A6 + 0x12]
00000552  2D40 FFF0                move.l     [A6 - 0x10], D0
00000556  3006                     move.w     D0, D6
00000558  48C0                     ext.l      D0
0000055A  D0AE 000E                add.l      D0, [A6 + 0xE]
0000055E  2D40 FFF4                move.l     [A6 - 0xC], D0
00000562  302E 0008                move.w     D0, [A6 + 0x8]
00000566  5440                     addq.w     D0, 2
00000568  6736                     beq        +0x38 /* 000005A0 */
0000056A  5340                     subq.w     D0, 1
0000056C  671A                     beq        +0x1C /* 00000588 */
0000056E  5940                     subq.w     D0, 4
00000570  6702                     beq        +0x4 /* 00000574 */
00000572  603E                     bra        +0x40 /* 000005B2 */
label00000574:
00000574  2F0C                     move.l     -[A7], A4
00000576  2F0B                     move.l     -[A7], A3
00000578  2F2E FFF4                move.l     -[A7], [A6 - 0xC]
0000057C  3F05                     move.w     -[A7], D5
0000057E  3F07                     move.w     -[A7], D7
00000580  3F04                     move.w     -[A7], D4
00000582  4EAD 1B62                jsr        [A5 + 0x1B62 /* export_872, CODE:17 @ 00000000 */]
00000586  602A                     bra        +0x2C /* 000005B2 */
label00000588:
00000588  2F0C                     move.l     -[A7], A4
0000058A  2F0B                     move.l     -[A7], A3
0000058C  2F2E FFF0                move.l     -[A7], [A6 - 0x10]
00000590  2F2E FFF4                move.l     -[A7], [A6 - 0xC]
00000594  3F05                     move.w     -[A7], D5
00000596  3F07                     move.w     -[A7], D7
00000598  3F04                     move.w     -[A7], D4
0000059A  4EAD 1B6A                jsr        [A5 + 0x1B6A /* export_873, CODE:17 @ 000000C6 */]
0000059E  6012                     bra        +0x14 /* 000005B2 */
label000005A0:
000005A0  2F0C                     move.l     -[A7], A4
000005A2  2F0B                     move.l     -[A7], A3
000005A4  2F2E FFF4                move.l     -[A7], [A6 - 0xC]
000005A8  3F05                     move.w     -[A7], D5
000005AA  3F07                     move.w     -[A7], D7
000005AC  3F04                     move.w     -[A7], D4
000005AE  4EAD 1B72                jsr        [A5 + 0x1B72 /* export_874, CODE:17 @ 00000192 */]
label000005B2:
000005B2  4CDF 18F0                movem.l    D4,D5,D6,D7,A3,A4, [A7]+
000005B6  4E5E                     unlink     A6
000005B8  205F                     movea.l    A0, [A7]+
000005BA  DEFC 0016                add.w      A7, 0x16
000005BE  4ED0                     jmp        [A0]
export_684:
fn000005C0:
000005C0  4E56 FFE6                link       A6, -0x001A
000005C4  48E7 0F18                movem.l    -[A7], D4,D5,D6,D7,A3,A4
000005C8  206E 000A                movea.l    A0, [A6 + 0xA]
000005CC  43EE FFF8                lea.l      A1, [A6 - 0x8]
000005D0  22D8                     move.l     [A1]+, [A0]+
000005D2  22D8                     move.l     [A1]+, [A0]+
000005D4  4267                     clr.w      -[A7]
000005D6  486D ED82                pea.l      [A5 - 0x127E]
000005DA  486E FFF8                pea.l      [A6 - 0x8]
000005DE  486E FFF8                pea.l      [A6 - 0x8]
000005E2  A8AA                     syscall    SectRect
000005E4  101F                     move.b     D0, [A7]+
000005E6  6700 0108                beq        +0x10A /* 000006F0 */
000005EA  3A2E FFFC                move.w     D5, [A6 - 0x4]
000005EE  9A6E FFF8                sub.w      D5, [A6 - 0x8]
000005F2  7000                     moveq.l    D0, 0x00
000005F4  302E FFFA                move.w     D0, [A6 - 0x6]
000005F8  EA88                     lsr        D0, 5
000005FA  3800                     move.w     D4, D0
000005FC  7000                     moveq.l    D0, 0x00
000005FE  322E FFFE                move.w     D1, [A6 - 0x2]
00000602  D27C 001F                add.w      D1, 0x1F
00000606  3001                     move.w     D0, D1
00000608  EA88                     lsr        D0, 5
0000060A  3204                     move.w     D1, D4
0000060C  48C1                     ext.l      D1
0000060E  9081                     sub.l      D0, D1
00000610  3E00                     move.w     D7, D0
00000612  E540                     asl        D0.w, 2
00000614  3C3C 0040                move.w     D6, 0x40 /* '@' */
00000618  9C40                     sub.w      D6, D0
0000061A  3004                     move.w     D0, D4
0000061C  E540                     asl        D0.w, 2
0000061E  322E FFF8                move.w     D1, [A6 - 0x8]
00000622  ED41                     asl        D1.w, 6
00000624  D240                     add.w      D1, D0
00000626  3D41 FFE6                move.w     [A6 - 0x1A], D1
0000062A  302E FFE6                move.w     D0, [A6 - 0x1A]
0000062E  48C0                     ext.l      D0
00000630  2840                     movea.l    A4, D0
00000632  D9EE 0012                add.l      A4, [A6 + 0x12]
00000636  302E FFE6                move.w     D0, [A6 - 0x1A]
0000063A  48C0                     ext.l      D0
0000063C  2640                     movea.l    A3, D0
0000063E  D7EE 000E                add.l      A3, [A6 + 0xE]
00000642  302E 0008                move.w     D0, [A6 + 0x8]
00000646  671E                     beq        +0x20 /* 00000666 */
00000648  5340                     subq.w     D0, 1
0000064A  673A                     beq        +0x3C /* 00000686 */
0000064C  5340                     subq.w     D0, 1
0000064E  6746                     beq        +0x48 /* 00000696 */
00000650  5340                     subq.w     D0, 1
00000652  6752                     beq        +0x54 /* 000006A6 */
00000654  5940                     subq.w     D0, 4
00000656  675E                     beq        +0x60 /* 000006B6 */
00000658  0440 005A                subi.w     D0, 0x5A /* 'Z' */
0000065C  6768                     beq        +0x6A /* 000006C6 */
0000065E  5540                     subq.w     D0, 2
00000660  677A                     beq        +0x7C /* 000006DC */
00000662  6000 008C                bra        +0x8E /* 000006F0 */
label00000666:
00000666  4A46                     tst.w      D6
00000668  660C                     bne        +0xE /* 00000676 */
0000066A  2F0C                     move.l     -[A7], A4
0000066C  2F0B                     move.l     -[A7], A3
0000066E  3F05                     move.w     -[A7], D5
00000670  4EAD 1BFA                jsr        [A5 + 0x1BFA /* export_891, CODE:17 @ 0000087E */]
00000674  607A                     bra        +0x7C /* 000006F0 */
label00000676:
00000676  2F0C                     move.l     -[A7], A4
00000678  2F0B                     move.l     -[A7], A3
0000067A  3F05                     move.w     -[A7], D5
0000067C  3F07                     move.w     -[A7], D7
0000067E  3F06                     move.w     -[A7], D6
00000680  4EAD 1B8A                jsr        [A5 + 0x1B8A /* export_877, CODE:17 @ 00000390 */]
00000684  606A                     bra        +0x6C /* 000006F0 */
label00000686:
00000686  2F0C                     move.l     -[A7], A4
00000688  2F0B                     move.l     -[A7], A3
0000068A  3F05                     move.w     -[A7], D5
0000068C  3F07                     move.w     -[A7], D7
0000068E  3F06                     move.w     -[A7], D6
00000690  4EAD 1BA2                jsr        [A5 + 0x1BA2 /* export_880, CODE:17 @ 000004CE */]
00000694  605A                     bra        +0x5C /* 000006F0 */
label00000696:
00000696  2F0C                     move.l     -[A7], A4
00000698  2F0B                     move.l     -[A7], A3
0000069A  3F05                     move.w     -[A7], D5
0000069C  3F07                     move.w     -[A7], D7
0000069E  3F06                     move.w     -[A7], D6
000006A0  4EAD 1BAA                jsr        [A5 + 0x1BAA /* export_881, CODE:17 @ 00000548 */]
000006A4  604A                     bra        +0x4C /* 000006F0 */
label000006A6:
000006A6  2F0C                     move.l     -[A7], A4
000006A8  2F0B                     move.l     -[A7], A3
000006AA  3F05                     move.w     -[A7], D5
000006AC  3F07                     move.w     -[A7], D7
000006AE  3F06                     move.w     -[A7], D6
000006B0  4EAD 1B82                jsr        [A5 + 0x1B82 /* export_876, CODE:17 @ 000002F4 */]
000006B4  603A                     bra        +0x3C /* 000006F0 */
label000006B6:
000006B6  2F0C                     move.l     -[A7], A4
000006B8  2F0B                     move.l     -[A7], A3
000006BA  3F05                     move.w     -[A7], D5
000006BC  3F07                     move.w     -[A7], D7
000006BE  3F06                     move.w     -[A7], D6
000006C0  4EAD 1B7A                jsr        [A5 + 0x1B7A /* export_875, CODE:17 @ 0000027A */]
000006C4  602A                     bra        +0x2C /* 000006F0 */
label000006C6:
000006C6  2F0C                     move.l     -[A7], A4
000006C8  2F0B                     move.l     -[A7], A3
000006CA  2F3C 0040 0040           move.l     -[A7], 0x400040 /* '@\0@' */
000006D0  3F05                     move.w     -[A7], D5
000006D2  3007                     move.w     D0, D7
000006D4  E340                     asl        D0.w, 1
000006D6  3F00                     move.w     -[A7], D0
000006D8  A838                     syscall    CalcMask
000006DA  6014                     bra        +0x16 /* 000006F0 */
label000006DC:
000006DC  2F0C                     move.l     -[A7], A4
000006DE  2F0B                     move.l     -[A7], A3
000006E0  3F2E FFF8                move.w     -[A7], [A6 - 0x8]
000006E4  3F2E FFFC                move.w     -[A7], [A6 - 0x4]
000006E8  3F07                     move.w     -[A7], D7
000006EA  3F06                     move.w     -[A7], D6
000006EC  4EAD 1B92                jsr        [A5 + 0x1B92 /* export_878, CODE:17 @ 000003EA */]
label000006F0:
000006F0  4CDF 18F0                movem.l    D4,D5,D6,D7,A3,A4, [A7]+
000006F4  4E5E                     unlink     A6
000006F6  205F                     movea.l    A0, [A7]+
000006F8  DEFC 000E                add.w      A7, 0xE
000006FC  4ED0                     jmp        [A0]
export_685:
fn000006FE:
000006FE  4E56 FFE6                link       A6, -0x001A
00000702  206E 0008                movea.l    A0, [A6 + 0x8]
00000706  43EE FFF8                lea.l      A1, [A6 - 0x8]
0000070A  22D8                     move.l     [A1]+, [A0]+
0000070C  22D8                     move.l     [A1]+, [A0]+
0000070E  4A6D FD8A                tst.w      [A5 - 0x276]
00000712  5CC0                     sge        D0
00000714  4A00                     tst.b      D0
00000716  6700 00B6                beq        +0xB8 /* 000007CE */
0000071A  2F00                     move.l     -[A7], D0
0000071C  4267                     clr.w      -[A7]
0000071E  486D ED82                pea.l      [A5 - 0x127E]
00000722  486E FFF8                pea.l      [A6 - 0x8]
00000726  486E FFF8                pea.l      [A6 - 0x8]
0000072A  A8AA                     syscall    SectRect
0000072C  121F                     move.b     D1, [A7]+
0000072E  201F                     move.l     D0, [A7]+
00000730  C001                     and.b      D0, D1
00000732  6700 009A                beq        +0x9C /* 000007CE */
00000736  7000                     moveq.l    D0, 0x00
00000738  302E FFFA                move.w     D0, [A6 - 0x6]
0000073C  C0BC FFFF FFE0           and.l      D0, 0xFFFFFFE0
00000742  3D40 FFFA                move.w     [A6 - 0x6], D0
00000746  7000                     moveq.l    D0, 0x00
00000748  322E FFFE                move.w     D1, [A6 - 0x2]
0000074C  D27C 001F                add.w      D1, 0x1F
00000750  3001                     move.w     D0, D1
00000752  C0BC FFFF FFE0           and.l      D0, 0xFFFFFFE0
00000758  3D40 FFFE                move.w     [A6 - 0x2], D0
0000075C  102D E0DE                move.b     D0, [A5 - 0x1F22]
00000760  6744                     beq        +0x46 /* 000007A6 */
00000762  41EE FFE6                lea.l      A0, [A6 - 0x1A]
00000766  43ED ED44                lea.l      A1, [A5 - 0x12BC]
0000076A  20D9                     move.l     [A0]+, [A1]+
0000076C  20D9                     move.l     [A0]+, [A1]+
0000076E  20D9                     move.l     [A0]+, [A1]+
00000770  3091                     move.w     [A0], [A1]
00000772  2D6E 000C FFE6           move.l     [A6 - 0x1A], [A6 + 0xC]
00000778  486E FFF4                pea.l      [A6 - 0xC]
0000077C  A874                     syscall    GetPort
0000077E  2F2D EDC8                move.l     -[A7], [A5 - 0x1238]
00000782  A873                     syscall    SetPort
00000784  486E FFE6                pea.l      [A6 - 0x1A]
00000788  206D EDC8                movea.l    A0, [A5 - 0x1238]
0000078C  4868 0002                pea.l      [A0 + 0x2]
00000790  486E FFF8                pea.l      [A6 - 0x8]
00000794  486E FFF8                pea.l      [A6 - 0x8]
00000798  4267                     clr.w      -[A7]
0000079A  42A7                     clr.l      -[A7]
0000079C  A8EC                     syscall    CopyBits
0000079E  2F2E FFF4                move.l     -[A7], [A6 - 0xC]
000007A2  A873                     syscall    SetPort
000007A4  6028                     bra        +0x2A /* 000007CE */
label000007A6:
000007A6  486E FFF8                pea.l      [A6 - 0x8]
000007AA  206D EDC8                movea.l    A0, [A5 - 0x1238]
000007AE  2F28 0008                move.l     -[A7], [A0 + 0x8]
000007B2  A855                     syscall    ShieldCursor
000007B4  2F2E 000C                move.l     -[A7], [A6 + 0xC]
000007B8  2F2D ED76                move.l     -[A7], [A5 - 0x128A]
000007BC  486E FFF8                pea.l      [A6 - 0x8]
000007C0  206D EDC8                movea.l    A0, [A5 - 0x1238]
000007C4  2F28 0018                move.l     -[A7], [A0 + 0x18]
000007C8  4EAD 1CFA                jsr        [A5 + 0x1CFA /* export_923, CODE:17 @ 00001F3C */]
000007CC  A853                     syscall    ShowCursor
label000007CE:
000007CE  4E5E                     unlink     A6
000007D0  205F                     movea.l    A0, [A7]+
000007D2  504F                     addq.w     A7, 8
000007D4  4ED0                     jmp        [A0]
export_686:
fn000007D6:
000007D6  4E56 FFF2                link       A6, -0x000E
000007DA  2F07                     move.l     -[A7], D7
000007DC  486E FFF2                pea.l      [A6 - 0xE]
000007E0  A874                     syscall    GetPort
000007E2  486D EE38                pea.l      [A5 - 0x11C8]
000007E6  A873                     syscall    SetPort
000007E8  486D EF32                pea.l      [A5 - 0x10CE]
000007EC  A875                     syscall    SetPBits/SetPortBits
000007EE  486D EF38                pea.l      [A5 - 0x10C8]
000007F2  486D FE98                pea.l      [A5 - 0x168]
000007F6  A8A5                     syscall    FillRect
000007F8  7E01                     moveq.l    D7, 0x01
000007FA  6020                     bra        +0x22 /* 0000081C */
label000007FC:
000007FC  3F07                     move.w     -[A7], D7
000007FE  486E FFF6                pea.l      [A6 - 0xA]
00000802  4EBA 01C0                jsr        [PC + 0x1C0 /* 000009C4 */]
00000806  486E FFF6                pea.l      [A6 - 0xA]
0000080A  3007                     move.w     D0, D7
0000080C  5340                     subq.w     D0, 1
0000080E  41ED F8FC                lea.l      A0, [A5 - 0x704]
00000812  E740                     asl        D0.w, 3
00000814  4870 0000                pea.l      [A0 + D0.w]
00000818  A8A5                     syscall    FillRect
0000081A  5247                     addq.w     D7, 1
label0000081C:
0000081C  7028                     moveq.l    D0, 0x28
0000081E  B047                     cmp.w      D0, D7
00000820  6CDA                     bge        -0x24 /* 000007FC */
00000822  486D ED44                pea.l      [A5 - 0x12BC]
00000826  A875                     syscall    SetPBits/SetPortBits
00000828  422D EF40                clr.b      [A5 - 0x10C0]
0000082C  2F2E FFF2                move.l     -[A7], [A6 - 0xE]
00000830  A873                     syscall    SetPort
00000832  2E1F                     move.l     D7, [A7]+
00000834  4E5E                     unlink     A6
00000836  4E75                     rts
export_687:
fn00000838:
00000838  4E56 FFE4                link       A6, -0x001C
0000083C  48E7 0F08                movem.l    -[A7], D4,D5,D6,D7,A4
00000840  286E 0012                movea.l    A4, [A6 + 0x12]
00000844  426D E00E                clr.w      [A5 - 0x1FF2]
00000848  7000                     moveq.l    D0, 0x00
0000084A  302C 000E                move.w     D0, [A4 + 0xE]
0000084E  C0BC 0000 000F           and.l      D0, 0xF
00000854  3E00                     move.w     D7, D0
00000856  7000                     moveq.l    D0, 0x00
00000858  302C 000E                move.w     D0, [A4 + 0xE]
0000085C  C0BC 0000 2000           and.l      D0, 0x2000 /* ' \0' */
00000862  4A80                     tst.l      D0
00000864  56C5                     sne        D5
00000866  4405                     neg.b      D5
00000868  41EE FFF4                lea.l      A0, [A6 - 0xC]
0000086C  224C                     movea.l    A1, A4
0000086E  5C89                     addq.l     A1, 6
00000870  20D9                     move.l     [A0]+, [A1]+
00000872  20D9                     move.l     [A0]+, [A1]+
00000874  486E FFF4                pea.l      [A6 - 0xC]
00000878  2F3C 0001 0001           move.l     -[A7], 0x10001
0000087E  A8A9                     syscall    InsetRect
00000880  7004                     moveq.l    D0, 0x04
00000882  B047                     cmp.w      D0, D7
00000884  6614                     bne        +0x16 /* 0000089A */
00000886  302E FFFA                move.w     D0, [A6 - 0x6]
0000088A  5540                     subq.w     D0, 2
0000088C  3D40 FFFA                move.w     [A6 - 0x6], D0
00000890  302E FFF8                move.w     D0, [A6 - 0x8]
00000894  5540                     subq.w     D0, 2
00000896  3D40 FFF8                move.w     [A6 - 0x8], D0
label0000089A:
0000089A  7007                     moveq.l    D0, 0x07
0000089C  B047                     cmp.w      D0, D7
0000089E  660C                     bne        +0xE /* 000008AC */
000008A0  302E FFFA                move.w     D0, [A6 - 0x6]
000008A4  907C 0010                sub.w      D0, 0x10
000008A8  3D40 FFFA                move.w     [A6 - 0x6], D0
label000008AC:
000008AC  206E 0008                movea.l    A0, [A6 + 0x8]
000008B0  43EE FFF4                lea.l      A1, [A6 - 0xC]
000008B4  20D9                     move.l     [A0]+, [A1]+
000008B6  20D9                     move.l     [A0]+, [A1]+
000008B8  302E FFF6                move.w     D0, [A6 - 0xA]
000008BC  5440                     addq.w     D0, 2
000008BE  3D40 FFF6                move.w     [A6 - 0xA], D0
000008C2  302E FFFA                move.w     D0, [A6 - 0x6]
000008C6  5740                     subq.w     D0, 3
000008C8  3D40 FFFA                move.w     [A6 - 0x6], D0
000008CC  1005                     move.b     D0, D5
000008CE  671E                     beq        +0x20 /* 000008EE */
000008D0  302E FFF4                move.w     D0, [A6 - 0xC]
000008D4  5840                     addq.w     D0, 4
000008D6  3D40 FFF4                move.w     [A6 - 0xC], D0
000008DA  302E FFF6                move.w     D0, [A6 - 0xA]
000008DE  5A40                     addq.w     D0, 5
000008E0  3D40 FFF6                move.w     [A6 - 0xA], D0
000008E4  302E FFFA                move.w     D0, [A6 - 0x6]
000008E8  5740                     subq.w     D0, 3
000008EA  3D40 FFFA                move.w     [A6 - 0x6], D0
label000008EE:
000008EE  7007                     moveq.l    D0, 0x07
000008F0  B047                     cmp.w      D0, D7
000008F2  6628                     bne        +0x2A /* 0000091C */
000008F4  3C2C 0002                move.w     D6, [A4 + 0x2]
000008F8  102E 0010                move.b     D0, [A6 + 0x10]
000008FC  6606                     bne        +0x8 /* 00000904 */
000008FE  3006                     move.w     D0, D6
00000900  4440                     neg.w      D0
00000902  3C00                     move.w     D6, D0
label00000904:
00000904  4267                     clr.w      -[A7]
00000906  3F06                     move.w     -[A7], D6
00000908  4EBA 4E76                jsr        [PC + 0x4E76 /* 00005780 */]
0000090C  3B5F E00E                move.w     [A5 - 0x1FF2], [A7]+
00000910  302E FFF4                move.w     D0, [A6 - 0xC]
00000914  906D E00E                sub.w      D0, [A5 - 0x1FF2]
00000918  3D40 FFF4                move.w     [A6 - 0xC], D0
label0000091C:
0000091C  206D FEA8                movea.l    A0, [A5 - 0x158]
00000920  3828 0044                move.w     D4, [A0 + 0x44]
00000924  206D FEA8                movea.l    A0, [A5 - 0x158]
00000928  3D68 004A FFF0           move.w     [A6 - 0x10], [A0 + 0x4A]
0000092E  206D FEA8                movea.l    A0, [A5 - 0x158]
00000932  1D68 0046 FFEF           move.b     [A6 - 0x11], [A0 + 0x46]
00000938  206D FEA8                movea.l    A0, [A5 - 0x158]
0000093C  316C 0016 0044           move.w     [A0 + 0x44], [A4 + 0x16]
00000942  206D FEA8                movea.l    A0, [A5 - 0x158]
00000946  316C 0018 004A           move.w     [A0 + 0x4A], [A4 + 0x18]
0000094C  206D FEA8                movea.l    A0, [A5 - 0x158]
00000950  116C 001A 0046           move.b     [A0 + 0x46], [A4 + 0x1A]
00000956  486E FFE6                pea.l      [A6 - 0x1A]
0000095A  A88B                     syscall    GetFontInfo
0000095C  4267                     clr.w      -[A7]
0000095E  3F2E FFFA                move.w     -[A7], [A6 - 0x6]
00000962  302E FFEA                move.w     D0, [A6 - 0x16]
00000966  D06E FFF6                add.w      D0, [A6 - 0xA]
0000096A  5E40                     addq.w     D0, 7
0000096C  3F00                     move.w     -[A7], D0
0000096E  4EAD 18BA                jsr        [A5 + 0x18BA /* export_787, CODE:16 @ 000007C6 */]
00000972  3D5F FFFA                move.w     [A6 - 0x6], [A7]+
00000976  4267                     clr.w      -[A7]
00000978  3F2E FFF8                move.w     -[A7], [A6 - 0x8]
0000097C  302C 001C                move.w     D0, [A4 + 0x1C]
00000980  D06E FFF4                add.w      D0, [A6 - 0xC]
00000984  3F00                     move.w     -[A7], D0
00000986  4EAD 18BA                jsr        [A5 + 0x18BA /* export_787, CODE:16 @ 000007C6 */]
0000098A  3D5F FFF8                move.w     [A6 - 0x8], [A7]+
0000098E  206E 000C                movea.l    A0, [A6 + 0xC]
00000992  43EE FFF4                lea.l      A1, [A6 - 0xC]
00000996  20D9                     move.l     [A0]+, [A1]+
00000998  20D9                     move.l     [A0]+, [A1]+
0000099A  206D FEA8                movea.l    A0, [A5 - 0x158]
0000099E  3144 0044                move.w     [A0 + 0x44], D4
000009A2  206D FEA8                movea.l    A0, [A5 - 0x158]
000009A6  316E FFF0 004A           move.w     [A0 + 0x4A], [A6 - 0x10]
000009AC  206D FEA8                movea.l    A0, [A5 - 0x158]
000009B0  116E FFEF 0046           move.b     [A0 + 0x46], [A6 - 0x11]
000009B6  4CDF 10F0                movem.l    D4,D5,D6,D7,A4, [A7]+
000009BA  4E5E                     unlink     A6
000009BC  205F                     movea.l    A0, [A7]+
000009BE  DEFC 000E                add.w      A7, 0xE
000009C2  4ED0                     jmp        [A0]
export_688:
fn000009C4:
000009C4  4E56 0000                link       A6, 0
000009C8  48E7 0108                movem.l    -[A7], D7,A4
000009CC  3E2E 000C                move.w     D7, [A6 + 0xC]
000009D0  206E 0008                movea.l    A0, [A6 + 0x8]
000009D4  43ED ED8A                lea.l      A1, [A5 - 0x1276]
000009D8  20D9                     move.l     [A0]+, [A1]+
000009DA  20D9                     move.l     [A0]+, [A1]+
000009DC  7001                     moveq.l    D0, 0x01
000009DE  B047                     cmp.w      D0, D7
000009E0  5FC0                     sle        D0
000009E2  7228                     moveq.l    D1, 0x28
000009E4  B247                     cmp.w      D1, D7
000009E6  5CC1                     sge        D1
000009E8  C001                     and.b      D0, D1
000009EA  6742                     beq        +0x44 /* 00000A2E */
000009EC  5347                     subq.w     D7, 1
000009EE  286E 0008                movea.l    A4, [A6 + 0x8]
000009F2  3007                     move.w     D0, D7
000009F4  48C0                     ext.l      D0
000009F6  81FC 000A                divs.w     D0, 0xA /* '\n' */
000009FA  C1FC 0012                muls.w     D0, 0x12
000009FE  3940 0002                move.w     [A4 + 0x2], D0
00000A02  3007                     move.w     D0, D7
00000A04  48C0                     ext.l      D0
00000A06  81FC 000A                divs.w     D0, 0xA /* '\n' */
00000A0A  4840                     swap.w     D0
00000A0C  4A40                     tst.w      D0
00000A0E  C1FC 000D                muls.w     D0, 0xD /* '\r' */
00000A12  3880                     move.w     [A4], D0
00000A14  302C 0002                move.w     D0, [A4 + 0x2]
00000A18  D07C 0012                add.w      D0, 0x12
00000A1C  5340                     subq.w     D0, 1
00000A1E  3940 0006                move.w     [A4 + 0x6], D0
00000A22  3014                     move.w     D0, [A4]
00000A24  D07C 000D                add.w      D0, 0xD /* '\r' */
00000A28  5340                     subq.w     D0, 1
00000A2A  3940 0004                move.w     [A4 + 0x4], D0
label00000A2E:
00000A2E  4CDF 1080                movem.l    D7,A4, [A7]+
00000A32  4E5E                     unlink     A6
00000A34  205F                     movea.l    A0, [A7]+
00000A36  5C4F                     addq.w     A7, 6
00000A38  4ED0                     jmp        [A0]
export_689:
00000A3A  4E56 FFFC                link       A6, -0x0004
00000A3E  48E7 0308                movem.l    -[A7], D6,D7,A4
00000A42  302E 000C                move.w     D0, [A6 + 0xC]
00000A46  5340                     subq.w     D0, 1
00000A48  48C0                     ext.l      D0
00000A4A  81FC 0007                divs.w     D0, 0x7
00000A4E  4840                     swap.w     D0
00000A50  4A40                     tst.w      D0
00000A52  3E00                     move.w     D7, D0
00000A54  302E 000C                move.w     D0, [A6 + 0xC]
00000A58  5340                     subq.w     D0, 1
00000A5A  48C0                     ext.l      D0
00000A5C  81FC 0007                divs.w     D0, 0x7
00000A60  3C00                     move.w     D6, D0
00000A62  286E 0008                movea.l    A4, [A6 + 0x8]
00000A66  3007                     move.w     D0, D7
00000A68  ED40                     asl        D0.w, 6
00000A6A  3940 0002                move.w     [A4 + 0x2], D0
00000A6E  3006                     move.w     D0, D6
00000A70  C1FC 002A                muls.w     D0, 0x2A /* '*' */
00000A74  3880                     move.w     [A4], D0
00000A76  302C 0002                move.w     D0, [A4 + 0x2]
00000A7A  D07C 0040                add.w      D0, 0x40 /* '@' */
00000A7E  3940 0006                move.w     [A4 + 0x6], D0
00000A82  3014                     move.w     D0, [A4]
00000A84  D07C 002A                add.w      D0, 0x2A /* '*' */
00000A88  3940 0004                move.w     [A4 + 0x4], D0
00000A8C  4CDF 10C0                movem.l    D6,D7,A4, [A7]+
00000A90  4E5E                     unlink     A6
00000A92  205F                     movea.l    A0, [A7]+
00000A94  5C4F                     addq.w     A7, 6
00000A96  4ED0                     jmp        [A0]
export_690:
fn00000A98:
00000A98  4E56 FFF8                link       A6, -0x0008
00000A9C  48E7 0308                movem.l    -[A7], D6,D7,A4
00000AA0  206D EDC8                movea.l    A0, [A5 - 0x1238]
00000AA4  49E8 0002                lea.l      A4, [A0 + 0x2]
00000AA8  302C 0008                move.w     D0, [A4 + 0x8]
00000AAC  48C0                     ext.l      D0
00000AAE  81FC 0008                divs.w     D0, 0x8
00000AB2  4440                     neg.w      D0
00000AB4  48C0                     ext.l      D0
00000AB6  2E00                     move.l     D7, D0
00000AB8  302C 0006                move.w     D0, [A4 + 0x6]
00000ABC  48C0                     ext.l      D0
00000ABE  322D FE32                move.w     D1, [A5 - 0x1CE]
00000AC2  48C1                     ext.l      D1
00000AC4  2F00                     move.l     -[A7], D0
00000AC6  2F01                     move.l     -[A7], D1
00000AC8  4EAD 04EA                jsr        [A5 + 0x4EA /* export_153, CODE:1 @ 000051F0 */]
00000ACC  201F                     move.l     D0, [A7]+
00000ACE  4480                     neg.l      D0
00000AD0  2C00                     move.l     D6, D0
00000AD2  2007                     move.l     D0, D7
00000AD4  D0AD FE2E                add.l      D0, [A5 - 0x1D2]
00000AD8  D086                     add.l      D0, D6
00000ADA  2B40 ED76                move.l     [A5 - 0x128A], D0
00000ADE  4CDF 10C0                movem.l    D6,D7,A4, [A7]+
00000AE2  4E5E                     unlink     A6
00000AE4  4E75                     rts
export_691:
fn00000AE6:
00000AE6  4E56 0000                link       A6, 0
00000AEA  102D F4CE                move.b     D0, [A5 - 0xB32]
00000AEE  670A                     beq        +0xC /* 00000AFA */
00000AF0  3F3C 0031                move.w     -[A7], 0x31 /* '1' */
00000AF4  4EAD 187A                jsr        [A5 + 0x187A /* export_779, CODE:16 @ 00000500 */]
00000AF8  6008                     bra        +0xA /* 00000B02 */
label00000AFA:
00000AFA  3F3C 0030                move.w     -[A7], 0x30 /* '0' */
00000AFE  4EAD 187A                jsr        [A5 + 0x187A /* export_779, CODE:16 @ 00000500 */]
label00000B02:
00000B02  4E5E                     unlink     A6
00000B04  4E75                     rts
export_692:
00000B06  4E56 FFF0                link       A6, -0x0010
00000B0A  102D F017                move.b     D0, [A5 - 0xFE9]
00000B0E  6706                     beq        +0x8 /* 00000B16 */
00000B10  422E 0008                clr.b      [A6 + 0x8]
00000B14  601A                     bra        +0x1C /* 00000B30 */
label00000B16:
00000B16  486E FFF0                pea.l      [A6 - 0x10]
00000B1A  A976                     syscall    GetKeys
00000B1C  7039                     moveq.l    D0, 0x39
00000B1E  3200                     move.w     D1, D0
00000B20  E641                     asr        D1.w, 3
00000B22  0136 10F0                btst       [A6 + D1.w - 0x10], D0
00000B26  56C0                     sne        D0
00000B28  0240 0001                andi.w     D0, 0x1
00000B2C  1D40 0008                move.b     [A6 + 0x8], D0
label00000B30:
00000B30  4E5E                     unlink     A6
00000B32  4E75                     rts
export_693:
00000B34  4E56 0000                link       A6, 0
00000B38  7001                     moveq.l    D0, 0x01
00000B3A  B06D EFDA                cmp.w      D0, [A5 - 0x1026]
00000B3E  6606                     bne        +0x8 /* 00000B46 */
00000B40  4EAD 1362                jsr        [A5 + 0x1362 /* export_616, CODE:12 @ 00004024 */]
00000B44  6004                     bra        +0x6 /* 00000B4A */
label00000B46:
00000B46  4EAD 006A                jsr        [A5 + 0x6A /* export_9, CODE:1 @ 00001888 */]
label00000B4A:
00000B4A  4E5E                     unlink     A6
00000B4C  4E75                     rts
export_694:
fn00000B4E:
00000B4E  4E56 FFCA                link       A6, -0x0036
00000B52  48E7 0F18                movem.l    -[A7], D4,D5,D6,D7,A3,A4
00000B56  1D6D E0DE FFE3           move.b     [A6 - 0x1D], [A5 - 0x1F22]
00000B5C  422D E0DE                clr.b      [A5 - 0x1F22]
00000B60  41EE FFEC                lea.l      A0, [A6 - 0x14]
00000B64  43ED ED82                lea.l      A1, [A5 - 0x127E]
00000B68  20D9                     move.l     [A0]+, [A1]+
00000B6A  20D9                     move.l     [A0]+, [A1]+
00000B6C  206D EDC8                movea.l    A0, [A5 - 0x1238]
00000B70  5088                     addq.l     A0, 8
00000B72  2D48 FFCA                move.l     [A6 - 0x36], A0
00000B76  486E FFEC                pea.l      [A6 - 0x14]
00000B7A  206E FFCA                movea.l    A0, [A6 - 0x36]
00000B7E  3028 0002                move.w     D0, [A0 + 0x2]
00000B82  4440                     neg.w      D0
00000B84  3F00                     move.w     -[A7], D0
00000B86  206E FFCA                movea.l    A0, [A6 - 0x36]
00000B8A  3010                     move.w     D0, [A0]
00000B8C  4440                     neg.w      D0
00000B8E  3F00                     move.w     -[A7], D0
00000B90  A8A8                     syscall    OffsetRect
00000B92  7000                     moveq.l    D0, 0x00
00000B94  2F00                     move.l     -[A7], D0
00000B96  4267                     clr.w      -[A7]
00000B98  3EB8 028E                move.w     [A7], [0x0000028E /* ROM85 */]
00000B9C  321F                     move.w     D1, [A7]+
00000B9E  201F                     move.l     D0, [A7]+
00000BA0  3001                     move.w     D0, D1
00000BA2  C0BC FFFF C000           and.l      D0, 0xFFFFC000
00000BA8  4A80                     tst.l      D0
00000BAA  57C0                     seq        D0
00000BAC  4400                     neg.b      D0
00000BAE  1D40 FFFF                move.b     [A6 - 0x1], D0
00000BB2  6700 00AA                beq        +0xAC /* 00000C5E */
00000BB6  4245                     clr.w      D5
00000BB8  42A7                     clr.l      -[A7]
00000BBA  AA29                     syscall    GetDeviceList
00000BBC  265F                     movea.l    A3, [A7]+
label00000BBE:
00000BBE  4267                     clr.w      -[A7]
00000BC0  486E FFEC                pea.l      [A6 - 0x14]
00000BC4  2053                     movea.l    A0, [A3]
00000BC6  4868 0022                pea.l      [A0 + 0x22]
00000BCA  486E FFE4                pea.l      [A6 - 0x1C]
00000BCE  A8AA                     syscall    SectRect
00000BD0  101F                     move.b     D0, [A7]+
00000BD2  6770                     beq        +0x72 /* 00000C44 */
00000BD4  5245                     addq.w     D5, 1
00000BD6  2053                     movea.l    A0, [A3]
00000BD8  2E28 0016                move.l     D7, [A0 + 0x16]
00000BDC  7001                     moveq.l    D0, 0x01
00000BDE  B045                     cmp.w      D0, D5
00000BE0  5DC0                     slt        D0
00000BE2  2047                     movea.l    A0, D7
00000BE4  2050                     movea.l    A0, [A0]
00000BE6  7201                     moveq.l    D1, 0x01
00000BE8  B268 0020                cmp.w      D1, [A0 + 0x20]
00000BEC  5DC1                     slt        D1
00000BEE  8001                     or.b       D0, D1
00000BF0  2F00                     move.l     -[A7], D0
00000BF2  42A7                     clr.l      -[A7]
00000BF4  AA2A                     syscall    GetMainDevice
00000BF6  221F                     move.l     D1, [A7]+
00000BF8  201F                     move.l     D0, [A7]+
00000BFA  B28B                     cmp.l      D1, A3
00000BFC  56C1                     sne        D1
00000BFE  8001                     or.b       D0, D1
00000C00  6706                     beq        +0x8 /* 00000C08 */
00000C02  1B7C 0001 E0DE           move.b     [A5 - 0x1F22], 0x1
label00000C08:
00000C08  102D E0DE                move.b     D0, [A5 - 0x1F22]
00000C0C  6636                     bne        +0x38 /* 00000C44 */
00000C0E  2047                     movea.l    A0, D7
00000C10  2050                     movea.l    A0, [A0]
00000C12  2B50 FE2E                move.l     [A5 - 0x1D2], [A0]
00000C16  7000                     moveq.l    D0, 0x00
00000C18  2047                     movea.l    A0, D7
00000C1A  2050                     movea.l    A0, [A0]
00000C1C  3028 0004                move.w     D0, [A0 + 0x4]
00000C20  C0BC 0000 3FFF           and.l      D0, 0x3FFF
00000C26  3B40 FE32                move.w     [A5 - 0x1CE], D0
00000C2A  2047                     movea.l    A0, D7
00000C2C  2050                     movea.l    A0, [A0]
00000C2E  43ED FE34                lea.l      A1, [A5 - 0x1CC]
00000C32  5C88                     addq.l     A0, 6
00000C34  22D8                     move.l     [A1]+, [A0]+
00000C36  22D8                     move.l     [A1]+, [A0]+
00000C38  283C 0000 0106           move.l     D4, 0x106
00000C3E  2044                     movea.l    A0, D4
00000C40  30AD FE32                move.w     [A0], [A5 - 0x1CE]
label00000C44:
00000C44  42A7                     clr.l      -[A7]
00000C46  2F0B                     move.l     -[A7], A3
00000C48  AA2B                     syscall    GetNextDevice
00000C4A  265F                     movea.l    A3, [A7]+
00000C4C  200B                     move.l     D0, A3
00000C4E  57C0                     seq        D0
00000C50  802D E0DE                or.b       D0, [A5 - 0x1F22]
00000C54  0240 0001                andi.w     D0, 0x1
00000C58  6700 FF64                beq        -0x9A /* 00000BBE */
00000C5C  605A                     bra        +0x5C /* 00000CB8 */
label00000C5E:
00000C5E  42A7                     clr.l      -[A7]
00000C60  A8D8                     syscall    NewRgn
00000C62  285F                     movea.l    A4, [A7]+
00000C64  2054                     movea.l    A0, [A4]
00000C66  5488                     addq.l     A0, 2
00000C68  43EE FFEC                lea.l      A1, [A6 - 0x14]
00000C6C  20D9                     move.l     [A0]+, [A1]+
00000C6E  20D9                     move.l     [A0]+, [A1]+
00000C70  42A7                     clr.l      -[A7]
00000C72  A8D8                     syscall    NewRgn
00000C74  2C1F                     move.l     D6, [A7]+
00000C76  2046                     movea.l    A0, D6
00000C78  2050                     movea.l    A0, [A0]
00000C7A  5488                     addq.l     A0, 2
00000C7C  43ED FE34                lea.l      A1, [A5 - 0x1CC]
00000C80  20D9                     move.l     [A0]+, [A1]+
00000C82  20D9                     move.l     [A0]+, [A1]+
00000C84  2D7C 0000 09EE FFD2      move.l     [A6 - 0x2E], 0x9EE
00000C8C  206E FFD2                movea.l    A0, [A6 - 0x2E]
00000C90  2F10                     move.l     -[A7], [A0]
00000C92  2F0C                     move.l     -[A7], A4
00000C94  2F0C                     move.l     -[A7], A4
00000C96  A8E4                     syscall    SectRgn
00000C98  2F0C                     move.l     -[A7], A4
00000C9A  2F06                     move.l     -[A7], D6
00000C9C  2F0C                     move.l     -[A7], A4
00000C9E  A8E6                     syscall    DiffRgn
00000CA0  4267                     clr.w      -[A7]
00000CA2  2F0C                     move.l     -[A7], A4
00000CA4  A8E2                     syscall    EmptyRgn
00000CA6  101F                     move.b     D0, [A7]+
00000CA8  0A00 0001                xori.b     D0, 0x1
00000CAC  1B40 E0DE                move.b     [A5 - 0x1F22], D0
00000CB0  2F0C                     move.l     -[A7], A4
00000CB2  A8D9                     syscall    DisposRgn/DisposeRgn
00000CB4  2F06                     move.l     -[A7], D6
00000CB6  A8D9                     syscall    DisposRgn/DisposeRgn
label00000CB8:
00000CB8  102D E0DD                move.b     D0, [A5 - 0x1F23]
00000CBC  6706                     beq        +0x8 /* 00000CC4 */
00000CBE  1B7C 0001 E0DE           move.b     [A5 - 0x1F22], 0x1
label00000CC4:
00000CC4  4EBA FDD2                jsr        [PC - 0x22E /* 00000A98 */]
00000CC8  102D E0DE                move.b     D0, [A5 - 0x1F22]
00000CCC  B02E FFE3                cmp.b      D0, [A6 - 0x1D]
00000CD0  673E                     beq        +0x40 /* 00000D10 */
00000CD2  102D E0DE                move.b     D0, [A5 - 0x1F22]
00000CD6  672A                     beq        +0x2C /* 00000D02 */
00000CD8  42A7                     clr.l      -[A7]
00000CDA  4EAD 1F4A                jsr        [A5 + 0x1F4A /* export_997, CODE:19 @ 00001378 */]
00000CDE  0C9F 0000 5580           cmpi.l     [A7]+, 0x5580
00000CE4  6C0A                     bge        +0xC /* 00000CF0 */
00000CE6  2F3C 0000 0CCC           move.l     -[A7], 0xCCC
00000CEC  4EAD 185A                jsr        [A5 + 0x185A /* export_775, CODE:16 @ 0000042E */]
label00000CF0:
00000CF0  486D ECA8                pea.l      [A5 - 0x1358]
00000CF4  486D ECCC                pea.l      [A5 - 0x1334]
00000CF8  486D ECF0                pea.l      [A5 - 0x1310]
00000CFC  4EAD 206A                jsr        [A5 + 0x206A /* export_1033, CODE:20 @ 00000C3C */]
00000D00  600E                     bra        +0x10 /* 00000D10 */
label00000D02:
00000D02  4AAD ECA8                tst.l      [A5 - 0x1358]
00000D06  6708                     beq        +0xA /* 00000D10 */
00000D08  2F2D ECA8                move.l     -[A7], [A5 - 0x1358]
00000D0C  4EAD 01EA                jsr        [A5 + 0x1EA /* export_57, CODE:1 @ 00004620 */]
label00000D10:
00000D10  4CDF 18F0                movem.l    D4,D5,D6,D7,A3,A4, [A7]+
00000D14  4E5E                     unlink     A6
00000D16  4E75                     rts
export_695:
00000D18  4E56 0000                link       A6, 0
00000D1C  4A6E 000A                tst.w      [A6 + 0xA]
00000D20  56C0                     sne        D0
00000D22  4A6E 0008                tst.w      [A6 + 0x8]
00000D26  56C1                     sne        D1
00000D28  8001                     or.b       D0, D1
00000D2A  6704                     beq        +0x6 /* 00000D30 */
00000D2C  426D E088                clr.w      [A5 - 0x1F78]
label00000D30:
00000D30  7005                     moveq.l    D0, 0x05
00000D32  B06D E088                cmp.w      D0, [A5 - 0x1F78]
00000D36  6614                     bne        +0x16 /* 00000D4C */
00000D38  2F2D EDC4                move.l     -[A7], [A5 - 0x123C]
00000D3C  2F2D E084                move.l     -[A7], [A5 - 0x1F7C]
00000D40  1F3C 0001                move.b     -[A7], 0x1
00000D44  A91B                     syscall    MoveWindow
00000D46  2F2D EDC4                move.l     -[A7], [A5 - 0x123C]
00000D4A  A915                     syscall    ShowWindow
label00000D4C:
00000D4C  7009                     moveq.l    D0, 0x09
00000D4E  B06D E088                cmp.w      D0, [A5 - 0x1F78]
00000D52  6614                     bne        +0x16 /* 00000D68 */
00000D54  2F2D EDC0                move.l     -[A7], [A5 - 0x1240]
00000D58  2F2D E084                move.l     -[A7], [A5 - 0x1F7C]
00000D5C  1F3C 0001                move.b     -[A7], 0x1
00000D60  A91B                     syscall    MoveWindow
00000D62  2F2D EDC0                move.l     -[A7], [A5 - 0x1240]
00000D66  A915                     syscall    ShowWindow
label00000D68:
00000D68  426D E088                clr.w      [A5 - 0x1F78]
00000D6C  4E5E                     unlink     A6
00000D6E  2E9F                     move.l     [A7], [A7]+
00000D70  4E75                     rts
export_696:
00000D72  4E56 0000                link       A6, 0
00000D76  7001                     moveq.l    D0, 0x01
00000D78  B06E 000A                cmp.w      D0, [A6 + 0xA]
00000D7C  5EC0                     sgt        D0
00000D7E  7228                     moveq.l    D1, 0x28
00000D80  B26E 000A                cmp.w      D1, [A6 + 0xA]
00000D84  5DC1                     slt        D1
00000D86  8001                     or.b       D0, D1
00000D88  6702                     beq        +0x4 /* 00000D8C */
00000D8A  6040                     bra        +0x42 /* 00000DCC */
label00000D8C:
00000D8C  302E 000A                move.w     D0, [A6 + 0xA]
00000D90  B06D EF42                cmp.w      D0, [A5 - 0x10BE]
00000D94  6604                     bne        +0x6 /* 00000D9A */
00000D96  422E 0008                clr.b      [A6 + 0x8]
label00000D9A:
00000D9A  3B6E 000A EF42           move.w     [A5 - 0x10BE], [A6 + 0xA]
00000DA0  302D EF42                move.w     D0, [A5 - 0x10BE]
00000DA4  5340                     subq.w     D0, 1
00000DA6  41ED F8FC                lea.l      A0, [A5 - 0x704]
00000DAA  E740                     asl        D0.w, 3
00000DAC  43ED EF44                lea.l      A1, [A5 - 0x10BC]
00000DB0  41F0 0000                lea.l      A0, [A0 + D0.w]
00000DB4  22D8                     move.l     [A1]+, [A0]+
00000DB6  22D8                     move.l     [A1]+, [A0]+
00000DB8  102E 0008                move.b     D0, [A6 + 0x8]
00000DBC  670E                     beq        +0x10 /* 00000DCC */
00000DBE  2F2D EDC0                move.l     -[A7], [A5 - 0x1240]
00000DC2  A873                     syscall    SetPort
00000DC4  486D EF38                pea.l      [A5 - 0x10C8]
00000DC8  4EBA 3008                jsr        [PC + 0x3008 /* 00003DD2 */]
label00000DCC:
00000DCC  4E5E                     unlink     A6
00000DCE  2E9F                     move.l     [A7], [A7]+
00000DD0  4E75                     rts
export_697:
00000DD2  4E56 FDA4                link       A6, -0x025C
00000DD6  4EAD 21F2                jsr        [A5 + 0x21F2 /* export_1082, CODE:20 @ 00004698 */]
00000DDA  4EAD 1862                jsr        [A5 + 0x1862 /* export_776, CODE:16 @ 00000474 */]
00000DDE  2D7C 5354 414B FFEE      move.l     [A6 - 0x12], 0x5354414B /* 'STAK' */
00000DE6  2F2D ED72                move.l     -[A7], [A5 - 0x128E]
00000DEA  487A 005C                pea.l      [PC + 0x5C /* 00000E48, value 0x1204E56 */]
00000DEE  42A7                     clr.l      -[A7]
00000DF0  3F3C 0001                move.w     -[A7], 0x1
00000DF4  486E FFEE                pea.l      [A6 - 0x12]
00000DF8  42A7                     clr.l      -[A7]
00000DFA  486E FFA4                pea.l      [A6 - 0x5C]
00000DFE  4EAD 040A                jsr        [A5 + 0x40A /* export_125, CODE:1 @ 00004D1A */]
00000E02  1D6E FFA4 000C           move.b     [A6 + 0xC], [A6 - 0x5C]
00000E08  102E FFA4                move.b     D0, [A6 - 0x5C]
00000E0C  6734                     beq        +0x36 /* 00000E42 */
00000E0E  3F2E FFAA                move.w     -[A7], [A6 - 0x56]
00000E12  486E FEA4                pea.l      [A6 - 0x15C]
00000E16  4EAD 22EA                jsr        [A5 + 0x22EA /* export_1113, CODE:20 @ 0000637C */]
00000E1A  206E 0008                movea.l    A0, [A6 + 0x8]
00000E1E  2F08                     move.l     -[A7], A0
00000E20  486E FEA4                pea.l      [A6 - 0x15C]
00000E24  486E FFAE                pea.l      [A6 - 0x52]
00000E28  486E FDA4                pea.l      [A6 - 0x25C]
00000E2C  3F3C 0002                move.w     -[A7], 0x2
00000E30  4EAD 050A                jsr        [A5 + 0x50A /* export_157, CODE:1 @ 0000531E */]
00000E34  205F                     movea.l    A0, [A7]+
00000E36  43EE FDA4                lea.l      A1, [A6 - 0x25C]
00000E3A  703F                     moveq.l    D0, 0x3F
label00000E3C:
00000E3C  20D9                     move.l     [A0]+, [A1]+
00000E3E  51C8 FFFC                dbf        D0, -0x6 /* 00000E3C */
label00000E42:
00000E42  4E5E                     unlink     A6
00000E44  2E9F                     move.l     [A7], [A7]+
00000E46  4E75                     rts
00000E48  0120                     btst       -[A0], D0
export_698:
fn00000E4A:
00000E4A  4E56 0000                link       A6, 0
00000E4E  7001                     moveq.l    D0, 0x01
00000E50  B06E 0008                cmp.w      D0, [A6 + 0x8]
00000E54  5EC0                     sgt        D0
00000E56  7212                     moveq.l    D1, 0x12
00000E58  B26E 0008                cmp.w      D1, [A6 + 0x8]
00000E5C  5DC1                     slt        D1
00000E5E  8001                     or.b       D0, D1
00000E60  6702                     beq        +0x4 /* 00000E64 */
00000E62  601A                     bra        +0x1C /* 00000E7E */
label00000E64:
00000E64  7001                     moveq.l    D0, 0x01
00000E66  B06D EFDA                cmp.w      D0, [A5 - 0x1026]
00000E6A  660A                     bne        +0xC /* 00000E76 */
00000E6C  3F2E 0008                move.w     -[A7], [A6 + 0x8]
00000E70  4EAD 136A                jsr        [A5 + 0x136A /* export_617, CODE:12 @ 0000431A */]
00000E74  6008                     bra        +0xA /* 00000E7E */
label00000E76:
00000E76  3F2E 0008                move.w     -[A7], [A6 + 0x8]
00000E7A  4EAD 0072                jsr        [A5 + 0x72 /* export_10, CODE:1 @ 00001C82 */]
label00000E7E:
00000E7E  4E5E                     unlink     A6
00000E80  205F                     movea.l    A0, [A7]+
00000E82  544F                     addq.w     A7, 2
00000E84  4ED0                     jmp        [A0]
fn00000E86:
00000E86  4E56 0000                link       A6, 0
00000E8A  3F3C 0003                move.w     -[A7], 0x3
00000E8E  4EAD 187A                jsr        [A5 + 0x187A /* export_779, CODE:16 @ 00000500 */]
00000E92  41ED E2F2                lea.l      A0, [A5 - 0x1D0E]
00000E96  43ED ED82                lea.l      A1, [A5 - 0x127E]
00000E9A  20D9                     move.l     [A0]+, [A1]+
00000E9C  20D9                     move.l     [A0]+, [A1]+
00000E9E  422D E2FB                clr.b      [A5 - 0x1D05]
00000EA2  206E 0008                movea.l    A0, [A6 + 0x8]
00000EA6  2C48                     movea.l    A6, A0
00000EA8  4EFA 0250                jmp        [PC + 0x250 /* 000010FA */]
00000EAC  0000 4E5E                ori.b      D0, 0x5E /* '^' */
00000EB0  2E9F                     move.l     [A7], [A7]+
00000EB2  4E75                     rts
fn00000EB4:
00000EB4  4E56 FFE4                link       A6, -0x001C
00000EB8  48E7 0F18                movem.l    -[A7], D4,D5,D6,D7,A3,A4
00000EBC  2E2E 000C                move.l     D7, [A6 + 0xC]
00000EC0  42A7                     clr.l      -[A7]
00000EC2  2F2E 0014                move.l     -[A7], [A6 + 0x14]
00000EC6  2F2E 0010                move.l     -[A7], [A6 + 0x10]
00000ECA  4EAD 214A                jsr        [A5 + 0x214A /* export_1061, CODE:20 @ 00002A3A */]
00000ECE  285F                     movea.l    A4, [A7]+
00000ED0  B9FC FFFF FFFF           cmpa.l     A4, 0xFFFFFFFF
00000ED6  6608                     bne        +0xA /* 00000EE0 */
00000ED8  2F2E 0008                move.l     -[A7], [A6 + 0x8]
00000EDC  4EBA FFA8                jsr        [PC - 0x58 /* 00000E86 */]
label00000EE0:
00000EE0  200C                     move.l     D0, A4
00000EE2  660A                     bne        +0xC /* 00000EEE */
00000EE4  7000                     moveq.l    D0, 0x00
00000EE6  2D40 0018                move.l     [A6 + 0x18], D0
00000EEA  6000 00C6                bra        +0xC8 /* 00000FB2 */
label00000EEE:
00000EEE  2054                     movea.l    A0, [A4]
00000EF0  2C10                     move.l     D6, [A0]
00000EF2  1B7C 0001 F4C2           move.b     [A5 - 0xB3E], 0x1
00000EF8  42A7                     clr.l      -[A7]
00000EFA  2F07                     move.l     -[A7], D7
00000EFC  4EAD 1F72                jsr        [A5 + 0x1F72 /* export_1002, CODE:19 @ 00001718 */]
00000F00  281F                     move.l     D4, [A7]+
00000F02  422D F4C2                clr.b      [A5 - 0xB3E]
00000F06  4A84                     tst.l      D4
00000F08  6756                     beq        +0x58 /* 00000F60 */
00000F0A  4267                     clr.w      -[A7]
00000F0C  2F07                     move.l     -[A7], D7
00000F0E  2F3A 00D6                move.l     -[A7], [PC + 0xD6 /* 00000FE6, value 0x424D4150 'BMAP' */]
00000F12  2F06                     move.l     -[A7], D6
00000F14  4EAD 1FCA                jsr        [A5 + 0x1FCA /* export_1013, CODE:19 @ 00001F1E */]
00000F18  101F                     move.b     D0, [A7]+
00000F1A  6736                     beq        +0x38 /* 00000F52 */
00000F1C  2654                     movea.l    A3, [A4]
00000F1E  700C                     moveq.l    D0, 0x0C
00000F20  D7C0                     add.l      A3, D0
00000F22  2044                     movea.l    A0, D4
00000F24  2010                     move.l     D0, [A0]
00000F26  720C                     moveq.l    D1, 0x0C
00000F28  D081                     add.l      D0, D1
00000F2A  2D40 FFE8                move.l     [A6 - 0x18], D0
00000F2E  2F0B                     move.l     -[A7], A3
00000F30  2F2E FFE8                move.l     -[A7], [A6 - 0x18]
00000F34  2006                     move.l     D0, D6
00000F36  720C                     moveq.l    D1, 0x0C
00000F38  9081                     sub.l      D0, D1
00000F3A  2F00                     move.l     -[A7], D0
00000F3C  4EAD 024A                jsr        [A5 + 0x24A /* export_69, CODE:1 @ 000046A6 */]
00000F40  2F07                     move.l     -[A7], D7
00000F42  1F3C 0001                move.b     -[A7], 0x1
00000F46  4EAD 1EEA                jsr        [A5 + 0x1EEA /* export_985, CODE:19 @ 00000432 */]
00000F4A  2D47 0018                move.l     [A6 + 0x18], D7
00000F4E  7E00                     moveq.l    D7, 0x00
00000F50  605A                     bra        +0x5C /* 00000FAC */
label00000F52:
00000F52  2F07                     move.l     -[A7], D7
00000F54  4267                     clr.w      -[A7]
00000F56  4EAD 1EEA                jsr        [A5 + 0x1EEA /* export_985, CODE:19 @ 00000432 */]
00000F5A  2F07                     move.l     -[A7], D7
00000F5C  4EAD 1FAA                jsr        [A5 + 0x1FAA /* export_1009, CODE:19 @ 00001BE8 */]
label00000F60:
00000F60  42A7                     clr.l      -[A7]
00000F62  2F06                     move.l     -[A7], D6
00000F64  2F3A 0080                move.l     -[A7], [PC + 0x80 /* 00000FE6, value 0x424D4150 'BMAP' */]
00000F68  4EAD 1F22                jsr        [A5 + 0x1F22 /* export_992, CODE:19 @ 000007F0 */]
00000F6C  2A1F                     move.l     D5, [A7]+
00000F6E  660E                     bne        +0x10 /* 00000F7E */
00000F70  2F0C                     move.l     -[A7], A4
00000F72  4EAD 1952                jsr        [A5 + 0x1952 /* export_806, CODE:16 @ 00000D00 */]
00000F76  2F2E 0008                move.l     -[A7], [A6 + 0x8]
00000F7A  4EBA FF0A                jsr        [PC - 0xF6 /* 00000E86 */]
label00000F7E:
00000F7E  42A7                     clr.l      -[A7]
00000F80  2F05                     move.l     -[A7], D5
00000F82  4EAD 1FBA                jsr        [A5 + 0x1FBA /* export_1011, CODE:19 @ 00001E08 */]
00000F86  2D5F FFEC                move.l     [A6 - 0x14], [A7]+
00000F8A  2654                     movea.l    A3, [A4]
00000F8C  700C                     moveq.l    D0, 0x0C
00000F8E  D7C0                     add.l      A3, D0
00000F90  202E FFEC                move.l     D0, [A6 - 0x14]
00000F94  720C                     moveq.l    D1, 0x0C
00000F96  D081                     add.l      D0, D1
00000F98  2F00                     move.l     -[A7], D0
00000F9A  2006                     move.l     D0, D6
00000F9C  720C                     moveq.l    D1, 0x0C
00000F9E  9081                     sub.l      D0, D1
00000FA0  2F00                     move.l     -[A7], D0
00000FA2  2F0B                     move.l     -[A7], A3
00000FA4  4EAD 1FF2                jsr        [A5 + 0x1FF2 /* export_1018, CODE:19 @ 00002464 */]
00000FA8  2D45 0018                move.l     [A6 + 0x18], D5
label00000FAC:
00000FAC  2F0C                     move.l     -[A7], A4
00000FAE  4EAD 1952                jsr        [A5 + 0x1952 /* export_806, CODE:16 @ 00000D00 */]
label00000FB2:
00000FB2  4A87                     tst.l      D7
00000FB4  56C0                     sne        D0
00000FB6  4A00                     tst.b      D0
00000FB8  671E                     beq        +0x20 /* 00000FD8 */
00000FBA  2F00                     move.l     -[A7], D0
00000FBC  4267                     clr.w      -[A7]
00000FBE  2F07                     move.l     -[A7], D7
00000FC0  2F3A 0024                move.l     -[A7], [PC + 0x24 /* 00000FE6, value 0x424D4150 'BMAP' */]
00000FC4  4EAD 1F2A                jsr        [A5 + 0x1F2A /* export_993, CODE:19 @ 00000890 */]
00000FC8  121F                     move.b     D1, [A7]+
00000FCA  201F                     move.l     D0, [A7]+
00000FCC  0A01 0001                xori.b     D1, 0x1
00000FD0  C001                     and.b      D0, D1
00000FD2  6704                     beq        +0x6 /* 00000FD8 */
00000FD4  4EAD 1812                jsr        [A5 + 0x1812 /* export_766, CODE:16 @ 00000208 */]
label00000FD8:
00000FD8  4CDF 18F0                movem.l    D4,D5,D6,D7,A3,A4, [A7]+
00000FDC  4E5E                     unlink     A6
00000FDE  205F                     movea.l    A0, [A7]+
00000FE0  DEFC 0010                add.w      A7, 0x10
00000FE4  4ED0                     jmp        [A0]
00000FE6  424D                     clr.w      A5
00000FE8  4150                     chk.w      D0, [A0]
fn00000FEA:
00000FEA  4E56 FFF4                link       A6, -0x000C
00000FEE  48E7 1F38                movem.l    -[A7], D3,D4,D5,D6,D7,A2,A3,A4
00000FF2  102D E2E3                move.b     D0, [A5 - 0x1D1D]
00000FF6  6604                     bne        +0x6 /* 00000FFC */
00000FF8  6000 0108                bra        +0x10A /* 00001102 */
label00000FFC:
00000FFC  41ED E2DA                lea.l      A0, [A5 - 0x1D26]
00001000  43ED ED82                lea.l      A1, [A5 - 0x127E]
00001004  20D9                     move.l     [A0]+, [A1]+
00001006  20D9                     move.l     [A0]+, [A1]+
00001008  102D F4CD                move.b     D0, [A5 - 0xB33]
0000100C  6726                     beq        +0x28 /* 00001034 */
0000100E  4A6D EFDA                tst.w      [A5 - 0x1026]
00001012  57C0                     seq        D0
00001014  C02D EFDF                and.b      D0, [A5 - 0x1021]
00001018  6706                     beq        +0x8 /* 00001020 */
0000101A  422D E2FC                clr.b      [A5 - 0x1D04]
0000101E  6004                     bra        +0x6 /* 00001024 */
label00001020:
00001020  422D E2FB                clr.b      [A5 - 0x1D05]
label00001024:
00001024  41ED E2F2                lea.l      A0, [A5 - 0x1D0E]
00001028  43ED ED82                lea.l      A1, [A5 - 0x127E]
0000102C  20D9                     move.l     [A0]+, [A1]+
0000102E  20D9                     move.l     [A0]+, [A1]+
00001030  6000 00C8                bra        +0xCA /* 000010FA */
label00001034:
00001034  102D EFDF                move.b     D0, [A5 - 0x1021]
00001038  6770                     beq        +0x72 /* 000010AA */
0000103A  4A6D EFDA                tst.w      [A5 - 0x1026]
0000103E  661A                     bne        +0x1C /* 0000105A */
00001040  42A7                     clr.l      -[A7]
00001042  70FF                     moveq.l    D0, 0xFFFFFFFF
00001044  2F00                     move.l     -[A7], D0
00001046  2F2D ECE8                move.l     -[A7], [A5 - 0x1318]
0000104A  2F2D E2E6                move.l     -[A7], [A5 - 0x1D1A]
0000104E  2F0E                     move.l     -[A7], A6
00001050  4EBA FE62                jsr        [PC - 0x19E /* 00000EB4 */]
00001054  2D5F FFFC                move.l     [A6 - 0x4], [A7]+
00001058  6018                     bra        +0x1A /* 00001072 */
label0000105A:
0000105A  42A7                     clr.l      -[A7]
0000105C  70FF                     moveq.l    D0, 0xFFFFFFFF
0000105E  2F00                     move.l     -[A7], D0
00001060  2F2D ECD0                move.l     -[A7], [A5 - 0x1330]
00001064  2F2D E2E6                move.l     -[A7], [A5 - 0x1D1A]
00001068  2F0E                     move.l     -[A7], A6
0000106A  4EBA FE48                jsr        [PC - 0x1B8 /* 00000EB4 */]
0000106E  2D5F FFFC                move.l     [A6 - 0x4], [A7]+
label00001072:
00001072  202E FFFC                move.l     D0, [A6 - 0x4]
00001076  B0AD E2E6                cmp.l      D0, [A5 - 0x1D1A]
0000107A  672C                     beq        +0x2E /* 000010A8 */
0000107C  42A7                     clr.l      -[A7]
0000107E  2F2D F622                move.l     -[A7], [A5 - 0x9DE]
00001082  4EAD 1F6A                jsr        [A5 + 0x1F6A /* export_1001, CODE:19 @ 000016EC */]
00001086  2D5F FFF4                move.l     [A6 - 0xC], [A7]+
0000108A  206E FFF4                movea.l    A0, [A6 - 0xC]
0000108E  2050                     movea.l    A0, [A0]
00001090  216E FFFC 000C           move.l     [A0 + 0xC], [A6 - 0x4]
00001096  2F2D F622                move.l     -[A7], [A5 - 0x9DE]
0000109A  1F3C 0001                move.b     -[A7], 0x1
0000109E  4EAD 1EE2                jsr        [A5 + 0x1EE2 /* export_984, CODE:19 @ 00000414 */]
000010A2  2B6E FFFC E2E6           move.l     [A5 - 0x1D1A], [A6 - 0x4]
label000010A8:
000010A8  6050                     bra        +0x52 /* 000010FA */
label000010AA:
000010AA  42A7                     clr.l      -[A7]
000010AC  42A7                     clr.l      -[A7]
000010AE  4EBA 3D9E                jsr        [PC + 0x3D9E /* 00004E4E */]
000010B2  2F2D ECD0                move.l     -[A7], [A5 - 0x1330]
000010B6  2F2D E2EA                move.l     -[A7], [A5 - 0x1D16]
000010BA  2F0E                     move.l     -[A7], A6
000010BC  4EBA FDF6                jsr        [PC - 0x20A /* 00000EB4 */]
000010C0  2D5F FFFC                move.l     [A6 - 0x4], [A7]+
000010C4  202E FFFC                move.l     D0, [A6 - 0x4]
000010C8  B0AD E2EA                cmp.l      D0, [A5 - 0x1D16]
000010CC  672C                     beq        +0x2E /* 000010FA */
000010CE  42A7                     clr.l      -[A7]
000010D0  2F2D F62A                move.l     -[A7], [A5 - 0x9D6]
000010D4  4EAD 1F7A                jsr        [A5 + 0x1F7A /* export_1003, CODE:19 @ 00001744 */]
000010D8  2D5F FFF8                move.l     [A6 - 0x8], [A7]+
000010DC  206E FFF8                movea.l    A0, [A6 - 0x8]
000010E0  2050                     movea.l    A0, [A0]
000010E2  216E FFFC 000C           move.l     [A0 + 0xC], [A6 - 0x4]
000010E8  2F2D F62A                move.l     -[A7], [A5 - 0x9D6]
000010EC  1F3C 0001                move.b     -[A7], 0x1
000010F0  4EAD 1EF2                jsr        [A5 + 0x1EF2 /* export_986, CODE:19 @ 00000450 */]
000010F4  2B6E FFFC E2EA           move.l     [A5 - 0x1D16], [A6 - 0x4]
label000010FA:
000010FA  4FEE FFD4                lea.l      A7, [A6 - 0x2C]
000010FE  422D E2E3                clr.b      [A5 - 0x1D1D]
label00001102:
00001102  4CDF 1CF8                movem.l    D3,D4,D5,D6,D7,A2,A3,A4, [A7]+
00001106  4E5E                     unlink     A6
00001108  4E75                     rts
export_699:
0000110A  4E56 0000                link       A6, 0
0000110E  2F2D EDC0                move.l     -[A7], [A5 - 0x1240]
00001112  A873                     syscall    SetPort
00001114  486D F022                pea.l      [A5 - 0xFDE]
00001118  A871                     syscall    GlobalToLocal
0000111A  2F2D EDC0                move.l     -[A7], [A5 - 0x1240]
0000111E  A91F                     syscall    SelectWindow
00001120  2F3C 0000 0009           move.l     -[A7], 0x9 /* '\t' */
00001126  2F2D F022                move.l     -[A7], [A5 - 0xFDE]
0000112A  4EAD 216A                jsr        [A5 + 0x216A /* export_1065, CODE:20 @ 00003604 */]
0000112E  4EAD 21BA                jsr        [A5 + 0x21BA /* export_1075, CODE:20 @ 00004336 */]
label00001132:
00001132  4267                     clr.w      -[A7]
00001134  A973                     syscall    StillDown
00001136  101F                     move.b     D0, [A7]+
00001138  6702                     beq        +0x4 /* 0000113C */
0000113A  60F6                     bra        -0x8 /* 00001132 */
label0000113C:
0000113C  7001                     moveq.l    D0, 0x01
0000113E  B06D EFF4                cmp.w      D0, [A5 - 0x100C]
00001142  6C04                     bge        +0x6 /* 00001148 */
00001144  4EBA 324E                jsr        [PC + 0x324E /* 00004394 */]
label00001148:
00001148  4E5E                     unlink     A6
0000114A  4E75                     rts
export_700:
0000114C  4E56 FFF0                link       A6, -0x0010
00001150  48E7 0F08                movem.l    -[A7], D4,D5,D6,D7,A4
00001154  422D E209                clr.b      [A5 - 0x1DF7]
00001158  102D E245                move.b     D0, [A5 - 0x1DBB]
0000115C  670A                     beq        +0xC /* 00001168 */
0000115E  2F2D E246                move.l     -[A7], [A5 - 0x1DBA]
00001162  A9D9                     syscall    TEDeactivate
00001164  422D E245                clr.b      [A5 - 0x1DBB]
label00001168:
00001168  4A6D E254                tst.w      [A5 - 0x1DAC]
0000116C  6700 00FC                beq        +0xFE /* 0000126A */
00001170  282D E24E                move.l     D4, [A5 - 0x1DB2]
00001174  3C2D E254                move.w     D6, [A5 - 0x1DAC]
00001178  486D E252                pea.l      [A5 - 0x1DAE]
0000117C  701E                     moveq.l    D0, 0x1E
0000117E  2F00                     move.l     -[A7], D0
00001180  4EAD 1B42                jsr        [A5 + 0x1B42 /* export_868, CODE:16 @ 00001E7C */]
00001184  7000                     moveq.l    D0, 0x00
00001186  2B40 E24E                move.l     [A5 - 0x1DB2], D0
0000118A  7000                     moveq.l    D0, 0x00
0000118C  2B40 E24A                move.l     [A5 - 0x1DB6], D0
00001190  102D E244                move.b     D0, [A5 - 0x1DBC]
00001194  6720                     beq        +0x22 /* 000011B6 */
00001196  2F2D ECE4                move.l     -[A7], [A5 - 0x131C]
0000119A  2F2D ECDC                move.l     -[A7], [A5 - 0x1324]
0000119E  2F2D ECD8                move.l     -[A7], [A5 - 0x1328]
000011A2  2F2D ECE4                move.l     -[A7], [A5 - 0x131C]
000011A6  486D ED82                pea.l      [A5 - 0x127E]
000011AA  3F3C FFFF                move.w     -[A7], 0xFFFF
000011AE  4EBA F316                jsr        [PC - 0xCEA /* 000004C6 */]
000011B2  422D E244                clr.b      [A5 - 0x1DBC]
label000011B6:
000011B6  3E06                     move.w     D7, D6
000011B8  B8AD F62A                cmp.l      D4, [A5 - 0x9D6]
000011BC  6606                     bne        +0x8 /* 000011C4 */
000011BE  3007                     move.w     D0, D7
000011C0  4440                     neg.w      D0
000011C2  3E00                     move.w     D7, D0
label000011C4:
000011C4  206D E246                movea.l    A0, [A5 - 0x1DBA]
000011C8  2050                     movea.l    A0, [A0]
000011CA  3A28 003C                move.w     D5, [A0 + 0x3C]
000011CE  42A7                     clr.l      -[A7]
000011D0  3005                     move.w     D0, D5
000011D2  5240                     addq.w     D0, 1
000011D4  48C0                     ext.l      D0
000011D6  2F00                     move.l     -[A7], D0
000011D8  4EAD 18DA                jsr        [A5 + 0x18DA /* export_791, CODE:16 @ 00000896 */]
000011DC  285F                     movea.l    A4, [A7]+
000011DE  200C                     move.l     D0, A4
000011E0  6608                     bne        +0xA /* 000011EA */
000011E2  4EAD 1812                jsr        [A5 + 0x1812 /* export_766, CODE:16 @ 00000208 */]
000011E6  6000 0082                bra        +0x84 /* 0000126A */
label000011EA:
000011EA  206D E246                movea.l    A0, [A5 - 0x1DBA]
000011EE  2050                     movea.l    A0, [A0]
000011F0  2068 003E                movea.l    A0, [A0 + 0x3E]
000011F4  2F10                     move.l     -[A7], [A0]
000011F6  2F14                     move.l     -[A7], [A4]
000011F8  3F05                     move.w     -[A7], D5
000011FA  4EAD 1BD2                jsr        [A5 + 0x1BD2 /* export_886, CODE:17 @ 00000642 */]
000011FE  4267                     clr.w      -[A7]
00001200  2F2D F62A                move.l     -[A7], [A5 - 0x9D6]
00001204  3F07                     move.w     -[A7], D7
00001206  2F0C                     move.l     -[A7], A4
00001208  486E FFF1                pea.l      [A6 - 0xF]
0000120C  4EAD 1E92                jsr        [A5 + 0x1E92 /* export_974, CODE:18 @ 000032E0 */]
00001210  101F                     move.b     D0, [A7]+
00001212  6628                     bne        +0x2A /* 0000123C */
00001214  3F3C 002C                move.w     -[A7], 0x2C /* ',' */
00001218  4EAD 187A                jsr        [A5 + 0x187A /* export_779, CODE:16 @ 00000500 */]
0000121C  41ED E2F2                lea.l      A0, [A5 - 0x1D0E]
00001220  43ED ED82                lea.l      A1, [A5 - 0x127E]
00001224  20D9                     move.l     [A0]+, [A1]+
00001226  20D9                     move.l     [A0]+, [A1]+
00001228  486D ED82                pea.l      [A5 - 0x127E]
0000122C  4EBA 2E00                jsr        [PC + 0x2E00 /* 0000402E */]
00001230  2F2D ECE4                move.l     -[A7], [A5 - 0x131C]
00001234  486D ED82                pea.l      [A5 - 0x127E]
00001238  4EBA F4C4                jsr        [PC - 0xB3C /* 000006FE */]
label0000123C:
0000123C  102E 0008                move.b     D0, [A6 + 0x8]
00001240  C02E FFF1                and.b      D0, [A6 - 0xF]
00001244  671E                     beq        +0x20 /* 00001264 */
00001246  41ED E0E8                lea.l      A0, [A5 - 0x1F18]
0000124A  43FA 002A                lea.l      A1, [PC + 0x2A /* 00001276, value 0xA636C6F '\nclo', pstring "closeField" */]
0000124E  20D9                     move.l     [A0]+, [A1]+
00001250  20D9                     move.l     [A0]+, [A1]+
00001252  20D9                     move.l     [A0]+, [A1]+
00001254  2F04                     move.l     -[A7], D4
00001256  3F06                     move.w     -[A7], D6
00001258  2F2D F62A                move.l     -[A7], [A5 - 0x9D6]
0000125C  2F2D F622                move.l     -[A7], [A5 - 0x9DE]
00001260  4EAD 0B9A                jsr        [A5 + 0xB9A /* export_367, CODE:8 @ 00004010 */]
label00001264:
00001264  2F0C                     move.l     -[A7], A4
00001266  4EAD 18D2                jsr        [A5 + 0x18D2 /* export_790, CODE:16 @ 0000083E */]
label0000126A:
0000126A  4CDF 10F0                movem.l    D4,D5,D6,D7,A4, [A7]+
0000126E  4E5E                     unlink     A6
00001270  205F                     movea.l    A0, [A7]+
00001272  544F                     addq.w     A7, 2
00001274  4ED0                     jmp        [A0]
00001276  0A63 6C6F                xori.w     -[A3], 0x6C6F /* 'lo' */
0000127A  7365                     moveq.l    D1, 0x65
0000127C  4669 656C                not.w      [A1 + 0x656C]
00001280  6400 4E56                bcc        +0x4E58 /* 000060D8 */
// begin alternate branch 00001282-0000128A
export_701:
00001282  4E56 0000                link       A6, 0
00001286  2F2D EDAC                move.l     -[A7], [A5 - 0x1254]
// end alternate branch 00001282-0000128A
export_701: // at 00001282 (misaligned)
00001284  0000 2F2D                ori.b      D0, 0x2D /* '-' */
00001288  EDAC                     lsl        D4, D6
0000128A  A9D9                     syscall    TEDeactivate
0000128C  422D EDAB                clr.b      [A5 - 0x1255]
00001290  A853                     syscall    ShowCursor
00001292  4E5E                     unlink     A6
00001294  4E75                     rts
export_702:
00001296  4E56 FFF0                link       A6, -0x0010
0000129A  102D F017                move.b     D0, [A5 - 0xFE9]
0000129E  6708                     beq        +0xA /* 000012A8 */
000012A0  1D6D DEA8 0008           move.b     [A6 + 0x8], [A5 - 0x2158]
000012A6  601A                     bra        +0x1C /* 000012C2 */
label000012A8:
000012A8  486E FFF0                pea.l      [A6 - 0x10]
000012AC  A976                     syscall    GetKeys
000012AE  7037                     moveq.l    D0, 0x37
000012B0  3200                     move.w     D1, D0
000012B2  E641                     asr        D1.w, 3
000012B4  0136 10F0                btst       [A6 + D1.w - 0x10], D0
000012B8  56C0                     sne        D0
000012BA  0240 0001                andi.w     D0, 0x1
000012BE  1D40 0008                move.b     [A6 + 0x8], D0
label000012C2:
000012C2  4E5E                     unlink     A6
000012C4  4E75                     rts
fn000012C6:
000012C6  4E56 0000                link       A6, 0
000012CA  2F0C                     move.l     -[A7], A4
000012CC  286E 0008                movea.l    A4, [A6 + 0x8]
000012D0  4AAC FFFA                tst.l      [A4 - 0x6]
000012D4  670A                     beq        +0xC /* 000012E0 */
000012D6  2F2D F62A                move.l     -[A7], [A5 - 0x9D6]
000012DA  4267                     clr.w      -[A7]
000012DC  4EAD 1EF2                jsr        [A5 + 0x1EF2 /* export_986, CODE:19 @ 00000450 */]
label000012E0:
000012E0  4AAC FFF6                tst.l      [A4 - 0xA]
000012E4  670A                     beq        +0xC /* 000012F0 */
000012E6  2F2D F622                move.l     -[A7], [A5 - 0x9DE]
000012EA  4267                     clr.w      -[A7]
000012EC  4EAD 1EE2                jsr        [A5 + 0x1EE2 /* export_984, CODE:19 @ 00000414 */]
label000012F0:
000012F0  3F3C 0036                move.w     -[A7], 0x36 /* '6' */
000012F4  4EAD 187A                jsr        [A5 + 0x187A /* export_779, CODE:16 @ 00000500 */]
000012F8  42A7                     clr.l      -[A7]
000012FA  A9FC                     syscall    ZeroScrap
000012FC  201F                     move.l     D0, [A7]+
000012FE  3940 FFFE                move.w     [A4 - 0x2], D0
00001302  206E 0008                movea.l    A0, [A6 + 0x8]
00001306  2C48                     movea.l    A6, A0
00001308  4EFA 031C                jmp        [PC + 0x31C /* 00001626 */]
0000130C  0000 285F                ori.b      D0, 0x5F /* '_' */
00001310  4E5E                     unlink     A6
00001312  205F                     movea.l    A0, [A7]+
00001314  5C4F                     addq.w     A7, 6
00001316  4ED0                     jmp        [A0]
fn00001318:
00001318  4E56 0000                link       A6, 0
0000131C  206E 0008                movea.l    A0, [A6 + 0x8]
00001320  4A68 FFFE                tst.w      [A0 - 0x2]
00001324  670C                     beq        +0xE /* 00001332 */
00001326  3F3C 0001                move.w     -[A7], 0x1
0000132A  2F2E 0008                move.l     -[A7], [A6 + 0x8]
0000132E  4EBA FF96                jsr        [PC - 0x6A /* 000012C6 */]
label00001332:
00001332  4E5E                     unlink     A6
00001334  2E9F                     move.l     [A7], [A7]+
00001336  4E75                     rts
export_703:
00001338  4E56 FFE8                link       A6, -0x0018
0000133C  48E7 1F38                movem.l    -[A7], D3,D4,D5,D6,D7,A2,A3,A4
00001340  42A7                     clr.l      -[A7]
00001342  A9FC                     syscall    ZeroScrap
00001344  201F                     move.l     D0, [A7]+
00001346  3D40 FFFE                move.w     [A6 - 0x2], D0
0000134A  42A7                     clr.l      -[A7]
0000134C  A9FB                     syscall    LoadScrap/LodeScrap
0000134E  201F                     move.l     D0, [A7]+
00001350  3D40 FFFE                move.w     [A6 - 0x2], D0
00001354  7000                     moveq.l    D0, 0x00
00001356  2D40 FFFA                move.l     [A6 - 0x6], D0
0000135A  7000                     moveq.l    D0, 0x00
0000135C  2D40 FFF6                move.l     [A6 - 0xA], D0
00001360  42A7                     clr.l      -[A7]
00001362  2F2D F62A                move.l     -[A7], [A5 - 0x9D6]
00001366  4EAD 1F7A                jsr        [A5 + 0x1F7A /* export_1003, CODE:19 @ 00001744 */]
0000136A  2D5F FFFA                move.l     [A6 - 0x6], [A7]+
0000136E  660A                     bne        +0xC /* 0000137A */
00001370  3F3C 0002                move.w     -[A7], 0x2
00001374  2F0E                     move.l     -[A7], A6
00001376  4EBA FF4E                jsr        [PC - 0xB2 /* 000012C6 */]
label0000137A:
0000137A  4267                     clr.w      -[A7]
0000137C  2F2E FFFA                move.l     -[A7], [A6 - 0x6]
00001380  4EAD 1D22                jsr        [A5 + 0x1D22 /* export_928, CODE:18 @ 00000082 */]
00001384  101F                     move.b     D0, [A7]+
00001386  670A                     beq        +0xC /* 00001392 */
00001388  3F3C 0003                move.w     -[A7], 0x3
0000138C  2F0E                     move.l     -[A7], A6
0000138E  4EBA FF36                jsr        [PC - 0xCA /* 000012C6 */]
label00001392:
00001392  206E FFFA                movea.l    A0, [A6 - 0x6]
00001396  2050                     movea.l    A0, [A0]
00001398  2D68 000C FFEE           move.l     [A6 - 0x12], [A0 + 0xC]
0000139E  2F2E FFFA                move.l     -[A7], [A6 - 0x6]
000013A2  4EAD 0222                jsr        [A5 + 0x222 /* export_64, CODE:1 @ 00004678 */]
000013A6  42A7                     clr.l      -[A7]
000013A8  206E FFFA                movea.l    A0, [A6 - 0x6]
000013AC  2050                     movea.l    A0, [A0]
000013AE  2F10                     move.l     -[A7], [A0]
000013B0  2F3A 0294                move.l     -[A7], [PC + 0x294 /* 00001646, value 0x43415244 'CARD', cstring "CARDNV" */]
000013B4  206E FFFA                movea.l    A0, [A6 - 0x6]
000013B8  2F10                     move.l     -[A7], [A0]
000013BA  4EAD 20EA                jsr        [A5 + 0x20EA /* export_1049, CODE:20 @ 0000151C */]
000013BE  201F                     move.l     D0, [A7]+
000013C0  3D40 FFFE                move.w     [A6 - 0x2], D0
000013C4  2F2E FFFA                move.l     -[A7], [A6 - 0x6]
000013C8  4EAD 022A                jsr        [A5 + 0x22A /* export_65, CODE:1 @ 00004682 */]
000013CC  2F2D F62A                move.l     -[A7], [A5 - 0x9D6]
000013D0  4267                     clr.w      -[A7]
000013D2  4EAD 1EF2                jsr        [A5 + 0x1EF2 /* export_986, CODE:19 @ 00000450 */]
000013D6  7000                     moveq.l    D0, 0x00
000013D8  2D40 FFFA                move.l     [A6 - 0x6], D0
000013DC  2F0E                     move.l     -[A7], A6
000013DE  4EBA FF38                jsr        [PC - 0xC8 /* 00001318 */]
000013E2  102D EFDF                move.b     D0, [A5 - 0x1021]
000013E6  0A00 0001                xori.b     D0, 0x1
000013EA  C02D E2E3                and.b      D0, [A5 - 0x1D1D]
000013EE  1D40 FFE9                move.b     [A6 - 0x17], D0
000013F2  6716                     beq        +0x18 /* 0000140A */
000013F4  42A7                     clr.l      -[A7]
000013F6  42A7                     clr.l      -[A7]
000013F8  4EBA 3A54                jsr        [PC + 0x3A54 /* 00004E4E */]
000013FC  2F2D ECD0                move.l     -[A7], [A5 - 0x1330]
00001400  4EAD 214A                jsr        [A5 + 0x214A /* export_1061, CODE:20 @ 00002A3A */]
00001404  2D5F FFF2                move.l     [A6 - 0xE], [A7]+
00001408  600E                     bra        +0x10 /* 00001418 */
label0000140A:
0000140A  42A7                     clr.l      -[A7]
0000140C  2F2E FFEE                move.l     -[A7], [A6 - 0x12]
00001410  4EAD 1F72                jsr        [A5 + 0x1F72 /* export_1002, CODE:19 @ 00001718 */]
00001414  2D5F FFF2                move.l     [A6 - 0xE], [A7]+
label00001418:
00001418  4AAE FFF2                tst.l      [A6 - 0xE]
0000141C  6F4E                     ble        +0x50 /* 0000146C */
0000141E  2F2E FFF2                move.l     -[A7], [A6 - 0xE]
00001422  4EAD 195A                jsr        [A5 + 0x195A /* export_807, CODE:16 @ 00000D46 */]
00001426  42A7                     clr.l      -[A7]
00001428  206E FFF2                movea.l    A0, [A6 - 0xE]
0000142C  2050                     movea.l    A0, [A0]
0000142E  2F10                     move.l     -[A7], [A0]
00001430  2F3A 0210                move.l     -[A7], [PC + 0x210 /* 00001642, value 0x43504943 'CPIC', cstring "CPICCARDNV" */]
00001434  206E FFF2                movea.l    A0, [A6 - 0xE]
00001438  2F10                     move.l     -[A7], [A0]
0000143A  4EAD 20EA                jsr        [A5 + 0x20EA /* export_1049, CODE:20 @ 0000151C */]
0000143E  201F                     move.l     D0, [A7]+
00001440  3D40 FFFE                move.w     [A6 - 0x2], D0
00001444  2F2E FFF2                move.l     -[A7], [A6 - 0xE]
00001448  4EAD 1962                jsr        [A5 + 0x1962 /* export_808, CODE:16 @ 00000D7C */]
0000144C  102E FFE9                move.b     D0, [A6 - 0x17]
00001450  670A                     beq        +0xC /* 0000145C */
00001452  2F2E FFF2                move.l     -[A7], [A6 - 0xE]
00001456  4EAD 1952                jsr        [A5 + 0x1952 /* export_806, CODE:16 @ 00000D00 */]
0000145A  600A                     bra        +0xC /* 00001466 */
label0000145C:
0000145C  2F2E FFEE                move.l     -[A7], [A6 - 0x12]
00001460  4267                     clr.w      -[A7]
00001462  4EAD 1EEA                jsr        [A5 + 0x1EEA /* export_985, CODE:19 @ 00000432 */]
label00001466:
00001466  2F0E                     move.l     -[A7], A6
00001468  4EBA FEAE                jsr        [PC - 0x152 /* 00001318 */]
label0000146C:
0000146C  42A7                     clr.l      -[A7]
0000146E  2F2D F622                move.l     -[A7], [A5 - 0x9DE]
00001472  4EAD 1F6A                jsr        [A5 + 0x1F6A /* export_1001, CODE:19 @ 000016EC */]
00001476  2D5F FFF6                move.l     [A6 - 0xA], [A7]+
0000147A  660A                     bne        +0xC /* 00001486 */
0000147C  3F3C 0004                move.w     -[A7], 0x4
00001480  2F0E                     move.l     -[A7], A6
00001482  4EBA FE42                jsr        [PC - 0x1BE /* 000012C6 */]
label00001486:
00001486  4267                     clr.w      -[A7]
00001488  2F2E FFF6                move.l     -[A7], [A6 - 0xA]
0000148C  4EAD 1D1A                jsr        [A5 + 0x1D1A /* export_927, CODE:18 @ 00000000 */]
00001490  101F                     move.b     D0, [A7]+
00001492  670A                     beq        +0xC /* 0000149E */
00001494  3F3C 0005                move.w     -[A7], 0x5
00001498  2F0E                     move.l     -[A7], A6
0000149A  4EBA FE2A                jsr        [PC - 0x1D6 /* 000012C6 */]
label0000149E:
0000149E  206E FFF6                movea.l    A0, [A6 - 0xA]
000014A2  2050                     movea.l    A0, [A0]
000014A4  2D68 000C FFEE           move.l     [A6 - 0x12], [A0 + 0xC]
000014AA  2F2E FFF6                move.l     -[A7], [A6 - 0xA]
000014AE  4EAD 0222                jsr        [A5 + 0x222 /* export_64, CODE:1 @ 00004678 */]
000014B2  42A7                     clr.l      -[A7]
000014B4  206E FFF6                movea.l    A0, [A6 - 0xA]
000014B8  2050                     movea.l    A0, [A0]
000014BA  2F10                     move.l     -[A7], [A0]
000014BC  2F3A 0180                move.l     -[A7], [PC + 0x180 /* 0000163E, value 0x424B4744 'BKGD', cstring "BKGDCPICCARDNV" */]
000014C0  206E FFF6                movea.l    A0, [A6 - 0xA]
000014C4  2F10                     move.l     -[A7], [A0]
000014C6  4EAD 20EA                jsr        [A5 + 0x20EA /* export_1049, CODE:20 @ 0000151C */]
000014CA  201F                     move.l     D0, [A7]+
000014CC  3D40 FFFE                move.w     [A6 - 0x2], D0
000014D0  2F2E FFF6                move.l     -[A7], [A6 - 0xA]
000014D4  4EAD 022A                jsr        [A5 + 0x22A /* export_65, CODE:1 @ 00004682 */]
000014D8  2F2D F622                move.l     -[A7], [A5 - 0x9DE]
000014DC  4267                     clr.w      -[A7]
000014DE  4EAD 1EE2                jsr        [A5 + 0x1EE2 /* export_984, CODE:19 @ 00000414 */]
000014E2  7000                     moveq.l    D0, 0x00
000014E4  2D40 FFF6                move.l     [A6 - 0xA], D0
000014E8  2F0E                     move.l     -[A7], A6
000014EA  4EBA FE2C                jsr        [PC - 0x1D4 /* 00001318 */]
000014EE  102D EFDF                move.b     D0, [A5 - 0x1021]
000014F2  C02D E2E3                and.b      D0, [A5 - 0x1D1D]
000014F6  1D40 FFE9                move.b     [A6 - 0x17], D0
000014FA  672E                     beq        +0x30 /* 0000152A */
000014FC  4A6D EFDA                tst.w      [A5 - 0x1026]
00001500  6614                     bne        +0x16 /* 00001516 */
00001502  42A7                     clr.l      -[A7]
00001504  70FF                     moveq.l    D0, 0xFFFFFFFF
00001506  2F00                     move.l     -[A7], D0
00001508  2F2D ECE8                move.l     -[A7], [A5 - 0x1318]
0000150C  4EAD 214A                jsr        [A5 + 0x214A /* export_1061, CODE:20 @ 00002A3A */]
00001510  2D5F FFF2                move.l     [A6 - 0xE], [A7]+
00001514  6022                     bra        +0x24 /* 00001538 */
label00001516:
00001516  42A7                     clr.l      -[A7]
00001518  70FF                     moveq.l    D0, 0xFFFFFFFF
0000151A  2F00                     move.l     -[A7], D0
0000151C  2F2D ECD0                move.l     -[A7], [A5 - 0x1330]
00001520  4EAD 214A                jsr        [A5 + 0x214A /* export_1061, CODE:20 @ 00002A3A */]
00001524  2D5F FFF2                move.l     [A6 - 0xE], [A7]+
00001528  600E                     bra        +0x10 /* 00001538 */
label0000152A:
0000152A  42A7                     clr.l      -[A7]
0000152C  2F2E FFEE                move.l     -[A7], [A6 - 0x12]
00001530  4EAD 1F72                jsr        [A5 + 0x1F72 /* export_1002, CODE:19 @ 00001718 */]
00001534  2D5F FFF2                move.l     [A6 - 0xE], [A7]+
label00001538:
00001538  4AAE FFF2                tst.l      [A6 - 0xE]
0000153C  6F4E                     ble        +0x50 /* 0000158C */
0000153E  2F2E FFF2                move.l     -[A7], [A6 - 0xE]
00001542  4EAD 195A                jsr        [A5 + 0x195A /* export_807, CODE:16 @ 00000D46 */]
00001546  42A7                     clr.l      -[A7]
00001548  206E FFF2                movea.l    A0, [A6 - 0xE]
0000154C  2050                     movea.l    A0, [A0]
0000154E  2F10                     move.l     -[A7], [A0]
00001550  2F3A 00E8                move.l     -[A7], [PC + 0xE8 /* 0000163A, value 0x42504943 'BPIC', cstring "BPICBKGDCPICCARDNV" */]
00001554  206E FFF2                movea.l    A0, [A6 - 0xE]
00001558  2F10                     move.l     -[A7], [A0]
0000155A  4EAD 20EA                jsr        [A5 + 0x20EA /* export_1049, CODE:20 @ 0000151C */]
0000155E  201F                     move.l     D0, [A7]+
00001560  3D40 FFFE                move.w     [A6 - 0x2], D0
00001564  2F2E FFF2                move.l     -[A7], [A6 - 0xE]
00001568  4EAD 1962                jsr        [A5 + 0x1962 /* export_808, CODE:16 @ 00000D7C */]
0000156C  102E FFE9                move.b     D0, [A6 - 0x17]
00001570  670A                     beq        +0xC /* 0000157C */
00001572  2F2E FFF2                move.l     -[A7], [A6 - 0xE]
00001576  4EAD 1952                jsr        [A5 + 0x1952 /* export_806, CODE:16 @ 00000D00 */]
0000157A  600A                     bra        +0xC /* 00001586 */
label0000157C:
0000157C  2F2E FFEE                move.l     -[A7], [A6 - 0x12]
00001580  4267                     clr.w      -[A7]
00001582  4EAD 1EEA                jsr        [A5 + 0x1EEA /* export_985, CODE:19 @ 00000432 */]
label00001586:
00001586  2F0E                     move.l     -[A7], A6
00001588  4EBA FD8E                jsr        [PC - 0x272 /* 00001318 */]
label0000158C:
0000158C  4EAD 2092                jsr        [A5 + 0x2092 /* export_1038, CODE:20 @ 00000E20 */]
00001590  486D EE38                pea.l      [A5 - 0x11C8]
00001594  A873                     syscall    SetPort
00001596  486D E454                pea.l      [A5 - 0x1BAC]
0000159A  A875                     syscall    SetPBits/SetPortBits
0000159C  486D EE40                pea.l      [A5 - 0x11C0]
000015A0  2F3C 0096 00E0           move.l     -[A7], 0x9600E0
000015A6  A8A8                     syscall    OffsetRect
000015A8  42A7                     clr.l      -[A7]
000015AA  486D EE40                pea.l      [A5 - 0x11C0]
000015AE  A8F3                     syscall    OpenPicture
000015B0  2D5F FFEA                move.l     [A6 - 0x16], [A7]+
000015B4  486D EE40                pea.l      [A5 - 0x11C0]
000015B8  A87B                     syscall    ClipRect
000015BA  486D E454                pea.l      [A5 - 0x1BAC]
000015BE  486D EE3A                pea.l      [A5 - 0x11C6]
000015C2  486D E45A                pea.l      [A5 - 0x1BA6]
000015C6  486D EE40                pea.l      [A5 - 0x11C0]
000015CA  4267                     clr.w      -[A7]
000015CC  42A7                     clr.l      -[A7]
000015CE  A8EC                     syscall    CopyBits
000015D0  A8F4                     syscall    ClosePicture
000015D2  2F2E FFEA                move.l     -[A7], [A6 - 0x16]
000015D6  4EAD 0222                jsr        [A5 + 0x222 /* export_64, CODE:1 @ 00004678 */]
000015DA  42A7                     clr.l      -[A7]
000015DC  206E FFEA                movea.l    A0, [A6 - 0x16]
000015E0  2050                     movea.l    A0, [A0]
000015E2  3010                     move.w     D0, [A0]
000015E4  48C0                     ext.l      D0
000015E6  2F00                     move.l     -[A7], D0
000015E8  2F3A 004C                move.l     -[A7], [PC + 0x4C /* 00001636, value 0x50494354 'PICT', cstring "PICTBPICBKGDCPICCARDNV" */]
000015EC  206E FFEA                movea.l    A0, [A6 - 0x16]
000015F0  2F10                     move.l     -[A7], [A0]
000015F2  4EAD 20EA                jsr        [A5 + 0x20EA /* export_1049, CODE:20 @ 0000151C */]
000015F6  201F                     move.l     D0, [A7]+
000015F8  3D40 FFFE                move.w     [A6 - 0x2], D0
000015FC  2F2E FFEA                move.l     -[A7], [A6 - 0x16]
00001600  4EAD 022A                jsr        [A5 + 0x22A /* export_65, CODE:1 @ 00004682 */]
00001604  2F2E FFEA                move.l     -[A7], [A6 - 0x16]
00001608  A8F5                     syscall    KillPicture
0000160A  486D ED82                pea.l      [A5 - 0x127E]
0000160E  A87B                     syscall    ClipRect
00001610  486D ED44                pea.l      [A5 - 0x12BC]
00001614  A875                     syscall    SetPBits/SetPortBits
00001616  2F0E                     move.l     -[A7], A6
00001618  4EBA FCFE                jsr        [PC - 0x302 /* 00001318 */]
0000161C  102E 0008                move.b     D0, [A6 + 0x8]
00001620  6704                     beq        +0x6 /* 00001626 */
00001622  4EBA 0DF2                jsr        [PC + 0xDF2 /* 00002416 */]
label00001626:
00001626  4FEE FFC8                lea.l      A7, [A6 - 0x38]
0000162A  4CDF 1CF8                movem.l    D3,D4,D5,D6,D7,A2,A3,A4, [A7]+
0000162E  4E5E                     unlink     A6
00001630  205F                     movea.l    A0, [A7]+
00001632  544F                     addq.w     A7, 2
00001634  4ED0                     jmp        [A0]
00001636  5049 4354 4250 4943      dc.b       "PICTBPIC"
0000163E  424B                     clr.w      A3
00001640  4744                     chk.w      D3, D4
00001642  4350                     chk.w      D1, [A0]
00001644  4943                     chk.w      D4, D3
00001646  4341                     chk.w      D1, D1
00001648  5244                     addq.w     D4, 1
export_704:
0000164A  4E56 0000                link       A6, 0
0000164E  4267                     clr.w      -[A7]
00001650  2F2E 0008                move.l     -[A7], [A6 + 0x8]
00001654  4EAD 2082                jsr        [A5 + 0x2082 /* export_1036, CODE:20 @ 00000D28 */]
00001658  101F                     move.b     D0, [A7]+
0000165A  6704                     beq        +0x6 /* 00001660 */
0000165C  53AD DED4                subq.l     [A5 - 0x212C], 1
label00001660:
00001660  4AAD DED4                tst.l      [A5 - 0x212C]
00001664  57C0                     seq        D0
00001666  4400                     neg.b      D0
00001668  1D40 000C                move.b     [A6 + 0xC], D0
0000166C  4E5E                     unlink     A6
0000166E  2E9F                     move.l     [A7], [A7]+
00001670  4E75                     rts
fn00001672:
00001672  4E56 0000                link       A6, 0
00001676  2F0C                     move.l     -[A7], A4
00001678  286E 0008                movea.l    A4, [A6 + 0x8]
0000167C  4267                     clr.w      -[A7]
0000167E  3F2C FCE6                move.w     -[A7], [A4 - 0x31A]
00001682  486C FCE2                pea.l      [A4 - 0x31E]
00001686  2F2E 0010                move.l     -[A7], [A6 + 0x10]
0000168A  2F2E 000C                move.l     -[A7], [A6 + 0xC]
0000168E  4EAD 1B2A                jsr        [A5 + 0x1B2A /* export_865, CODE:16 @ 00001E1C */]
00001692  395F FD42                move.w     [A4 - 0x2BE], [A7]+
00001696  4A6C FD42                tst.w      [A4 - 0x2BE]
0000169A  672A                     beq        +0x2C /* 000016C6 */
0000169C  4267                     clr.w      -[A7]
0000169E  3F2C FCE6                move.w     -[A7], [A4 - 0x31A]
000016A2  4EAD 02F2                jsr        [A5 + 0x2F2 /* export_90, CODE:1 @ 0000486A */]
000016A6  395F FD42                move.w     [A4 - 0x2BE], [A7]+
000016AA  4267                     clr.w      -[A7]
000016AC  486C FAE2                pea.l      [A4 - 0x51E]
000016B0  4267                     clr.w      -[A7]
000016B2  4EAD 033A                jsr        [A5 + 0x33A /* export_99, CODE:1 @ 000049EA */]
000016B6  395F FD42                move.w     [A4 - 0x2BE], [A7]+
000016BA  206E 0008                movea.l    A0, [A6 + 0x8]
000016BE  2C48                     movea.l    A6, A0
000016C0  4EFA 0B32                jmp        [PC + 0xB32 /* 000021F4 */]
000016C4  0000 285F                ori.b      D0, 0x5F /* '_' */
// begin alternate branch 000016C6-000016C8
label000016C6:
000016C6  285F                     movea.l    A4, [A7]+
// end alternate branch 000016C6-000016C8
label000016C6: // (misaligned)
000016C8  4E5E                     unlink     A6
000016CA  205F                     movea.l    A0, [A7]+
000016CC  DEFC 000C                add.w      A7, 0xC
000016D0  4ED0                     jmp        [A0]
export_705:
000016D2  4E56 F8A8                link       A6, -0x0758
000016D6  48E7 1F38                movem.l    -[A7], D3,D4,D5,D6,D7,A2,A3,A4
000016DA  1B7C 0001 DC55           move.b     [A5 - 0x23AB], 0x1
000016E0  4EAD 21F2                jsr        [A5 + 0x21F2 /* export_1082, CODE:20 @ 00004698 */]
label000016E4:
000016E4  4EAD 1862                jsr        [A5 + 0x1862 /* export_776, CODE:16 @ 00000474 */]
000016E8  2F2D ED72                move.l     -[A7], [A5 - 0x128E]
000016EC  486E F8C0                pea.l      [A6 - 0x740]
000016F0  3F3C 0017                move.w     -[A7], 0x17
000016F4  4EAD 209A                jsr        [A5 + 0x209A /* export_1039, CODE:20 @ 00000F60 */]
000016F8  487A 0BB6                pea.l      [PC + 0xBB6 /* 000022B0, value 0x4E56 'NV', cstring "" */]
000016FC  487A 0BB4                pea.l      [PC + 0xBB4 /* 000022B2, value 0x4E56FEF2 */]
00001700  486E FCF8                pea.l      [A6 - 0x308]
00001704  3F3C 0F9F                move.w     -[A7], 0xF9F
00001708  42A7                     clr.l      -[A7]
0000170A  4EAD 0402                jsr        [A5 + 0x402 /* export_124, CODE:1 @ 00004D14 */]
0000170E  4EAD 22A2                jsr        [A5 + 0x22A2 /* export_1104, CODE:20 @ 00005D82 */]
00001712  102E FCF8                move.b     D0, [A6 - 0x308]
00001716  6604                     bne        +0x6 /* 0000171C */
00001718  6000 0B60                bra        +0xB62 /* 0000227A */
label0000171C:
0000171C  3F2E FCFE                move.w     -[A7], [A6 - 0x302]
00001720  486E FBE2                pea.l      [A6 - 0x41E]
00001724  4EAD 22EA                jsr        [A5 + 0x22EA /* export_1113, CODE:20 @ 0000637C */]
00001728  486E FBE2                pea.l      [A6 - 0x41E]
0000172C  486E FD02                pea.l      [A6 - 0x2FE]
00001730  486E F9C0                pea.l      [A6 - 0x640]
00001734  3F3C 0002                move.w     -[A7], 0x2
00001738  4EAD 050A                jsr        [A5 + 0x50A /* export_157, CODE:1 @ 0000531E */]
0000173C  41EE FAE2                lea.l      A0, [A6 - 0x51E]
00001740  43EE F9C0                lea.l      A1, [A6 - 0x640]
00001744  703F                     moveq.l    D0, 0x3F
label00001746:
00001746  20D9                     move.l     [A0]+, [A1]+
00001748  51C8 FFFC                dbf        D0, -0x6 /* 00001746 */
0000174C  4267                     clr.w      -[A7]
0000174E  486E FAE2                pea.l      [A6 - 0x51E]
00001752  4267                     clr.w      -[A7]
00001754  486E FCE6                pea.l      [A6 - 0x31A]
00001758  4EAD 02EA                jsr        [A5 + 0x2EA /* export_89, CODE:1 @ 00004832 */]
0000175C  3D5F FD42                move.w     [A6 - 0x2BE], [A7]+
00001760  4A6E FD42                tst.w      [A6 - 0x2BE]
00001764  57C0                     seq        D0
00001766  4400                     neg.b      D0
00001768  1D40 FAC1                move.b     [A6 - 0x53F], D0
0000176C  70D5                     moveq.l    D0, 0xFFFFFFD5
0000176E  B06E FD42                cmp.w      D0, [A6 - 0x2BE]
00001772  662C                     bne        +0x2E /* 000017A0 */
00001774  4267                     clr.w      -[A7]
00001776  486E FAE2                pea.l      [A6 - 0x51E]
0000177A  4267                     clr.w      -[A7]
0000177C  2F3A 0B2E                move.l     -[A7], [PC + 0xB2E /* 000022AC, value 0x57494C44 'WILD', cstring "WILD" */]
00001780  2F3A 0B26                move.l     -[A7], [PC + 0xB26 /* 000022A8, value 0x5354414B 'STAK', cstring "STAKWILD" */]
00001784  4EAD 0332                jsr        [A5 + 0x332 /* export_98, CODE:1 @ 000049A8 */]
00001788  3D5F FD42                move.w     [A6 - 0x2BE], [A7]+
0000178C  4267                     clr.w      -[A7]
0000178E  486E FAE2                pea.l      [A6 - 0x51E]
00001792  4267                     clr.w      -[A7]
00001794  486E FCE6                pea.l      [A6 - 0x31A]
00001798  4EAD 02EA                jsr        [A5 + 0x2EA /* export_89, CODE:1 @ 00004832 */]
0000179C  3D5F FD42                move.w     [A6 - 0x2BE], [A7]+
label000017A0:
000017A0  4A6E FD42                tst.w      [A6 - 0x2BE]
000017A4  6708                     beq        +0xA /* 000017AE */
000017A6  4EAD 1812                jsr        [A5 + 0x1812 /* export_766, CODE:16 @ 00000208 */]
000017AA  6000 FF38                bra        -0xC6 /* 000016E4 */
label000017AE:
000017AE  422E FAD1                clr.b      [A6 - 0x52F]
000017B2  7000                     moveq.l    D0, 0x00
000017B4  2F00                     move.l     -[A7], D0
000017B6  4267                     clr.w      -[A7]
000017B8  A861                     syscall    Random
000017BA  321F                     move.w     D1, [A7]+
000017BC  201F                     move.l     D0, [A7]+
000017BE  3001                     move.w     D0, D1
000017C0  C0BC 0000 00FF           and.l      D0, 0xFF
000017C6  2D40 FFF8                move.l     [A6 - 0x8], D0
000017CA  D0BC 0000 0800           add.l      D0, 0x800
000017D0  2D40 FFFC                move.l     [A6 - 0x4], D0
000017D4  7000                     moveq.l    D0, 0x00
000017D6  2F00                     move.l     -[A7], D0
000017D8  4267                     clr.w      -[A7]
000017DA  A861                     syscall    Random
000017DC  321F                     move.w     D1, [A7]+
000017DE  201F                     move.l     D0, [A7]+
000017E0  3001                     move.w     D0, D1
000017E2  C0BC 0000 00FF           and.l      D0, 0xFF
000017E8  2D40 FFE0                move.l     [A6 - 0x20], D0
000017EC  D0BC 0000 0900           add.l      D0, 0x900 /* '\t\0' */
000017F2  2D40 FFE4                move.l     [A6 - 0x1C], D0
000017F6  7000                     moveq.l    D0, 0x00
000017F8  2F00                     move.l     -[A7], D0
000017FA  4267                     clr.w      -[A7]
000017FC  A861                     syscall    Random
000017FE  321F                     move.w     D1, [A7]+
00001800  201F                     move.l     D0, [A7]+
00001802  3001                     move.w     D0, D1
00001804  C0BC 0000 00FF           and.l      D0, 0xFF
0000180A  2D40 FFC8                move.l     [A6 - 0x38], D0
0000180E  D0BC 0000 0A00           add.l      D0, 0xA00 /* '\n\0' */
00001814  2D40 FFCC                move.l     [A6 - 0x34], D0
00001818  7000                     moveq.l    D0, 0x00
0000181A  2F00                     move.l     -[A7], D0
0000181C  4267                     clr.w      -[A7]
0000181E  A861                     syscall    Random
00001820  321F                     move.w     D1, [A7]+
00001822  201F                     move.l     D0, [A7]+
00001824  3001                     move.w     D0, D1
00001826  C0BC 0000 00FF           and.l      D0, 0xFF
0000182C  2D40 FFB0                move.l     [A6 - 0x50], D0
00001830  D0BC 0000 0B00           add.l      D0, 0xB00
00001836  2D40 FFB4                move.l     [A6 - 0x4C], D0
0000183A  2D7C 0000 0080 FFF0      move.l     [A6 - 0x10], 0x80
00001842  42A7                     clr.l      -[A7]
00001844  2F2E FFF0                move.l     -[A7], [A6 - 0x10]
00001848  4EAD 18DA                jsr        [A5 + 0x18DA /* export_791, CODE:16 @ 00000896 */]
0000184C  2D5F FFEC                move.l     [A6 - 0x14], [A7]+
00001850  206E FFEC                movea.l    A0, [A6 - 0x14]
00001854  2F10                     move.l     -[A7], [A0]
00001856  2F2E FFF0                move.l     -[A7], [A6 - 0x10]
0000185A  4EAD 1B42                jsr        [A5 + 0x1B42 /* export_868, CODE:16 @ 00001E7C */]
0000185E  206E FFEC                movea.l    A0, [A6 - 0x14]
00001862  2050                     movea.l    A0, [A0]
00001864  2D48 F8BC                move.l     [A6 - 0x744], A0
00001868  20AE FFF0                move.l     [A0], [A6 - 0x10]
0000186C  206E F8BC                movea.l    A0, [A6 - 0x744]
00001870  217C 4C49 5354 0004      move.l     [A0 + 0x4], 0x4C495354 /* 'LIST' */
00001878  206E F8BC                movea.l    A0, [A6 - 0x744]
0000187C  216E FFFC 0008           move.l     [A0 + 0x8], [A6 - 0x4]
00001882  206E F8BC                movea.l    A0, [A6 - 0x744]
00001886  7001                     moveq.l    D0, 0x01
00001888  2140 000C                move.l     [A0 + 0xC], D0
0000188C  206E F8BC                movea.l    A0, [A6 - 0x744]
00001890  217C 0000 0800 0010      move.l     [A0 + 0x10], 0x800
00001898  206E F8BC                movea.l    A0, [A6 - 0x744]
0000189C  7001                     moveq.l    D0, 0x01
0000189E  2140 0014                move.l     [A0 + 0x14], D0
000018A2  206E F8BC                movea.l    A0, [A6 - 0x744]
000018A6  317C 0010 0018           move.w     [A0 + 0x18], 0x10
000018AC  206E F8BC                movea.l    A0, [A6 - 0x744]
000018B0  317C 0002 001A           move.w     [A0 + 0x1A], 0x2
000018B6  206E F8BC                movea.l    A0, [A6 - 0x744]
000018BA  317C 0003 001C           move.w     [A0 + 0x1C], 0x3
000018C0  206E F8BC                movea.l    A0, [A6 - 0x744]
000018C4  317C 0004 001E           move.w     [A0 + 0x1E], 0x4
000018CA  206E F8BC                movea.l    A0, [A6 - 0x744]
000018CE  7001                     moveq.l    D0, 0x01
000018D0  2140 0024                move.l     [A0 + 0x24], D0
000018D4  206E F8BC                movea.l    A0, [A6 - 0x744]
000018D8  7000                     moveq.l    D0, 0x00
000018DA  2140 0028                move.l     [A0 + 0x28], D0
000018DE  206E F8BC                movea.l    A0, [A6 - 0x744]
000018E2  7000                     moveq.l    D0, 0x00
000018E4  2140 002C                move.l     [A0 + 0x2C], D0
000018E8  206E FFEC                movea.l    A0, [A6 - 0x14]
000018EC  2010                     move.l     D0, [A0]
000018EE  7230                     moveq.l    D1, 0x30
000018F0  D081                     add.l      D0, D1
000018F2  2D40 FFE8                move.l     [A6 - 0x18], D0
000018F6  206E FFE8                movea.l    A0, [A6 - 0x18]
000018FA  20AE FFE4                move.l     [A0], [A6 - 0x1C]
000018FE  206E FFE8                movea.l    A0, [A6 - 0x18]
00001902  317C 0001 0004           move.w     [A0 + 0x4], 0x1
00001908  206E FFEC                movea.l    A0, [A6 - 0x14]
0000190C  2050                     movea.l    A0, [A0]
0000190E  2F08                     move.l     -[A7], A0
00001910  42A7                     clr.l      -[A7]
00001912  2F2E FFEC                move.l     -[A7], [A6 - 0x14]
00001916  4EAD 19A2                jsr        [A5 + 0x19A2 /* export_816, CODE:16 @ 00001074 */]
0000191A  201F                     move.l     D0, [A7]+
0000191C  205F                     movea.l    A0, [A7]+
0000191E  2140 0020                move.l     [A0 + 0x20], D0
00001922  2D7C 0000 0800 FFD8      move.l     [A6 - 0x28], 0x800
0000192A  42A7                     clr.l      -[A7]
0000192C  2F2E FFD8                move.l     -[A7], [A6 - 0x28]
00001930  4EAD 18DA                jsr        [A5 + 0x18DA /* export_791, CODE:16 @ 00000896 */]
00001934  2D5F FFD4                move.l     [A6 - 0x2C], [A7]+
00001938  206E FFD4                movea.l    A0, [A6 - 0x2C]
0000193C  2F10                     move.l     -[A7], [A0]
0000193E  2F2E FFD8                move.l     -[A7], [A6 - 0x28]
00001942  4EAD 1B42                jsr        [A5 + 0x1B42 /* export_868, CODE:16 @ 00001E7C */]
00001946  206E FFD4                movea.l    A0, [A6 - 0x2C]
0000194A  2050                     movea.l    A0, [A0]
0000194C  2D48 F8B8                move.l     [A6 - 0x748], A0
00001950  20AE FFD8                move.l     [A0], [A6 - 0x28]
00001954  206E F8B8                movea.l    A0, [A6 - 0x748]
00001958  217C 5041 4745 0004      move.l     [A0 + 0x4], 0x50414745 /* 'PAGE' */
00001960  206E F8B8                movea.l    A0, [A6 - 0x748]
00001964  216E FFE4 0008           move.l     [A0 + 0x8], [A6 - 0x1C]
0000196A  206E F8B8                movea.l    A0, [A6 - 0x748]
0000196E  216E FFFC 000C           move.l     [A0 + 0xC], [A6 - 0x4]
00001974  206E F8B8                movea.l    A0, [A6 - 0x748]
00001978  7000                     moveq.l    D0, 0x00
0000197A  2140 0014                move.l     [A0 + 0x14], D0
0000197E  206E FFD4                movea.l    A0, [A6 - 0x2C]
00001982  2010                     move.l     D0, [A0]
00001984  7218                     moveq.l    D1, 0x18
00001986  D081                     add.l      D0, D1
00001988  2D40 FFD0                move.l     [A6 - 0x30], D0
0000198C  206E FFD0                movea.l    A0, [A6 - 0x30]
00001990  20AE FFB4                move.l     [A0], [A6 - 0x4C]
00001994  206E FFD0                movea.l    A0, [A6 - 0x30]
00001998  08E8 0006 0004           bset.b     [A0 + 0x4], 0x6
0000199E  206E FFD4                movea.l    A0, [A6 - 0x2C]
000019A2  2050                     movea.l    A0, [A0]
000019A4  2F08                     move.l     -[A7], A0
000019A6  42A7                     clr.l      -[A7]
000019A8  2F2E FFD4                move.l     -[A7], [A6 - 0x2C]
000019AC  226E FFEC                movea.l    A1, [A6 - 0x14]
000019B0  2251                     movea.l    A1, [A1]
000019B2  3F29 0018                move.w     -[A7], [A1 + 0x18]
000019B6  3F3C 0001                move.w     -[A7], 0x1
000019BA  4EAD 19AA                jsr        [A5 + 0x19AA /* export_817, CODE:16 @ 0000109E */]
000019BE  201F                     move.l     D0, [A7]+
000019C0  205F                     movea.l    A0, [A7]+
000019C2  2140 0010                move.l     [A0 + 0x10], D0
000019C6  7000                     moveq.l    D0, 0x00
000019C8  2D40 FFA0                move.l     [A6 - 0x60], D0
000019CC  7000                     moveq.l    D0, 0x00
000019CE  2D40 FF9C                move.l     [A6 - 0x64], D0
000019D2  7000                     moveq.l    D0, 0x00
000019D4  2D40 FF94                move.l     [A6 - 0x6C], D0
000019D8  7000                     moveq.l    D0, 0x00
000019DA  2D40 FF90                move.l     [A6 - 0x70], D0
000019DE  7000                     moveq.l    D0, 0x00
000019E0  2D40 FF84                move.l     [A6 - 0x7C], D0
000019E4  7000                     moveq.l    D0, 0x00
000019E6  2D40 FF80                move.l     [A6 - 0x80], D0
000019EA  7000                     moveq.l    D0, 0x00
000019EC  2D40 FF78                move.l     [A6 - 0x88], D0
000019F0  102D DC55                move.b     D0, [A5 - 0x23AB]
000019F4  6700 01A2                beq        +0x1A4 /* 00001B98 */
000019F8  42A7                     clr.l      -[A7]
000019FA  2F2D F622                move.l     -[A7], [A5 - 0x9DE]
000019FE  4EAD 1F6A                jsr        [A5 + 0x1F6A /* export_1001, CODE:19 @ 000016EC */]
00001A02  2D5F FFB8                move.l     [A6 - 0x48], [A7]+
00001A06  660A                     bne        +0xC /* 00001A12 */
00001A08  2F3C 0000 82A3           move.l     -[A7], 0x82A3
00001A0E  4EAD 185A                jsr        [A5 + 0x185A /* export_775, CODE:16 @ 0000042E */]
label00001A12:
00001A12  206E FFB8                movea.l    A0, [A6 - 0x48]
00001A16  2050                     movea.l    A0, [A0]
00001A18  2D68 000C FF8C           move.l     [A6 - 0x74], [A0 + 0xC]
00001A1E  677C                     beq        +0x7E /* 00001A9C */
00001A20  42A7                     clr.l      -[A7]
00001A22  2F2E FF8C                move.l     -[A7], [A6 - 0x74]
00001A26  4EAD 1F72                jsr        [A5 + 0x1F72 /* export_1002, CODE:19 @ 00001718 */]
00001A2A  2D5F FF88                move.l     [A6 - 0x78], [A7]+
00001A2E  6606                     bne        +0x8 /* 00001A36 */
00001A30  4EAD 1812                jsr        [A5 + 0x1812 /* export_766, CODE:16 @ 00000208 */]
00001A34  6066                     bra        +0x68 /* 00001A9C */
label00001A36:
00001A36  206E FF88                movea.l    A0, [A6 - 0x78]
00001A3A  2050                     movea.l    A0, [A0]
00001A3C  2D50 FF94                move.l     [A6 - 0x6C], [A0]
00001A40  42A7                     clr.l      -[A7]
00001A42  2F2E FF94                move.l     -[A7], [A6 - 0x6C]
00001A46  4EAD 18DA                jsr        [A5 + 0x18DA /* export_791, CODE:16 @ 00000896 */]
00001A4A  2D5F FF90                move.l     [A6 - 0x70], [A7]+
00001A4E  6742                     beq        +0x44 /* 00001A92 */
00001A50  206E FF88                movea.l    A0, [A6 - 0x78]
00001A54  2F10                     move.l     -[A7], [A0]
00001A56  206E FF90                movea.l    A0, [A6 - 0x70]
00001A5A  2F10                     move.l     -[A7], [A0]
00001A5C  2F2E FF94                move.l     -[A7], [A6 - 0x6C]
00001A60  4EAD 19B2                jsr        [A5 + 0x19B2 /* export_818, CODE:16 @ 000010BE */]
00001A64  7000                     moveq.l    D0, 0x00
00001A66  2F00                     move.l     -[A7], D0
00001A68  4267                     clr.w      -[A7]
00001A6A  A861                     syscall    Random
00001A6C  321F                     move.w     D1, [A7]+
00001A6E  201F                     move.l     D0, [A7]+
00001A70  3001                     move.w     D0, D1
00001A72  C0BC 0000 00FF           and.l      D0, 0xFF
00001A78  2D40 FF9C                move.l     [A6 - 0x64], D0
00001A7C  D0BC 0000 0C00           add.l      D0, 0xC00
00001A82  2D40 FFA0                move.l     [A6 - 0x60], D0
00001A86  206E FF90                movea.l    A0, [A6 - 0x70]
00001A8A  2050                     movea.l    A0, [A0]
00001A8C  216E FFA0 0008           move.l     [A0 + 0x8], [A6 - 0x60]
label00001A92:
00001A92  2F2E FF8C                move.l     -[A7], [A6 - 0x74]
00001A96  4267                     clr.w      -[A7]
00001A98  4EAD 1EEA                jsr        [A5 + 0x1EEA /* export_985, CODE:19 @ 00000432 */]
label00001A9C:
00001A9C  206E FFB8                movea.l    A0, [A6 - 0x48]
00001AA0  2050                     movea.l    A0, [A0]
00001AA2  2D50 FFC0                move.l     [A6 - 0x40], [A0]
00001AA6  42A7                     clr.l      -[A7]
00001AA8  2F2E FFC0                move.l     -[A7], [A6 - 0x40]
00001AAC  4EAD 18DA                jsr        [A5 + 0x18DA /* export_791, CODE:16 @ 00000896 */]
00001AB0  2D5F FFBC                move.l     [A6 - 0x44], [A7]+
00001AB4  660A                     bne        +0xC /* 00001AC0 */
00001AB6  2F3C 0000 AD90           move.l     -[A7], 0xAD90
00001ABC  4EAD 185A                jsr        [A5 + 0x185A /* export_775, CODE:16 @ 0000042E */]
label00001AC0:
00001AC0  206E FFB8                movea.l    A0, [A6 - 0x48]
00001AC4  2F10                     move.l     -[A7], [A0]
00001AC6  206E FFBC                movea.l    A0, [A6 - 0x44]
00001ACA  2F10                     move.l     -[A7], [A0]
00001ACC  2F2E FFC0                move.l     -[A7], [A6 - 0x40]
00001AD0  4EAD 19B2                jsr        [A5 + 0x19B2 /* export_818, CODE:16 @ 000010BE */]
00001AD4  206E FFBC                movea.l    A0, [A6 - 0x44]
00001AD8  2050                     movea.l    A0, [A0]
00001ADA  2D48 F8B4                move.l     [A6 - 0x74C], A0
00001ADE  216E FFCC 0008           move.l     [A0 + 0x8], [A6 - 0x34]
00001AE4  206E F8B4                movea.l    A0, [A6 - 0x74C]
00001AE8  216E FFA0 000C           move.l     [A0 + 0xC], [A6 - 0x60]
00001AEE  206E F8B4                movea.l    A0, [A6 - 0x74C]
00001AF2  7001                     moveq.l    D0, 0x01
00001AF4  2140 0014                move.l     [A0 + 0x14], D0
00001AF8  206E F8B4                movea.l    A0, [A6 - 0x74C]
00001AFC  216E FFCC 0018           move.l     [A0 + 0x18], [A6 - 0x34]
00001B02  206E F8B4                movea.l    A0, [A6 - 0x74C]
00001B06  216E FFCC 001C           move.l     [A0 + 0x1C], [A6 - 0x34]
00001B0C  2F2D F622                move.l     -[A7], [A5 - 0x9DE]
00001B10  4267                     clr.w      -[A7]
00001B12  4EAD 1EE2                jsr        [A5 + 0x1EE2 /* export_984, CODE:19 @ 00000414 */]
00001B16  2D6D F67C FF70           move.l     [A6 - 0x90], [A5 - 0x984]
00001B1C  42A7                     clr.l      -[A7]
00001B1E  2F2E FF70                move.l     -[A7], [A6 - 0x90]
00001B22  2F3A 0780                move.l     -[A7], [PC + 0x780 /* 000022A4, value 0x50524E54 'PRNT', cstring "PRNTSTAKWILD" */]
00001B26  4EAD 1F8A                jsr        [A5 + 0x1F8A /* export_1005, CODE:19 @ 00001926 */]
00001B2A  2D5F FF6C                move.l     [A6 - 0x94], [A7]+
00001B2E  6764                     beq        +0x66 /* 00001B94 */
00001B30  206E FF6C                movea.l    A0, [A6 - 0x94]
00001B34  2050                     movea.l    A0, [A0]
00001B36  2D50 FF78                move.l     [A6 - 0x88], [A0]
00001B3A  42A7                     clr.l      -[A7]
00001B3C  2F2E FF78                move.l     -[A7], [A6 - 0x88]
00001B40  4EAD 18DA                jsr        [A5 + 0x18DA /* export_791, CODE:16 @ 00000896 */]
00001B44  2D5F FF74                move.l     [A6 - 0x8C], [A7]+
00001B48  206E FF6C                movea.l    A0, [A6 - 0x94]
00001B4C  2F10                     move.l     -[A7], [A0]
00001B4E  206E FF74                movea.l    A0, [A6 - 0x8C]
00001B52  2F10                     move.l     -[A7], [A0]
00001B54  2F2E FF78                move.l     -[A7], [A6 - 0x88]
00001B58  4EAD 19B2                jsr        [A5 + 0x19B2 /* export_818, CODE:16 @ 000010BE */]
00001B5C  7000                     moveq.l    D0, 0x00
00001B5E  2F00                     move.l     -[A7], D0
00001B60  4267                     clr.w      -[A7]
00001B62  A861                     syscall    Random
00001B64  321F                     move.w     D1, [A7]+
00001B66  201F                     move.l     D0, [A7]+
00001B68  3001                     move.w     D0, D1
00001B6A  C0BC 0000 00FF           and.l      D0, 0xFF
00001B70  2D40 FF80                move.l     [A6 - 0x80], D0
00001B74  D0BC 0000 0D00           add.l      D0, 0xD00 /* '\r\0' */
00001B7A  2D40 FF84                move.l     [A6 - 0x7C], D0
00001B7E  206E FF74                movea.l    A0, [A6 - 0x8C]
00001B82  2050                     movea.l    A0, [A0]
00001B84  216E FF84 0008           move.l     [A0 + 0x8], [A6 - 0x7C]
00001B8A  2F2E FF70                move.l     -[A7], [A6 - 0x90]
00001B8E  4267                     clr.w      -[A7]
00001B90  4EAD 1F02                jsr        [A5 + 0x1F02 /* export_988, CODE:19 @ 000004D6 */]
label00001B94:
00001B94  6000 0082                bra        +0x84 /* 00001C18 */
label00001B98:
00001B98  42A7                     clr.l      -[A7]
00001B9A  7030                     moveq.l    D0, 0x30
00001B9C  2F00                     move.l     -[A7], D0
00001B9E  4EAD 18EA                jsr        [A5 + 0x18EA /* export_793, CODE:16 @ 000008E4 */]
00001BA2  2D5F FFC0                move.l     [A6 - 0x40], [A7]+
00001BA6  42A7                     clr.l      -[A7]
00001BA8  2F2E FFC0                move.l     -[A7], [A6 - 0x40]
00001BAC  4EAD 18DA                jsr        [A5 + 0x18DA /* export_791, CODE:16 @ 00000896 */]
00001BB0  2D5F FFBC                move.l     [A6 - 0x44], [A7]+
00001BB4  206E FFBC                movea.l    A0, [A6 - 0x44]
00001BB8  2F10                     move.l     -[A7], [A0]
00001BBA  2F2E FFC0                move.l     -[A7], [A6 - 0x40]
00001BBE  4EAD 1B42                jsr        [A5 + 0x1B42 /* export_868, CODE:16 @ 00001E7C */]
00001BC2  206E FFBC                movea.l    A0, [A6 - 0x44]
00001BC6  2050                     movea.l    A0, [A0]
00001BC8  2D48 F8B0                move.l     [A6 - 0x750], A0
00001BCC  20AE FFC0                move.l     [A0], [A6 - 0x40]
00001BD0  206E F8B0                movea.l    A0, [A6 - 0x750]
00001BD4  217C 424B 4744 0004      move.l     [A0 + 0x4], 0x424B4744 /* 'BKGD' */
00001BDC  206E F8B0                movea.l    A0, [A6 - 0x750]
00001BE0  216E FFCC 0008           move.l     [A0 + 0x8], [A6 - 0x34]
00001BE6  206E F8B0                movea.l    A0, [A6 - 0x750]
00001BEA  7000                     moveq.l    D0, 0x00
00001BEC  2140 000C                move.l     [A0 + 0xC], D0
00001BF0  206E F8B0                movea.l    A0, [A6 - 0x750]
00001BF4  7000                     moveq.l    D0, 0x00
00001BF6  2140 0010                move.l     [A0 + 0x10], D0
00001BFA  206E F8B0                movea.l    A0, [A6 - 0x750]
00001BFE  7001                     moveq.l    D0, 0x01
00001C00  2140 0014                move.l     [A0 + 0x14], D0
00001C04  206E F8B0                movea.l    A0, [A6 - 0x750]
00001C08  216E FFCC 0018           move.l     [A0 + 0x18], [A6 - 0x34]
00001C0E  206E F8B0                movea.l    A0, [A6 - 0x750]
00001C12  216E FFCC 001C           move.l     [A0 + 0x1C], [A6 - 0x34]
label00001C18:
00001C18  42A7                     clr.l      -[A7]
00001C1A  7034                     moveq.l    D0, 0x34
00001C1C  2F00                     move.l     -[A7], D0
00001C1E  4EAD 18EA                jsr        [A5 + 0x18EA /* export_793, CODE:16 @ 000008E4 */]
00001C22  2D5F FFA8                move.l     [A6 - 0x58], [A7]+
00001C26  42A7                     clr.l      -[A7]
00001C28  2F2E FFA8                move.l     -[A7], [A6 - 0x58]
00001C2C  4EAD 18DA                jsr        [A5 + 0x18DA /* export_791, CODE:16 @ 00000896 */]
00001C30  2D5F FFA4                move.l     [A6 - 0x5C], [A7]+
00001C34  206E FFA4                movea.l    A0, [A6 - 0x5C]
00001C38  2F10                     move.l     -[A7], [A0]
00001C3A  2F2E FFA8                move.l     -[A7], [A6 - 0x58]
00001C3E  4EAD 1B42                jsr        [A5 + 0x1B42 /* export_868, CODE:16 @ 00001E7C */]
00001C42  206E FFA4                movea.l    A0, [A6 - 0x5C]
00001C46  2050                     movea.l    A0, [A0]
00001C48  2D48 F8AC                move.l     [A6 - 0x754], A0
00001C4C  20AE FFA8                move.l     [A0], [A6 - 0x58]
00001C50  206E F8AC                movea.l    A0, [A6 - 0x754]
00001C54  217C 4341 5244 0004      move.l     [A0 + 0x4], 0x43415244 /* 'CARD' */
00001C5C  206E F8AC                movea.l    A0, [A6 - 0x754]
00001C60  216E FFB4 0008           move.l     [A0 + 0x8], [A6 - 0x4C]
00001C66  206E F8AC                movea.l    A0, [A6 - 0x754]
00001C6A  7000                     moveq.l    D0, 0x00
00001C6C  2140 000C                move.l     [A0 + 0xC], D0
00001C70  206E F8AC                movea.l    A0, [A6 - 0x754]
00001C74  7000                     moveq.l    D0, 0x00
00001C76  2140 0010                move.l     [A0 + 0x10], D0
00001C7A  206E F8AC                movea.l    A0, [A6 - 0x754]
00001C7E  7000                     moveq.l    D0, 0x00
00001C80  2140 0014                move.l     [A0 + 0x14], D0
00001C84  206E F8AC                movea.l    A0, [A6 - 0x754]
00001C88  7000                     moveq.l    D0, 0x00
00001C8A  2140 0018                move.l     [A0 + 0x18], D0
00001C8E  206E F8AC                movea.l    A0, [A6 - 0x754]
00001C92  216E FFE4 001C           move.l     [A0 + 0x1C], [A6 - 0x1C]
00001C98  206E F8AC                movea.l    A0, [A6 - 0x754]
00001C9C  216E FFCC 0020           move.l     [A0 + 0x20], [A6 - 0x34]
00001CA2  7001                     moveq.l    D0, 0x01
00001CA4  2D40 FADA                move.l     [A6 - 0x526], D0
00001CA8  102D DC55                move.b     D0, [A5 - 0x23AB]
00001CAC  6714                     beq        +0x16 /* 00001CC2 */
00001CAE  42A7                     clr.l      -[A7]
00001CB0  206D F636                movea.l    A0, [A5 - 0x9CA]
00001CB4  2F10                     move.l     -[A7], [A0]
00001CB6  4EAD 1ADA                jsr        [A5 + 0x1ADA /* export_855, CODE:16 @ 00001C66 */]
00001CBA  201F                     move.l     D0, [A7]+
00001CBC  5280                     addq.l     D0, 1
00001CBE  2D40 FADA                move.l     [A6 - 0x526], D0
label00001CC2:
00001CC2  202E FADA                move.l     D0, [A6 - 0x526]
00001CC6  D0BC 0000 0600           add.l      D0, 0x600
00001CCC  D0BC 0000 01FF           add.l      D0, 0x1FF
00001CD2  C0BC FFFF FE00           and.l      D0, 0xFFFFFE00
00001CD8  2D40 FF68                move.l     [A6 - 0x98], D0
00001CDC  42A7                     clr.l      -[A7]
00001CDE  2F2E FF68                move.l     -[A7], [A6 - 0x98]
00001CE2  4EAD 18DA                jsr        [A5 + 0x18DA /* export_791, CODE:16 @ 00000896 */]
00001CE6  2D5F FADE                move.l     [A6 - 0x522], [A7]+
00001CEA  206E FADE                movea.l    A0, [A6 - 0x522]
00001CEE  2F10                     move.l     -[A7], [A0]
00001CF0  2F2E FF68                move.l     -[A7], [A6 - 0x98]
00001CF4  4EAD 1B42                jsr        [A5 + 0x1B42 /* export_868, CODE:16 @ 00001E7C */]
00001CF8  102D DC55                move.b     D0, [A5 - 0x23AB]
00001CFC  6722                     beq        +0x24 /* 00001D20 */
00001CFE  206E FADE                movea.l    A0, [A6 - 0x522]
00001D02  2010                     move.l     D0, [A0]
00001D04  D0BC 0000 0600           add.l      D0, 0x600
00001D0A  2D40 FAD6                move.l     [A6 - 0x52A], D0
00001D0E  206D F636                movea.l    A0, [A5 - 0x9CA]
00001D12  2F10                     move.l     -[A7], [A0]
00001D14  2F2E FAD6                move.l     -[A7], [A6 - 0x52A]
00001D18  2F2E FADA                move.l     -[A7], [A6 - 0x526]
00001D1C  4EAD 024A                jsr        [A5 + 0x24A /* export_69, CODE:1 @ 000046A6 */]
label00001D20:
00001D20  2D6E FADE FF64           move.l     [A6 - 0x9C], [A6 - 0x522]
00001D26  2F2E FF64                move.l     -[A7], [A6 - 0x9C]
00001D2A  4EAD 0222                jsr        [A5 + 0x222 /* export_64, CODE:1 @ 00004678 */]
00001D2E  206E FF64                movea.l    A0, [A6 - 0x9C]
00001D32  2050                     movea.l    A0, [A0]
00001D34  2D48 F8A8                move.l     [A6 - 0x758], A0
00001D38  20AE FF68                move.l     [A0], [A6 - 0x98]
00001D3C  206E F8A8                movea.l    A0, [A6 - 0x758]
00001D40  217C 5354 414B 0004      move.l     [A0 + 0x4], 0x5354414B /* 'STAK' */
00001D48  206E F8A8                movea.l    A0, [A6 - 0x758]
00001D4C  70FF                     moveq.l    D0, 0xFFFFFFFF
00001D4E  2140 0008                move.l     [A0 + 0x8], D0
00001D52  206E F8A8                movea.l    A0, [A6 - 0x758]
00001D56  7008                     moveq.l    D0, 0x08
00001D58  2140 0010                move.l     [A0 + 0x10], D0
00001D5C  202E FF68                move.l     D0, [A6 - 0x98]
00001D60  D0BC 0000 0200           add.l      D0, 0x200
00001D66  222E FFF0                move.l     D1, [A6 - 0x10]
00001D6A  D280                     add.l      D1, D0
00001D6C  202E FFD8                move.l     D0, [A6 - 0x28]
00001D70  D081                     add.l      D0, D1
00001D72  222E FFC0                move.l     D1, [A6 - 0x40]
00001D76  D280                     add.l      D1, D0
00001D78  202E FFA8                move.l     D0, [A6 - 0x58]
00001D7C  D081                     add.l      D0, D1
00001D7E  222E FF94                move.l     D1, [A6 - 0x6C]
00001D82  D280                     add.l      D1, D0
00001D84  202E FF78                move.l     D0, [A6 - 0x88]
00001D88  D081                     add.l      D0, D1
00001D8A  7220                     moveq.l    D1, 0x20
00001D8C  D081                     add.l      D0, D1
00001D8E  206E F8A8                movea.l    A0, [A6 - 0x758]
00001D92  2140 0014                move.l     [A0 + 0x14], D0
00001D96  206E F8A8                movea.l    A0, [A6 - 0x758]
00001D9A  226E F8A8                movea.l    A1, [A6 - 0x758]
00001D9E  2350 0018                move.l     [A1 + 0x18], [A0]
00001DA2  206E F8A8                movea.l    A0, [A6 - 0x758]
00001DA6  7000                     moveq.l    D0, 0x00
00001DA8  2140 001C                move.l     [A0 + 0x1C], D0
00001DAC  206E F8A8                movea.l    A0, [A6 - 0x758]
00001DB0  7000                     moveq.l    D0, 0x00
00001DB2  2140 0020                move.l     [A0 + 0x20], D0
00001DB6  206E F8A8                movea.l    A0, [A6 - 0x758]
00001DBA  7001                     moveq.l    D0, 0x01
00001DBC  2140 0024                move.l     [A0 + 0x24], D0
00001DC0  206E F8A8                movea.l    A0, [A6 - 0x758]
00001DC4  216E FFCC 0028           move.l     [A0 + 0x28], [A6 - 0x34]
00001DCA  206E F8A8                movea.l    A0, [A6 - 0x758]
00001DCE  7001                     moveq.l    D0, 0x01
00001DD0  2140 002C                move.l     [A0 + 0x2C], D0
00001DD4  206E F8A8                movea.l    A0, [A6 - 0x758]
00001DD8  216E FFB4 0030           move.l     [A0 + 0x30], [A6 - 0x4C]
00001DDE  206E F8A8                movea.l    A0, [A6 - 0x758]
00001DE2  216E FFFC 0034           move.l     [A0 + 0x34], [A6 - 0x4]
00001DE8  206E F8A8                movea.l    A0, [A6 - 0x758]
00001DEC  216E FF84 0040           move.l     [A0 + 0x40], [A6 - 0x7C]
00001DF2  206E F8A8                movea.l    A0, [A6 - 0x758]
00001DF6  08E8 0004 004C           bset.b     [A0 + 0x4C], 0x4
00001DFC  206E F8A8                movea.l    A0, [A6 - 0x758]
00001E00  216D F4BE 0060           move.l     [A0 + 0x60], [A5 - 0xB42]
00001E06  206E F8A8                movea.l    A0, [A6 - 0x758]
00001E0A  216D F4BE 0064           move.l     [A0 + 0x64], [A5 - 0xB42]
00001E10  206E F8A8                movea.l    A0, [A6 - 0x758]
00001E14  216D F4BE 0068           move.l     [A0 + 0x68], [A5 - 0xB42]
00001E1A  206E F8A8                movea.l    A0, [A6 - 0x758]
00001E1E  216D F4BE 006C           move.l     [A0 + 0x6C], [A5 - 0xB42]
00001E24  102D DC55                move.b     D0, [A5 - 0x23AB]
00001E28  6716                     beq        +0x18 /* 00001E40 */
00001E2A  206E F8A8                movea.l    A0, [A6 - 0x758]
00001E2E  41E8 02C0                lea.l      A0, [A0 + 0x2C0]
00001E32  43ED F8FC                lea.l      A1, [A5 - 0x704]
00001E36  704F                     moveq.l    D0, 0x4F
label00001E38:
00001E38  20D9                     move.l     [A0]+, [A1]+
00001E3A  51C8 FFFC                dbf        D0, -0x6 /* 00001E38 */
00001E3E  602C                     bra        +0x2E /* 00001E6C */
label00001E40:
00001E40  42A7                     clr.l      -[A7]
00001E42  2F3A 045C                move.l     -[A7], [PC + 0x45C /* 000022A0, value 0x50415423 'PAT#', cstring "PAT#PRNTSTAKWILD" */]
00001E46  3F3C 0001                move.w     -[A7], 0x1
00001E4A  4EAD 1892                jsr        [A5 + 0x1892 /* export_782, CODE:16 @ 000005A6 */]
00001E4E  2D5F FAD2                move.l     [A6 - 0x52E], [A7]+
00001E52  206E FAD2                movea.l    A0, [A6 - 0x52E]
00001E56  2010                     move.l     D0, [A0]
00001E58  5480                     addq.l     D0, 2
00001E5A  2F00                     move.l     -[A7], D0
00001E5C  206E F8A8                movea.l    A0, [A6 - 0x758]
00001E60  4868 02C0                pea.l      [A0 + 0x2C0]
00001E64  7050                     moveq.l    D0, 0x50
00001E66  2F00                     move.l     -[A7], D0
00001E68  4EAD 19BA                jsr        [A5 + 0x19BA /* export_819, CODE:16 @ 000010F8 */]
label00001E6C:
00001E6C  206E F8A8                movea.l    A0, [A6 - 0x758]
00001E70  226E F8A8                movea.l    A1, [A6 - 0x758]
00001E74  48E7 00C0                movem.l    -[A7], A0,A1
00001E78  42A7                     clr.l      -[A7]
00001E7A  246E FF64                movea.l    A2, [A6 - 0x9C]
00001E7E  2F12                     move.l     -[A7], [A2]
00001E80  2F3C 0000 0180           move.l     -[A7], 0x180
00001E86  4EAD 1AFA                jsr        [A5 + 0x1AFA /* export_859, CODE:16 @ 00001D2A */]
00001E8A  201F                     move.l     D0, [A7]+
00001E8C  4CDF 0300                movem.l    A0,A1, [A7]+
00001E90  2229 000C                move.l     D1, [A1 + 0xC]
00001E94  9280                     sub.l      D1, D0
00001E96  2141 000C                move.l     [A0 + 0xC], D1
00001E9A  2F2E FF64                move.l     -[A7], [A6 - 0x9C]
00001E9E  4EAD 022A                jsr        [A5 + 0x22A /* export_65, CODE:1 @ 00004682 */]
00001EA2  206E FF64                movea.l    A0, [A6 - 0x9C]
00001EA6  2050                     movea.l    A0, [A0]
00001EA8  2028 0018                move.l     D0, [A0 + 0x18]
00001EAC  D0BC 0000 0200           add.l      D0, 0x200
00001EB2  2D40 FFF4                move.l     [A6 - 0xC], D0
00001EB6  206E FFEC                movea.l    A0, [A6 - 0x14]
00001EBA  2050                     movea.l    A0, [A0]
00001EBC  2010                     move.l     D0, [A0]
00001EBE  D0AE FFF4                add.l      D0, [A6 - 0xC]
00001EC2  2D40 FFDC                move.l     [A6 - 0x24], D0
00001EC6  206E FFD4                movea.l    A0, [A6 - 0x2C]
00001ECA  2050                     movea.l    A0, [A0]
00001ECC  2010                     move.l     D0, [A0]
00001ECE  D0AE FFDC                add.l      D0, [A6 - 0x24]
00001ED2  2D40 FFC4                move.l     [A6 - 0x3C], D0
00001ED6  206E FFBC                movea.l    A0, [A6 - 0x44]
00001EDA  2050                     movea.l    A0, [A0]
00001EDC  2010                     move.l     D0, [A0]
00001EDE  D0AE FFC4                add.l      D0, [A6 - 0x3C]
00001EE2  2D40 FFAC                move.l     [A6 - 0x54], D0
00001EE6  206E FFA4                movea.l    A0, [A6 - 0x5C]
00001EEA  2050                     movea.l    A0, [A0]
00001EEC  2010                     move.l     D0, [A0]
00001EEE  D0AE FFAC                add.l      D0, [A6 - 0x54]
00001EF2  2D40 FF98                move.l     [A6 - 0x68], D0
00001EF6  202E FF94                move.l     D0, [A6 - 0x6C]
00001EFA  D0AE FF98                add.l      D0, [A6 - 0x68]
00001EFE  2D40 FF7C                move.l     [A6 - 0x84], D0
00001F02  486E FD64                pea.l      [A6 - 0x29C]
00001F06  2F3C 0000 0080           move.l     -[A7], 0x80
00001F0C  4EAD 1B4A                jsr        [A5 + 0x1B4A /* export_869, CODE:16 @ 00001E9C */]
00001F10  2D7C 0000 0200 FD64      move.l     [A6 - 0x29C], 0x200
00001F18  2D7C 4D41 5354 FD68      move.l     [A6 - 0x298], 0x4D415354 /* 'MAST' */
00001F20  70FF                     moveq.l    D0, 0xFFFFFFFF
00001F22  2D40 FD6C                move.l     [A6 - 0x294], D0
00001F26  202E FFF4                move.l     D0, [A6 - 0xC]
00001F2A  EA88                     lsr        D0, 5
00001F2C  E180                     asl        D0, 8
00001F2E  D0AE FFF8                add.l      D0, [A6 - 0x8]
00001F32  2D40 FD84                move.l     [A6 - 0x27C], D0
00001F36  202E FFDC                move.l     D0, [A6 - 0x24]
00001F3A  EA88                     lsr        D0, 5
00001F3C  E180                     asl        D0, 8
00001F3E  D0AE FFE0                add.l      D0, [A6 - 0x20]
00001F42  2D40 FD88                move.l     [A6 - 0x278], D0
00001F46  202E FFC4                move.l     D0, [A6 - 0x3C]
00001F4A  EA88                     lsr        D0, 5
00001F4C  E180                     asl        D0, 8
00001F4E  D0AE FFC8                add.l      D0, [A6 - 0x38]
00001F52  2D40 FD8C                move.l     [A6 - 0x274], D0
00001F56  202E FFAC                move.l     D0, [A6 - 0x54]
00001F5A  EA88                     lsr        D0, 5
00001F5C  E180                     asl        D0, 8
00001F5E  D0AE FFB0                add.l      D0, [A6 - 0x50]
00001F62  2D40 FD90                move.l     [A6 - 0x270], D0
00001F66  4AAE FFA0                tst.l      [A6 - 0x60]
00001F6A  6710                     beq        +0x12 /* 00001F7C */
00001F6C  202E FF98                move.l     D0, [A6 - 0x68]
00001F70  EA88                     lsr        D0, 5
00001F72  E180                     asl        D0, 8
00001F74  D0AE FF9C                add.l      D0, [A6 - 0x64]
00001F78  2D40 FD94                move.l     [A6 - 0x26C], D0
label00001F7C:
00001F7C  4AAE FF84                tst.l      [A6 - 0x7C]
00001F80  6710                     beq        +0x12 /* 00001F92 */
00001F82  202E FF7C                move.l     D0, [A6 - 0x84]
00001F86  EA88                     lsr        D0, 5
00001F88  E180                     asl        D0, 8
00001F8A  D0AE FF80                add.l      D0, [A6 - 0x80]
00001F8E  2D40 FD98                move.l     [A6 - 0x268], D0
label00001F92:
00001F92  486E FD44                pea.l      [A6 - 0x2BC]
00001F96  7008                     moveq.l    D0, 0x08
00001F98  2F00                     move.l     -[A7], D0
00001F9A  4EAD 1B4A                jsr        [A5 + 0x1B4A /* export_869, CODE:16 @ 00001E9C */]
00001F9E  7020                     moveq.l    D0, 0x20
00001FA0  2D40 FD44                move.l     [A6 - 0x2BC], D0
00001FA4  2D7C 5441 494C FD48      move.l     [A6 - 0x2B8], 0x5441494C /* 'TAIL' */
00001FAC  70FF                     moveq.l    D0, 0xFFFFFFFF
00001FAE  2D40 FD4C                move.l     [A6 - 0x2B4], D0
00001FB2  41EE FD50                lea.l      A0, [A6 - 0x2B0]
00001FB6  43FA 02D4                lea.l      A1, [PC + 0x2D4 /* 0000228C, value 0x13546861, pstring "That\'s all folks..." */]
00001FBA  7004                     moveq.l    D0, 0x04
label00001FBC:
00001FBC  20D9                     move.l     [A0]+, [A1]+
00001FBE  51C8 FFFC                dbf        D0, -0x6 /* 00001FBC */
00001FC2  7000                     moveq.l    D0, 0x00
00001FC4  2D40 FCE2                move.l     [A6 - 0x31E], D0
00001FC8  2F2E FF68                move.l     -[A7], [A6 - 0x98]
00001FCC  206E FF64                movea.l    A0, [A6 - 0x9C]
00001FD0  2F10                     move.l     -[A7], [A0]
00001FD2  2F0E                     move.l     -[A7], A6
00001FD4  4EBA F69C                jsr        [PC - 0x964 /* 00001672 */]
00001FD8  2F3C 0000 0200           move.l     -[A7], 0x200
00001FDE  486E FD64                pea.l      [A6 - 0x29C]
00001FE2  2F0E                     move.l     -[A7], A6
00001FE4  4EBA F68C                jsr        [PC - 0x974 /* 00001672 */]
00001FE8  2F2E FFF0                move.l     -[A7], [A6 - 0x10]
00001FEC  206E FFEC                movea.l    A0, [A6 - 0x14]
00001FF0  2F10                     move.l     -[A7], [A0]
00001FF2  2F0E                     move.l     -[A7], A6
00001FF4  4EBA F67C                jsr        [PC - 0x984 /* 00001672 */]
00001FF8  2F2E FFD8                move.l     -[A7], [A6 - 0x28]
00001FFC  206E FFD4                movea.l    A0, [A6 - 0x2C]
00002000  2F10                     move.l     -[A7], [A0]
00002002  2F0E                     move.l     -[A7], A6
00002004  4EBA F66C                jsr        [PC - 0x994 /* 00001672 */]
00002008  2F2E FFC0                move.l     -[A7], [A6 - 0x40]
0000200C  206E FFBC                movea.l    A0, [A6 - 0x44]
00002010  2F10                     move.l     -[A7], [A0]
00002012  2F0E                     move.l     -[A7], A6
00002014  4EBA F65C                jsr        [PC - 0x9A4 /* 00001672 */]
00002018  2F2E FFA8                move.l     -[A7], [A6 - 0x58]
0000201C  206E FFA4                movea.l    A0, [A6 - 0x5C]
00002020  2F10                     move.l     -[A7], [A0]
00002022  2F0E                     move.l     -[A7], A6
00002024  4EBA F64C                jsr        [PC - 0x9B4 /* 00001672 */]
00002028  4AAE FF90                tst.l      [A6 - 0x70]
0000202C  671E                     beq        +0x20 /* 0000204C */
0000202E  2F2E FF94                move.l     -[A7], [A6 - 0x6C]
00002032  206E FF90                movea.l    A0, [A6 - 0x70]
00002036  2F10                     move.l     -[A7], [A0]
00002038  2F0E                     move.l     -[A7], A6
0000203A  4EBA F636                jsr        [PC - 0x9CA /* 00001672 */]
0000203E  2F2E FF90                move.l     -[A7], [A6 - 0x70]
00002042  4EAD 18D2                jsr        [A5 + 0x18D2 /* export_790, CODE:16 @ 0000083E */]
00002046  7000                     moveq.l    D0, 0x00
00002048  2D40 FF90                move.l     [A6 - 0x70], D0
label0000204C:
0000204C  4AAE FF84                tst.l      [A6 - 0x7C]
00002050  6710                     beq        +0x12 /* 00002062 */
00002052  2F2E FF78                move.l     -[A7], [A6 - 0x88]
00002056  206E FF74                movea.l    A0, [A6 - 0x8C]
0000205A  2F10                     move.l     -[A7], [A0]
0000205C  2F0E                     move.l     -[A7], A6
0000205E  4EBA F612                jsr        [PC - 0x9EE /* 00001672 */]
label00002062:
00002062  7020                     moveq.l    D0, 0x20
00002064  2F00                     move.l     -[A7], D0
00002066  486E FD44                pea.l      [A6 - 0x2BC]
0000206A  2F0E                     move.l     -[A7], A6
0000206C  4EBA F604                jsr        [PC - 0x9FC /* 00001672 */]
00002070  102E FAC1                move.b     D0, [A6 - 0x53F]
00002074  6734                     beq        +0x36 /* 000020AA */
00002076  4267                     clr.w      -[A7]
00002078  486E FD02                pea.l      [A6 - 0x2FE]
0000207C  3F2E FCFE                move.w     -[A7], [A6 - 0x302]
00002080  486E FACE                pea.l      [A6 - 0x532]
00002084  4EAD 0342                jsr        [A5 + 0x342 /* export_100, CODE:1 @ 00004A10 */]
00002088  3D5F FD42                move.w     [A6 - 0x2BE], [A7]+
0000208C  4267                     clr.w      -[A7]
0000208E  3F2E FACE                move.w     -[A7], [A6 - 0x532]
00002092  42A7                     clr.l      -[A7]
00002094  4EAD 035A                jsr        [A5 + 0x35A /* export_103, CODE:1 @ 00004AAA */]
00002098  3D5F FD42                move.w     [A6 - 0x2BE], [A7]+
0000209C  4267                     clr.w      -[A7]
0000209E  3F2E FACE                move.w     -[A7], [A6 - 0x532]
000020A2  4EAD 02F2                jsr        [A5 + 0x2F2 /* export_90, CODE:1 @ 0000486A */]
000020A6  3D5F FD42                move.w     [A6 - 0x2BE], [A7]+
label000020AA:
000020AA  70FF                     moveq.l    D0, 0xFFFFFFFF
000020AC  B06D FC42                cmp.w      D0, [A5 - 0x3BE]
000020B0  56C0                     sne        D0
000020B2  C02D DC55                and.b      D0, [A5 - 0x23AB]
000020B6  6700 00F0                beq        +0xF2 /* 000021A8 */
000020BA  42A7                     clr.l      -[A7]
000020BC  4EAD 1F4A                jsr        [A5 + 0x1F4A /* export_997, CODE:19 @ 00001378 */]
000020C0  201F                     move.l     D0, [A7]+
000020C2  90BC 0000 2000           sub.l      D0, 0x2000 /* ' \0' */
000020C8  2D40 FACA                move.l     [A6 - 0x536], D0
000020CC  0CAE 0000 0400 FACA      cmpi.l     [A6 - 0x536], 0x400
000020D4  6C08                     bge        +0xA /* 000020DE */
000020D6  4EAD 1812                jsr        [A5 + 0x1812 /* export_766, CODE:16 @ 00000208 */]
000020DA  6000 00CC                bra        +0xCE /* 000021A8 */
label000020DE:
000020DE  202E FACA                move.l     D0, [A6 - 0x536]
000020E2  C0BC FFFF FC00           and.l      D0, 0xFFFFFC00
000020E8  2D40 FACA                move.l     [A6 - 0x536], D0
000020EC  42A7                     clr.l      -[A7]
000020EE  2F2E FACA                move.l     -[A7], [A6 - 0x536]
000020F2  4EAD 18DA                jsr        [A5 + 0x18DA /* export_791, CODE:16 @ 00000896 */]
000020F6  2D5F FAC6                move.l     [A6 - 0x53A], [A7]+
000020FA  4267                     clr.w      -[A7]
000020FC  486E FD02                pea.l      [A6 - 0x2FE]
00002100  3F2E FCFE                move.w     -[A7], [A6 - 0x302]
00002104  486E FACE                pea.l      [A6 - 0x532]
00002108  4EAD 0342                jsr        [A5 + 0x342 /* export_100, CODE:1 @ 00004A10 */]
0000210C  3D5F FD42                move.w     [A6 - 0x2BE], [A7]+
00002110  4267                     clr.w      -[A7]
00002112  3F2D FC42                move.w     -[A7], [A5 - 0x3BE]
00002116  3F3C 0001                move.w     -[A7], 0x1
0000211A  42A7                     clr.l      -[A7]
0000211C  4EAD 036A                jsr        [A5 + 0x36A /* export_105, CODE:1 @ 00004AF0 */]
00002120  3D5F FD42                move.w     [A6 - 0x2BE], [A7]+
00002124  4267                     clr.w      -[A7]
00002126  3F2E FACE                move.w     -[A7], [A6 - 0x532]
0000212A  3F3C 0001                move.w     -[A7], 0x1
0000212E  42A7                     clr.l      -[A7]
00002130  4EAD 036A                jsr        [A5 + 0x36A /* export_105, CODE:1 @ 00004AF0 */]
00002134  3D5F FD42                move.w     [A6 - 0x2BE], [A7]+
label00002138:
00002138  2D6E FACA FAC2           move.l     [A6 - 0x53E], [A6 - 0x536]
0000213E  2F2E FAC6                move.l     -[A7], [A6 - 0x53A]
00002142  4EAD 0222                jsr        [A5 + 0x222 /* export_64, CODE:1 @ 00004678 */]
00002146  4267                     clr.w      -[A7]
00002148  3F2D FC42                move.w     -[A7], [A5 - 0x3BE]
0000214C  486E FAC2                pea.l      [A6 - 0x53E]
00002150  206E FAC6                movea.l    A0, [A6 - 0x53A]
00002154  2F10                     move.l     -[A7], [A0]
00002156  4EAD 02FA                jsr        [A5 + 0x2FA /* export_91, CODE:1 @ 00004886 */]
0000215A  3D5F FD42                move.w     [A6 - 0x2BE], [A7]+
0000215E  4267                     clr.w      -[A7]
00002160  3F2E FACE                move.w     -[A7], [A6 - 0x532]
00002164  486E FAC2                pea.l      [A6 - 0x53E]
00002168  206E FAC6                movea.l    A0, [A6 - 0x53A]
0000216C  2F10                     move.l     -[A7], [A0]
0000216E  4EAD 0302                jsr        [A5 + 0x302 /* export_92, CODE:1 @ 0000488A */]
00002172  3D5F FD42                move.w     [A6 - 0x2BE], [A7]+
00002176  2F2E FAC6                move.l     -[A7], [A6 - 0x53A]
0000217A  4EAD 022A                jsr        [A5 + 0x22A /* export_65, CODE:1 @ 00004682 */]
0000217E  3F2E FD42                move.w     -[A7], [A6 - 0x2BE]
00002182  2F3C 0000 D902           move.l     -[A7], 0xD902
00002188  4EAD 1832                jsr        [A5 + 0x1832 /* export_770, CODE:16 @ 000002F0 */]
0000218C  4AAE FAC2                tst.l      [A6 - 0x53E]
00002190  66A6                     bne        -0x58 /* 00002138 */
00002192  4267                     clr.w      -[A7]
00002194  3F2E FACE                move.w     -[A7], [A6 - 0x532]
00002198  4EAD 02F2                jsr        [A5 + 0x2F2 /* export_90, CODE:1 @ 0000486A */]
0000219C  3D5F FD42                move.w     [A6 - 0x2BE], [A7]+
000021A0  2F2E FAC6                move.l     -[A7], [A6 - 0x53A]
000021A4  4EAD 01FA                jsr        [A5 + 0x1FA /* export_59, CODE:1 @ 00004636 */]
label000021A8:
000021A8  4267                     clr.w      -[A7]
000021AA  486E FAE2                pea.l      [A6 - 0x51E]
000021AE  4267                     clr.w      -[A7]
000021B0  486E FCE8                pea.l      [A6 - 0x318]
000021B4  4EAD 0312                jsr        [A5 + 0x312 /* export_94, CODE:1 @ 00004908 */]
000021B8  3D5F FD42                move.w     [A6 - 0x2BE], [A7]+
000021BC  2D7C 5354 414B FCE8      move.l     [A6 - 0x318], 0x5354414B /* 'STAK' */
000021C4  2D7C 5749 4C44 FCEC      move.l     [A6 - 0x314], 0x57494C44 /* 'WILD' */
000021CC  4267                     clr.w      -[A7]
000021CE  486E FAE2                pea.l      [A6 - 0x51E]
000021D2  4267                     clr.w      -[A7]
000021D4  486E FCE8                pea.l      [A6 - 0x318]
000021D8  4EAD 034A                jsr        [A5 + 0x34A /* export_101, CODE:1 @ 00004A48 */]
000021DC  3D5F FD42                move.w     [A6 - 0x2BE], [A7]+
000021E0  4267                     clr.w      -[A7]
000021E2  3F2E FCE6                move.w     -[A7], [A6 - 0x31A]
000021E6  4EAD 02F2                jsr        [A5 + 0x2F2 /* export_90, CODE:1 @ 0000486A */]
000021EA  3D5F FD42                move.w     [A6 - 0x2BE], [A7]+
000021EE  1D7C 0001 FAD1           move.b     [A6 - 0x52F], 0x1
label000021F4:
000021F4  4FEE F888                lea.l      A7, [A6 - 0x778]
000021F8  4267                     clr.w      -[A7]
000021FA  42A7                     clr.l      -[A7]
000021FC  3F2E FCFE                move.w     -[A7], [A6 - 0x302]
00002200  4EAD 032A                jsr        [A5 + 0x32A /* export_97, CODE:1 @ 00004986 */]
00002204  3D5F FD42                move.w     [A6 - 0x2BE], [A7]+
00002208  2F2E FF64                move.l     -[A7], [A6 - 0x9C]
0000220C  4EAD 18D2                jsr        [A5 + 0x18D2 /* export_790, CODE:16 @ 0000083E */]
00002210  2F2E FFEC                move.l     -[A7], [A6 - 0x14]
00002214  4EAD 18D2                jsr        [A5 + 0x18D2 /* export_790, CODE:16 @ 0000083E */]
00002218  2F2E FFD4                move.l     -[A7], [A6 - 0x2C]
0000221C  4EAD 18D2                jsr        [A5 + 0x18D2 /* export_790, CODE:16 @ 0000083E */]
00002220  2F2E FFBC                move.l     -[A7], [A6 - 0x44]
00002224  4EAD 18D2                jsr        [A5 + 0x18D2 /* export_790, CODE:16 @ 0000083E */]
00002228  2F2E FFA4                move.l     -[A7], [A6 - 0x5C]
0000222C  4EAD 18D2                jsr        [A5 + 0x18D2 /* export_790, CODE:16 @ 0000083E */]
00002230  4AAE FF90                tst.l      [A6 - 0x70]
00002234  6708                     beq        +0xA /* 0000223E */
00002236  2F2E FF90                move.l     -[A7], [A6 - 0x70]
0000223A  4EAD 18D2                jsr        [A5 + 0x18D2 /* export_790, CODE:16 @ 0000083E */]
label0000223E:
0000223E  4AAE FF84                tst.l      [A6 - 0x7C]
00002242  6708                     beq        +0xA /* 0000224C */
00002244  2F2E FF74                move.l     -[A7], [A6 - 0x8C]
00002248  4EAD 18D2                jsr        [A5 + 0x18D2 /* export_790, CODE:16 @ 0000083E */]
label0000224C:
0000224C  102E FAD1                move.b     D0, [A6 - 0x52F]
00002250  6720                     beq        +0x22 /* 00002272 */
00002252  7001                     moveq.l    D0, 0x01
00002254  2F00                     move.l     -[A7], D0
00002256  486E FAE2                pea.l      [A6 - 0x51E]
0000225A  4EAD 20C2                jsr        [A5 + 0x20C2 /* export_1044, CODE:20 @ 0000133E */]
0000225E  41ED E0E8                lea.l      A0, [A5 - 0x1F18]
00002262  43FA 001E                lea.l      A1, [PC + 0x1E /* 00002282, value 0x86E6577, pstring "newStack" */]
00002266  20D9                     move.l     [A0]+, [A1]+
00002268  20D9                     move.l     [A0]+, [A1]+
0000226A  3091                     move.w     [A0], [A1]
0000226C  4EAD 0B8A                jsr        [A5 + 0xB8A /* export_365, CODE:8 @ 00003F30 */]
00002270  6008                     bra        +0xA /* 0000227A */
label00002272:
00002272  3F3C 0002                move.w     -[A7], 0x2
00002276  4EAD 187A                jsr        [A5 + 0x187A /* export_779, CODE:16 @ 00000500 */]
label0000227A:
0000227A  4CDF 1CF8                movem.l    D3,D4,D5,D6,D7,A2,A3,A4, [A7]+
0000227E  4E5E                     unlink     A6
00002280  4E75                     rts
00002282  086E 6577 5374           bchg.b     [A6 + 0x5374], 0x77 /* 'w' */
00002288  6163                     bsr        +0x65 /* 000022ED */
0000228A  6B00 1354                bmi        +0x1356 /* 000035E0 */
0000228E  6861                     bvc        +0x63 /* 000022F1 */
00002290  7427                     moveq.l    D2, 0x27
00002292  7320                     moveq.l    D1, 0x20
00002294  616C                     bsr        +0x6E /* 00002302 */
00002296  6C20                     bge        +0x22 /* 000022B8 */
00002298  666F                     bne        +0x71 /* 00002309 */
0000229A  6C6B                     bge        +0x6D /* 00002307 */
0000229C  732E                     moveq.l    D1, 0x2E
0000229E  2E2E 5041                move.l     D7, [A6 + 0x5041]
000022A2  5423                     addq.b     -[A3], 2
000022A4  5052                     addq.w     [A2], 8
000022A6  4E54 5354                link       A4, -0xFFFFACAC
000022AA  414B                     chk.w      D0, A3
000022AC  5749                     subq.w     A1, 3
000022AE  4C44 0000                divu.l     D0:D0, D4
000022B2  4E56 FEF2                link       A6, -0x010E
000022B6  3D6E 000C 000E           move.w     [A6 + 0xE], [A6 + 0xC]
// begin alternate branch 000022B8-000022BC
label000022B8:
000022B8  000C 000E                ori.b      A4, 0xE
// end alternate branch 000022B8-000022BC
label000022B8: // (misaligned)
000022BC  70FF                     moveq.l    D0, 0xFFFFFFFF
000022BE  B06E 000C                cmp.w      D0, [A6 + 0xC]
000022C2  6624                     bne        +0x26 /* 000022E8 */
000022C4  2F2E 0008                move.l     -[A7], [A6 + 0x8]
000022C8  3F3C 0009                move.w     -[A7], 0x9 /* '\t' */
000022CC  486E FFFE                pea.l      [A6 - 0x2]
000022D0  486E FFFA                pea.l      [A6 - 0x6]
000022D4  486E FFF2                pea.l      [A6 - 0xE]
000022D8  A98D                     syscall    GetDialogItem/GetDItem
000022DA  2F2E FFFA                move.l     -[A7], [A6 - 0x6]
000022DE  102D DC55                move.b     D0, [A5 - 0x23AB]
000022E2  4880                     ext.w      D0
000022E4  3F00                     move.w     -[A7], D0
000022E6  A963                     syscall    SetControlValue/SetCtlValue
label000022E8:
000022E8  7009                     moveq.l    D0, 0x09
000022EA  B06E 000C                cmp.w      D0, [A6 + 0xC]
000022EE  662A                     bne        +0x2C /* 0000231A */
000022F0  0A2D 0001 DC55           xori.b     [A5 - 0x23AB], 0x1
000022F6  2F2E 0008                move.l     -[A7], [A6 + 0x8]
000022FA  3F3C 0009                move.w     -[A7], 0x9 /* '\t' */
000022FE  486E FFFE                pea.l      [A6 - 0x2]
fn00002302:
00002302  486E FFFA                pea.l      [A6 - 0x6]
00002306  486E FFF2                pea.l      [A6 - 0xE]
0000230A  A98D                     syscall    GetDialogItem/GetDItem
0000230C  2F2E FFFA                move.l     -[A7], [A6 - 0x6]
00002310  102D DC55                move.b     D0, [A5 - 0x23AB]
00002314  4880                     ext.w      D0
00002316  3F00                     move.w     -[A7], D0
00002318  A963                     syscall    SetControlValue/SetCtlValue
label0000231A:
0000231A  4E5E                     unlink     A6
0000231C  205F                     movea.l    A0, [A7]+
0000231E  5C4F                     addq.w     A7, 6
00002320  4ED0                     jmp        [A0]
fn00002322:
00002322  4E56 0000                link       A6, 0
00002326  2F0C                     move.l     -[A7], A4
00002328  286E 0008                movea.l    A4, [A6 + 0x8]
0000232C  102D F4CD                move.b     D0, [A5 - 0xB33]
00002330  6710                     beq        +0x12 /* 00002342 */
00002332  4EBA E7B2                jsr        [PC - 0x184E /* 00000AE6 */]
00002336  206E 0008                movea.l    A0, [A6 + 0x8]
0000233A  2C48                     movea.l    A6, A0
0000233C  4EFA 02E0                jmp        [PC + 0x2E0 /* 0000261E */]
00002340  0000 7001                ori.b      D0, 0x1
// begin alternate branch 00002342-00002344
label00002342:
00002342  7001                     moveq.l    D0, 0x01
// end alternate branch 00002342-00002344
label00002342: // (misaligned)
00002344  B0AD F668                cmp.l      D0, [A5 - 0x998]
00002348  6614                     bne        +0x16 /* 0000235E */
0000234A  3F3C 0011                move.w     -[A7], 0x11
0000234E  4EAD 187A                jsr        [A5 + 0x187A /* export_779, CODE:16 @ 00000500 */]
00002352  206E 0008                movea.l    A0, [A6 + 0x8]
00002356  2C48                     movea.l    A6, A0
00002358  4EFA 02C4                jmp        [PC + 0x2C4 /* 0000261E */]
0000235C  0000 42A7                ori.b      D0, 0xA7
// begin alternate branch 0000235E-00002360
label0000235E:
0000235E  42A7                     clr.l      -[A7]
// end alternate branch 0000235E-00002360
label0000235E: // (misaligned)
00002360  2F2C FFFC                move.l     -[A7], [A4 - 0x4]
00002364  4EAD 1F7A                jsr        [A5 + 0x1F7A /* export_1003, CODE:19 @ 00001744 */]
00002368  295F FFF0                move.l     [A4 - 0x10], [A7]+
0000236C  660C                     bne        +0xE /* 0000237A */
0000236E  206E 0008                movea.l    A0, [A6 + 0x8]
00002372  2C48                     movea.l    A6, A0
00002374  4EFA 02A8                jmp        [PC + 0x2A8 /* 0000261E */]
00002378  0000 206C                ori.b      D0, 0x6C /* 'l' */
// begin alternate branch 0000237A-0000237E
label0000237A:
0000237A  206C FFF0                movea.l    A0, [A4 - 0x10]
// end alternate branch 0000237A-0000237E
label0000237A: // (misaligned)
0000237C  FFF0                     .invalid   <<F/7/7>>
0000237E  2050                     movea.l    A0, [A0]
00002380  0828 0006 0010           btst.b     [A0 + 0x10], 0x6
00002386  56C0                     sne        D0
00002388  4400                     neg.b      D0
0000238A  1940 FFEF                move.b     [A4 - 0x11], D0
0000238E  2F2C FFFC                move.l     -[A7], [A4 - 0x4]
00002392  4267                     clr.w      -[A7]
00002394  4EAD 1EF2                jsr        [A5 + 0x1EF2 /* export_986, CODE:19 @ 00000450 */]
00002398  102C FFEF                move.b     D0, [A4 - 0x11]
0000239C  6714                     beq        +0x16 /* 000023B2 */
0000239E  3F3C 0012                move.w     -[A7], 0x12
000023A2  4EAD 187A                jsr        [A5 + 0x187A /* export_779, CODE:16 @ 00000500 */]
000023A6  206E 0008                movea.l    A0, [A6 + 0x8]
000023AA  2C48                     movea.l    A6, A0
000023AC  4EFA 0270                jmp        [PC + 0x270 /* 0000261E */]
000023B0  0000 42A7                ori.b      D0, 0xA7
// begin alternate branch 000023B2-000023B4
label000023B2:
000023B2  42A7                     clr.l      -[A7]
// end alternate branch 000023B2-000023B4
label000023B2: // (misaligned)
000023B4  2F2C FFF8                move.l     -[A7], [A4 - 0x8]
000023B8  4EAD 1F6A                jsr        [A5 + 0x1F6A /* export_1001, CODE:19 @ 000016EC */]
000023BC  295F FFF4                move.l     [A4 - 0xC], [A7]+
000023C0  206C FFF4                movea.l    A0, [A4 - 0xC]
000023C4  2050                     movea.l    A0, [A0]
000023C6  7001                     moveq.l    D0, 0x01
000023C8  B0A8 0014                cmp.l      D0, [A0 + 0x14]
000023CC  5CC0                     sge        D0
000023CE  4400                     neg.b      D0
000023D0  1940 FFEE                move.b     [A4 - 0x12], D0
000023D4  206C FFF4                movea.l    A0, [A4 - 0xC]
000023D8  2050                     movea.l    A0, [A0]
000023DA  0828 0006 0010           btst.b     [A0 + 0x10], 0x6
000023E0  56C0                     sne        D0
000023E2  C02C FFEE                and.b      D0, [A4 - 0x12]
000023E6  1940 FFEF                move.b     [A4 - 0x11], D0
000023EA  2F2C FFF8                move.l     -[A7], [A4 - 0x8]
000023EE  4267                     clr.w      -[A7]
000023F0  4EAD 1EE2                jsr        [A5 + 0x1EE2 /* export_984, CODE:19 @ 00000414 */]
000023F4  102C FFEF                move.b     D0, [A4 - 0x11]
000023F8  6714                     beq        +0x16 /* 0000240E */
000023FA  3F3C 0013                move.w     -[A7], 0x13
000023FE  4EAD 187A                jsr        [A5 + 0x187A /* export_779, CODE:16 @ 00000500 */]
00002402  206E 0008                movea.l    A0, [A6 + 0x8]
00002406  2C48                     movea.l    A6, A0
00002408  4EFA 0214                jmp        [PC + 0x214 /* 0000261E */]
0000240C  0000 285F                ori.b      D0, 0x5F /* '_' */
// begin alternate branch 0000240E-00002410
label0000240E:
0000240E  285F                     movea.l    A4, [A7]+
// end alternate branch 0000240E-00002410
label0000240E: // (misaligned)
00002410  4E5E                     unlink     A6
00002412  2E9F                     move.l     [A7], [A7]+
00002414  4E75                     rts
export_706:
fn00002416:
00002416  4E56 FFE2                link       A6, -0x001E
0000241A  48E7 1F38                movem.l    -[A7], D3,D4,D5,D6,D7,A2,A3,A4
0000241E  4EBA 2BB6                jsr        [PC + 0x2BB6 /* 00004FD6 */]
00002422  2D6D F62A FFFC           move.l     [A6 - 0x4], [A5 - 0x9D6]
00002428  2D6D F622 FFF8           move.l     [A6 - 0x8], [A5 - 0x9DE]
0000242E  42A7                     clr.l      -[A7]
00002430  4EAD 1DF2                jsr        [A5 + 0x1DF2 /* export_954, CODE:18 @ 000010BC */]
00002434  2B5F DC5A                move.l     [A5 - 0x23A6], [A7]+
00002438  2B6D F4E0 DC56           move.l     [A5 - 0x23AA], [A5 - 0xB20]
0000243E  2F0E                     move.l     -[A7], A6
00002440  4EBA FEE0                jsr        [PC - 0x120 /* 00002322 */]
00002444  102E FFEE                move.b     D0, [A6 - 0x12]
00002448  6716                     beq        +0x18 /* 00002460 */
0000244A  41ED E0E8                lea.l      A0, [A5 - 0x1F18]
0000244E  43FA 01E6                lea.l      A1, [PC + 0x1E6 /* 00002636, value 0x1064656C, pstring "deleteBackground" */]
00002452  7003                     moveq.l    D0, 0x03
label00002454:
00002454  20D9                     move.l     [A0]+, [A1]+
00002456  51C8 FFFC                dbf        D0, -0x6 /* 00002454 */
0000245A  3091                     move.w     [A0], [A1]
0000245C  4EAD 0B8A                jsr        [A5 + 0xB8A /* export_365, CODE:8 @ 00003F30 */]
label00002460:
00002460  41ED E0E8                lea.l      A0, [A5 - 0x1F18]
00002464  43FA 01C4                lea.l      A1, [PC + 0x1C4 /* 0000262A, value 0xA64656C '\ndel', pstring "deleteCard" */]
00002468  20D9                     move.l     [A0]+, [A1]+
0000246A  20D9                     move.l     [A0]+, [A1]+
0000246C  20D9                     move.l     [A0]+, [A1]+
0000246E  4EAD 0B8A                jsr        [A5 + 0xB8A /* export_365, CODE:8 @ 00003F30 */]
00002472  2F0E                     move.l     -[A7], A6
00002474  4EBA FEAC                jsr        [PC - 0x154 /* 00002322 */]
00002478  202D F4E0                move.l     D0, [A5 - 0xB20]
0000247C  B0AD DC56                cmp.l      D0, [A5 - 0x23AA]
00002480  6704                     beq        +0x6 /* 00002486 */
00002482  6000 019A                bra        +0x19C /* 0000261E */
label00002486:
00002486  202D F62A                move.l     D0, [A5 - 0x9D6]
0000248A  B0AE FFFC                cmp.l      D0, [A6 - 0x4]
0000248E  661A                     bne        +0x1C /* 000024AA */
00002490  1D6D E301 FFE3           move.b     [A6 - 0x1D], [A5 - 0x1CFF]
00002496  1B7C 0001 E301           move.b     [A5 - 0x1CFF], 0x1
0000249C  1F3C 0002                move.b     -[A7], 0x2
000024A0  4EAD 20BA                jsr        [A5 + 0x20BA /* export_1043, CODE:20 @ 00001302 */]
000024A4  1B6E FFE3 E301           move.b     [A5 - 0x1CFF], [A6 - 0x1D]
label000024AA:
000024AA  202D F62A                move.l     D0, [A5 - 0x9D6]
000024AE  B0AE FFFC                cmp.l      D0, [A6 - 0x4]
000024B2  6604                     bne        +0x6 /* 000024B8 */
000024B4  6000 0168                bra        +0x16A /* 0000261E */
label000024B8:
000024B8  4267                     clr.w      -[A7]
000024BA  2F2D F670                move.l     -[A7], [A5 - 0x990]
000024BE  2F2D DC5A                move.l     -[A7], [A5 - 0x23A6]
000024C2  4EAD 1D5A                jsr        [A5 + 0x1D5A /* export_935, CODE:18 @ 00000644 */]
000024C6  101F                     move.b     D0, [A7]+
000024C8  6700 0150                beq        +0x152 /* 0000261A */
000024CC  7000                     moveq.l    D0, 0x00
000024CE  2B40 F626                move.l     [A5 - 0x9DA], D0
000024D2  2B6E FFFC DC66           move.l     [A5 - 0x239A], [A6 - 0x4]
000024D8  2F2D DC66                move.l     -[A7], [A5 - 0x239A]
000024DC  1F3C 0001                move.b     -[A7], 0x1
000024E0  4EAD 109A                jsr        [A5 + 0x109A /* export_527, CODE:9 @ 000046AA */]
000024E4  202D F668                move.l     D0, [A5 - 0x998]
000024E8  5380                     subq.l     D0, 1
000024EA  2B40 F668                move.l     [A5 - 0x998], D0
000024EE  202D DC66                move.l     D0, [A5 - 0x239A]
000024F2  B0AD F66C                cmp.l      D0, [A5 - 0x994]
000024F6  6612                     bne        +0x14 /* 0000250A */
000024F8  42A7                     clr.l      -[A7]
000024FA  2F2D F670                move.l     -[A7], [A5 - 0x990]
000024FE  7001                     moveq.l    D0, 0x01
00002500  2F00                     move.l     -[A7], D0
00002502  4EAD 1E22                jsr        [A5 + 0x1E22 /* export_960, CODE:18 @ 00001CCC */]
00002506  2B5F F66C                move.l     [A5 - 0x994], [A7]+
label0000250A:
0000250A  1B7C 0001 F63B           move.b     [A5 - 0x9C5], 0x1
00002510  42A7                     clr.l      -[A7]
00002512  2F2E FFF8                move.l     -[A7], [A6 - 0x8]
00002516  4EAD 1F6A                jsr        [A5 + 0x1F6A /* export_1001, CODE:19 @ 000016EC */]
0000251A  2D5F FFF4                move.l     [A6 - 0xC], [A7]+
0000251E  6608                     bne        +0xA /* 00002528 */
00002520  4EAD 1812                jsr        [A5 + 0x1812 /* export_766, CODE:16 @ 00000208 */]
00002524  6000 00DA                bra        +0xDC /* 00002600 */
label00002528:
00002528  206E FFF4                movea.l    A0, [A6 - 0xC]
0000252C  2050                     movea.l    A0, [A0]
0000252E  2028 0014                move.l     D0, [A0 + 0x14]
00002532  5380                     subq.l     D0, 1
00002534  206E FFF4                movea.l    A0, [A6 - 0xC]
00002538  2050                     movea.l    A0, [A0]
0000253A  2140 0014                move.l     [A0 + 0x14], D0
0000253E  206E FFF4                movea.l    A0, [A6 - 0xC]
00002542  2050                     movea.l    A0, [A0]
00002544  7001                     moveq.l    D0, 0x01
00002546  B0A8 0014                cmp.l      D0, [A0 + 0x14]
0000254A  5EC0                     sgt        D0
0000254C  4400                     neg.b      D0
0000254E  1D40 FFED                move.b     [A6 - 0x13], D0
00002552  206E FFF4                movea.l    A0, [A6 - 0xC]
00002556  2050                     movea.l    A0, [A0]
00002558  2D68 001C FFE8           move.l     [A6 - 0x18], [A0 + 0x1C]
0000255E  206E FFF4                movea.l    A0, [A6 - 0xC]
00002562  2050                     movea.l    A0, [A0]
00002564  2D68 0018 FFE4           move.l     [A6 - 0x1C], [A0 + 0x18]
0000256A  2F2E FFF8                move.l     -[A7], [A6 - 0x8]
0000256E  1F3C 0001                move.b     -[A7], 0x1
00002572  4EAD 1EE2                jsr        [A5 + 0x1EE2 /* export_984, CODE:19 @ 00000414 */]
00002576  102E FFED                move.b     D0, [A6 - 0x13]
0000257A  6700 0084                beq        +0x86 /* 00002600 */
0000257E  2B6E FFF8 DC62           move.l     [A5 - 0x239E], [A6 - 0x8]
00002584  2F2D DC62                move.l     -[A7], [A5 - 0x239E]
00002588  1F3C 0001                move.b     -[A7], 0x1
0000258C  4EAD 1092                jsr        [A5 + 0x1092 /* export_526, CODE:9 @ 00004638 */]
00002590  202D F660                move.l     D0, [A5 - 0x9A0]
00002594  5380                     subq.l     D0, 1
00002596  2B40 F660                move.l     [A5 - 0x9A0], D0
0000259A  2B6D F664 DC5E           move.l     [A5 - 0x23A2], [A5 - 0x99C]
000025A0  202D F664                move.l     D0, [A5 - 0x99C]
000025A4  B0AE FFF8                cmp.l      D0, [A6 - 0x8]
000025A8  6606                     bne        +0x8 /* 000025B0 */
000025AA  2B6E FFE4 F664           move.l     [A5 - 0x99C], [A6 - 0x1C]
label000025B0:
000025B0  42A7                     clr.l      -[A7]
000025B2  2F2E FFE8                move.l     -[A7], [A6 - 0x18]
000025B6  4EAD 1F6A                jsr        [A5 + 0x1F6A /* export_1001, CODE:19 @ 000016EC */]
000025BA  2D5F FFF4                move.l     [A6 - 0xC], [A7]+
000025BE  6718                     beq        +0x1A /* 000025D8 */
000025C0  206E FFF4                movea.l    A0, [A6 - 0xC]
000025C4  2050                     movea.l    A0, [A0]
000025C6  216E FFE4 0018           move.l     [A0 + 0x18], [A6 - 0x1C]
000025CC  2F2E FFE8                move.l     -[A7], [A6 - 0x18]
000025D0  1F3C 0001                move.b     -[A7], 0x1
000025D4  4EAD 1EE2                jsr        [A5 + 0x1EE2 /* export_984, CODE:19 @ 00000414 */]
label000025D8:
000025D8  42A7                     clr.l      -[A7]
000025DA  2F2E FFE4                move.l     -[A7], [A6 - 0x1C]
000025DE  4EAD 1F6A                jsr        [A5 + 0x1F6A /* export_1001, CODE:19 @ 000016EC */]
000025E2  2D5F FFF4                move.l     [A6 - 0xC], [A7]+
000025E6  6718                     beq        +0x1A /* 00002600 */
000025E8  206E FFF4                movea.l    A0, [A6 - 0xC]
000025EC  2050                     movea.l    A0, [A0]
000025EE  216E FFE8 001C           move.l     [A0 + 0x1C], [A6 - 0x18]
000025F4  2F2E FFE4                move.l     -[A7], [A6 - 0x1C]
000025F8  1F3C 0001                move.b     -[A7], 0x1
000025FC  4EAD 1EE2                jsr        [A5 + 0x1EE2 /* export_984, CODE:19 @ 00000414 */]
label00002600:
00002600  2F2D DC66                move.l     -[A7], [A5 - 0x239A]
00002604  4EAD 2012                jsr        [A5 + 0x2012 /* export_1022, CODE:20 @ 000002C2 */]
00002608  2F2D F670                move.l     -[A7], [A5 - 0x990]
0000260C  2F2D DC5A                move.l     -[A7], [A5 - 0x23A6]
00002610  1F3C 0001                move.b     -[A7], 0x1
00002614  4EAD 1EC2                jsr        [A5 + 0x1EC2 /* export_980, CODE:18 @ 00003918 */]
00002618  6004                     bra        +0x6 /* 0000261E */
label0000261A:
0000261A  4EAD 1812                jsr        [A5 + 0x1812 /* export_766, CODE:16 @ 00000208 */]
label0000261E:
0000261E  4FEE FFC2                lea.l      A7, [A6 - 0x3E]
00002622  4CDF 1CF8                movem.l    D3,D4,D5,D6,D7,A2,A3,A4, [A7]+
00002626  4E5E                     unlink     A6
00002628  4E75                     rts
0000262A  0A64 656C                xori.w     -[A4], 0x656C /* 'el' */
0000262E  6574                     bcs        +0x76 /* 000026A4 */
00002630  6543                     bcs        +0x45 /* 00002675 */
00002632  6172                     bsr        +0x74 /* 000026A6 */
00002634  6400 1064                bcc        +0x1066 /* 0000369A */
00002638  656C                     bcs        +0x6E /* 000026A6 */
0000263A  6574                     bcs        +0x76 /* 000026B0 */
0000263C  6542                     bcs        +0x44 /* 00002680 */
0000263E  6163                     bsr        +0x65 /* 000026A3 */
00002640  6B67                     bmi        +0x69 /* 000026A9 */
00002642  726F                     moveq.l    D1, 0x6F
00002644  756E                     moveq.l    D2, 0x6E
00002646  6400 4E56                bcc        +0x4E58 /* 0000749E */
// begin alternate branch 00002648-0000264E
fn00002648:
00002648  4E56 0000                link       A6, 0
0000264C  2F0C                     move.l     -[A7], A4
// end alternate branch 00002648-0000264E
fn00002648: // (misaligned)
0000264A  0000 2F0C                ori.b      D0, 0xC
0000264E  286E 0008                movea.l    A4, [A6 + 0x8]
00002652  486C FBFA                pea.l      [A4 - 0x406]
00002656  3F3C 07D2                move.w     -[A7], 0x7D2
0000265A  3F2C FBF8                move.w     -[A7], [A4 - 0x408]
0000265E  4EAD 048A                jsr        [A5 + 0x48A /* export_141, CODE:1 @ 00004E6C */]
00002662  526C FBF8                addq.w     [A4 - 0x408], 1
00002666  285F                     movea.l    A4, [A7]+
00002668  4E5E                     unlink     A6
0000266A  2E9F                     move.l     [A7], [A7]+
0000266C  4E75                     rts
fn0000266E:
0000266E  4E56 FFFA                link       A6, -0x0006
00002672  48E7 0308                movem.l    -[A7], D6,D7,A4
00002676  286E 0008                movea.l    A4, [A6 + 0x8]
0000267A  7C50                     moveq.l    D6, 0x50
0000267C  3D6E 000E FFFA           move.w     [A6 - 0x6], [A6 + 0xE]
// begin alternate branch 00002680-00002682
label00002680:
00002680  FFFA                     .invalid   <<F/7/7>>
// end alternate branch 00002680-00002682
label00002680: // (misaligned)
00002682  7E01                     moveq.l    D7, 0x01
00002684  6058                     bra        +0x5A /* 000026DE */
label00002686:
00002686  2F2E 0008                move.l     -[A7], [A6 + 0x8]
0000268A  4EBA FFBC                jsr        [PC - 0x44 /* 00002648 */]
0000268E  3F3C 000A                move.w     -[A7], 0xA /* '\n' */
00002692  3F06                     move.w     -[A7], D6
00002694  A893                     syscall    MoveTo
00002696  486C FBFA                pea.l      [A4 - 0x406]
0000269A  A884                     syscall    DrawString
0000269C  2F2E 0008                move.l     -[A7], [A6 + 0x8]
000026A0  4EBA FFA6                jsr        [PC - 0x5A /* 00002648 */]
label000026A4:
000026A4  3F3C 0094                move.w     -[A7], 0x94
// begin alternate branch 000026A6-000026AC
fn000026A6:
000026A6  0094 3F06 A893           ori.l      [A4], 0x3F06A893
// end alternate branch 000026A6-000026AC
fn000026A6: // (misaligned)
000026A8  3F06                     move.w     -[A7], D6
000026AA  A893                     syscall    MoveTo
000026AC  486C FBFA                pea.l      [A4 - 0x406]
label000026B0:
000026B0  A884                     syscall    DrawString
000026B2  DC6E 000C                add.w      D6, [A6 + 0xC]
000026B6  700D                     moveq.l    D0, 0x0D
000026B8  B06E 000E                cmp.w      D0, [A6 + 0xE]
000026BC  57C0                     seq        D0
000026BE  7204                     moveq.l    D1, 0x04
000026C0  B247                     cmp.w      D1, D7
000026C2  57C1                     seq        D1
000026C4  7406                     moveq.l    D2, 0x06
000026C6  B447                     cmp.w      D2, D7
000026C8  57C2                     seq        D2
000026CA  8202                     or.b       D1, D2
000026CC  7408                     moveq.l    D2, 0x08
000026CE  B447                     cmp.w      D2, D7
000026D0  57C2                     seq        D2
000026D2  8202                     or.b       D1, D2
000026D4  C001                     and.b      D0, D1
000026D6  6702                     beq        +0x4 /* 000026DA */
000026D8  5146                     subq.w     D6, 8
label000026DA:
000026DA  5247                     addq.w     D7, 1
000026DC  6906                     bvs        +0x8 /* 000026E4 */
label000026DE:
000026DE  BE6E FFFA                cmp.w      D7, [A6 - 0x6]
000026E2  6FA2                     ble        -0x5C /* 00002686 */
label000026E4:
000026E4  4EAD 22F2                jsr        [A5 + 0x22F2 /* export_1114, CODE:20 @ 00006464 */]
000026E8  4CDF 10C0                movem.l    D6,D7,A4, [A7]+
000026EC  4E5E                     unlink     A6
000026EE  205F                     movea.l    A0, [A7]+
000026F0  504F                     addq.w     A7, 8
000026F2  4ED0                     jmp        [A0]
export_707:
000026F4  4E56 FAE8                link       A6, -0x0518
000026F8  48E7 0718                movem.l    -[A7], D5,D6,D7,A3,A4
000026FC  3C2E 0008                move.w     D6, [A6 + 0x8]
00002700  4EAD 1862                jsr        [A5 + 0x1862 /* export_776, CODE:16 @ 00000474 */]
00002704  7001                     moveq.l    D0, 0x01
00002706  B046                     cmp.w      D0, D6
00002708  6600 0176                bne        +0x178 /* 00002880 */
0000270C  422D DEBD                clr.b      [A5 - 0x2143]
00002710  42A7                     clr.l      -[A7]
00002712  3F3C 07D2                move.w     -[A7], 0x7D2
00002716  42A7                     clr.l      -[A7]
00002718  70FF                     moveq.l    D0, 0xFFFFFFFF
0000271A  2F00                     move.l     -[A7], D0
0000271C  A97C                     syscall    GetNewDialog
0000271E  285F                     movea.l    A4, [A7]+
00002720  2F0C                     move.l     -[A7], A4
00002722  4EAD 182A                jsr        [A5 + 0x182A /* export_769, CODE:16 @ 000002AC */]
00002726  2F0C                     move.l     -[A7], A4
00002728  A915                     syscall    ShowWindow
0000272A  2F0C                     move.l     -[A7], A4
0000272C  A981                     syscall    DrawDialog
0000272E  2F0C                     move.l     -[A7], A4
00002730  A873                     syscall    SetPort
00002732  3D7C 0001 FBF8           move.w     [A6 - 0x408], 0x1
00002738  3F2D F2BC                move.w     -[A7], [A5 - 0xD44]
0000273C  A887                     syscall    TextFont
0000273E  3F3C 0012                move.w     -[A7], 0x12
00002742  A88A                     syscall    TextSize
00002744  3F3A 0172                move.w     -[A7], [PC + 0x172 /* 000028B8, value 0x1, cstring "" */]
00002748  A888                     syscall    TextFace
0000274A  2F0E                     move.l     -[A7], A6
0000274C  4EBA FEFA                jsr        [PC - 0x106 /* 00002648 */]
00002750  4267                     clr.w      -[A7]
00002752  486E FBFA                pea.l      [A6 - 0x406]
00002756  A88C                     syscall    StringWidth
00002758  301F                     move.w     D0, [A7]+
0000275A  48C0                     ext.l      D0
0000275C  81FC 0002                divs.w     D0, 0x2
00002760  323C 00CE                move.w     D1, 0xCE
00002764  9240                     sub.w      D1, D0
00002766  3F01                     move.w     -[A7], D1
00002768  3F3C 001A                move.w     -[A7], 0x1A
0000276C  A893                     syscall    MoveTo
0000276E  486E FBFA                pea.l      [A6 - 0x406]
00002772  A884                     syscall    DrawString
00002774  2F0E                     move.l     -[A7], A6
00002776  4EBA FED0                jsr        [PC - 0x130 /* 00002648 */]
0000277A  41EE FCFA                lea.l      A0, [A6 - 0x306]
0000277E  43EE FBFA                lea.l      A1, [A6 - 0x406]
00002782  703F                     moveq.l    D0, 0x3F
label00002784:
00002784  20D9                     move.l     [A0]+, [A1]+
00002786  51C8 FFFC                dbf        D0, -0x6 /* 00002784 */
0000278A  2F0E                     move.l     -[A7], A6
0000278C  4EBA FEBA                jsr        [PC - 0x146 /* 00002648 */]
00002790  41EE FDFA                lea.l      A0, [A6 - 0x206]
00002794  43EE FBFA                lea.l      A1, [A6 - 0x406]
00002798  703F                     moveq.l    D0, 0x3F
label0000279A:
0000279A  20D9                     move.l     [A0]+, [A1]+
0000279C  51C8 FFFC                dbf        D0, -0x6 /* 0000279A */
000027A0  422E FBFA                clr.b      [A6 - 0x406]
000027A4  42A7                     clr.l      -[A7]
000027A6  2F3A 010C                move.l     -[A7], [PC + 0x10C /* 000028B4, value 0x76657273 'vers', cstring "vers" */]
000027AA  3F3C 0001                move.w     -[A7], 0x1
000027AE  4EAD 1892                jsr        [A5 + 0x1892 /* export_782, CODE:16 @ 000005A6 */]
000027B2  2E1F                     move.l     D7, [A7]+
000027B4  2047                     movea.l    A0, D7
000027B6  2650                     movea.l    A3, [A0]
000027B8  5C8B                     addq.l     A3, 6
000027BA  2F0B                     move.l     -[A7], A3
000027BC  486E FBFA                pea.l      [A6 - 0x406]
000027C0  1013                     move.b     D0, [A3]
000027C2  4880                     ext.w      D0
000027C4  5240                     addq.w     D0, 1
000027C6  48C0                     ext.l      D0
000027C8  2F00                     move.l     -[A7], D0
000027CA  4EAD 024A                jsr        [A5 + 0x24A /* export_69, CODE:1 @ 000046A6 */]
000027CE  486E FCFA                pea.l      [A6 - 0x306]
000027D2  486E FBFA                pea.l      [A6 - 0x406]
000027D6  486E FDFA                pea.l      [A6 - 0x206]
000027DA  486E FAE8                pea.l      [A6 - 0x518]
000027DE  3F3C 0003                move.w     -[A7], 0x3
000027E2  4EAD 050A                jsr        [A5 + 0x50A /* export_157, CODE:1 @ 0000531E */]
000027E6  41EE FBFA                lea.l      A0, [A6 - 0x406]
000027EA  43EE FAE8                lea.l      A1, [A6 - 0x518]
000027EE  703F                     moveq.l    D0, 0x3F
label000027F0:
000027F0  20D9                     move.l     [A0]+, [A1]+
000027F2  51C8 FFFC                dbf        D0, -0x6 /* 000027F0 */
000027F6  3F3C 000E                move.w     -[A7], 0xE
000027FA  A88A                     syscall    TextSize
000027FC  3F3A 00B4                move.w     -[A7], [PC + 0xB4 /* 000028B2, value 0x0, cstring "" */]
00002800  A888                     syscall    TextFace
00002802  4267                     clr.w      -[A7]
00002804  486E FBFA                pea.l      [A6 - 0x406]
00002808  A88C                     syscall    StringWidth
0000280A  301F                     move.w     D0, [A7]+
0000280C  48C0                     ext.l      D0
0000280E  81FC 0002                divs.w     D0, 0x2
00002812  323C 00CE                move.w     D1, 0xCE
00002816  9240                     sub.w      D1, D0
00002818  3F01                     move.w     -[A7], D1
0000281A  3F3C 0030                move.w     -[A7], 0x30 /* '0' */
0000281E  A893                     syscall    MoveTo
00002820  486E FBFA                pea.l      [A6 - 0x406]
00002824  A884                     syscall    DrawString
00002826  486E FBF0                pea.l      [A6 - 0x410]
0000282A  2F3C 003C 000A           move.l     -[A7], 0x3C000A /* '<\0\n' */
00002830  2F3C 003D 01A2           move.l     -[A7], 0x3D01A2
00002836  A8A7                     syscall    SetRect
00002838  486E FBF0                pea.l      [A6 - 0x410]
0000283C  486D FE90                pea.l      [A5 - 0x170]
00002840  A8A5                     syscall    FillRect
00002842  3F3C 000C                move.w     -[A7], 0xC
00002846  A88A                     syscall    TextSize
00002848  2F3C 0011 000A           move.l     -[A7], 0x11000A
0000284E  2F0E                     move.l     -[A7], A6
00002850  4EBA FE1C                jsr        [PC - 0x1E4 /* 0000266E */]
00002854  486E FBF0                pea.l      [A6 - 0x410]
00002858  2F3C 0046 0000           move.l     -[A7], 0x460000 /* 'F\0\0' */
0000285E  2F3C 01F4 01F4           move.l     -[A7], 0x1F401F4
00002864  A8A7                     syscall    SetRect
00002866  486E FBF0                pea.l      [A6 - 0x410]
0000286A  A8A3                     syscall    EraseRect
0000286C  2F3C 000F 000D           move.l     -[A7], 0xF000D
00002872  2F0E                     move.l     -[A7], A6
00002874  4EBA FDF8                jsr        [PC - 0x208 /* 0000266E */]
00002878  2F0C                     move.l     -[A7], A4
0000287A  4EAD 201A                jsr        [A5 + 0x201A /* export_1023, CODE:20 @ 000002FA */]
0000287E  6026                     bra        +0x28 /* 000028A6 */
label00002880:
00002880  4EAD 1ED2                jsr        [A5 + 0x1ED2 /* export_982, CODE:19 @ 00000172 */]
00002884  BC6D DEBE                cmp.w      D6, [A5 - 0x2142]
00002888  5FC0                     sle        D0
0000288A  4400                     neg.b      D0
0000288C  1B40 DEBD                move.b     [A5 - 0x2143], D0
00002890  2F2D EEA4                move.l     -[A7], [A5 - 0x115C]
00002894  3F06                     move.w     -[A7], D6
00002896  486E FEFC                pea.l      [A6 - 0x104]
0000289A  A946                     syscall    GetMenuItemText/GetItem
0000289C  4267                     clr.w      -[A7]
0000289E  486E FEFC                pea.l      [A6 - 0x104]
000028A2  A9B6                     syscall    OpenDeskAcc
000028A4  3A1F                     move.w     D5, [A7]+
label000028A6:
000028A6  4CDF 18E0                movem.l    D5,D6,D7,A3,A4, [A7]+
000028AA  4E5E                     unlink     A6
000028AC  205F                     movea.l    A0, [A7]+
000028AE  544F                     addq.w     A7, 2
000028B0  4ED0                     jmp        [A0]
000028B2  0000 7665                ori.b      D0, 0x65 /* 'e' */
000028B6  7273                     moveq.l    D1, 0x73
000028B8  0001 4E56                ori.b      D1, 0x56 /* 'V' */
// begin alternate branch 000028BA-000028C2
export_708:
000028BA  4E56 FEFE                link       A6, -0x0102
000028BE  48E7 0308                movem.l    -[A7], D6,D7,A4
// end alternate branch 000028BA-000028C2
export_708: // at 000028BA (misaligned)
000028BC  FEFE 48E7                .extension 0xEFE <<F/2-3/7>> // unimplemented
000028C0  0308                     btst       A0, D1
000028C2  3C2E 0008                move.w     D6, [A6 + 0x8]
000028C6  102D F003                move.b     D0, [A5 - 0xFFD]
000028CA  802D F004                or.b       D0, [A5 - 0xFFC]
000028CE  0A00 0001                xori.b     D0, 0x1
000028D2  C02D F006                and.b      D0, [A5 - 0xFFA]
000028D6  672E                     beq        +0x30 /* 00002906 */
000028D8  3E06                     move.w     D7, D6
000028DA  DE7C 001B                add.w      D7, 0x1B
000028DE  102D EDAB                move.b     D0, [A5 - 0x1255]
000028E2  670A                     beq        +0xC /* 000028EE */
000028E4  3F07                     move.w     -[A7], D7
000028E6  2F2D EDAC                move.l     -[A7], [A5 - 0x1254]
000028EA  4EAD 2112                jsr        [A5 + 0x2112 /* export_1054, CODE:20 @ 0000172C */]
label000028EE:
000028EE  102D E245                move.b     D0, [A5 - 0x1DBB]
000028F2  670E                     beq        +0x10 /* 00002902 */
000028F4  3F07                     move.w     -[A7], D7
000028F6  2F2D E246                move.l     -[A7], [A5 - 0x1DBA]
000028FA  4EAD 2112                jsr        [A5 + 0x2112 /* export_1054, CODE:20 @ 0000172C */]
000028FE  4EAD 22CA                jsr        [A5 + 0x22CA /* export_1109, CODE:20 @ 000060CC */]
label00002902:
00002902  6000 00E0                bra        +0xE2 /* 000029E4 */
label00002906:
00002906  102D F004                move.b     D0, [A5 - 0xFFC]
0000290A  6702                     beq        +0x4 /* 0000290E */
0000290C  5846                     addq.w     D6, 4
label0000290E:
0000290E  3006                     move.w     D0, D6
00002910  5340                     subq.w     D0, 1
00002912  6B00 00D0                bmi        +0xD2 /* 000029E4 */
00002916  0C40 0007                cmpi.w     D0, 0x7
0000291A  6E00 00C8                bgt        +0xCA /* 000029E4 */
0000291E  D040                     add.w      D0, D0
00002920  303B 0006                move.w     D0, [PC + D0.w + 0x6]
00002924  4EFB 0000                jmp        [PC + D0.w]
00002928  0012 001E                ori.b      [A2], 0x1E
0000292C  002A 0036 0040           ori.b      [A2 + 0x40], 0x36 /* '6' */
00002932  004E 005C                ori.w      A6, 0x5C /* '\\' */
00002936  0092 1F3C 0001           ori.l      [A2], 0x1F3C0001
0000293C  4EAD 20BA                jsr        [A5 + 0x20BA /* export_1043, CODE:20 @ 00001302 */]
00002940  6000 00A2                bra        +0xA4 /* 000029E4 */
00002944  1F3C 0002                move.b     -[A7], 0x2
00002948  4EAD 20BA                jsr        [A5 + 0x20BA /* export_1043, CODE:20 @ 00001302 */]
0000294C  6000 0096                bra        +0x98 /* 000029E4 */
00002950  1F3C 0002                move.b     -[A7], 0x2
00002954  4EAD 20B2                jsr        [A5 + 0x20B2 /* export_1042, CODE:20 @ 000012C6 */]
00002958  6000 008A                bra        +0x8C /* 000029E4 */
0000295C  1F3C 0001                move.b     -[A7], 0x1
00002960  4EAD 20B2                jsr        [A5 + 0x20B2 /* export_1042, CODE:20 @ 000012C6 */]
00002964  607E                     bra        +0x80 /* 000029E4 */
00002966  7001                     moveq.l    D0, 0x01
00002968  2F00                     move.l     -[A7], D0
0000296A  487A 0084                pea.l      [PC + 0x84 /* 000029F0, value 0x4E56 'NV', cstring "" */]
0000296E  4EAD 20C2                jsr        [A5 + 0x20C2 /* export_1044, CODE:20 @ 0000133E */]
00002972  6070                     bra        +0x72 /* 000029E4 */
00002974  70FE                     moveq.l    D0, 0xFFFFFFFE
00002976  2F00                     move.l     -[A7], D0
00002978  487A 0076                pea.l      [PC + 0x76 /* 000029F0, value 0x4E56 'NV', cstring "" */]
0000297C  4EAD 20C2                jsr        [A5 + 0x20C2 /* export_1044, CODE:20 @ 0000133E */]
00002980  6062                     bra        +0x64 /* 000029E4 */
00002982  302D E5C0                move.w     D0, [A5 - 0x1A40]
00002986  5340                     subq.w     D0, 1
00002988  41ED E5C2                lea.l      A0, [A5 - 0x1A3E]
0000298C  E740                     asl        D0.w, 3
0000298E  49F0 0000                lea.l      A4, [A0 + D0.w]
00002992  2F14                     move.l     -[A7], [A4]
00002994  486E FEFE                pea.l      [A6 - 0x102]
00002998  2F2C 0004                move.l     -[A7], [A4 + 0x4]
0000299C  4EAD 1FEA                jsr        [A5 + 0x1FEA /* export_1017, CODE:19 @ 0000235A */]
000029A0  4EAD 20CA                jsr        [A5 + 0x20CA /* export_1045, CODE:20 @ 00001388 */]
000029A4  536D E5C0                subq.w     [A5 - 0x1A40], 1
000029A8  7001                     moveq.l    D0, 0x01
000029AA  B06D E5C0                cmp.w      D0, [A5 - 0x1A40]
000029AE  6F06                     ble        +0x8 /* 000029B6 */
000029B0  3B7C 0014 E5C0           move.w     [A5 - 0x1A40], 0x14
label000029B6:
000029B6  602C                     bra        +0x2E /* 000029E4 */
000029B8  526D E5C0                addq.w     [A5 - 0x1A40], 1
000029BC  7014                     moveq.l    D0, 0x14
000029BE  B06D E5C0                cmp.w      D0, [A5 - 0x1A40]
000029C2  6C06                     bge        +0x8 /* 000029CA */
000029C4  3B7C 0001 E5C0           move.w     [A5 - 0x1A40], 0x1
label000029CA:
000029CA  302D E5C0                move.w     D0, [A5 - 0x1A40]
000029CE  5340                     subq.w     D0, 1
000029D0  41ED E5C2                lea.l      A0, [A5 - 0x1A3E]
000029D4  E740                     asl        D0.w, 3
000029D6  49F0 0000                lea.l      A4, [A0 + D0.w]
000029DA  28AD F62A                move.l     [A4], [A5 - 0x9D6]
000029DE  296D F4E0 0004           move.l     [A4 + 0x4], [A5 - 0xB20]
label000029E4:
000029E4  4CDF 10C0                movem.l    D6,D7,A4, [A7]+
000029E8  4E5E                     unlink     A6
000029EA  205F                     movea.l    A0, [A7]+
000029EC  544F                     addq.w     A7, 2
000029EE  4ED0                     jmp        [A0]
000029F0  0000 4E56                ori.b      D0, 0x56 /* 'V' */
// begin alternate branch 000029F2-000029F6
export_709:
000029F2  4E56 FDF4                link       A6, -0x020C
// end alternate branch 000029F2-000029F6
export_709: // at 000029F2 (misaligned)
000029F4  FDF4                     .invalid   <<F/7/6>>
000029F6  48E7 0F00                movem.l    -[A7], D4,D5,D6,D7
000029FA  102D F003                move.b     D0, [A5 - 0xFFD]
000029FE  C02D F004                and.b      D0, [A5 - 0xFFC]
00002A02  6700 0084                beq        +0x86 /* 00002A88 */
00002A06  486E FDF4                pea.l      [A6 - 0x20C]
00002A0A  3F3C 0020                move.w     -[A7], 0x20 /* ' ' */
00002A0E  4EAD 209A                jsr        [A5 + 0x209A /* export_1039, CODE:20 @ 00000F60 */]
00002A12  205F                     movea.l    A0, [A7]+
00002A14  43EE FEF4                lea.l      A1, [A6 - 0x10C]
00002A18  703F                     moveq.l    D0, 0x3F
label00002A1A:
00002A1A  22D8                     move.l     [A1]+, [A0]+
00002A1C  51C8 FFFC                dbf        D0, -0x6 /* 00002A1A */
00002A20  4240                     clr.w      D0
00002A22  102E FEF5                move.b     D0, [A6 - 0x10B]
00002A26  B06D F00C                cmp.w      D0, [A5 - 0xFF4]
00002A2A  57C0                     seq        D0
00002A2C  4241                     clr.w      D1
00002A2E  122E FEF6                move.b     D1, [A6 - 0x10A]
00002A32  B26D F00C                cmp.w      D1, [A5 - 0xFF4]
00002A36  57C1                     seq        D1
00002A38  8001                     or.b       D0, D1
00002A3A  6708                     beq        +0xA /* 00002A44 */
00002A3C  4EBA 17D0                jsr        [PC + 0x17D0 /* 0000420E */]
00002A40  6000 009A                bra        +0x9C /* 00002ADC */
label00002A44:
00002A44  4240                     clr.w      D0
00002A46  102E FEF7                move.b     D0, [A6 - 0x109]
00002A4A  B06D F00C                cmp.w      D0, [A5 - 0xFF4]
00002A4E  57C0                     seq        D0
00002A50  4241                     clr.w      D1
00002A52  122E FEF8                move.b     D1, [A6 - 0x108]
00002A56  B26D F00C                cmp.w      D1, [A5 - 0xFF4]
00002A5A  57C1                     seq        D1
00002A5C  8001                     or.b       D0, D1
00002A5E  6706                     beq        +0x8 /* 00002A66 */
00002A60  4EBA 177E                jsr        [PC + 0x177E /* 000041E0 */]
00002A64  6076                     bra        +0x78 /* 00002ADC */
label00002A66:
00002A66  4240                     clr.w      D0
00002A68  102E FEF9                move.b     D0, [A6 - 0x107]
00002A6C  B06D F00C                cmp.w      D0, [A5 - 0xFF4]
00002A70  57C0                     seq        D0
00002A72  4241                     clr.w      D1
00002A74  122E FEFA                move.b     D1, [A6 - 0x106]
00002A78  B26D F00C                cmp.w      D1, [A5 - 0xFF4]
00002A7C  57C1                     seq        D1
00002A7E  8001                     or.b       D0, D1
00002A80  6706                     beq        +0x8 /* 00002A88 */
00002A82  4EBA 1C40                jsr        [PC + 0x1C40 /* 000046C4 */]
00002A86  6054                     bra        +0x56 /* 00002ADC */
label00002A88:
00002A88  42A7                     clr.l      -[A7]
00002A8A  3F2D F00C                move.w     -[A7], [A5 - 0xFF4]
00002A8E  4EAD 1A62                jsr        [A5 + 0x1A62 /* export_840, CODE:16 @ 000017E4 */]
00002A92  2C1F                     move.l     D6, [A7]+
00002A94  2E06                     move.l     D7, D6
00002A96  4847                     swap.w     D7
00002A98  2A06                     move.l     D5, D6
00002A9A  4A47                     tst.w      D7
00002A9C  6606                     bne        +0x8 /* 00002AA4 */
00002A9E  4EAD 1812                jsr        [A5 + 0x1812 /* export_766, CODE:16 @ 00000208 */]
00002AA2  6038                     bra        +0x3A /* 00002ADC */
label00002AA4:
00002AA4  4A6D FD8A                tst.w      [A5 - 0x276]
00002AA8  5CC0                     sge        D0
00002AAA  C02D E0E7                and.b      D0, [A5 - 0x1F19]
00002AAE  6704                     beq        +0x6 /* 00002AB4 */
00002AB0  3F07                     move.w     -[A7], D7
00002AB2  A938                     syscall    HiliteMenu
label00002AB4:
00002AB4  42A7                     clr.l      -[A7]
00002AB6  A975                     syscall    TickCount
00002AB8  281F                     move.l     D4, [A7]+
00002ABA  5684                     addq.l     D4, 3
00002ABC  3F07                     move.w     -[A7], D7
00002ABE  3F05                     move.w     -[A7], D5
00002AC0  4EAD 21BA                jsr        [A5 + 0x21BA /* export_1075, CODE:20 @ 00004336 */]
00002AC4  4A6D FD8A                tst.w      [A5 - 0x276]
00002AC8  5CC0                     sge        D0
00002ACA  C02D E0E7                and.b      D0, [A5 - 0x1F19]
00002ACE  670C                     beq        +0xE /* 00002ADC */
label00002AD0:
00002AD0  42A7                     clr.l      -[A7]
00002AD2  A975                     syscall    TickCount
00002AD4  B89F                     cmp.l      D4, [A7]+
00002AD6  6CF8                     bge        -0x6 /* 00002AD0 */
00002AD8  4267                     clr.w      -[A7]
00002ADA  A938                     syscall    HiliteMenu
label00002ADC:
00002ADC  4CDF 00F0                movem.l    D4,D5,D6,D7, [A7]+
00002AE0  4E5E                     unlink     A6
00002AE2  4E75                     rts
export_710:
00002AE4  4E56 FFFC                link       A6, -0x0004
00002AE8  48E7 0300                movem.l    -[A7], D6,D7
00002AEC  2F2D EDC8                move.l     -[A7], [A5 - 0x1238]
00002AF0  A873                     syscall    SetPort
00002AF2  486E 0012                pea.l      [A6 + 0x12]
00002AF6  A870                     syscall    LocalToGlobal
00002AF8  486E 000E                pea.l      [A6 + 0xE]
00002AFC  A870                     syscall    LocalToGlobal
00002AFE  4A6D F010                tst.w      [A5 - 0xFF0]
00002B02  6E04                     bgt        +0x6 /* 00002B08 */
00002B04  4247                     clr.w      D7
00002B06  606C                     bra        +0x6E /* 00002B74 */
label00002B08:
00002B08  7000                     moveq.l    D0, 0x00
00002B0A  302E 0014                move.w     D0, [A6 + 0x14]
00002B0E  7210                     moveq.l    D1, 0x10
00002B10  E3A8                     lsl        D0, D1
00002B12  2B40 DEA4                move.l     [A5 - 0x215C], D0
00002B16  7000                     moveq.l    D0, 0x00
00002B18  302E 0012                move.w     D0, [A6 + 0x12]
00002B1C  7210                     moveq.l    D1, 0x10
00002B1E  E3A8                     lsl        D0, D1
00002B20  2B40 DEA0                move.l     [A5 - 0x2160], D0
00002B24  42A7                     clr.l      -[A7]
00002B26  2F2E 0012                move.l     -[A7], [A6 + 0x12]
00002B2A  2F2E 000E                move.l     -[A7], [A6 + 0xE]
00002B2E  4EAD 1822                jsr        [A5 + 0x1822 /* export_768, CODE:16 @ 00000242 */]
00002B32  2C1F                     move.l     D6, [A7]+
00002B34  4846                     swap.w     D6
00002B36  3006                     move.w     D0, D6
00002B38  C1FC 003C                muls.w     D0, 0x3C /* '<' */
00002B3C  48C0                     ext.l      D0
00002B3E  81ED F010                divs.w     D0, [A5 - 0xFF0]
00002B42  3E00                     move.w     D7, D0
00002B44  7001                     moveq.l    D0, 0x01
00002B46  B047                     cmp.w      D0, D7
00002B48  6F02                     ble        +0x4 /* 00002B4C */
00002B4A  7E01                     moveq.l    D7, 0x01
label00002B4C:
00002B4C  42A7                     clr.l      -[A7]
00002B4E  302E 0010                move.w     D0, [A6 + 0x10]
00002B52  906E 0014                sub.w      D0, [A6 + 0x14]
00002B56  3F00                     move.w     -[A7], D0
00002B58  3F07                     move.w     -[A7], D7
00002B5A  A869                     syscall    FixRatio
00002B5C  2B5F DE9C                move.l     [A5 - 0x2164], [A7]+
00002B60  42A7                     clr.l      -[A7]
00002B62  302E 000E                move.w     D0, [A6 + 0xE]
00002B66  906E 0012                sub.w      D0, [A6 + 0x12]
00002B6A  3F00                     move.w     -[A7], D0
00002B6C  3F07                     move.w     -[A7], D7
00002B6E  A869                     syscall    FixRatio
00002B70  2B5F DE98                move.l     [A5 - 0x2168], [A7]+
label00002B74:
00002B74  4267                     clr.w      -[A7]
00002B76  2F2E 0012                move.l     -[A7], [A6 + 0x12]
00002B7A  2F2E 000E                move.l     -[A7], [A6 + 0xE]
00002B7E  A881                     syscall    EqualPt
00002B80  1B5F F00F                move.b     [A5 - 0xFF1], [A7]+
00002B84  2B6E 000E DE94           move.l     [A5 - 0x216C], [A6 + 0xE]
00002B8A  42A7                     clr.l      -[A7]
00002B8C  A975                     syscall    TickCount
00002B8E  2B5F DE90                move.l     [A5 - 0x2170], [A7]+
00002B92  3007                     move.w     D0, D7
00002B94  48C0                     ext.l      D0
00002B96  D0AD DE90                add.l      D0, [A5 - 0x2170]
00002B9A  2B40 DE8C                move.l     [A5 - 0x2174], D0
00002B9E  1B7C 0001 DEAB           move.b     [A5 - 0x2155], 0x1
00002BA4  7000                     moveq.l    D0, 0x00
00002BA6  2B40 DE88                move.l     [A5 - 0x2178], D0
00002BAA  7000                     moveq.l    D0, 0x00
00002BAC  2B40 DE84                move.l     [A5 - 0x217C], D0
00002BB0  1B6E 000C DEAA           move.b     [A5 - 0x2156], [A6 + 0xC]
00002BB6  1B6E 000A DEA9           move.b     [A5 - 0x2157], [A6 + 0xA]
00002BBC  1B6E 0008 DEA8           move.b     [A5 - 0x2158], [A6 + 0x8]
00002BC2  3B7C 0001 DEAC           move.w     [A5 - 0x2154], 0x1
00002BC8  7000                     moveq.l    D0, 0x00
00002BCA  2B40 DEAE                move.l     [A5 - 0x2152], D0
00002BCE  42A7                     clr.l      -[A7]
00002BD0  A975                     syscall    TickCount
00002BD2  2B5F DEB2                move.l     [A5 - 0x214E], [A7]+
00002BD6  2B6E 0012 DEB6           move.l     [A5 - 0x214A], [A6 + 0x12]
00002BDC  426D DEBA                clr.w      [A5 - 0x2146]
00002BE0  102D DEAA                move.b     D0, [A5 - 0x2156]
00002BE4  670C                     beq        +0xE /* 00002BF2 */
00002BE6  302D DEBA                move.w     D0, [A5 - 0x2146]
00002BEA  D07C 0200                add.w      D0, 0x200
00002BEE  3B40 DEBA                move.w     [A5 - 0x2146], D0
label00002BF2:
00002BF2  102D DEA9                move.b     D0, [A5 - 0x2157]
00002BF6  670C                     beq        +0xE /* 00002C04 */
00002BF8  302D DEBA                move.w     D0, [A5 - 0x2146]
00002BFC  D07C 0800                add.w      D0, 0x800
00002C00  3B40 DEBA                move.w     [A5 - 0x2146], D0
label00002C04:
00002C04  102D DEA8                move.b     D0, [A5 - 0x2158]
00002C08  670C                     beq        +0xE /* 00002C16 */
00002C0A  302D DEBA                move.w     D0, [A5 - 0x2146]
00002C0E  D07C 0100                add.w      D0, 0x100
00002C12  3B40 DEBA                move.w     [A5 - 0x2146], D0
label00002C16:
00002C16  41ED F018                lea.l      A0, [A5 - 0xFE8]
00002C1A  43ED DEAC                lea.l      A1, [A5 - 0x2154]
00002C1E  20D9                     move.l     [A0]+, [A1]+
00002C20  20D9                     move.l     [A0]+, [A1]+
00002C22  20D9                     move.l     [A0]+, [A1]+
00002C24  20D9                     move.l     [A0]+, [A1]+
00002C26  1B7C 0001 F017           move.b     [A5 - 0xFE9], 0x1
00002C2C  4A6D EFDA                tst.w      [A5 - 0x1026]
00002C30  6606                     bne        +0x8 /* 00002C38 */
00002C32  4EAD 007A                jsr        [A5 + 0x7A /* export_11, CODE:1 @ 00001D52 */]
00002C36  6004                     bra        +0x6 /* 00002C3C */
label00002C38:
00002C38  4EAD 1372                jsr        [A5 + 0x1372 /* export_618, CODE:12 @ 0000465E */]
label00002C3C:
00002C3C  422D F017                clr.b      [A5 - 0xFE9]
00002C40  422D DEAB                clr.b      [A5 - 0x2155]
00002C44  4CDF 00C0                movem.l    D6,D7, [A7]+
00002C48  4E5E                     unlink     A6
00002C4A  205F                     movea.l    A0, [A7]+
00002C4C  DEFC 000E                add.w      A7, 0xE
00002C50  4ED0                     jmp        [A0]
export_711:
00002C52  4E56 0000                link       A6, 0
00002C56  7003                     moveq.l    D0, 0x03
00002C58  B06E 0008                cmp.w      D0, [A6 + 0x8]
00002C5C  57C0                     seq        D0
00002C5E  7202                     moveq.l    D1, 0x02
00002C60  B26E 0008                cmp.w      D1, [A6 + 0x8]
00002C64  57C1                     seq        D1
00002C66  8001                     or.b       D0, D1
00002C68  6708                     beq        +0xA /* 00002C72 */
00002C6A  3F3C 0001                move.w     -[A7], 0x1
00002C6E  4EBA E1DA                jsr        [PC - 0x1E26 /* 00000E4A */]
label00002C72:
00002C72  302E 0008                move.w     D0, [A6 + 0x8]
00002C76  5340                     subq.w     D0, 1
00002C78  6B00 009C                bmi        +0x9E /* 00002D16 */
00002C7C  0C40 000B                cmpi.w     D0, 0xB
00002C80  6E00 0094                bgt        +0x96 /* 00002D16 */
00002C84  D040                     add.w      D0, D0
00002C86  303B 0006                move.w     D0, [PC + D0.w + 0x6]
00002C8A  4EFB 0000                jmp        [PC + D0.w]
00002C8E  001A 0024                ori.b      [A2]+, 0x24 /* '$' */
00002C92  0032 0044 008A           ori.b      [A2 + D0.w - 0x76], 0x44 /* 'D' */
00002C98  004A 0058                ori.w      A2, 0x58 /* 'X' */
00002C9C  0062 006C                ori.w      -[A2], 0x6C /* 'l' */
00002CA0  008A 007A 0084           ori.l      A2, 0x7A0084
00002CA6  1F3C 0001                move.b     -[A7], 0x1
00002CAA  4EAD 20B2                jsr        [A5 + 0x20B2 /* export_1042, CODE:20 @ 000012C6 */]
00002CAE  6066                     bra        +0x68 /* 00002D16 */
00002CB0  7001                     moveq.l    D0, 0x01
00002CB2  2F00                     move.l     -[A7], D0
00002CB4  486D F5FE                pea.l      [A5 - 0xA02]
00002CB8  4EAD 20C2                jsr        [A5 + 0x20C2 /* export_1044, CODE:20 @ 0000133E */]
00002CBC  6058                     bra        +0x5A /* 00002D16 */
00002CBE  41ED E0E8                lea.l      A0, [A5 - 0x1F18]
00002CC2  43FA 005C                lea.l      A1, [PC + 0x5C /* 00002D20, value 0x468656C, pstring "help" */]
00002CC6  20D9                     move.l     [A0]+, [A1]+
00002CC8  3091                     move.w     [A0], [A1]
00002CCA  4EAD 0B8A                jsr        [A5 + 0xB8A /* export_365, CODE:8 @ 00003F30 */]
00002CCE  6046                     bra        +0x48 /* 00002D16 */
00002CD0  4EAD 2242                jsr        [A5 + 0x2242 /* export_1092, CODE:20 @ 00004E3A */]
00002CD4  6040                     bra        +0x42 /* 00002D16 */
00002CD6  7001                     moveq.l    D0, 0x01
00002CD8  2F00                     move.l     -[A7], D0
00002CDA  487A 0042                pea.l      [PC + 0x42 /* 00002D1E, value 0x468, cstring "" */]
00002CDE  4EAD 20C2                jsr        [A5 + 0x20C2 /* export_1044, CODE:20 @ 0000133E */]
00002CE2  6032                     bra        +0x34 /* 00002D16 */
00002CE4  1F3C 0001                move.b     -[A7], 0x1
00002CE8  4EAD 20BA                jsr        [A5 + 0x20BA /* export_1043, CODE:20 @ 00001302 */]
00002CEC  6028                     bra        +0x2A /* 00002D16 */
00002CEE  1F3C 0002                move.b     -[A7], 0x2
00002CF2  4EAD 20BA                jsr        [A5 + 0x20BA /* export_1043, CODE:20 @ 00001302 */]
00002CF6  601E                     bra        +0x20 /* 00002D16 */
00002CF8  70FE                     moveq.l    D0, 0xFFFFFFFE
00002CFA  2F00                     move.l     -[A7], D0
00002CFC  487A 0020                pea.l      [PC + 0x20 /* 00002D1E, value 0x468, cstring "" */]
00002D00  4EAD 20C2                jsr        [A5 + 0x20C2 /* export_1044, CODE:20 @ 0000133E */]
00002D04  6010                     bra        +0x12 /* 00002D16 */
00002D06  1F3C 0001                move.b     -[A7], 0x1
00002D0A  4EAD 224A                jsr        [A5 + 0x224A /* export_1093, CODE:20 @ 00004FF0 */]
00002D0E  6006                     bra        +0x8 /* 00002D16 */
00002D10  4267                     clr.w      -[A7]
00002D12  4EAD 224A                jsr        [A5 + 0x224A /* export_1093, CODE:20 @ 00004FF0 */]
label00002D16:
00002D16  4E5E                     unlink     A6
00002D18  205F                     movea.l    A0, [A7]+
00002D1A  544F                     addq.w     A7, 2
00002D1C  4ED0                     jmp        [A0]
00002D1E  0000 0468                ori.b      D0, 0x68 /* 'h' */
00002D22  656C                     bcs        +0x6E /* 00002D90 */
00002D24  7000                     moveq.l    D0, 0x00
export_712:
fn00002D26:
00002D26  4E56 0000                link       A6, 0
00002D2A  48E7 0018                movem.l    -[A7], A3,A4
00002D2E  286E 000C                movea.l    A4, [A6 + 0xC]
00002D32  266E 0008                movea.l    A3, [A6 + 0x8]
00002D36  200C                     move.l     D0, A4
00002D38  57C0                     seq        D0
00002D3A  4A00                     tst.b      D0
00002D3C  6608                     bne        +0xA /* 00002D46 */
00002D3E  4A14                     tst.b      [A4]
00002D40  57C1                     seq        D1
00002D42  8001                     or.b       D0, D1
00002D44  670C                     beq        +0xE /* 00002D52 */
label00002D46:
00002D46  486D ED8A                pea.l      [A5 - 0x1276]
00002D4A  42A7                     clr.l      -[A7]
00002D4C  2F0B                     move.l     -[A7], A3
00002D4E  A9CF                     syscall    TESetText
00002D50  601E                     bra        +0x20 /* 00002D70 */
label00002D52:
00002D52  102D F2B3                move.b     D0, [A5 - 0xD4D]
00002D56  6710                     beq        +0x12 /* 00002D68 */
00002D58  2F0C                     move.l     -[A7], A4
00002D5A  42A7                     clr.l      -[A7]
00002D5C  2F0C                     move.l     -[A7], A4
00002D5E  4EAD 1ADA                jsr        [A5 + 0x1ADA /* export_855, CODE:16 @ 00001C66 */]
00002D62  2F0B                     move.l     -[A7], A3
00002D64  A9CF                     syscall    TESetText
00002D66  6008                     bra        +0xA /* 00002D70 */
label00002D68:
00002D68  2F0C                     move.l     -[A7], A4
00002D6A  2F0B                     move.l     -[A7], A3
00002D6C  4EAD 1A6A                jsr        [A5 + 0x1A6A /* export_841, CODE:16 @ 00001850 */]
label00002D70:
00002D70  4CDF 1800                movem.l    A3,A4, [A7]+
00002D74  4E5E                     unlink     A6
00002D76  205F                     movea.l    A0, [A7]+
00002D78  504F                     addq.w     A7, 8
00002D7A  4ED0                     jmp        [A0]
export_713:
00002D7C  4E56 FDA8                link       A6, -0x0258
00002D80  48E7 0700                movem.l    -[A7], D5,D6,D7
00002D84  102D F01D                move.b     D0, [A5 - 0xFE3]
00002D88  0240 0001                andi.w     D0, 0x1
00002D8C  6700 00FC                beq        +0xFE /* 00002E8A */
label00002D90:
00002D90  4EBA DDBC                jsr        [PC - 0x2244 /* 00000B4E */]
00002D94  1B7C 0001 EFED           move.b     [A5 - 0x1013], 0x1
00002D9A  422D F02F                clr.b      [A5 - 0xFD1]
00002D9E  206D ED96                movea.l    A0, [A5 - 0x126A]
00002DA2  1028 006E                move.b     D0, [A0 + 0x6E]
00002DA6  6608                     bne        +0xA /* 00002DB0 */
00002DA8  2F2D EDC8                move.l     -[A7], [A5 - 0x1238]
00002DAC  4EAD 227A                jsr        [A5 + 0x227A /* export_1099, CODE:20 @ 000053BE */]
label00002DB0:
00002DB0  102D DC73                move.b     D0, [A5 - 0x238D]
00002DB4  6708                     beq        +0xA /* 00002DBE */
00002DB6  2F2D EDBC                move.l     -[A7], [A5 - 0x1244]
00002DBA  4EAD 227A                jsr        [A5 + 0x227A /* export_1099, CODE:20 @ 000053BE */]
label00002DBE:
00002DBE  102D DC72                move.b     D0, [A5 - 0x238E]
00002DC2  6708                     beq        +0xA /* 00002DCC */
00002DC4  2F2D EDC0                move.l     -[A7], [A5 - 0x1240]
00002DC8  4EAD 227A                jsr        [A5 + 0x227A /* export_1099, CODE:20 @ 000053BE */]
label00002DCC:
00002DCC  102D DC71                move.b     D0, [A5 - 0x238F]
00002DD0  6708                     beq        +0xA /* 00002DDA */
00002DD2  2F2D EDC4                move.l     -[A7], [A5 - 0x123C]
00002DD6  4EAD 227A                jsr        [A5 + 0x227A /* export_1099, CODE:20 @ 000053BE */]
label00002DDA:
00002DDA  102D DC70                move.b     D0, [A5 - 0x2390]
00002DDE  6708                     beq        +0xA /* 00002DE8 */
00002DE0  2F2D EDB8                move.l     -[A7], [A5 - 0x1248]
00002DE4  4EAD 227A                jsr        [A5 + 0x227A /* export_1099, CODE:20 @ 000053BE */]
label00002DE8:
00002DE8  4EAD 2182                jsr        [A5 + 0x2182 /* export_1068, CODE:20 @ 00003930 */]
00002DEC  4EAD 0A1A                jsr        [A5 + 0xA1A /* export_319, CODE:8 @ 0000174C */]
00002DF0  2F3C 0000 0006           move.l     -[A7], 0x6
00002DF6  201F                     move.l     D0, [A7]+
00002DF8  A032                     syscall    FlushEvents
00002DFA  2E2D F4E0                move.l     D7, [A5 - 0xB20]
00002DFE  4267                     clr.w      -[A7]
00002E00  3F2D FD68                move.w     -[A7], [A5 - 0x298]
00002E04  4EBA 20C2                jsr        [PC + 0x20C2 /* 00004EC8 */]
00002E08  1C1F                     move.b     D6, [A7]+
00002E0A  486D FC48                pea.l      [A5 - 0x3B8]
00002E0E  486D FD48                pea.l      [A5 - 0x2B8]
00002E12  486E FDA8                pea.l      [A6 - 0x258]
00002E16  3F3C 0002                move.w     -[A7], 0x2
00002E1A  4EAD 050A                jsr        [A5 + 0x50A /* export_157, CODE:1 @ 0000531E */]
00002E1E  41EE FEFA                lea.l      A0, [A6 - 0x106]
00002E22  43EE FDA8                lea.l      A1, [A6 - 0x258]
00002E26  703F                     moveq.l    D0, 0x3F
label00002E28:
00002E28  20D9                     move.l     [A0]+, [A1]+
00002E2A  51C8 FFFC                dbf        D0, -0x6 /* 00002E28 */
00002E2E  42A7                     clr.l      -[A7]
00002E30  486E FEFA                pea.l      [A6 - 0x106]
00002E34  4EAD 1FE2                jsr        [A5 + 0x1FE2 /* export_1016, CODE:19 @ 0000227C */]
00002E38  2B5F F4E0                move.l     [A5 - 0xB20], [A7]+
00002E3C  BEAD F4E0                cmp.l      D7, [A5 - 0xB20]
00002E40  6744                     beq        +0x46 /* 00002E86 */
00002E42  2F07                     move.l     -[A7], D7
00002E44  1F3C 0001                move.b     -[A7], 0x1
00002E48  4EAD 108A                jsr        [A5 + 0x108A /* export_525, CODE:9 @ 000045EC */]
00002E4C  2F07                     move.l     -[A7], D7
00002E4E  4EAD 215A                jsr        [A5 + 0x215A /* export_1063, CODE:20 @ 000034F6 */]
00002E52  486E FEAA                pea.l      [A6 - 0x156]
00002E56  7050                     moveq.l    D0, 0x50
00002E58  2F00                     move.l     -[A7], D0
00002E5A  4EAD 1B42                jsr        [A5 + 0x1B42 /* export_868, CODE:16 @ 00001E7C */]
00002E5E  41EE FEFA                lea.l      A0, [A6 - 0x106]
00002E62  2D48 FEBC                move.l     [A6 - 0x144], A0
00002E66  4267                     clr.w      -[A7]
00002E68  486E FEAA                pea.l      [A6 - 0x156]
00002E6C  4267                     clr.w      -[A7]
00002E6E  4EAD 02DA                jsr        [A5 + 0x2DA /* export_87, CODE:1 @ 0000480E */]
00002E72  3A1F                     move.w     D5, [A7]+
00002E74  2F2E FEF6                move.l     -[A7], [A6 - 0x10A]
00002E78  4EAD 1FD2                jsr        [A5 + 0x1FD2 /* export_1014, CODE:19 @ 00002108 */]
00002E7C  2F2D EDC8                move.l     -[A7], [A5 - 0x1238]
00002E80  486E FEFA                pea.l      [A6 - 0x106]
00002E84  A91A                     syscall    SetWTitle
label00002E86:
00002E86  6000 0094                bra        +0x96 /* 00002F1C */
label00002E8A:
00002E8A  4EAD 2292                jsr        [A5 + 0x2292 /* export_1102, CODE:20 @ 00005886 */]
00002E8E  102D DEBD                move.b     D0, [A5 - 0x2143]
00002E92  6712                     beq        +0x14 /* 00002EA6 */
00002E94  422D DC73                clr.b      [A5 - 0x238D]
00002E98  422D DC72                clr.b      [A5 - 0x238E]
00002E9C  422D DC71                clr.b      [A5 - 0x238F]
00002EA0  422D DC70                clr.b      [A5 - 0x2390]
00002EA4  6054                     bra        +0x56 /* 00002EFA */
label00002EA6:
00002EA6  206D ED9E                movea.l    A0, [A5 - 0x1262]
00002EAA  1B68 006E DC73           move.b     [A5 - 0x238D], [A0 + 0x6E]
00002EB0  206D EDA2                movea.l    A0, [A5 - 0x125E]
00002EB4  1B68 006E DC72           move.b     [A5 - 0x238E], [A0 + 0x6E]
00002EBA  206D EDA6                movea.l    A0, [A5 - 0x125A]
00002EBE  1B68 006E DC71           move.b     [A5 - 0x238F], [A0 + 0x6E]
00002EC4  206D ED9A                movea.l    A0, [A5 - 0x1266]
00002EC8  1B68 006E DC70           move.b     [A5 - 0x2390], [A0 + 0x6E]
00002ECE  2F2D EDBC                move.l     -[A7], [A5 - 0x1244]
00002ED2  A916                     syscall    HideWindow
00002ED4  2F2D EDC0                move.l     -[A7], [A5 - 0x1240]
00002ED8  A916                     syscall    HideWindow
00002EDA  2F2D EDC4                move.l     -[A7], [A5 - 0x123C]
00002EDE  A916                     syscall    HideWindow
00002EE0  2F2D EDB8                move.l     -[A7], [A5 - 0x1248]
00002EE4  A916                     syscall    HideWindow
00002EE6  302D FE3A                move.w     D0, [A5 - 0x1C6]
00002EEA  906D FE36                sub.w      D0, [A5 - 0x1CA]
00002EEE  0C40 0200                cmpi.w     D0, 0x200
00002EF2  6E06                     bgt        +0x8 /* 00002EFA */
00002EF4  2F2D EDC8                move.l     -[A7], [A5 - 0x1238]
00002EF8  A916                     syscall    HideWindow
label00002EFA:
00002EFA  422D DEBD                clr.b      [A5 - 0x2143]
00002EFE  422D EFED                clr.b      [A5 - 0x1013]
00002F02  1B7C 0001 F02F           move.b     [A5 - 0xFD1], 0x1
00002F08  2F3C FFFF FFFF           move.l     -[A7], 0xFFFFFFFF
00002F0E  42A7                     clr.l      -[A7]
00002F10  4EAD 1A32                jsr        [A5 + 0x1A32 /* export_834, CODE:16 @ 0000152E */]
00002F14  4EAD 223A                jsr        [A5 + 0x223A /* export_1091, CODE:20 @ 00004CBC */]
00002F18  4EAD 094A                jsr        [A5 + 0x94A /* export_293, CODE:8 @ 000007A2 */]
label00002F1C:
00002F1C  4CDF 00E0                movem.l    D5,D6,D7, [A7]+
00002F20  4E5E                     unlink     A6
00002F22  4E75                     rts
export_714:
00002F24  4E56 FEFC                link       A6, -0x0104
00002F28  2F07                     move.l     -[A7], D7
00002F2A  206E 000E                movea.l    A0, [A6 + 0xE]
00002F2E  43EE FF00                lea.l      A1, [A6 - 0x100]
00002F32  703F                     moveq.l    D0, 0x3F
label00002F34:
00002F34  22D8                     move.l     [A1]+, [A0]+
00002F36  51C8 FFFC                dbf        D0, -0x6 /* 00002F34 */
00002F3A  4240                     clr.w      D0
00002F3C  102E FF00                move.b     D0, [A6 - 0x100]
00002F40  3D40 FEFC                move.w     [A6 - 0x104], D0
00002F44  7E01                     moveq.l    D7, 0x01
00002F46  6000 00AA                bra        +0xAC /* 00002FF2 */
label00002F4A:
00002F4A  4267                     clr.w      -[A7]
00002F4C  4EAD 17FA                jsr        [A5 + 0x17FA /* export_763, CODE:16 @ 0000009E */]
00002F50  101F                     move.b     D0, [A7]+
00002F52  6600 009A                bne        +0x9C /* 00002FEE */
00002F56  1B6E 000C DEAA           move.b     [A5 - 0x2156], [A6 + 0xC]
00002F5C  1B6E 000A DEA9           move.b     [A5 - 0x2157], [A6 + 0xA]
00002F62  1B6E 0008 DEA8           move.b     [A5 - 0x2158], [A6 + 0x8]
00002F68  3B7C 0003 DEAC           move.w     [A5 - 0x2154], 0x3
00002F6E  4240                     clr.w      D0
00002F70  41EE FF00                lea.l      A0, [A6 - 0x100]
00002F74  1030 7000                move.b     D0, [A0 + D7.w]
00002F78  48C0                     ext.l      D0
00002F7A  2B40 DEAE                move.l     [A5 - 0x2152], D0
00002F7E  42A7                     clr.l      -[A7]
00002F80  A975                     syscall    TickCount
00002F82  2B5F DEB2                move.l     [A5 - 0x214E], [A7]+
00002F86  426D DEB8                clr.w      [A5 - 0x2148]
00002F8A  426D DEB6                clr.w      [A5 - 0x214A]
00002F8E  426D DEBA                clr.w      [A5 - 0x2146]
00002F92  102D DEAA                move.b     D0, [A5 - 0x2156]
00002F96  670C                     beq        +0xE /* 00002FA4 */
00002F98  302D DEBA                move.w     D0, [A5 - 0x2146]
00002F9C  D07C 0200                add.w      D0, 0x200
00002FA0  3B40 DEBA                move.w     [A5 - 0x2146], D0
label00002FA4:
00002FA4  102D DEA9                move.b     D0, [A5 - 0x2157]
00002FA8  670C                     beq        +0xE /* 00002FB6 */
00002FAA  302D DEBA                move.w     D0, [A5 - 0x2146]
00002FAE  D07C 0800                add.w      D0, 0x800
00002FB2  3B40 DEBA                move.w     [A5 - 0x2146], D0
label00002FB6:
00002FB6  102D DEA8                move.b     D0, [A5 - 0x2158]
00002FBA  670C                     beq        +0xE /* 00002FC8 */
00002FBC  302D DEBA                move.w     D0, [A5 - 0x2146]
00002FC0  D07C 0100                add.w      D0, 0x100
00002FC4  3B40 DEBA                move.w     [A5 - 0x2146], D0
label00002FC8:
00002FC8  41ED F018                lea.l      A0, [A5 - 0xFE8]
00002FCC  43ED DEAC                lea.l      A1, [A5 - 0x2154]
00002FD0  20D9                     move.l     [A0]+, [A1]+
00002FD2  20D9                     move.l     [A0]+, [A1]+
00002FD4  20D9                     move.l     [A0]+, [A1]+
00002FD6  20D9                     move.l     [A0]+, [A1]+
00002FD8  1B7C 0001 F017           move.b     [A5 - 0xFE9], 0x1
00002FDE  4A6D EFDA                tst.w      [A5 - 0x1026]
00002FE2  6606                     bne        +0x8 /* 00002FEA */
00002FE4  4EAD 007A                jsr        [A5 + 0x7A /* export_11, CODE:1 @ 00001D52 */]
00002FE8  6004                     bra        +0x6 /* 00002FEE */
label00002FEA:
00002FEA  4EAD 1372                jsr        [A5 + 0x1372 /* export_618, CODE:12 @ 0000465E */]
label00002FEE:
00002FEE  5247                     addq.w     D7, 1
00002FF0  6908                     bvs        +0xA /* 00002FFA */
label00002FF2:
00002FF2  BE6E FEFC                cmp.w      D7, [A6 - 0x104]
00002FF6  6F00 FF52                ble        -0xAC /* 00002F4A */
label00002FFA:
00002FFA  422D F017                clr.b      [A5 - 0xFE9]
00002FFE  2E1F                     move.l     D7, [A7]+
00003000  4E5E                     unlink     A6
00003002  205F                     movea.l    A0, [A7]+
00003004  DEFC 000A                add.w      A7, 0xA /* '\n' */
00003008  4ED0                     jmp        [A0]
export_715:
0000300A  4E56 FFFC                link       A6, -0x0004
0000300E  48E7 0018                movem.l    -[A7], A3,A4
00003012  2F3C FFFF FFF0           move.l     -[A7], 0xFFFFFFF0
00003018  7000                     moveq.l    D0, 0x00
0000301A  302D F024                move.w     D0, [A5 - 0xFDC]
0000301E  C0BC 0000 000F           and.l      D0, 0xF
00003024  3F00                     move.w     -[A7], D0
00003026  4267                     clr.w      -[A7]
00003028  4EAD 1A32                jsr        [A5 + 0x1A32 /* export_834, CODE:16 @ 0000152E */]
0000302C  267C 0000 0174           movea.l    A3, 0x174
00003032  7037                     moveq.l    D0, 0x37
00003034  3200                     move.w     D1, D0
00003036  E640                     asr        D0.w, 3
00003038  03F3                     .incomplete
0000303A  0000 2F2D                ori.b      D0, 0x2D /* '-' */
0000303E  EDC8 2F2D                bfffo      D2, A0 {D4:D5}
00003042  F022 486D                .pmove2    0xF022, 0x486D // unimplemented
00003046  FE34 A925                .unknown   0xFE34 0xA925 (W = 7)
0000304A  7037                     moveq.l    D0, 0x37
0000304C  3200                     move.w     D1, D0
0000304E  E640                     asr        D0.w, 3
00003050  03B3 0000                bclr       [A3 + D0.w], D1
00003054  2F3C FFFF FFFF           move.l     -[A7], 0xFFFFFFFF
0000305A  42A7                     clr.l      -[A7]
0000305C  4EAD 1A32                jsr        [A5 + 0x1A32 /* export_834, CODE:16 @ 0000152E */]
00003060  206D EDC8                movea.l    A0, [A5 - 0x1238]
00003064  49E8 0008                lea.l      A4, [A0 + 0x8]
00003068  302C 0002                move.w     D0, [A4 + 0x2]
0000306C  4440                     neg.w      D0
0000306E  3F00                     move.w     -[A7], D0
00003070  3014                     move.w     D0, [A4]
00003072  4440                     neg.w      D0
00003074  3F00                     move.w     -[A7], D0
00003076  4EAD 20A2                jsr        [A5 + 0x20A2 /* export_1040, CODE:20 @ 00000F8C */]
0000307A  4CDF 1800                movem.l    A3,A4, [A7]+
0000307E  4E5E                     unlink     A6
00003080  4E75                     rts
export_716:
00003082  4E56 0000                link       A6, 0
00003086  102D E2E4                move.b     D0, [A5 - 0x1D1C]
0000308A  670A                     beq        +0xC /* 00003096 */
0000308C  2F2D ECE0                move.l     -[A7], [A5 - 0x1320]
00003090  4EAD 1D12                jsr        [A5 + 0x1D12 /* export_926, CODE:17 @ 00002B38 */]
00003094  6016                     bra        +0x18 /* 000030AC */
label00003096:
00003096  4EAD 2062                jsr        [A5 + 0x2062 /* export_1032, CODE:20 @ 00000C18 */]
0000309A  2F2D ECE8                move.l     -[A7], [A5 - 0x1318]
0000309E  2F2D ECE0                move.l     -[A7], [A5 - 0x1320]
000030A2  2F3C 0000 5580           move.l     -[A7], 0x5580
000030A8  4EAD 024A                jsr        [A5 + 0x24A /* export_69, CODE:1 @ 000046A6 */]
label000030AC:
000030AC  486D EE38                pea.l      [A5 - 0x11C8]
000030B0  A873                     syscall    SetPort
000030B2  486D ED36                pea.l      [A5 - 0x12CA]
000030B6  A875                     syscall    SetPBits/SetPortBits
000030B8  202E 000A                move.l     D0, [A6 + 0xA]
000030BC  B0AD F622                cmp.l      D0, [A5 - 0x9DE]
000030C0  660E                     bne        +0x10 /* 000030D0 */
000030C2  3F2E 0008                move.w     -[A7], [A6 + 0x8]
000030C6  3F3C 0003                move.w     -[A7], 0x3
000030CA  4EBA 0030                jsr        [PC + 0x30 /* 000030FC */]
000030CE  601E                     bra        +0x20 /* 000030EE */
label000030D0:
000030D0  2F3C 0002 0000           move.l     -[A7], 0x20000
000030D6  4EBA 0024                jsr        [PC + 0x24 /* 000030FC */]
000030DA  2F2D ECE0                move.l     -[A7], [A5 - 0x1320]
000030DE  4EBA 0500                jsr        [PC + 0x500 /* 000035E0 */]
000030E2  3F2E 0008                move.w     -[A7], [A6 + 0x8]
000030E6  3F3C 0003                move.w     -[A7], 0x3
000030EA  4EBA 0604                jsr        [PC + 0x604 /* 000036F0 */]
label000030EE:
000030EE  486D ED44                pea.l      [A5 - 0x12BC]
000030F2  A875                     syscall    SetPBits/SetPortBits
000030F4  4E5E                     unlink     A6
000030F6  205F                     movea.l    A0, [A7]+
000030F8  5C4F                     addq.w     A7, 6
000030FA  4ED0                     jmp        [A0]
export_717:
fn000030FC:
000030FC  4E56 FFFE                link       A6, -0x0002
00003100  1D6D EFE2 FFFF           move.b     [A6 - 0x1], [A5 - 0x101E]
00003106  102D EFDF                move.b     D0, [A5 - 0x1021]
0000310A  6704                     beq        +0x6 /* 00003110 */
0000310C  422D EFE2                clr.b      [A5 - 0x101E]
label00003110:
00003110  2F2E 0008                move.l     -[A7], [A6 + 0x8]
00003114  1F3C 0001                move.b     -[A7], 0x1
00003118  4EBA 0AC2                jsr        [PC + 0xAC2 /* 00003BDC */]
0000311C  1B6E FFFF EFE2           move.b     [A5 - 0x101E], [A6 - 0x1]
00003122  4E5E                     unlink     A6
00003124  2E9F                     move.l     [A7], [A7]+
00003126  4E75                     rts
fn00003128:
00003128  4E56 FFD0                link       A6, -0x0030
0000312C  48E7 0F08                movem.l    -[A7], D4,D5,D6,D7,A4
00003130  A89E                     syscall    PenNormal
00003132  286E 0008                movea.l    A4, [A6 + 0x8]
00003136  7000                     moveq.l    D0, 0x00
00003138  302C 000E                move.w     D0, [A4 + 0xE]
0000313C  C0BC 0000 000F           and.l      D0, 0xF
00003142  3800                     move.w     D4, D0
00003144  7000                     moveq.l    D0, 0x00
00003146  302C 000E                move.w     D0, [A4 + 0xE]
0000314A  C0BC FFFF 8000           and.l      D0, 0xFFFF8000
00003150  4A80                     tst.l      D0
00003152  56C0                     sne        D0
00003154  4400                     neg.b      D0
00003156  1D40 FFD9                move.b     [A6 - 0x27], D0
0000315A  7000                     moveq.l    D0, 0x00
0000315C  302C 000E                move.w     D0, [A4 + 0xE]
00003160  C0BC 0000 4000           and.l      D0, 0x4000 /* '@\0' */
00003166  4A80                     tst.l      D0
00003168  56C7                     sne        D7
0000316A  4407                     neg.b      D7
0000316C  2C2C 0010                move.l     D6, [A4 + 0x10]
00003170  302C 000A                move.w     D0, [A4 + 0xA]
00003174  D06C 0006                add.w      D0, [A4 + 0x6]
00003178  48C0                     ext.l      D0
0000317A  81FC 0002                divs.w     D0, 0x2
0000317E  3D40 FFD4                move.w     [A6 - 0x2C], D0
00003182  302C 000C                move.w     D0, [A4 + 0xC]
00003186  D06C 0008                add.w      D0, [A4 + 0x8]
0000318A  48C0                     ext.l      D0
0000318C  81FC 0002                divs.w     D0, 0x2
00003190  3D40 FFD2                move.w     [A6 - 0x2E], D0
00003194  3004                     move.w     D0, D4
00003196  6B00 0208                bmi        +0x20A /* 000033A0 */
0000319A  0C40 0006                cmpi.w     D0, 0x6
0000319E  6E00 0200                bgt        +0x202 /* 000033A0 */
000031A2  D040                     add.w      D0, D0
000031A4  303B 0006                move.w     D0, [PC + D0.w + 0x6]
000031A8  4EFB 0000                jmp        [PC + D0.w]
000031AC  0010 0030                ori.b      [A0], 0x30 /* '0' */
000031B0  005A 00D0                ori.w      [A2]+, 0xD0
000031B4  0076 012E 019C           ori.w      <<invalid full ext with I/IS == 4>>, 0x12E
000031BA  4A46                     tst.w      D6
000031BC  57C0                     seq        D0
000031BE  2207                     move.l     D1, D7
000031C0  C200                     and.b      D1, D0
000031C2  6706                     beq        +0x8 /* 000031CA */
000031C4  486C 0006                pea.l      [A4 + 0x6]
000031C8  A8A4                     syscall    InvertRect
label000031CA:
000031CA  102D EFE4                move.b     D0, [A5 - 0x101C]
000031CE  6706                     beq        +0x8 /* 000031D6 */
000031D0  486C 0006                pea.l      [A4 + 0x6]
000031D4  A8A1                     syscall    FrameRect
label000031D6:
000031D6  6000 01C8                bra        +0x1CA /* 000033A0 */
000031DA  1007                     move.b     D0, D7
000031DC  6708                     beq        +0xA /* 000031E6 */
000031DE  486C 0006                pea.l      [A4 + 0x6]
000031E2  A8A2                     syscall    PaintRect
000031E4  6006                     bra        +0x8 /* 000031EC */
label000031E6:
000031E6  486C 0006                pea.l      [A4 + 0x6]
000031EA  A8A3                     syscall    EraseRect
label000031EC:
000031EC  102D EFE4                move.b     D0, [A5 - 0x101C]
000031F0  670E                     beq        +0x10 /* 00003200 */
000031F2  486D FE90                pea.l      [A5 - 0x170]
000031F6  A89D                     syscall    PenPat
000031F8  486C 0006                pea.l      [A4 + 0x6]
000031FC  A8A1                     syscall    FrameRect
000031FE  A89E                     syscall    PenNormal
label00003200:
00003200  6000 019E                bra        +0x1A0 /* 000033A0 */
00003204  1007                     move.b     D0, D7
00003206  6708                     beq        +0xA /* 00003210 */
00003208  486C 0006                pea.l      [A4 + 0x6]
0000320C  A8A2                     syscall    PaintRect
0000320E  600C                     bra        +0xE /* 0000321C */
label00003210:
00003210  486C 0006                pea.l      [A4 + 0x6]
00003214  A8A3                     syscall    EraseRect
00003216  486C 0006                pea.l      [A4 + 0x6]
0000321A  A8A1                     syscall    FrameRect
label0000321C:
0000321C  6000 0182                bra        +0x184 /* 000033A0 */
00003220  2D6C 000A FFEC           move.l     [A6 - 0x14], [A4 + 0xA]
00003226  302C 0008                move.w     D0, [A4 + 0x8]
0000322A  5440                     addq.w     D0, 2
0000322C  3D40 FFEA                move.w     [A6 - 0x16], D0
00003230  302C 0006                move.w     D0, [A4 + 0x6]
00003234  5440                     addq.w     D0, 2
00003236  3D40 FFE8                move.w     [A6 - 0x18], D0
0000323A  486E FFE8                pea.l      [A6 - 0x18]
0000323E  A8A2                     syscall    PaintRect
00003240  2D6C 0006 FFE8           move.l     [A6 - 0x18], [A4 + 0x6]
00003246  302C 000C                move.w     D0, [A4 + 0xC]
0000324A  5340                     subq.w     D0, 1
0000324C  3D40 FFEE                move.w     [A6 - 0x12], D0
00003250  302C 000A                move.w     D0, [A4 + 0xA]
00003254  5340                     subq.w     D0, 1
00003256  3D40 FFEC                move.w     [A6 - 0x14], D0
0000325A  486E FFE8                pea.l      [A6 - 0x18]
0000325E  A8A2                     syscall    PaintRect
00003260  1007                     move.b     D0, D7
00003262  6612                     bne        +0x14 /* 00003276 */
00003264  486E FFE8                pea.l      [A6 - 0x18]
00003268  2F3C 0001 0001           move.l     -[A7], 0x10001
0000326E  A8A9                     syscall    InsetRect
00003270  486E FFE8                pea.l      [A6 - 0x18]
00003274  A8A3                     syscall    EraseRect
label00003276:
00003276  6000 0128                bra        +0x12A /* 000033A0 */
0000327A  2D6C 000A FFEC           move.l     [A6 - 0x14], [A4 + 0xA]
00003280  302C 0008                move.w     D0, [A4 + 0x8]
00003284  5240                     addq.w     D0, 1
00003286  3D40 FFEA                move.w     [A6 - 0x16], D0
0000328A  302C 0006                move.w     D0, [A4 + 0x6]
0000328E  5240                     addq.w     D0, 1
00003290  3D40 FFE8                move.w     [A6 - 0x18], D0
00003294  486E FFE8                pea.l      [A6 - 0x18]
00003298  2F3C 000F 000F           move.l     -[A7], 0xF000F
0000329E  A8B1                     syscall    PaintRoundRect
000032A0  486E FFE8                pea.l      [A6 - 0x18]
000032A4  2F3C FFFF FFFF           move.l     -[A7], 0xFFFFFFFF
000032AA  A8A8                     syscall    OffsetRect
000032AC  486E FFE8                pea.l      [A6 - 0x18]
000032B0  2F3C 000F 000F           move.l     -[A7], 0xF000F
000032B6  A8B1                     syscall    PaintRoundRect
000032B8  1007                     move.b     D0, D7
000032BA  6618                     bne        +0x1A /* 000032D4 */
000032BC  486E FFE8                pea.l      [A6 - 0x18]
000032C0  2F3C 0001 0001           move.l     -[A7], 0x10001
000032C6  A8A9                     syscall    InsetRect
000032C8  486E FFE8                pea.l      [A6 - 0x18]
000032CC  2F3C 000D 000D           move.l     -[A7], 0xD000D /* '\r\0\r' */
000032D2  A8B2                     syscall    EraseRoundRect
label000032D4:
000032D4  6000 00CA                bra        +0xCC /* 000033A0 */
000032D8  102D EFE4                move.b     D0, [A5 - 0x101C]
000032DC  6706                     beq        +0x8 /* 000032E4 */
000032DE  486C 0006                pea.l      [A4 + 0x6]
000032E2  A8A1                     syscall    FrameRect
label000032E4:
000032E4  4246                     clr.w      D6
000032E6  302E FFD4                move.w     D0, [A6 - 0x2C]
000032EA  5D40                     subq.w     D0, 6
000032EC  3D40 FFE8                move.w     [A6 - 0x18], D0
000032F0  302C 0008                move.w     D0, [A4 + 0x8]
000032F4  5640                     addq.w     D0, 3
000032F6  3D40 FFEA                move.w     [A6 - 0x16], D0
000032FA  D07C 000C                add.w      D0, 0xC
000032FE  3D40 FFEE                move.w     [A6 - 0x12], D0
00003302  302E FFE8                move.w     D0, [A6 - 0x18]
00003306  D07C 000C                add.w      D0, 0xC
0000330A  3D40 FFEC                move.w     [A6 - 0x14], D0
0000330E  486E FFE8                pea.l      [A6 - 0x18]
00003312  A8A3                     syscall    EraseRect
00003314  486E FFE8                pea.l      [A6 - 0x18]
00003318  A8A1                     syscall    FrameRect
0000331A  1007                     move.b     D0, D7
0000331C  6726                     beq        +0x28 /* 00003344 */
0000331E  2F2E FFE8                move.l     -[A7], [A6 - 0x18]
00003322  A893                     syscall    MoveTo
00003324  2F3C 000B 000B           move.l     -[A7], 0xB000B
0000332A  A892                     syscall    Line
0000332C  302E FFEE                move.w     D0, [A6 - 0x12]
00003330  5340                     subq.w     D0, 1
00003332  3F00                     move.w     -[A7], D0
00003334  3F2E FFE8                move.w     -[A7], [A6 - 0x18]
00003338  A893                     syscall    MoveTo
0000333A  2F3C 000B FFF5           move.l     -[A7], 0xBFFF5
00003340  A892                     syscall    Line
00003342  4207                     clr.b      D7
label00003344:
00003344  605A                     bra        +0x5C /* 000033A0 */
00003346  102D EFE4                move.b     D0, [A5 - 0x101C]
0000334A  6706                     beq        +0x8 /* 00003352 */
0000334C  486C 0006                pea.l      [A4 + 0x6]
00003350  A8A1                     syscall    FrameRect
label00003352:
00003352  4246                     clr.w      D6
00003354  302E FFD4                move.w     D0, [A6 - 0x2C]
00003358  5D40                     subq.w     D0, 6
0000335A  3D40 FFE8                move.w     [A6 - 0x18], D0
0000335E  302C 0008                move.w     D0, [A4 + 0x8]
00003362  5640                     addq.w     D0, 3
00003364  3D40 FFEA                move.w     [A6 - 0x16], D0
00003368  D07C 000C                add.w      D0, 0xC
0000336C  3D40 FFEE                move.w     [A6 - 0x12], D0
00003370  302E FFE8                move.w     D0, [A6 - 0x18]
00003374  D07C 000C                add.w      D0, 0xC
00003378  3D40 FFEC                move.w     [A6 - 0x14], D0
0000337C  486E FFE8                pea.l      [A6 - 0x18]
00003380  A8B9                     syscall    EraseOval
00003382  486E FFE8                pea.l      [A6 - 0x18]
00003386  A8B7                     syscall    FrameOval
00003388  1007                     move.b     D0, D7
0000338A  6714                     beq        +0x16 /* 000033A0 */
0000338C  486E FFE8                pea.l      [A6 - 0x18]
00003390  2F3C 0003 0003           move.l     -[A7], 0x30003
00003396  A8A9                     syscall    InsetRect
00003398  486E FFE8                pea.l      [A6 - 0x18]
0000339C  A8BA                     syscall    InvertOval
0000339E  4207                     clr.b      D7
label000033A0:
000033A0  4A46                     tst.w      D6
000033A2  6700 00E0                beq        +0xE2 /* 00003484 */
000033A6  302E FFD4                move.w     D0, [A6 - 0x2C]
000033AA  907C 0010                sub.w      D0, 0x10
000033AE  3D40 FFE0                move.w     [A6 - 0x20], D0
000033B2  102E FFD9                move.b     D0, [A6 - 0x27]
000033B6  670A                     beq        +0xC /* 000033C2 */
000033B8  302E FFE0                move.w     D0, [A6 - 0x20]
000033BC  5D40                     subq.w     D0, 6
000033BE  3D40 FFE0                move.w     [A6 - 0x20], D0
label000033C2:
000033C2  302E FFE0                move.w     D0, [A6 - 0x20]
000033C6  D07C 0020                add.w      D0, 0x20 /* ' ' */
000033CA  3D40 FFE4                move.w     [A6 - 0x1C], D0
000033CE  302E FFD2                move.w     D0, [A6 - 0x2E]
000033D2  907C 0010                sub.w      D0, 0x10
000033D6  3D40 FFE2                move.w     [A6 - 0x1E], D0
000033DA  D07C 0020                add.w      D0, 0x20 /* ' ' */
000033DE  3D40 FFE6                move.w     [A6 - 0x1A], D0
000033E2  BC6D E00C                cmp.w      D6, [A5 - 0x1FF4]
000033E6  6728                     beq        +0x2A /* 00003410 */
000033E8  42A7                     clr.l      -[A7]
000033EA  3F06                     move.w     -[A7], D6
000033EC  A9BB                     syscall    GetIcon
000033EE  2D5F FFDC                move.l     [A6 - 0x24], [A7]+
000033F2  6700 0090                beq        +0x92 /* 00003484 */
000033F6  206E FFDC                movea.l    A0, [A6 - 0x24]
000033FA  2F10                     move.l     -[A7], [A0]
000033FC  486D DEFC                pea.l      [A5 - 0x2104]
00003400  7020                     moveq.l    D0, 0x20
00003402  2F00                     move.l     -[A7], D0
00003404  4EAD 19BA                jsr        [A5 + 0x19BA /* export_819, CODE:16 @ 000010F8 */]
00003408  3B46 E00C                move.w     [A5 - 0x1FF4], D6
0000340C  422D E00B                clr.b      [A5 - 0x1FF5]
label00003410:
00003410  4A44                     tst.w      D4
00003412  664C                     bne        +0x4E /* 00003460 */
00003414  102D E00B                move.b     D0, [A5 - 0x1FF5]
00003418  6612                     bne        +0x14 /* 0000342C */
0000341A  486D DEFC                pea.l      [A5 - 0x2104]
0000341E  486D DF7C                pea.l      [A5 - 0x2084]
00003422  4EAD 1BB2                jsr        [A5 + 0x1BB2 /* export_882, CODE:17 @ 000005C2 */]
00003426  1B7C 0001 E00B           move.b     [A5 - 0x1FF5], 0x1
label0000342C:
0000342C  3D7C 0003 FFD0           move.w     [A6 - 0x30], 0x3
00003432  1007                     move.b     D0, D7
00003434  6706                     beq        +0x8 /* 0000343C */
00003436  3D7C 0001 FFD0           move.w     [A6 - 0x30], 0x1
label0000343C:
0000343C  41ED DF7C                lea.l      A0, [A5 - 0x2084]
00003440  2B48 DFFC                move.l     [A5 - 0x2004], A0
00003444  486D DFFC                pea.l      [A5 - 0x2004]
00003448  206D FEA8                movea.l    A0, [A5 - 0x158]
0000344C  4868 0002                pea.l      [A0 + 0x2]
00003450  486D E002                pea.l      [A5 - 0x1FFE]
00003454  486E FFE0                pea.l      [A6 - 0x20]
00003458  3F2E FFD0                move.w     -[A7], [A6 - 0x30]
0000345C  42A7                     clr.l      -[A7]
0000345E  A8EC                     syscall    CopyBits
label00003460:
00003460  41ED DEFC                lea.l      A0, [A5 - 0x2104]
00003464  2B48 DFFC                move.l     [A5 - 0x2004], A0
00003468  486D DFFC                pea.l      [A5 - 0x2004]
0000346C  206D FEA8                movea.l    A0, [A5 - 0x158]
00003470  4868 0002                pea.l      [A0 + 0x2]
00003474  486D E002                pea.l      [A5 - 0x1FFE]
00003478  486E FFE0                pea.l      [A6 - 0x20]
0000347C  3F3C 0002                move.w     -[A7], 0x2
00003480  42A7                     clr.l      -[A7]
00003482  A8EC                     syscall    CopyBits
label00003484:
00003484  102E FFD9                move.b     D0, [A6 - 0x27]
00003488  6700 014A                beq        +0x14C /* 000035D4 */
0000348C  202E 0008                move.l     D0, [A6 + 0x8]
00003490  721E                     moveq.l    D1, 0x1E
00003492  D081                     add.l      D0, D1
00003494  2D40 FFFC                move.l     [A6 - 0x4], D0
00003498  206E FFFC                movea.l    A0, [A6 - 0x4]
0000349C  4A10                     tst.b      [A0]
0000349E  6700 0134                beq        +0x136 /* 000035D4 */
000034A2  3F3A 013A                move.w     -[A7], [PC + 0x13A /* 000035DE, value 0x0, cstring "" */]
000034A6  A888                     syscall    TextFace
000034A8  4A46                     tst.w      D6
000034AA  6724                     beq        +0x26 /* 000034D0 */
000034AC  3F2D F2BC                move.w     -[A7], [A5 - 0xD44]
000034B0  A887                     syscall    TextFont
000034B2  3F3C 0009                move.w     -[A7], 0x9 /* '\t' */
000034B6  A88A                     syscall    TextSize
000034B8  302E FFF2                move.w     D0, [A6 - 0xE]
000034BC  48C0                     ext.l      D0
000034BE  81FC 0002                divs.w     D0, 0x2
000034C2  3A2E FFD2                move.w     D5, [A6 - 0x2E]
000034C6  9A40                     sub.w      D5, D0
000034C8  3D6E FFE4 FFF6           move.w     [A6 - 0xA], [A6 - 0x1C]
000034CE  6020                     bra        +0x22 /* 000034F0 */
label000034D0:
000034D0  3F2C 0016                move.w     -[A7], [A4 + 0x16]
000034D4  A887                     syscall    TextFont
000034D6  3F2C 0018                move.w     -[A7], [A4 + 0x18]
000034DA  A88A                     syscall    TextSize
000034DC  4240                     clr.w      D0
000034DE  102C 001A                move.b     D0, [A4 + 0x1A]
000034E2  3F00                     move.w     -[A7], D0
000034E4  A888                     syscall    TextFace
000034E6  302E FFD4                move.w     D0, [A6 - 0x2C]
000034EA  5D40                     subq.w     D0, 6
000034EC  3D40 FFF6                move.w     [A6 - 0xA], D0
label000034F0:
000034F0  42A7                     clr.l      -[A7]
000034F2  2F2E FFFC                move.l     -[A7], [A6 - 0x4]
000034F6  4EAD 1ADA                jsr        [A5 + 0x1ADA /* export_855, CODE:16 @ 00001C66 */]
000034FA  201F                     move.l     D0, [A7]+
000034FC  3D40 FFF0                move.w     [A6 - 0x10], D0
00003500  4267                     clr.w      -[A7]
00003502  2F2E FFFC                move.l     -[A7], [A6 - 0x4]
00003506  4267                     clr.w      -[A7]
00003508  3F2E FFF0                move.w     -[A7], [A6 - 0x10]
0000350C  A886                     syscall    TextWidth
0000350E  3D5F FFF2                move.w     [A6 - 0xE], [A7]+
00003512  3A2C 0008                move.w     D5, [A4 + 0x8]
00003516  5045                     addq.w     D5, 8
00003518  70FF                     moveq.l    D0, 0xFFFFFFFF
0000351A  B06C 0014                cmp.w      D0, [A4 + 0x14]
0000351E  660C                     bne        +0xE /* 0000352C */
00003520  302C 000C                move.w     D0, [A4 + 0xC]
00003524  5140                     subq.w     D0, 8
00003526  3A00                     move.w     D5, D0
00003528  9A6E FFF2                sub.w      D5, [A6 - 0xE]
label0000352C:
0000352C  7001                     moveq.l    D0, 0x01
0000352E  B06C 0014                cmp.w      D0, [A4 + 0x14]
00003532  6610                     bne        +0x12 /* 00003544 */
00003534  302E FFF2                move.w     D0, [A6 - 0xE]
00003538  48C0                     ext.l      D0
0000353A  81FC 0002                divs.w     D0, 0x2
0000353E  3A2E FFD2                move.w     D5, [A6 - 0x2E]
00003542  9A40                     sub.w      D5, D0
label00003544:
00003544  7006                     moveq.l    D0, 0x06
00003546  B044                     cmp.w      D0, D4
00003548  57C0                     seq        D0
0000354A  7205                     moveq.l    D1, 0x05
0000354C  B244                     cmp.w      D1, D4
0000354E  57C1                     seq        D1
00003550  8001                     or.b       D0, D1
00003552  6712                     beq        +0x14 /* 00003566 */
00003554  3A2C 0008                move.w     D5, [A4 + 0x8]
00003558  DA7C 0013                add.w      D5, 0x13
0000355C  302E FFD4                move.w     D0, [A6 - 0x2C]
00003560  5D40                     subq.w     D0, 6
00003562  3D40 FFF6                move.w     [A6 - 0xA], D0
label00003566:
00003566  4A44                     tst.w      D4
00003568  57C0                     seq        D0
0000356A  4A46                     tst.w      D6
0000356C  56C1                     sne        D1
0000356E  C001                     and.b      D0, D1
00003570  6738                     beq        +0x3A /* 000035AA */
00003572  3005                     move.w     D0, D5
00003574  5540                     subq.w     D0, 2
00003576  3D40 FFEA                move.w     [A6 - 0x16], D0
0000357A  302E FFF2                move.w     D0, [A6 - 0xE]
0000357E  D045                     add.w      D0, D5
00003580  5440                     addq.w     D0, 2
00003582  3D40 FFEE                move.w     [A6 - 0x12], D0
00003586  3D6E FFF6 FFE8           move.w     [A6 - 0x18], [A6 - 0xA]
0000358C  302E FFF6                move.w     D0, [A6 - 0xA]
00003590  D07C 000C                add.w      D0, 0xC
00003594  3D40 FFEC                move.w     [A6 - 0x14], D0
00003598  1007                     move.b     D0, D7
0000359A  6708                     beq        +0xA /* 000035A4 */
0000359C  486E FFE8                pea.l      [A6 - 0x18]
000035A0  A8A2                     syscall    PaintRect
000035A2  6006                     bra        +0x8 /* 000035AA */
label000035A4:
000035A4  486E FFE8                pea.l      [A6 - 0x18]
000035A8  A8A3                     syscall    EraseRect
label000035AA:
000035AA  3F05                     move.w     -[A7], D5
000035AC  302E FFF6                move.w     D0, [A6 - 0xA]
000035B0  D07C 000A                add.w      D0, 0xA /* '\n' */
000035B4  3F00                     move.w     -[A7], D0
000035B6  A893                     syscall    MoveTo
000035B8  1007                     move.b     D0, D7
000035BA  6706                     beq        +0x8 /* 000035C2 */
000035BC  3F3C 0002                move.w     -[A7], 0x2
000035C0  A889                     syscall    TextMode
label000035C2:
000035C2  2F2E FFFC                move.l     -[A7], [A6 - 0x4]
000035C6  4267                     clr.w      -[A7]
000035C8  3F2E FFF0                move.w     -[A7], [A6 - 0x10]
000035CC  A885                     syscall    DrawText
000035CE  3F3C 0001                move.w     -[A7], 0x1
000035D2  A889                     syscall    TextMode
label000035D4:
000035D4  4CDF 10F0                movem.l    D4,D5,D6,D7,A4, [A7]+
000035D8  4E5E                     unlink     A6
000035DA  2E9F                     move.l     [A7], [A7]+
000035DC  4E75                     rts
000035DE  0000 4E56                ori.b      D0, 0x56 /* 'V' */
// begin alternate branch 000035E0-000035E4
fn000035E0:
000035E0  4E56 FFE8                link       A6, -0x0018
// end alternate branch 000035E0-000035E4
fn000035E0: // (misaligned)
000035E2  FFE8                     .invalid   <<F/7/7>>
000035E4  48E7 0718                movem.l    -[A7], D5,D6,D7,A3,A4
000035E8  2E2E 0008                move.l     D7, [A6 + 0x8]
000035EC  102D E2E5                move.b     D0, [A5 - 0x1D1B]
000035F0  6600 00F4                bne        +0xF6 /* 000036E6 */
000035F4  4AAD E2EA                tst.l      [A5 - 0x1D16]
000035F8  57C0                     seq        D0
000035FA  122D E2E3                move.b     D1, [A5 - 0x1D1D]
000035FE  0A01 0001                xori.b     D1, 0x1
00003602  C001                     and.b      D0, D1
00003604  6600 00E0                bne        +0xE2 /* 000036E6 */
00003608  206D EE50                movea.l    A0, [A5 - 0x11B0]
0000360C  2050                     movea.l    A0, [A0]
0000360E  43EE FFE8                lea.l      A1, [A6 - 0x18]
00003612  5488                     addq.l     A0, 2
00003614  22D8                     move.l     [A1]+, [A0]+
00003616  22D8                     move.l     [A1]+, [A0]+
00003618  4267                     clr.w      -[A7]
0000361A  486E FFE8                pea.l      [A6 - 0x18]
0000361E  486D ED82                pea.l      [A5 - 0x127E]
00003622  A8A6                     syscall    EqualRect
00003624  101F                     move.b     D0, [A7]+
00003626  661C                     bne        +0x1E /* 00003644 */
00003628  102D E2FB                move.b     D0, [A5 - 0x1D05]
0000362C  6616                     bne        +0x18 /* 00003644 */
0000362E  2F2D E2EA                move.l     -[A7], [A5 - 0x1D16]
00003632  2F2D ECD4                move.l     -[A7], [A5 - 0x132C]
00003636  2F2D ECD0                move.l     -[A7], [A5 - 0x1330]
0000363A  4EBA CDCC                jsr        [PC - 0x3234 /* 00000408 */]
0000363E  1B7C 0001 E2FB           move.b     [A5 - 0x1D05], 0x1
label00003644:
00003644  102D E2FB                move.b     D0, [A5 - 0x1D05]
00003648  671C                     beq        +0x1E /* 00003666 */
0000364A  2F2D ECD4                move.l     -[A7], [A5 - 0x132C]
0000364E  2F2D ECD0                move.l     -[A7], [A5 - 0x1330]
00003652  2F07                     move.l     -[A7], D7
00003654  2F07                     move.l     -[A7], D7
00003656  486E FFE8                pea.l      [A6 - 0x18]
0000365A  3F3C FFFE                move.w     -[A7], 0xFFFE
0000365E  4EBA CE66                jsr        [PC - 0x319A /* 000004C6 */]
00003662  6000 0082                bra        +0x84 /* 000036E6 */
label00003666:
00003666  42A7                     clr.l      -[A7]
00003668  2F2D E2EA                move.l     -[A7], [A5 - 0x1D16]
0000366C  4EAD 1F72                jsr        [A5 + 0x1F72 /* export_1002, CODE:19 @ 00001718 */]
00003670  265F                     movea.l    A3, [A7]+
00003672  200B                     move.l     D0, A3
00003674  6606                     bne        +0x8 /* 0000367C */
00003676  4EAD 1812                jsr        [A5 + 0x1812 /* export_766, CODE:16 @ 00000208 */]
0000367A  606A                     bra        +0x6C /* 000036E6 */
label0000367C:
0000367C  2853                     movea.l    A4, [A3]
0000367E  4AAC 0034                tst.l      [A4 + 0x34]
00003682  6610                     bne        +0x12 /* 00003694 */
00003684  2F07                     move.l     -[A7], D7
00003686  486D FEA0                pea.l      [A5 - 0x160]
0000368A  486C 001C                pea.l      [A4 + 0x1C]
0000368E  4EBA 1568                jsr        [PC + 0x1568 /* 00004BF8 */]
00003692  6016                     bra        +0x18 /* 000036AA */
label00003694:
00003694  2C13                     move.l     D6, [A3]
00003696  703C                     moveq.l    D0, 0x3C
00003698  DC80                     add.l      D6, D0
label0000369A:
0000369A  2F06                     move.l     -[A7], D6
0000369C  2F07                     move.l     -[A7], D7
0000369E  486C 001C                pea.l      [A4 + 0x1C]
000036A2  3F3C 0003                move.w     -[A7], 0x3
000036A6  4EAD 229A                jsr        [A5 + 0x229A /* export_1103, CODE:20 @ 000059E2 */]
label000036AA:
000036AA  4AAC 0038                tst.l      [A4 + 0x38]
000036AE  6610                     bne        +0x12 /* 000036C0 */
000036B0  2F07                     move.l     -[A7], D7
000036B2  486D FE98                pea.l      [A5 - 0x168]
000036B6  486C 0024                pea.l      [A4 + 0x24]
000036BA  4EBA 153C                jsr        [PC + 0x153C /* 00004BF8 */]
000036BE  601C                     bra        +0x1E /* 000036DC */
label000036C0:
000036C0  2013                     move.l     D0, [A3]
000036C2  723C                     moveq.l    D1, 0x3C
000036C4  D081                     add.l      D0, D1
000036C6  2A2C 0034                move.l     D5, [A4 + 0x34]
000036CA  DA80                     add.l      D5, D0
000036CC  2F05                     move.l     -[A7], D5
000036CE  2F07                     move.l     -[A7], D7
000036D0  486C 0024                pea.l      [A4 + 0x24]
000036D4  3F3C 0001                move.w     -[A7], 0x1
000036D8  4EAD 229A                jsr        [A5 + 0x229A /* export_1103, CODE:20 @ 000059E2 */]
label000036DC:
000036DC  2F2D E2EA                move.l     -[A7], [A5 - 0x1D16]
000036E0  4267                     clr.w      -[A7]
000036E2  4EAD 1EEA                jsr        [A5 + 0x1EEA /* export_985, CODE:19 @ 00000432 */]
label000036E6:
000036E6  4CDF 18E0                movem.l    D5,D6,D7,A3,A4, [A7]+
000036EA  4E5E                     unlink     A6
000036EC  2E9F                     move.l     [A7], [A7]+
000036EE  4E75                     rts
export_718:
fn000036F0:
000036F0  4E56 0000                link       A6, 0
000036F4  2F2E 0008                move.l     -[A7], [A6 + 0x8]
000036F8  4267                     clr.w      -[A7]
000036FA  4EBA 04E0                jsr        [PC + 0x4E0 /* 00003BDC */]
000036FE  4E5E                     unlink     A6
00003700  2E9F                     move.l     [A7], [A7]+
00003702  4E75                     rts
fn00003704:
00003704  4E56 0000                link       A6, 0
00003708  7001                     moveq.l    D0, 0x01
0000370A  B06D EFDA                cmp.w      D0, [A5 - 0x1026]
0000370E  6606                     bne        +0x8 /* 00003716 */
00003710  4EAD 1382                jsr        [A5 + 0x1382 /* export_620, CODE:12 @ 00004D1A */]
00003714  6004                     bra        +0x6 /* 0000371A */
label00003716:
00003716  4EAD 008A                jsr        [A5 + 0x8A /* export_13, CODE:1 @ 000024E2 */]
label0000371A:
0000371A  4E5E                     unlink     A6
0000371C  4E75                     rts
export_719:
0000371E  4E56 0000                link       A6, 0
00003722  486D EE38                pea.l      [A5 - 0x11C8]
00003726  A873                     syscall    SetPort
00003728  486D ED36                pea.l      [A5 - 0x12CA]
0000372C  A875                     syscall    SetPBits/SetPortBits
0000372E  422D EFE2                clr.b      [A5 - 0x101E]
00003732  202E 000A                move.l     D0, [A6 + 0xA]
00003736  B0AD F622                cmp.l      D0, [A5 - 0x9DE]
0000373A  660E                     bne        +0x10 /* 0000374A */
0000373C  3F2E 0008                move.w     -[A7], [A6 + 0x8]
00003740  3F3C 0001                move.w     -[A7], 0x1
00003744  4EBA F9B6                jsr        [PC - 0x64A /* 000030FC */]
00003748  600C                     bra        +0xE /* 00003756 */
label0000374A:
0000374A  3F2E 0008                move.w     -[A7], [A6 + 0x8]
0000374E  3F3C 0001                move.w     -[A7], 0x1
00003752  4EBA FF9C                jsr        [PC - 0x64 /* 000036F0 */]
label00003756:
00003756  1B7C 0001 EFE2           move.b     [A5 - 0x101E], 0x1
0000375C  486D EE38                pea.l      [A5 - 0x11C8]
00003760  A873                     syscall    SetPort
00003762  486D ED44                pea.l      [A5 - 0x12BC]
00003766  A875                     syscall    SetPBits/SetPortBits
00003768  4E5E                     unlink     A6
0000376A  205F                     movea.l    A0, [A7]+
0000376C  5C4F                     addq.w     A7, 6
0000376E  4ED0                     jmp        [A0]
fn00003770:
00003770  4E56 FFFA                link       A6, -0x0006
00003774  48E7 0708                movem.l    -[A7], D5,D6,D7,A4
00003778  286E 0008                movea.l    A4, [A6 + 0x8]
0000377C  2F3C 0001 0001           move.l     -[A7], 0x10001
00003782  A89B                     syscall    PenSize
00003784  486D DEEC                pea.l      [A5 - 0x2114]
00003788  A89D                     syscall    PenPat
0000378A  206C 0010                movea.l    A0, [A4 + 0x10]
0000378E  3E28 001C                move.w     D7, [A0 + 0x1C]
00003792  4A47                     tst.w      D7
00003794  6E02                     bgt        +0x4 /* 00003798 */
00003796  6034                     bra        +0x36 /* 000037CC */
label00003798:
00003798  3007                     move.w     D0, D7
0000379A  48C0                     ext.l      D0
0000379C  81FC 0004                divs.w     D0, 0x4
000037A0  3A07                     move.w     D5, D7
000037A2  9A40                     sub.w      D5, D0
000037A4  3005                     move.w     D0, D5
000037A6  D06C FFE4                add.w      D0, [A4 - 0x1C]
000037AA  3C00                     move.w     D6, D0
000037AC  5246                     addq.w     D6, 1
label000037AE:
000037AE  BC6C FFE0                cmp.w      D6, [A4 - 0x20]
000037B2  6C18                     bge        +0x1A /* 000037CC */
000037B4  3F2C FFDE                move.w     -[A7], [A4 - 0x22]
000037B8  3F06                     move.w     -[A7], D6
000037BA  A893                     syscall    MoveTo
000037BC  302C FFE2                move.w     D0, [A4 - 0x1E]
000037C0  5340                     subq.w     D0, 1
000037C2  3F00                     move.w     -[A7], D0
000037C4  3F06                     move.w     -[A7], D6
000037C6  A891                     syscall    LineTo
000037C8  DC47                     add.w      D6, D7
000037CA  60E2                     bra        -0x1C /* 000037AE */
label000037CC:
000037CC  4CDF 10E0                movem.l    D5,D6,D7,A4, [A7]+
000037D0  4E5E                     unlink     A6
000037D2  2E9F                     move.l     [A7], [A7]+
000037D4  4E75                     rts
fn000037D6:
000037D6  4E56 FFD8                link       A6, -0x0028
000037DA  48E7 0F18                movem.l    -[A7], D4,D5,D6,D7,A3,A4
000037DE  206E 0010                movea.l    A0, [A6 + 0x10]
000037E2  3C28 0002                move.w     D6, [A0 + 0x2]
000037E6  102E 000E                move.b     D0, [A6 + 0xE]
000037EA  6606                     bne        +0x8 /* 000037F2 */
000037EC  3006                     move.w     D0, D6
000037EE  4440                     neg.w      D0
000037F0  3C00                     move.w     D6, D0
label000037F2:
000037F2  2F2E 0010                move.l     -[A7], [A6 + 0x10]
000037F6  1F2E 000E                move.b     -[A7], [A6 + 0xE]
000037FA  486E FFE4                pea.l      [A6 - 0x1C]
000037FE  486E FFDC                pea.l      [A6 - 0x24]
00003802  4EBA D034                jsr        [PC - 0x2FCC /* 00000838 */]
00003806  4A6D E00E                tst.w      [A5 - 0x1FF2]
0000380A  56C0                     sne        D0
0000380C  802E 000C                or.b       D0, [A6 + 0xC]
00003810  0240 0001                andi.w     D0, 0x1
00003814  1E00                     move.b     D7, D0
00003816  6720                     beq        +0x22 /* 00003838 */
00003818  42A7                     clr.l      -[A7]
0000381A  2F2E 0008                move.l     -[A7], [A6 + 0x8]
0000381E  3F06                     move.w     -[A7], D6
00003820  4EAD 1C32                jsr        [A5 + 0x1C32 /* export_898, CODE:17 @ 00000A32 */]
00003824  265F                     movea.l    A3, [A7]+
00003826  200B                     move.l     D0, A3
00003828  57C0                     seq        D0
0000382A  4A00                     tst.b      D0
0000382C  6608                     bne        +0xA /* 00003836 */
0000382E  4A13                     tst.b      [A3]
00003830  57C1                     seq        D1
00003832  8001                     or.b       D0, D1
00003834  6702                     beq        +0x4 /* 00003838 */
label00003836:
00003836  4207                     clr.b      D7
label00003838:
00003838  1007                     move.b     D0, D7
0000383A  6772                     beq        +0x74 /* 000038AE */
0000383C  206D E08C                movea.l    A0, [A5 - 0x1F74]
00003840  2850                     movea.l    A4, [A0]
00003842  41EE FFE4                lea.l      A0, [A6 - 0x1C]
00003846  224C                     movea.l    A1, A4
00003848  22D8                     move.l     [A1]+, [A0]+
0000384A  22D8                     move.l     [A1]+, [A0]+
0000384C  204C                     movea.l    A0, A4
0000384E  5088                     addq.l     A0, 8
00003850  43EE FFDC                lea.l      A1, [A6 - 0x24]
00003854  20D9                     move.l     [A0]+, [A1]+
00003856  20D9                     move.l     [A0]+, [A1]+
00003858  206E 0010                movea.l    A0, [A6 + 0x10]
0000385C  3968 001C 0018           move.w     [A4 + 0x18], [A0 + 0x1C]
00003862  302C 0018                move.w     D0, [A4 + 0x18]
00003866  48C0                     ext.l      D0
00003868  81FC 0004                divs.w     D0, 0x4
0000386C  322C 0018                move.w     D1, [A4 + 0x18]
00003870  9240                     sub.w      D1, D0
00003872  3941 001A                move.w     [A4 + 0x1A], D1
00003876  206E 0010                movea.l    A0, [A6 + 0x10]
0000387A  3968 0014 003A           move.w     [A4 + 0x3A], [A0 + 0x14]
00003880  206E 0010                movea.l    A0, [A6 + 0x10]
00003884  3968 0016 004A           move.w     [A4 + 0x4A], [A0 + 0x16]
0000388A  206E 0010                movea.l    A0, [A6 + 0x10]
0000388E  1968 001A 004C           move.b     [A4 + 0x4C], [A0 + 0x1A]
00003894  397C 0001 004E           move.w     [A4 + 0x4E], 0x1
0000389A  206E 0010                movea.l    A0, [A6 + 0x10]
0000389E  3968 0018 0050           move.w     [A4 + 0x50], [A0 + 0x18]
000038A4  2F0B                     move.l     -[A7], A3
000038A6  2F2D E08C                move.l     -[A7], [A5 - 0x1F74]
000038AA  4EBA F47A                jsr        [PC - 0xB86 /* 00002D26 */]
label000038AE:
000038AE  A89E                     syscall    PenNormal
000038B0  286E 0010                movea.l    A4, [A6 + 0x10]
000038B4  7000                     moveq.l    D0, 0x00
000038B6  302C 000E                move.w     D0, [A4 + 0xE]
000038BA  C0BC 0000 000F           and.l      D0, 0xF
000038C0  3A00                     move.w     D5, D0
000038C2  7000                     moveq.l    D0, 0x00
000038C4  302C 000E                move.w     D0, [A4 + 0xE]
000038C8  C0BC 0000 4000           and.l      D0, 0x4000 /* '@\0' */
000038CE  4A80                     tst.l      D0
000038D0  56C0                     sne        D0
000038D2  7207                     moveq.l    D1, 0x07
000038D4  B245                     cmp.w      D1, D5
000038D6  56C1                     sne        D1
000038D8  C001                     and.b      D0, D1
000038DA  4400                     neg.b      D0
000038DC  1800                     move.b     D4, D0
000038DE  102D EFE3                move.b     D0, [A5 - 0x101D]
000038E2  6702                     beq        +0x4 /* 000038E6 */
000038E4  7801                     moveq.l    D4, 0x01
label000038E6:
000038E6  3005                     move.w     D0, D5
000038E8  6716                     beq        +0x18 /* 00003900 */
000038EA  5340                     subq.w     D0, 1
000038EC  6722                     beq        +0x24 /* 00003910 */
000038EE  5340                     subq.w     D0, 1
000038F0  6734                     beq        +0x36 /* 00003926 */
000038F2  5540                     subq.w     D0, 2
000038F4  6740                     beq        +0x42 /* 00003936 */
000038F6  5740                     subq.w     D0, 3
000038F8  6700 008E                beq        +0x90 /* 00003988 */
000038FC  6000 00EA                bra        +0xEC /* 000039E8 */
label00003900:
00003900  102D EFE3                move.b     D0, [A5 - 0x101D]
00003904  6706                     beq        +0x8 /* 0000390C */
00003906  486C 0006                pea.l      [A4 + 0x6]
0000390A  A8A1                     syscall    FrameRect
label0000390C:
0000390C  6000 00DA                bra        +0xDC /* 000039E8 */
label00003910:
00003910  486C 0006                pea.l      [A4 + 0x6]
00003914  A8A3                     syscall    EraseRect
00003916  102D EFE3                move.b     D0, [A5 - 0x101D]
0000391A  6706                     beq        +0x8 /* 00003922 */
0000391C  486C 0006                pea.l      [A4 + 0x6]
00003920  A8A1                     syscall    FrameRect
label00003922:
00003922  6000 00C4                bra        +0xC6 /* 000039E8 */
label00003926:
00003926  486C 0006                pea.l      [A4 + 0x6]
0000392A  A8A3                     syscall    EraseRect
0000392C  486C 0006                pea.l      [A4 + 0x6]
00003930  A8A1                     syscall    FrameRect
00003932  6000 00B4                bra        +0xB6 /* 000039E8 */
label00003936:
00003936  2D6C 0006 FFF4           move.l     [A6 - 0xC], [A4 + 0x6]
0000393C  302C 000C                move.w     D0, [A4 + 0xC]
00003940  5540                     subq.w     D0, 2
00003942  3D40 FFFA                move.w     [A6 - 0x6], D0
00003946  302C 000A                move.w     D0, [A4 + 0xA]
0000394A  5540                     subq.w     D0, 2
0000394C  3D40 FFF8                move.w     [A6 - 0x8], D0
00003950  486E FFF4                pea.l      [A6 - 0xC]
00003954  A8A3                     syscall    EraseRect
00003956  486E FFF4                pea.l      [A6 - 0xC]
0000395A  A8A1                     syscall    FrameRect
0000395C  2F3C 0002 0002           move.l     -[A7], 0x20002
00003962  A89B                     syscall    PenSize
00003964  3F2E FFFA                move.w     -[A7], [A6 - 0x6]
00003968  302E FFF4                move.w     D0, [A6 - 0xC]
0000396C  5640                     addq.w     D0, 3
0000396E  3F00                     move.w     -[A7], D0
00003970  A893                     syscall    MoveTo
00003972  2F2E FFF8                move.l     -[A7], [A6 - 0x8]
00003976  A891                     syscall    LineTo
00003978  302E FFF6                move.w     D0, [A6 - 0xA]
0000397C  5640                     addq.w     D0, 3
0000397E  3F00                     move.w     -[A7], D0
00003980  3F2E FFF8                move.w     -[A7], [A6 - 0x8]
00003984  A891                     syscall    LineTo
00003986  6060                     bra        +0x62 /* 000039E8 */
label00003988:
00003988  486C 0006                pea.l      [A4 + 0x6]
0000398C  A8A3                     syscall    EraseRect
0000398E  486C 0006                pea.l      [A4 + 0x6]
00003992  A8A1                     syscall    FrameRect
00003994  7000                     moveq.l    D0, 0x00
00003996  2D40 FFF0                move.l     [A6 - 0x10], D0
0000399A  4A6D E00E                tst.w      [A5 - 0x1FF2]
0000399E  5EC0                     sgt        D0
000039A0  2207                     move.l     D1, D7
000039A2  C200                     and.b      D1, D0
000039A4  6732                     beq        +0x34 /* 000039D8 */
000039A6  206D E08C                movea.l    A0, [A5 - 0x1F74]
000039AA  2050                     movea.l    A0, [A0]
000039AC  3028 005E                move.w     D0, [A0 + 0x5E]
000039B0  C1EC 001C                muls.w     D0, [A4 + 0x1C]
000039B4  322E FFE0                move.w     D1, [A6 - 0x20]
000039B8  926E FFDC                sub.w      D1, [A6 - 0x24]
000039BC  9041                     sub.w      D0, D1
000039BE  3D40 FFD8                move.w     [A6 - 0x28], D0
000039C2  4A6E FFD8                tst.w      [A6 - 0x28]
000039C6  6F10                     ble        +0x12 /* 000039D8 */
000039C8  42A7                     clr.l      -[A7]
000039CA  3F2D E00E                move.w     -[A7], [A5 - 0x1FF2]
000039CE  3F2E FFD8                move.w     -[A7], [A6 - 0x28]
000039D2  A869                     syscall    FixRatio
000039D4  2D5F FFF0                move.l     [A6 - 0x10], [A7]+
label000039D8:
000039D8  206E 0010                movea.l    A0, [A6 + 0x10]
000039DC  4868 0006                pea.l      [A0 + 0x6]
000039E0  2F2E FFF0                move.l     -[A7], [A6 - 0x10]
000039E4  4EBA 0494                jsr        [PC + 0x494 /* 00003E7A */]
label000039E8:
000039E8  1004                     move.b     D0, D4
000039EA  6706                     beq        +0x8 /* 000039F2 */
000039EC  2F0E                     move.l     -[A7], A6
000039EE  4EBA FD80                jsr        [PC - 0x280 /* 00003770 */]
label000039F2:
000039F2  A89E                     syscall    PenNormal
000039F4  2007                     move.l     D0, D7
000039F6  C02E 000C                and.b      D0, [A6 + 0xC]
000039FA  6718                     beq        +0x1A /* 00003A14 */
000039FC  41ED E014                lea.l      A0, [A5 - 0x1FEC]
00003A00  2B48 EEA0                move.l     [A5 - 0x1160], A0
00003A04  486E FFDC                pea.l      [A6 - 0x24]
00003A08  2F2D E08C                move.l     -[A7], [A5 - 0x1F74]
00003A0C  A9D3                     syscall    TEUpdate
00003A0E  2B6D E010 EEA0           move.l     [A5 - 0x1160], [A5 - 0x1FF0]
label00003A14:
00003A14  4CDF 18F0                movem.l    D4,D5,D6,D7,A3,A4, [A7]+
00003A18  4E5E                     unlink     A6
00003A1A  205F                     movea.l    A0, [A7]+
00003A1C  DEFC 000C                add.w      A7, 0xC
00003A20  4ED0                     jmp        [A0]
export_720:
00003A22  4E56 0000                link       A6, 0
00003A26  486D EE38                pea.l      [A5 - 0x11C8]
00003A2A  A873                     syscall    SetPort
00003A2C  2F2D ECDC                move.l     -[A7], [A5 - 0x1324]
00003A30  70FF                     moveq.l    D0, 0xFFFFFFFF
00003A32  2F00                     move.l     -[A7], D0
00003A34  486D ED82                pea.l      [A5 - 0x127E]
00003A38  4EBA 10DC                jsr        [PC + 0x10DC /* 00004B16 */]
00003A3C  2F2D ECD8                move.l     -[A7], [A5 - 0x1328]
00003A40  4EAD 1D12                jsr        [A5 + 0x1D12 /* export_926, CODE:17 @ 00002B38 */]
00003A44  202E 000A                move.l     D0, [A6 + 0xA]
00003A48  B0AD F622                cmp.l      D0, [A5 - 0x9DE]
00003A4C  6600 00A0                bne        +0xA2 /* 00003AEE */
00003A50  486D ED28                pea.l      [A5 - 0x12D8]
00003A54  A875                     syscall    SetPBits/SetPortBits
00003A56  3F2E 0008                move.w     -[A7], [A6 + 0x8]
00003A5A  3F3C 0004                move.w     -[A7], 0x4
00003A5E  4EBA F69C                jsr        [PC - 0x964 /* 000030FC */]
00003A62  486D ED1A                pea.l      [A5 - 0x12E6]
00003A66  A875                     syscall    SetPBits/SetPortBits
00003A68  3F2E 0008                move.w     -[A7], [A6 + 0x8]
00003A6C  3F3C 0004                move.w     -[A7], 0x4
00003A70  4EBA F68A                jsr        [PC - 0x976 /* 000030FC */]
00003A74  102D EFDF                move.b     D0, [A5 - 0x1021]
00003A78  6672                     bne        +0x74 /* 00003AEC */
00003A7A  102D E2E5                move.b     D0, [A5 - 0x1D1B]
00003A7E  664C                     bne        +0x4E /* 00003ACC */
00003A80  102D E2FB                move.b     D0, [A5 - 0x1D05]
00003A84  6616                     bne        +0x18 /* 00003A9C */
00003A86  2F2D E2EA                move.l     -[A7], [A5 - 0x1D16]
00003A8A  2F2D ECD4                move.l     -[A7], [A5 - 0x132C]
00003A8E  2F2D ECD0                move.l     -[A7], [A5 - 0x1330]
00003A92  4EBA C974                jsr        [PC - 0x368C /* 00000408 */]
00003A96  1B7C 0001 E2FB           move.b     [A5 - 0x1D05], 0x1
label00003A9C:
00003A9C  2F2D ECD4                move.l     -[A7], [A5 - 0x132C]
00003AA0  2F2D ECDC                move.l     -[A7], [A5 - 0x1324]
00003AA4  486D ED82                pea.l      [A5 - 0x127E]
00003AA8  3F3C 0003                move.w     -[A7], 0x3
00003AAC  4EBA CB12                jsr        [PC - 0x34EE /* 000005C0 */]
00003AB0  2F2D ECD4                move.l     -[A7], [A5 - 0x132C]
00003AB4  2F2D ECD0                move.l     -[A7], [A5 - 0x1330]
00003AB8  2F2D ECD8                move.l     -[A7], [A5 - 0x1328]
00003ABC  2F2D ECD8                move.l     -[A7], [A5 - 0x1328]
00003AC0  486D ED82                pea.l      [A5 - 0x127E]
00003AC4  3F3C FFFE                move.w     -[A7], 0xFFFE
00003AC8  4EBA C9FC                jsr        [PC - 0x3604 /* 000004C6 */]
label00003ACC:
00003ACC  486D ED28                pea.l      [A5 - 0x12D8]
00003AD0  A875                     syscall    SetPBits/SetPortBits
00003AD2  2F3C 0002 0000           move.l     -[A7], 0x20000
00003AD8  4EBA FC16                jsr        [PC - 0x3EA /* 000036F0 */]
00003ADC  486D ED1A                pea.l      [A5 - 0x12E6]
00003AE0  A875                     syscall    SetPBits/SetPortBits
00003AE2  2F3C 0002 0000           move.l     -[A7], 0x20000
00003AE8  4EBA FC06                jsr        [PC - 0x3FA /* 000036F0 */]
label00003AEC:
00003AEC  6024                     bra        +0x26 /* 00003B12 */
label00003AEE:
00003AEE  486D ED28                pea.l      [A5 - 0x12D8]
00003AF2  A875                     syscall    SetPBits/SetPortBits
00003AF4  3F2E 0008                move.w     -[A7], [A6 + 0x8]
00003AF8  3F3C 0004                move.w     -[A7], 0x4
00003AFC  4EBA FBF2                jsr        [PC - 0x40E /* 000036F0 */]
00003B00  486D ED1A                pea.l      [A5 - 0x12E6]
00003B04  A875                     syscall    SetPBits/SetPortBits
00003B06  3F2E 0008                move.w     -[A7], [A6 + 0x8]
00003B0A  3F3C 0004                move.w     -[A7], 0x4
00003B0E  4EBA FBE0                jsr        [PC - 0x420 /* 000036F0 */]
label00003B12:
00003B12  486D ED44                pea.l      [A5 - 0x12BC]
00003B16  A875                     syscall    SetPBits/SetPortBits
00003B18  A89E                     syscall    PenNormal
00003B1A  4E5E                     unlink     A6
00003B1C  205F                     movea.l    A0, [A7]+
00003B1E  5C4F                     addq.w     A7, 6
00003B20  4ED0                     jmp        [A0]
export_721:
00003B22  4E56 FFF4                link       A6, -0x000C
00003B26  422E 000C                clr.b      [A6 + 0xC]
00003B2A  2D6D F62A FFFC           move.l     [A6 - 0x4], [A5 - 0x9D6]
00003B30  2D6D F622 FFF8           move.l     [A6 - 0x8], [A5 - 0x9DE]
00003B36  2D6D F4E0 FFF4           move.l     [A6 - 0xC], [A5 - 0xB20]
00003B3C  7001                     moveq.l    D0, 0x01
00003B3E  B06D EFDA                cmp.w      D0, [A5 - 0x1026]
00003B42  6606                     bne        +0x8 /* 00003B4A */
00003B44  4EAD 1332                jsr        [A5 + 0x1332 /* export_610, CODE:12 @ 000000DA */]
00003B48  6004                     bra        +0x6 /* 00003B4E */
label00003B4A:
00003B4A  4EAD 0032                jsr        [A5 + 0x32 /* export_2, CODE:1 @ 00000196 */]
label00003B4E:
00003B4E  4EAD 2092                jsr        [A5 + 0x2092 /* export_1038, CODE:20 @ 00000E20 */]
00003B52  4267                     clr.w      -[A7]
00003B54  2F2E 0008                move.l     -[A7], [A6 + 0x8]
00003B58  4EAD 204A                jsr        [A5 + 0x204A /* export_1029, CODE:20 @ 000004A6 */]
00003B5C  101F                     move.b     D0, [A7]+
00003B5E  671C                     beq        +0x1E /* 00003B7C */
00003B60  7001                     moveq.l    D0, 0x01
00003B62  B06D EFDA                cmp.w      D0, [A5 - 0x1026]
00003B66  6606                     bne        +0x8 /* 00003B6E */
00003B68  4EAD 132A                jsr        [A5 + 0x132A /* export_609, CODE:12 @ 00000098 */]
00003B6C  6004                     bra        +0x6 /* 00003B72 */
label00003B6E:
00003B6E  4EAD 002A                jsr        [A5 + 0x2A /* export_1, CODE:1 @ 000000B0 */]
label00003B72:
00003B72  4EAD 2092                jsr        [A5 + 0x2092 /* export_1038, CODE:20 @ 00000E20 */]
00003B76  1D7C 0001 000C           move.b     [A6 + 0xC], 0x1
label00003B7C:
00003B7C  426D E09E                clr.w      [A5 - 0x1F62]
00003B80  4E5E                     unlink     A6
00003B82  2E9F                     move.l     [A7], [A7]+
00003B84  4E75                     rts
export_722:
00003B86  4E56 FFFC                link       A6, -0x0004
00003B8A  486E FFFC                pea.l      [A6 - 0x4]
00003B8E  A874                     syscall    GetPort
00003B90  2F2D EDB8                move.l     -[A7], [A5 - 0x1248]
00003B94  A873                     syscall    SetPort
00003B96  A89E                     syscall    PenNormal
00003B98  486D FE90                pea.l      [A5 - 0x170]
00003B9C  A89D                     syscall    PenPat
00003B9E  302D EDB2                move.w     D0, [A5 - 0x124E]
00003BA2  D07C 000C                add.w      D0, 0xC
00003BA6  3F00                     move.w     -[A7], D0
00003BA8  302D EDB4                move.w     D0, [A5 - 0x124C]
00003BAC  5240                     addq.w     D0, 1
00003BAE  3F00                     move.w     -[A7], D0
00003BB0  A893                     syscall    MoveTo
00003BB2  302D EDB6                move.w     D0, [A5 - 0x124A]
00003BB6  907C 000C                sub.w      D0, 0xC
00003BBA  3F00                     move.w     -[A7], D0
00003BBC  302D EDB4                move.w     D0, [A5 - 0x124C]
00003BC0  5240                     addq.w     D0, 1
00003BC2  3F00                     move.w     -[A7], D0
00003BC4  A891                     syscall    LineTo
00003BC6  A89E                     syscall    PenNormal
00003BC8  486D EDB0                pea.l      [A5 - 0x1250]
00003BCC  2F2D EDAC                move.l     -[A7], [A5 - 0x1254]
00003BD0  A9D3                     syscall    TEUpdate
00003BD2  2F2E FFFC                move.l     -[A7], [A6 - 0x4]
00003BD6  A873                     syscall    SetPort
00003BD8  4E5E                     unlink     A6
00003BDA  4E75                     rts
export_723:
fn00003BDC:
00003BDC  4E56 FFD2                link       A6, -0x002E
00003BE0  48E7 0F18                movem.l    -[A7], D4,D5,D6,D7,A3,A4
00003BE4  7E00                     moveq.l    D7, 0x00
00003BE6  42A7                     clr.l      -[A7]
00003BE8  2F2D F62A                move.l     -[A7], [A5 - 0x9D6]
00003BEC  4EAD 1F7A                jsr        [A5 + 0x1F7A /* export_1003, CODE:19 @ 00001744 */]
00003BF0  265F                     movea.l    A3, [A7]+
00003BF2  200B                     move.l     D0, A3
00003BF4  6700 01A0                beq        +0x1A2 /* 00003D96 */
00003BF8  2F0B                     move.l     -[A7], A3
00003BFA  486E FFD6                pea.l      [A6 - 0x2A]
00003BFE  4EAD 1922                jsr        [A5 + 0x1922 /* export_800, CODE:16 @ 00000C02 */]
00003C02  42A7                     clr.l      -[A7]
00003C04  2F2D F622                move.l     -[A7], [A5 - 0x9DE]
00003C08  4EAD 1F6A                jsr        [A5 + 0x1F6A /* export_1001, CODE:19 @ 000016EC */]
00003C0C  2E1F                     move.l     D7, [A7]+
00003C0E  6700 0186                beq        +0x188 /* 00003D96 */
00003C12  2F07                     move.l     -[A7], D7
00003C14  486E FFD5                pea.l      [A6 - 0x2B]
00003C18  4EAD 1922                jsr        [A5 + 0x1922 /* export_800, CODE:16 @ 00000C02 */]
00003C1C  486D EE38                pea.l      [A5 - 0x11C8]
00003C20  A873                     syscall    SetPort
00003C22  486D E014                pea.l      [A5 - 0x1FEC]
00003C26  A8EA                     syscall    SetStdProcs
00003C28  41ED 2022                lea.l      A0, [A5 + 0x2022 /* export_1024, CODE:20 @ 00000310 */]
00003C2C  2B48 E01C                move.l     [A5 - 0x1FE4], A0
00003C30  2B6D EEA0 E010           move.l     [A5 - 0x1FF0], [A5 - 0x1160]
00003C36  206D EE50                movea.l    A0, [A5 - 0x11B0]
00003C3A  2050                     movea.l    A0, [A0]
00003C3C  43EE FFE6                lea.l      A1, [A6 - 0x1A]
00003C40  5488                     addq.l     A0, 2
00003C42  22D8                     move.l     [A1]+, [A0]+
00003C44  22D8                     move.l     [A1]+, [A0]+
00003C46  102E 0008                move.b     D0, [A6 + 0x8]
00003C4A  6718                     beq        +0x1A /* 00003C64 */
00003C4C  2047                     movea.l    A0, D7
00003C4E  2850                     movea.l    A4, [A0]
00003C50  702E                     moveq.l    D0, 0x2E
00003C52  D9C0                     add.l      A4, D0
00003C54  2047                     movea.l    A0, D7
00003C56  2050                     movea.l    A0, [A0]
00003C58  3D68 0020 FFF8           move.w     [A6 - 0x8], [A0 + 0x20]
00003C5E  282D F622                move.l     D4, [A5 - 0x9DE]
00003C62  6012                     bra        +0x14 /* 00003C76 */
label00003C64:
00003C64  2853                     movea.l    A4, [A3]
00003C66  7032                     moveq.l    D0, 0x32
00003C68  D9C0                     add.l      A4, D0
00003C6A  2053                     movea.l    A0, [A3]
00003C6C  3D68 0024 FFF8           move.w     [A6 - 0x8], [A0 + 0x24]
00003C72  282D F62A                move.l     D4, [A5 - 0x9D6]
label00003C76:
00003C76  41ED E2D2                lea.l      A0, [A5 - 0x1D2E]
00003C7A  43ED ED8A                lea.l      A1, [A5 - 0x1276]
00003C7E  20D9                     move.l     [A0]+, [A1]+
00003C80  20D9                     move.l     [A0]+, [A1]+
00003C82  7002                     moveq.l    D0, 0x02
00003C84  B06E 000A                cmp.w      D0, [A6 + 0xA]
00003C88  57C0                     seq        D0
00003C8A  7203                     moveq.l    D1, 0x03
00003C8C  B26E 000A                cmp.w      D1, [A6 + 0xA]
00003C90  57C1                     seq        D1
00003C92  8001                     or.b       D0, D1
00003C94  4400                     neg.b      D0
00003C96  1C00                     move.b     D6, D0
00003C98  3D6E FFF8 FFD2           move.w     [A6 - 0x2E], [A6 - 0x8]
00003C9E  3D7C 0001 FFFA           move.w     [A6 - 0x6], 0x1
00003CA4  6000 00D0                bra        +0xD2 /* 00003D76 */
label00003CA8:
00003CA8  1A06                     move.b     D5, D6
00003CAA  302C 0002                move.w     D0, [A4 + 0x2]
00003CAE  B06E 000C                cmp.w      D0, [A6 + 0xC]
00003CB2  6636                     bne        +0x38 /* 00003CEA */
00003CB4  302E 000A                move.w     D0, [A6 + 0xA]
00003CB8  5340                     subq.w     D0, 1
00003CBA  6712                     beq        +0x14 /* 00003CCE */
00003CBC  5340                     subq.w     D0, 1
00003CBE  6714                     beq        +0x16 /* 00003CD4 */
00003CC0  5340                     subq.w     D0, 1
00003CC2  6716                     beq        +0x18 /* 00003CDA */
00003CC4  5340                     subq.w     D0, 1
00003CC6  6718                     beq        +0x1A /* 00003CE0 */
00003CC8  5340                     subq.w     D0, 1
00003CCA  671A                     beq        +0x1C /* 00003CE6 */
00003CCC  601C                     bra        +0x1E /* 00003CEA */
label00003CCE:
00003CCE  7A01                     moveq.l    D5, 0x01
00003CD0  4206                     clr.b      D6
00003CD2  6016                     bra        +0x18 /* 00003CEA */
label00003CD4:
00003CD4  7A01                     moveq.l    D5, 0x01
00003CD6  7C01                     moveq.l    D6, 0x01
00003CD8  6010                     bra        +0x12 /* 00003CEA */
label00003CDA:
00003CDA  4205                     clr.b      D5
00003CDC  4206                     clr.b      D6
00003CDE  600A                     bra        +0xC /* 00003CEA */
label00003CE0:
00003CE0  4205                     clr.b      D5
00003CE2  7C01                     moveq.l    D6, 0x01
00003CE4  6004                     bra        +0x6 /* 00003CEA */
label00003CE6:
00003CE6  7A01                     moveq.l    D5, 0x01
00003CE8  7C01                     moveq.l    D6, 0x01
label00003CEA:
00003CEA  1005                     move.b     D0, D5
00003CEC  677C                     beq        +0x7E /* 00003D6A */
00003CEE  4A2C 0005                tst.b      [A4 + 0x5]
00003CF2  5CC1                     sge        D1
00003CF4  C001                     and.b      D0, D1
00003CF6  4A00                     tst.b      D0
00003CF8  6770                     beq        +0x72 /* 00003D6A */
00003CFA  2F00                     move.l     -[A7], D0
00003CFC  4267                     clr.w      -[A7]
00003CFE  486C 0006                pea.l      [A4 + 0x6]
00003D02  486E FFE6                pea.l      [A6 - 0x1A]
00003D06  206D EE54                movea.l    A0, [A5 - 0x11AC]
00003D0A  2050                     movea.l    A0, [A0]
00003D0C  4868 0002                pea.l      [A0 + 0x2]
00003D10  A8AA                     syscall    SectRect
00003D12  121F                     move.b     D1, [A7]+
00003D14  201F                     move.l     D0, [A7]+
00003D16  C001                     and.b      D0, D1
00003D18  6750                     beq        +0x52 /* 00003D6A */
00003D1A  486C 0006                pea.l      [A4 + 0x6]
00003D1E  486D E2D2                pea.l      [A5 - 0x1D2E]
00003D22  4EAD 1CEA                jsr        [A5 + 0x1CEA /* export_921, CODE:17 @ 00001DBA */]
00003D26  102C 0004                move.b     D0, [A4 + 0x4]
00003D2A  4880                     ext.w      D0
00003D2C  5340                     subq.w     D0, 1
00003D2E  6706                     beq        +0x8 /* 00003D36 */
00003D30  5340                     subq.w     D0, 1
00003D32  670A                     beq        +0xC /* 00003D3E */
00003D34  6034                     bra        +0x36 /* 00003D6A */
label00003D36:
00003D36  2F0C                     move.l     -[A7], A4
00003D38  4EBA F3EE                jsr        [PC - 0xC12 /* 00003128 */]
00003D3C  602C                     bra        +0x2E /* 00003D6A */
label00003D3E:
00003D3E  1D6D EFE2 FFD7           move.b     [A6 - 0x29], [A5 - 0x101E]
00003D44  102D EFE1                move.b     D0, [A5 - 0x101F]
00003D48  6710                     beq        +0x12 /* 00003D5A */
00003D4A  4267                     clr.w      -[A7]
00003D4C  2F04                     move.l     -[A7], D4
00003D4E  3F2C 0002                move.w     -[A7], [A4 + 0x2]
00003D52  4EBA 0B3E                jsr        [PC + 0xB3E /* 00004892 */]
00003D56  1D5F FFD7                move.b     [A6 - 0x29], [A7]+
label00003D5A:
00003D5A  2F0C                     move.l     -[A7], A4
00003D5C  1F2E 0008                move.b     -[A7], [A6 + 0x8]
00003D60  1F2E FFD7                move.b     -[A7], [A6 - 0x29]
00003D64  2F0B                     move.l     -[A7], A3
00003D66  4EBA FA6E                jsr        [PC - 0x592 /* 000037D6 */]
label00003D6A:
00003D6A  3014                     move.w     D0, [A4]
00003D6C  48C0                     ext.l      D0
00003D6E  D9C0                     add.l      A4, D0
00003D70  526E FFFA                addq.w     [A6 - 0x6], 1
00003D74  690C                     bvs        +0xE /* 00003D82 */
label00003D76:
00003D76  302E FFFA                move.w     D0, [A6 - 0x6]
00003D7A  B06E FFD2                cmp.w      D0, [A6 - 0x2E]
00003D7E  6F00 FF28                ble        -0xD6 /* 00003CA8 */
label00003D82:
00003D82  206D EE54                movea.l    A0, [A5 - 0x11AC]
00003D86  2050                     movea.l    A0, [A0]
00003D88  5488                     addq.l     A0, 2
00003D8A  43ED ED82                lea.l      A1, [A5 - 0x127E]
00003D8E  20D9                     move.l     [A0]+, [A1]+
00003D90  20D9                     move.l     [A0]+, [A1]+
00003D92  4EAD 2262                jsr        [A5 + 0x2262 /* export_1096, CODE:20 @ 0000535A */]
label00003D96:
00003D96  200B                     move.l     D0, A3
00003D98  6714                     beq        +0x16 /* 00003DAE */
00003D9A  2F0B                     move.l     -[A7], A3
00003D9C  1F2E FFD6                move.b     -[A7], [A6 - 0x2A]
00003DA0  4EAD 03F2                jsr        [A5 + 0x3F2 /* export_122, CODE:1 @ 00004D00 */]
00003DA4  2F2D F62A                move.l     -[A7], [A5 - 0x9D6]
00003DA8  4267                     clr.w      -[A7]
00003DAA  4EAD 1EF2                jsr        [A5 + 0x1EF2 /* export_986, CODE:19 @ 00000450 */]
label00003DAE:
00003DAE  4A87                     tst.l      D7
00003DB0  6714                     beq        +0x16 /* 00003DC6 */
00003DB2  2F07                     move.l     -[A7], D7
00003DB4  1F2E FFD5                move.b     -[A7], [A6 - 0x2B]
00003DB8  4EAD 03F2                jsr        [A5 + 0x3F2 /* export_122, CODE:1 @ 00004D00 */]
00003DBC  2F2D F622                move.l     -[A7], [A5 - 0x9DE]
00003DC0  4267                     clr.w      -[A7]
00003DC2  4EAD 1EE2                jsr        [A5 + 0x1EE2 /* export_984, CODE:19 @ 00000414 */]
label00003DC6:
00003DC6  4CDF 18F0                movem.l    D4,D5,D6,D7,A3,A4, [A7]+
00003DCA  4E5E                     unlink     A6
00003DCC  205F                     movea.l    A0, [A7]+
00003DCE  5C4F                     addq.w     A7, 6
00003DD0  4ED0                     jmp        [A0]
export_724:
fn00003DD2:
00003DD2  4E56 FFEE                link       A6, -0x0012
00003DD6  206E 0008                movea.l    A0, [A6 + 0x8]
00003DDA  43EE FFF8                lea.l      A1, [A6 - 0x8]
00003DDE  22D8                     move.l     [A1]+, [A0]+
00003DE0  22D8                     move.l     [A1]+, [A0]+
00003DE2  102D EF40                move.b     D0, [A5 - 0x10C0]
00003DE6  6704                     beq        +0x6 /* 00003DEC */
00003DE8  4EBA C9EC                jsr        [PC - 0x3614 /* 000007D6 */]
label00003DEC:
00003DEC  4A6D FD8A                tst.w      [A5 - 0x276]
00003DF0  5DC0                     slt        D0
00003DF2  222D FEA8                move.l     D1, [A5 - 0x158]
00003DF6  B2AD EDC0                cmp.l      D1, [A5 - 0x1240]
00003DFA  57C1                     seq        D1
00003DFC  C001                     and.b      D0, D1
00003DFE  6708                     beq        +0xA /* 00003E08 */
00003E00  1B7C 0001 DC53           move.b     [A5 - 0x23AD], 0x1
00003E06  606C                     bra        +0x6E /* 00003E74 */
label00003E08:
00003E08  486E FFF8                pea.l      [A6 - 0x8]
00003E0C  A87B                     syscall    ClipRect
00003E0E  486D EF32                pea.l      [A5 - 0x10CE]
00003E12  206D FEA8                movea.l    A0, [A5 - 0x158]
00003E16  4868 0002                pea.l      [A0 + 0x2]
00003E1A  486D EF38                pea.l      [A5 - 0x10C8]
00003E1E  486E FFF8                pea.l      [A6 - 0x8]
00003E22  4267                     clr.w      -[A7]
00003E24  42A7                     clr.l      -[A7]
00003E26  A8EC                     syscall    CopyBits
00003E28  3F2D EF42                move.w     -[A7], [A5 - 0x10BE]
00003E2C  486E FFEE                pea.l      [A6 - 0x12]
00003E30  4EBA CB92                jsr        [PC - 0x346E /* 000009C4 */]
00003E34  486E FFEE                pea.l      [A6 - 0x12]
00003E38  2F2E FFF8                move.l     -[A7], [A6 - 0x8]
00003E3C  A8A8                     syscall    OffsetRect
00003E3E  A89E                     syscall    PenNormal
00003E40  486E FFEE                pea.l      [A6 - 0x12]
00003E44  2F3C FFFB FFFB           move.l     -[A7], 0xFFFBFFFB
00003E4A  A8A9                     syscall    InsetRect
00003E4C  486E FFEE                pea.l      [A6 - 0x12]
00003E50  A8A1                     syscall    FrameRect
00003E52  486E FFEE                pea.l      [A6 - 0x12]
00003E56  2F3C 0001 0001           move.l     -[A7], 0x10001
00003E5C  A8A9                     syscall    InsetRect
00003E5E  2F3C 0003 0003           move.l     -[A7], 0x30003
00003E64  A89B                     syscall    PenSize
00003E66  486D FEA0                pea.l      [A5 - 0x160]
00003E6A  A89D                     syscall    PenPat
00003E6C  486E FFEE                pea.l      [A6 - 0x12]
00003E70  A8A1                     syscall    FrameRect
00003E72  A89E                     syscall    PenNormal
label00003E74:
00003E74  4E5E                     unlink     A6
00003E76  2E9F                     move.l     [A7], [A7]+
00003E78  4E75                     rts
export_725:
fn00003E7A:
00003E7A  4E56 FFE0                link       A6, -0x0020
00003E7E  48E7 0F00                movem.l    -[A7], D4,D5,D6,D7
00003E82  206E 000C                movea.l    A0, [A6 + 0xC]
00003E86  43EE FFF8                lea.l      A1, [A6 - 0x8]
00003E8A  22D8                     move.l     [A1]+, [A0]+
00003E8C  22D8                     move.l     [A1]+, [A0]+
00003E8E  3E2E FFFE                move.w     D7, [A6 - 0x2]
00003E92  9E7C 0011                sub.w      D7, 0x11
00003E96  3A2E FFFC                move.w     D5, [A6 - 0x4]
00003E9A  9A6E FFF8                sub.w      D5, [A6 - 0x8]
00003E9E  3F07                     move.w     -[A7], D7
00003EA0  3F2E FFF8                move.w     -[A7], [A6 - 0x8]
00003EA4  A893                     syscall    MoveTo
00003EA6  3F07                     move.w     -[A7], D7
00003EA8  302E FFFC                move.w     D0, [A6 - 0x4]
00003EAC  5340                     subq.w     D0, 1
00003EAE  3F00                     move.w     -[A7], D0
00003EB0  A891                     syscall    LineTo
00003EB2  701F                     moveq.l    D0, 0x1F
00003EB4  B045                     cmp.w      D0, D5
00003EB6  6F04                     ble        +0x6 /* 00003EBC */
00003EB8  6000 0168                bra        +0x16A /* 00004022 */
label00003EBC:
00003EBC  302E FFFE                move.w     D0, [A6 - 0x2]
00003EC0  907C 0010                sub.w      D0, 0x10
00003EC4  3D40 FFEA                move.w     [A6 - 0x16], D0
00003EC8  302E FFFE                move.w     D0, [A6 - 0x2]
00003ECC  5340                     subq.w     D0, 1
00003ECE  3D40 FFEE                move.w     [A6 - 0x12], D0
00003ED2  302E FFF8                move.w     D0, [A6 - 0x8]
00003ED6  5240                     addq.w     D0, 1
00003ED8  3D40 FFE8                move.w     [A6 - 0x18], D0
00003EDC  D07C 0010                add.w      D0, 0x10
00003EE0  3D40 FFEC                move.w     [A6 - 0x14], D0
00003EE4  486E FFE8                pea.l      [A6 - 0x18]
00003EE8  A8A3                     syscall    EraseRect
00003EEA  302E FFFC                move.w     D0, [A6 - 0x4]
00003EEE  907C 0011                sub.w      D0, 0x11
00003EF2  3D40 FFE8                move.w     [A6 - 0x18], D0
00003EF6  D07C 0010                add.w      D0, 0x10
00003EFA  3D40 FFEC                move.w     [A6 - 0x14], D0
00003EFE  486E FFE8                pea.l      [A6 - 0x18]
00003F02  A8A3                     syscall    EraseRect
00003F04  4EAD 21DA                jsr        [A5 + 0x21DA /* export_1079, CODE:20 @ 00004546 */]
00003F08  3F07                     move.w     -[A7], D7
00003F0A  302E FFF8                move.w     D0, [A6 - 0x8]
00003F0E  D07C 0010                add.w      D0, 0x10
00003F12  3F00                     move.w     -[A7], D0
00003F14  A893                     syscall    MoveTo
00003F16  3F3C 0069                move.w     -[A7], 0x69 /* 'i' */
00003F1A  A883                     syscall    DrawChar
00003F1C  3F07                     move.w     -[A7], D7
00003F1E  3F2E FFFC                move.w     -[A7], [A6 - 0x4]
00003F22  A893                     syscall    MoveTo
00003F24  3F3C 006A                move.w     -[A7], 0x6A /* 'j' */
00003F28  A883                     syscall    DrawChar
00003F2A  102D E208                move.b     D0, [A5 - 0x1DF8]
00003F2E  6714                     beq        +0x16 /* 00003F44 */
00003F30  3F07                     move.w     -[A7], D7
00003F32  302E FFF8                move.w     D0, [A6 - 0x8]
00003F36  D07C 0010                add.w      D0, 0x10
00003F3A  3F00                     move.w     -[A7], D0
00003F3C  A893                     syscall    MoveTo
00003F3E  3F3C 006B                move.w     -[A7], 0x6B /* 'k' */
00003F42  A883                     syscall    DrawChar
label00003F44:
00003F44  102D E207                move.b     D0, [A5 - 0x1DF9]
00003F48  670E                     beq        +0x10 /* 00003F58 */
00003F4A  3F07                     move.w     -[A7], D7
00003F4C  3F2E FFFC                move.w     -[A7], [A6 - 0x4]
00003F50  A893                     syscall    MoveTo
00003F52  3F3C 006C                move.w     -[A7], 0x6C /* 'l' */
00003F56  A883                     syscall    DrawChar
label00003F58:
00003F58  4EAD 218A                jsr        [A5 + 0x218A /* export_1069, CODE:20 @ 00003950 */]
00003F5C  3007                     move.w     D0, D7
00003F5E  5240                     addq.w     D0, 1
00003F60  3D40 FFEA                move.w     [A6 - 0x16], D0
00003F64  302E FFFE                move.w     D0, [A6 - 0x2]
00003F68  5340                     subq.w     D0, 1
00003F6A  3D40 FFEE                move.w     [A6 - 0x12], D0
00003F6E  302E FFF8                move.w     D0, [A6 - 0x8]
00003F72  D07C 0010                add.w      D0, 0x10
00003F76  3D40 FFE8                move.w     [A6 - 0x18], D0
00003F7A  302E FFFC                move.w     D0, [A6 - 0x4]
00003F7E  907C 0010                sub.w      D0, 0x10
00003F82  3D40 FFEC                move.w     [A6 - 0x14], D0
00003F86  41EE FFE0                lea.l      A0, [A6 - 0x20]
00003F8A  43ED FE88                lea.l      A1, [A5 - 0x178]
00003F8E  20D9                     move.l     [A0]+, [A1]+
00003F90  20D9                     move.l     [A0]+, [A1]+
00003F92  1007                     move.b     D0, D7
00003F94  0240 0001                andi.w     D0, 0x1
00003F98  670C                     beq        +0xE /* 00003FA6 */
00003F9A  41EE FFE0                lea.l      A0, [A6 - 0x20]
00003F9E  43ED DEE4                lea.l      A1, [A5 - 0x211C]
00003FA2  20D9                     move.l     [A0]+, [A1]+
00003FA4  20D9                     move.l     [A0]+, [A1]+
label00003FA6:
00003FA6  486E FFE8                pea.l      [A6 - 0x18]
00003FAA  486E FFE0                pea.l      [A6 - 0x20]
00003FAE  A8A5                     syscall    FillRect
00003FB0  7030                     moveq.l    D0, 0x30
00003FB2  B045                     cmp.w      D0, D5
00003FB4  6F02                     ble        +0x4 /* 00003FB8 */
00003FB6  606A                     bra        +0x6C /* 00004022 */
label00003FB8:
00003FB8  3C2E FFF8                move.w     D6, [A6 - 0x8]
00003FBC  DC7C 0010                add.w      D6, 0x10
00003FC0  3805                     move.w     D4, D5
00003FC2  987C 0030                sub.w      D4, 0x30 /* '0' */
00003FC6  4AAE 0008                tst.l      [A6 + 0x8]
00003FCA  6F14                     ble        +0x16 /* 00003FE0 */
00003FCC  3004                     move.w     D0, D4
00003FCE  48C0                     ext.l      D0
00003FD0  2F2E 0008                move.l     -[A7], [A6 + 0x8]
00003FD4  2F00                     move.l     -[A7], D0
00003FD6  4EAD 04EA                jsr        [A5 + 0x4EA /* export_153, CODE:1 @ 000051F0 */]
00003FDA  201F                     move.l     D0, [A7]+
00003FDC  4840                     swap.w     D0
00003FDE  DC40                     add.w      D6, D0
label00003FE0:
00003FE0  302E FFFC                move.w     D0, [A6 - 0x4]
00003FE4  907C 0020                sub.w      D0, 0x20 /* ' ' */
00003FE8  B046                     cmp.w      D0, D6
00003FEA  6C08                     bge        +0xA /* 00003FF4 */
00003FEC  3C2E FFFC                move.w     D6, [A6 - 0x4]
00003FF0  9C7C 0020                sub.w      D6, 0x20 /* ' ' */
label00003FF4:
00003FF4  3D46 FFE8                move.w     [A6 - 0x18], D6
00003FF8  302E FFE8                move.w     D0, [A6 - 0x18]
00003FFC  D07C 0010                add.w      D0, 0x10
00004000  3D40 FFEC                move.w     [A6 - 0x14], D0
00004004  3007                     move.w     D0, D7
00004006  5240                     addq.w     D0, 1
00004008  3D40 FFEA                move.w     [A6 - 0x16], D0
0000400C  302E FFFE                move.w     D0, [A6 - 0x2]
00004010  5340                     subq.w     D0, 1
00004012  3D40 FFEE                move.w     [A6 - 0x12], D0
00004016  486E FFE8                pea.l      [A6 - 0x18]
0000401A  A8A3                     syscall    EraseRect
0000401C  486E FFE8                pea.l      [A6 - 0x18]
00004020  A8A1                     syscall    FrameRect
label00004022:
00004022  4CDF 00F0                movem.l    D4,D5,D6,D7, [A7]+
00004026  4E5E                     unlink     A6
00004028  205F                     movea.l    A0, [A7]+
0000402A  504F                     addq.w     A7, 8
0000402C  4ED0                     jmp        [A0]
export_726:
fn0000402E:
0000402E  4E56 FFF4                link       A6, -0x000C
00004032  206E 0008                movea.l    A0, [A6 + 0x8]
00004036  43EE FFF8                lea.l      A1, [A6 - 0x8]
0000403A  22D8                     move.l     [A1]+, [A0]+
0000403C  22D8                     move.l     [A1]+, [A0]+
0000403E  486E FFF4                pea.l      [A6 - 0xC]
00004042  A874                     syscall    GetPort
00004044  486D EE38                pea.l      [A5 - 0x11C8]
00004048  A873                     syscall    SetPort
0000404A  486E FFF8                pea.l      [A6 - 0x8]
0000404E  486D E2F2                pea.l      [A5 - 0x1D0E]
00004052  4EAD 1CEA                jsr        [A5 + 0x1CEA /* export_921, CODE:17 @ 00001DBA */]
00004056  7000                     moveq.l    D0, 0x00
00004058  302D E2F4                move.w     D0, [A5 - 0x1D0C]
0000405C  C0BC FFFF FFE0           and.l      D0, 0xFFFFFFE0
00004062  3B40 E2F4                move.w     [A5 - 0x1D0C], D0
00004066  7000                     moveq.l    D0, 0x00
00004068  322D E2F8                move.w     D1, [A5 - 0x1D08]
0000406C  D27C 001F                add.w      D1, 0x1F
00004070  3001                     move.w     D0, D1
00004072  C0BC FFFF FFE0           and.l      D0, 0xFFFFFFE0
00004078  3B40 E2F8                move.w     [A5 - 0x1D08], D0
0000407C  7001                     moveq.l    D0, 0x01
0000407E  B06D EFDA                cmp.w      D0, [A5 - 0x1026]
00004082  6620                     bne        +0x22 /* 000040A4 */
00004084  1B7C 0001 E2F1           move.b     [A5 - 0x1D0F], 0x1
0000408A  1B7C 0001 E2F0           move.b     [A5 - 0x1D10], 0x1
00004090  41ED E2F2                lea.l      A0, [A5 - 0x1D0E]
00004094  43ED ED82                lea.l      A1, [A5 - 0x127E]
00004098  20D9                     move.l     [A0]+, [A1]+
0000409A  20D9                     move.l     [A0]+, [A1]+
0000409C  4EAD 1352                jsr        [A5 + 0x1352 /* export_614, CODE:12 @ 00000FA8 */]
000040A0  6000 00D4                bra        +0xD6 /* 00004176 */
label000040A4:
000040A4  4EAD 2062                jsr        [A5 + 0x2062 /* export_1032, CODE:20 @ 00000C18 */]
000040A8  102D EFDF                move.b     D0, [A5 - 0x1021]
000040AC  6736                     beq        +0x38 /* 000040E4 */
000040AE  102D E2E4                move.b     D0, [A5 - 0x1D1C]
000040B2  6710                     beq        +0x12 /* 000040C4 */
000040B4  2F2D ECE4                move.l     -[A7], [A5 - 0x131C]
000040B8  42A7                     clr.l      -[A7]
000040BA  486D E2F2                pea.l      [A5 - 0x1D0E]
000040BE  4EBA 0A56                jsr        [PC + 0xA56 /* 00004B16 */]
000040C2  6012                     bra        +0x14 /* 000040D6 */
label000040C4:
000040C4  2F2D ECE8                move.l     -[A7], [A5 - 0x1318]
000040C8  2F2D ECE4                move.l     -[A7], [A5 - 0x131C]
000040CC  486D E2F2                pea.l      [A5 - 0x1D0E]
000040D0  4267                     clr.w      -[A7]
000040D2  4EBA C4EC                jsr        [PC - 0x3B14 /* 000005C0 */]
label000040D6:
000040D6  2F3C 0002 0000           move.l     -[A7], 0x20000
000040DC  4EBA F01E                jsr        [PC - 0xFE2 /* 000030FC */]
000040E0  6000 0094                bra        +0x96 /* 00004176 */
label000040E4:
000040E4  102D E244                move.b     D0, [A5 - 0x1DBC]
000040E8  6728                     beq        +0x2A /* 00004112 */
000040EA  2F2D ECE0                move.l     -[A7], [A5 - 0x1320]
000040EE  2F2D ECE4                move.l     -[A7], [A5 - 0x131C]
000040F2  486D E2F2                pea.l      [A5 - 0x1D0E]
000040F6  4267                     clr.w      -[A7]
000040F8  4EBA C4C6                jsr        [PC - 0x3B3A /* 000005C0 */]
000040FC  422D E049                clr.b      [A5 - 0x1FB7]
00004100  486D E2F2                pea.l      [A5 - 0x1D0E]
00004104  2F2D E246                move.l     -[A7], [A5 - 0x1DBA]
00004108  A9D3                     syscall    TEUpdate
0000410A  1B7C 0001 E049           move.b     [A5 - 0x1FB7], 0x1
00004110  6064                     bra        +0x66 /* 00004176 */
label00004112:
00004112  102D E2E4                move.b     D0, [A5 - 0x1D1C]
00004116  6710                     beq        +0x12 /* 00004128 */
00004118  2F2D ECE4                move.l     -[A7], [A5 - 0x131C]
0000411C  42A7                     clr.l      -[A7]
0000411E  486D E2F2                pea.l      [A5 - 0x1D0E]
00004122  4EBA 09F2                jsr        [PC + 0x9F2 /* 00004B16 */]
00004126  6012                     bra        +0x14 /* 0000413A */
label00004128:
00004128  2F2D ECE8                move.l     -[A7], [A5 - 0x1318]
0000412C  2F2D ECE4                move.l     -[A7], [A5 - 0x131C]
00004130  486D E2F2                pea.l      [A5 - 0x1D0E]
00004134  4267                     clr.w      -[A7]
00004136  4EBA C488                jsr        [PC - 0x3B78 /* 000005C0 */]
label0000413A:
0000413A  206D EE50                movea.l    A0, [A5 - 0x11B0]
0000413E  2050                     movea.l    A0, [A0]
00004140  5488                     addq.l     A0, 2
00004142  43ED E2F2                lea.l      A1, [A5 - 0x1D0E]
00004146  20D9                     move.l     [A0]+, [A1]+
00004148  20D9                     move.l     [A0]+, [A1]+
0000414A  2F3C 0002 0000           move.l     -[A7], 0x20000
00004150  4EBA EFAA                jsr        [PC - 0x1056 /* 000030FC */]
00004154  2F2D ECE4                move.l     -[A7], [A5 - 0x131C]
00004158  4EBA F486                jsr        [PC - 0xB7A /* 000035E0 */]
0000415C  2F3C 0002 0000           move.l     -[A7], 0x20000
00004162  4EBA F58C                jsr        [PC - 0xA74 /* 000036F0 */]
00004166  206D EE50                movea.l    A0, [A5 - 0x11B0]
0000416A  2050                     movea.l    A0, [A0]
0000416C  5488                     addq.l     A0, 2
0000416E  43ED ED82                lea.l      A1, [A5 - 0x127E]
00004172  20D9                     move.l     [A0]+, [A1]+
00004174  20D9                     move.l     [A0]+, [A1]+
label00004176:
00004176  41ED E2F2                lea.l      A0, [A5 - 0x1D0E]
0000417A  43ED ED8A                lea.l      A1, [A5 - 0x1276]
0000417E  20D9                     move.l     [A0]+, [A1]+
00004180  20D9                     move.l     [A0]+, [A1]+
00004182  A89E                     syscall    PenNormal
00004184  2F2E FFF4                move.l     -[A7], [A6 - 0xC]
00004188  A873                     syscall    SetPort
0000418A  4E5E                     unlink     A6
0000418C  2E9F                     move.l     [A7], [A7]+
0000418E  4E75                     rts
export_727:
00004190  4E56 FFF8                link       A6, -0x0008
00004194  206E 0008                movea.l    A0, [A6 + 0x8]
00004198  43EE FFF8                lea.l      A1, [A6 - 0x8]
0000419C  22D8                     move.l     [A1]+, [A0]+
0000419E  22D8                     move.l     [A1]+, [A0]+
000041A0  4A6D FD8A                tst.w      [A5 - 0x276]
000041A4  5DC0                     slt        D0
000041A6  222D FEA8                move.l     D1, [A5 - 0x158]
000041AA  B2AD EDC4                cmp.l      D1, [A5 - 0x123C]
000041AE  57C1                     seq        D1
000041B0  C001                     and.b      D0, D1
000041B2  6708                     beq        +0xA /* 000041BC */
000041B4  1B7C 0001 DC54           move.b     [A5 - 0x23AC], 0x1
000041BA  601E                     bra        +0x20 /* 000041DA */
label000041BC:
000041BC  486D EF24                pea.l      [A5 - 0x10DC]
000041C0  206D FEA8                movea.l    A0, [A5 - 0x158]
000041C4  4868 0002                pea.l      [A0 + 0x2]
000041C8  486D EF2A                pea.l      [A5 - 0x10D6]
000041CC  486E FFF8                pea.l      [A6 - 0x8]
000041D0  4267                     clr.w      -[A7]
000041D2  42A7                     clr.l      -[A7]
000041D4  A8EC                     syscall    CopyBits
000041D6  4EAD 2002                jsr        [A5 + 0x2002 /* export_1020, CODE:20 @ 00000000 */]
label000041DA:
000041DA  4E5E                     unlink     A6
000041DC  2E9F                     move.l     [A7], [A7]+
000041DE  4E75                     rts
export_728:
fn000041E0:
000041E0  4E56 FFE8                link       A6, -0x0018
000041E4  1D7C 0003 FFE8           move.b     [A6 - 0x18], 0x3
000041EA  2D6D F4E0 FFEA           move.l     [A6 - 0x16], [A5 - 0xB20]
000041F0  2D6D F622 FFEE           move.l     [A6 - 0x12], [A5 - 0x9DE]
000041F6  4267                     clr.w      -[A7]
000041F8  486E FFE8                pea.l      [A6 - 0x18]
000041FC  4267                     clr.w      -[A7]
000041FE  4EAD 0E8A                jsr        [A5 + 0xE8A /* export_461, CODE:9 @ 00002B04 */]
00004202  101F                     move.b     D0, [A7]+
00004204  6604                     bne        +0x6 /* 0000420A */
00004206  4EAD 1812                jsr        [A5 + 0x1812 /* export_766, CODE:16 @ 00000208 */]
label0000420A:
0000420A  4E5E                     unlink     A6
0000420C  4E75                     rts
export_729:
fn0000420E:
0000420E  4E56 FFE8                link       A6, -0x0018
00004212  1D7C 0002 FFE8           move.b     [A6 - 0x18], 0x2
00004218  2D6D F4E0 FFEA           move.l     [A6 - 0x16], [A5 - 0xB20]
0000421E  2D6D F62A FFF2           move.l     [A6 - 0xE], [A5 - 0x9D6]
00004224  4267                     clr.w      -[A7]
00004226  486E FFE8                pea.l      [A6 - 0x18]
0000422A  4267                     clr.w      -[A7]
0000422C  4EAD 0E8A                jsr        [A5 + 0xE8A /* export_461, CODE:9 @ 00002B04 */]
00004230  101F                     move.b     D0, [A7]+
00004232  6604                     bne        +0x6 /* 00004238 */
00004234  4EAD 1812                jsr        [A5 + 0x1812 /* export_766, CODE:16 @ 00000208 */]
label00004238:
00004238  4E5E                     unlink     A6
0000423A  4E75                     rts
export_730:
0000423C  4E56 FFCA                link       A6, -0x0036
00004240  206E 0008                movea.l    A0, [A6 + 0x8]
00004244  43EE FFE2                lea.l      A1, [A6 - 0x1E]
00004248  7006                     moveq.l    D0, 0x06
label0000424A:
0000424A  22D8                     move.l     [A1]+, [A0]+
0000424C  51C8 FFFC                dbf        D0, -0x6 /* 0000424A */
00004250  3290                     move.w     [A1], [A0]
00004252  1D7C 0001 FFCA           move.b     [A6 - 0x36], 0x1
00004258  2D6D F4E0 FFCC           move.l     [A6 - 0x34], [A5 - 0xB20]
0000425E  3D6E FFE4 FFD8           move.w     [A6 - 0x28], [A6 - 0x1C]
00004264  2D6E 000C FFDA           move.l     [A6 - 0x26], [A6 + 0xC]
0000426A  4267                     clr.w      -[A7]
0000426C  486E FFCA                pea.l      [A6 - 0x36]
00004270  4267                     clr.w      -[A7]
00004272  4EAD 0E8A                jsr        [A5 + 0xE8A /* export_461, CODE:9 @ 00002B04 */]
00004276  101F                     move.b     D0, [A7]+
00004278  6604                     bne        +0x6 /* 0000427E */
0000427A  4EAD 1812                jsr        [A5 + 0x1812 /* export_766, CODE:16 @ 00000208 */]
label0000427E:
0000427E  4E5E                     unlink     A6
00004280  205F                     movea.l    A0, [A7]+
00004282  504F                     addq.w     A7, 8
00004284  4ED0                     jmp        [A0]
fn00004286:
00004286  4E56 0000                link       A6, 0
0000428A  2F2E 000C                move.l     -[A7], [A6 + 0xC]
0000428E  A972                     syscall    GetMouse
00004290  206E 000C                movea.l    A0, [A6 + 0xC]
00004294  2F08                     move.l     -[A7], A0
00004296  4267                     clr.w      -[A7]
00004298  226E 000C                movea.l    A1, [A6 + 0xC]
0000429C  3029 0002                move.w     D0, [A1 + 0x2]
000042A0  226E 0008                movea.l    A1, [A6 + 0x8]
000042A4  9069 FFE0                sub.w      D0, [A1 - 0x20]
000042A8  48C0                     ext.l      D0
000042AA  81FC 0008                divs.w     D0, 0x8
000042AE  3F00                     move.w     -[A7], D0
000042B0  2F3C 0007 0000           move.l     -[A7], 0x70000
000042B6  4EAD 1A8A                jsr        [A5 + 0x1A8A /* export_845, CODE:16 @ 000019F8 */]
000042BA  301F                     move.w     D0, [A7]+
000042BC  205F                     movea.l    A0, [A7]+
000042BE  3140 0002                move.w     [A0 + 0x2], D0
000042C2  206E 000C                movea.l    A0, [A6 + 0xC]
000042C6  2F08                     move.l     -[A7], A0
000042C8  4267                     clr.w      -[A7]
000042CA  226E 000C                movea.l    A1, [A6 + 0xC]
000042CE  3011                     move.w     D0, [A1]
000042D0  226E 0008                movea.l    A1, [A6 + 0x8]
000042D4  9069 FFDE                sub.w      D0, [A1 - 0x22]
000042D8  48C0                     ext.l      D0
000042DA  81FC 0008                divs.w     D0, 0x8
000042DE  3F00                     move.w     -[A7], D0
000042E0  2F3C 0007 0000           move.l     -[A7], 0x70000
000042E6  4EAD 1A8A                jsr        [A5 + 0x1A8A /* export_845, CODE:16 @ 000019F8 */]
000042EA  301F                     move.w     D0, [A7]+
000042EC  205F                     movea.l    A0, [A7]+
000042EE  3080                     move.w     [A0], D0
000042F0  4E5E                     unlink     A6
000042F2  205F                     movea.l    A0, [A7]+
000042F4  504F                     addq.w     A7, 8
000042F6  4ED0                     jmp        [A0]
fn000042F8:
000042F8  4E56 FFF8                link       A6, -0x0008
000042FC  302E 000E                move.w     D0, [A6 + 0xE]
00004300  E740                     asl        D0.w, 3
00004302  206E 0008                movea.l    A0, [A6 + 0x8]
00004306  D068 FFE0                add.w      D0, [A0 - 0x20]
0000430A  3D40 FFFA                move.w     [A6 - 0x6], D0
0000430E  5E40                     addq.w     D0, 7
00004310  3D40 FFFE                move.w     [A6 - 0x2], D0
00004314  302E 000C                move.w     D0, [A6 + 0xC]
00004318  E740                     asl        D0.w, 3
0000431A  206E 0008                movea.l    A0, [A6 + 0x8]
0000431E  D068 FFDE                add.w      D0, [A0 - 0x22]
00004322  3D40 FFF8                move.w     [A6 - 0x8], D0
00004326  5E40                     addq.w     D0, 7
00004328  3D40 FFFC                move.w     [A6 - 0x4], D0
0000432C  486E FFF8                pea.l      [A6 - 0x8]
00004330  A8A2                     syscall    PaintRect
00004332  4E5E                     unlink     A6
00004334  205F                     movea.l    A0, [A7]+
00004336  504F                     addq.w     A7, 8
00004338  4ED0                     jmp        [A0]
fn0000433A:
0000433A  4E56 FFFA                link       A6, -0x0006
0000433E  48E7 0708                movem.l    -[A7], D5,D6,D7,A4
00004342  286E 0008                movea.l    A4, [A6 + 0x8]
00004346  4245                     clr.w      D5
00004348  4247                     clr.w      D7
0000434A  602E                     bra        +0x30 /* 0000437A */
label0000434C:
0000434C  4246                     clr.w      D6
0000434E  6022                     bra        +0x24 /* 00004372 */
label00004350:
00004350  4267                     clr.w      -[A7]
00004352  486C FFD2                pea.l      [A4 - 0x2E]
00004356  3005                     move.w     D0, D5
00004358  48C0                     ext.l      D0
0000435A  2F00                     move.l     -[A7], D0
0000435C  A85D                     syscall    BitTst
0000435E  101F                     move.b     D0, [A7]+
00004360  670C                     beq        +0xE /* 0000436E */
00004362  3F06                     move.w     -[A7], D6
00004364  3F07                     move.w     -[A7], D7
00004366  2F2E 0008                move.l     -[A7], [A6 + 0x8]
0000436A  4EBA FF8C                jsr        [PC - 0x74 /* 000042F8 */]
label0000436E:
0000436E  5245                     addq.w     D5, 1
00004370  5246                     addq.w     D6, 1
label00004372:
00004372  7007                     moveq.l    D0, 0x07
00004374  B046                     cmp.w      D0, D6
00004376  6CD8                     bge        -0x26 /* 00004350 */
00004378  5247                     addq.w     D7, 1
label0000437A:
0000437A  7007                     moveq.l    D0, 0x07
0000437C  B047                     cmp.w      D0, D7
0000437E  6CCC                     bge        -0x32 /* 0000434C */
00004380  486C FFE6                pea.l      [A4 - 0x1A]
00004384  486C FFD2                pea.l      [A4 - 0x2E]
00004388  A8A5                     syscall    FillRect
0000438A  4CDF 10E0                movem.l    D5,D6,D7,A4, [A7]+
0000438E  4E5E                     unlink     A6
00004390  2E9F                     move.l     [A7], [A7]+
00004392  4E75                     rts
export_731:
fn00004394:
00004394  4E56 FFB0                link       A6, -0x0050
00004398  48E7 0F08                movem.l    -[A7], D4,D5,D6,D7,A4
0000439C  102D F4CD                move.b     D0, [A5 - 0xB33]
000043A0  6704                     beq        +0x6 /* 000043A6 */
000043A2  6000 0318                bra        +0x31A /* 000046BC */
label000043A6:
000043A6  486E FFDA                pea.l      [A6 - 0x26]
000043AA  A874                     syscall    GetPort
000043AC  4EAD 1862                jsr        [A5 + 0x1862 /* export_776, CODE:16 @ 00000474 */]
000043B0  42A7                     clr.l      -[A7]
000043B2  3F3C 07D9                move.w     -[A7], 0x7D9
000043B6  42A7                     clr.l      -[A7]
000043B8  70FF                     moveq.l    D0, 0xFFFFFFFF
000043BA  2F00                     move.l     -[A7], D0
000043BC  A97C                     syscall    GetNewDialog
000043BE  285F                     movea.l    A4, [A7]+
000043C0  2F0C                     move.l     -[A7], A4
000043C2  A873                     syscall    SetPort
000043C4  A89E                     syscall    PenNormal
000043C6  486E FFDE                pea.l      [A6 - 0x22]
000043CA  2F3C 000F 000F           move.l     -[A7], 0xF000F
000043D0  2F3C 0050 0050           move.l     -[A7], 0x500050 /* 'P\0P' */
000043D6  A8A7                     syscall    SetRect
000043D8  486E FFE6                pea.l      [A6 - 0x1A]
000043DC  2F3C 000F 005F           move.l     -[A7], 0xF005F
000043E2  2F3C 0050 00A0           move.l     -[A7], 0x5000A0
000043E8  A8A7                     syscall    SetRect
000043EA  486E FFDE                pea.l      [A6 - 0x22]
000043EE  A8A1                     syscall    FrameRect
000043F0  486E FFE6                pea.l      [A6 - 0x1A]
000043F4  A8A1                     syscall    FrameRect
000043F6  486E FFDE                pea.l      [A6 - 0x22]
000043FA  2F3C 0001 0001           move.l     -[A7], 0x10001
00004400  A8A9                     syscall    InsetRect
00004402  486E FFE6                pea.l      [A6 - 0x1A]
00004406  2F3C 0001 0001           move.l     -[A7], 0x10001
0000440C  A8A9                     syscall    InsetRect
0000440E  302D EF42                move.w     D0, [A5 - 0x10BE]
00004412  5340                     subq.w     D0, 1
00004414  41ED F8FC                lea.l      A0, [A5 - 0x704]
00004418  E740                     asl        D0.w, 3
0000441A  43EE FFD2                lea.l      A1, [A6 - 0x2E]
0000441E  41F0 0000                lea.l      A0, [A0 + D0.w]
00004422  22D8                     move.l     [A1]+, [A0]+
00004424  22D8                     move.l     [A1]+, [A0]+
00004426  2F0E                     move.l     -[A7], A6
00004428  4EBA FF10                jsr        [PC - 0xF0 /* 0000433A */]
0000442C  41EE FFB0                lea.l      A0, [A6 - 0x50]
00004430  43ED FE34                lea.l      A1, [A5 - 0x1CC]
00004434  20D9                     move.l     [A0]+, [A1]+
00004436  20D9                     move.l     [A0]+, [A1]+
00004438  486E FFB0                pea.l      [A6 - 0x50]
0000443C  2F3C 0005 0005           move.l     -[A7], 0x50005
00004442  A8A9                     syscall    InsetRect
label00004444:
00004444  486D 2162                pea.l      [A5 + 0x2162 /* export_1064, CODE:20 @ 000035B8 */]
00004448  486E FFFA                pea.l      [A6 - 0x6]
0000444C  A991                     syscall    ModalDialog
0000444E  302E FFFA                move.w     D0, [A6 - 0x6]
00004452  5340                     subq.w     D0, 1
00004454  6712                     beq        +0x14 /* 00004468 */
00004456  5340                     subq.w     D0, 1
00004458  6754                     beq        +0x56 /* 000044AE */
0000445A  5340                     subq.w     D0, 1
0000445C  6754                     beq        +0x56 /* 000044B2 */
0000445E  5340                     subq.w     D0, 1
00004460  6700 011A                beq        +0x11C /* 0000457C */
00004464  6000 0234                bra        +0x236 /* 0000469A */
label00004468:
00004468  4267                     clr.w      -[A7]
0000446A  486E FFD2                pea.l      [A6 - 0x2E]
0000446E  486D EF44                pea.l      [A5 - 0x10BC]
00004472  4EAD 1C1A                jsr        [A5 + 0x1C1A /* export_895, CODE:17 @ 00000930 */]
00004476  101F                     move.b     D0, [A7]+
00004478  6630                     bne        +0x32 /* 000044AA */
0000447A  41ED EF44                lea.l      A0, [A5 - 0x10BC]
0000447E  43EE FFD2                lea.l      A1, [A6 - 0x2E]
00004482  20D9                     move.l     [A0]+, [A1]+
00004484  20D9                     move.l     [A0]+, [A1]+
00004486  302D EF42                move.w     D0, [A5 - 0x10BE]
0000448A  5340                     subq.w     D0, 1
0000448C  41ED F8FC                lea.l      A0, [A5 - 0x704]
00004490  E740                     asl        D0.w, 3
00004492  41F0 0000                lea.l      A0, [A0 + D0.w]
00004496  43ED EF44                lea.l      A1, [A5 - 0x10BC]
0000449A  20D9                     move.l     [A0]+, [A1]+
0000449C  20D9                     move.l     [A0]+, [A1]+
0000449E  1B7C 0001 F63B           move.b     [A5 - 0x9C5], 0x1
000044A4  1B7C 0001 EF40           move.b     [A5 - 0x10C0], 0x1
label000044AA:
000044AA  6000 01EE                bra        +0x1F0 /* 0000469A */
label000044AE:
000044AE  6000 01EA                bra        +0x1EC /* 0000469A */
label000044B2:
000044B2  486E FFCE                pea.l      [A6 - 0x32]
000044B6  2F0E                     move.l     -[A7], A6
000044B8  4EBA FDCC                jsr        [PC - 0x234 /* 00004286 */]
000044BC  302E FFCE                move.w     D0, [A6 - 0x32]
000044C0  E740                     asl        D0.w, 3
000044C2  322E FFD0                move.w     D1, [A6 - 0x30]
000044C6  D240                     add.w      D1, D0
000044C8  48C1                     ext.l      D1
000044CA  2E01                     move.l     D7, D1
000044CC  4267                     clr.w      -[A7]
000044CE  486E FFD2                pea.l      [A6 - 0x2E]
000044D2  2F07                     move.l     -[A7], D7
000044D4  A85D                     syscall    BitTst
000044D6  1A1F                     move.b     D5, [A7]+
000044D8  A89E                     syscall    PenNormal
000044DA  1005                     move.b     D0, D5
000044DC  6706                     beq        +0x8 /* 000044E4 */
000044DE  486D FEA0                pea.l      [A5 - 0x160]
000044E2  A89D                     syscall    PenPat
label000044E4:
000044E4  2F2E FFCE                move.l     -[A7], [A6 - 0x32]
000044E8  2F0E                     move.l     -[A7], A6
000044EA  4EBA FE0C                jsr        [PC - 0x1F4 /* 000042F8 */]
000044EE  1005                     move.b     D0, D5
000044F0  670A                     beq        +0xC /* 000044FC */
000044F2  486E FFD2                pea.l      [A6 - 0x2E]
000044F6  2F07                     move.l     -[A7], D7
000044F8  A85F                     syscall    BitClr
000044FA  6008                     bra        +0xA /* 00004504 */
label000044FC:
000044FC  486E FFD2                pea.l      [A6 - 0x2E]
00004500  2F07                     move.l     -[A7], D7
00004502  A85E                     syscall    BitSet
label00004504:
00004504  486E FFE6                pea.l      [A6 - 0x1A]
00004508  486E FFD2                pea.l      [A6 - 0x2E]
0000450C  A8A5                     syscall    FillRect
label0000450E:
0000450E  486E FFCA                pea.l      [A6 - 0x36]
00004512  2F0E                     move.l     -[A7], A6
00004514  4EBA FD70                jsr        [PC - 0x290 /* 00004286 */]
00004518  4267                     clr.w      -[A7]
0000451A  2F2E FFCE                move.l     -[A7], [A6 - 0x32]
0000451E  2F2E FFCA                move.l     -[A7], [A6 - 0x36]
00004522  A881                     syscall    EqualPt
00004524  101F                     move.b     D0, [A7]+
00004526  6640                     bne        +0x42 /* 00004568 */
00004528  2F2E FFCA                move.l     -[A7], [A6 - 0x36]
0000452C  2F0E                     move.l     -[A7], A6
0000452E  4EBA FDC8                jsr        [PC - 0x238 /* 000042F8 */]
00004532  302E FFCA                move.w     D0, [A6 - 0x36]
00004536  E740                     asl        D0.w, 3
00004538  322E FFCC                move.w     D1, [A6 - 0x34]
0000453C  D240                     add.w      D1, D0
0000453E  48C1                     ext.l      D1
00004540  2E01                     move.l     D7, D1
00004542  1005                     move.b     D0, D5
00004544  670A                     beq        +0xC /* 00004550 */
00004546  486E FFD2                pea.l      [A6 - 0x2E]
0000454A  2F07                     move.l     -[A7], D7
0000454C  A85F                     syscall    BitClr
0000454E  6008                     bra        +0xA /* 00004558 */
label00004550:
00004550  486E FFD2                pea.l      [A6 - 0x2E]
00004554  2F07                     move.l     -[A7], D7
00004556  A85E                     syscall    BitSet
label00004558:
00004558  486E FFE6                pea.l      [A6 - 0x1A]
0000455C  486E FFD2                pea.l      [A6 - 0x2E]
00004560  A8A5                     syscall    FillRect
00004562  2D6E FFCA FFCE           move.l     [A6 - 0x32], [A6 - 0x36]
label00004568:
00004568  4267                     clr.w      -[A7]
0000456A  4EAD 210A                jsr        [A5 + 0x210A /* export_1053, CODE:20 @ 000016F6 */]
0000456E  101F                     move.b     D0, [A7]+
00004570  0A00 0001                xori.b     D0, 0x1
00004574  6798                     beq        -0x66 /* 0000450E */
00004576  A89E                     syscall    PenNormal
00004578  6000 0120                bra        +0x122 /* 0000469A */
label0000457C:
0000457C  41EE FFD2                lea.l      A0, [A6 - 0x2E]
00004580  43ED FEA0                lea.l      A1, [A5 - 0x160]
00004584  20D9                     move.l     [A0]+, [A1]+
00004586  20D9                     move.l     [A0]+, [A1]+
00004588  4267                     clr.w      -[A7]
0000458A  2F2D DED0                move.l     -[A7], [A5 - 0x2130]
0000458E  486E FFB8                pea.l      [A6 - 0x48]
00004592  A92C                     syscall    FindWindow
00004594  3D5F FFBC                move.w     [A6 - 0x44], [A7]+
00004598  2F2E FFB8                move.l     -[A7], [A6 - 0x48]
0000459C  A873                     syscall    SetPort
0000459E  486D DED0                pea.l      [A5 - 0x2130]
000045A2  A871                     syscall    GlobalToLocal
000045A4  202E FFB8                move.l     D0, [A6 - 0x48]
000045A8  B0AD EDC0                cmp.l      D0, [A5 - 0x1240]
000045AC  57C0                     seq        D0
000045AE  7203                     moveq.l    D1, 0x03
000045B0  B26E FFBC                cmp.w      D1, [A6 - 0x44]
000045B4  57C1                     seq        D1
000045B6  C001                     and.b      D0, D1
000045B8  6752                     beq        +0x54 /* 0000460C */
000045BA  302D DED2                move.w     D0, [A5 - 0x212E]
000045BE  48C0                     ext.l      D0
000045C0  81FC 0012                divs.w     D0, 0x12
000045C4  3D40 FFC2                move.w     [A6 - 0x3E], D0
000045C8  302D DED0                move.w     D0, [A5 - 0x2130]
000045CC  48C0                     ext.l      D0
000045CE  81FC 000D                divs.w     D0, 0xD /* '\r' */
000045D2  3C00                     move.w     D6, D0
000045D4  4A46                     tst.w      D6
000045D6  6C02                     bge        +0x4 /* 000045DA */
000045D8  4246                     clr.w      D6
label000045DA:
000045DA  7009                     moveq.l    D0, 0x09
000045DC  B046                     cmp.w      D0, D6
000045DE  6C02                     bge        +0x4 /* 000045E2 */
000045E0  7C09                     moveq.l    D6, 0x09
label000045E2:
000045E2  3006                     move.w     D0, D6
000045E4  5240                     addq.w     D0, 1
000045E6  720A                     moveq.l    D1, 0x0A
000045E8  C3EE FFC2                muls.w     D1, [A6 - 0x3E]
000045EC  D240                     add.w      D1, D0
000045EE  3D41 FFBE                move.w     [A6 - 0x42], D1
000045F2  302E FFBE                move.w     D0, [A6 - 0x42]
000045F6  5340                     subq.w     D0, 1
000045F8  41ED F8FC                lea.l      A0, [A5 - 0x704]
000045FC  E740                     asl        D0.w, 3
000045FE  43EE FFD2                lea.l      A1, [A6 - 0x2E]
00004602  41F0 0000                lea.l      A0, [A0 + D0.w]
00004606  22D8                     move.l     [A1]+, [A0]+
00004608  22D8                     move.l     [A1]+, [A0]+
0000460A  6078                     bra        +0x7A /* 00004684 */
label0000460C:
0000460C  4267                     clr.w      -[A7]
0000460E  302D DED2                move.w     D0, [A5 - 0x212E]
00004612  5840                     addq.w     D0, 4
00004614  3F00                     move.w     -[A7], D0
00004616  4EAD 1B22                jsr        [A5 + 0x1B22 /* export_864, CODE:16 @ 00001E04 */]
0000461A  3B5F DED2                move.w     [A5 - 0x212E], [A7]+
0000461E  4267                     clr.w      -[A7]
00004620  302D DED0                move.w     D0, [A5 - 0x2130]
00004624  5840                     addq.w     D0, 4
00004626  3F00                     move.w     -[A7], D0
00004628  4EAD 1B22                jsr        [A5 + 0x1B22 /* export_864, CODE:16 @ 00001E04 */]
0000462C  3B5F DED0                move.w     [A5 - 0x2130], [A7]+
00004630  4267                     clr.w      -[A7]
00004632  2F2D DED0                move.l     -[A7], [A5 - 0x2130]
00004636  486E FFB0                pea.l      [A6 - 0x50]
0000463A  A8AD                     syscall    PtInRect
0000463C  101F                     move.b     D0, [A7]+
0000463E  6744                     beq        +0x46 /* 00004684 */
00004640  7E00                     moveq.l    D7, 0x00
00004642  4244                     clr.w      D4
00004644  6038                     bra        +0x3A /* 0000467E */
label00004646:
00004646  426E FFF6                clr.w      [A6 - 0xA]
0000464A  6028                     bra        +0x2A /* 00004674 */
label0000464C:
0000464C  4267                     clr.w      -[A7]
0000464E  302E FFF6                move.w     D0, [A6 - 0xA]
00004652  D06D DED2                add.w      D0, [A5 - 0x212E]
00004656  3F00                     move.w     -[A7], D0
00004658  3004                     move.w     D0, D4
0000465A  D06D DED0                add.w      D0, [A5 - 0x2130]
0000465E  3F00                     move.w     -[A7], D0
00004660  A865                     syscall    GetPixel
00004662  101F                     move.b     D0, [A7]+
00004664  6708                     beq        +0xA /* 0000466E */
00004666  486E FFD2                pea.l      [A6 - 0x2E]
0000466A  2F07                     move.l     -[A7], D7
0000466C  A85E                     syscall    BitSet
label0000466E:
0000466E  5287                     addq.l     D7, 1
00004670  526E FFF6                addq.w     [A6 - 0xA], 1
label00004674:
00004674  7007                     moveq.l    D0, 0x07
00004676  B06E FFF6                cmp.w      D0, [A6 - 0xA]
0000467A  6CD0                     bge        -0x2E /* 0000464C */
0000467C  5244                     addq.w     D4, 1
label0000467E:
0000467E  7007                     moveq.l    D0, 0x07
00004680  B044                     cmp.w      D0, D4
00004682  6CC2                     bge        -0x3C /* 00004646 */
label00004684:
00004684  2F0C                     move.l     -[A7], A4
00004686  A873                     syscall    SetPort
00004688  486E FFDE                pea.l      [A6 - 0x22]
0000468C  A8A3                     syscall    EraseRect
0000468E  486E FFE6                pea.l      [A6 - 0x1A]
00004692  A8A3                     syscall    EraseRect
00004694  2F0E                     move.l     -[A7], A6
00004696  4EBA FCA2                jsr        [PC - 0x35E /* 0000433A */]
label0000469A:
0000469A  7001                     moveq.l    D0, 0x01
0000469C  B06E FFFA                cmp.w      D0, [A6 - 0x6]
000046A0  57C0                     seq        D0
000046A2  7202                     moveq.l    D1, 0x02
000046A4  B26E FFFA                cmp.w      D1, [A6 - 0x6]
000046A8  57C1                     seq        D1
000046AA  8001                     or.b       D0, D1
000046AC  6700 FD96                beq        -0x268 /* 00004444 */
000046B0  2F0C                     move.l     -[A7], A4
000046B2  4EAD 201A                jsr        [A5 + 0x201A /* export_1023, CODE:20 @ 000002FA */]
000046B6  2F2E FFDA                move.l     -[A7], [A6 - 0x26]
000046BA  A873                     syscall    SetPort
label000046BC:
000046BC  4CDF 10F0                movem.l    D4,D5,D6,D7,A4, [A7]+
000046C0  4E5E                     unlink     A6
000046C2  4E75                     rts
export_732:
fn000046C4:
000046C4  4E56 FFE8                link       A6, -0x0018
000046C8  1D7C 0004 FFE8           move.b     [A6 - 0x18], 0x4
000046CE  2D6D F4E0 FFEA           move.l     [A6 - 0x16], [A5 - 0xB20]
000046D4  4267                     clr.w      -[A7]
000046D6  486E FFE8                pea.l      [A6 - 0x18]
000046DA  4267                     clr.w      -[A7]
000046DC  4EAD 0E8A                jsr        [A5 + 0xE8A /* export_461, CODE:9 @ 00002B04 */]
000046E0  101F                     move.b     D0, [A7]+
000046E2  6604                     bne        +0x6 /* 000046E8 */
000046E4  4EAD 1812                jsr        [A5 + 0x1812 /* export_766, CODE:16 @ 00000208 */]
label000046E8:
000046E8  4E5E                     unlink     A6
000046EA  4E75                     rts
export_733:
000046EC  4E56 0000                link       A6, 0
000046F0  102E 0008                move.b     D0, [A6 + 0x8]
000046F4  670C                     beq        +0xE /* 00004702 */
000046F6  2F2E 000C                move.l     -[A7], [A6 + 0xC]
000046FA  3F2E 000A                move.w     -[A7], [A6 + 0xA]
000046FE  A939                     syscall    EnableItem
00004700  600A                     bra        +0xC /* 0000470C */
label00004702:
00004702  2F2E 000C                move.l     -[A7], [A6 + 0xC]
00004706  3F2E 000A                move.w     -[A7], [A6 + 0xA]
0000470A  A93A                     syscall    DisableItem
label0000470C:
0000470C  4E5E                     unlink     A6
0000470E  205F                     movea.l    A0, [A7]+
00004710  504F                     addq.w     A7, 8
00004712  4ED0                     jmp        [A0]
export_734:
fn00004714:
00004714  4E56 FFE2                link       A6, -0x001E
00004718  48E7 0F18                movem.l    -[A7], D4,D5,D6,D7,A3,A4
0000471C  282E 000E                move.l     D4, [A6 + 0xE]
00004720  4267                     clr.w      -[A7]
00004722  2F04                     move.l     -[A7], D4
00004724  3F2E 000C                move.w     -[A7], [A6 + 0xC]
00004728  486D E226                pea.l      [A5 - 0x1DDA]
0000472C  4EAD 1DB2                jsr        [A5 + 0x1DB2 /* export_946, CODE:18 @ 00000D08 */]
00004730  1A1F                     move.b     D5, [A7]+
00004732  486D E226                pea.l      [A5 - 0x1DDA]
00004736  B8AD F622                cmp.l      D4, [A5 - 0x9DE]
0000473A  57C0                     seq        D0
0000473C  4400                     neg.b      D0
0000473E  1F00                     move.b     -[A7], D0
00004740  486E FFEA                pea.l      [A6 - 0x16]
00004744  486E FFE2                pea.l      [A6 - 0x1E]
00004748  4EBA C0EE                jsr        [PC - 0x3F12 /* 00000838 */]
0000474C  206E 0008                movea.l    A0, [A6 + 0x8]
00004750  2850                     movea.l    A4, [A0]
00004752  41EE FFEA                lea.l      A0, [A6 - 0x16]
00004756  224C                     movea.l    A1, A4
00004758  22D8                     move.l     [A1]+, [A0]+
0000475A  22D8                     move.l     [A1]+, [A0]+
0000475C  204C                     movea.l    A0, A4
0000475E  5088                     addq.l     A0, 8
00004760  43EE FFE2                lea.l      A1, [A6 - 0x1E]
00004764  20D9                     move.l     [A0]+, [A1]+
00004766  20D9                     move.l     [A0]+, [A1]+
00004768  396D E242 0018           move.w     [A4 + 0x18], [A5 - 0x1DBE]
0000476E  302C 0018                move.w     D0, [A4 + 0x18]
00004772  48C0                     ext.l      D0
00004774  81FC 0004                divs.w     D0, 0x4
00004778  322C 0018                move.w     D1, [A4 + 0x18]
0000477C  9240                     sub.w      D1, D0
0000477E  3941 001A                move.w     [A4 + 0x1A], D1
00004782  396D E23A 003A           move.w     [A4 + 0x3A], [A5 - 0x1DC6]
00004788  396D E23C 004A           move.w     [A4 + 0x4A], [A5 - 0x1DC4]
0000478E  196D E240 004C           move.b     [A4 + 0x4C], [A5 - 0x1DC0]
00004794  397C 0001 004E           move.w     [A4 + 0x4E], 0x1
0000479A  396D E23E 0050           move.w     [A4 + 0x50], [A5 - 0x1DC2]
000047A0  42A7                     clr.l      -[A7]
000047A2  2F2D F62A                move.l     -[A7], [A5 - 0x9D6]
000047A6  4EAD 1F7A                jsr        [A5 + 0x1F7A /* export_1003, CODE:19 @ 00001744 */]
000047AA  265F                     movea.l    A3, [A7]+
000047AC  200B                     move.l     D0, A3
000047AE  6744                     beq        +0x46 /* 000047F4 */
000047B0  2F0B                     move.l     -[A7], A3
000047B2  486E FFF3                pea.l      [A6 - 0xD]
000047B6  4EAD 1922                jsr        [A5 + 0x1922 /* export_800, CODE:16 @ 00000C02 */]
000047BA  3E2E 000C                move.w     D7, [A6 + 0xC]
000047BE  B8AD F62A                cmp.l      D4, [A5 - 0x9D6]
000047C2  6606                     bne        +0x8 /* 000047CA */
000047C4  3007                     move.w     D0, D7
000047C6  4440                     neg.w      D0
000047C8  3E00                     move.w     D7, D0
label000047CA:
000047CA  42A7                     clr.l      -[A7]
000047CC  2F0B                     move.l     -[A7], A3
000047CE  3F07                     move.w     -[A7], D7
000047D0  4EAD 1C32                jsr        [A5 + 0x1C32 /* export_898, CODE:17 @ 00000A32 */]
000047D4  2C1F                     move.l     D6, [A7]+
000047D6  2F06                     move.l     -[A7], D6
000047D8  2F2E 0008                move.l     -[A7], [A6 + 0x8]
000047DC  4EBA E548                jsr        [PC - 0x1AB8 /* 00002D26 */]
000047E0  2F0B                     move.l     -[A7], A3
000047E2  1F2E FFF3                move.b     -[A7], [A6 - 0xD]
000047E6  4EAD 03F2                jsr        [A5 + 0x3F2 /* export_122, CODE:1 @ 00004D00 */]
000047EA  2F2D F62A                move.l     -[A7], [A5 - 0x9D6]
000047EE  4267                     clr.w      -[A7]
000047F0  4EAD 1EF2                jsr        [A5 + 0x1EF2 /* export_986, CODE:19 @ 00000450 */]
label000047F4:
000047F4  4CDF 18F0                movem.l    D4,D5,D6,D7,A3,A4, [A7]+
000047F8  4E5E                     unlink     A6
000047FA  205F                     movea.l    A0, [A7]+
000047FC  DEFC 000A                add.w      A7, 0xA /* '\n' */
00004800  4ED0                     jmp        [A0]
fn00004802:
00004802  4E56 0000                link       A6, 0
00004806  48E7 0018                movem.l    -[A7], A3,A4
0000480A  286E 0008                movea.l    A4, [A6 + 0x8]
0000480E  266C FFDE                movea.l    A3, [A4 - 0x22]
00004812  4A2B 0005                tst.b      [A3 + 0x5]
00004816  6C02                     bge        +0x4 /* 0000481A */
00004818  606E                     bra        +0x70 /* 00004888 */
label0000481A:
0000481A  4267                     clr.w      -[A7]
0000481C  486C FFC8                pea.l      [A4 - 0x38]
00004820  486B 0006                pea.l      [A3 + 0x6]
00004824  486C FFC0                pea.l      [A4 - 0x40]
00004828  A8AA                     syscall    SectRect
0000482A  101F                     move.b     D0, [A7]+
0000482C  6602                     bne        +0x4 /* 00004830 */
0000482E  6058                     bra        +0x5A /* 00004888 */
label00004830:
00004830  7000                     moveq.l    D0, 0x00
00004832  206C FFDE                movea.l    A0, [A4 - 0x22]
00004836  3028 000E                move.w     D0, [A0 + 0xE]
0000483A  C0BC 0000 000F           and.l      D0, 0xF
00004840  4A80                     tst.l      D0
00004842  670C                     beq        +0xE /* 00004850 */
00004844  206E 0008                movea.l    A0, [A6 + 0x8]
00004848  2C48                     movea.l    A6, A0
0000484A  4EFA 028A                jmp        [PC + 0x28A /* 00004AD6 */]
0000484E  0000 7001                ori.b      D0, 0x1
// begin alternate branch 00004850-00004852
label00004850:
00004850  7001                     moveq.l    D0, 0x01
// end alternate branch 00004850-00004852
label00004850: // (misaligned)
00004852  B02B 0004                cmp.b      D0, [A3 + 0x4]
00004856  6630                     bne        +0x32 /* 00004888 */
00004858  206C FFDE                movea.l    A0, [A4 - 0x22]
0000485C  2028 0010                move.l     D0, [A0 + 0x10]
00004860  4A40                     tst.w      D0
00004862  56C0                     sne        D0
00004864  7200                     moveq.l    D1, 0x00
00004866  206C FFDE                movea.l    A0, [A4 - 0x22]
0000486A  3228 000E                move.w     D1, [A0 + 0xE]
0000486E  C2BC 0000 4000           and.l      D1, 0x4000 /* '@\0' */
00004874  4A81                     tst.l      D1
00004876  56C1                     sne        D1
00004878  8001                     or.b       D0, D1
0000487A  670C                     beq        +0xE /* 00004888 */
0000487C  206E 0008                movea.l    A0, [A6 + 0x8]
00004880  2C48                     movea.l    A6, A0
00004882  4EFA 0252                jmp        [PC + 0x252 /* 00004AD6 */]
00004886  0000 4CDF                ori.b      D0, 0xDF
// begin alternate branch 00004888-0000488C
label00004888:
00004888  4CDF 1800                movem.l    A3,A4, [A7]+
// end alternate branch 00004888-0000488C
label00004888: // (misaligned)
0000488A  1800                     move.b     D4, D0
0000488C  4E5E                     unlink     A6
0000488E  2E9F                     move.l     [A7], [A7]+
00004890  4E75                     rts
export_735:
fn00004892:
00004892  4E56 FFA8                link       A6, -0x0058
00004896  48E7 1F38                movem.l    -[A7], D3,D4,D5,D6,D7,A2,A3,A4
0000489A  1D7C 0001 000E           move.b     [A6 + 0xE], 0x1
000048A0  422E FFBF                clr.b      [A6 - 0x41]
000048A4  7000                     moveq.l    D0, 0x00
000048A6  2D40 FFD0                move.l     [A6 - 0x30], D0
000048AA  42A7                     clr.l      -[A7]
000048AC  2F2D F62A                move.l     -[A7], [A5 - 0x9D6]
000048B0  4EAD 1F7A                jsr        [A5 + 0x1F7A /* export_1003, CODE:19 @ 00001744 */]
000048B4  2D5F FFD8                move.l     [A6 - 0x28], [A7]+
000048B8  42A7                     clr.l      -[A7]
000048BA  2F2D F622                move.l     -[A7], [A5 - 0x9DE]
000048BE  4EAD 1F6A                jsr        [A5 + 0x1F6A /* export_1001, CODE:19 @ 000016EC */]
000048C2  2D5F FFD4                move.l     [A6 - 0x2C], [A7]+
000048C6  2F2E 000A                move.l     -[A7], [A6 + 0xA]
000048CA  3F2E 0008                move.w     -[A7], [A6 + 0x8]
000048CE  486E FFC8                pea.l      [A6 - 0x38]
000048D2  4EBA 115C                jsr        [PC + 0x115C /* 00005A30 */]
000048D6  202E 000A                move.l     D0, [A6 + 0xA]
000048DA  B0AD F622                cmp.l      D0, [A5 - 0x9DE]
000048DE  6600 017C                bne        +0x17E /* 00004A5C */
000048E2  4AAE FFD4                tst.l      [A6 - 0x2C]
000048E6  675E                     beq        +0x60 /* 00004946 */
000048E8  206E FFD4                movea.l    A0, [A6 - 0x2C]
000048EC  2010                     move.l     D0, [A0]
000048EE  722E                     moveq.l    D1, 0x2E
000048F0  D081                     add.l      D0, D1
000048F2  2D40 FFDE                move.l     [A6 - 0x22], D0
000048F6  206E FFD4                movea.l    A0, [A6 - 0x2C]
000048FA  2050                     movea.l    A0, [A0]
000048FC  3D68 0020 FFAA           move.w     [A6 - 0x56], [A0 + 0x20]
00004902  3D7C 0001 FFDC           move.w     [A6 - 0x24], 0x1
00004908  6032                     bra        +0x34 /* 0000493C */
label0000490A:
0000490A  102E FFBF                move.b     D0, [A6 - 0x41]
0000490E  6706                     beq        +0x8 /* 00004916 */
00004910  2F0E                     move.l     -[A7], A6
00004912  4EBA FEEE                jsr        [PC - 0x112 /* 00004802 */]
label00004916:
00004916  206E FFDE                movea.l    A0, [A6 - 0x22]
0000491A  3028 0002                move.w     D0, [A0 + 0x2]
0000491E  B06E 0008                cmp.w      D0, [A6 + 0x8]
00004922  6606                     bne        +0x8 /* 0000492A */
00004924  1D7C 0001 FFBF           move.b     [A6 - 0x41], 0x1
label0000492A:
0000492A  206E FFDE                movea.l    A0, [A6 - 0x22]
0000492E  3010                     move.w     D0, [A0]
00004930  48C0                     ext.l      D0
00004932  D1AE FFDE                add.l      [A6 - 0x22], D0
00004936  526E FFDC                addq.w     [A6 - 0x24], 1
0000493A  690A                     bvs        +0xC /* 00004946 */
label0000493C:
0000493C  302E FFDC                move.w     D0, [A6 - 0x24]
00004940  B06E FFAA                cmp.w      D0, [A6 - 0x56]
00004944  6FC4                     ble        -0x3A /* 0000490A */
label00004946:
00004946  102D E2E5                move.b     D0, [A5 - 0x1D1B]
0000494A  6600 0110                bne        +0x112 /* 00004A5C */
0000494E  4267                     clr.w      -[A7]
00004950  2F2E 000A                move.l     -[A7], [A6 + 0xA]
00004954  3F2E 0008                move.w     -[A7], [A6 + 0x8]
00004958  486E FFE2                pea.l      [A6 - 0x1E]
0000495C  4EAD 1DB2                jsr        [A5 + 0x1DB2 /* export_946, CODE:18 @ 00000D08 */]
00004960  101F                     move.b     D0, [A7]+
00004962  6720                     beq        +0x22 /* 00004984 */
00004964  7203                     moveq.l    D1, 0x03
00004966  6B18                     bmi        +0x1A /* 00004980 */
00004968  B27C 0007                cmp.w      D1, 0x7
0000496C  6E12                     bgt        +0x14 /* 00004980 */
0000496E  41EE FFFD                lea.l      A0, [A6 - 0x3]
00004972  3401                     move.w     D2, D1
00004974  E64A                     lsr        D2.w, 3
00004976  4442                     neg.w      D2
00004978  0330 20FF                btst       [A0 + D2.w - 0x1], D1
0000497C  0A3C 0004                xori.b     ccr, 4
label00004980:
00004980  57C1                     seq        D1
00004982  C001                     and.b      D0, D1
label00004984:
00004984  7204                     moveq.l    D1, 0x04
00004986  6B18                     bmi        +0x1A /* 000049A0 */
00004988  B27C 0007                cmp.w      D1, 0x7
0000498C  6E12                     bgt        +0x14 /* 000049A0 */
0000498E  41EE FFFD                lea.l      A0, [A6 - 0x3]
00004992  3401                     move.w     D2, D1
00004994  E64A                     lsr        D2.w, 3
00004996  4442                     neg.w      D2
00004998  0330 20FF                btst       [A0 + D2.w - 0x1], D1
0000499C  0A3C 0004                xori.b     ccr, 4
label000049A0:
000049A0  57C1                     seq        D1
000049A2  8001                     or.b       D0, D1
000049A4  0240 0001                andi.w     D0, 0x1
000049A8  1D40 FFAD                move.b     [A6 - 0x53], D0
000049AC  102D EFDF                move.b     D0, [A5 - 0x1021]
000049B0  0A00 0001                xori.b     D0, 0x1
000049B4  C02D E2E3                and.b      D0, [A5 - 0x1D1D]
000049B8  6732                     beq        +0x34 /* 000049EC */
000049BA  41EE FFB6                lea.l      A0, [A6 - 0x4A]
000049BE  43ED ED82                lea.l      A1, [A5 - 0x127E]
000049C2  20D9                     move.l     [A0]+, [A1]+
000049C4  20D9                     move.l     [A0]+, [A1]+
000049C6  2F2D ECD4                move.l     -[A7], [A5 - 0x132C]
000049CA  486E FFB6                pea.l      [A6 - 0x4A]
000049CE  4EAD 153A                jsr        [A5 + 0x153A /* export_675, CODE:14 @ 00000C62 */]
000049D2  41EE FFAE                lea.l      A0, [A6 - 0x52]
000049D6  43ED ED82                lea.l      A1, [A5 - 0x127E]
000049DA  20D9                     move.l     [A0]+, [A1]+
000049DC  20D9                     move.l     [A0]+, [A1]+
000049DE  2F2D ECD0                move.l     -[A7], [A5 - 0x1330]
000049E2  486E FFAE                pea.l      [A6 - 0x52]
000049E6  4EAD 153A                jsr        [A5 + 0x153A /* export_675, CODE:14 @ 00000C62 */]
000049EA  6034                     bra        +0x36 /* 00004A20 */
label000049EC:
000049EC  42A7                     clr.l      -[A7]
000049EE  2F2D E2EA                move.l     -[A7], [A5 - 0x1D16]
000049F2  4EAD 1F72                jsr        [A5 + 0x1F72 /* export_1002, CODE:19 @ 00001718 */]
000049F6  2D5F FFD0                move.l     [A6 - 0x30], [A7]+
000049FA  6760                     beq        +0x62 /* 00004A5C */
000049FC  206E FFD0                movea.l    A0, [A6 - 0x30]
00004A00  2050                     movea.l    A0, [A0]
00004A02  43EE FFB6                lea.l      A1, [A6 - 0x4A]
00004A06  41E8 001C                lea.l      A0, [A0 + 0x1C]
00004A0A  22D8                     move.l     [A1]+, [A0]+
00004A0C  22D8                     move.l     [A1]+, [A0]+
00004A0E  206E FFD0                movea.l    A0, [A6 - 0x30]
00004A12  2050                     movea.l    A0, [A0]
00004A14  43EE FFAE                lea.l      A1, [A6 - 0x52]
00004A18  41E8 0024                lea.l      A0, [A0 + 0x24]
00004A1C  22D8                     move.l     [A1]+, [A0]+
00004A1E  22D8                     move.l     [A1]+, [A0]+
label00004A20:
00004A20  4267                     clr.w      -[A7]
00004A22  486E FFB6                pea.l      [A6 - 0x4A]
00004A26  486E FFC8                pea.l      [A6 - 0x38]
00004A2A  486E FFC0                pea.l      [A6 - 0x40]
00004A2E  A8AA                     syscall    SectRect
00004A30  101F                     move.b     D0, [A7]+
00004A32  6600 00A2                bne        +0xA4 /* 00004AD6 */
00004A36  122E FFAD                move.b     D1, [A6 - 0x53]
00004A3A  6720                     beq        +0x22 /* 00004A5C */
00004A3C  48E7 C000                movem.l    -[A7], D0,D1
00004A40  4267                     clr.w      -[A7]
00004A42  486E FFAE                pea.l      [A6 - 0x52]
00004A46  486E FFC8                pea.l      [A6 - 0x38]
00004A4A  486E FFC0                pea.l      [A6 - 0x40]
00004A4E  A8AA                     syscall    SectRect
00004A50  141F                     move.b     D2, [A7]+
00004A52  4CDF 0003                movem.l    D0,D1, [A7]+
00004A56  C202                     and.b      D1, D2
00004A58  8001                     or.b       D0, D1
00004A5A  667A                     bne        +0x7C /* 00004AD6 */
label00004A5C:
00004A5C  4AAE FFD8                tst.l      [A6 - 0x28]
00004A60  6770                     beq        +0x72 /* 00004AD2 */
00004A62  206E FFD8                movea.l    A0, [A6 - 0x28]
00004A66  2010                     move.l     D0, [A0]
00004A68  7232                     moveq.l    D1, 0x32
00004A6A  D081                     add.l      D0, D1
00004A6C  2D40 FFDE                move.l     [A6 - 0x22], D0
00004A70  206E FFD8                movea.l    A0, [A6 - 0x28]
00004A74  2050                     movea.l    A0, [A0]
00004A76  3D68 0024 FFA8           move.w     [A6 - 0x58], [A0 + 0x24]
00004A7C  3D7C 0001 FFDC           move.w     [A6 - 0x24], 0x1
00004A82  6044                     bra        +0x46 /* 00004AC8 */
label00004A84:
00004A84  102E FFBF                move.b     D0, [A6 - 0x41]
00004A88  6706                     beq        +0x8 /* 00004A90 */
00004A8A  2F0E                     move.l     -[A7], A6
00004A8C  4EBA FD74                jsr        [PC - 0x28C /* 00004802 */]
label00004A90:
00004A90  206E FFDE                movea.l    A0, [A6 - 0x22]
00004A94  302E 0008                move.w     D0, [A6 + 0x8]
00004A98  B068 0002                cmp.w      D0, [A0 + 0x2]
00004A9C  57C0                     seq        D0
00004A9E  4A00                     tst.b      D0
00004AA0  6714                     beq        +0x16 /* 00004AB6 */
00004AA2  222E 000A                move.l     D1, [A6 + 0xA]
00004AA6  B2AD F62A                cmp.l      D1, [A5 - 0x9D6]
00004AAA  57C1                     seq        D1
00004AAC  C001                     and.b      D0, D1
00004AAE  6706                     beq        +0x8 /* 00004AB6 */
00004AB0  1D7C 0001 FFBF           move.b     [A6 - 0x41], 0x1
label00004AB6:
00004AB6  206E FFDE                movea.l    A0, [A6 - 0x22]
00004ABA  3010                     move.w     D0, [A0]
00004ABC  48C0                     ext.l      D0
00004ABE  D1AE FFDE                add.l      [A6 - 0x22], D0
00004AC2  526E FFDC                addq.w     [A6 - 0x24], 1
00004AC6  690A                     bvs        +0xC /* 00004AD2 */
label00004AC8:
00004AC8  302E FFDC                move.w     D0, [A6 - 0x24]
00004ACC  B06E FFA8                cmp.w      D0, [A6 - 0x58]
00004AD0  6FB2                     ble        -0x4C /* 00004A84 */
label00004AD2:
00004AD2  422E 000E                clr.b      [A6 + 0xE]
label00004AD6:
00004AD6  4FEE FF88                lea.l      A7, [A6 - 0x78]
00004ADA  4AAE FFD0                tst.l      [A6 - 0x30]
00004ADE  670A                     beq        +0xC /* 00004AEA */
00004AE0  2F2D E2EA                move.l     -[A7], [A5 - 0x1D16]
00004AE4  4267                     clr.w      -[A7]
00004AE6  4EAD 1EEA                jsr        [A5 + 0x1EEA /* export_985, CODE:19 @ 00000432 */]
label00004AEA:
00004AEA  4AAE FFD8                tst.l      [A6 - 0x28]
00004AEE  670A                     beq        +0xC /* 00004AFA */
00004AF0  2F2D F62A                move.l     -[A7], [A5 - 0x9D6]
00004AF4  4267                     clr.w      -[A7]
00004AF6  4EAD 1EF2                jsr        [A5 + 0x1EF2 /* export_986, CODE:19 @ 00000450 */]
label00004AFA:
00004AFA  4AAE FFD4                tst.l      [A6 - 0x2C]
00004AFE  670A                     beq        +0xC /* 00004B0A */
00004B00  2F2D F622                move.l     -[A7], [A5 - 0x9DE]
00004B04  4267                     clr.w      -[A7]
00004B06  4EAD 1EE2                jsr        [A5 + 0x1EE2 /* export_984, CODE:19 @ 00000414 */]
label00004B0A:
00004B0A  4CDF 1CF8                movem.l    D3,D4,D5,D6,D7,A2,A3,A4, [A7]+
00004B0E  4E5E                     unlink     A6
00004B10  205F                     movea.l    A0, [A7]+
00004B12  5C4F                     addq.w     A7, 6
00004B14  4ED0                     jmp        [A0]
export_736:
fn00004B16:
00004B16  4E56 FFEA                link       A6, -0x0016
00004B1A  48E7 0F00                movem.l    -[A7], D4,D5,D6,D7
00004B1E  206E 0008                movea.l    A0, [A6 + 0x8]
00004B22  43EE FFF8                lea.l      A1, [A6 - 0x8]
00004B26  22D8                     move.l     [A1]+, [A0]+
00004B28  22D8                     move.l     [A1]+, [A0]+
00004B2A  282E 000C                move.l     D4, [A6 + 0xC]
00004B2E  4267                     clr.w      -[A7]
00004B30  486D ED82                pea.l      [A5 - 0x127E]
00004B34  486E FFF8                pea.l      [A6 - 0x8]
00004B38  486E FFF8                pea.l      [A6 - 0x8]
00004B3C  A8AA                     syscall    SectRect
00004B3E  101F                     move.b     D0, [A7]+
00004B40  6604                     bne        +0x6 /* 00004B46 */
00004B42  6000 00A6                bra        +0xA8 /* 00004BEA */
label00004B46:
00004B46  4A84                     tst.l      D4
00004B48  57C0                     seq        D0
00004B4A  4A00                     tst.b      D0
00004B4C  6720                     beq        +0x22 /* 00004B6E */
00004B4E  2F00                     move.l     -[A7], D0
00004B50  4267                     clr.w      -[A7]
00004B52  486E FFF8                pea.l      [A6 - 0x8]
00004B56  486D ED82                pea.l      [A5 - 0x127E]
00004B5A  A8A6                     syscall    EqualRect
00004B5C  121F                     move.b     D1, [A7]+
00004B5E  201F                     move.l     D0, [A7]+
00004B60  C001                     and.b      D0, D1
00004B62  670A                     beq        +0xC /* 00004B6E */
00004B64  2F2E 0010                move.l     -[A7], [A6 + 0x10]
00004B68  4EAD 1D12                jsr        [A5 + 0x1D12 /* export_926, CODE:17 @ 00002B38 */]
00004B6C  607C                     bra        +0x7E /* 00004BEA */
label00004B6E:
00004B6E  3A2E FFFC                move.w     D5, [A6 - 0x4]
00004B72  9A6E FFF8                sub.w      D5, [A6 - 0x8]
00004B76  7000                     moveq.l    D0, 0x00
00004B78  302E FFFA                move.w     D0, [A6 - 0x6]
00004B7C  EA88                     lsr        D0, 5
00004B7E  3E00                     move.w     D7, D0
00004B80  7000                     moveq.l    D0, 0x00
00004B82  322E FFFE                move.w     D1, [A6 - 0x2]
00004B86  D27C 001F                add.w      D1, 0x1F
00004B8A  3001                     move.w     D0, D1
00004B8C  EA88                     lsr        D0, 5
00004B8E  3207                     move.w     D1, D7
00004B90  48C1                     ext.l      D1
00004B92  9081                     sub.l      D0, D1
00004B94  3C00                     move.w     D6, D0
00004B96  E540                     asl        D0.w, 2
00004B98  7240                     moveq.l    D1, 0x40
00004B9A  9240                     sub.w      D1, D0
00004B9C  3D41 FFF2                move.w     [A6 - 0xE], D1
00004BA0  3007                     move.w     D0, D7
00004BA2  E540                     asl        D0.w, 2
00004BA4  322E FFF8                move.w     D1, [A6 - 0x8]
00004BA8  ED41                     asl        D1.w, 6
00004BAA  D240                     add.w      D1, D0
00004BAC  3D41 FFEA                move.w     [A6 - 0x16], D1
00004BB0  302E FFEA                move.w     D0, [A6 - 0x16]
00004BB4  48C0                     ext.l      D0
00004BB6  D0AE 0010                add.l      D0, [A6 + 0x10]
00004BBA  2D40 FFF4                move.l     [A6 - 0xC], D0
00004BBE  0C84 AAAA AAAA           cmpi.l     D4, 0xAAAAAAAA
00004BC4  57C0                     seq        D0
00004BC6  122E FFF9                move.b     D1, [A6 - 0x7]
00004BCA  0241 0001                andi.w     D1, 0x1
00004BCE  C001                     and.b      D0, D1
00004BD0  6706                     beq        +0x8 /* 00004BD8 */
00004BD2  283C 5555 5555           move.l     D4, 0x55555555 /* 'UUUU' */
label00004BD8:
00004BD8  2F2E FFF4                move.l     -[A7], [A6 - 0xC]
00004BDC  2F04                     move.l     -[A7], D4
00004BDE  3F05                     move.w     -[A7], D5
00004BE0  3F06                     move.w     -[A7], D6
00004BE2  3F2E FFF2                move.w     -[A7], [A6 - 0xE]
00004BE6  4EAD 1B9A                jsr        [A5 + 0x1B9A /* export_879, CODE:17 @ 00000478 */]
label00004BEA:
00004BEA  4CDF 00F0                movem.l    D4,D5,D6,D7, [A7]+
00004BEE  4E5E                     unlink     A6
00004BF0  205F                     movea.l    A0, [A7]+
00004BF2  DEFC 000C                add.w      A7, 0xC
00004BF6  4ED0                     jmp        [A0]
fn00004BF8:
00004BF8  4E56 FFCA                link       A6, -0x0036
00004BFC  48E7 0018                movem.l    -[A7], A3,A4
00004C00  206E 000C                movea.l    A0, [A6 + 0xC]
00004C04  43EE FFF8                lea.l      A1, [A6 - 0x8]
00004C08  22D8                     move.l     [A1]+, [A0]+
00004C0A  22D8                     move.l     [A1]+, [A0]+
00004C0C  206E 0008                movea.l    A0, [A6 + 0x8]
00004C10  43EE FFF0                lea.l      A1, [A6 - 0x10]
00004C14  22D8                     move.l     [A1]+, [A0]+
00004C16  22D8                     move.l     [A1]+, [A0]+
00004C18  4267                     clr.w      -[A7]
00004C1A  486E FFF0                pea.l      [A6 - 0x10]
00004C1E  A8AE                     syscall    EmptyRect
00004C20  101F                     move.b     D0, [A7]+
00004C22  6704                     beq        +0x6 /* 00004C28 */
00004C24  6000 00EC                bra        +0xEE /* 00004D12 */
label00004C28:
00004C28  7000                     moveq.l    D0, 0x00
00004C2A  302E FFF2                move.w     D0, [A6 - 0xE]
00004C2E  C0BC 0000 001F           and.l      D0, 0x1F
00004C34  4A80                     tst.l      D0
00004C36  57C0                     seq        D0
00004C38  7200                     moveq.l    D1, 0x00
00004C3A  322E FFF6                move.w     D1, [A6 - 0xA]
00004C3E  C2BC 0000 001F           and.l      D1, 0x1F
00004C44  4A81                     tst.l      D1
00004C46  57C1                     seq        D1
00004C48  C001                     and.b      D0, D1
00004C4A  6716                     beq        +0x18 /* 00004C62 */
00004C4C  49EE FFF8                lea.l      A4, [A6 - 0x8]
00004C50  2F2E 0010                move.l     -[A7], [A6 + 0x10]
00004C54  2F14                     move.l     -[A7], [A4]
00004C56  486E FFF0                pea.l      [A6 - 0x10]
00004C5A  4EBA FEBA                jsr        [PC - 0x146 /* 00004B16 */]
00004C5E  6000 00B2                bra        +0xB4 /* 00004D12 */
label00004C62:
00004C62  266D FEA8                movea.l    A3, [A5 - 0x158]
00004C66  41EE FFDE                lea.l      A0, [A6 - 0x22]
00004C6A  43ED EE3A                lea.l      A1, [A5 - 0x11C6]
00004C6E  20D9                     move.l     [A0]+, [A1]+
00004C70  20D9                     move.l     [A0]+, [A1]+
00004C72  20D9                     move.l     [A0]+, [A1]+
00004C74  3091                     move.w     [A0], [A1]
00004C76  206D EE50                movea.l    A0, [A5 - 0x11B0]
00004C7A  2050                     movea.l    A0, [A0]
00004C7C  43EE FFD2                lea.l      A1, [A6 - 0x2E]
00004C80  5488                     addq.l     A0, 2
00004C82  22D8                     move.l     [A1]+, [A0]+
00004C84  22D8                     move.l     [A1]+, [A0]+
00004C86  206D EE54                movea.l    A0, [A5 - 0x11AC]
00004C8A  2050                     movea.l    A0, [A0]
00004C8C  43EE FFCA                lea.l      A1, [A6 - 0x36]
00004C90  5488                     addq.l     A0, 2
00004C92  22D8                     move.l     [A1]+, [A0]+
00004C94  22D8                     move.l     [A1]+, [A0]+
00004C96  41ED EE38                lea.l      A0, [A5 - 0x11C8]
00004C9A  2B48 FEA8                move.l     [A5 - 0x158], A0
00004C9E  41ED EE3A                lea.l      A0, [A5 - 0x11C6]
00004CA2  43ED ED44                lea.l      A1, [A5 - 0x12BC]
00004CA6  20D9                     move.l     [A0]+, [A1]+
00004CA8  20D9                     move.l     [A0]+, [A1]+
00004CAA  20D9                     move.l     [A0]+, [A1]+
00004CAC  3091                     move.w     [A0], [A1]
00004CAE  2B6E 0010 EE3A           move.l     [A5 - 0x11C6], [A6 + 0x10]
00004CB4  206D EE50                movea.l    A0, [A5 - 0x11B0]
00004CB8  2050                     movea.l    A0, [A0]
00004CBA  5488                     addq.l     A0, 2
00004CBC  43ED ED82                lea.l      A1, [A5 - 0x127E]
00004CC0  20D9                     move.l     [A0]+, [A1]+
00004CC2  20D9                     move.l     [A0]+, [A1]+
00004CC4  206D EE54                movea.l    A0, [A5 - 0x11AC]
00004CC8  2050                     movea.l    A0, [A0]
00004CCA  5488                     addq.l     A0, 2
00004CCC  43ED ED82                lea.l      A1, [A5 - 0x127E]
00004CD0  20D9                     move.l     [A0]+, [A1]+
00004CD2  20D9                     move.l     [A0]+, [A1]+
00004CD4  486E FFF0                pea.l      [A6 - 0x10]
00004CD8  486E FFF8                pea.l      [A6 - 0x8]
00004CDC  A8A5                     syscall    FillRect
00004CDE  2B4B FEA8                move.l     [A5 - 0x158], A3
00004CE2  41ED EE3A                lea.l      A0, [A5 - 0x11C6]
00004CE6  43EE FFDE                lea.l      A1, [A6 - 0x22]
00004CEA  20D9                     move.l     [A0]+, [A1]+
00004CEC  20D9                     move.l     [A0]+, [A1]+
00004CEE  20D9                     move.l     [A0]+, [A1]+
00004CF0  3091                     move.w     [A0], [A1]
00004CF2  206D EE50                movea.l    A0, [A5 - 0x11B0]
00004CF6  2050                     movea.l    A0, [A0]
00004CF8  5488                     addq.l     A0, 2
00004CFA  43EE FFD2                lea.l      A1, [A6 - 0x2E]
00004CFE  20D9                     move.l     [A0]+, [A1]+
00004D00  20D9                     move.l     [A0]+, [A1]+
00004D02  206D EE54                movea.l    A0, [A5 - 0x11AC]
00004D06  2050                     movea.l    A0, [A0]
00004D08  5488                     addq.l     A0, 2
00004D0A  43EE FFCA                lea.l      A1, [A6 - 0x36]
00004D0E  20D9                     move.l     [A0]+, [A1]+
00004D10  20D9                     move.l     [A0]+, [A1]+
label00004D12:
00004D12  4CDF 1800                movem.l    A3,A4, [A7]+
00004D16  4E5E                     unlink     A6
00004D18  205F                     movea.l    A0, [A7]+
00004D1A  DEFC 000C                add.w      A7, 0xC
00004D1E  4ED0                     jmp        [A0]
fn00004D20:
00004D20  4E56 FEFC                link       A6, -0x0104
00004D24  48E7 0108                movem.l    -[A7], D7,A4
00004D28  286E 0008                movea.l    A4, [A6 + 0x8]
00004D2C  4267                     clr.w      -[A7]
00004D2E  2F2C FFDA                move.l     -[A7], [A4 - 0x26]
00004D32  A950                     syscall    CountMItems
00004D34  3D5F FEFC                move.w     [A6 - 0x104], [A7]+
00004D38  7E01                     moveq.l    D7, 0x01
00004D3A  6048                     bra        +0x4A /* 00004D84 */
label00004D3C:
00004D3C  2F2C FFDA                move.l     -[A7], [A4 - 0x26]
00004D40  3F07                     move.w     -[A7], D7
00004D42  486E FEFE                pea.l      [A6 - 0x102]
00004D46  4EBA 07D6                jsr        [PC + 0x7D6 /* 0000551E */]
00004D4A  4267                     clr.w      -[A7]
00004D4C  486E FEFE                pea.l      [A6 - 0x102]
00004D50  486C FFE0                pea.l      [A4 - 0x20]
00004D54  4EAD 1AC2                jsr        [A5 + 0x1AC2 /* export_852, CODE:16 @ 00001B82 */]
00004D58  101F                     move.b     D0, [A7]+
00004D5A  6724                     beq        +0x26 /* 00004D80 */
00004D5C  3007                     move.w     D0, D7
00004D5E  48C0                     ext.l      D0
00004D60  7200                     moveq.l    D1, 0x00
00004D62  322C FFDE                move.w     D1, [A4 - 0x22]
00004D66  7410                     moveq.l    D2, 0x10
00004D68  E5A9                     lsl        D1, D2
00004D6A  D280                     add.l      D1, D0
00004D6C  206E 0008                movea.l    A0, [A6 + 0x8]
00004D70  2141 000C                move.l     [A0 + 0xC], D1
00004D74  206E 0008                movea.l    A0, [A6 + 0x8]
00004D78  2C48                     movea.l    A6, A0
00004D7A  4EFA 00C4                jmp        [PC + 0xC4 /* 00004E40 */]
00004D7E  0000 5247                ori.b      D0, 0x47 /* 'G' */
// begin alternate branch 00004D80-00004D82
label00004D80:
00004D80  5247                     addq.w     D7, 1
// end alternate branch 00004D80-00004D82
label00004D80: // (misaligned)
00004D82  6906                     bvs        +0x8 /* 00004D8A */
label00004D84:
00004D84  BE6E FEFC                cmp.w      D7, [A6 - 0x104]
00004D88  6FB2                     ble        -0x4C /* 00004D3C */
label00004D8A:
00004D8A  4CDF 1080                movem.l    D7,A4, [A7]+
00004D8E  4E5E                     unlink     A6
00004D90  2E9F                     move.l     [A7], [A7]+
00004D92  4E75                     rts
export_737:
00004D94  4E56 FFD6                link       A6, -0x002A
00004D98  48E7 1F38                movem.l    -[A7], D3,D4,D5,D6,D7,A2,A3,A4
00004D9C  206E 0008                movea.l    A0, [A6 + 0x8]
00004DA0  43EE FFE0                lea.l      A1, [A6 - 0x20]
00004DA4  7007                     moveq.l    D0, 0x07
label00004DA6:
00004DA6  22D8                     move.l     [A1]+, [A0]+
00004DA8  51C8 FFFC                dbf        D0, -0x6 /* 00004DA6 */
00004DAC  7000                     moveq.l    D0, 0x00
00004DAE  2D40 000C                move.l     [A6 + 0xC], D0
00004DB2  1D7C 0001 FFD9           move.b     [A6 - 0x27], 0x1
00004DB8  6044                     bra        +0x46 /* 00004DFE */
label00004DBA:
00004DBA  3D7C 0001 FFDE           move.w     [A6 - 0x22], 0x1
00004DC0  6030                     bra        +0x32 /* 00004DF2 */
label00004DC2:
00004DC2  42A7                     clr.l      -[A7]
00004DC4  3F2E FFDE                move.w     -[A7], [A6 - 0x22]
00004DC8  A949                     syscall    GetMenuHandle
00004DCA  2D5F FFDA                move.l     [A6 - 0x26], [A7]+
00004DCE  671E                     beq        +0x20 /* 00004DEE */
00004DD0  102E FFD9                move.b     D0, [A6 - 0x27]
00004DD4  6712                     beq        +0x14 /* 00004DE8 */
00004DD6  302E FFDE                move.w     D0, [A6 - 0x22]
00004DDA  5340                     subq.w     D0, 1
00004DDC  41ED EED4                lea.l      A0, [A5 - 0x112C]
00004DE0  E540                     asl        D0.w, 2
00004DE2  2D70 0000 FFDA           move.l     [A6 - 0x26], [A0 + D0.w]
label00004DE8:
00004DE8  2F0E                     move.l     -[A7], A6
00004DEA  4EBA FF34                jsr        [PC - 0xCC /* 00004D20 */]
label00004DEE:
00004DEE  526E FFDE                addq.w     [A6 - 0x22], 1
label00004DF2:
00004DF2  700C                     moveq.l    D0, 0x0C
00004DF4  B06E FFDE                cmp.w      D0, [A6 - 0x22]
00004DF8  6CC8                     bge        -0x36 /* 00004DC2 */
00004DFA  532E FFD9                subq.b     [A6 - 0x27], 1
label00004DFE:
00004DFE  4A2E FFD9                tst.b      [A6 - 0x27]
00004E02  6CB6                     bge        -0x48 /* 00004DBA */
00004E04  3D7C 0001 FFD6           move.w     [A6 - 0x2A], 0x1
00004E0A  602C                     bra        +0x2E /* 00004E38 */
label00004E0C:
00004E0C  4267                     clr.w      -[A7]
00004E0E  3F2E FFD6                move.w     -[A7], [A6 - 0x2A]
00004E12  4EAD 1A22                jsr        [A5 + 0x1A22 /* export_832, CODE:16 @ 0000148E */]
00004E16  3D5F FFDE                move.w     [A6 - 0x22], [A7]+
00004E1A  4A6E FFDE                tst.w      [A6 - 0x22]
00004E1E  6C14                     bge        +0x16 /* 00004E34 */
00004E20  42A7                     clr.l      -[A7]
00004E22  3F2E FFDE                move.w     -[A7], [A6 - 0x22]
00004E26  A949                     syscall    GetMenuHandle
00004E28  2D5F FFDA                move.l     [A6 - 0x26], [A7]+
00004E2C  6706                     beq        +0x8 /* 00004E34 */
00004E2E  2F0E                     move.l     -[A7], A6
00004E30  4EBA FEEE                jsr        [PC - 0x112 /* 00004D20 */]
label00004E34:
00004E34  526E FFD6                addq.w     [A6 - 0x2A], 1
label00004E38:
00004E38  7010                     moveq.l    D0, 0x10
00004E3A  B06E FFD6                cmp.w      D0, [A6 - 0x2A]
00004E3E  6CCC                     bge        -0x32 /* 00004E0C */
label00004E40:
00004E40  4FEE FFB6                lea.l      A7, [A6 - 0x4A]
00004E44  4CDF 1CF8                movem.l    D3,D4,D5,D6,D7,A2,A3,A4, [A7]+
00004E48  4E5E                     unlink     A6
00004E4A  2E9F                     move.l     [A7], [A7]+
00004E4C  4E75                     rts
fn00004E4E:
00004E4E  4E56 0000                link       A6, 0
00004E52  2D6D ECD4 0008           move.l     [A6 + 0x8], [A5 - 0x132C]
00004E58  102D E2E2                move.b     D0, [A5 - 0x1D1E]
00004E5C  6766                     beq        +0x68 /* 00004EC4 */
00004E5E  4267                     clr.w      -[A7]
00004E60  2F2D ECD4                move.l     -[A7], [A5 - 0x132C]
00004E64  3F3C 2AC0                move.w     -[A7], 0x2AC0
00004E68  4EAD 1C0A                jsr        [A5 + 0x1C0A /* export_893, CODE:17 @ 000008FC */]
00004E6C  0C5F 1560                cmpi.w     [A7]+, 0x1560
00004E70  6C26                     bge        +0x28 /* 00004E98 */
00004E72  4267                     clr.w      -[A7]
00004E74  2F2D ECE0                move.l     -[A7], [A5 - 0x1320]
00004E78  2F2D ECD4                move.l     -[A7], [A5 - 0x132C]
00004E7C  2F2D ECD0                move.l     -[A7], [A5 - 0x1330]
00004E80  4EAD 1CB2                jsr        [A5 + 0x1CB2 /* export_914, CODE:17 @ 00001504 */]
00004E84  101F                     move.b     D0, [A7]+
00004E86  670E                     beq        +0x10 /* 00004E96 */
00004E88  2F2D ECD4                move.l     -[A7], [A5 - 0x132C]
00004E8C  4EAD 1D12                jsr        [A5 + 0x1D12 /* export_926, CODE:17 @ 00002B38 */]
00004E90  7000                     moveq.l    D0, 0x00
00004E92  2D40 0008                move.l     [A6 + 0x8], D0
label00004E96:
00004E96  602C                     bra        +0x2E /* 00004EC4 */
label00004E98:
00004E98  4267                     clr.w      -[A7]
00004E9A  2F2D ECE0                move.l     -[A7], [A5 - 0x1320]
00004E9E  2F2D ECD4                move.l     -[A7], [A5 - 0x132C]
00004EA2  2F2D ECD0                move.l     -[A7], [A5 - 0x1330]
00004EA6  4EAD 1CAA                jsr        [A5 + 0x1CAA /* export_913, CODE:17 @ 000014CE */]
00004EAA  101F                     move.b     D0, [A7]+
00004EAC  6716                     beq        +0x18 /* 00004EC4 */
00004EAE  2F2D ECD4                move.l     -[A7], [A5 - 0x132C]
00004EB2  70FF                     moveq.l    D0, 0xFFFFFFFF
00004EB4  2F00                     move.l     -[A7], D0
00004EB6  486D ED82                pea.l      [A5 - 0x127E]
00004EBA  4EBA FC5A                jsr        [PC - 0x3A6 /* 00004B16 */]
00004EBE  70FF                     moveq.l    D0, 0xFFFFFFFF
00004EC0  2D40 0008                move.l     [A6 + 0x8], D0
label00004EC4:
00004EC4  4E5E                     unlink     A6
00004EC6  4E75                     rts
export_738:
fn00004EC8:
00004EC8  4E56 FD36                link       A6, -0x02CA
00004ECC  48E7 0300                movem.l    -[A7], D6,D7
00004ED0  422E 000A                clr.b      [A6 + 0xA]
00004ED4  486E FF8E                pea.l      [A6 - 0x72]
00004ED8  703E                     moveq.l    D0, 0x3E
00004EDA  2F00                     move.l     -[A7], D0
00004EDC  4EAD 1B42                jsr        [A5 + 0x1B42 /* export_868, CODE:16 @ 00001E7C */]
00004EE0  3D6E 0008 FFA6           move.w     [A6 - 0x5A], [A6 + 0x8]
00004EE6  41EE FD3A                lea.l      A0, [A6 - 0x2C6]
00004EEA  2D48 FFA0                move.l     [A6 - 0x60], A0
00004EEE  4267                     clr.w      -[A7]
00004EF0  486E FF8E                pea.l      [A6 - 0x72]
00004EF4  4267                     clr.w      -[A7]
00004EF6  4EAD 0382                jsr        [A5 + 0x382 /* export_108, CODE:1 @ 00004B44 */]
00004EFA  4A5F                     tst.w      [A7]+
00004EFC  6600 00CC                bne        +0xCE /* 00004FCA */
00004F00  486E FFCC                pea.l      [A6 - 0x34]
00004F04  7034                     moveq.l    D0, 0x34
00004F06  2F00                     move.l     -[A7], D0
00004F08  4EAD 1B42                jsr        [A5 + 0x1B42 /* export_868, CODE:16 @ 00001E7C */]
00004F0C  3D6E FFC2 FFE2           move.w     [A6 - 0x1E], [A6 - 0x3E]
00004F12  2D7C 4552 494B FFE8      move.l     [A6 - 0x18], 0x4552494B /* 'ERIK' */
00004F1A  2D6E FFC8 FFFC           move.l     [A6 - 0x4], [A6 - 0x38]
00004F20  4267                     clr.w      -[A7]
00004F22  486E FFCC                pea.l      [A6 - 0x34]
00004F26  4267                     clr.w      -[A7]
00004F28  4EAD 0372                jsr        [A5 + 0x372 /* export_106, CODE:1 @ 00004B18 */]
00004F2C  4A5F                     tst.w      [A7]+
00004F2E  6600 009A                bne        +0x9C /* 00004FCA */
00004F32  41EE FE3A                lea.l      A0, [A6 - 0x1C6]
00004F36  43EE FD3A                lea.l      A1, [A6 - 0x2C6]
00004F3A  703F                     moveq.l    D0, 0x3F
label00004F3C:
00004F3C  20D9                     move.l     [A0]+, [A1]+
00004F3E  51C8 FFFC                dbf        D0, -0x6 /* 00004F3C */
00004F42  102D FD85                move.b     D0, [A5 - 0x27B]
00004F46  664E                     bne        +0x50 /* 00004F96 */
00004F48  7E01                     moveq.l    D7, 0x01
label00004F4A:
00004F4A  486E FF3E                pea.l      [A6 - 0xC2]
00004F4E  7050                     moveq.l    D0, 0x50
00004F50  2F00                     move.l     -[A7], D0
00004F52  4EAD 1B42                jsr        [A5 + 0x1B42 /* export_868, CODE:16 @ 00001E7C */]
00004F56  422E FE3A                clr.b      [A6 - 0x1C6]
00004F5A  41EE FE3A                lea.l      A0, [A6 - 0x1C6]
00004F5E  2D48 FF50                move.l     [A6 - 0xB0], A0
00004F62  3D6E FFE2 FF54           move.w     [A6 - 0xAC], [A6 - 0x1E]
00004F68  3D47 FF5A                move.w     [A6 - 0xA6], D7
00004F6C  4267                     clr.w      -[A7]
00004F6E  486E FF3E                pea.l      [A6 - 0xC2]
00004F72  4267                     clr.w      -[A7]
00004F74  4EAD 02DA                jsr        [A5 + 0x2DA /* export_87, CODE:1 @ 0000480E */]
00004F78  3C1F                     move.w     D6, [A7]+
00004F7A  4267                     clr.w      -[A7]
00004F7C  486E FE3A                pea.l      [A6 - 0x1C6]
00004F80  486E FD3A                pea.l      [A6 - 0x2C6]
00004F84  4EAD 1AC2                jsr        [A5 + 0x1AC2 /* export_852, CODE:16 @ 00001B82 */]
00004F88  101F                     move.b     D0, [A7]+
00004F8A  660A                     bne        +0xC /* 00004F96 */
00004F8C  5287                     addq.l     D7, 1
00004F8E  70D5                     moveq.l    D0, 0xFFFFFFD5
00004F90  B046                     cmp.w      D0, D6
00004F92  66B6                     bne        -0x48 /* 00004F4A */
00004F94  6034                     bra        +0x36 /* 00004FCA */
label00004F96:
00004F96  1D7C 0001 000A           move.b     [A6 + 0xA], 0x1
00004F9C  3B6E 0008 FD68           move.w     [A5 - 0x298], [A6 + 0x8]
00004FA2  41ED FD48                lea.l      A0, [A5 - 0x2B8]
00004FA6  43EE FE3A                lea.l      A1, [A6 - 0x1C6]
00004FAA  7007                     moveq.l    D0, 0x07
label00004FAC:
00004FAC  20D9                     move.l     [A0]+, [A1]+
00004FAE  51C8 FFFC                dbf        D0, -0x6 /* 00004FAC */
00004FB2  3B6E FFC2 FC44           move.w     [A5 - 0x3BC], [A6 - 0x3E]
00004FB8  3B6E FFE2 FC46           move.w     [A5 - 0x3BA], [A6 - 0x1E]
00004FBE  3F2D FC46                move.w     -[A7], [A5 - 0x3BA]
00004FC2  486D FC48                pea.l      [A5 - 0x3B8]
00004FC6  4EAD 22EA                jsr        [A5 + 0x22EA /* export_1113, CODE:20 @ 0000637C */]
label00004FCA:
00004FCA  4CDF 00C0                movem.l    D6,D7, [A7]+
00004FCE  4E5E                     unlink     A6
00004FD0  205F                     movea.l    A0, [A7]+
00004FD2  544F                     addq.w     A7, 2
00004FD4  4ED0                     jmp        [A0]
export_739:
fn00004FD6:
00004FD6  4E56 FFF4                link       A6, -0x000C
00004FDA  48E7 0118                movem.l    -[A7], D7,A3,A4
00004FDE  4AAD DC66                tst.l      [A5 - 0x239A]
00004FE2  57C0                     seq        D0
00004FE4  802D F4CD                or.b       D0, [A5 - 0xB33]
00004FE8  0240 0001                andi.w     D0, 0x1
00004FEC  6704                     beq        +0x6 /* 00004FF2 */
00004FEE  6000 00EA                bra        +0xEC /* 000050DA */
label00004FF2:
00004FF2  42A7                     clr.l      -[A7]
00004FF4  2F2D F670                move.l     -[A7], [A5 - 0x990]
00004FF8  2F2D DC66                move.l     -[A7], [A5 - 0x239A]
00004FFC  4EAD 1E3A                jsr        [A5 + 0x1E3A /* export_963, CODE:18 @ 000024B8 */]
00005000  4A9F                     tst.l      [A7]+
00005002  670A                     beq        +0xC /* 0000500E */
00005004  2F3C 0000 D431           move.l     -[A7], 0xD431
0000500A  4EAD 185A                jsr        [A5 + 0x185A /* export_775, CODE:16 @ 0000042E */]
label0000500E:
0000500E  42A7                     clr.l      -[A7]
00005010  2F2D DC66                move.l     -[A7], [A5 - 0x239A]
00005014  4EAD 1F7A                jsr        [A5 + 0x1F7A /* export_1003, CODE:19 @ 00001744 */]
00005018  285F                     movea.l    A4, [A7]+
0000501A  200C                     move.l     D0, A4
0000501C  6700 00B0                beq        +0xB2 /* 000050CE */
00005020  2054                     movea.l    A0, [A4]
00005022  2E28 000C                move.l     D7, [A0 + 0xC]
00005026  2F2D DC66                move.l     -[A7], [A5 - 0x239A]
0000502A  4267                     clr.w      -[A7]
0000502C  4EAD 1EF2                jsr        [A5 + 0x1EF2 /* export_986, CODE:19 @ 00000450 */]
00005030  4267                     clr.w      -[A7]
00005032  2F2D DC66                move.l     -[A7], [A5 - 0x239A]
00005036  2F3A 00B2                move.l     -[A7], [PC + 0xB2 /* 000050EA, value 0x43415244 'CARD', cstring "CARDNV" */]
0000503A  4EAD 1F2A                jsr        [A5 + 0x1F2A /* export_993, CODE:19 @ 00000890 */]
0000503E  101F                     move.b     D0, [A7]+
00005040  6604                     bne        +0x6 /* 00005046 */
00005042  4EAD 1812                jsr        [A5 + 0x1812 /* export_766, CODE:16 @ 00000208 */]
label00005046:
00005046  4A87                     tst.l      D7
00005048  56C0                     sne        D0
0000504A  4A00                     tst.b      D0
0000504C  671E                     beq        +0x20 /* 0000506C */
0000504E  2F00                     move.l     -[A7], D0
00005050  4267                     clr.w      -[A7]
00005052  2F07                     move.l     -[A7], D7
00005054  2F3A 008C                move.l     -[A7], [PC + 0x8C /* 000050E2, value 0x424D4150 'BMAP', cstring "BMAPBKGDCARDNV" */]
00005058  4EAD 1F2A                jsr        [A5 + 0x1F2A /* export_993, CODE:19 @ 00000890 */]
0000505C  121F                     move.b     D1, [A7]+
0000505E  201F                     move.l     D0, [A7]+
00005060  0A01 0001                xori.b     D1, 0x1
00005064  C001                     and.b      D0, D1
00005066  6704                     beq        +0x6 /* 0000506C */
00005068  4EAD 1812                jsr        [A5 + 0x1812 /* export_766, CODE:16 @ 00000208 */]
label0000506C:
0000506C  4AAD DC62                tst.l      [A5 - 0x239E]
00005070  675C                     beq        +0x5E /* 000050CE */
00005072  42A7                     clr.l      -[A7]
00005074  2F2D DC62                move.l     -[A7], [A5 - 0x239E]
00005078  4EAD 1F6A                jsr        [A5 + 0x1F6A /* export_1001, CODE:19 @ 000016EC */]
0000507C  265F                     movea.l    A3, [A7]+
0000507E  200B                     move.l     D0, A3
00005080  674C                     beq        +0x4E /* 000050CE */
00005082  2053                     movea.l    A0, [A3]
00005084  2E28 000C                move.l     D7, [A0 + 0xC]
00005088  2F2D DC62                move.l     -[A7], [A5 - 0x239E]
0000508C  4267                     clr.w      -[A7]
0000508E  4EAD 1EE2                jsr        [A5 + 0x1EE2 /* export_984, CODE:19 @ 00000414 */]
00005092  4267                     clr.w      -[A7]
00005094  2F2D DC62                move.l     -[A7], [A5 - 0x239E]
00005098  2F3A 004C                move.l     -[A7], [PC + 0x4C /* 000050E6, value 0x424B4744 'BKGD', cstring "BKGDCARDNV" */]
0000509C  4EAD 1F2A                jsr        [A5 + 0x1F2A /* export_993, CODE:19 @ 00000890 */]
000050A0  101F                     move.b     D0, [A7]+
000050A2  6604                     bne        +0x6 /* 000050A8 */
000050A4  4EAD 1812                jsr        [A5 + 0x1812 /* export_766, CODE:16 @ 00000208 */]
label000050A8:
000050A8  4A87                     tst.l      D7
000050AA  56C0                     sne        D0
000050AC  4A00                     tst.b      D0
000050AE  671E                     beq        +0x20 /* 000050CE */
000050B0  2F00                     move.l     -[A7], D0
000050B2  4267                     clr.w      -[A7]
000050B4  2F07                     move.l     -[A7], D7
000050B6  2F3A 002A                move.l     -[A7], [PC + 0x2A /* 000050E2, value 0x424D4150 'BMAP', cstring "BMAPBKGDCARDNV" */]
000050BA  4EAD 1F2A                jsr        [A5 + 0x1F2A /* export_993, CODE:19 @ 00000890 */]
000050BE  121F                     move.b     D1, [A7]+
000050C0  201F                     move.l     D0, [A7]+
000050C2  0A01 0001                xori.b     D1, 0x1
000050C6  C001                     and.b      D0, D1
000050C8  6704                     beq        +0x6 /* 000050CE */
000050CA  4EAD 1812                jsr        [A5 + 0x1812 /* export_766, CODE:16 @ 00000208 */]
label000050CE:
000050CE  7000                     moveq.l    D0, 0x00
000050D0  2B40 DC66                move.l     [A5 - 0x239A], D0
000050D4  7000                     moveq.l    D0, 0x00
000050D6  2B40 DC62                move.l     [A5 - 0x239E], D0
label000050DA:
000050DA  4CDF 1880                movem.l    D7,A3,A4, [A7]+
000050DE  4E5E                     unlink     A6
000050E0  4E75                     rts
000050E2  424D 4150 424B 4744      dc.b       "BMAPBKGD"
000050EA  4341                     chk.w      D1, D1
000050EC  5244                     addq.w     D4, 1
export_740:
000050EE  4E56 0000                link       A6, 0
000050F2  486D EE38                pea.l      [A5 - 0x11C8]
000050F6  A873                     syscall    SetPort
000050F8  7000                     moveq.l    D0, 0x00
000050FA  302D E2F4                move.w     D0, [A5 - 0x1D0C]
000050FE  C0BC FFFF FFE0           and.l      D0, 0xFFFFFFE0
00005104  3B40 E2F4                move.w     [A5 - 0x1D0C], D0
00005108  7000                     moveq.l    D0, 0x00
0000510A  322D E2F8                move.w     D1, [A5 - 0x1D08]
0000510E  D27C 001F                add.w      D1, 0x1F
00005112  3001                     move.w     D0, D1
00005114  C0BC FFFF FFE0           and.l      D0, 0xFFFFFFE0
0000511A  3B40 E2F8                move.w     [A5 - 0x1D08], D0
0000511E  2F2D ECE0                move.l     -[A7], [A5 - 0x1320]
00005122  2F2D ECE4                move.l     -[A7], [A5 - 0x131C]
00005126  486D E2F2                pea.l      [A5 - 0x1D0E]
0000512A  4267                     clr.w      -[A7]
0000512C  4EBA B492                jsr        [PC - 0x4B6E /* 000005C0 */]
00005130  202D E270                move.l     D0, [A5 - 0x1D90]
00005134  B0AD F622                cmp.l      D0, [A5 - 0x9DE]
00005138  660E                     bne        +0x10 /* 00005148 */
0000513A  3F2D E276                move.w     -[A7], [A5 - 0x1D8A]
0000513E  3F3C 0001                move.w     -[A7], 0x1
00005142  4EBA DFB8                jsr        [PC - 0x2048 /* 000030FC */]
00005146  600C                     bra        +0xE /* 00005154 */
label00005148:
00005148  3F2D E276                move.w     -[A7], [A5 - 0x1D8A]
0000514C  3F3C 0001                move.w     -[A7], 0x1
00005150  4EBA E59E                jsr        [PC - 0x1A62 /* 000036F0 */]
label00005154:
00005154  486D E2F2                pea.l      [A5 - 0x1D0E]
00005158  4EBA 0012                jsr        [PC + 0x12 /* 0000516C */]
0000515C  41ED E2F2                lea.l      A0, [A5 - 0x1D0E]
00005160  43ED ED8A                lea.l      A1, [A5 - 0x1276]
00005164  20D9                     move.l     [A0]+, [A1]+
00005166  20D9                     move.l     [A0]+, [A1]+
00005168  4E5E                     unlink     A6
0000516A  4E75                     rts
export_741:
fn0000516C:
0000516C  4E56 FFF4                link       A6, -0x000C
00005170  206E 0008                movea.l    A0, [A6 + 0x8]
00005174  43EE FFF8                lea.l      A1, [A6 - 0x8]
00005178  22D8                     move.l     [A1]+, [A0]+
0000517A  22D8                     move.l     [A1]+, [A0]+
0000517C  102D E049                move.b     D0, [A5 - 0x1FB7]
00005180  6700 00FA                beq        +0xFC /* 0000527C */
00005184  4A6D FD8A                tst.w      [A5 - 0x276]
00005188  5CC1                     sge        D1
0000518A  C001                     and.b      D0, D1
0000518C  4A00                     tst.b      D0
0000518E  6700 00EC                beq        +0xEE /* 0000527C */
00005192  2F00                     move.l     -[A7], D0
00005194  4267                     clr.w      -[A7]
00005196  486D ED82                pea.l      [A5 - 0x127E]
0000519A  486E FFF8                pea.l      [A6 - 0x8]
0000519E  486E FFF8                pea.l      [A6 - 0x8]
000051A2  A8AA                     syscall    SectRect
000051A4  121F                     move.b     D1, [A7]+
000051A6  201F                     move.l     D0, [A7]+
000051A8  C001                     and.b      D0, D1
000051AA  4A00                     tst.b      D0
000051AC  6700 00CE                beq        +0xD0 /* 0000527C */
000051B0  2F00                     move.l     -[A7], D0
000051B2  4267                     clr.w      -[A7]
000051B4  206D FEA8                movea.l    A0, [A5 - 0x158]
000051B8  2068 001C                movea.l    A0, [A0 + 0x1C]
000051BC  2050                     movea.l    A0, [A0]
000051BE  4868 0002                pea.l      [A0 + 0x2]
000051C2  486E FFF8                pea.l      [A6 - 0x8]
000051C6  486E FFF8                pea.l      [A6 - 0x8]
000051CA  A8AA                     syscall    SectRect
000051CC  121F                     move.b     D1, [A7]+
000051CE  201F                     move.l     D0, [A7]+
000051D0  C001                     and.b      D0, D1
000051D2  6700 00A8                beq        +0xAA /* 0000527C */
000051D6  7000                     moveq.l    D0, 0x00
000051D8  302E FFFA                move.w     D0, [A6 - 0x6]
000051DC  C0BC FFFF FFE0           and.l      D0, 0xFFFFFFE0
000051E2  3D40 FFFA                move.w     [A6 - 0x6], D0
000051E6  7000                     moveq.l    D0, 0x00
000051E8  322E FFFE                move.w     D1, [A6 - 0x2]
000051EC  D27C 001F                add.w      D1, 0x1F
000051F0  3001                     move.w     D0, D1
000051F2  C0BC FFFF FFE0           and.l      D0, 0xFFFFFFE0
000051F8  3D40 FFFE                move.w     [A6 - 0x2], D0
000051FC  102D E0DE                move.b     D0, [A5 - 0x1F22]
00005200  674A                     beq        +0x4C /* 0000524C */
00005202  2F2D ECE4                move.l     -[A7], [A5 - 0x131C]
00005206  2F2D ECDC                move.l     -[A7], [A5 - 0x1324]
0000520A  2F2D ECD8                move.l     -[A7], [A5 - 0x1328]
0000520E  2F2D ECCC                move.l     -[A7], [A5 - 0x1334]
00005212  486E FFF8                pea.l      [A6 - 0x8]
00005216  3F3C FFFF                move.w     -[A7], 0xFFFF
0000521A  4EBA B2AA                jsr        [PC - 0x4D56 /* 000004C6 */]
0000521E  486E FFF4                pea.l      [A6 - 0xC]
00005222  A874                     syscall    GetPort
00005224  2F2D EDC8                move.l     -[A7], [A5 - 0x1238]
00005228  A873                     syscall    SetPort
0000522A  486D ECF0                pea.l      [A5 - 0x1310]
0000522E  206D EDC8                movea.l    A0, [A5 - 0x1238]
00005232  4868 0002                pea.l      [A0 + 0x2]
00005236  486E FFF8                pea.l      [A6 - 0x8]
0000523A  486E FFF8                pea.l      [A6 - 0x8]
0000523E  4267                     clr.w      -[A7]
00005240  42A7                     clr.l      -[A7]
00005242  A8EC                     syscall    CopyBits
00005244  2F2E FFF4                move.l     -[A7], [A6 - 0xC]
00005248  A873                     syscall    SetPort
0000524A  6030                     bra        +0x32 /* 0000527C */
label0000524C:
0000524C  4EAD 22DA                jsr        [A5 + 0x22DA /* export_1111, CODE:20 @ 00006304 */]
00005250  486E FFF8                pea.l      [A6 - 0x8]
00005254  206D EDC8                movea.l    A0, [A5 - 0x1238]
00005258  2F28 0008                move.l     -[A7], [A0 + 0x8]
0000525C  A855                     syscall    ShieldCursor
0000525E  2F2D ECE4                move.l     -[A7], [A5 - 0x131C]
00005262  2F2D ECDC                move.l     -[A7], [A5 - 0x1324]
00005266  2F2D ECD8                move.l     -[A7], [A5 - 0x1328]
0000526A  2F2D ECEC                move.l     -[A7], [A5 - 0x1314]
0000526E  2F2D ED76                move.l     -[A7], [A5 - 0x128A]
00005272  486E FFF8                pea.l      [A6 - 0x8]
00005276  4EAD 1C22                jsr        [A5 + 0x1C22 /* export_896, CODE:17 @ 00000944 */]
0000527A  A853                     syscall    ShowCursor
label0000527C:
0000527C  4E5E                     unlink     A6
0000527E  2E9F                     move.l     [A7], [A7]+
00005280  4E75                     rts
export_742:
00005282  4E56 FDC4                link       A6, -0x023C
00005286  48E7 0718                movem.l    -[A7], D5,D6,D7,A3,A4
0000528A  206E 000A                movea.l    A0, [A6 + 0xA]
0000528E  4210                     clr.b      [A0]
00005290  202D E21E                move.l     D0, [A5 - 0x1DE2]
00005294  B0AD F62A                cmp.l      D0, [A5 - 0x9D6]
00005298  660E                     bne        +0x10 /* 000052A8 */
0000529A  41EE FF00                lea.l      A0, [A6 - 0x100]
0000529E  43FA 01AC                lea.l      A1, [PC + 0x1AC /* 0000544C, value 0x4636172, pstring "card" */]
000052A2  20D9                     move.l     [A0]+, [A1]+
000052A4  3091                     move.w     [A0], [A1]
000052A6  601C                     bra        +0x1E /* 000052C4 */
label000052A8:
000052A8  202D E21E                move.l     D0, [A5 - 0x1DE2]
000052AC  B0AD F622                cmp.l      D0, [A5 - 0x9DE]
000052B0  660E                     bne        +0x10 /* 000052C0 */
000052B2  41EE FF00                lea.l      A0, [A6 - 0x100]
000052B6  43FA 018E                lea.l      A1, [PC + 0x18E /* 00005446, value 0x5626B67, pstring "bkgnd" */]
000052BA  20D9                     move.l     [A0]+, [A1]+
000052BC  3091                     move.w     [A0], [A1]
000052BE  6004                     bra        +0x6 /* 000052C4 */
label000052C0:
000052C0  6000 0158                bra        +0x15A /* 0000541A */
label000052C4:
000052C4  486E FF00                pea.l      [A6 - 0x100]
000052C8  487A 0174                pea.l      [PC + 0x174 /* 0000543E, value 0x7206669, pstring " field " */]
000052CC  486E FDD8                pea.l      [A6 - 0x228]
000052D0  302D E222                move.w     D0, [A5 - 0x1DDE]
000052D4  48C0                     ext.l      D0
000052D6  2F00                     move.l     -[A7], D0
000052D8  4EAD 1902                jsr        [A5 + 0x1902 /* export_796, CODE:16 @ 000009D4 */]
000052DC  486E FDEC                pea.l      [A6 - 0x214]
000052E0  3F3C 0003                move.w     -[A7], 0x3
000052E4  4EAD 050A                jsr        [A5 + 0x50A /* export_157, CODE:1 @ 0000531E */]
000052E8  41EE FF00                lea.l      A0, [A6 - 0x100]
000052EC  43EE FDEC                lea.l      A1, [A6 - 0x214]
000052F0  703F                     moveq.l    D0, 0x3F
label000052F2:
000052F2  20D9                     move.l     [A0]+, [A1]+
000052F4  51C8 FFFC                dbf        D0, -0x6 /* 000052F2 */
000052F8  7001                     moveq.l    D0, 0x01
000052FA  B06E 0008                cmp.w      D0, [A6 + 0x8]
000052FE  664E                     bne        +0x50 /* 0000534E */
00005300  487A 0136                pea.l      [PC + 0x136 /* 00005438, value 0x5636861, pstring "char " */]
00005304  486E FDD8                pea.l      [A6 - 0x228]
00005308  302D E21C                move.w     D0, [A5 - 0x1DE4]
0000530C  5240                     addq.w     D0, 1
0000530E  48C0                     ext.l      D0
00005310  2F00                     move.l     -[A7], D0
00005312  4EAD 1902                jsr        [A5 + 0x1902 /* export_796, CODE:16 @ 000009D4 */]
00005316  487A 011A                pea.l      [PC + 0x11A /* 00005432, value 0x420746F, pstring " to " */]
0000531A  486E FDC4                pea.l      [A6 - 0x23C]
0000531E  302D E21A                move.w     D0, [A5 - 0x1DE6]
00005322  48C0                     ext.l      D0
00005324  2F00                     move.l     -[A7], D0
00005326  4EAD 1902                jsr        [A5 + 0x1902 /* export_796, CODE:16 @ 000009D4 */]
0000532A  487A 00FA                pea.l      [PC + 0xFA /* 00005426, value 0x4206F66, pstring " of " */]
0000532E  486E FF00                pea.l      [A6 - 0x100]
00005332  486E FDEC                pea.l      [A6 - 0x214]
00005336  3F3C 0006                move.w     -[A7], 0x6
0000533A  4EAD 050A                jsr        [A5 + 0x50A /* export_157, CODE:1 @ 0000531E */]
0000533E  41EE FF00                lea.l      A0, [A6 - 0x100]
00005342  43EE FDEC                lea.l      A1, [A6 - 0x214]
00005346  703F                     moveq.l    D0, 0x3F
label00005348:
00005348  20D9                     move.l     [A0]+, [A1]+
0000534A  51C8 FFFC                dbf        D0, -0x6 /* 00005348 */
label0000534E:
0000534E  7002                     moveq.l    D0, 0x02
00005350  B06E 0008                cmp.w      D0, [A6 + 0x8]
00005354  6600 00B4                bne        +0xB6 /* 0000540A */
00005358  7C01                     moveq.l    D6, 0x01
0000535A  4267                     clr.w      -[A7]
0000535C  2F2D E21E                move.l     -[A7], [A5 - 0x1DE2]
00005360  3F2D E222                move.w     -[A7], [A5 - 0x1DDE]
00005364  3F3C 0002                move.w     -[A7], 0x2
00005368  4EAD 1DBA                jsr        [A5 + 0x1DBA /* export_947, CODE:18 @ 00000D64 */]
0000536C  3E1F                     move.w     D7, [A7]+
0000536E  202D E21E                move.l     D0, [A5 - 0x1DE2]
00005372  B0AD F62A                cmp.l      D0, [A5 - 0x9D6]
00005376  6606                     bne        +0x8 /* 0000537E */
00005378  3007                     move.w     D0, D7
0000537A  4440                     neg.w      D0
0000537C  3E00                     move.w     D7, D0
label0000537E:
0000537E  42A7                     clr.l      -[A7]
00005380  2F2D F62A                move.l     -[A7], [A5 - 0x9D6]
00005384  4EAD 1F7A                jsr        [A5 + 0x1F7A /* export_1003, CODE:19 @ 00001744 */]
00005388  265F                     movea.l    A3, [A7]+
0000538A  200B                     move.l     D0, A3
0000538C  674A                     beq        +0x4C /* 000053D8 */
0000538E  42A7                     clr.l      -[A7]
00005390  2F0B                     move.l     -[A7], A3
00005392  3F07                     move.w     -[A7], D7
00005394  4EAD 1C32                jsr        [A5 + 0x1C32 /* export_898, CODE:17 @ 00000A32 */]
00005398  2D5F FEF2                move.l     [A6 - 0x10E], [A7]+
0000539C  6730                     beq        +0x32 /* 000053CE */
0000539E  302D E21C                move.w     D0, [A5 - 0x1DE4]
000053A2  48C0                     ext.l      D0
000053A4  2840                     movea.l    A4, D0
000053A6  D9EE FEF2                add.l      A4, [A6 - 0x10E]
000053AA  1A14                     move.b     D5, [A4]
000053AC  4214                     clr.b      [A4]
label000053AE:
000053AE  486E FEF2                pea.l      [A6 - 0x10E]
000053B2  4EAD 1AA2                jsr        [A5 + 0x1AA2 /* export_848, CODE:16 @ 00001A3E */]
000053B6  206E FEF2                movea.l    A0, [A6 - 0x10E]
000053BA  4A10                     tst.b      [A0]
000053BC  6706                     beq        +0x8 /* 000053C4 */
000053BE  5286                     addq.l     D6, 1
000053C0  52AE FEF2                addq.l     [A6 - 0x10E], 1
label000053C4:
000053C4  206E FEF2                movea.l    A0, [A6 - 0x10E]
000053C8  4A10                     tst.b      [A0]
000053CA  66E2                     bne        -0x1C /* 000053AE */
000053CC  1885                     move.b     [A4], D5
label000053CE:
000053CE  2F2D F62A                move.l     -[A7], [A5 - 0x9D6]
000053D2  4267                     clr.w      -[A7]
000053D4  4EAD 1EF2                jsr        [A5 + 0x1EF2 /* export_986, CODE:19 @ 00000450 */]
label000053D8:
000053D8  487A 0052                pea.l      [PC + 0x52 /* 0000542C, value 0x56C696E, pstring "line " */]
000053DC  486E FDD8                pea.l      [A6 - 0x228]
000053E0  2F06                     move.l     -[A7], D6
000053E2  4EAD 18B2                jsr        [A5 + 0x18B2 /* export_786, CODE:16 @ 00000738 */]
000053E6  487A 003E                pea.l      [PC + 0x3E /* 00005426, value 0x4206F66, pstring " of " */]
000053EA  486E FF00                pea.l      [A6 - 0x100]
000053EE  486E FDEC                pea.l      [A6 - 0x214]
000053F2  3F3C 0004                move.w     -[A7], 0x4
000053F6  4EAD 050A                jsr        [A5 + 0x50A /* export_157, CODE:1 @ 0000531E */]
000053FA  41EE FF00                lea.l      A0, [A6 - 0x100]
000053FE  43EE FDEC                lea.l      A1, [A6 - 0x214]
00005402  703F                     moveq.l    D0, 0x3F
label00005404:
00005404  20D9                     move.l     [A0]+, [A1]+
00005406  51C8 FFFC                dbf        D0, -0x6 /* 00005404 */
label0000540A:
0000540A  206E 000A                movea.l    A0, [A6 + 0xA]
0000540E  43EE FF00                lea.l      A1, [A6 - 0x100]
00005412  703F                     moveq.l    D0, 0x3F
label00005414:
00005414  20D9                     move.l     [A0]+, [A1]+
00005416  51C8 FFFC                dbf        D0, -0x6 /* 00005414 */
label0000541A:
0000541A  4CDF 18E0                movem.l    D5,D6,D7,A3,A4, [A7]+
0000541E  4E5E                     unlink     A6
00005420  205F                     movea.l    A0, [A7]+
00005422  544F                     addq.w     A7, 2
00005424  4ED0                     jmp        [A0]
00005426  0420 6F66                subi.b     -[A0], 0x66 /* 'f' */
0000542A  2000                     move.l     D0, D0
0000542C  056C 696E                bchg       [A4 + 0x696E], D2
00005430  6520                     bcs        +0x22 /* 00005452 */
00005432  0420 746F                subi.b     -[A0], 0x6F /* 'o' */
00005436  2000                     move.l     D0, D0
00005438  0563                     bchg       -[A3], D2
0000543A  6861                     bvc        +0x63 /* 0000549D */
0000543C  7220                     moveq.l    D1, 0x20
0000543E  0720                     btst       -[A0], D3
00005440  6669                     bne        +0x6B /* 000054AB */
00005442  656C                     bcs        +0x6E /* 000054B0 */
00005444  6420                     bcc        +0x22 /* 00005466 */
00005446  0562                     bchg       -[A2], D2
00005448  6B67                     bmi        +0x69 /* 000054B1 */
0000544A  6E64                     bgt        +0x66 /* 000054B0 */
0000544C  0463 6172                subi.w     -[A3], 0x6172 /* 'ar' */
00005450  6400 4E56                bcc        +0x4E58 /* 0000A2A8 */
// begin alternate branch 00005452-0000545A
export_743:
label00005452:
00005452  4E56 FEE6                link       A6, -0x011A
00005456  48E7 0F18                movem.l    -[A7], D4,D5,D6,D7,A3,A4
// end alternate branch 00005452-0000545A
export_743: // at 00005452 (misaligned)
label00005452: // (misaligned)
00005454  FEE6 48E7                .extension 0xEE6 <<F/2-3/7>> // unimplemented
00005458  0F18                     btst       [A0]+, D7
0000545A  4A6D E222                tst.w      [A5 - 0x1DDE]
0000545E  6700 00A2                beq        +0xA4 /* 00005502 */
00005462  4267                     clr.w      -[A7]
00005464  2F2D E21E                move.l     -[A7], [A5 - 0x1DE2]
// begin alternate branch 00005466-00005468
label00005466:
00005466  E21E                     ror        D6.b, 1
// end alternate branch 00005466-00005468
label00005466: // (misaligned)
00005468  3F2D E222                move.w     -[A7], [A5 - 0x1DDE]
0000546C  3F3C 0002                move.w     -[A7], 0x2
00005470  4EAD 1DBA                jsr        [A5 + 0x1DBA /* export_947, CODE:18 @ 00000D64 */]
00005474  3D5F FFEC                move.w     [A6 - 0x14], [A7]+
00005478  3C2E FFEC                move.w     D6, [A6 - 0x14]
0000547C  202D E21E                move.l     D0, [A5 - 0x1DE2]
00005480  B0AD F62A                cmp.l      D0, [A5 - 0x9D6]
00005484  6606                     bne        +0x8 /* 0000548C */
00005486  3006                     move.w     D0, D6
00005488  4440                     neg.w      D0
0000548A  3C00                     move.w     D6, D0
label0000548C:
0000548C  3E2D E21A                move.w     D7, [A5 - 0x1DE6]
00005490  9E6D E21C                sub.w      D7, [A5 - 0x1DE4]
00005494  4A47                     tst.w      D7
00005496  6F6A                     ble        +0x6C /* 00005502 */
00005498  42A7                     clr.l      -[A7]
0000549A  3007                     move.w     D0, D7
0000549C  5240                     addq.w     D0, 1
0000549E  48C0                     ext.l      D0
000054A0  2F00                     move.l     -[A7], D0
000054A2  4EAD 18DA                jsr        [A5 + 0x18DA /* export_791, CODE:16 @ 00000896 */]
000054A6  285F                     movea.l    A4, [A7]+
000054A8  200C                     move.l     D0, A4
000054AA  6756                     beq        +0x58 /* 00005502 */
000054AC  42A7                     clr.l      -[A7]
000054AE  2F2D F62A                move.l     -[A7], [A5 - 0x9D6]
// begin alternate branch 000054B0-000054BA
label000054B0:
000054B0  F62A 4EAD                .move16    0xF62A, 0x4EAD // unimplemented
000054B4  1F7A 281F 6748           move.b     [A7 + 0x6748], [PC + 0x281F /* 00007CD5 */]
// end alternate branch 000054B0-000054BA
label000054B0: // (misaligned)
000054B2  4EAD 1F7A                jsr        [A5 + 0x1F7A /* export_1003, CODE:19 @ 00001744 */]
000054B6  281F                     move.l     D4, [A7]+
000054B8  6748                     beq        +0x4A /* 00005502 */
000054BA  42A7                     clr.l      -[A7]
000054BC  2F04                     move.l     -[A7], D4
000054BE  3F06                     move.w     -[A7], D6
000054C0  4EAD 1C32                jsr        [A5 + 0x1C32 /* export_898, CODE:17 @ 00000A32 */]
000054C4  265F                     movea.l    A3, [A7]+
000054C6  200B                     move.l     D0, A3
000054C8  660A                     bne        +0xC /* 000054D4 */
000054CA  2F3C 0000 2F50           move.l     -[A7], 0x2F50 /* '/P' */
000054D0  4EAD 185A                jsr        [A5 + 0x185A /* export_775, CODE:16 @ 0000042E */]
label000054D4:
000054D4  302D E21C                move.w     D0, [A5 - 0x1DE4]
000054D8  48C0                     ext.l      D0
000054DA  D7C0                     add.l      A3, D0
000054DC  2A14                     move.l     D5, [A4]
000054DE  2F0B                     move.l     -[A7], A3
000054E0  2F05                     move.l     -[A7], D5
000054E2  3007                     move.w     D0, D7
000054E4  48C0                     ext.l      D0
000054E6  2F00                     move.l     -[A7], D0
000054E8  4EAD 19B2                jsr        [A5 + 0x19B2 /* export_818, CODE:16 @ 000010BE */]
000054EC  3007                     move.w     D0, D7
000054EE  48C0                     ext.l      D0
000054F0  DA80                     add.l      D5, D0
000054F2  2045                     movea.l    A0, D5
000054F4  4210                     clr.b      [A0]
000054F6  2F2D F62A                move.l     -[A7], [A5 - 0x9D6]
000054FA  4267                     clr.w      -[A7]
000054FC  4EAD 1EF2                jsr        [A5 + 0x1EF2 /* export_986, CODE:19 @ 00000450 */]
00005500  6010                     bra        +0x12 /* 00005512 */
label00005502:
00005502  42A7                     clr.l      -[A7]
00005504  7001                     moveq.l    D0, 0x01
00005506  2F00                     move.l     -[A7], D0
00005508  4EAD 18DA                jsr        [A5 + 0x18DA /* export_791, CODE:16 @ 00000896 */]
0000550C  285F                     movea.l    A4, [A7]+
0000550E  2054                     movea.l    A0, [A4]
00005510  4210                     clr.b      [A0]
label00005512:
00005512  2D4C 0008                move.l     [A6 + 0x8], A4
00005516  4CDF 18F0                movem.l    D4,D5,D6,D7,A3,A4, [A7]+
0000551A  4E5E                     unlink     A6
0000551C  4E75                     rts
export_744:
fn0000551E:
0000551E  4E56 0000                link       A6, 0
00005522  2F2E 000E                move.l     -[A7], [A6 + 0xE]
00005526  3F2E 000C                move.w     -[A7], [A6 + 0xC]
0000552A  2F2E 0008                move.l     -[A7], [A6 + 0x8]
0000552E  A946                     syscall    GetMenuItemText/GetItem
label00005530:
00005530  206E 0008                movea.l    A0, [A6 + 0x8]
00005534  4240                     clr.w      D0
00005536  1010                     move.b     D0, [A0]
00005538  4A40                     tst.w      D0
0000553A  5EC0                     sgt        D0
0000553C  4A00                     tst.b      D0
0000553E  6722                     beq        +0x24 /* 00005562 */
00005540  206E 0008                movea.l    A0, [A6 + 0x8]
00005544  4241                     clr.w      D1
00005546  1228 0001                move.b     D1, [A0 + 0x1]
0000554A  4A41                     tst.w      D1
0000554C  57C1                     seq        D1
0000554E  C001                     and.b      D0, D1
00005550  6710                     beq        +0x12 /* 00005562 */
00005552  2F2E 0008                move.l     -[A7], [A6 + 0x8]
00005556  2F3C 0001 0001           move.l     -[A7], 0x10001
0000555C  4EAD 051A                jsr        [A5 + 0x51A /* export_159, CODE:1 @ 000053C0 */]
00005560  60CE                     bra        -0x30 /* 00005530 */
label00005562:
00005562  4E5E                     unlink     A6
00005564  205F                     movea.l    A0, [A7]+
00005566  DEFC 000A                add.w      A7, 0xA /* '\n' */
0000556A  4ED0                     jmp        [A0]
export_745:
0000556C  4E56 0000                link       A6, 0
00005570  2F2E 0008                move.l     -[A7], [A6 + 0x8]
00005574  4EAD 20DA                jsr        [A5 + 0x20DA /* export_1047, CODE:20 @ 0000147C */]
00005578  206E 0008                movea.l    A0, [A6 + 0x8]
0000557C  3028 0002                move.w     D0, [A0 + 0x2]
00005580  B06D ED84                cmp.w      D0, [A5 - 0x127C]
00005584  6C0A                     bge        +0xC /* 00005590 */
00005586  206E 0008                movea.l    A0, [A6 + 0x8]
0000558A  316D ED84 0002           move.w     [A0 + 0x2], [A5 - 0x127C]
label00005590:
00005590  206E 0008                movea.l    A0, [A6 + 0x8]
00005594  3028 0002                move.w     D0, [A0 + 0x2]
00005598  B06D ED88                cmp.w      D0, [A5 - 0x1278]
0000559C  6F0A                     ble        +0xC /* 000055A8 */
0000559E  206E 0008                movea.l    A0, [A6 + 0x8]
000055A2  316D ED88 0002           move.w     [A0 + 0x2], [A5 - 0x1278]
label000055A8:
000055A8  206E 0008                movea.l    A0, [A6 + 0x8]
000055AC  3010                     move.w     D0, [A0]
000055AE  B06D ED82                cmp.w      D0, [A5 - 0x127E]
000055B2  6C08                     bge        +0xA /* 000055BC */
000055B4  206E 0008                movea.l    A0, [A6 + 0x8]
000055B8  30AD ED82                move.w     [A0], [A5 - 0x127E]
label000055BC:
000055BC  206E 0008                movea.l    A0, [A6 + 0x8]
000055C0  3010                     move.w     D0, [A0]
000055C2  B06D ED86                cmp.w      D0, [A5 - 0x127A]
000055C6  6F08                     ble        +0xA /* 000055D0 */
000055C8  206E 0008                movea.l    A0, [A6 + 0x8]
000055CC  30AD ED86                move.w     [A0], [A5 - 0x127A]
label000055D0:
000055D0  4E5E                     unlink     A6
000055D2  2E9F                     move.l     [A7], [A7]+
000055D4  4E75                     rts
export_746:
000055D6  4E56 FEF8                link       A6, -0x0108
000055DA  2F0C                     move.l     -[A7], A4
000055DC  42A7                     clr.l      -[A7]
000055DE  A9F9                     syscall    InfoScrap
000055E0  285F                     movea.l    A4, [A7]+
000055E2  302C 0008                move.w     D0, [A4 + 0x8]
000055E6  B06D E2BC                cmp.w      D0, [A5 - 0x1D44]
000055EA  6706                     beq        +0x8 /* 000055F2 */
000055EC  1B7C 0001 E2BF           move.b     [A5 - 0x1D41], 0x1
label000055F2:
000055F2  102D E2BF                move.b     D0, [A5 - 0x1D41]
000055F6  6700 014C                beq        +0x14E /* 00005744 */
000055FA  4267                     clr.w      -[A7]
000055FC  4EAD 221A                jsr        [A5 + 0x221A /* export_1087, CODE:20 @ 00004B46 */]
00005600  101F                     move.b     D0, [A7]+
00005602  802D F005                or.b       D0, [A5 - 0xFFB]
00005606  4A00                     tst.b      D0
00005608  6726                     beq        +0x28 /* 00005630 */
0000560A  2F00                     move.l     -[A7], D0
0000560C  42A7                     clr.l      -[A7]
0000560E  42A7                     clr.l      -[A7]
00005610  2F3A 015A                move.l     -[A7], [PC + 0x15A /* 0000576C, value 0x50494354 'PICT' */]
00005614  486E FFF8                pea.l      [A6 - 0x8]
00005618  A9FD                     syscall    GetScrap
0000561A  221F                     move.l     D1, [A7]+
0000561C  201F                     move.l     D0, [A7]+
0000561E  4A81                     tst.l      D1
00005620  5EC1                     sgt        D1
00005622  C001                     and.b      D0, D1
00005624  670A                     beq        +0xC /* 00005630 */
00005626  1B7C 0005 E2BB           move.b     [A5 - 0x1D45], 0x5
0000562C  6000 0088                bra        +0x8A /* 000056B6 */
label00005630:
00005630  42A7                     clr.l      -[A7]
00005632  42A7                     clr.l      -[A7]
00005634  2F3A 0146                move.l     -[A7], [PC + 0x146 /* 0000577C, value 0x5742544E 'WBTN' */]
00005638  486E FFF8                pea.l      [A6 - 0x8]
0000563C  A9FD                     syscall    GetScrap
0000563E  4A9F                     tst.l      [A7]+
00005640  6F08                     ble        +0xA /* 0000564A */
00005642  1B7C 0002 E2BB           move.b     [A5 - 0x1D45], 0x2
00005648  606C                     bra        +0x6E /* 000056B6 */
label0000564A:
0000564A  42A7                     clr.l      -[A7]
0000564C  42A7                     clr.l      -[A7]
0000564E  2F3A 0128                move.l     -[A7], [PC + 0x128 /* 00005778, value 0x57464C44 'WFLD' */]
00005652  486E FFF8                pea.l      [A6 - 0x8]
00005656  A9FD                     syscall    GetScrap
00005658  4A9F                     tst.l      [A7]+
0000565A  6F08                     ble        +0xA /* 00005664 */
0000565C  1B7C 0003 E2BB           move.b     [A5 - 0x1D45], 0x3
00005662  6052                     bra        +0x54 /* 000056B6 */
label00005664:
00005664  42A7                     clr.l      -[A7]
00005666  42A7                     clr.l      -[A7]
00005668  2F3A 010A                move.l     -[A7], [PC + 0x10A /* 00005774, value 0x54455854 'TEXT' */]
0000566C  486E FFF8                pea.l      [A6 - 0x8]
00005670  A9FD                     syscall    GetScrap
00005672  4A9F                     tst.l      [A7]+
00005674  6F08                     ble        +0xA /* 0000567E */
00005676  1B7C 0001 E2BB           move.b     [A5 - 0x1D45], 0x1
0000567C  6038                     bra        +0x3A /* 000056B6 */
label0000567E:
0000567E  42A7                     clr.l      -[A7]
00005680  42A7                     clr.l      -[A7]
00005682  2F3A 00EC                move.l     -[A7], [PC + 0xEC /* 00005770, value 0x43415244 'CARD' */]
00005686  486E FFF8                pea.l      [A6 - 0x8]
0000568A  A9FD                     syscall    GetScrap
0000568C  4A9F                     tst.l      [A7]+
0000568E  6F08                     ble        +0xA /* 00005698 */
00005690  1B7C 0004 E2BB           move.b     [A5 - 0x1D45], 0x4
00005696  601E                     bra        +0x20 /* 000056B6 */
label00005698:
00005698  42A7                     clr.l      -[A7]
0000569A  42A7                     clr.l      -[A7]
0000569C  2F3A 00CE                move.l     -[A7], [PC + 0xCE /* 0000576C, value 0x50494354 'PICT' */]
000056A0  486E FFF8                pea.l      [A6 - 0x8]
000056A4  A9FD                     syscall    GetScrap
000056A6  4A9F                     tst.l      [A7]+
000056A8  6F08                     ble        +0xA /* 000056B2 */
000056AA  1B7C 0005 E2BB           move.b     [A5 - 0x1D45], 0x5
000056B0  6004                     bra        +0x6 /* 000056B6 */
label000056B2:
000056B2  422D E2BB                clr.b      [A5 - 0x1D45]
label000056B6:
000056B6  486E FEF8                pea.l      [A6 - 0x108]
000056BA  102D E2BB                move.b     D0, [A5 - 0x1D45]
000056BE  4880                     ext.w      D0
000056C0  5040                     addq.w     D0, 8
000056C2  3F00                     move.w     -[A7], D0
000056C4  4EAD 209A                jsr        [A5 + 0x209A /* export_1039, CODE:20 @ 00000F60 */]
000056C8  205F                     movea.l    A0, [A7]+
000056CA  43ED E2A6                lea.l      A1, [A5 - 0x1D5A]
000056CE  7004                     moveq.l    D0, 0x04
label000056D0:
000056D0  22D8                     move.l     [A1]+, [A0]+
000056D2  51C8 FFFC                dbf        D0, -0x6 /* 000056D0 */
000056D6  422D E292                clr.b      [A5 - 0x1D6E]
000056DA  102D E2BB                move.b     D0, [A5 - 0x1D45]
000056DE  4880                     ext.w      D0
000056E0  5340                     subq.w     D0, 1
000056E2  6712                     beq        +0x14 /* 000056F6 */
000056E4  5340                     subq.w     D0, 1
000056E6  6738                     beq        +0x3A /* 00005720 */
000056E8  5340                     subq.w     D0, 1
000056EA  6742                     beq        +0x44 /* 0000572E */
000056EC  5340                     subq.w     D0, 1
000056EE  6722                     beq        +0x24 /* 00005712 */
000056F0  5340                     subq.w     D0, 1
000056F2  6710                     beq        +0x12 /* 00005704 */
000056F4  6044                     bra        +0x46 /* 0000573A */
label000056F6:
000056F6  41ED E292                lea.l      A0, [A5 - 0x1D6E]
000056FA  43FA 006A                lea.l      A1, [PC + 0x6A /* 00005766, value 0x4546578, pstring "Text" */]
000056FE  20D9                     move.l     [A0]+, [A1]+
00005700  3091                     move.w     [A0], [A1]
00005702  6036                     bra        +0x38 /* 0000573A */
label00005704:
00005704  41ED E292                lea.l      A0, [A5 - 0x1D6E]
00005708  43FA 0054                lea.l      A1, [PC + 0x54 /* 0000575E, value 0x7506963, pstring "Picture" */]
0000570C  20D9                     move.l     [A0]+, [A1]+
0000570E  20D9                     move.l     [A0]+, [A1]+
00005710  6028                     bra        +0x2A /* 0000573A */
label00005712:
00005712  41ED E292                lea.l      A0, [A5 - 0x1D6E]
00005716  43FA 0040                lea.l      A1, [PC + 0x40 /* 00005758, value 0x4436172, pstring "Card" */]
0000571A  20D9                     move.l     [A0]+, [A1]+
0000571C  3091                     move.w     [A0], [A1]
0000571E  601A                     bra        +0x1C /* 0000573A */
label00005720:
00005720  41ED E292                lea.l      A0, [A5 - 0x1D6E]
00005724  43FA 002A                lea.l      A1, [PC + 0x2A /* 00005750, value 0x6427574, pstring "Button" */]
00005728  20D9                     move.l     [A0]+, [A1]+
0000572A  20D9                     move.l     [A0]+, [A1]+
0000572C  600C                     bra        +0xE /* 0000573A */
label0000572E:
0000572E  41ED E292                lea.l      A0, [A5 - 0x1D6E]
00005732  43FA 0016                lea.l      A1, [PC + 0x16 /* 0000574A, value 0x5466965, pstring "Field" */]
00005736  20D9                     move.l     [A0]+, [A1]+
00005738  3091                     move.w     [A0], [A1]
label0000573A:
0000573A  3B6C 0008 E2BC           move.w     [A5 - 0x1D44], [A4 + 0x8]
00005740  422D E2BF                clr.b      [A5 - 0x1D41]
label00005744:
00005744  285F                     movea.l    A4, [A7]+
00005746  4E5E                     unlink     A6
00005748  4E75                     rts
0000574A  0546                     bchg       D6, D2
0000574C  6965                     bvs        +0x67 /* 000057B3 */
0000574E  6C64                     bge        +0x66 /* 000057B4 */
00005750  0642 7574                addi.w     D2, 0x7574 /* 'ut' */
00005754  746F                     moveq.l    D2, 0x6F
00005756  6E00 0443                bgt        +0x445 /* 00005B9B */
0000575A  6172                     bsr        +0x74 /* 000057CE */
0000575C  6400 0750                bcc        +0x752 /* 00005EAE */
00005760  6963                     bvs        +0x65 /* 000057C5 */
00005762  7475                     moveq.l    D2, 0x75
00005764  7265                     moveq.l    D1, 0x65
00005766  0454 6578                subi.w     [A4], 0x6578 /* 'ex' */
0000576A  7400                     moveq.l    D2, 0x00
0000576C  5049                     addq.w     A1, 8
0000576E  4354                     chk.w      D1, [A4]
00005770  4341                     chk.w      D1, D1
00005772  5244                     addq.w     D4, 1
00005774  5445                     addq.w     D5, 2
00005776  5854                     addq.w     [A4], 4
00005778  5746                     subq.w     D6, 3
0000577A  4C44 5742                divul.l    D2:D5, D4
0000577E  544E                     addq.w     A6, 2
export_747:
fn00005780:
00005780  4E56 FFFA                link       A6, -0x0006
00005784  48E7 0108                movem.l    -[A7], D7,A4
00005788  426E 000A                clr.w      [A6 + 0xA]
0000578C  49ED DC78                lea.l      A4, [A5 - 0x2388]
00005790  7E01                     moveq.l    D7, 0x01
00005792  603E                     bra        +0x40 /* 000057D2 */
label00005794:
00005794  2014                     move.l     D0, [A4]
00005796  B0AD F62A                cmp.l      D0, [A5 - 0x9D6]
0000579A  57C0                     seq        D0
0000579C  4A00                     tst.b      D0
0000579E  672C                     beq        +0x2E /* 000057CC */
000057A0  222C 0004                move.l     D1, [A4 + 0x4]
000057A4  B2AD F4E0                cmp.l      D1, [A5 - 0xB20]
000057A8  57C1                     seq        D1
000057AA  C001                     and.b      D0, D1
000057AC  671E                     beq        +0x20 /* 000057CC */
000057AE  322C 0008                move.w     D1, [A4 + 0x8]
000057B2  B26E 0008                cmp.w      D1, [A6 + 0x8]
// begin alternate branch 000057B4-000057B8
label000057B4:
000057B4  0008 57C1                ori.b      A0, 0xC1
// end alternate branch 000057B4-000057B8
label000057B4: // (misaligned)
000057B6  57C1                     seq        D1
000057B8  C001                     and.b      D0, D1
000057BA  6710                     beq        +0x12 /* 000057CC */
000057BC  3D6C 000A 000A           move.w     [A6 + 0xA], [A4 + 0xA]
000057C2  42A7                     clr.l      -[A7]
000057C4  A975                     syscall    TickCount
000057C6  295F 000C                move.l     [A4 + 0xC], [A7]+
000057CA  600C                     bra        +0xE /* 000057D8 */
label000057CC:
000057CC  7010                     moveq.l    D0, 0x10
fn000057CE:
000057CE  D9C0                     add.l      A4, D0
000057D0  5247                     addq.w     D7, 1
label000057D2:
000057D2  701E                     moveq.l    D0, 0x1E
000057D4  B047                     cmp.w      D0, D7
000057D6  6CBC                     bge        -0x42 /* 00005794 */
label000057D8:
000057D8  4CDF 1080                movem.l    D7,A4, [A7]+
000057DC  4E5E                     unlink     A6
000057DE  205F                     movea.l    A0, [A7]+
000057E0  544F                     addq.w     A7, 2
000057E2  4ED0                     jmp        [A0]
export_748:
000057E4  4E56 FDC2                link       A6, -0x023E
000057E8  48E7 0F18                movem.l    -[A7], D4,D5,D6,D7,A3,A4
000057EC  206E 000A                movea.l    A0, [A6 + 0xA]
000057F0  4210                     clr.b      [A0]
000057F2  102D EDAB                move.b     D0, [A5 - 0x1255]
000057F6  6714                     beq        +0x16 /* 0000580C */
000057F8  286D EDAC                movea.l    A4, [A5 - 0x1254]
000057FC  41EE FEF4                lea.l      A0, [A6 - 0x10C]
00005800  43FA 0198                lea.l      A1, [PC + 0x198 /* 0000599A, value 0xB6D6573, pstring "message box" */]
00005804  20D9                     move.l     [A0]+, [A1]+
00005806  20D9                     move.l     [A0]+, [A1]+
00005808  20D9                     move.l     [A0]+, [A1]+
0000580A  6074                     bra        +0x76 /* 00005880 */
label0000580C:
0000580C  102D E245                move.b     D0, [A5 - 0x1DBB]
00005810  676A                     beq        +0x6C /* 0000587C */
00005812  286D E246                movea.l    A4, [A5 - 0x1DBA]
00005816  202D E24E                move.l     D0, [A5 - 0x1DB2]
0000581A  B0AD F62A                cmp.l      D0, [A5 - 0x9D6]
0000581E  660E                     bne        +0x10 /* 0000582E */
00005820  41EE FEF4                lea.l      A0, [A6 - 0x10C]
00005824  43FA 016E                lea.l      A1, [PC + 0x16E /* 00005994, value 0x4636172, pstring "card" */]
00005828  20D9                     move.l     [A0]+, [A1]+
0000582A  3091                     move.w     [A0], [A1]
0000582C  600C                     bra        +0xE /* 0000583A */
label0000582E:
0000582E  41EE FEF4                lea.l      A0, [A6 - 0x10C]
00005832  43FA 015A                lea.l      A1, [PC + 0x15A /* 0000598E, value 0x5626B67, pstring "bkgnd" */]
00005836  20D9                     move.l     [A0]+, [A1]+
00005838  3091                     move.w     [A0], [A1]
label0000583A:
0000583A  486E FEF4                pea.l      [A6 - 0x10C]
0000583E  487A 0146                pea.l      [PC + 0x146 /* 00005986, value 0x7206669, pstring " field " */]
00005842  486E FDD6                pea.l      [A6 - 0x22A]
00005846  4267                     clr.w      -[A7]
00005848  2F2D E24E                move.l     -[A7], [A5 - 0x1DB2]
0000584C  3F2D E254                move.w     -[A7], [A5 - 0x1DAC]
00005850  4EAD 1DCA                jsr        [A5 + 0x1DCA /* export_949, CODE:18 @ 00000E6C */]
00005854  301F                     move.w     D0, [A7]+
00005856  48C0                     ext.l      D0
00005858  2F00                     move.l     -[A7], D0
0000585A  4EAD 1902                jsr        [A5 + 0x1902 /* export_796, CODE:16 @ 000009D4 */]
0000585E  486E FDEA                pea.l      [A6 - 0x216]
00005862  3F3C 0003                move.w     -[A7], 0x3
00005866  4EAD 050A                jsr        [A5 + 0x50A /* export_157, CODE:1 @ 0000531E */]
0000586A  41EE FEF4                lea.l      A0, [A6 - 0x10C]
0000586E  43EE FDEA                lea.l      A1, [A6 - 0x216]
00005872  703F                     moveq.l    D0, 0x3F
label00005874:
00005874  20D9                     move.l     [A0]+, [A1]+
00005876  51C8 FFFC                dbf        D0, -0x6 /* 00005874 */
0000587A  6004                     bra        +0x6 /* 00005880 */
label0000587C:
0000587C  6000 00E4                bra        +0xE6 /* 00005962 */
label00005880:
00005880  2054                     movea.l    A0, [A4]
00005882  3C28 0020                move.w     D6, [A0 + 0x20]
00005886  2054                     movea.l    A0, [A4]
00005888  3A28 0022                move.w     D5, [A0 + 0x22]
0000588C  7001                     moveq.l    D0, 0x01
0000588E  B06E 0008                cmp.w      D0, [A6 + 0x8]
00005892  664A                     bne        +0x4C /* 000058DE */
00005894  487A 00EA                pea.l      [PC + 0xEA /* 00005980, value 0x5636861, pstring "char " */]
00005898  486E FDD6                pea.l      [A6 - 0x22A]
0000589C  3006                     move.w     D0, D6
0000589E  5240                     addq.w     D0, 1
000058A0  48C0                     ext.l      D0
000058A2  2F00                     move.l     -[A7], D0
000058A4  4EAD 1902                jsr        [A5 + 0x1902 /* export_796, CODE:16 @ 000009D4 */]
000058A8  487A 00D0                pea.l      [PC + 0xD0 /* 0000597A, value 0x420746F, pstring " to " */]
000058AC  486E FDC2                pea.l      [A6 - 0x23E]
000058B0  3005                     move.w     D0, D5
000058B2  48C0                     ext.l      D0
000058B4  2F00                     move.l     -[A7], D0
000058B6  4EAD 1902                jsr        [A5 + 0x1902 /* export_796, CODE:16 @ 000009D4 */]
000058BA  487A 00B2                pea.l      [PC + 0xB2 /* 0000596E, value 0x4206F66, pstring " of " */]
000058BE  486E FEF4                pea.l      [A6 - 0x10C]
000058C2  486E FDEA                pea.l      [A6 - 0x216]
000058C6  3F3C 0006                move.w     -[A7], 0x6
000058CA  4EAD 050A                jsr        [A5 + 0x50A /* export_157, CODE:1 @ 0000531E */]
000058CE  41EE FEF4                lea.l      A0, [A6 - 0x10C]
000058D2  43EE FDEA                lea.l      A1, [A6 - 0x216]
000058D6  703F                     moveq.l    D0, 0x3F
label000058D8:
000058D8  20D9                     move.l     [A0]+, [A1]+
000058DA  51C8 FFFC                dbf        D0, -0x6 /* 000058D8 */
label000058DE:
000058DE  7002                     moveq.l    D0, 0x02
000058E0  B06E 0008                cmp.w      D0, [A6 + 0x8]
000058E4  666C                     bne        +0x6E /* 00005952 */
000058E6  7E01                     moveq.l    D7, 0x01
000058E8  2054                     movea.l    A0, [A4]
000058EA  2068 003E                movea.l    A0, [A0 + 0x3E]
000058EE  2D50 FEF0                move.l     [A6 - 0x110], [A0]
000058F2  3006                     move.w     D0, D6
000058F4  48C0                     ext.l      D0
000058F6  2640                     movea.l    A3, D0
000058F8  D7EE FEF0                add.l      A3, [A6 - 0x110]
000058FC  1813                     move.b     D4, [A3]
000058FE  4213                     clr.b      [A3]
label00005900:
00005900  486E FEF0                pea.l      [A6 - 0x110]
00005904  4EAD 1AA2                jsr        [A5 + 0x1AA2 /* export_848, CODE:16 @ 00001A3E */]
00005908  206E FEF0                movea.l    A0, [A6 - 0x110]
0000590C  4A10                     tst.b      [A0]
0000590E  6706                     beq        +0x8 /* 00005916 */
00005910  52AE FEF0                addq.l     [A6 - 0x110], 1
00005914  5287                     addq.l     D7, 1
label00005916:
00005916  206E FEF0                movea.l    A0, [A6 - 0x110]
0000591A  4A10                     tst.b      [A0]
0000591C  66E2                     bne        -0x1C /* 00005900 */
0000591E  1684                     move.b     [A3], D4
00005920  487A 0052                pea.l      [PC + 0x52 /* 00005974, value 0x56C696E, pstring "line " */]
00005924  486E FDD6                pea.l      [A6 - 0x22A]
00005928  2F07                     move.l     -[A7], D7
0000592A  4EAD 18B2                jsr        [A5 + 0x18B2 /* export_786, CODE:16 @ 00000738 */]
0000592E  487A 003E                pea.l      [PC + 0x3E /* 0000596E, value 0x4206F66, pstring " of " */]
00005932  486E FEF4                pea.l      [A6 - 0x10C]
00005936  486E FDEA                pea.l      [A6 - 0x216]
0000593A  3F3C 0004                move.w     -[A7], 0x4
0000593E  4EAD 050A                jsr        [A5 + 0x50A /* export_157, CODE:1 @ 0000531E */]
00005942  41EE FEF4                lea.l      A0, [A6 - 0x10C]
00005946  43EE FDEA                lea.l      A1, [A6 - 0x216]
0000594A  703F                     moveq.l    D0, 0x3F
label0000594C:
0000594C  20D9                     move.l     [A0]+, [A1]+
0000594E  51C8 FFFC                dbf        D0, -0x6 /* 0000594C */
label00005952:
00005952  206E 000A                movea.l    A0, [A6 + 0xA]
00005956  43EE FEF4                lea.l      A1, [A6 - 0x10C]
0000595A  703F                     moveq.l    D0, 0x3F
label0000595C:
0000595C  20D9                     move.l     [A0]+, [A1]+
0000595E  51C8 FFFC                dbf        D0, -0x6 /* 0000595C */
label00005962:
00005962  4CDF 18F0                movem.l    D4,D5,D6,D7,A3,A4, [A7]+
00005966  4E5E                     unlink     A6
00005968  205F                     movea.l    A0, [A7]+
0000596A  544F                     addq.w     A7, 2
0000596C  4ED0                     jmp        [A0]
0000596E  0420 6F66                subi.b     -[A0], 0x66 /* 'f' */
00005972  2000                     move.l     D0, D0
00005974  056C 696E                bchg       [A4 + 0x696E], D2
00005978  6520                     bcs        +0x22 /* 0000599A */
0000597A  0420 746F                subi.b     -[A0], 0x6F /* 'o' */
0000597E  2000                     move.l     D0, D0
00005980  0563                     bchg       -[A3], D2
00005982  6861                     bvc        +0x63 /* 000059E5 */
00005984  7220                     moveq.l    D1, 0x20
00005986  0720                     btst       -[A0], D3
00005988  6669                     bne        +0x6B /* 000059F3 */
0000598A  656C                     bcs        +0x6E /* 000059F8 */
0000598C  6420                     bcc        +0x22 /* 000059AE */
0000598E  0562                     bchg       -[A2], D2
00005990  6B67                     bmi        +0x69 /* 000059F9 */
00005992  6E64                     bgt        +0x66 /* 000059F8 */
00005994  0463 6172                subi.w     -[A3], 0x6172 /* 'ar' */
00005998  6400 0B6D                bcc        +0xB6F /* 00006507 */
// begin alternate branch 0000599A-0000599E
label0000599A:
0000599A  0B6D 6573                bchg       [A5 + 0x6573], D5
// end alternate branch 0000599A-0000599E
label0000599A: // (misaligned)
0000599C  6573                     bcs        +0x75 /* 00005A11 */
0000599E  7361                     moveq.l    D1, 0x61
000059A0  6765                     beq        +0x67 /* 00005A07 */
000059A2  2062                     movea.l    A0, -[A2]
000059A4  6F78                     ble        +0x7A /* 00005A1E */
export_749:
000059A6  4E56 FFEC                link       A6, -0x0014
000059AA  48E7 0718                movem.l    -[A7], D5,D6,D7,A3,A4
label000059AE:
000059AE  7000                     moveq.l    D0, 0x00
000059B0  2840                     movea.l    A4, D0
000059B2  102D EDAB                move.b     D0, [A5 - 0x1255]
000059B6  6704                     beq        +0x6 /* 000059BC */
000059B8  286D EDAC                movea.l    A4, [A5 - 0x1254]
label000059BC:
000059BC  102D E245                move.b     D0, [A5 - 0x1DBB]
000059C0  6704                     beq        +0x6 /* 000059C6 */
000059C2  286D E246                movea.l    A4, [A5 - 0x1DBA]
label000059C6:
000059C6  200C                     move.l     D0, A4
000059C8  674A                     beq        +0x4C /* 00005A14 */
000059CA  2054                     movea.l    A0, [A4]
000059CC  2254                     movea.l    A1, [A4]
000059CE  3028 0022                move.w     D0, [A0 + 0x22]
000059D2  9069 0020                sub.w      D0, [A1 + 0x20]
000059D6  48C0                     ext.l      D0
000059D8  2E00                     move.l     D7, D0
000059DA  6F38                     ble        +0x3A /* 00005A14 */
000059DC  42A7                     clr.l      -[A7]
000059DE  2007                     move.l     D0, D7
000059E0  5280                     addq.l     D0, 1
000059E2  2F00                     move.l     -[A7], D0
000059E4  4EAD 18DA                jsr        [A5 + 0x18DA /* export_791, CODE:16 @ 00000896 */]
000059E8  265F                     movea.l    A3, [A7]+
000059EA  200B                     move.l     D0, A3
000059EC  6726                     beq        +0x28 /* 00005A14 */
000059EE  2054                     movea.l    A0, [A4]
000059F0  2068 003E                movea.l    A0, [A0 + 0x3E]
000059F4  2254                     movea.l    A1, [A4]
000059F6  3029 0020                move.w     D0, [A1 + 0x20]
// begin alternate branch 000059F8-000059FC
label000059F8:
000059F8  0020 48C0                ori.b      -[A0], 0xC0
// end alternate branch 000059F8-000059FC
label000059F8: // (misaligned)
000059FA  48C0                     ext.l      D0
000059FC  2A00                     move.l     D5, D0
000059FE  DA90                     add.l      D5, [A0]
00005A00  2C13                     move.l     D6, [A3]
00005A02  2F05                     move.l     -[A7], D5
00005A04  2F06                     move.l     -[A7], D6
00005A06  2F07                     move.l     -[A7], D7
00005A08  4EAD 19B2                jsr        [A5 + 0x19B2 /* export_818, CODE:16 @ 000010BE */]
00005A0C  DC87                     add.l      D6, D7
00005A0E  2046                     movea.l    A0, D6
00005A10  4210                     clr.b      [A0]
00005A12  6010                     bra        +0x12 /* 00005A24 */
label00005A14:
00005A14  42A7                     clr.l      -[A7]
00005A16  7001                     moveq.l    D0, 0x01
00005A18  2F00                     move.l     -[A7], D0
00005A1A  4EAD 18DA                jsr        [A5 + 0x18DA /* export_791, CODE:16 @ 00000896 */]
label00005A1E:
00005A1E  265F                     movea.l    A3, [A7]+
00005A20  2053                     movea.l    A0, [A3]
00005A22  4210                     clr.b      [A0]
label00005A24:
00005A24  2D4B 0008                move.l     [A6 + 0x8], A3
00005A28  4CDF 18E0                movem.l    D5,D6,D7,A3,A4, [A7]+
00005A2C  4E5E                     unlink     A6
00005A2E  4E75                     rts
fn00005A30:
00005A30  4E56 FFFE                link       A6, -0x0002
00005A34  48E7 0108                movem.l    -[A7], D7,A4
00005A38  2F2E 000E                move.l     -[A7], [A6 + 0xE]
00005A3C  3F2E 000C                move.w     -[A7], [A6 + 0xC]
00005A40  2F2D E08C                move.l     -[A7], [A5 - 0x1F74]
00005A44  4EBA ECCE                jsr        [PC - 0x1332 /* 00004714 */]
00005A48  206D E08C                movea.l    A0, [A5 - 0x1F74]
00005A4C  2850                     movea.l    A4, [A0]
00005A4E  302C 0018                move.w     D0, [A4 + 0x18]
00005A52  C1EC 005E                muls.w     D0, [A4 + 0x5E]
00005A56  3E00                     move.w     D7, D0
00005A58  DE54                     add.w      D7, [A4]
00005A5A  206E 0008                movea.l    A0, [A6 + 0x8]
00005A5E  224C                     movea.l    A1, A4
00005A60  5089                     addq.l     A1, 8
00005A62  20D9                     move.l     [A0]+, [A1]+
00005A64  20D9                     move.l     [A0]+, [A1]+
00005A66  206E 0008                movea.l    A0, [A6 + 0x8]
00005A6A  2F08                     move.l     -[A7], A0
00005A6C  4267                     clr.w      -[A7]
00005A6E  3F2C 000C                move.w     -[A7], [A4 + 0xC]
00005A72  3F07                     move.w     -[A7], D7
00005A74  4EAD 18C2                jsr        [A5 + 0x18C2 /* export_788, CODE:16 @ 000007E6 */]
00005A78  301F                     move.w     D0, [A7]+
00005A7A  205F                     movea.l    A0, [A7]+
00005A7C  3140 0004                move.w     [A0 + 0x4], D0
00005A80  4CDF 1080                movem.l    D7,A4, [A7]+
00005A84  4E5E                     unlink     A6
00005A86  205F                     movea.l    A0, [A7]+
00005A88  DEFC 000A                add.w      A7, 0xA /* '\n' */
00005A8C  4ED0                     jmp        [A0]
fn00005A8E:
00005A8E  4E56 FEFA                link       A6, -0x0106
00005A92  48E7 0318                movem.l    -[A7], D6,D7,A3,A4
00005A96  266E 0008                movea.l    A3, [A6 + 0x8]
00005A9A  286B FFFC                movea.l    A4, [A3 - 0x4]
00005A9E  3E2C 0044                move.w     D7, [A4 + 0x44]
00005AA2  3C2C 004A                move.w     D6, [A4 + 0x4A]
00005AA6  1D6C 0046 FFFB           move.b     [A6 - 0x5], [A4 + 0x46]
00005AAC  396B FEAA 0044           move.w     [A4 + 0x44], [A3 - 0x156]
00005AB2  396B FEAC 004A           move.w     [A4 + 0x4A], [A3 - 0x154]
00005AB8  196B FEAE 0046           move.b     [A4 + 0x46], [A3 - 0x152]
00005ABE  486B FFD6                pea.l      [A3 - 0x2A]
00005AC2  A87B                     syscall    ClipRect
00005AC4  486B FFD6                pea.l      [A3 - 0x2A]
00005AC8  A8A3                     syscall    EraseRect
00005ACA  302B FFD8                move.w     D0, [A3 - 0x28]
00005ACE  5A40                     addq.w     D0, 5
00005AD0  3F00                     move.w     -[A7], D0
00005AD2  302B FFDA                move.w     D0, [A3 - 0x26]
00005AD6  5B40                     subq.w     D0, 5
00005AD8  3F00                     move.w     -[A7], D0
00005ADA  A893                     syscall    MoveTo
00005ADC  486E FEFA                pea.l      [A6 - 0x106]
00005AE0  3F3C 001A                move.w     -[A7], 0x1A
00005AE4  4EAD 209A                jsr        [A5 + 0x209A /* export_1039, CODE:20 @ 00000F60 */]
00005AE8  A884                     syscall    DrawString
00005AEA  486C 0010                pea.l      [A4 + 0x10]
00005AEE  A87B                     syscall    ClipRect
00005AF0  3947 0044                move.w     [A4 + 0x44], D7
00005AF4  3946 004A                move.w     [A4 + 0x4A], D6
00005AF8  196E FFFB 0046           move.b     [A4 + 0x46], [A6 - 0x5]
00005AFE  4CDF 18C0                movem.l    D6,D7,A3,A4, [A7]+
00005B02  4E5E                     unlink     A6
00005B04  2E9F                     move.l     [A7], [A7]+
00005B06  4E75                     rts
fn00005B08:
00005B08  4E56 FFEA                link       A6, -0x0016
00005B0C  48E7 0108                movem.l    -[A7], D7,A4
00005B10  3E2E 0010                move.w     D7, [A6 + 0x10]
00005B14  286E 0008                movea.l    A4, [A6 + 0x8]
00005B18  4267                     clr.w      -[A7]
00005B1A  3F07                     move.w     -[A7], D7
00005B1C  2F3C 03E7 0001           move.l     -[A7], 0x3E70001
00005B22  4EAD 1A8A                jsr        [A5 + 0x1A8A /* export_845, CODE:16 @ 000019F8 */]
00005B26  3E1F                     move.w     D7, [A7]+
00005B28  102C FE7B                move.b     D0, [A4 - 0x185]
00005B2C  6612                     bne        +0x14 /* 00005B40 */
00005B2E  3947 FEAC                move.w     [A4 - 0x154], D7
00005B32  3007                     move.w     D0, D7
00005B34  E540                     asl        D0.w, 2
00005B36  48C0                     ext.l      D0
00005B38  81FC 0003                divs.w     D0, 0x3
00005B3C  3940 FEB0                move.w     [A4 - 0x150], D0
label00005B40:
00005B40  2F2C FFFC                move.l     -[A7], [A4 - 0x4]
00005B44  3F3C 0005                move.w     -[A7], 0x5
00005B48  486C FFFA                pea.l      [A4 - 0x6]
00005B4C  486C FFF6                pea.l      [A4 - 0xA]
00005B50  486C FFEE                pea.l      [A4 - 0x12]
00005B54  A98D                     syscall    GetDialogItem/GetDItem
00005B56  2F2C FFF6                move.l     -[A7], [A4 - 0xA]
00005B5A  486E FFEA                pea.l      [A6 - 0x16]
00005B5E  302C FEAC                move.w     D0, [A4 - 0x154]
00005B62  48C0                     ext.l      D0
00005B64  2F00                     move.l     -[A7], D0
00005B66  4EAD 1902                jsr        [A5 + 0x1902 /* export_796, CODE:16 @ 000009D4 */]
00005B6A  A98F                     syscall    SetDialogItemText/SetIText
00005B6C  102E 000C                move.b     D0, [A6 + 0xC]
00005B70  6710                     beq        +0x12 /* 00005B82 */
00005B72  2F2C FFFC                move.l     -[A7], [A4 - 0x4]
00005B76  2F3C 0000 0005           move.l     -[A7], 0x5
00005B7C  3F3C 7FFF                move.w     -[A7], 0x7FFF
00005B80  A97E                     syscall    SelectDialogItemText/SelIText
label00005B82:
00005B82  2F2C FFFC                move.l     -[A7], [A4 - 0x4]
00005B86  3F3C 0006                move.w     -[A7], 0x6
00005B8A  486C FFFA                pea.l      [A4 - 0x6]
00005B8E  486C FFF6                pea.l      [A4 - 0xA]
00005B92  486C FFEE                pea.l      [A4 - 0x12]
00005B96  A98D                     syscall    GetDialogItem/GetDItem
00005B98  2F2C FFF6                move.l     -[A7], [A4 - 0xA]
00005B9C  486E FFEA                pea.l      [A6 - 0x16]
00005BA0  302C FEB0                move.w     D0, [A4 - 0x150]
00005BA4  48C0                     ext.l      D0
00005BA6  2F00                     move.l     -[A7], D0
00005BA8  4EAD 1902                jsr        [A5 + 0x1902 /* export_796, CODE:16 @ 000009D4 */]
00005BAC  A98F                     syscall    SetDialogItemText/SetIText
00005BAE  2F2E 0008                move.l     -[A7], [A6 + 0x8]
00005BB2  4EBA FEDA                jsr        [PC - 0x126 /* 00005A8E */]
00005BB6  102E 000E                move.b     D0, [A6 + 0xE]
00005BBA  6700 008E                beq        +0x90 /* 00005C4A */
00005BBE  296C FE7E FFBA           move.l     [A4 - 0x46], [A4 - 0x182]
00005BC4  4267                     clr.w      -[A7]
00005BC6  1F3C 0001                move.b     -[A7], 0x1
00005BCA  486C FFBA                pea.l      [A4 - 0x46]
00005BCE  2F2C FFCE                move.l     -[A7], [A4 - 0x32]
00005BD2  4EAD 00EA                jsr        [A5 + 0xEA /* export_25, CODE:1 @ 00003D82 */]
00005BD6  101F                     move.b     D0, [A7]+
00005BD8  670E                     beq        +0x10 /* 00005BE8 */
00005BDA  4267                     clr.w      -[A7]
00005BDC  2F2C FFBA                move.l     -[A7], [A4 - 0x46]
00005BE0  2F2C FFCE                move.l     -[A7], [A4 - 0x32]
00005BE4  4EAD 00CA                jsr        [A5 + 0xCA /* export_21, CODE:1 @ 00003D92 */]
label00005BE8:
00005BE8  296C FE7E FFBA           move.l     [A4 - 0x46], [A4 - 0x182]
00005BEE  486E FFEA                pea.l      [A6 - 0x16]
00005BF2  302C FEAC                move.w     D0, [A4 - 0x154]
00005BF6  48C0                     ext.l      D0
00005BF8  2F00                     move.l     -[A7], D0
00005BFA  4EAD 1902                jsr        [A5 + 0x1902 /* export_796, CODE:16 @ 000009D4 */]
00005BFE  205F                     movea.l    A0, [A7]+
00005C00  43EC FEB8                lea.l      A1, [A4 - 0x148]
00005C04  7004                     moveq.l    D0, 0x04
label00005C06:
00005C06  22D8                     move.l     [A1]+, [A0]+
00005C08  51C8 FFFC                dbf        D0, -0x6 /* 00005C06 */
00005C0C  4267                     clr.w      -[A7]
00005C0E  41EC FEB8                lea.l      A0, [A4 - 0x148]
00005C12  2008                     move.l     D0, A0
00005C14  5280                     addq.l     D0, 1
00005C16  2F00                     move.l     -[A7], D0
00005C18  4240                     clr.w      D0
00005C1A  102C FEB8                move.b     D0, [A4 - 0x148]
00005C1E  3F00                     move.w     -[A7], D0
00005C20  42A7                     clr.l      -[A7]
00005C22  486C FFBA                pea.l      [A4 - 0x46]
00005C26  2F2C FFCE                move.l     -[A7], [A4 - 0x32]
00005C2A  4EAD 00DA                jsr        [A5 + 0xDA /* export_23, CODE:1 @ 00003D8E */]
00005C2E  101F                     move.b     D0, [A7]+
00005C30  6718                     beq        +0x1A /* 00005C4A */
00005C32  1F3C 0001                move.b     -[A7], 0x1
00005C36  2F2C FFBA                move.l     -[A7], [A4 - 0x46]
00005C3A  2F2C FFCE                move.l     -[A7], [A4 - 0x32]
00005C3E  4EAD 00CA                jsr        [A5 + 0xCA /* export_21, CODE:1 @ 00003D92 */]
00005C42  2F2C FFCE                move.l     -[A7], [A4 - 0x32]
00005C46  4EAD 011A                jsr        [A5 + 0x11A /* export_31, CODE:1 @ 00003D6C */]
label00005C4A:
00005C4A  4CDF 1080                movem.l    D7,A4, [A7]+
00005C4E  4E5E                     unlink     A6
00005C50  205F                     movea.l    A0, [A7]+
00005C52  DEFC 000A                add.w      A7, 0xA /* '\n' */
00005C56  4ED0                     jmp        [A0]
fn00005C58:
00005C58  4E56 FFEC                link       A6, -0x0014
00005C5C  48E7 0118                movem.l    -[A7], D7,A3,A4
00005C60  3E2E 000C                move.w     D7, [A6 + 0xC]
00005C64  266E 0008                movea.l    A3, [A6 + 0x8]
00005C68  286B 0008                movea.l    A4, [A3 + 0x8]
00005C6C  4267                     clr.w      -[A7]
00005C6E  3F2C FEAA                move.w     -[A7], [A4 - 0x156]
00005C72  3F07                     move.w     -[A7], D7
00005C74  A902                     syscall    RealFont
00005C76  101F                     move.b     D0, [A7]+
00005C78  6768                     beq        +0x6A /* 00005CE2 */
00005C7A  4A6B FFFE                tst.w      [A3 - 0x2]
00005C7E  57C0                     seq        D0
00005C80  BE6C FEAC                cmp.w      D7, [A4 - 0x154]
00005C84  5FC1                     sle        D1
00005C86  8001                     or.b       D0, D1
00005C88  6704                     beq        +0x6 /* 00005C8E */
00005C8A  3747 FFFE                move.w     [A3 - 0x2], D7
label00005C8E:
00005C8E  486E FFEC                pea.l      [A6 - 0x14]
00005C92  3007                     move.w     D0, D7
00005C94  48C0                     ext.l      D0
00005C96  2F00                     move.l     -[A7], D0
00005C98  4EAD 1902                jsr        [A5 + 0x1902 /* export_796, CODE:16 @ 000009D4 */]
00005C9C  205F                     movea.l    A0, [A7]+
00005C9E  43EC FEB8                lea.l      A1, [A4 - 0x148]
00005CA2  7004                     moveq.l    D0, 0x04
label00005CA4:
00005CA4  22D8                     move.l     [A1]+, [A0]+
00005CA6  51C8 FFFC                dbf        D0, -0x6 /* 00005CA4 */
00005CAA  426C FFBC                clr.w      [A4 - 0x44]
00005CAE  2F3C 0001 0000           move.l     -[A7], 0x10000
00005CB4  3F3C 03E8                move.w     -[A7], 0x3E8
00005CB8  2F2C FFCE                move.l     -[A7], [A4 - 0x32]
00005CBC  4EAD 0122                jsr        [A5 + 0x122 /* export_32, CODE:1 @ 00003D68 */]
00005CC0  395F FFBA                move.w     [A4 - 0x46], [A7]+
00005CC4  41EC FEB8                lea.l      A0, [A4 - 0x148]
00005CC8  2008                     move.l     D0, A0
00005CCA  5280                     addq.l     D0, 1
00005CCC  2F00                     move.l     -[A7], D0
00005CCE  4240                     clr.w      D0
00005CD0  102C FEB8                move.b     D0, [A4 - 0x148]
00005CD4  3F00                     move.w     -[A7], D0
00005CD6  2F2C FFBA                move.l     -[A7], [A4 - 0x46]
00005CDA  2F2C FFCE                move.l     -[A7], [A4 - 0x32]
00005CDE  4EAD 00D2                jsr        [A5 + 0xD2 /* export_22, CODE:1 @ 00003D90 */]
label00005CE2:
00005CE2  4CDF 1880                movem.l    D7,A3,A4, [A7]+
00005CE6  4E5E                     unlink     A6
00005CE8  205F                     movea.l    A0, [A7]+
00005CEA  5C4F                     addq.w     A7, 6
00005CEC  4ED0                     jmp        [A0]
fn00005CEE:
00005CEE  4E56 FFFC                link       A6, -0x0004
00005CF2  2F07                     move.l     -[A7], D7
00005CF4  426E FFFE                clr.w      [A6 - 0x2]
00005CF8  42A7                     clr.l      -[A7]
00005CFA  206E 0008                movea.l    A0, [A6 + 0x8]
00005CFE  2F28 FFCE                move.l     -[A7], [A0 - 0x32]
00005D02  4EAD 010A                jsr        [A5 + 0x10A /* export_29, CODE:1 @ 00003D76 */]
00005D06  7E01                     moveq.l    D7, 0x01
00005D08  600A                     bra        +0xC /* 00005D14 */
label00005D0A:
00005D0A  3F07                     move.w     -[A7], D7
00005D0C  2F0E                     move.l     -[A7], A6
00005D0E  4EBA FF48                jsr        [PC - 0xB8 /* 00005C58 */]
00005D12  5247                     addq.w     D7, 1
label00005D14:
00005D14  7030                     moveq.l    D0, 0x30
00005D16  B047                     cmp.w      D0, D7
00005D18  6CF0                     bge        -0xE /* 00005D0A */
00005D1A  3F3C 0036                move.w     -[A7], 0x36 /* '6' */
00005D1E  2F0E                     move.l     -[A7], A6
00005D20  4EBA FF36                jsr        [PC - 0xCA /* 00005C58 */]
00005D24  3F3C 003C                move.w     -[A7], 0x3C /* '<' */
00005D28  2F0E                     move.l     -[A7], A6
00005D2A  4EBA FF2C                jsr        [PC - 0xD4 /* 00005C58 */]
00005D2E  3F3C 0048                move.w     -[A7], 0x48 /* 'H' */
00005D32  2F0E                     move.l     -[A7], A6
00005D34  4EBA FF22                jsr        [PC - 0xDE /* 00005C58 */]
00005D38  3F3C 0038                move.w     -[A7], 0x38 /* '8' */
00005D3C  2F0E                     move.l     -[A7], A6
00005D3E  4EBA FF18                jsr        [PC - 0xE8 /* 00005C58 */]
00005D42  3F3C 0050                move.w     -[A7], 0x50 /* 'P' */
00005D46  2F0E                     move.l     -[A7], A6
00005D48  4EBA FF0E                jsr        [PC - 0xF2 /* 00005C58 */]
00005D4C  3F3C 0060                move.w     -[A7], 0x60 /* '`' */
00005D50  2F0E                     move.l     -[A7], A6
00005D52  4EBA FF04                jsr        [PC - 0xFC /* 00005C58 */]
00005D56  3F3C 007F                move.w     -[A7], 0x7F
00005D5A  2F0E                     move.l     -[A7], A6
00005D5C  4EBA FEFA                jsr        [PC - 0x106 /* 00005C58 */]
00005D60  3F2E FFFE                move.w     -[A7], [A6 - 0x2]
00005D64  1F3C 0001                move.b     -[A7], 0x1
00005D68  1F3C 0001                move.b     -[A7], 0x1
00005D6C  2F2E 0008                move.l     -[A7], [A6 + 0x8]
00005D70  4EBA FD96                jsr        [PC - 0x26A /* 00005B08 */]
00005D74  2E1F                     move.l     D7, [A7]+
00005D76  4E5E                     unlink     A6
00005D78  2E9F                     move.l     [A7], [A7]+
00005D7A  4E75                     rts
fn00005D7C:
00005D7C  4E56 FFFC                link       A6, -0x0004
00005D80  48E7 0108                movem.l    -[A7], D7,A4
00005D84  286E 0008                movea.l    A4, [A6 + 0x8]
00005D88  396E 000C FEAA           move.w     [A4 - 0x156], [A6 + 0xC]
00005D8E  3D6D DEC4 FFFC           move.w     [A6 - 0x4], [A5 - 0x213C]
00005D94  7E01                     moveq.l    D7, 0x01
00005D96  603E                     bra        +0x40 /* 00005DD6 */
label00005D98:
00005D98  206D DEC0                movea.l    A0, [A5 - 0x2140]
00005D9C  2050                     movea.l    A0, [A0]
00005D9E  3007                     move.w     D0, D7
00005DA0  D040                     add.w      D0, D0
00005DA2  322E 000C                move.w     D1, [A6 + 0xC]
00005DA6  B270 00FE                cmp.w      D1, [A0 + D0.w - 0x2]
00005DAA  6626                     bne        +0x28 /* 00005DD2 */
00005DAC  426C FFBC                clr.w      [A4 - 0x44]
00005DB0  3007                     move.w     D0, D7
00005DB2  5340                     subq.w     D0, 1
00005DB4  3940 FFBA                move.w     [A4 - 0x46], D0
00005DB8  1F3C 0001                move.b     -[A7], 0x1
00005DBC  2F2C FFBA                move.l     -[A7], [A4 - 0x46]
00005DC0  2F2C FFD2                move.l     -[A7], [A4 - 0x2E]
00005DC4  4EAD 00CA                jsr        [A5 + 0xCA /* export_21, CODE:1 @ 00003D92 */]
00005DC8  2F2C FFD2                move.l     -[A7], [A4 - 0x2E]
00005DCC  4EAD 011A                jsr        [A5 + 0x11A /* export_31, CODE:1 @ 00003D6C */]
00005DD0  600A                     bra        +0xC /* 00005DDC */
label00005DD2:
00005DD2  5247                     addq.w     D7, 1
00005DD4  6906                     bvs        +0x8 /* 00005DDC */
label00005DD6:
00005DD6  BE6E FFFC                cmp.w      D7, [A6 - 0x4]
00005DDA  6FBC                     ble        -0x42 /* 00005D98 */
label00005DDC:
00005DDC  2F2E 0008                move.l     -[A7], [A6 + 0x8]
00005DE0  4EBA FF0C                jsr        [PC - 0xF4 /* 00005CEE */]
00005DE4  4CDF 1080                movem.l    D7,A4, [A7]+
00005DE8  4E5E                     unlink     A6
00005DEA  205F                     movea.l    A0, [A7]+
00005DEC  5C4F                     addq.w     A7, 6
00005DEE  4ED0                     jmp        [A0]
export_750:
00005DF0  4E56 FE74                link       A6, -0x018C
00005DF4  48E7 0F00                movem.l    -[A7], D4,D5,D6,D7
00005DF8  4EAD 22AA                jsr        [A5 + 0x22AA /* export_1105, CODE:20 @ 00005DAA */]
00005DFC  206E 0008                movea.l    A0, [A6 + 0x8]
00005E00  43EE FE94                lea.l      A1, [A6 - 0x16C]
00005E04  7006                     moveq.l    D0, 0x06
label00005E06:
00005E06  22D8                     move.l     [A1]+, [A0]+
00005E08  51C8 FFFC                dbf        D0, -0x6 /* 00005E06 */
00005E0C  3290                     move.w     [A1], [A0]
00005E0E  422E 000C                clr.b      [A6 + 0xC]
00005E12  426E FE80                clr.w      [A6 - 0x180]
00005E16  426E FE7E                clr.w      [A6 - 0x182]
00005E1A  4EAD 1862                jsr        [A5 + 0x1862 /* export_776, CODE:16 @ 00000474 */]
00005E1E  42A7                     clr.l      -[A7]
00005E20  3F3C 07D6                move.w     -[A7], 0x7D6
00005E24  42A7                     clr.l      -[A7]
00005E26  70FF                     moveq.l    D0, 0xFFFFFFFF
00005E28  2F00                     move.l     -[A7], D0
00005E2A  A97C                     syscall    GetNewDialog
00005E2C  2D5F FFFC                move.l     [A6 - 0x4], [A7]+
00005E30  2F2E FFFC                move.l     -[A7], [A6 - 0x4]
00005E34  4EAD 182A                jsr        [A5 + 0x182A /* export_769, CODE:16 @ 000002AC */]
00005E38  2F2E FFFC                move.l     -[A7], [A6 - 0x4]
00005E3C  A873                     syscall    SetPort
00005E3E  2F2E FFFC                move.l     -[A7], [A6 - 0x4]
00005E42  3F3C 0003                move.w     -[A7], 0x3
00005E46  486E FFFA                pea.l      [A6 - 0x6]
00005E4A  486E FFF6                pea.l      [A6 - 0xA]
00005E4E  486E FFE6                pea.l      [A6 - 0x1A]
00005E52  A98D                     syscall    GetDialogItem/GetDItem
00005E54  2F2E FFFC                move.l     -[A7], [A6 - 0x4]
00005E58  3F3C 0004                move.w     -[A7], 0x4
00005E5C  486E FFFA                pea.l      [A6 - 0x6]
00005E60  486E FFF6                pea.l      [A6 - 0xA]
00005E64  486E FFDE                pea.l      [A6 - 0x22]
00005E68  A98D                     syscall    GetDialogItem/GetDItem
00005E6A  2F2E FFFC                move.l     -[A7], [A6 - 0x4]
00005E6E  3F3C 0008                move.w     -[A7], 0x8
00005E72  486E FFFA                pea.l      [A6 - 0x6]
00005E76  486E FFF6                pea.l      [A6 - 0xA]
00005E7A  486E FFD6                pea.l      [A6 - 0x2A]
00005E7E  A98D                     syscall    GetDialogItem/GetDItem
00005E80  3D7C 0009 FFB8           move.w     [A6 - 0x48], 0x9 /* '\t' */
00005E86  603E                     bra        +0x40 /* 00005EC6 */
label00005E88:
00005E88  2F2E FFFC                move.l     -[A7], [A6 - 0x4]
00005E8C  3F2E FFB8                move.w     -[A7], [A6 - 0x48]
00005E90  486E FFFA                pea.l      [A6 - 0x6]
00005E94  486E FFF6                pea.l      [A6 - 0xA]
00005E98  486E FFEE                pea.l      [A6 - 0x12]
00005E9C  A98D                     syscall    GetDialogItem/GetDItem
00005E9E  4267                     clr.w      -[A7]
00005EA0  206E 0008                movea.l    A0, [A6 + 0x8]
00005EA4  4868 001A                pea.l      [A0 + 0x1A]
00005EA8  7010                     moveq.l    D0, 0x10
00005EAA  906E FFB8                sub.w      D0, [A6 - 0x48]
label00005EAE:
00005EAE  48C0                     ext.l      D0
00005EB0  2F00                     move.l     -[A7], D0
00005EB2  A85D                     syscall    BitTst
00005EB4  101F                     move.b     D0, [A7]+
00005EB6  4880                     ext.w      D0
00005EB8  3800                     move.w     D4, D0
00005EBA  2F2E FFF6                move.l     -[A7], [A6 - 0xA]
00005EBE  3F04                     move.w     -[A7], D4
00005EC0  A963                     syscall    SetControlValue/SetCtlValue
00005EC2  526E FFB8                addq.w     [A6 - 0x48], 1
label00005EC6:
00005EC6  700F                     moveq.l    D0, 0x0F
00005EC8  B06E FFB8                cmp.w      D0, [A6 - 0x48]
00005ECC  6CBA                     bge        -0x44 /* 00005E88 */
00005ECE  3D7C 0010 FFB8           move.w     [A6 - 0x48], 0x10
00005ED4  206E 0008                movea.l    A0, [A6 + 0x8]
00005ED8  7001                     moveq.l    D0, 0x01
00005EDA  B068 0014                cmp.w      D0, [A0 + 0x14]
00005EDE  6606                     bne        +0x8 /* 00005EE6 */
00005EE0  3D7C 0011 FFB8           move.w     [A6 - 0x48], 0x11
label00005EE6:
00005EE6  206E 0008                movea.l    A0, [A6 + 0x8]
00005EEA  70FF                     moveq.l    D0, 0xFFFFFFFF
00005EEC  B068 0014                cmp.w      D0, [A0 + 0x14]
00005EF0  6606                     bne        +0x8 /* 00005EF8 */
00005EF2  3D7C 0012 FFB8           move.w     [A6 - 0x48], 0x12
label00005EF8:
00005EF8  2F2E FFFC                move.l     -[A7], [A6 - 0x4]
00005EFC  3F2E FFB8                move.w     -[A7], [A6 - 0x48]
00005F00  486E FFFA                pea.l      [A6 - 0x6]
00005F04  486E FFF6                pea.l      [A6 - 0xA]
00005F08  486E FFEE                pea.l      [A6 - 0x12]
00005F0C  A98D                     syscall    GetDialogItem/GetDItem
00005F0E  2F2E FFF6                move.l     -[A7], [A6 - 0xA]
00005F12  3F3C 0001                move.w     -[A7], 0x1
00005F16  A963                     syscall    SetControlValue/SetCtlValue
00005F18  486E FFBE                pea.l      [A6 - 0x42]
00005F1C  42A7                     clr.l      -[A7]
00005F1E  3F3C 0001                move.w     -[A7], 0x1
00005F22  3F2D DEC4                move.w     -[A7], [A5 - 0x213C]
00005F26  A8A7                     syscall    SetRect
00005F28  302E FFE6                move.w     D0, [A6 - 0x1A]
00005F2C  5240                     addq.w     D0, 1
00005F2E  3D40 FFC6                move.w     [A6 - 0x3A], D0
00005F32  302E FFE8                move.w     D0, [A6 - 0x18]
00005F36  5240                     addq.w     D0, 1
00005F38  3D40 FFC8                move.w     [A6 - 0x38], D0
00005F3C  302E FFEA                move.w     D0, [A6 - 0x16]
00005F40  5340                     subq.w     D0, 1
00005F42  3D40 FFCA                move.w     [A6 - 0x36], D0
00005F46  302E FFEC                move.w     D0, [A6 - 0x14]
00005F4A  907C 0010                sub.w      D0, 0x10
00005F4E  3D40 FFCC                move.w     [A6 - 0x34], D0
00005F52  42A7                     clr.l      -[A7]
00005F54  486E FFC6                pea.l      [A6 - 0x3A]
00005F58  486E FFBE                pea.l      [A6 - 0x42]
00005F5C  2F2E FE7E                move.l     -[A7], [A6 - 0x182]
00005F60  4267                     clr.w      -[A7]
00005F62  2F2E FFFC                move.l     -[A7], [A6 - 0x4]
00005F66  42A7                     clr.l      -[A7]
00005F68  4267                     clr.w      -[A7]
00005F6A  1F3C 0001                move.b     -[A7], 0x1
00005F6E  4EAD 00E2                jsr        [A5 + 0xE2 /* export_24, CODE:1 @ 00003D86 */]
00005F72  2D5F FFD2                move.l     [A6 - 0x2E], [A7]+
00005F76  206E FFD2                movea.l    A0, [A6 - 0x2E]
00005F7A  2050                     movea.l    A0, [A0]
00005F7C  117C FF82 0024           move.b     [A0 + 0x24], 0x82
00005F82  3D6D DEC4 FE74           move.w     [A6 - 0x18C], [A5 - 0x213C]
00005F88  3D7C 0001 FFB8           move.w     [A6 - 0x48], 0x1
00005F8E  6040                     bra        +0x42 /* 00005FD0 */
label00005F90:
00005F90  2F2D DEC6                move.l     -[A7], [A5 - 0x213A]
00005F94  3F2E FFB8                move.w     -[A7], [A6 - 0x48]
00005F98  486E FEB8                pea.l      [A6 - 0x148]
00005F9C  A946                     syscall    GetMenuItemText/GetItem
00005F9E  426E FFBC                clr.w      [A6 - 0x44]
00005FA2  302E FFB8                move.w     D0, [A6 - 0x48]
00005FA6  5340                     subq.w     D0, 1
00005FA8  3D40 FFBA                move.w     [A6 - 0x46], D0
00005FAC  41EE FEB8                lea.l      A0, [A6 - 0x148]
00005FB0  2008                     move.l     D0, A0
00005FB2  5280                     addq.l     D0, 1
00005FB4  2F00                     move.l     -[A7], D0
00005FB6  4240                     clr.w      D0
00005FB8  102E FEB8                move.b     D0, [A6 - 0x148]
00005FBC  3F00                     move.w     -[A7], D0
00005FBE  2F2E FFBA                move.l     -[A7], [A6 - 0x46]
00005FC2  2F2E FFD2                move.l     -[A7], [A6 - 0x2E]
00005FC6  4EAD 00D2                jsr        [A5 + 0xD2 /* export_22, CODE:1 @ 00003D90 */]
00005FCA  526E FFB8                addq.w     [A6 - 0x48], 1
00005FCE  690A                     bvs        +0xC /* 00005FDA */
label00005FD0:
00005FD0  302E FFB8                move.w     D0, [A6 - 0x48]
00005FD4  B06E FE74                cmp.w      D0, [A6 - 0x18C]
00005FD8  6FB6                     ble        -0x48 /* 00005F90 */
label00005FDA:
00005FDA  486E FFBE                pea.l      [A6 - 0x42]
00005FDE  42A7                     clr.l      -[A7]
00005FE0  2F3C 0000 0001           move.l     -[A7], 0x1
00005FE6  A8A7                     syscall    SetRect
00005FE8  302E FFDE                move.w     D0, [A6 - 0x22]
00005FEC  5240                     addq.w     D0, 1
00005FEE  3D40 FFC6                move.w     [A6 - 0x3A], D0
00005FF2  302E FFE0                move.w     D0, [A6 - 0x20]
00005FF6  5240                     addq.w     D0, 1
00005FF8  3D40 FFC8                move.w     [A6 - 0x38], D0
00005FFC  302E FFE2                move.w     D0, [A6 - 0x1E]
00006000  5340                     subq.w     D0, 1
00006002  3D40 FFCA                move.w     [A6 - 0x36], D0
00006006  302E FFE4                move.w     D0, [A6 - 0x1C]
0000600A  907C 0010                sub.w      D0, 0x10
0000600E  3D40 FFCC                move.w     [A6 - 0x34], D0
00006012  42A7                     clr.l      -[A7]
00006014  486E FFC6                pea.l      [A6 - 0x3A]
00006018  486E FFBE                pea.l      [A6 - 0x42]
0000601C  2F2E FE7E                move.l     -[A7], [A6 - 0x182]
00006020  4267                     clr.w      -[A7]
00006022  2F2E FFFC                move.l     -[A7], [A6 - 0x4]
00006026  42A7                     clr.l      -[A7]
00006028  4267                     clr.w      -[A7]
0000602A  1F3C 0001                move.b     -[A7], 0x1
0000602E  4EAD 00E2                jsr        [A5 + 0xE2 /* export_24, CODE:1 @ 00003D86 */]
00006032  2D5F FFCE                move.l     [A6 - 0x32], [A7]+
00006036  206E FFCE                movea.l    A0, [A6 - 0x32]
0000603A  2050                     movea.l    A0, [A0]
0000603C  117C FF82 0024           move.b     [A0 + 0x24], 0x82
00006042  1D7C 0001 FE7B           move.b     [A6 - 0x185], 0x1
00006048  3F2E FEAA                move.w     -[A7], [A6 - 0x156]
0000604C  2F0E                     move.l     -[A7], A6
0000604E  4EBA FD2C                jsr        [PC - 0x2D4 /* 00005D7C */]
00006052  422E FE7B                clr.b      [A6 - 0x185]
00006056  2F2E FFFC                move.l     -[A7], [A6 - 0x4]
0000605A  A915                     syscall    ShowWindow
0000605C  486E FFE6                pea.l      [A6 - 0x1A]
00006060  A8A1                     syscall    FrameRect
00006062  486E FFDE                pea.l      [A6 - 0x22]
00006066  A8A1                     syscall    FrameRect
00006068  486E FFD6                pea.l      [A6 - 0x2A]
0000606C  A8A1                     syscall    FrameRect
0000606E  486E FFD6                pea.l      [A6 - 0x2A]
00006072  2F3C 0001 0001           move.l     -[A7], 0x10001
00006078  A8A9                     syscall    InsetRect
0000607A  1F3C 0001                move.b     -[A7], 0x1
0000607E  2F2E FFD2                move.l     -[A7], [A6 - 0x2E]
00006082  4EAD 00FA                jsr        [A5 + 0xFA /* export_27, CODE:1 @ 00003D7A */]
00006086  1F3C 0001                move.b     -[A7], 0x1
0000608A  2F2E FFCE                move.l     -[A7], [A6 - 0x32]
0000608E  4EAD 00FA                jsr        [A5 + 0xFA /* export_27, CODE:1 @ 00003D7A */]
00006092  206E FFFC                movea.l    A0, [A6 - 0x4]
00006096  2F28 0018                move.l     -[A7], [A0 + 0x18]
0000609A  2F2E FFD2                move.l     -[A7], [A6 - 0x2E]
0000609E  4EAD 00C2                jsr        [A5 + 0xC2 /* export_20, CODE:1 @ 00003D96 */]
000060A2  206E FFFC                movea.l    A0, [A6 - 0x4]
000060A6  2F28 0018                move.l     -[A7], [A0 + 0x18]
000060AA  2F2E FFCE                move.l     -[A7], [A6 - 0x32]
000060AE  4EAD 00C2                jsr        [A5 + 0xC2 /* export_20, CODE:1 @ 00003D96 */]
000060B2  2F0E                     move.l     -[A7], A6
000060B4  4EBA F9D8                jsr        [PC - 0x628 /* 00005A8E */]
000060B8  2F2E FFFC                move.l     -[A7], [A6 - 0x4]
000060BC  A981                     syscall    DrawDialog
000060BE  2F2E FFFC                move.l     -[A7], [A6 - 0x4]
000060C2  4EAD 186A                jsr        [A5 + 0x186A /* export_777, CODE:16 @ 00000490 */]
000060C6  206E FFFC                movea.l    A0, [A6 - 0x4]
000060CA  4868 0010                pea.l      [A0 + 0x10]
000060CE  A92A                     syscall    ValidRect
000060D0  102D F4CD                move.b     D0, [A5 - 0xB33]
000060D4  0A00 0001                xori.b     D0, 0x1
label000060D8:
000060D8  802D F015                or.b       D0, [A5 - 0xFEB]
000060DC  1D40 FE77                move.b     [A6 - 0x189], D0
label000060E0:
000060E0  42A7                     clr.l      -[A7]
000060E2  486E FFB8                pea.l      [A6 - 0x48]
000060E6  A991                     syscall    ModalDialog
000060E8  486E FEB4                pea.l      [A6 - 0x14C]
000060EC  A972                     syscall    GetMouse
000060EE  2F2E FFFC                move.l     -[A7], [A6 - 0x4]
000060F2  3F2E FFB8                move.w     -[A7], [A6 - 0x48]
000060F6  486E FFFA                pea.l      [A6 - 0x6]
000060FA  486E FFF6                pea.l      [A6 - 0xA]
000060FE  486E FFEE                pea.l      [A6 - 0x12]
00006102  A98D                     syscall    GetDialogItem/GetDItem
00006104  2D6E FFF6 FE8E           move.l     [A6 - 0x172], [A6 - 0xA]
0000610A  7001                     moveq.l    D0, 0x01
0000610C  B06E FFB8                cmp.w      D0, [A6 - 0x48]
00006110  6600 008A                bne        +0x8C /* 0000619C */
label00006114:
00006114  3D7C 0001 FFB8           move.w     [A6 - 0x48], 0x1
0000611A  2F2E FFFC                move.l     -[A7], [A6 - 0x4]
0000611E  3F3C 0006                move.w     -[A7], 0x6
00006122  486E FFFA                pea.l      [A6 - 0x6]
00006126  486E FFF6                pea.l      [A6 - 0xA]
0000612A  486E FFEE                pea.l      [A6 - 0x12]
0000612E  A98D                     syscall    GetDialogItem/GetDItem
00006130  2F2E FFF6                move.l     -[A7], [A6 - 0xA]
00006134  486E FEB8                pea.l      [A6 - 0x148]
00006138  A990                     syscall    GetDialogItemText/GetIText
0000613A  4267                     clr.w      -[A7]
0000613C  42A7                     clr.l      -[A7]
0000613E  486E FEB8                pea.l      [A6 - 0x148]
00006142  4EAD 194A                jsr        [A5 + 0x194A /* export_805, CODE:16 @ 00000CB2 */]
00006146  201F                     move.l     D0, [A7]+
00006148  3F00                     move.w     -[A7], D0
0000614A  3F2E FEAC                move.w     -[A7], [A6 - 0x154]
0000614E  4EAD 18BA                jsr        [A5 + 0x18BA /* export_787, CODE:16 @ 000007C6 */]
00006152  3D5F FE78                move.w     [A6 - 0x188], [A7]+
00006156  4A6E FE78                tst.w      [A6 - 0x188]
0000615A  6F06                     ble        +0x8 /* 00006162 */
0000615C  3D6E FE78 FEB0           move.w     [A6 - 0x150], [A6 - 0x188]
label00006162:
00006162  4267                     clr.w      -[A7]
00006164  2F2E 0008                move.l     -[A7], [A6 + 0x8]
00006168  486E FE94                pea.l      [A6 - 0x16C]
0000616C  3F3C 001E                move.w     -[A7], 0x1E
00006170  4EAD 19FA                jsr        [A5 + 0x19FA /* export_827, CODE:16 @ 00001412 */]
00006174  101F                     move.b     D0, [A7]+
00006176  6624                     bne        +0x26 /* 0000619C */
00006178  102E FE77                move.b     D0, [A6 - 0x189]
0000617C  671A                     beq        +0x1C /* 00006198 */
0000617E  206E 0008                movea.l    A0, [A6 + 0x8]
00006182  43EE FE94                lea.l      A1, [A6 - 0x16C]
00006186  7006                     moveq.l    D0, 0x06
label00006188:
00006188  20D9                     move.l     [A0]+, [A1]+
0000618A  51C8 FFFC                dbf        D0, -0x6 /* 00006188 */
0000618E  3091                     move.w     [A0], [A1]
00006190  1D7C 0001 000C           move.b     [A6 + 0xC], 0x1
00006196  6004                     bra        +0x6 /* 0000619C */
label00006198:
00006198  4EAD 1812                jsr        [A5 + 0x1812 /* export_766, CODE:16 @ 00000208 */]
label0000619C:
0000619C  102E FE77                move.b     D0, [A6 - 0x189]
000061A0  6604                     bne        +0x6 /* 000061A6 */
000061A2  6000 0210                bra        +0x212 /* 000063B4 */
label000061A6:
000061A6  7003                     moveq.l    D0, 0x03
000061A8  B06E FFB8                cmp.w      D0, [A6 - 0x48]
000061AC  665C                     bne        +0x5E /* 0000620A */
000061AE  4267                     clr.w      -[A7]
000061B0  2F2E FEB4                move.l     -[A7], [A6 - 0x14C]
000061B4  4267                     clr.w      -[A7]
000061B6  2F2E FFD2                move.l     -[A7], [A6 - 0x2E]
000061BA  4EAD 0112                jsr        [A5 + 0x112 /* export_30, CODE:1 @ 00003D70 */]
000061BE  1C1F                     move.b     D6, [A7]+
000061C0  2D6E FE7E FFBA           move.l     [A6 - 0x46], [A6 - 0x182]
000061C6  4267                     clr.w      -[A7]
000061C8  1F3C 0001                move.b     -[A7], 0x1
000061CC  486E FFBA                pea.l      [A6 - 0x46]
000061D0  2F2E FFD2                move.l     -[A7], [A6 - 0x2E]
000061D4  4EAD 00EA                jsr        [A5 + 0xEA /* export_25, CODE:1 @ 00003D82 */]
000061D8  101F                     move.b     D0, [A7]+
000061DA  6728                     beq        +0x2A /* 00006204 */
000061DC  206D DEC0                movea.l    A0, [A5 - 0x2140]
000061E0  2050                     movea.l    A0, [A0]
000061E2  302E FFBA                move.w     D0, [A6 - 0x46]
000061E6  5240                     addq.w     D0, 1
000061E8  D040                     add.w      D0, D0
000061EA  3D70 00FE FE7C           move.w     [A6 - 0x184], [A0 + D0.w - 0x2]
000061F0  302E FE7C                move.w     D0, [A6 - 0x184]
000061F4  B06E FEAA                cmp.w      D0, [A6 - 0x156]
000061F8  670A                     beq        +0xC /* 00006204 */
000061FA  3F2E FE7C                move.w     -[A7], [A6 - 0x184]
000061FE  2F0E                     move.l     -[A7], A6
00006200  4EBA FB7A                jsr        [PC - 0x486 /* 00005D7C */]
label00006204:
00006204  1006                     move.b     D0, D6
00006206  6600 FF0C                bne        -0xF2 /* 00006114 */
label0000620A:
0000620A  7004                     moveq.l    D0, 0x04
0000620C  B06E FFB8                cmp.w      D0, [A6 - 0x48]
00006210  6674                     bne        +0x76 /* 00006286 */
00006212  4267                     clr.w      -[A7]
00006214  2F2E FEB4                move.l     -[A7], [A6 - 0x14C]
00006218  4267                     clr.w      -[A7]
0000621A  2F2E FFCE                move.l     -[A7], [A6 - 0x32]
0000621E  4EAD 0112                jsr        [A5 + 0x112 /* export_30, CODE:1 @ 00003D70 */]
00006222  1C1F                     move.b     D6, [A7]+
00006224  2D6E FE7E FFBA           move.l     [A6 - 0x46], [A6 - 0x182]
0000622A  4267                     clr.w      -[A7]
0000622C  1F3C 0001                move.b     -[A7], 0x1
00006230  486E FFBA                pea.l      [A6 - 0x46]
00006234  2F2E FFCE                move.l     -[A7], [A6 - 0x32]
00006238  4EAD 00EA                jsr        [A5 + 0xEA /* export_25, CODE:1 @ 00003D82 */]
0000623C  101F                     move.b     D0, [A7]+
0000623E  6740                     beq        +0x42 /* 00006280 */
00006240  3D7C 00FE FE82           move.w     [A6 - 0x17E], 0xFE
00006246  41EE FEB8                lea.l      A0, [A6 - 0x148]
0000624A  2008                     move.l     D0, A0
0000624C  5280                     addq.l     D0, 1
0000624E  2F00                     move.l     -[A7], D0
00006250  486E FE82                pea.l      [A6 - 0x17E]
00006254  2F2E FFBA                move.l     -[A7], [A6 - 0x46]
00006258  2F2E FFCE                move.l     -[A7], [A6 - 0x32]
0000625C  4EAD 00F2                jsr        [A5 + 0xF2 /* export_26, CODE:1 @ 00003D80 */]
00006260  1D6E FE83 FEB8           move.b     [A6 - 0x148], [A6 - 0x17D]
00006266  42A7                     clr.l      -[A7]
00006268  486E FEB8                pea.l      [A6 - 0x148]
0000626C  4EAD 194A                jsr        [A5 + 0x194A /* export_805, CODE:16 @ 00000CB2 */]
00006270  201F                     move.l     D0, [A7]+
00006272  3F00                     move.w     -[A7], D0
00006274  4267                     clr.w      -[A7]
00006276  1F3C 0001                move.b     -[A7], 0x1
0000627A  2F0E                     move.l     -[A7], A6
0000627C  4EBA F88A                jsr        [PC - 0x776 /* 00005B08 */]
label00006280:
00006280  1006                     move.b     D0, D6
00006282  6600 FE90                bne        -0x16E /* 00006114 */
label00006286:
00006286  7005                     moveq.l    D0, 0x05
00006288  B06E FFB8                cmp.w      D0, [A6 - 0x48]
0000628C  6624                     bne        +0x26 /* 000062B2 */
0000628E  2F2E FFF6                move.l     -[A7], [A6 - 0xA]
00006292  486E FEB8                pea.l      [A6 - 0x148]
00006296  A990                     syscall    GetDialogItemText/GetIText
00006298  42A7                     clr.l      -[A7]
0000629A  486E FEB8                pea.l      [A6 - 0x148]
0000629E  4EAD 194A                jsr        [A5 + 0x194A /* export_805, CODE:16 @ 00000CB2 */]
000062A2  201F                     move.l     D0, [A7]+
000062A4  3F00                     move.w     -[A7], D0
000062A6  1F3C 0001                move.b     -[A7], 0x1
000062AA  4267                     clr.w      -[A7]
000062AC  2F0E                     move.l     -[A7], A6
000062AE  4EBA F858                jsr        [PC - 0x7A8 /* 00005B08 */]
label000062B2:
000062B2  7009                     moveq.l    D0, 0x09
000062B4  B06E FFB8                cmp.w      D0, [A6 - 0x48]
000062B8  5FC0                     sle        D0
000062BA  720F                     moveq.l    D1, 0x0F
000062BC  B26E FFB8                cmp.w      D1, [A6 - 0x48]
000062C0  5CC1                     sge        D1
000062C2  C001                     and.b      D0, D1
000062C4  674C                     beq        +0x4E /* 00006312 */
000062C6  3A3C 0010                move.w     D5, 0x10
000062CA  9A6E FFB8                sub.w      D5, [A6 - 0x48]
000062CE  4267                     clr.w      -[A7]
000062D0  486E FEAE                pea.l      [A6 - 0x152]
000062D4  3005                     move.w     D0, D5
000062D6  48C0                     ext.l      D0
000062D8  2F00                     move.l     -[A7], D0
000062DA  A85D                     syscall    BitTst
000062DC  101F                     move.b     D0, [A7]+
000062DE  6716                     beq        +0x18 /* 000062F6 */
000062E0  486E FEAE                pea.l      [A6 - 0x152]
000062E4  3005                     move.w     D0, D5
000062E6  48C0                     ext.l      D0
000062E8  2F00                     move.l     -[A7], D0
000062EA  A85F                     syscall    BitClr
000062EC  2F2E FE8E                move.l     -[A7], [A6 - 0x172]
000062F0  4267                     clr.w      -[A7]
000062F2  A963                     syscall    SetControlValue/SetCtlValue
000062F4  6016                     bra        +0x18 /* 0000630C */
label000062F6:
000062F6  486E FEAE                pea.l      [A6 - 0x152]
000062FA  3005                     move.w     D0, D5
000062FC  48C0                     ext.l      D0
000062FE  2F00                     move.l     -[A7], D0
00006300  A85E                     syscall    BitSet
00006302  2F2E FE8E                move.l     -[A7], [A6 - 0x172]
00006306  3F3C 0001                move.w     -[A7], 0x1
0000630A  A963                     syscall    SetControlValue/SetCtlValue
label0000630C:
0000630C  2F0E                     move.l     -[A7], A6
0000630E  4EBA F77E                jsr        [PC - 0x882 /* 00005A8E */]
label00006312:
00006312  7010                     moveq.l    D0, 0x10
00006314  B06E FFB8                cmp.w      D0, [A6 - 0x48]
00006318  5FC0                     sle        D0
0000631A  7212                     moveq.l    D1, 0x12
0000631C  B26E FFB8                cmp.w      D1, [A6 - 0x48]
00006320  5CC1                     sge        D1
00006322  C001                     and.b      D0, D1
00006324  6754                     beq        +0x56 /* 0000637A */
00006326  7E10                     moveq.l    D7, 0x10
00006328  602A                     bra        +0x2C /* 00006354 */
label0000632A:
0000632A  2F2E FFFC                move.l     -[A7], [A6 - 0x4]
0000632E  3F07                     move.w     -[A7], D7
00006330  486E FFFA                pea.l      [A6 - 0x6]
00006334  486E FFF6                pea.l      [A6 - 0xA]
00006338  486E FFEE                pea.l      [A6 - 0x12]
0000633C  A98D                     syscall    GetDialogItem/GetDItem
0000633E  BE6E FFB8                cmp.w      D7, [A6 - 0x48]
00006342  57C0                     seq        D0
00006344  4400                     neg.b      D0
00006346  4880                     ext.w      D0
00006348  3800                     move.w     D4, D0
0000634A  2F2E FFF6                move.l     -[A7], [A6 - 0xA]
0000634E  3F04                     move.w     -[A7], D4
00006350  A963                     syscall    SetControlValue/SetCtlValue
00006352  5247                     addq.w     D7, 1
label00006354:
00006354  7012                     moveq.l    D0, 0x12
00006356  B047                     cmp.w      D0, D7
00006358  6CD0                     bge        -0x2E /* 0000632A */
0000635A  426E FEA8                clr.w      [A6 - 0x158]
0000635E  7011                     moveq.l    D0, 0x11
00006360  B06E FFB8                cmp.w      D0, [A6 - 0x48]
00006364  6606                     bne        +0x8 /* 0000636C */
00006366  3D7C 0001 FEA8           move.w     [A6 - 0x158], 0x1
label0000636C:
0000636C  7012                     moveq.l    D0, 0x12
0000636E  B06E FFB8                cmp.w      D0, [A6 - 0x48]
00006372  6606                     bne        +0x8 /* 0000637A */
00006374  3D7C FFFF FEA8           move.w     [A6 - 0x158], 0xFFFF
label0000637A:
0000637A  7013                     moveq.l    D0, 0x13
0000637C  B06E FFB8                cmp.w      D0, [A6 - 0x48]
00006380  6632                     bne        +0x34 /* 000063B4 */
00006382  422E FEAE                clr.b      [A6 - 0x152]
00006386  7E09                     moveq.l    D7, 0x09
00006388  601E                     bra        +0x20 /* 000063A8 */
label0000638A:
0000638A  2F2E FFFC                move.l     -[A7], [A6 - 0x4]
0000638E  3F07                     move.w     -[A7], D7
00006390  486E FFFA                pea.l      [A6 - 0x6]
00006394  486E FFF6                pea.l      [A6 - 0xA]
00006398  486E FFEE                pea.l      [A6 - 0x12]
0000639C  A98D                     syscall    GetDialogItem/GetDItem
0000639E  2F2E FFF6                move.l     -[A7], [A6 - 0xA]
000063A2  4267                     clr.w      -[A7]
000063A4  A963                     syscall    SetControlValue/SetCtlValue
000063A6  5247                     addq.w     D7, 1
label000063A8:
000063A8  700F                     moveq.l    D0, 0x0F
000063AA  B047                     cmp.w      D0, D7
000063AC  6CDC                     bge        -0x22 /* 0000638A */
000063AE  2F0E                     move.l     -[A7], A6
000063B0  4EBA F6DC                jsr        [PC - 0x924 /* 00005A8E */]
label000063B4:
000063B4  7001                     moveq.l    D0, 0x01
000063B6  B06E FFB8                cmp.w      D0, [A6 - 0x48]
000063BA  57C0                     seq        D0
000063BC  7202                     moveq.l    D1, 0x02
000063BE  B26E FFB8                cmp.w      D1, [A6 - 0x48]
000063C2  57C1                     seq        D1
000063C4  8001                     or.b       D0, D1
000063C6  6700 FD18                beq        -0x2E6 /* 000060E0 */
000063CA  2F2E FFD2                move.l     -[A7], [A6 - 0x2E]
000063CE  4EAD 0102                jsr        [A5 + 0x102 /* export_28, CODE:1 @ 00003D78 */]
000063D2  2F2E FFCE                move.l     -[A7], [A6 - 0x32]
000063D6  4EAD 0102                jsr        [A5 + 0x102 /* export_28, CODE:1 @ 00003D78 */]
000063DA  2F2E FFFC                move.l     -[A7], [A6 - 0x4]
000063DE  4EAD 201A                jsr        [A5 + 0x201A /* export_1023, CODE:20 @ 000002FA */]
000063E2  4CDF 00F0                movem.l    D4,D5,D6,D7, [A7]+
000063E6  4E5E                     unlink     A6
000063E8  2E9F                     move.l     [A7], [A7]+
000063EA  4E75                     rts
export_751:
fn000063EC:
000063EC  4E56 0000                link       A6, 0
000063F0  2F0C                     move.l     -[A7], A4
000063F2  286E 0008                movea.l    A4, [A6 + 0x8]
000063F6  4AAD F626                tst.l      [A5 - 0x9DA]
000063FA  660A                     bne        +0xC /* 00006406 */
000063FC  4214                     clr.b      [A4]
000063FE  296D F62A 0002           move.l     [A4 + 0x2], [A5 - 0x9D6]
00006404  600A                     bra        +0xC /* 00006410 */
label00006406:
00006406  18BC 0001                move.b     [A4], 0x1
0000640A  296D F626 0006           move.l     [A4 + 0x6], [A5 - 0x9DA]
label00006410:
00006410  197C 0005 002C           move.b     [A4 + 0x2C], 0x5
00006416  296D F4E0 0058           move.l     [A4 + 0x58], [A5 - 0xB20]
0000641C  285F                     movea.l    A4, [A7]+
0000641E  4E5E                     unlink     A6
00006420  2E9F                     move.l     [A7], [A7]+
00006422  4E75                     rts
export_752:
00006424  4E56 FEFE                link       A6, -0x0102
00006428  48E7 0120                movem.l    -[A7], D7,A2
0000642C  206D EDAC                movea.l    A0, [A5 - 0x1254]
00006430  2050                     movea.l    A0, [A0]
00006432  3E28 003C                move.w     D7, [A0 + 0x3C]
00006436  0C47 00FE                cmpi.w     D7, 0xFE
0000643A  6F04                     ble        +0x6 /* 00006440 */
0000643C  3E3C 00FE                move.w     D7, 0xFE
label00006440:
00006440  206D EDAC                movea.l    A0, [A5 - 0x1254]
00006444  2050                     movea.l    A0, [A0]
00006446  2068 003E                movea.l    A0, [A0 + 0x3E]
0000644A  2F10                     move.l     -[A7], [A0]
0000644C  41EE FF00                lea.l      A0, [A6 - 0x100]
00006450  2008                     move.l     D0, A0
00006452  5280                     addq.l     D0, 1
00006454  2F00                     move.l     -[A7], D0
00006456  3007                     move.w     D0, D7
00006458  48C0                     ext.l      D0
0000645A  2F00                     move.l     -[A7], D0
0000645C  4EAD 19B2                jsr        [A5 + 0x19B2 /* export_818, CODE:16 @ 000010BE */]
00006460  4240                     clr.w      D0
00006462  41EE FF00                lea.l      A0, [A6 - 0x100]
00006466  1030 7000                move.b     D0, [A0 + D7.w]
0000646A  720D                     moveq.l    D1, 0x0D
0000646C  B240                     cmp.w      D1, D0
0000646E  6602                     bne        +0x4 /* 00006472 */
00006470  5347                     subq.w     D7, 1
label00006472:
00006472  1D47 FF00                move.b     [A6 - 0x100], D7
00006476  3007                     move.w     D0, D7
00006478  5240                     addq.w     D0, 1
0000647A  41EE FF00                lea.l      A0, [A6 - 0x100]
0000647E  4230 0000                clr.b      [A0 + D0.w]
00006482  226E 0008                movea.l    A1, [A6 + 0x8]
00006486  45EE FF00                lea.l      A2, [A6 - 0x100]
0000648A  703F                     moveq.l    D0, 0x3F
label0000648C:
0000648C  22DA                     move.l     [A1]+, [A2]+
0000648E  51C8 FFFC                dbf        D0, -0x6 /* 0000648C */
00006492  4CDF 0480                movem.l    D7,A2, [A7]+
00006496  4E5E                     unlink     A6
00006498  4E75                     rts
export_753:
0000649A  4E56 FFFE                link       A6, -0x0002
0000649E  48E7 0300                movem.l    -[A7], D6,D7
000064A2  3C2E 0008                move.w     D6, [A6 + 0x8]
000064A6  3E06                     move.w     D7, D6
000064A8  6010                     bra        +0x12 /* 000064BA */
label000064AA:
000064AA  4267                     clr.w      -[A7]
000064AC  3F2E 000A                move.w     -[A7], [A6 + 0xA]
000064B0  3F07                     move.w     -[A7], D7
000064B2  A902                     syscall    RealFont
000064B4  101F                     move.b     D0, [A7]+
000064B6  6628                     bne        +0x2A /* 000064E0 */
000064B8  5347                     subq.w     D7, 1
label000064BA:
000064BA  7001                     moveq.l    D0, 0x01
000064BC  B047                     cmp.w      D0, D7
000064BE  6FEA                     ble        -0x14 /* 000064AA */
000064C0  3006                     move.w     D0, D6
000064C2  5240                     addq.w     D0, 1
000064C4  3E00                     move.w     D7, D0
000064C6  6010                     bra        +0x12 /* 000064D8 */
label000064C8:
000064C8  4267                     clr.w      -[A7]
000064CA  3F2E 000A                move.w     -[A7], [A6 + 0xA]
000064CE  3F07                     move.w     -[A7], D7
000064D0  A902                     syscall    RealFont
000064D2  101F                     move.b     D0, [A7]+
000064D4  660A                     bne        +0xC /* 000064E0 */
000064D6  5247                     addq.w     D7, 1
label000064D8:
000064D8  7030                     moveq.l    D0, 0x30
000064DA  B047                     cmp.w      D0, D7
000064DC  6CEA                     bge        -0x14 /* 000064C8 */
000064DE  3E06                     move.w     D7, D6
label000064E0:
000064E0  3D47 000C                move.w     [A6 + 0xC], D7
000064E4  4CDF 00C0                movem.l    D6,D7, [A7]+
000064E8  4E5E                     unlink     A6
000064EA  2E9F                     move.l     [A7], [A7]+
000064EC  4E75                     rts
export_754:
000064EE  4E56 0000                link       A6, 0
000064F2  4A6D E222                tst.w      [A5 - 0x1DDE]
000064F6  56C0                     sne        D0
000064F8  4A6D FD8A                tst.w      [A5 - 0x276]
000064FC  57C1                     seq        D1
000064FE  C001                     and.b      D0, D1
00006500  672E                     beq        +0x30 /* 00006530 */
00006502  7001                     moveq.l    D0, 0x01
00006504  B06D EFDA                cmp.w      D0, [A5 - 0x1026]
00006508  6612                     bne        +0x14 /* 0000651C */
0000650A  486D E212                pea.l      [A5 - 0x1DEE]
0000650E  486D E2F2                pea.l      [A5 - 0x1D0E]
00006512  4EAD 1CEA                jsr        [A5 + 0x1CEA /* export_921, CODE:17 @ 00001DBA */]
00006516  4EAD 134A                jsr        [A5 + 0x134A /* export_613, CODE:12 @ 00000F88 */]
0000651A  6014                     bra        +0x16 /* 00006530 */
label0000651C:
0000651C  486D E2F2                pea.l      [A5 - 0x1D0E]
00006520  4EBA DB0C                jsr        [PC - 0x24F4 /* 0000402E */]
00006524  2F2D ECE4                move.l     -[A7], [A5 - 0x131C]
00006528  486D E212                pea.l      [A5 - 0x1DEE]
0000652C  4EBA A1D0                jsr        [PC - 0x5E30 /* 000006FE */]
label00006530:
00006530  4EAD 202A                jsr        [A5 + 0x202A /* export_1025, CODE:20 @ 0000033A */]
00006534  4E5E                     unlink     A6
00006536  4E75                     rts
export_755:
00006538  4E56 FFDC                link       A6, -0x0024
0000653C  48E7 0F18                movem.l    -[A7], D4,D5,D6,D7,A3,A4
00006540  102D E0E7                move.b     D0, [A5 - 0x1F19]
00006544  6604                     bne        +0x6 /* 0000654A */
00006546  6000 00D2                bra        +0xD4 /* 0000661A */
label0000654A:
0000654A  422D E0E7                clr.b      [A5 - 0x1F19]
0000654E  2A3C 0000 0BAA           move.l     D5, 0xBAA
00006554  2045                     movea.l    A0, D5
00006556  3B50 E0E4                move.w     [A5 - 0x1F1C], [A0]
0000655A  2045                     movea.l    A0, D5
0000655C  4250                     clr.w      [A0]
0000655E  42A7                     clr.l      -[A7]
00006560  A8D8                     syscall    NewRgn
00006562  265F                     movea.l    A3, [A7]+
00006564  2F0B                     move.l     -[A7], A3
00006566  486D FE34                pea.l      [A5 - 0x1CC]
0000656A  A8DF                     syscall    RectRgn
0000656C  283C 0000 09EE           move.l     D4, 0x9EE
00006572  2044                     movea.l    A0, D4
00006574  2B50 E0E0                move.l     [A5 - 0x1F20], [A0]
00006578  42A7                     clr.l      -[A7]
0000657A  A8D8                     syscall    NewRgn
0000657C  2C1F                     move.l     D6, [A7]+
0000657E  2F0B                     move.l     -[A7], A3
00006580  2F2D E0E0                move.l     -[A7], [A5 - 0x1F20]
00006584  2F06                     move.l     -[A7], D6
00006586  A8E5                     syscall    UnionRgn
00006588  2044                     movea.l    A0, D4
0000658A  2086                     move.l     [A0], D6
0000658C  42A7                     clr.l      -[A7]
0000658E  A8D8                     syscall    NewRgn
00006590  285F                     movea.l    A4, [A7]+
00006592  2F0C                     move.l     -[A7], A4
00006594  486D FE34                pea.l      [A5 - 0x1CC]
00006598  A8DF                     syscall    RectRgn
0000659A  42A7                     clr.l      -[A7]
0000659C  2F0C                     move.l     -[A7], A4
0000659E  A90C                     syscall    PaintOne
000065A0  486E FFF8                pea.l      [A6 - 0x8]
000065A4  A910                     syscall    GetWMgrPort
000065A6  2F2E FFF8                move.l     -[A7], [A6 - 0x8]
000065AA  A873                     syscall    SetPort
000065AC  486D FE34                pea.l      [A5 - 0x1CC]
000065B0  A87B                     syscall    ClipRect
000065B2  41EE FFEC                lea.l      A0, [A6 - 0x14]
000065B6  43ED FE34                lea.l      A1, [A5 - 0x1CC]
000065BA  20D9                     move.l     [A0]+, [A1]+
000065BC  20D9                     move.l     [A0]+, [A1]+
000065BE  302D E0E4                move.w     D0, [A5 - 0x1F1C]
000065C2  D06E FFEC                add.w      D0, [A6 - 0x14]
000065C6  3D40 FFF0                move.w     [A6 - 0x10], D0
000065CA  2F0C                     move.l     -[A7], A4
000065CC  486E FFEC                pea.l      [A6 - 0x14]
000065D0  A8DF                     syscall    RectRgn
000065D2  42A7                     clr.l      -[A7]
000065D4  A8D8                     syscall    NewRgn
000065D6  2E1F                     move.l     D7, [A7]+
000065D8  2F0B                     move.l     -[A7], A3
000065DA  2F2D E0E0                move.l     -[A7], [A5 - 0x1F20]
000065DE  2F07                     move.l     -[A7], D7
000065E0  A8E6                     syscall    DiffRgn
000065E2  2F0C                     move.l     -[A7], A4
000065E4  2F07                     move.l     -[A7], D7
000065E6  2F0C                     move.l     -[A7], A4
000065E8  A8E5                     syscall    UnionRgn
000065EA  42A7                     clr.l      -[A7]
000065EC  A924                     syscall    FrontWindow
000065EE  2F0C                     move.l     -[A7], A4
000065F0  A90C                     syscall    PaintOne
000065F2  42A7                     clr.l      -[A7]
000065F4  A924                     syscall    FrontWindow
000065F6  2F0C                     move.l     -[A7], A4
000065F8  A90D                     syscall    PaintBehind
000065FA  42A7                     clr.l      -[A7]
000065FC  A924                     syscall    FrontWindow
000065FE  A909                     syscall    CalcVis
00006600  42A7                     clr.l      -[A7]
00006602  A924                     syscall    FrontWindow
00006604  2F0C                     move.l     -[A7], A4
00006606  A90A                     syscall    CalcVBehind
00006608  2F0C                     move.l     -[A7], A4
0000660A  A8D9                     syscall    DisposRgn/DisposeRgn
0000660C  2F0B                     move.l     -[A7], A3
0000660E  A8D9                     syscall    DisposRgn/DisposeRgn
00006610  2F07                     move.l     -[A7], D7
00006612  A8D9                     syscall    DisposRgn/DisposeRgn
00006614  2F2D EDC8                move.l     -[A7], [A5 - 0x1238]
00006618  A873                     syscall    SetPort
label0000661A:
0000661A  4CDF 18F0                movem.l    D4,D5,D6,D7,A3,A4, [A7]+
0000661E  4E5E                     unlink     A6
00006620  4E75                     rts
export_756:
00006622  4E56 FFB4                link       A6, -0x004C
00006626  48E7 0F18                movem.l    -[A7], D4,D5,D6,D7,A3,A4
0000662A  486E FFEA                pea.l      [A6 - 0x16]
0000662E  A874                     syscall    GetPort
00006630  102D E225                move.b     D0, [A5 - 0x1DDB]
00006634  6600 031C                bne        +0x31E /* 00006952 */
00006638  302D E21A                move.w     D0, [A5 - 0x1DE6]
0000663C  B06D E21C                cmp.w      D0, [A5 - 0x1DE4]
00006640  6F00 0310                ble        +0x312 /* 00006952 */
00006644  4267                     clr.w      -[A7]
00006646  2F2D E21E                move.l     -[A7], [A5 - 0x1DE2]
0000664A  3F2D E222                move.w     -[A7], [A5 - 0x1DDE]
0000664E  3F3C 0002                move.w     -[A7], 0x2
00006652  4EAD 1DBA                jsr        [A5 + 0x1DBA /* export_947, CODE:18 @ 00000D64 */]
00006656  3A1F                     move.w     D5, [A7]+
00006658  4267                     clr.w      -[A7]
0000665A  2F2D E21E                move.l     -[A7], [A5 - 0x1DE2]
0000665E  3F05                     move.w     -[A7], D5
00006660  486E FFCC                pea.l      [A6 - 0x34]
00006664  4EAD 1DB2                jsr        [A5 + 0x1DB2 /* export_946, CODE:18 @ 00000D08 */]
00006668  101F                     move.b     D0, [A7]+
0000666A  6604                     bne        +0x6 /* 00006670 */
0000666C  6000 02E4                bra        +0x2E6 /* 00006952 */
label00006670:
00006670  4A2E FFD1                tst.b      [A6 - 0x2F]
00006674  6D00 02DC                blt        +0x2DE /* 00006952 */
00006678  2F2D E21E                move.l     -[A7], [A5 - 0x1DE2]
0000667C  3F05                     move.w     -[A7], D5
0000667E  2F2D E08C                move.l     -[A7], [A5 - 0x1F74]
00006682  4EBA E090                jsr        [PC - 0x1F70 /* 00004714 */]
00006686  2F2D EDC8                move.l     -[A7], [A5 - 0x1238]
0000668A  A873                     syscall    SetPort
0000668C  3F2E FFE2                move.w     -[A7], [A6 - 0x1E]
00006690  A887                     syscall    TextFont
00006692  3F2E FFE4                move.w     -[A7], [A6 - 0x1C]
00006696  A88A                     syscall    TextSize
00006698  4240                     clr.w      D0
0000669A  102E FFE6                move.b     D0, [A6 - 0x1A]
0000669E  3F00                     move.w     -[A7], D0
000066A0  A888                     syscall    TextFace
000066A2  2F2D E08C                move.l     -[A7], [A5 - 0x1F74]
000066A6  4EAD 0222                jsr        [A5 + 0x222 /* export_64, CODE:1 @ 00004678 */]
000066AA  206D E08C                movea.l    A0, [A5 - 0x1F74]
000066AE  2850                     movea.l    A4, [A0]
000066B0  4246                     clr.w      D6
label000066B2:
000066B2  3006                     move.w     D0, D6
000066B4  5240                     addq.w     D0, 1
000066B6  D040                     add.w      D0, D0
000066B8  3234 0060                move.w     D1, [A4 + D0.w + 0x60]
000066BC  B26D E21C                cmp.w      D1, [A5 - 0x1DE4]
000066C0  6E04                     bgt        +0x6 /* 000066C6 */
000066C2  5246                     addq.w     D6, 1
000066C4  60EC                     bra        -0x12 /* 000066B2 */
label000066C6:
000066C6  3006                     move.w     D0, D6
000066C8  D040                     add.w      D0, D0
000066CA  3E34 0060                move.w     D7, [A4 + D0.w + 0x60]
000066CE  3006                     move.w     D0, D6
000066D0  5240                     addq.w     D0, 1
000066D2  D040                     add.w      D0, D0
000066D4  3D74 0060 FFFA           move.w     [A6 - 0x6], [A4 + D0.w + 0x60]
000066DA  2F2C 003E                move.l     -[A7], [A4 + 0x3E]
000066DE  4EAD 0222                jsr        [A5 + 0x222 /* export_64, CODE:1 @ 00004678 */]
000066E2  206C 003E                movea.l    A0, [A4 + 0x3E]
000066E6  3007                     move.w     D0, D7
000066E8  48C0                     ext.l      D0
000066EA  D090                     add.l      D0, [A0]
000066EC  2D40 FFB4                move.l     [A6 - 0x4C], D0
000066F0  206C 003E                movea.l    A0, [A4 + 0x3E]
000066F4  302E FFFA                move.w     D0, [A6 - 0x6]
000066F8  48C0                     ext.l      D0
000066FA  D090                     add.l      D0, [A0]
000066FC  2640                     movea.l    A3, D0
000066FE  97FC 0000 0001           sub.l      A3, 0x1
label00006704:
00006704  B7EE FFB4                cmpa.l     A3, [A6 - 0x4C]
00006708  5EC0                     sgt        D0
0000670A  7220                     moveq.l    D1, 0x20
0000670C  B213                     cmp.b      D1, [A3]
0000670E  57C1                     seq        D1
00006710  740D                     moveq.l    D2, 0x0D
00006712  B413                     cmp.b      D2, [A3]
00006714  57C2                     seq        D2
00006716  8202                     or.b       D1, D2
00006718  C001                     and.b      D0, D1
0000671A  6704                     beq        +0x6 /* 00006720 */
0000671C  538B                     subq.l     A3, 1
0000671E  60E4                     bra        -0x1A /* 00006704 */
label00006720:
00006720  4267                     clr.w      -[A7]
00006722  2F2E FFB4                move.l     -[A7], [A6 - 0x4C]
00006726  4267                     clr.w      -[A7]
00006728  200B                     move.l     D0, A3
0000672A  5280                     addq.l     D0, 1
0000672C  90AE FFB4                sub.l      D0, [A6 - 0x4C]
00006730  3F00                     move.w     -[A7], D0
00006732  A886                     syscall    TextWidth
00006734  381F                     move.w     D4, [A7]+
00006736  2F2C 003E                move.l     -[A7], [A4 + 0x3E]
0000673A  4EAD 022A                jsr        [A5 + 0x22A /* export_65, CODE:1 @ 00004682 */]
0000673E  3006                     move.w     D0, D6
00006740  C1EC 0018                muls.w     D0, [A4 + 0x18]
00006744  D054                     add.w      D0, [A4]
00006746  3B40 E212                move.w     [A5 - 0x1DEE], D0
0000674A  302C 0018                move.w     D0, [A4 + 0x18]
0000674E  D06D E212                add.w      D0, [A5 - 0x1DEE]
00006752  3B40 E216                move.w     [A5 - 0x1DEA], D0
00006756  4A6C 003A                tst.w      [A4 + 0x3A]
0000675A  57C0                     seq        D0
0000675C  207C 0000 0BAC           movea.l    A0, 0xBAC
00006762  4A50                     tst.w      [A0]
00006764  5DC1                     slt        D1
00006766  C001                     and.b      D0, D1
00006768  6706                     beq        +0x8 /* 00006770 */
0000676A  397C FFFF 003A           move.w     [A4 + 0x3A], 0xFFFF
label00006770:
00006770  102D F2B3                move.b     D0, [A5 - 0xD4D]
00006774  672C                     beq        +0x2E /* 000067A2 */
00006776  2F00                     move.l     -[A7], D0
00006778  42A7                     clr.l      -[A7]
0000677A  2F00                     move.l     -[A7], D0
0000677C  4267                     clr.w      -[A7]
0000677E  2F3C 8200 0000           move.l     -[A7], 0x82000000
00006784  A8B5                     syscall    ScriptUtil
00006786  321F                     move.w     D1, [A7]+
00006788  201F                     move.l     D0, [A7]+
0000678A  3F01                     move.w     -[A7], D1
0000678C  3F3C 0006                move.w     -[A7], 0x6
00006790  2F3C 8404 000C           move.l     -[A7], 0x8404000C
00006796  A8B5                     syscall    ScriptUtil
00006798  221F                     move.l     D1, [A7]+
0000679A  201F                     move.l     D0, [A7]+
0000679C  4A81                     tst.l      D1
0000679E  56C1                     sne        D1
000067A0  C001                     and.b      D0, D1
label000067A2:
000067A2  1D40 FFBD                move.b     [A6 - 0x43], D0
000067A6  677C                     beq        +0x7E /* 00006824 */
000067A8  302C 003A                move.w     D0, [A4 + 0x3A]
000067AC  5240                     addq.w     D0, 1
000067AE  672C                     beq        +0x2E /* 000067DC */
000067B0  5340                     subq.w     D0, 1
000067B2  6706                     beq        +0x8 /* 000067BA */
000067B4  5340                     subq.w     D0, 1
000067B6  670E                     beq        +0x10 /* 000067C6 */
000067B8  6028                     bra        +0x2A /* 000067E2 */
label000067BA:
000067BA  3004                     move.w     D0, D4
000067BC  D06C 0002                add.w      D0, [A4 + 0x2]
000067C0  3D40 FFF4                move.w     [A6 - 0xC], D0
000067C4  601C                     bra        +0x1E /* 000067E2 */
label000067C6:
000067C6  302C 0006                move.w     D0, [A4 + 0x6]
000067CA  D06C 0002                add.w      D0, [A4 + 0x2]
000067CE  D044                     add.w      D0, D4
000067D0  48C0                     ext.l      D0
000067D2  81FC 0002                divs.w     D0, 0x2
000067D6  3D40 FFF4                move.w     [A6 - 0xC], D0
000067DA  6006                     bra        +0x8 /* 000067E2 */
label000067DC:
000067DC  3D6C 0006 FFF4           move.w     [A6 - 0xC], [A4 + 0x6]
label000067E2:
000067E2  4267                     clr.w      -[A7]
000067E4  206C 003E                movea.l    A0, [A4 + 0x3E]
000067E8  2F10                     move.l     -[A7], [A0]
000067EA  3F07                     move.w     -[A7], D7
000067EC  302D E21A                move.w     D0, [A5 - 0x1DE6]
000067F0  9047                     sub.w      D0, D7
000067F2  3F00                     move.w     -[A7], D0
000067F4  A886                     syscall    TextWidth
000067F6  302E FFF4                move.w     D0, [A6 - 0xC]
000067FA  905F                     sub.w      D0, [A7]+
000067FC  5340                     subq.w     D0, 1
000067FE  3B40 E214                move.w     [A5 - 0x1DEC], D0
00006802  4267                     clr.w      -[A7]
00006804  206C 003E                movea.l    A0, [A4 + 0x3E]
00006808  2F10                     move.l     -[A7], [A0]
0000680A  3F07                     move.w     -[A7], D7
0000680C  302D E21C                move.w     D0, [A5 - 0x1DE4]
00006810  9047                     sub.w      D0, D7
00006812  3F00                     move.w     -[A7], D0
00006814  A886                     syscall    TextWidth
00006816  302E FFF4                move.w     D0, [A6 - 0xC]
0000681A  905F                     sub.w      D0, [A7]+
0000681C  5440                     addq.w     D0, 2
0000681E  3B40 E218                move.w     [A5 - 0x1DE8], D0
00006822  607A                     bra        +0x7C /* 0000689E */
label00006824:
00006824  302C 003A                move.w     D0, [A4 + 0x3A]
00006828  5240                     addq.w     D0, 1
0000682A  6728                     beq        +0x2A /* 00006854 */
0000682C  5340                     subq.w     D0, 1
0000682E  6706                     beq        +0x8 /* 00006836 */
00006830  5340                     subq.w     D0, 1
00006832  670A                     beq        +0xC /* 0000683E */
00006834  6028                     bra        +0x2A /* 0000685E */
label00006836:
00006836  3D6C 0002 FFF6           move.w     [A6 - 0xA], [A4 + 0x2]
0000683C  6020                     bra        +0x22 /* 0000685E */
label0000683E:
0000683E  302C 0006                move.w     D0, [A4 + 0x6]
00006842  D06C 0002                add.w      D0, [A4 + 0x2]
00006846  9044                     sub.w      D0, D4
00006848  48C0                     ext.l      D0
0000684A  81FC 0002                divs.w     D0, 0x2
0000684E  3D40 FFF6                move.w     [A6 - 0xA], D0
00006852  600A                     bra        +0xC /* 0000685E */
label00006854:
00006854  302C 0006                move.w     D0, [A4 + 0x6]
00006858  9044                     sub.w      D0, D4
0000685A  3D40 FFF6                move.w     [A6 - 0xA], D0
label0000685E:
0000685E  4267                     clr.w      -[A7]
00006860  206C 003E                movea.l    A0, [A4 + 0x3E]
00006864  2F10                     move.l     -[A7], [A0]
00006866  3F07                     move.w     -[A7], D7
00006868  302D E21C                move.w     D0, [A5 - 0x1DE4]
0000686C  9047                     sub.w      D0, D7
0000686E  3F00                     move.w     -[A7], D0
00006870  A886                     syscall    TextWidth
00006872  301F                     move.w     D0, [A7]+
00006874  D06E FFF6                add.w      D0, [A6 - 0xA]
00006878  5340                     subq.w     D0, 1
0000687A  3B40 E214                move.w     [A5 - 0x1DEC], D0
0000687E  4267                     clr.w      -[A7]
00006880  206C 003E                movea.l    A0, [A4 + 0x3E]
00006884  2F10                     move.l     -[A7], [A0]
00006886  3F07                     move.w     -[A7], D7
00006888  302D E21A                move.w     D0, [A5 - 0x1DE6]
0000688C  9047                     sub.w      D0, D7
0000688E  3F00                     move.w     -[A7], D0
00006890  A886                     syscall    TextWidth
00006892  301F                     move.w     D0, [A7]+
00006894  D06E FFF6                add.w      D0, [A6 - 0xA]
00006898  5440                     addq.w     D0, 2
0000689A  3B40 E218                move.w     [A5 - 0x1DE8], D0
label0000689E:
0000689E  41EE FFC0                lea.l      A0, [A6 - 0x40]
000068A2  224C                     movea.l    A1, A4
000068A4  5089                     addq.l     A1, 8
000068A6  20D9                     move.l     [A0]+, [A1]+
000068A8  20D9                     move.l     [A0]+, [A1]+
000068AA  7000                     moveq.l    D0, 0x00
000068AC  302E FFDA                move.w     D0, [A6 - 0x26]
000068B0  C0BC 0000 000F           and.l      D0, 0xF
000068B6  7207                     moveq.l    D1, 0x07
000068B8  B280                     cmp.l      D1, D0
000068BA  6672                     bne        +0x74 /* 0000692E */
000068BC  426E FFCA                clr.w      [A6 - 0x36]
000068C0  302D E212                move.w     D0, [A5 - 0x1DEE]
000068C4  B06E FFC0                cmp.w      D0, [A6 - 0x40]
000068C8  5DC0                     slt        D0
000068CA  322D E216                move.w     D1, [A5 - 0x1DEA]
000068CE  B26E FFC4                cmp.w      D1, [A6 - 0x3C]
000068D2  5EC1                     sgt        D1
000068D4  8001                     or.b       D0, D1
000068D6  670C                     beq        +0xE /* 000068E4 */
000068D8  302E FFC0                move.w     D0, [A6 - 0x40]
000068DC  906D E212                sub.w      D0, [A5 - 0x1DEE]
000068E0  3D40 FFCA                move.w     [A6 - 0x36], D0
label000068E4:
000068E4  4A6E FFCA                tst.w      [A6 - 0x36]
000068E8  6744                     beq        +0x46 /* 0000692E */
000068EA  3D45 FFEE                move.w     [A6 - 0x12], D5
000068EE  202D E21E                move.l     D0, [A5 - 0x1DE2]
000068F2  B0AD F62A                cmp.l      D0, [A5 - 0x9D6]
000068F6  660A                     bne        +0xC /* 00006902 */
000068F8  302E FFEE                move.w     D0, [A6 - 0x12]
000068FC  4440                     neg.w      D0
000068FE  3D40 FFEE                move.w     [A6 - 0x12], D0
label00006902:
00006902  3F2E FFEE                move.w     -[A7], [A6 - 0x12]
00006906  302D E00E                move.w     D0, [A5 - 0x1FF2]
0000690A  906E FFCA                sub.w      D0, [A6 - 0x36]
0000690E  3F00                     move.w     -[A7], D0
00006910  4EAD 21E2                jsr        [A5 + 0x21E2 /* export_1080, CODE:20 @ 00004594 */]
00006914  486D E212                pea.l      [A5 - 0x1DEE]
00006918  4267                     clr.w      -[A7]
0000691A  3F2E FFCA                move.w     -[A7], [A6 - 0x36]
0000691E  A8A8                     syscall    OffsetRect
00006920  2F2D E21E                move.l     -[A7], [A5 - 0x1DE2]
00006924  3F05                     move.w     -[A7], D5
00006926  1F3C 0001                move.b     -[A7], 0x1
0000692A  4EAD 22C2                jsr        [A5 + 0x22C2 /* export_1108, CODE:20 @ 00005FC0 */]
label0000692E:
0000692E  4267                     clr.w      -[A7]
00006930  486E FFC0                pea.l      [A6 - 0x40]
00006934  486D E212                pea.l      [A5 - 0x1DEE]
00006938  486D E212                pea.l      [A5 - 0x1DEE]
0000693C  A8AA                     syscall    SectRect
0000693E  1D5F FFF3                move.b     [A6 - 0xD], [A7]+
00006942  2F2D E08C                move.l     -[A7], [A5 - 0x1F74]
00006946  4EAD 022A                jsr        [A5 + 0x22A /* export_65, CODE:1 @ 00004682 */]
0000694A  4EAD 2262                jsr        [A5 + 0x2262 /* export_1096, CODE:20 @ 0000535A */]
0000694E  4EAD 2222                jsr        [A5 + 0x2222 /* export_1088, CODE:20 @ 00004B76 */]
label00006952:
00006952  2F2E FFEA                move.l     -[A7], [A6 - 0x16]
00006956  A873                     syscall    SetPort
00006958  4CDF 18F0                movem.l    D4,D5,D6,D7,A3,A4, [A7]+
0000695C  4E5E                     unlink     A6
0000695E  4E75                     rts
export_757:
00006960  4E56 FFFC                link       A6, -0x0004
00006964  48E7 0308                movem.l    -[A7], D6,D7,A4
00006968  286E 0008                movea.l    A4, [A6 + 0x8]
0000696C  4267                     clr.w      -[A7]
0000696E  4EAD 221A                jsr        [A5 + 0x221A /* export_1087, CODE:20 @ 00004B46 */]
00006972  101F                     move.b     D0, [A7]+
00006974  6706                     beq        +0x8 /* 0000697C */
00006976  1B7C 0001 F005           move.b     [A5 - 0xFFB], 0x1
label0000697C:
0000697C  102D F005                move.b     D0, [A5 - 0xFFB]
00006980  677E                     beq        +0x80 /* 00006A00 */
00006982  102D EF0B                move.b     D0, [A5 - 0x10F5]
00006986  6772                     beq        +0x74 /* 000069FA */
00006988  102D EF09                move.b     D0, [A5 - 0x10F7]
0000698C  C02D EF0A                and.b      D0, [A5 - 0x10F6]
00006990  6750                     beq        +0x52 /* 000069E2 */
00006992  302C 0002                move.w     D0, [A4 + 0x2]
00006996  906D EF06                sub.w      D0, [A5 - 0x10FA]
0000699A  6A02                     bpl        +0x4 /* 0000699E */
0000699C  4440                     neg.w      D0
label0000699E:
0000699E  3E00                     move.w     D7, D0
000069A0  3014                     move.w     D0, [A4]
000069A2  906D EF04                sub.w      D0, [A5 - 0x10FC]
000069A6  6A02                     bpl        +0x4 /* 000069AA */
000069A8  4440                     neg.w      D0
label000069AA:
000069AA  3C00                     move.w     D6, D0
000069AC  BC47                     cmp.w      D6, D7
000069AE  5DC0                     slt        D0
000069B0  7201                     moveq.l    D1, 0x01
000069B2  B247                     cmp.w      D1, D7
000069B4  5DC1                     slt        D1
000069B6  C001                     and.b      D0, D1
000069B8  6704                     beq        +0x6 /* 000069BE */
000069BA  422D EF09                clr.b      [A5 - 0x10F7]
label000069BE:
000069BE  BE46                     cmp.w      D7, D6
000069C0  5DC0                     slt        D0
000069C2  7201                     moveq.l    D1, 0x01
000069C4  B246                     cmp.w      D1, D6
000069C6  5DC1                     slt        D1
000069C8  C001                     and.b      D0, D1
000069CA  6704                     beq        +0x6 /* 000069D0 */
000069CC  422D EF0A                clr.b      [A5 - 0x10F6]
label000069D0:
000069D0  BE46                     cmp.w      D7, D6
000069D2  57C0                     seq        D0
000069D4  7204                     moveq.l    D1, 0x04
000069D6  B247                     cmp.w      D1, D7
000069D8  5DC1                     slt        D1
000069DA  C001                     and.b      D0, D1
000069DC  6704                     beq        +0x6 /* 000069E2 */
000069DE  422D EF09                clr.b      [A5 - 0x10F7]
label000069E2:
000069E2  102D EF0A                move.b     D0, [A5 - 0x10F6]
000069E6  6704                     beq        +0x6 /* 000069EC */
000069E8  38AD EF04                move.w     [A4], [A5 - 0x10FC]
label000069EC:
000069EC  102D EF09                move.b     D0, [A5 - 0x10F7]
000069F0  6706                     beq        +0x8 /* 000069F8 */
000069F2  396D EF06 0002           move.w     [A4 + 0x2], [A5 - 0x10FA]
label000069F8:
000069F8  6006                     bra        +0x8 /* 00006A00 */
label000069FA:
000069FA  2F14                     move.l     -[A7], [A4]
000069FC  4EBA 0394                jsr        [PC + 0x394 /* 00006D92 */]
label00006A00:
00006A00  4CDF 10C0                movem.l    D6,D7,A4, [A7]+
00006A04  4E5E                     unlink     A6
00006A06  2E9F                     move.l     [A7], [A7]+
00006A08  4E75                     rts
export_758:
00006A0A  4E56 FFFE                link       A6, -0x0002
00006A0E  1D7C 0001 0008           move.b     [A6 + 0x8], 0x1
00006A14  42A7                     clr.l      -[A7]
00006A16  4EAD 1F4A                jsr        [A5 + 0x1F4A /* export_997, CODE:19 @ 00001378 */]
00006A1A  0C9F 0000 8000           cmpi.l     [A7]+, 0x8000
00006A20  6C46                     bge        +0x48 /* 00006A68 */
00006A22  42A7                     clr.l      -[A7]
00006A24  A9FA                     syscall    UnloadScrap/UnlodeScrap
00006A26  201F                     move.l     D0, [A7]+
00006A28  3D40 FFFE                move.w     [A6 - 0x2], D0
00006A2C  42A7                     clr.l      -[A7]
00006A2E  4EAD 1F4A                jsr        [A5 + 0x1F4A /* export_997, CODE:19 @ 00001378 */]
00006A32  0C9F 0000 8000           cmpi.l     [A7]+, 0x8000
00006A38  6C2E                     bge        +0x30 /* 00006A68 */
00006A3A  4EAD 1ED2                jsr        [A5 + 0x1ED2 /* export_982, CODE:19 @ 00000172 */]
00006A3E  42A7                     clr.l      -[A7]
00006A40  4EAD 1F4A                jsr        [A5 + 0x1F4A /* export_997, CODE:19 @ 00001378 */]
00006A44  0C9F 0000 8000           cmpi.l     [A7]+, 0x8000
00006A4A  6C1C                     bge        +0x1E /* 00006A68 */
label00006A4C:
00006A4C  4267                     clr.w      -[A7]
00006A4E  4EAD 0C32                jsr        [A5 + 0xC32 /* export_386, CODE:8 @ 00004764 */]
00006A52  101F                     move.b     D0, [A7]+
00006A54  67F6                     beq        -0x8 /* 00006A4C */
00006A56  42A7                     clr.l      -[A7]
00006A58  4EAD 1F4A                jsr        [A5 + 0x1F4A /* export_997, CODE:19 @ 00001378 */]
00006A5C  0C9F 0000 8000           cmpi.l     [A7]+, 0x8000
00006A62  6C04                     bge        +0x6 /* 00006A68 */
00006A64  422E 0008                clr.b      [A6 + 0x8]
label00006A68:
00006A68  4E5E                     unlink     A6
00006A6A  4E75                     rts
fn00006A6C:
00006A6C  4E56 FFF0                link       A6, -0x0010
00006A70  42A7                     clr.l      -[A7]
00006A72  A975                     syscall    TickCount
00006A74  201F                     move.l     D0, [A7]+
00006A76  206E 0008                movea.l    A0, [A6 + 0x8]
00006A7A  B0A8 FFBA                cmp.l      D0, [A0 - 0x46]
00006A7E  5EC0                     sgt        D0
00006A80  4A00                     tst.b      D0
00006A82  6632                     bne        +0x34 /* 00006AB6 */
00006A84  2F00                     move.l     -[A7], D0
00006A86  42A7                     clr.l      -[A7]
00006A88  4EAD 1F4A                jsr        [A5 + 0x1F4A /* export_997, CODE:19 @ 00001378 */]
00006A8C  221F                     move.l     D1, [A7]+
00006A8E  201F                     move.l     D0, [A7]+
00006A90  0C81 0001 0000           cmpi.l     D1, 0x10000
00006A96  5DC1                     slt        D1
00006A98  8001                     or.b       D0, D1
00006A9A  661A                     bne        +0x1C /* 00006AB6 */
00006A9C  2F00                     move.l     -[A7], D0
00006A9E  2F3C FFFF 0000           move.l     -[A7], 0xFFFF0000
00006AA4  486E FFF0                pea.l      [A6 - 0x10]
00006AA8  A971                     syscall    EventAvail
00006AAA  121F                     move.b     D1, [A7]+
00006AAC  201F                     move.l     D0, [A7]+
00006AAE  8001                     or.b       D0, D1
00006AB0  0240 0001                andi.w     D0, 0x1
00006AB4  670C                     beq        +0xE /* 00006AC2 */
label00006AB6:
00006AB6  206E 0008                movea.l    A0, [A6 + 0x8]
00006ABA  2C48                     movea.l    A6, A0
00006ABC  4EFA 02BA                jmp        [PC + 0x2BA /* 00006D78 */]
00006AC0  0000 4E5E                ori.b      D0, 0x5E /* '^' */
// begin alternate branch 00006AC2-00006AC4
label00006AC2:
00006AC2  4E5E                     unlink     A6
// end alternate branch 00006AC2-00006AC4
label00006AC2: // (misaligned)
00006AC4  2E9F                     move.l     [A7], [A7]+
00006AC6  4E75                     rts
export_759:
00006AC8  4E56 FFAC                link       A6, -0x0054
00006ACC  48E7 1F38                movem.l    -[A7], D3,D4,D5,D6,D7,A2,A3,A4
00006AD0  42A7                     clr.l      -[A7]
00006AD2  A975                     syscall    TickCount
00006AD4  201F                     move.l     D0, [A7]+
00006AD6  721E                     moveq.l    D1, 0x1E
00006AD8  D081                     add.l      D0, D1
00006ADA  2D40 FFBA                move.l     [A6 - 0x46], D0
00006ADE  202D EFFA                move.l     D0, [A5 - 0x1006]
00006AE2  D0BC 0000 00B4           add.l      D0, 0xB4
00006AE8  B0AE FFBA                cmp.l      D0, [A6 - 0x46]
00006AEC  6C0E                     bge        +0x10 /* 00006AFC */
00006AEE  202D EFFA                move.l     D0, [A5 - 0x1006]
00006AF2  D0BC 0000 00B4           add.l      D0, 0xB4
00006AF8  2D40 FFBA                move.l     [A6 - 0x46], D0
label00006AFC:
00006AFC  426D F010                clr.w      [A5 - 0xFF0]
00006B00  426D E09E                clr.w      [A5 - 0x1F62]
00006B04  422D E302                clr.b      [A5 - 0x1CFE]
00006B08  422D E663                clr.b      [A5 - 0x199D]
00006B0C  422D E301                clr.b      [A5 - 0x1CFF]
00006B10  4EAD 2292                jsr        [A5 + 0x2292 /* export_1102, CODE:20 @ 00005886 */]
00006B14  202D EE3A                move.l     D0, [A5 - 0x11C6]
00006B18  B0AD ECE4                cmp.l      D0, [A5 - 0x131C]
00006B1C  670A                     beq        +0xC /* 00006B28 */
00006B1E  2F3C 0001 E23C           move.l     -[A7], 0x1E23C
00006B24  4EAD 185A                jsr        [A5 + 0x185A /* export_775, CODE:16 @ 0000042E */]
label00006B28:
00006B28  206D EDC8                movea.l    A0, [A5 - 0x1238]
00006B2C  2028 0002                move.l     D0, [A0 + 0x2]
00006B30  B0AD FE2E                cmp.l      D0, [A5 - 0x1D2]
00006B34  670A                     beq        +0xC /* 00006B40 */
00006B36  2F3C 0001 E23D           move.l     -[A7], 0x1E23D
00006B3C  4EAD 185A                jsr        [A5 + 0x185A /* export_775, CODE:16 @ 0000042E */]
label00006B40:
00006B40  102D EF40                move.b     D0, [A5 - 0x10C0]
00006B44  673A                     beq        +0x3C /* 00006B80 */
00006B46  4EBA 9C8E                jsr        [PC - 0x6372 /* 000007D6 */]
00006B4A  302D EF42                move.w     D0, [A5 - 0x10BE]
00006B4E  5340                     subq.w     D0, 1
00006B50  41ED F8FC                lea.l      A0, [A5 - 0x704]
00006B54  E740                     asl        D0.w, 3
00006B56  43ED EF44                lea.l      A1, [A5 - 0x10BC]
00006B5A  41F0 0000                lea.l      A0, [A0 + D0.w]
00006B5E  22D8                     move.l     [A1]+, [A0]+
00006B60  22D8                     move.l     [A1]+, [A0]+
00006B62  206D EDA2                movea.l    A0, [A5 - 0x125E]
00006B66  1028 006E                move.b     D0, [A0 + 0x6E]
00006B6A  6714                     beq        +0x16 /* 00006B80 */
00006B6C  2F2D EDC0                move.l     -[A7], [A5 - 0x1240]
00006B70  A873                     syscall    SetPort
00006B72  486D EF38                pea.l      [A5 - 0x10C8]
00006B76  4EBA D25A                jsr        [PC - 0x2DA6 /* 00003DD2 */]
00006B7A  2F2D EDC8                move.l     -[A7], [A5 - 0x1238]
00006B7E  A873                     syscall    SetPort
label00006B80:
00006B80  4AAD F4D0                tst.l      [A5 - 0xB30]
00006B84  670A                     beq        +0xC /* 00006B90 */
00006B86  2F3C 0000 0309           move.l     -[A7], 0x309
00006B8C  4EAD 185A                jsr        [A5 + 0x185A /* export_775, CODE:16 @ 0000042E */]
label00006B90:
00006B90  4A6D EFDA                tst.w      [A5 - 0x1026]
00006B94  6704                     beq        +0x6 /* 00006B9A */
00006B96  6000 01F2                bra        +0x1F4 /* 00006D8A */
label00006B9A:
00006B9A  4267                     clr.w      -[A7]
00006B9C  4EAD 221A                jsr        [A5 + 0x221A /* export_1087, CODE:20 @ 00004B46 */]
00006BA0  101F                     move.b     D0, [A7]+
00006BA2  0A00 0001                xori.b     D0, 0x1
00006BA6  1D40 FFB9                move.b     [A6 - 0x47], D0
00006BAA  6704                     beq        +0x6 /* 00006BB0 */
00006BAC  536D FDD8                subq.w     [A5 - 0x228], 1
label00006BB0:
00006BB0  2F0E                     move.l     -[A7], A6
00006BB2  4EBA FEB8                jsr        [PC - 0x148 /* 00006A6C */]
00006BB6  42A7                     clr.l      -[A7]
00006BB8  2F2D F670                move.l     -[A7], [A5 - 0x990]
00006BBC  4EAD 1F82                jsr        [A5 + 0x1F82 /* export_1004, CODE:19 @ 00001770 */]
00006BC0  2D5F FFEE                move.l     [A6 - 0x12], [A7]+
00006BC4  6700 01B2                beq        +0x1B4 /* 00006D78 */
00006BC8  206E FFEE                movea.l    A0, [A6 - 0x12]
00006BCC  2050                     movea.l    A0, [A0]
00006BCE  2D48 FFB4                move.l     [A6 - 0x4C], A0
00006BD2  2D68 000C FFE2           move.l     [A6 - 0x1E], [A0 + 0xC]
00006BD8  206E FFB4                movea.l    A0, [A6 - 0x4C]
00006BDC  2028 0014                move.l     D0, [A0 + 0x14]
00006BE0  B0AD F668                cmp.l      D0, [A5 - 0x998]
00006BE4  6710                     beq        +0x12 /* 00006BF6 */
00006BE6  206E FFB4                movea.l    A0, [A6 - 0x4C]
00006BEA  2B68 0014 F668           move.l     [A5 - 0x998], [A0 + 0x14]
00006BF0  1B7C 0001 F63B           move.b     [A5 - 0x9C5], 0x1
label00006BF6:
00006BF6  42A7                     clr.l      -[A7]
00006BF8  2F2D F62A                move.l     -[A7], [A5 - 0x9D6]
00006BFC  4EAD 1F7A                jsr        [A5 + 0x1F7A /* export_1003, CODE:19 @ 00001744 */]
00006C00  2D5F FFD6                move.l     [A6 - 0x2A], [A7]+
00006C04  42A7                     clr.l      -[A7]
00006C06  2F2D F622                move.l     -[A7], [A5 - 0x9DE]
00006C0A  4EAD 1F6A                jsr        [A5 + 0x1F6A /* export_1001, CODE:19 @ 000016EC */]
00006C0E  2D5F FFCA                move.l     [A6 - 0x36], [A7]+
00006C12  4AAE FFD6                tst.l      [A6 - 0x2A]
00006C16  6714                     beq        +0x16 /* 00006C2C */
00006C18  42A7                     clr.l      -[A7]
00006C1A  206E FFD6                movea.l    A0, [A6 - 0x2A]
00006C1E  2050                     movea.l    A0, [A0]
00006C20  2F28 000C                move.l     -[A7], [A0 + 0xC]
00006C24  4EAD 1F72                jsr        [A5 + 0x1F72 /* export_1002, CODE:19 @ 00001718 */]
00006C28  2D5F FFC2                move.l     [A6 - 0x3E], [A7]+
label00006C2C:
00006C2C  2F0E                     move.l     -[A7], A6
00006C2E  4EBA FE3C                jsr        [PC - 0x1C4 /* 00006A6C */]
00006C32  42A7                     clr.l      -[A7]
00006C34  4EAD 1DF2                jsr        [A5 + 0x1DF2 /* export_954, CODE:18 @ 000010BC */]
00006C38  201F                     move.l     D0, [A7]+
00006C3A  5280                     addq.l     D0, 1
00006C3C  2D40 FFD2                move.l     [A6 - 0x2E], D0
00006C40  B0AD F668                cmp.l      D0, [A5 - 0x998]
00006C44  6F06                     ble        +0x8 /* 00006C4C */
00006C46  7001                     moveq.l    D0, 0x01
00006C48  2D40 FFD2                move.l     [A6 - 0x2E], D0
label00006C4C:
00006C4C  42A7                     clr.l      -[A7]
00006C4E  2F2D F670                move.l     -[A7], [A5 - 0x990]
00006C52  2F2E FFD2                move.l     -[A7], [A6 - 0x2E]
00006C56  4EAD 1E22                jsr        [A5 + 0x1E22 /* export_960, CODE:18 @ 00001CCC */]
00006C5A  2D5F FFDA                move.l     [A6 - 0x26], [A7]+
00006C5E  7000                     moveq.l    D0, 0x00
00006C60  2D40 FFC6                move.l     [A6 - 0x3A], D0
00006C64  2D6D F622 FFCE           move.l     [A6 - 0x32], [A5 - 0x9DE]
00006C6A  42A7                     clr.l      -[A7]
00006C6C  2F2E FFDA                move.l     -[A7], [A6 - 0x26]
00006C70  4EAD 1F7A                jsr        [A5 + 0x1F7A /* export_1003, CODE:19 @ 00001744 */]
00006C74  2D5F FFD6                move.l     [A6 - 0x2A], [A7]+
00006C78  6718                     beq        +0x1A /* 00006C92 */
00006C7A  206E FFD6                movea.l    A0, [A6 - 0x2A]
00006C7E  2050                     movea.l    A0, [A0]
00006C80  2D68 000C FFC6           move.l     [A6 - 0x3A], [A0 + 0xC]
00006C86  206E FFD6                movea.l    A0, [A6 - 0x2A]
00006C8A  2050                     movea.l    A0, [A0]
00006C8C  2D68 0020 FFCE           move.l     [A6 - 0x32], [A0 + 0x20]
label00006C92:
00006C92  42A7                     clr.l      -[A7]
00006C94  2F2E FFC6                move.l     -[A7], [A6 - 0x3A]
00006C98  4EAD 1F72                jsr        [A5 + 0x1F72 /* export_1002, CODE:19 @ 00001718 */]
00006C9C  2D5F FFC2                move.l     [A6 - 0x3E], [A7]+
00006CA0  2F0E                     move.l     -[A7], A6
00006CA2  4EBA FDC8                jsr        [PC - 0x238 /* 00006A6C */]
00006CA6  202E FFCE                move.l     D0, [A6 - 0x32]
00006CAA  B0AD F622                cmp.l      D0, [A5 - 0x9DE]
00006CAE  6736                     beq        +0x38 /* 00006CE6 */
00006CB0  7000                     moveq.l    D0, 0x00
00006CB2  2D40 FFC6                move.l     [A6 - 0x3A], D0
00006CB6  42A7                     clr.l      -[A7]
00006CB8  2F2E FFCE                move.l     -[A7], [A6 - 0x32]
00006CBC  4EAD 1F6A                jsr        [A5 + 0x1F6A /* export_1001, CODE:19 @ 000016EC */]
00006CC0  2D5F FFCA                move.l     [A6 - 0x36], [A7]+
00006CC4  670C                     beq        +0xE /* 00006CD2 */
00006CC6  206E FFCA                movea.l    A0, [A6 - 0x36]
00006CCA  2050                     movea.l    A0, [A0]
00006CCC  2D68 000C FFC6           move.l     [A6 - 0x3A], [A0 + 0xC]
label00006CD2:
00006CD2  42A7                     clr.l      -[A7]
00006CD4  2F2E FFC6                move.l     -[A7], [A6 - 0x3A]
00006CD8  4EAD 1F72                jsr        [A5 + 0x1F72 /* export_1002, CODE:19 @ 00001718 */]
00006CDC  2D5F FFC2                move.l     [A6 - 0x3E], [A7]+
00006CE0  2F0E                     move.l     -[A7], A6
00006CE2  4EBA FD88                jsr        [PC - 0x278 /* 00006A6C */]
label00006CE6:
00006CE6  206E FFEE                movea.l    A0, [A6 - 0x12]
00006CEA  2010                     move.l     D0, [A0]
00006CEC  7230                     moveq.l    D1, 0x30
00006CEE  D081                     add.l      D0, D1
00006CF0  2D40 FFBE                move.l     [A6 - 0x42], D0
00006CF4  2D6E FFE2 FFB0           move.l     [A6 - 0x50], [A6 - 0x1E]
00006CFA  7001                     moveq.l    D0, 0x01
00006CFC  2D40 FFE6                move.l     [A6 - 0x1A], D0
00006D00  6016                     bra        +0x18 /* 00006D18 */
label00006D02:
00006D02  206E FFBE                movea.l    A0, [A6 - 0x42]
00006D06  2010                     move.l     D0, [A0]
00006D08  B0AD F2AE                cmp.l      D0, [A5 - 0xD52]
00006D0C  671A                     beq        +0x1C /* 00006D28 */
00006D0E  5CAE FFBE                addq.l     [A6 - 0x42], 6
00006D12  52AE FFE6                addq.l     [A6 - 0x1A], 1
00006D16  690A                     bvs        +0xC /* 00006D22 */
label00006D18:
00006D18  202E FFE6                move.l     D0, [A6 - 0x1A]
00006D1C  B0AE FFB0                cmp.l      D0, [A6 - 0x50]
00006D20  6FE0                     ble        -0x1E /* 00006D02 */
label00006D22:
00006D22  7001                     moveq.l    D0, 0x01
00006D24  2D40 FFE6                move.l     [A6 - 0x1A], D0
label00006D28:
00006D28  2D6E FFE2 FFAC           move.l     [A6 - 0x54], [A6 - 0x1E]
00006D2E  7001                     moveq.l    D0, 0x01
00006D30  2D40 FFDE                move.l     [A6 - 0x22], D0
00006D34  6038                     bra        +0x3A /* 00006D6E */
label00006D36:
00006D36  42A7                     clr.l      -[A7]
00006D38  42A7                     clr.l      -[A7]
00006D3A  2F2D F670                move.l     -[A7], [A5 - 0x990]
00006D3E  2F2E FFE6                move.l     -[A7], [A6 - 0x1A]
00006D42  4EAD 1DAA                jsr        [A5 + 0x1DAA /* export_945, CODE:18 @ 00000CA4 */]
00006D46  4EAD 1F92                jsr        [A5 + 0x1F92 /* export_1006, CODE:19 @ 00001B32 */]
00006D4A  2D5F FFEA                move.l     [A6 - 0x16], [A7]+
00006D4E  52AE FFE6                addq.l     [A6 - 0x1A], 1
00006D52  202E FFE6                move.l     D0, [A6 - 0x1A]
00006D56  B0AE FFE2                cmp.l      D0, [A6 - 0x1E]
00006D5A  6F06                     ble        +0x8 /* 00006D62 */
00006D5C  7001                     moveq.l    D0, 0x01
00006D5E  2D40 FFE6                move.l     [A6 - 0x1A], D0
label00006D62:
00006D62  2F0E                     move.l     -[A7], A6
00006D64  4EBA FD06                jsr        [PC - 0x2FA /* 00006A6C */]
00006D68  52AE FFDE                addq.l     [A6 - 0x22], 1
00006D6C  690A                     bvs        +0xC /* 00006D78 */
label00006D6E:
00006D6E  202E FFDE                move.l     D0, [A6 - 0x22]
00006D72  B0AE FFAC                cmp.l      D0, [A6 - 0x54]
00006D76  6FBE                     ble        -0x40 /* 00006D36 */
label00006D78:
00006D78  4FEE FF8C                lea.l      A7, [A6 - 0x74]
00006D7C  4EAD 1EDA                jsr        [A5 + 0x1EDA /* export_983, CODE:19 @ 000003C8 */]
00006D80  102E FFB9                move.b     D0, [A6 - 0x47]
00006D84  6704                     beq        +0x6 /* 00006D8A */
00006D86  526D FDD8                addq.w     [A5 - 0x228], 1
label00006D8A:
00006D8A  4CDF 1CF8                movem.l    D3,D4,D5,D6,D7,A2,A3,A4, [A7]+
00006D8E  4E5E                     unlink     A6
00006D90  4E75                     rts
export_760:
fn00006D92:
00006D92  4E56 0000                link       A6, 0
00006D96  1B6D F005 EF0B           move.b     [A5 - 0x10F5], [A5 - 0xFFB]
00006D9C  102D EF0B                move.b     D0, [A5 - 0x10F5]
00006DA0  6712                     beq        +0x14 /* 00006DB4 */
00006DA2  1B7C 0001 EF0A           move.b     [A5 - 0x10F6], 0x1
00006DA8  1B7C 0001 EF09           move.b     [A5 - 0x10F7], 0x1
00006DAE  2B6E 0008 EF04           move.l     [A5 - 0x10FC], [A6 + 0x8]
label00006DB4:
00006DB4  4E5E                     unlink     A6
00006DB6  2E9F                     move.l     [A7], [A7]+
00006DB8  4E75                     rts
