# near model CODE resource
# jump table entries: 2104-2118 (15 of them)
export_263:
00000000  4E56 FFF8                link       A6, -0x0008
00000004  48E7 0300                movem.l    -[A7], D6,D7
00000008  42A7                     clr.l      -[A7]
0000000A  2F2D F622                move.l     -[A7], [A5 - 0x9DE]
0000000E  4EAD 1D3A                jsr        [A5 + 0x1D3A /* export_931, CODE:18 @ 000001DA */]
00000012  2E1F                     move.l     D7, [A7]+
00000014  6606                     bne        +0x8 /* 0000001C */
00000016  4EAD 1812                jsr        [A5 + 0x1812 /* export_766, CODE:16 @ 00000208 */]
0000001A  6050                     bra        +0x52 /* 0000006C */
label0000001C:
0000001C  42A7                     clr.l      -[A7]
0000001E  42A7                     clr.l      -[A7]
00000020  4EAD 1DF2                jsr        [A5 + 0x1DF2 /* export_954, CODE:18 @ 000010BC */]
00000024  2F07                     move.l     -[A7], D7
00000026  4EAD 1D42                jsr        [A5 + 0x1D42 /* export_932, CODE:18 @ 000002C2 */]
0000002A  2C1F                     move.l     D6, [A7]+
0000002C  6606                     bne        +0x8 /* 00000034 */
0000002E  4EAD 1812                jsr        [A5 + 0x1812 /* export_766, CODE:16 @ 00000208 */]
00000032  602E                     bra        +0x30 /* 00000062 */
label00000034:
00000034  2F06                     move.l     -[A7], D6
00000036  487A 0052                pea.l      [PC + 0x52 /* 0000008A, value 0x4E56 'NV', cstring "" */]
0000003A  4EAD 20CA                jsr        [A5 + 0x20CA /* export_1045, CODE:20 @ 00001388 */]
0000003E  41ED E0E8                lea.l      A0, [A5 - 0x1F18]
00000042  43FA 0038                lea.l      A1, [PC + 0x38 /* 0000007C, value 0xD6E6577 '\rnew', pstring "newBackground" */]
00000046  20D9                     move.l     [A0]+, [A1]+
00000048  20D9                     move.l     [A0]+, [A1]+
0000004A  20D9                     move.l     [A0]+, [A1]+
0000004C  3091                     move.w     [A0], [A1]
0000004E  4EAD 0B8A                jsr        [A5 + 0xB8A /* export_365, CODE:8 @ 00003F30 */]
00000052  41ED E0E8                lea.l      A0, [A5 - 0x1F18]
00000056  43FA 001C                lea.l      A1, [PC + 0x1C /* 00000074, value 0x76E6577, pstring "newCard" */]
0000005A  20D9                     move.l     [A0]+, [A1]+
0000005C  20D9                     move.l     [A0]+, [A1]+
0000005E  4EAD 0B8A                jsr        [A5 + 0xB8A /* export_365, CODE:8 @ 00003F30 */]
label00000062:
00000062  102D EFDF                move.b     D0, [A5 - 0x1021]
00000066  6604                     bne        +0x6 /* 0000006C */
00000068  4EBA 376E                jsr        [PC + 0x376E /* 000037D8 */]
label0000006C:
0000006C  4CDF 00C0                movem.l    D6,D7, [A7]+
00000070  4E5E                     unlink     A6
00000072  4E75                     rts
00000074  076E 6577                bchg       [A6 + 0x6577], D3
00000078  4361                     chk.w      D1, -[A1]
0000007A  7264                     moveq.l    D1, 0x64
0000007C  0D6E 6577                bchg       [A6 + 0x6577], D6
00000080  4261                     clr.w      -[A1]
00000082  636B                     bls        +0x6D /* 000000EF */
00000084  6772                     beq        +0x74 /* 000000F8 */
00000086  6F75                     ble        +0x77 /* 000000FD */
00000088  6E64                     bgt        +0x66 /* 000000EE */
0000008A  0000 4E56                ori.b      D0, 0x56 /* 'V' */
// begin alternate branch 0000008C-00000090
export_264:
0000008C  4E56 FDE6                link       A6, -0x021A
// end alternate branch 0000008C-00000090
export_264: // at 0000008C (misaligned)
0000008E  FDE6                     .invalid   <<F/7/6>>
00000090  48E7 0F00                movem.l    -[A7], D4,D5,D6,D7
00000094  3C2E 000A                move.w     D6, [A6 + 0xA]
00000098  4EAD 009A                jsr        [A5 + 0x9A /* export_15, CODE:1 @ 00002548 */]
0000009C  7E03                     moveq.l    D7, 0x03
0000009E  7001                     moveq.l    D0, 0x01
000000A0  B046                     cmp.w      D0, D6
000000A2  6606                     bne        +0x8 /* 000000AA */
000000A4  7E02                     moveq.l    D7, 0x02
000000A6  4EAD 0062                jsr        [A5 + 0x62 /* export_8, CODE:1 @ 0000184E */]
label000000AA:
000000AA  BE6D EFDC                cmp.w      D7, [A5 - 0x1024]
000000AE  6706                     beq        +0x8 /* 000000B6 */
000000B0  3F07                     move.w     -[A7], D7
000000B2  4EAD 15F2                jsr        [A5 + 0x15F2 /* export_698, CODE:15 @ 00000E4A */]
label000000B6:
000000B6  102D EFDF                move.b     D0, [A5 - 0x1021]
000000BA  6708                     beq        +0xA /* 000000C4 */
000000BC  2B6D F622 E270           move.l     [A5 - 0x1D90], [A5 - 0x9DE]
000000C2  6006                     bra        +0x8 /* 000000CA */
label000000C4:
000000C4  2B6D F62A E270           move.l     [A5 - 0x1D90], [A5 - 0x9D6]
label000000CA:
000000CA  102D F4CD                move.b     D0, [A5 - 0xB33]
000000CE  C02D F016                and.b      D0, [A5 - 0xFEA]
000000D2  670E                     beq        +0x10 /* 000000E2 */
000000D4  7000                     moveq.l    D0, 0x00
000000D6  2B40 E270                move.l     [A5 - 0x1D90], D0
000000DA  4EAD 15BA                jsr        [A5 + 0x15BA /* export_691, CODE:15 @ 00000AE6 */]
000000DE  6000 02BA                bra        +0x2BC /* 0000039A */
label000000E2:
000000E2  4267                     clr.w      -[A7]
000000E4  2F2D E270                move.l     -[A7], [A5 - 0x1D90]
000000E8  3F06                     move.w     -[A7], D6
000000EA  486D E274                pea.l      [A5 - 0x1D8C]
label000000EE:
000000EE  4EAD 1D52                jsr        [A5 + 0x1D52 /* export_934, CODE:18 @ 000004B2 */]
000000F2  101F                     move.b     D0, [A7]+
000000F4  660E                     bne        +0x10 /* 00000104 */
000000F6  7000                     moveq.l    D0, 0x00
label000000F8:
000000F8  2B40 E270                move.l     [A5 - 0x1D90], D0
000000FC  4EAD 1812                jsr        [A5 + 0x1812 /* export_766, CODE:16 @ 00000208 */]
00000100  6000 0298                bra        +0x29A /* 0000039A */
label00000104:
00000104  486D EE38                pea.l      [A5 - 0x11C8]
00000108  A873                     syscall    SetPort
0000010A  2F2D E270                move.l     -[A7], [A5 - 0x1D90]
0000010E  3F2D E276                move.w     -[A7], [A5 - 0x1D8A]
00000112  4EAD 1682                jsr        [A5 + 0x1682 /* export_716, CODE:15 @ 00003082 */]
00000116  2F2D E270                move.l     -[A7], [A5 - 0x1D90]
0000011A  3F2D E276                move.w     -[A7], [A5 - 0x1D8A]
0000011E  4EAD 16A2                jsr        [A5 + 0x16A2 /* export_720, CODE:15 @ 00003A22 */]
00000122  102E 0008                move.b     D0, [A6 + 0x8]
00000126  6700 0132                beq        +0x134 /* 0000025A */
0000012A  4205                     clr.b      D5
0000012C  7001                     moveq.l    D0, 0x01
0000012E  B046                     cmp.w      D0, D6
00000130  57C0                     seq        D0
00000132  122D F003                move.b     D1, [A5 - 0xFFD]
00000136  0A01 0001                xori.b     D1, 0x1
0000013A  C001                     and.b      D0, D1
0000013C  672A                     beq        +0x2C /* 00000168 */
0000013E  7000                     moveq.l    D0, 0x00
00000140  302D E282                move.w     D0, [A5 - 0x1D7E]
00000144  C0BC 0000 000F           and.l      D0, 0xF
0000014A  3D40 FFEE                move.w     [A6 - 0x12], D0
0000014E  3D6D E286 FFEC           move.w     [A6 - 0x14], [A5 - 0x1D7A]
00000154  7003                     moveq.l    D0, 0x03
00000156  B06E FFEE                cmp.w      D0, [A6 - 0x12]
0000015A  57C0                     seq        D0
0000015C  4A6E FFEC                tst.w      [A6 - 0x14]
00000160  57C1                     seq        D1
00000162  C001                     and.b      D0, D1
00000164  4400                     neg.b      D0
00000166  1A00                     move.b     D5, D0
label00000168:
00000168  2D6D F022 FFFC           move.l     [A6 - 0x4], [A5 - 0xFDE]
0000016E  3D7C 03E8 FFFE           move.w     [A6 - 0x2], 0x3E8
label00000174:
00000174  4267                     clr.w      -[A7]
00000176  4EAD 221A                jsr        [A5 + 0x221A /* export_1087, CODE:20 @ 00004B46 */]
0000017A  101F                     move.b     D0, [A7]+
0000017C  6706                     beq        +0x8 /* 00000184 */
0000017E  1B7C 0001 F005           move.b     [A5 - 0xFFB], 0x1
label00000184:
00000184  2F2D EDC8                move.l     -[A7], [A5 - 0x1238]
00000188  A873                     syscall    SetPort
0000018A  486E FFF8                pea.l      [A6 - 0x8]
0000018E  4EAD 176A                jsr        [A5 + 0x176A /* export_745, CODE:15 @ 0000556C */]
00000192  486D EE38                pea.l      [A5 - 0x11C8]
00000196  A873                     syscall    SetPort
00000198  4267                     clr.w      -[A7]
0000019A  2F2E FFF8                move.l     -[A7], [A6 - 0x8]
0000019E  2F2E FFFC                move.l     -[A7], [A6 - 0x4]
000001A2  A881                     syscall    EqualPt
000001A4  101F                     move.b     D0, [A7]+
000001A6  6600 009E                bne        +0xA0 /* 00000246 */
000001AA  486D E27A                pea.l      [A5 - 0x1D86]
000001AE  486D E2F2                pea.l      [A5 - 0x1D0E]
000001B2  4EAD 1CEA                jsr        [A5 + 0x1CEA /* export_921, CODE:17 @ 00001DBA */]
000001B6  2F2E FFF8                move.l     -[A7], [A6 - 0x8]
000001BA  2F2D F022                move.l     -[A7], [A5 - 0xFDE]
000001BE  486D E27A                pea.l      [A5 - 0x1D86]
000001C2  A8AC                     syscall    Pt2Rect
000001C4  302D E280                move.w     D0, [A5 - 0x1D80]
000001C8  5240                     addq.w     D0, 1
000001CA  3B40 E280                move.w     [A5 - 0x1D80], D0
000001CE  302D E27E                move.w     D0, [A5 - 0x1D82]
000001D2  5240                     addq.w     D0, 1
000001D4  3B40 E27E                move.w     [A5 - 0x1D82], D0
000001D8  302D E280                move.w     D0, [A5 - 0x1D80]
000001DC  906D E27C                sub.w      D0, [A5 - 0x1D84]
000001E0  720C                     moveq.l    D1, 0x0C
000001E2  B240                     cmp.w      D1, D0
000001E4  5EC0                     sgt        D0
000001E6  322D E27E                move.w     D1, [A5 - 0x1D82]
000001EA  926D E27A                sub.w      D1, [A5 - 0x1D86]
000001EE  740C                     moveq.l    D2, 0x0C
000001F0  B441                     cmp.w      D2, D1
000001F2  5EC1                     sgt        D1
000001F4  8001                     or.b       D0, D1
000001F6  670E                     beq        +0x10 /* 00000206 */
000001F8  41ED E27A                lea.l      A0, [A5 - 0x1D86]
000001FC  43ED ED8A                lea.l      A1, [A5 - 0x1276]
00000200  20D9                     move.l     [A0]+, [A1]+
00000202  20D9                     move.l     [A0]+, [A1]+
00000204  6014                     bra        +0x16 /* 0000021A */
label00000206:
00000206  1005                     move.b     D0, D5
00000208  C02D F005                and.b      D0, [A5 - 0xFFB]
0000020C  670C                     beq        +0xE /* 0000021A */
0000020E  302D E27A                move.w     D0, [A5 - 0x1D86]
00000212  D07C 0016                add.w      D0, 0x16
00000216  3B40 E27E                move.w     [A5 - 0x1D82], D0
label0000021A:
0000021A  486D E27A                pea.l      [A5 - 0x1D86]
0000021E  486D E2F2                pea.l      [A5 - 0x1D0E]
00000222  4EAD 1CEA                jsr        [A5 + 0x1CEA /* export_921, CODE:17 @ 00001DBA */]
00000226  4267                     clr.w      -[A7]
00000228  2F2D E270                move.l     -[A7], [A5 - 0x1D90]
0000022C  486D E274                pea.l      [A5 - 0x1D8C]
00000230  4EAD 1E6A                jsr        [A5 + 0x1E6A /* export_969, CODE:18 @ 00002E96 */]
00000234  101F                     move.b     D0, [A7]+
00000236  6604                     bne        +0x6 /* 0000023C */
00000238  4EAD 1812                jsr        [A5 + 0x1812 /* export_766, CODE:16 @ 00000208 */]
label0000023C:
0000023C  4EAD 1742                jsr        [A5 + 0x1742 /* export_740, CODE:15 @ 000050EE */]
00000240  2D6E FFF8 FFFC           move.l     [A6 - 0x4], [A6 - 0x8]
label00000246:
00000246  4267                     clr.w      -[A7]
00000248  4EAD 210A                jsr        [A5 + 0x210A /* export_1053, CODE:20 @ 000016F6 */]
0000024C  101F                     move.b     D0, [A7]+
0000024E  0A00 0001                xori.b     D0, 0x1
00000252  6700 FF20                beq        -0xDE /* 00000174 */
00000256  6000 00CC                bra        +0xCE /* 00000324 */
label0000025A:
0000025A  7001                     moveq.l    D0, 0x01
0000025C  B046                     cmp.w      D0, D6
0000025E  667A                     bne        +0x7C /* 000002DA */
00000260  486E FDE6                pea.l      [A6 - 0x21A]
00000264  3F3C 0003                move.w     -[A7], 0x3
00000268  4EAD 209A                jsr        [A5 + 0x209A /* export_1039, CODE:20 @ 00000F60 */]
0000026C  205F                     movea.l    A0, [A7]+
0000026E  43EE FEE8                lea.l      A1, [A6 - 0x118]
00000272  703F                     moveq.l    D0, 0x3F
label00000274:
00000274  22D8                     move.l     [A1]+, [A0]+
00000276  51C8 FFFC                dbf        D0, -0x6 /* 00000274 */
0000027A  4267                     clr.w      -[A7]
0000027C  A887                     syscall    TextFont
0000027E  4267                     clr.w      -[A7]
00000280  486E FEE8                pea.l      [A6 - 0x118]
00000284  A88C                     syscall    StringWidth
00000286  381F                     move.w     D4, [A7]+
00000288  3004                     move.w     D0, D4
0000028A  48C0                     ext.l      D0
0000028C  81FC 0002                divs.w     D0, 0x2
00000290  323C 00F4                move.w     D1, 0xF4
00000294  9240                     sub.w      D1, D0
00000296  3B41 E27C                move.w     [A5 - 0x1D84], D1
0000029A  3004                     move.w     D0, D4
0000029C  D06D E27C                add.w      D0, [A5 - 0x1D84]
000002A0  D07C 0017                add.w      D0, 0x17
000002A4  3B40 E280                move.w     [A5 - 0x1D80], D0
000002A8  3B7C 008C E27A           move.w     [A5 - 0x1D86], 0x8C
000002AE  302D E27A                move.w     D0, [A5 - 0x1D86]
000002B2  D07C 0016                add.w      D0, 0x16
000002B6  3B40 E27E                move.w     [A5 - 0x1D82], D0
000002BA  3B7C 8003 E282           move.w     [A5 - 0x1D7E], 0x8003
000002C0  4267                     clr.w      -[A7]
000002C2  2F2D E270                move.l     -[A7], [A5 - 0x1D90]
000002C6  3F2D E276                move.w     -[A7], [A5 - 0x1D8A]
000002CA  486E FEE8                pea.l      [A6 - 0x118]
000002CE  4EAD 1E72                jsr        [A5 + 0x1E72 /* export_970, CODE:18 @ 00002F34 */]
000002D2  101F                     move.b     D0, [A7]+
000002D4  6604                     bne        +0x6 /* 000002DA */
000002D6  4EAD 1812                jsr        [A5 + 0x1812 /* export_766, CODE:16 @ 00000208 */]
label000002DA:
000002DA  7002                     moveq.l    D0, 0x02
000002DC  B046                     cmp.w      D0, D6
000002DE  661E                     bne        +0x20 /* 000002FE */
000002E0  3B7C 009C E27C           move.w     [A5 - 0x1D84], 0x9C
000002E6  3B7C 0164 E280           move.w     [A5 - 0x1D80], 0x164
000002EC  3B7C 0078 E27A           move.w     [A5 - 0x1D86], 0x78 /* 'x' */
000002F2  302D E27A                move.w     D0, [A5 - 0x1D86]
000002F6  D07C 0055                add.w      D0, 0x55 /* 'U' */
000002FA  3B40 E27E                move.w     [A5 - 0x1D82], D0
label000002FE:
000002FE  4267                     clr.w      -[A7]
00000300  2F2D E270                move.l     -[A7], [A5 - 0x1D90]
00000304  486D E274                pea.l      [A5 - 0x1D8C]
00000308  4EAD 1E6A                jsr        [A5 + 0x1E6A /* export_969, CODE:18 @ 00002E96 */]
0000030C  101F                     move.b     D0, [A7]+
0000030E  6604                     bne        +0x6 /* 00000314 */
00000310  4EAD 1812                jsr        [A5 + 0x1812 /* export_766, CODE:16 @ 00000208 */]
label00000314:
00000314  486D E27A                pea.l      [A5 - 0x1D86]
00000318  486D E2F2                pea.l      [A5 - 0x1D0E]
0000031C  4EAD 1CEA                jsr        [A5 + 0x1CEA /* export_921, CODE:17 @ 00001DBA */]
00000320  4EAD 1742                jsr        [A5 + 0x1742 /* export_740, CODE:15 @ 000050EE */]
label00000324:
00000324  4267                     clr.w      -[A7]
00000326  486D E27A                pea.l      [A5 - 0x1D86]
0000032A  A8AE                     syscall    EmptyRect
0000032C  101F                     move.b     D0, [A7]+
0000032E  672C                     beq        +0x2E /* 0000035C */
00000330  4267                     clr.w      -[A7]
00000332  2F2D E270                move.l     -[A7], [A5 - 0x1D90]
00000336  3F2D E276                move.w     -[A7], [A5 - 0x1D8A]
0000033A  4EAD 1D6A                jsr        [A5 + 0x1D6A /* export_937, CODE:18 @ 000008C0 */]
0000033E  101F                     move.b     D0, [A7]+
00000340  6604                     bne        +0x6 /* 00000346 */
00000342  4EAD 1812                jsr        [A5 + 0x1812 /* export_766, CODE:16 @ 00000208 */]
label00000346:
00000346  486D E27A                pea.l      [A5 - 0x1D86]
0000034A  4EAD 16D2                jsr        [A5 + 0x16D2 /* export_726, CODE:15 @ 0000402E */]
0000034E  486D E27A                pea.l      [A5 - 0x1D86]
00000352  4EAD 00BA                jsr        [A5 + 0xBA /* export_19, CODE:1 @ 00003970 */]
00000356  4EAD 009A                jsr        [A5 + 0x9A /* export_15, CODE:1 @ 00002548 */]
0000035A  6038                     bra        +0x3A /* 00000394 */
label0000035C:
0000035C  7001                     moveq.l    D0, 0x01
0000035E  B046                     cmp.w      D0, D6
00000360  6610                     bne        +0x12 /* 00000372 */
00000362  41ED E0E8                lea.l      A0, [A5 - 0x1F18]
00000366  43FA 0046                lea.l      A1, [PC + 0x46 /* 000003AE, value 0x96E6577 '\tnew', pstring "newButton" */]
0000036A  20D9                     move.l     [A0]+, [A1]+
0000036C  20D9                     move.l     [A0]+, [A1]+
0000036E  3091                     move.w     [A0], [A1]
00000370  600E                     bra        +0x10 /* 00000380 */
label00000372:
00000372  41ED E0E8                lea.l      A0, [A5 - 0x1F18]
00000376  43FA 002C                lea.l      A1, [PC + 0x2C /* 000003A4, value 0x86E6577, pstring "newField" */]
0000037A  20D9                     move.l     [A0]+, [A1]+
0000037C  20D9                     move.l     [A0]+, [A1]+
0000037E  3091                     move.w     [A0], [A1]
label00000380:
00000380  2F2D E270                move.l     -[A7], [A5 - 0x1D90]
00000384  3F2D E276                move.w     -[A7], [A5 - 0x1D8A]
00000388  2F2D F62A                move.l     -[A7], [A5 - 0x9D6]
0000038C  2F2D F622                move.l     -[A7], [A5 - 0x9DE]
00000390  4EAD 0B9A                jsr        [A5 + 0xB9A /* export_367, CODE:8 @ 00004010 */]
label00000394:
00000394  1B7C 0001 E303           move.b     [A5 - 0x1CFD], 0x1
label0000039A:
0000039A  4CDF 00F0                movem.l    D4,D5,D6,D7, [A7]+
0000039E  4E5E                     unlink     A6
000003A0  2E9F                     move.l     [A7], [A7]+
000003A2  4E75                     rts
000003A4  086E 6577 4669           bchg.b     [A6 + 0x4669], 0x77 /* 'w' */
000003AA  656C                     bcs        +0x6E /* 00000418 */
000003AC  6400 096E                bcc        +0x970 /* 00000D1C */
000003B0  6577                     bcs        +0x79 /* 00000429 */
000003B2  4275 7474                clr.w      [A5 + D7.w * 4 + 0x74]
000003B6  6F6E                     ble        +0x70 /* 00000426 */
export_265:
000003B8  4E56 FFA2                link       A6, -0x005E
000003BC  48E7 1F08                movem.l    -[A7], D3,D4,D5,D6,D7,A4
000003C0  7001                     moveq.l    D0, 0x01
000003C2  B06D EFF4                cmp.w      D0, [A5 - 0x100C]
000003C6  5DC0                     slt        D0
000003C8  4A6D E276                tst.w      [A5 - 0x1D8A]
000003CC  56C1                     sne        D1
000003CE  C001                     and.b      D0, D1
000003D0  6716                     beq        +0x18 /* 000003E8 */
000003D2  7001                     moveq.l    D0, 0x01
000003D4  B06E 0008                cmp.w      D0, [A6 + 0x8]
000003D8  6606                     bne        +0x8 /* 000003E0 */
000003DA  4EBA 2576                jsr        [PC + 0x2576 /* 00002952 */]
000003DE  6004                     bra        +0x6 /* 000003E4 */
label000003E0:
000003E0  4EBA 2DA8                jsr        [PC + 0x2DA8 /* 0000318A */]
label000003E4:
000003E4  6000 04D0                bra        +0x4D2 /* 000008B6 */
label000003E8:
000003E8  486D E27A                pea.l      [A5 - 0x1D86]
000003EC  4EAD 207A                jsr        [A5 + 0x207A /* export_1035, CODE:20 @ 00000CEE */]
000003F0  7001                     moveq.l    D0, 0x01
000003F2  B06E 0008                cmp.w      D0, [A6 + 0x8]
000003F6  6604                     bne        +0x6 /* 000003FC */
000003F8  4EAD 0062                jsr        [A5 + 0x62 /* export_8, CODE:1 @ 0000184E */]
label000003FC:
000003FC  4EAD 009A                jsr        [A5 + 0x9A /* export_15, CODE:1 @ 00002548 */]
00000400  4267                     clr.w      -[A7]
00000402  2F2D F022                move.l     -[A7], [A5 - 0xFDE]
00000406  3F2E 0008                move.w     -[A7], [A6 + 0x8]
0000040A  486D E270                pea.l      [A5 - 0x1D90]
0000040E  486D E274                pea.l      [A5 - 0x1D8C]
00000412  4EAD 005A                jsr        [A5 + 0x5A /* export_7, CODE:1 @ 00001536 */]
00000416  101F                     move.b     D0, [A7]+
label00000418:
00000418  6604                     bne        +0x6 /* 0000041E */
0000041A  6000 049A                bra        +0x49C /* 000008B6 */
label0000041E:
0000041E  102D F4CD                move.b     D0, [A5 - 0xB33]
00000422  C02D F016                and.b      D0, [A5 - 0xFEA]
label00000426:
00000426  6724                     beq        +0x26 /* 0000044C */
00000428  2F2D E270                move.l     -[A7], [A5 - 0x1D90]
0000042C  3F2D E276                move.w     -[A7], [A5 - 0x1D8A]
00000430  4EAD 21A2                jsr        [A5 + 0x21A2 /* export_1072, CODE:20 @ 00003F38 */]
label00000434:
00000434  4267                     clr.w      -[A7]
00000436  4EAD 210A                jsr        [A5 + 0x210A /* export_1053, CODE:20 @ 000016F6 */]
0000043A  101F                     move.b     D0, [A7]+
0000043C  670A                     beq        +0xC /* 00000448 */
0000043E  486E FFFC                pea.l      [A6 - 0x4]
00000442  4EAD 20DA                jsr        [A5 + 0x20DA /* export_1047, CODE:20 @ 0000147C */]
00000446  60EC                     bra        -0x12 /* 00000434 */
label00000448:
00000448  6000 046C                bra        +0x46E /* 000008B6 */
label0000044C:
0000044C  102D F003                move.b     D0, [A5 - 0xFFD]
00000450  6758                     beq        +0x5A /* 000004AA */
00000452  4267                     clr.w      -[A7]
00000454  2F2D E270                move.l     -[A7], [A5 - 0x1D90]
00000458  3F2E 0008                move.w     -[A7], [A6 + 0x8]
0000045C  486E FFB2                pea.l      [A6 - 0x4E]
00000460  4EAD 1D52                jsr        [A5 + 0x1D52 /* export_934, CODE:18 @ 000004B2 */]
00000464  101F                     move.b     D0, [A7]+
00000466  6742                     beq        +0x44 /* 000004AA */
00000468  42A7                     clr.l      -[A7]
0000046A  2F2D E270                move.l     -[A7], [A5 - 0x1D90]
0000046E  3F2D E276                move.w     -[A7], [A5 - 0x1D8A]
00000472  4EAD 1DFA                jsr        [A5 + 0x1DFA /* export_955, CODE:18 @ 000010EC */]
00000476  285F                     movea.l    A4, [A7]+
00000478  200C                     move.l     D0, A4
0000047A  6606                     bne        +0x8 /* 00000482 */
0000047C  4EAD 1812                jsr        [A5 + 0x1812 /* export_766, CODE:16 @ 00000208 */]
00000480  6028                     bra        +0x2A /* 000004AA */
label00000482:
00000482  2054                     movea.l    A0, [A4]
00000484  316E FFB4 0002           move.w     [A0 + 0x2], [A6 - 0x4C]
0000048A  3B6E FFB4 E276           move.w     [A5 - 0x1D8A], [A6 - 0x4C]
00000490  4267                     clr.w      -[A7]
00000492  2F2D E270                move.l     -[A7], [A5 - 0x1D90]
00000496  2F0C                     move.l     -[A7], A4
00000498  4EAD 1E9A                jsr        [A5 + 0x1E9A /* export_975, CODE:18 @ 0000353A */]
0000049C  101F                     move.b     D0, [A7]+
0000049E  6604                     bne        +0x6 /* 000004A4 */
000004A0  4EAD 1812                jsr        [A5 + 0x1812 /* export_766, CODE:16 @ 00000208 */]
label000004A4:
000004A4  2F0C                     move.l     -[A7], A4
000004A6  4EAD 18D2                jsr        [A5 + 0x18D2 /* export_790, CODE:16 @ 0000083E */]
label000004AA:
000004AA  41ED FF7A                lea.l      A0, [A5 - 0x86]
000004AE  43ED E274                lea.l      A1, [A5 - 0x1D8C]
000004B2  7006                     moveq.l    D0, 0x06
label000004B4:
000004B4  20D9                     move.l     [A0]+, [A1]+
000004B6  51C8 FFFC                dbf        D0, -0x6 /* 000004B4 */
000004BA  3091                     move.w     [A0], [A1]
000004BC  2B6D E270 FF76           move.l     [A5 - 0x8A], [A5 - 0x1D90]
000004C2  7000                     moveq.l    D0, 0x00
000004C4  302D E282                move.w     D0, [A5 - 0x1D7E]
000004C8  C0BC 0000 000F           and.l      D0, 0xF
000004CE  3D40 FFA2                move.w     [A6 - 0x5E], D0
000004D2  3D7C 000C FFEA           move.w     [A6 - 0x16], 0xC
000004D8  3D7C 000C FFEC           move.w     [A6 - 0x14], 0xC
000004DE  7007                     moveq.l    D0, 0x07
000004E0  B06E FFA2                cmp.w      D0, [A6 - 0x5E]
000004E4  660C                     bne        +0xE /* 000004F2 */
000004E6  3D7C 0021 FFEA           move.w     [A6 - 0x16], 0x21 /* '!' */
000004EC  3D7C 001F FFEC           move.w     [A6 - 0x14], 0x1F
label000004F2:
000004F2  2D6D F022 FFFC           move.l     [A6 - 0x4], [A5 - 0xFDE]
000004F8  2F2D F022                move.l     -[A7], [A5 - 0xFDE]
000004FC  4EAD 17E2                jsr        [A5 + 0x17E2 /* export_760, CODE:15 @ 00006D92 */]
00000500  7E01                     moveq.l    D7, 0x01
00000502  302D E280                move.w     D0, [A5 - 0x1D80]
00000506  906D E27C                sub.w      D0, [A5 - 0x1D84]
0000050A  3D40 FFEE                move.w     [A6 - 0x12], D0
0000050E  302D E27E                move.w     D0, [A5 - 0x1D82]
00000512  906D E27A                sub.w      D0, [A5 - 0x1D86]
00000516  3D40 FFF0                move.w     [A6 - 0x10], D0
0000051A  2F3C 0004 0000           move.l     -[A7], 0x40000
00000520  302E FFEE                move.w     D0, [A6 - 0x12]
00000524  48C0                     ext.l      D0
00000526  81FC 0004                divs.w     D0, 0x4
0000052A  3F00                     move.w     -[A7], D0
0000052C  4EAD 18BA                jsr        [A5 + 0x18BA /* export_787, CODE:16 @ 000007C6 */]
00000530  3C1F                     move.w     D6, [A7]+
00000532  302D E280                move.w     D0, [A5 - 0x1D80]
00000536  9046                     sub.w      D0, D6
00000538  B06E FFFE                cmp.w      D0, [A6 - 0x2]
0000053C  6E22                     bgt        +0x24 /* 00000560 */
0000053E  41ED E280                lea.l      A0, [A5 - 0x1D80]
00000542  2D48 FFD2                move.l     [A6 - 0x2E], A0
00000546  302E FFEA                move.w     D0, [A6 - 0x16]
0000054A  906E FFEE                sub.w      D0, [A6 - 0x12]
0000054E  3D40 FFDA                move.w     [A6 - 0x26], D0
00000552  303C 0200                move.w     D0, 0x200
00000556  906D E280                sub.w      D0, [A5 - 0x1D80]
0000055A  3D40 FFDC                move.w     [A6 - 0x24], D0
0000055E  602E                     bra        +0x30 /* 0000058E */
label00000560:
00000560  3006                     move.w     D0, D6
00000562  D06D E27C                add.w      D0, [A5 - 0x1D84]
00000566  B06E FFFE                cmp.w      D0, [A6 - 0x2]
0000056A  6D20                     blt        +0x22 /* 0000058C */
0000056C  41ED E27C                lea.l      A0, [A5 - 0x1D84]
00000570  2D48 FFD2                move.l     [A6 - 0x2E], A0
00000574  302D E27C                move.w     D0, [A5 - 0x1D84]
00000578  4440                     neg.w      D0
0000057A  3D40 FFDA                move.w     [A6 - 0x26], D0
0000057E  302E FFEE                move.w     D0, [A6 - 0x12]
00000582  906E FFEA                sub.w      D0, [A6 - 0x16]
00000586  3D40 FFDC                move.w     [A6 - 0x24], D0
0000058A  6002                     bra        +0x4 /* 0000058E */
label0000058C:
0000058C  4207                     clr.b      D7
label0000058E:
0000058E  2F3C 0004 0000           move.l     -[A7], 0x40000
00000594  302E FFF0                move.w     D0, [A6 - 0x10]
00000598  48C0                     ext.l      D0
0000059A  81FC 0004                divs.w     D0, 0x4
0000059E  3F00                     move.w     -[A7], D0
000005A0  4EAD 18BA                jsr        [A5 + 0x18BA /* export_787, CODE:16 @ 000007C6 */]
000005A4  3C1F                     move.w     D6, [A7]+
000005A6  302D E27E                move.w     D0, [A5 - 0x1D82]
000005AA  9046                     sub.w      D0, D6
000005AC  B06E FFFC                cmp.w      D0, [A6 - 0x4]
000005B0  6E22                     bgt        +0x24 /* 000005D4 */
000005B2  41ED E27E                lea.l      A0, [A5 - 0x1D82]
000005B6  2D48 FFD6                move.l     [A6 - 0x2A], A0
000005BA  302E FFEC                move.w     D0, [A6 - 0x14]
000005BE  906E FFF0                sub.w      D0, [A6 - 0x10]
000005C2  3D40 FFDE                move.w     [A6 - 0x22], D0
000005C6  303C 0156                move.w     D0, 0x156
000005CA  906D E27E                sub.w      D0, [A5 - 0x1D82]
000005CE  3D40 FFE0                move.w     [A6 - 0x20], D0
000005D2  602E                     bra        +0x30 /* 00000602 */
label000005D4:
000005D4  3006                     move.w     D0, D6
000005D6  D06D E27A                add.w      D0, [A5 - 0x1D86]
000005DA  B06E FFFC                cmp.w      D0, [A6 - 0x4]
000005DE  6D20                     blt        +0x22 /* 00000600 */
000005E0  41ED E27A                lea.l      A0, [A5 - 0x1D86]
000005E4  2D48 FFD6                move.l     [A6 - 0x2A], A0
000005E8  302D E27A                move.w     D0, [A5 - 0x1D86]
000005EC  4440                     neg.w      D0
000005EE  3D40 FFDE                move.w     [A6 - 0x22], D0
000005F2  302E FFF0                move.w     D0, [A6 - 0x10]
000005F6  906E FFEC                sub.w      D0, [A6 - 0x14]
000005FA  3D40 FFE0                move.w     [A6 - 0x20], D0
000005FE  6002                     bra        +0x4 /* 00000602 */
label00000600:
00000600  4207                     clr.b      D7
label00000602:
00000602  102D F003                move.b     D0, [A5 - 0xFFD]
00000606  6702                     beq        +0x4 /* 0000060A */
00000608  4207                     clr.b      D7
label0000060A:
0000060A  1007                     move.b     D0, D7
0000060C  662C                     bne        +0x2E /* 0000063A */
0000060E  302D E27C                move.w     D0, [A5 - 0x1D84]
00000612  4440                     neg.w      D0
00000614  3D40 FFDA                move.w     [A6 - 0x26], D0
00000618  302D E27A                move.w     D0, [A5 - 0x1D86]
0000061C  4440                     neg.w      D0
0000061E  3D40 FFDE                move.w     [A6 - 0x22], D0
00000622  303C 0200                move.w     D0, 0x200
00000626  906D E280                sub.w      D0, [A5 - 0x1D80]
0000062A  3D40 FFDC                move.w     [A6 - 0x24], D0
0000062E  303C 0156                move.w     D0, 0x156
00000632  906D E27E                sub.w      D0, [A5 - 0x1D82]
00000636  3D40 FFE0                move.w     [A6 - 0x20], D0
label0000063A:
0000063A  422E FFAD                clr.b      [A6 - 0x53]
0000063E  7001                     moveq.l    D0, 0x01
00000640  B06E 0008                cmp.w      D0, [A6 + 0x8]
00000644  57C0                     seq        D0
00000646  2207                     move.l     D1, D7
00000648  C200                     and.b      D1, D0
0000064A  672C                     beq        +0x2E /* 00000678 */
0000064C  7000                     moveq.l    D0, 0x00
0000064E  302D E282                move.w     D0, [A5 - 0x1D7E]
00000652  C0BC 0000 000F           and.l      D0, 0xF
00000658  3D40 FFB0                move.w     [A6 - 0x50], D0
0000065C  3D6D E286 FFAE           move.w     [A6 - 0x52], [A5 - 0x1D7A]
00000662  7003                     moveq.l    D0, 0x03
00000664  B06E FFB0                cmp.w      D0, [A6 - 0x50]
00000668  57C0                     seq        D0
0000066A  4A6E FFAE                tst.w      [A6 - 0x52]
0000066E  57C1                     seq        D1
00000670  C001                     and.b      D0, D1
00000672  4400                     neg.b      D0
00000674  1D40 FFAD                move.b     [A6 - 0x53], D0
label00000678:
00000678  41EE FFF4                lea.l      A0, [A6 - 0xC]
0000067C  43ED E27A                lea.l      A1, [A5 - 0x1D86]
00000680  20D9                     move.l     [A0]+, [A1]+
00000682  20D9                     move.l     [A0]+, [A1]+
00000684  486E FFF4                pea.l      [A6 - 0xC]
00000688  486D E2F2                pea.l      [A5 - 0x1D0E]
0000068C  4EAD 1CEA                jsr        [A5 + 0x1CEA /* export_921, CODE:17 @ 00001DBA */]
00000690  486D EE38                pea.l      [A5 - 0x11C8]
00000694  A873                     syscall    SetPort
00000696  2F2D E270                move.l     -[A7], [A5 - 0x1D90]
0000069A  3F2D E276                move.w     -[A7], [A5 - 0x1D8A]
0000069E  4EAD 1682                jsr        [A5 + 0x1682 /* export_716, CODE:15 @ 00003082 */]
000006A2  2F2D E270                move.l     -[A7], [A5 - 0x1D90]
000006A6  3F2D E276                move.w     -[A7], [A5 - 0x1D8A]
000006AA  4EAD 16A2                jsr        [A5 + 0x16A2 /* export_720, CODE:15 @ 00003A22 */]
000006AE  426E FFE6                clr.w      [A6 - 0x1A]
000006B2  426E FFE8                clr.w      [A6 - 0x18]
000006B6  1D7C 0001 FFA7           move.b     [A6 - 0x59], 0x1
000006BC  1D7C 0001 FFA5           move.b     [A6 - 0x5B], 0x1
label000006C2:
000006C2  4267                     clr.w      -[A7]
000006C4  4EAD 210A                jsr        [A5 + 0x210A /* export_1053, CODE:20 @ 000016F6 */]
000006C8  101F                     move.b     D0, [A7]+
000006CA  6700 0156                beq        +0x158 /* 00000822 */
000006CE  2F2D EDC8                move.l     -[A7], [A5 - 0x1238]
000006D2  A873                     syscall    SetPort
000006D4  486E FFFC                pea.l      [A6 - 0x4]
000006D8  4EAD 20DA                jsr        [A5 + 0x20DA /* export_1047, CODE:20 @ 0000147C */]
000006DC  102E FFA5                move.b     D0, [A6 - 0x5B]
000006E0  673E                     beq        +0x40 /* 00000720 */
000006E2  2F00                     move.l     -[A7], D0
000006E4  4267                     clr.w      -[A7]
000006E6  2F2E FFFC                move.l     -[A7], [A6 - 0x4]
000006EA  2F2D F022                move.l     -[A7], [A5 - 0xFDE]
000006EE  3F3C 0002                move.w     -[A7], 0x2
000006F2  4EAD 1A72                jsr        [A5 + 0x1A72 /* export_842, CODE:16 @ 000019A8 */]
000006F6  121F                     move.b     D1, [A7]+
000006F8  201F                     move.l     D0, [A7]+
000006FA  C001                     and.b      D0, D1
000006FC  4A00                     tst.b      D0
000006FE  6720                     beq        +0x22 /* 00000720 */
00000700  2F00                     move.l     -[A7], D0
00000702  42A7                     clr.l      -[A7]
00000704  A975                     syscall    TickCount
00000706  221F                     move.l     D1, [A7]+
00000708  201F                     move.l     D0, [A7]+
0000070A  242D F01E                move.l     D2, [A5 - 0xFE2]
0000070E  7614                     moveq.l    D3, 0x14
00000710  D483                     add.l      D2, D3
00000712  B481                     cmp.l      D2, D1
00000714  5EC1                     sgt        D1
00000716  C001                     and.b      D0, D1
00000718  6706                     beq        +0x8 /* 00000720 */
0000071A  2D6D F022 FFFC           move.l     [A6 - 0x4], [A5 - 0xFDE]
label00000720:
00000720  4267                     clr.w      -[A7]
00000722  4EAD 221A                jsr        [A5 + 0x221A /* export_1087, CODE:20 @ 00004B46 */]
00000726  101F                     move.b     D0, [A7]+
00000728  6706                     beq        +0x8 /* 00000730 */
0000072A  1B7C 0001 F005           move.b     [A5 - 0xFFB], 0x1
label00000730:
00000730  102E FFAD                move.b     D0, [A6 - 0x53]
00000734  6608                     bne        +0xA /* 0000073E */
00000736  486E FFFC                pea.l      [A6 - 0x4]
0000073A  4EAD 17CA                jsr        [A5 + 0x17CA /* export_757, CODE:15 @ 00006960 */]
label0000073E:
0000073E  486D EE38                pea.l      [A5 - 0x11C8]
00000742  A873                     syscall    SetPort
00000744  4267                     clr.w      -[A7]
00000746  302E FFFE                move.w     D0, [A6 - 0x2]
0000074A  906D F024                sub.w      D0, [A5 - 0xFDC]
0000074E  3F00                     move.w     -[A7], D0
00000750  3F2E FFDA                move.w     -[A7], [A6 - 0x26]
00000754  3F2E FFDC                move.w     -[A7], [A6 - 0x24]
00000758  4EAD 1A8A                jsr        [A5 + 0x1A8A /* export_845, CODE:16 @ 000019F8 */]
0000075C  3A1F                     move.w     D5, [A7]+
0000075E  4267                     clr.w      -[A7]
00000760  302E FFFC                move.w     D0, [A6 - 0x4]
00000764  906D F022                sub.w      D0, [A5 - 0xFDE]
00000768  3F00                     move.w     -[A7], D0
0000076A  3F2E FFDE                move.w     -[A7], [A6 - 0x22]
0000076E  3F2E FFE0                move.w     -[A7], [A6 - 0x20]
00000772  4EAD 1A8A                jsr        [A5 + 0x1A8A /* export_845, CODE:16 @ 000019F8 */]
00000776  381F                     move.w     D4, [A7]+
00000778  BA6E FFE6                cmp.w      D5, [A6 - 0x1A]
0000077C  56C0                     sne        D0
0000077E  B86E FFE8                cmp.w      D4, [A6 - 0x18]
00000782  56C1                     sne        D1
00000784  8001                     or.b       D0, D1
00000786  4400                     neg.b      D0
00000788  1D40 FFA6                move.b     [A6 - 0x5A], D0
0000078C  802E FFA7                or.b       D0, [A6 - 0x59]
00000790  6700 008C                beq        +0x8E /* 0000081E */
00000794  486D E27A                pea.l      [A5 - 0x1D86]
00000798  486D E2F2                pea.l      [A5 - 0x1D0E]
0000079C  4EAD 1CEA                jsr        [A5 + 0x1CEA /* export_921, CODE:17 @ 00001DBA */]
000007A0  41ED E27A                lea.l      A0, [A5 - 0x1D86]
000007A4  43EE FFF4                lea.l      A1, [A6 - 0xC]
000007A8  20D9                     move.l     [A0]+, [A1]+
000007AA  20D9                     move.l     [A0]+, [A1]+
000007AC  1007                     move.b     D0, D7
000007AE  6728                     beq        +0x2A /* 000007D8 */
000007B0  206E FFD2                movea.l    A0, [A6 - 0x2E]
000007B4  3005                     move.w     D0, D5
000007B6  D150                     add.w      [A0], D0
000007B8  206E FFD6                movea.l    A0, [A6 - 0x2A]
000007BC  3004                     move.w     D0, D4
000007BE  D150                     add.w      [A0], D0
000007C0  102E FFAD                move.b     D0, [A6 - 0x53]
000007C4  C02D F005                and.b      D0, [A5 - 0xFFB]
000007C8  670C                     beq        +0xE /* 000007D6 */
000007CA  302D E27A                move.w     D0, [A5 - 0x1D86]
000007CE  D07C 0016                add.w      D0, 0x16
000007D2  3B40 E27E                move.w     [A5 - 0x1D82], D0
label000007D6:
000007D6  600A                     bra        +0xC /* 000007E2 */
label000007D8:
000007D8  486D E27A                pea.l      [A5 - 0x1D86]
000007DC  3F05                     move.w     -[A7], D5
000007DE  3F04                     move.w     -[A7], D4
000007E0  A8A8                     syscall    OffsetRect
label000007E2:
000007E2  486D E27A                pea.l      [A5 - 0x1D86]
000007E6  486D E2F2                pea.l      [A5 - 0x1D0E]
000007EA  4EAD 1CEA                jsr        [A5 + 0x1CEA /* export_921, CODE:17 @ 00001DBA */]
000007EE  4267                     clr.w      -[A7]
000007F0  2F2D E270                move.l     -[A7], [A5 - 0x1D90]
000007F4  486D E274                pea.l      [A5 - 0x1D8C]
000007F8  4EAD 1E6A                jsr        [A5 + 0x1E6A /* export_969, CODE:18 @ 00002E96 */]
000007FC  101F                     move.b     D0, [A7]+
000007FE  6604                     bne        +0x6 /* 00000804 */
00000800  4EAD 1812                jsr        [A5 + 0x1812 /* export_766, CODE:16 @ 00000208 */]
label00000804:
00000804  4EAD 1742                jsr        [A5 + 0x1742 /* export_740, CODE:15 @ 000050EE */]
00000808  3D45 FFE6                move.w     [A6 - 0x1A], D5
0000080C  3D44 FFE8                move.w     [A6 - 0x18], D4
00000810  102E FFA6                move.b     D0, [A6 - 0x5A]
00000814  6704                     beq        +0x6 /* 0000081A */
00000816  422E FFA5                clr.b      [A6 - 0x5B]
label0000081A:
0000081A  422E FFA7                clr.b      [A6 - 0x59]
label0000081E:
0000081E  6000 FEA2                bra        -0x15C /* 000006C2 */
label00000822:
00000822  486D E27A                pea.l      [A5 - 0x1D86]
00000826  486D E2F2                pea.l      [A5 - 0x1D0E]
0000082A  4EAD 1CEA                jsr        [A5 + 0x1CEA /* export_921, CODE:17 @ 00001DBA */]
0000082E  4EAD 1742                jsr        [A5 + 0x1742 /* export_740, CODE:15 @ 000050EE */]
00000832  41ED E2F2                lea.l      A0, [A5 - 0x1D0E]
00000836  43ED ED82                lea.l      A1, [A5 - 0x127E]
0000083A  20D9                     move.l     [A0]+, [A1]+
0000083C  20D9                     move.l     [A0]+, [A1]+
0000083E  102D F003                move.b     D0, [A5 - 0xFFD]
00000842  676C                     beq        +0x6E /* 000008B0 */
00000844  102E FFA5                move.b     D0, [A6 - 0x5B]
00000848  672C                     beq        +0x2E /* 00000876 */
0000084A  4267                     clr.w      -[A7]
0000084C  2F2D E270                move.l     -[A7], [A5 - 0x1D90]
00000850  3F2D E276                move.w     -[A7], [A5 - 0x1D8A]
00000854  4EAD 1D6A                jsr        [A5 + 0x1D6A /* export_937, CODE:18 @ 000008C0 */]
00000858  101F                     move.b     D0, [A7]+
0000085A  6604                     bne        +0x6 /* 00000860 */
0000085C  4EAD 1812                jsr        [A5 + 0x1812 /* export_766, CODE:16 @ 00000208 */]
label00000860:
00000860  486D E27A                pea.l      [A5 - 0x1D86]
00000864  4EAD 16D2                jsr        [A5 + 0x16D2 /* export_726, CODE:15 @ 0000402E */]
00000868  486D E27A                pea.l      [A5 - 0x1D86]
0000086C  4EAD 00BA                jsr        [A5 + 0xBA /* export_19, CODE:1 @ 00003970 */]
00000870  4EAD 009A                jsr        [A5 + 0x9A /* export_15, CODE:1 @ 00002548 */]
00000874  603A                     bra        +0x3C /* 000008B0 */
label00000876:
00000876  7001                     moveq.l    D0, 0x01
00000878  B06E 0008                cmp.w      D0, [A6 + 0x8]
0000087C  6610                     bne        +0x12 /* 0000088E */
0000087E  41ED E0E8                lea.l      A0, [A5 - 0x1F18]
00000882  43FA 0048                lea.l      A1, [PC + 0x48 /* 000008CC, value 0x96E6577 '\tnew', pstring "newButton" */]
00000886  20D9                     move.l     [A0]+, [A1]+
00000888  20D9                     move.l     [A0]+, [A1]+
0000088A  3091                     move.w     [A0], [A1]
0000088C  600E                     bra        +0x10 /* 0000089C */
label0000088E:
0000088E  41ED E0E8                lea.l      A0, [A5 - 0x1F18]
00000892  43FA 002E                lea.l      A1, [PC + 0x2E /* 000008C2, value 0x86E6577, pstring "newField" */]
00000896  20D9                     move.l     [A0]+, [A1]+
00000898  20D9                     move.l     [A0]+, [A1]+
0000089A  3091                     move.w     [A0], [A1]
label0000089C:
0000089C  2F2D E270                move.l     -[A7], [A5 - 0x1D90]
000008A0  3F2D E276                move.w     -[A7], [A5 - 0x1D8A]
000008A4  2F2D F62A                move.l     -[A7], [A5 - 0x9D6]
000008A8  2F2D F622                move.l     -[A7], [A5 - 0x9DE]
000008AC  4EAD 0B9A                jsr        [A5 + 0xB9A /* export_367, CODE:8 @ 00004010 */]
label000008B0:
000008B0  1B7C 0001 E303           move.b     [A5 - 0x1CFD], 0x1
label000008B6:
000008B6  4CDF 10F8                movem.l    D3,D4,D5,D6,D7,A4, [A7]+
000008BA  4E5E                     unlink     A6
000008BC  205F                     movea.l    A0, [A7]+
000008BE  544F                     addq.w     A7, 2
000008C0  4ED0                     jmp        [A0]
000008C2  086E 6577 4669           bchg.b     [A6 + 0x4669], 0x77 /* 'w' */
000008C8  656C                     bcs        +0x6E /* 00000936 */
000008CA  6400 096E                bcc        +0x970 /* 0000123A */
000008CE  6577                     bcs        +0x79 /* 00000947 */
000008D0  4275 7474                clr.w      [A5 + D7.w * 4 + 0x74]
000008D4  6F6E                     ble        +0x70 /* 00000944 */
fn000008D6:
000008D6  4E56 0000                link       A6, 0
000008DA  2F0C                     move.l     -[A7], A4
000008DC  286E 0008                movea.l    A4, [A6 + 0x8]
000008E0  4AAC F81C                tst.l      [A4 - 0x7E4]
000008E4  6708                     beq        +0xA /* 000008EE */
000008E6  2F2C F81C                move.l     -[A7], [A4 - 0x7E4]
000008EA  4EAD 1952                jsr        [A5 + 0x1952 /* export_806, CODE:16 @ 00000D00 */]
label000008EE:
000008EE  4AAC F84C                tst.l      [A4 - 0x7B4]
000008F2  6708                     beq        +0xA /* 000008FC */
000008F4  2F2C F84C                move.l     -[A7], [A4 - 0x7B4]
000008F8  4EAD 1952                jsr        [A5 + 0x1952 /* export_806, CODE:16 @ 00000D00 */]
label000008FC:
000008FC  4AAC F828                tst.l      [A4 - 0x7D8]
00000900  670A                     beq        +0xC /* 0000090C */
00000902  2F2C F82C                move.l     -[A7], [A4 - 0x7D4]
00000906  4267                     clr.w      -[A7]
00000908  4EAD 1EF2                jsr        [A5 + 0x1EF2 /* export_986, CODE:19 @ 00000450 */]
label0000090C:
0000090C  4AAC F838                tst.l      [A4 - 0x7C8]
00000910  670A                     beq        +0xC /* 0000091C */
00000912  2F2C F844                move.l     -[A7], [A4 - 0x7BC]
00000916  4267                     clr.w      -[A7]
00000918  4EAD 1EE2                jsr        [A5 + 0x1EE2 /* export_984, CODE:19 @ 00000414 */]
label0000091C:
0000091C  4267                     clr.w      -[A7]
0000091E  3F2C F826                move.w     -[A7], [A4 - 0x7DA]
00000922  4EAD 02F2                jsr        [A5 + 0x2F2 /* export_90, CODE:1 @ 0000486A */]
00000926  395F F820                move.w     [A4 - 0x7E0], [A7]+
0000092A  4267                     clr.w      -[A7]
0000092C  486C F3D2                pea.l      [A4 - 0xC2E]
00000930  3F2D FC46                move.w     -[A7], [A5 - 0x3BA]
00000934  4EAD 033A                jsr        [A5 + 0x33A /* export_99, CODE:1 @ 000049EA */]
// begin alternate branch 00000936-00000942
label00000936:
00000936  033A 395F                btst       [PC + 0x395F /* 00004297 */], D1
0000093A  F820 4A6E                .tblXX     0xF820, 0x4A6E // unimplemented
0000093E  000C 6708                ori.b      A4, 0x8
// end alternate branch 00000936-00000942
label00000936: // (misaligned)
00000938  395F F820                move.w     [A4 - 0x7E0], [A7]+
0000093C  4A6E 000C                tst.w      [A6 + 0xC]
00000940  6708                     beq        +0xA /* 0000094A */
00000942  3F2E 000C                move.w     -[A7], [A6 + 0xC]
// begin alternate branch 00000944-00000950
label00000944:
00000944  000C 4EAD                ori.b      A4, 0xAD
00000948  187A 206E                movea.b    A4, [PC + 0x206E /* 000029B8, value 0x4E 'N' */]
label0000094A: // (misaligned)
0000094C  0008 2C48                ori.b      A0, 0x48 /* 'H' */
// end alternate branch 00000944-00000950
label00000944: // (misaligned)
00000946  4EAD 187A                jsr        [A5 + 0x187A /* export_779, CODE:16 @ 00000500 */]
label0000094A:
0000094A  206E 0008                movea.l    A0, [A6 + 0x8]
0000094E  2C48                     movea.l    A6, A0
00000950  4EFA 166E                jmp        [PC + 0x166E /* 00001FC0 */]
00000954  0000 285F                ori.b      D0, 0x5F /* '_' */
00000958  4E5E                     unlink     A6
0000095A  205F                     movea.l    A0, [A7]+
0000095C  5C4F                     addq.w     A7, 6
0000095E  4ED0                     jmp        [A0]
fn00000960:
00000960  4E56 FFE0                link       A6, -0x0020
00000964  206E 000C                movea.l    A0, [A6 + 0xC]
00000968  43EE FFE0                lea.l      A1, [A6 - 0x20]
0000096C  7007                     moveq.l    D0, 0x07
label0000096E:
0000096E  22D8                     move.l     [A1]+, [A0]+
00000970  51C8 FFFC                dbf        D0, -0x6 /* 0000096E */
00000974  3F3C 0021                move.w     -[A7], 0x21 /* '!' */
00000978  2F2E 0008                move.l     -[A7], [A6 + 0x8]
0000097C  4EBA FF58                jsr        [PC - 0xA8 /* 000008D6 */]
00000980  4E5E                     unlink     A6
00000982  205F                     movea.l    A0, [A7]+
00000984  504F                     addq.w     A7, 8
00000986  4ED0                     jmp        [A0]
fn00000988:
00000988  4E56 0000                link       A6, 0
0000098C  2F0C                     move.l     -[A7], A4
0000098E  286E 0008                movea.l    A4, [A6 + 0x8]
00000992  4AAC F810                tst.l      [A4 - 0x7F0]
00000996  6F44                     ble        +0x46 /* 000009DC */
00000998  2F2C F81C                move.l     -[A7], [A4 - 0x7E4]
0000099C  4EAD 0222                jsr        [A5 + 0x222 /* export_64, CODE:1 @ 00004678 */]
000009A0  4267                     clr.w      -[A7]
000009A2  3F2C F826                move.w     -[A7], [A4 - 0x7DA]
000009A6  486C F822                pea.l      [A4 - 0x7DE]
000009AA  2F2C F810                move.l     -[A7], [A4 - 0x7F0]
000009AE  206C F81C                movea.l    A0, [A4 - 0x7E4]
000009B2  2F10                     move.l     -[A7], [A0]
000009B4  4EAD 1B2A                jsr        [A5 + 0x1B2A /* export_865, CODE:16 @ 00001E1C */]
000009B8  395F F820                move.w     [A4 - 0x7E0], [A7]+
000009BC  2F2C F81C                move.l     -[A7], [A4 - 0x7E4]
000009C0  4EAD 022A                jsr        [A5 + 0x22A /* export_65, CODE:1 @ 00004682 */]
000009C4  4A6C F820                tst.w      [A4 - 0x7E0]
000009C8  670C                     beq        +0xE /* 000009D6 */
000009CA  487A 0018                pea.l      [PC + 0x18 /* 000009E4, value 0x5666C75, pstring "flush" */]
000009CE  2F2E 0008                move.l     -[A7], [A6 + 0x8]
000009D2  4EBA FF8C                jsr        [PC - 0x74 /* 00000960 */]
label000009D6:
000009D6  7000                     moveq.l    D0, 0x00
000009D8  2940 F810                move.l     [A4 - 0x7F0], D0
label000009DC:
000009DC  285F                     movea.l    A4, [A7]+
000009DE  4E5E                     unlink     A6
000009E0  2E9F                     move.l     [A7], [A7]+
000009E2  4E75                     rts
000009E4  0566                     bchg       -[A6], D2
000009E6  6C75                     bge        +0x77 /* 00000A5D */
000009E8  7368                     moveq.l    D1, 0x68
fn000009EA:
000009EA  4E56 FFF0                link       A6, -0x0010
000009EE  48E7 0F18                movem.l    -[A7], D4,D5,D6,D7,A3,A4
000009F2  266E 000C                movea.l    A3, [A6 + 0xC]
000009F6  286E 0008                movea.l    A4, [A6 + 0x8]
000009FA  2053                     movea.l    A0, [A3]
000009FC  2A28 0008                move.l     D5, [A0 + 0x8]
00000A00  2C05                     move.l     D6, D5
00000A02  E08E                     lsr        D6, 8
00000A04  2005                     move.l     D0, D5
00000A06  C0BC 0000 00FF           and.l      D0, 0xFF
00000A0C  2800                     move.l     D4, D0
00000A0E  7008                     moveq.l    D0, 0x08
00000A10  B086                     cmp.l      D0, D6
00000A12  5EC0                     sgt        D0
00000A14  BCAC F854                cmp.l      D6, [A4 - 0x7AC]
00000A18  5CC1                     sge        D1
00000A1A  8001                     or.b       D0, D1
00000A1C  670C                     beq        +0xE /* 00000A2A */
00000A1E  487A 00D4                pea.l      [PC + 0xD4 /* 00000AF4, value 0xA626164 '\nbad', pstring "bad objNum" */]
00000A22  2F2E 0008                move.l     -[A7], [A6 + 0x8]
00000A26  4EBA FF38                jsr        [PC - 0xC8 /* 00000960 */]
label00000A2A:
00000A2A  202C F808                move.l     D0, [A4 - 0x7F8]
00000A2E  C0BC 0000 001F           and.l      D0, 0x1F
00000A34  4A80                     tst.l      D0
00000A36  670C                     beq        +0xE /* 00000A44 */
00000A38  487A 00AC                pea.l      [PC + 0xAC /* 00000AE6, value 0xD626164 '\rbad', pstring "bad objectLoc" */]
00000A3C  2F2E 0008                move.l     -[A7], [A6 + 0x8]
00000A40  4EBA FF1E                jsr        [PC - 0xE2 /* 00000960 */]
label00000A44:
00000A44  202C F808                move.l     D0, [A4 - 0x7F8]
00000A48  E780                     asl        D0, 3
00000A4A  D084                     add.l      D0, D4
00000A4C  206C F84C                movea.l    A0, [A4 - 0x7B4]
00000A50  2050                     movea.l    A0, [A0]
00000A52  2206                     move.l     D1, D6
00000A54  E581                     asl        D1, 2
00000A56  2180 1800                move.l     [A0 + D1], D0
00000A5A  4EAD 181A                jsr        [A5 + 0x181A /* export_767, CODE:16 @ 00000216 */]
00000A5E  2053                     movea.l    A0, [A3]
00000A60  2E10                     move.l     D7, [A0]
00000A62  2007                     move.l     D0, D7
00000A64  D0AC F810                add.l      D0, [A4 - 0x7F0]
00000A68  B0AC F818                cmp.l      D0, [A4 - 0x7E8]
00000A6C  6E1C                     bgt        +0x1E /* 00000A8A */
00000A6E  2F13                     move.l     -[A7], [A3]
00000A70  206C F81C                movea.l    A0, [A4 - 0x7E4]
00000A74  202C F810                move.l     D0, [A4 - 0x7F0]
00000A78  D090                     add.l      D0, [A0]
00000A7A  2F00                     move.l     -[A7], D0
00000A7C  2F07                     move.l     -[A7], D7
00000A7E  4EAD 024A                jsr        [A5 + 0x24A /* export_69, CODE:1 @ 000046A6 */]
00000A82  2007                     move.l     D0, D7
00000A84  D1AC F810                add.l      [A4 - 0x7F0], D0
00000A88  6044                     bra        +0x46 /* 00000ACE */
label00000A8A:
00000A8A  2F2E 0008                move.l     -[A7], [A6 + 0x8]
00000A8E  4EBA FEF8                jsr        [PC - 0x108 /* 00000988 */]
00000A92  2F0B                     move.l     -[A7], A3
00000A94  486C E2DB                pea.l      [A4 - 0x1D25]
00000A98  4EAD 1922                jsr        [A5 + 0x1922 /* export_800, CODE:16 @ 00000C02 */]
00000A9C  4267                     clr.w      -[A7]
00000A9E  3F2C F826                move.w     -[A7], [A4 - 0x7DA]
00000AA2  486C F822                pea.l      [A4 - 0x7DE]
00000AA6  2F07                     move.l     -[A7], D7
00000AA8  2F13                     move.l     -[A7], [A3]
00000AAA  4EAD 1B2A                jsr        [A5 + 0x1B2A /* export_865, CODE:16 @ 00001E1C */]
00000AAE  395F F820                move.w     [A4 - 0x7E0], [A7]+
00000AB2  2F0B                     move.l     -[A7], A3
00000AB4  1F2C E2DB                move.b     -[A7], [A4 - 0x1D25]
00000AB8  4EAD 03F2                jsr        [A5 + 0x3F2 /* export_122, CODE:1 @ 00004D00 */]
00000ABC  4A6C F820                tst.w      [A4 - 0x7E0]
00000AC0  670C                     beq        +0xE /* 00000ACE */
00000AC2  487A 001C                pea.l      [PC + 0x1C /* 00000AE0, value 0x5777269, pstring "write" */]
00000AC6  2F2E 0008                move.l     -[A7], [A6 + 0x8]
00000ACA  4EBA FE94                jsr        [PC - 0x16C /* 00000960 */]
label00000ACE:
00000ACE  2007                     move.l     D0, D7
00000AD0  D1AC F808                add.l      [A4 - 0x7F8], D0
00000AD4  4CDF 18F0                movem.l    D4,D5,D6,D7,A3,A4, [A7]+
00000AD8  4E5E                     unlink     A6
00000ADA  205F                     movea.l    A0, [A7]+
00000ADC  504F                     addq.w     A7, 8
00000ADE  4ED0                     jmp        [A0]
00000AE0  0577 7269                bchg       [A7 + D7.w * 2 + 0x69], D2
00000AE4  7465                     moveq.l    D2, 0x65
00000AE6  0D62                     bchg       -[A2], D6
00000AE8  6164                     bsr        +0x66 /* 00000B4E */
00000AEA  206F 626A                movea.l    A0, [A7 + 0x626A]
00000AEE  6563                     bcs        +0x65 /* 00000B53 */
00000AF0  744C                     moveq.l    D2, 0x4C
00000AF2  6F63                     ble        +0x65 /* 00000B57 */
00000AF4  0A62 6164                xori.w     -[A2], 0x6164 /* 'ad' */
00000AF8  206F 626A                movea.l    A0, [A7 + 0x626A]
00000AFC  4E75                     rts
00000AFE  6D00 4E56                blt        +0x4E58 /* 00005956 */
// begin alternate branch 00000B00-00000B04
fn00000B00:
00000B00  4E56 FFF8                link       A6, -0x0008
// end alternate branch 00000B00-00000B04
fn00000B00: // (misaligned)
00000B02  FFF8                     .invalid   <<F/7/7>>
00000B04  48E7 0018                movem.l    -[A7], A3,A4
00000B08  286E 0008                movea.l    A4, [A6 + 0x8]
00000B0C  42A7                     clr.l      -[A7]
00000B0E  2F2C F834                move.l     -[A7], [A4 - 0x7CC]
00000B12  4EAD 1F72                jsr        [A5 + 0x1F72 /* export_1002, CODE:19 @ 00001718 */]
00000B16  265F                     movea.l    A3, [A7]+
00000B18  200B                     move.l     D0, A3
00000B1A  673C                     beq        +0x3E /* 00000B58 */
00000B1C  2053                     movea.l    A0, [A3]
00000B1E  2F08                     move.l     -[A7], A0
00000B20  42A7                     clr.l      -[A7]
00000B22  2F08                     move.l     -[A7], A0
00000B24  42A7                     clr.l      -[A7]
00000B26  2F0B                     move.l     -[A7], A3
00000B28  4EAD 1EAA                jsr        [A5 + 0x1EAA /* export_977, CODE:18 @ 0000369A */]
00000B2C  201F                     move.l     D0, [A7]+
00000B2E  205F                     movea.l    A0, [A7]+
00000B30  2F00                     move.l     -[A7], D0
00000B32  4EAD 18EA                jsr        [A5 + 0x18EA /* export_793, CODE:16 @ 000008E4 */]
00000B36  201F                     move.l     D0, [A7]+
00000B38  205F                     movea.l    A0, [A7]+
00000B3A  2080                     move.l     [A0], D0
00000B3C  2F0B                     move.l     -[A7], A3
00000B3E  2F2E 0008                move.l     -[A7], [A6 + 0x8]
00000B42  4EBA FEA6                jsr        [PC - 0x15A /* 000009EA */]
00000B46  2F2C F834                move.l     -[A7], [A4 - 0x7CC]
00000B4A  4267                     clr.w      -[A7]
00000B4C  4EAD 1EEA                jsr        [A5 + 0x1EEA /* export_985, CODE:19 @ 00000432 */]
// begin alternate branch 00000B4E-00000B5C
fn00000B4E:
00000B4E  1EEA 2F2C                move.b     [A7]+, [A2 + 0x2F2C]
00000B52  F834 4EAD                .tblXX     0xF834, 0x4EAD // unimplemented
00000B56  1FAA 4CDF 1800           move.b     [A7 + D1], [A2 + 0x4CDF]
// end alternate branch 00000B4E-00000B5C
fn00000B4E: // (misaligned)
00000B50  2F2C F834                move.l     -[A7], [A4 - 0x7CC]
00000B54  4EAD 1FAA                jsr        [A5 + 0x1FAA /* export_1009, CODE:19 @ 00001BE8 */]
label00000B58:
00000B58  4CDF 1800                movem.l    A3,A4, [A7]+
00000B5C  4E5E                     unlink     A6
00000B5E  2E9F                     move.l     [A7], [A7]+
00000B60  4E75                     rts
fn00000B62:
00000B62  4E56 FFA0                link       A6, -0x0060
00000B66  206E 000C                movea.l    A0, [A6 + 0xC]
00000B6A  43EE FFEC                lea.l      A1, [A6 - 0x14]
00000B6E  7004                     moveq.l    D0, 0x04
label00000B70:
00000B70  22D8                     move.l     [A1]+, [A0]+
00000B72  51C8 FFFC                dbf        D0, -0x6 /* 00000B70 */
00000B76  487A 0050                pea.l      [PC + 0x50 /* 00000BC8, value 0x4426164, pstring "Bad " */]
00000B7A  486E FFEC                pea.l      [A6 - 0x14]
00000B7E  487A 003A                pea.l      [PC + 0x3A /* 00000BBA, value 0xD20696E '\r in', pstring " in bkgnd ID " */]
00000B82  486E FFA0                pea.l      [A6 - 0x60]
00000B86  206E 0008                movea.l    A0, [A6 + 0x8]
00000B8A  2068 0008                movea.l    A0, [A0 + 0x8]
00000B8E  2F28 F844                move.l     -[A7], [A0 - 0x7BC]
00000B92  4EAD 18B2                jsr        [A5 + 0x18B2 /* export_786, CODE:16 @ 00000738 */]
00000B96  486E FFB4                pea.l      [A6 - 0x4C]
00000B9A  3F3C 0004                move.w     -[A7], 0x4
00000B9E  4EAD 050A                jsr        [A5 + 0x50A /* export_157, CODE:1 @ 0000531E */]
00000BA2  486E FFB4                pea.l      [A6 - 0x4C]
00000BA6  206E 0008                movea.l    A0, [A6 + 0x8]
00000BAA  2F28 0008                move.l     -[A7], [A0 + 0x8]
00000BAE  4EBA FDB0                jsr        [PC - 0x250 /* 00000960 */]
00000BB2  4E5E                     unlink     A6
00000BB4  205F                     movea.l    A0, [A7]+
00000BB6  504F                     addq.w     A7, 8
00000BB8  4ED0                     jmp        [A0]
00000BBA  0D20                     btst       -[A0], D6
00000BBC  696E                     bvs        +0x70 /* 00000C2C */
00000BBE  2062                     movea.l    A0, -[A2]
00000BC0  6B67                     bmi        +0x69 /* 00000C29 */
00000BC2  6E64                     bgt        +0x66 /* 00000C28 */
00000BC4  2049                     movea.l    A0, A1
00000BC6  4420                     neg.b      -[A0]
00000BC8  0442 6164                subi.w     D2, 0x6164 /* 'ad' */
00000BCC  2000                     move.l     D0, D0
fn00000BCE:
00000BCE  4E56 FFF2                link       A6, -0x000E
00000BD2  48E7 0718                movem.l    -[A7], D5,D6,D7,A3,A4
00000BD6  286E 0008                movea.l    A4, [A6 + 0x8]
00000BDA  4AAC F838                tst.l      [A4 - 0x7C8]
00000BDE  660C                     bne        +0xE /* 00000BEC */
00000BE0  487A 012E                pea.l      [PC + 0x12E /* 00000D10, value 0xD626B67 '\rbkg', pstring "bkgndHndl NIL" */]
00000BE4  2F2E 0008                move.l     -[A7], [A6 + 0x8]
00000BE8  4EBA FD76                jsr        [PC - 0x28A /* 00000960 */]
label00000BEC:
00000BEC  4267                     clr.w      -[A7]
00000BEE  2F2C F838                move.l     -[A7], [A4 - 0x7C8]
00000BF2  4EAD 1D1A                jsr        [A5 + 0x1D1A /* export_927, CODE:18 @ 00000000 */]
00000BF6  101F                     move.b     D0, [A7]+
00000BF8  670A                     beq        +0xC /* 00000C04 */
00000BFA  487A 010E                pea.l      [PC + 0x10E /* 00000D0A, value 0x4646174, pstring "data" */]
00000BFE  2F0E                     move.l     -[A7], A6
00000C00  4EBA FF60                jsr        [PC - 0xA0 /* 00000B62 */]
label00000C04:
00000C04  206C F838                movea.l    A0, [A4 - 0x7C8]
00000C08  2A10                     move.l     D5, [A0]
00000C0A  702E                     moveq.l    D0, 0x2E
00000C0C  DA80                     add.l      D5, D0
00000C0E  2645                     movea.l    A3, D5
00000C10  206C F838                movea.l    A0, [A4 - 0x7C8]
00000C14  2050                     movea.l    A0, [A0]
00000C16  3D68 0020 FFF2           move.w     [A6 - 0xE], [A0 + 0x20]
00000C1C  7C01                     moveq.l    D6, 0x01
00000C1E  605A                     bra        +0x5C /* 00000C7A */
label00000C20:
00000C20  3E13                     move.w     D7, [A3]
00000C22  1007                     move.b     D0, D7
00000C24  0240 0001                andi.w     D0, 0x1
label00000C28:
00000C28  721E                     moveq.l    D1, 0x1E
00000C2A  B247                     cmp.w      D1, D7
label00000C2C:
00000C2C  5EC1                     sgt        D1
00000C2E  8001                     or.b       D0, D1
00000C30  3207                     move.w     D1, D7
00000C32  48C1                     ext.l      D1
00000C34  206C F838                movea.l    A0, [A4 - 0x7C8]
00000C38  2050                     movea.l    A0, [A0]
00000C3A  B2A8 0024                cmp.l      D1, [A0 + 0x24]
00000C3E  5EC1                     sgt        D1
00000C40  8001                     or.b       D0, D1
00000C42  0240 0001                andi.w     D0, 0x1
00000C46  670A                     beq        +0xC /* 00000C52 */
00000C48  487A 00B6                pea.l      [PC + 0xB6 /* 00000D00, value 0x8706172, pstring "partSize" */]
00000C4C  2F0E                     move.l     -[A7], A6
00000C4E  4EBA FF12                jsr        [PC - 0xEE /* 00000B62 */]
label00000C52:
00000C52  7001                     moveq.l    D0, 0x01
00000C54  B02B 0004                cmp.b      D0, [A3 + 0x4]
00000C58  56C0                     sne        D0
00000C5A  7202                     moveq.l    D1, 0x02
00000C5C  B22B 0004                cmp.b      D1, [A3 + 0x4]
00000C60  56C1                     sne        D1
00000C62  C001                     and.b      D0, D1
00000C64  670A                     beq        +0xC /* 00000C70 */
00000C66  487A 008E                pea.l      [PC + 0x8E /* 00000CF6, value 0x8706172, pstring "partKind" */]
00000C6A  2F0E                     move.l     -[A7], A6
00000C6C  4EBA FEF4                jsr        [PC - 0x10C /* 00000B62 */]
label00000C70:
00000C70  3007                     move.w     D0, D7
00000C72  48C0                     ext.l      D0
00000C74  D7C0                     add.l      A3, D0
00000C76  5246                     addq.w     D6, 1
00000C78  6906                     bvs        +0x8 /* 00000C80 */
label00000C7A:
00000C7A  BC6E FFF2                cmp.w      D6, [A6 - 0xE]
00000C7E  6FA0                     ble        -0x5E /* 00000C20 */
label00000C80:
00000C80  206C F838                movea.l    A0, [A4 - 0x7C8]
00000C84  2050                     movea.l    A0, [A0]
00000C86  200B                     move.l     D0, A3
00000C88  9085                     sub.l      D0, D5
00000C8A  B0A8 0024                cmp.l      D0, [A0 + 0x24]
00000C8E  670A                     beq        +0xC /* 00000C9A */
00000C90  487A 0056                pea.l      [PC + 0x56 /* 00000CE8, value 0xD746F74 '\rtot', pstring "totalPartSize" */]
00000C94  2F0E                     move.l     -[A7], A6
00000C96  4EBA FECA                jsr        [PC - 0x136 /* 00000B62 */]
label00000C9A:
00000C9A  206C F838                movea.l    A0, [A4 - 0x7C8]
00000C9E  2050                     movea.l    A0, [A0]
00000CA0  4A68 0028                tst.w      [A0 + 0x28]
00000CA4  670A                     beq        +0xC /* 00000CB0 */
00000CA6  487A 0036                pea.l      [PC + 0x36 /* 00000CDE, value 0x9746578 '\ttex', pstring "textCount" */]
00000CAA  2F0E                     move.l     -[A7], A6
00000CAC  4EBA FEB4                jsr        [PC - 0x14C /* 00000B62 */]
label00000CB0:
00000CB0  206C F838                movea.l    A0, [A4 - 0x7C8]
00000CB4  2050                     movea.l    A0, [A0]
00000CB6  4AA8 002A                tst.l      [A0 + 0x2A]
00000CBA  670A                     beq        +0xC /* 00000CC6 */
00000CBC  487A 0012                pea.l      [PC + 0x12 /* 00000CD0, value 0xD746F74 '\rtot', pstring "totalTextSize" */]
00000CC0  2F0E                     move.l     -[A7], A6
00000CC2  4EBA FE9E                jsr        [PC - 0x162 /* 00000B62 */]
label00000CC6:
00000CC6  4CDF 18E0                movem.l    D5,D6,D7,A3,A4, [A7]+
00000CCA  4E5E                     unlink     A6
00000CCC  2E9F                     move.l     [A7], [A7]+
00000CCE  4E75                     rts
00000CD0  0D74 6F74                bchg       <<invalid full ext with I/IS == 4>>, D6
00000CD4  616C                     bsr        +0x6E /* 00000D42 */
00000CD6  5465                     addq.w     -[A5], 2
00000CD8  7874                     moveq.l    D4, 0x74
00000CDA  5369 7A65                subq.w     [A1 + 0x7A65], 1
00000CDE  0974 6578 7443 6F75      bchg       [A4 + 0x74436F75], D4
00000CE6  6E74                     bgt        +0x76 /* 00000D5C */
00000CE8  0D74 6F74                bchg       <<invalid full ext with I/IS == 4>>, D6
00000CEC  616C                     bsr        +0x6E /* 00000D5A */
00000CEE  5061                     addq.w     -[A1], 8
00000CF0  7274                     moveq.l    D1, 0x74
00000CF2  5369 7A65                subq.w     [A1 + 0x7A65], 1
00000CF6  0870 6172 744B           bchg.b     [A0 + D7.w * 4 + 0x4B], 0x72 /* 'r' */
00000CFC  696E                     bvs        +0x70 /* 00000D6C */
00000CFE  6400 0870                bcc        +0x872 /* 00001570 */
00000D02  6172                     bsr        +0x74 /* 00000D76 */
00000D04  7453                     moveq.l    D2, 0x53
00000D06  697A                     bvs        +0x7C /* 00000D82 */
00000D08  6500 0464                bcs        +0x466 /* 0000116E */
00000D0C  6174                     bsr        +0x76 /* 00000D82 */
00000D0E  6100 0D62                bsr        +0xD64 /* 00001A72 */
00000D12  6B67                     bmi        +0x69 /* 00000D7B */
00000D14  6E64                     bgt        +0x66 /* 00000D7A */
00000D16  486E 646C                pea.l      [A6 + 0x646C]
00000D1A  204E                     movea.l    A0, A6
label00000D1C:
00000D1C  494C                     chk.w      D4, A4
fn00000D1E:
00000D1E  4E56 FFA0                link       A6, -0x0060
00000D22  206E 000C                movea.l    A0, [A6 + 0xC]
00000D26  43EE FFEC                lea.l      A1, [A6 - 0x14]
00000D2A  7004                     moveq.l    D0, 0x04
label00000D2C:
00000D2C  22D8                     move.l     [A1]+, [A0]+
00000D2E  51C8 FFFC                dbf        D0, -0x6 /* 00000D2C */
00000D32  487A 0050                pea.l      [PC + 0x50 /* 00000D84, value 0x4426164, pstring "Bad " */]
00000D36  486E FFEC                pea.l      [A6 - 0x14]
00000D3A  487A 003A                pea.l      [PC + 0x3A /* 00000D76, value 0xC20696E, pstring " in card ID " */]
00000D3E  486E FFA0                pea.l      [A6 - 0x60]
fn00000D42:
00000D42  206E 0008                movea.l    A0, [A6 + 0x8]
00000D46  2068 0008                movea.l    A0, [A0 + 0x8]
00000D4A  2F28 F82C                move.l     -[A7], [A0 - 0x7D4]
00000D4E  4EAD 18B2                jsr        [A5 + 0x18B2 /* export_786, CODE:16 @ 00000738 */]
00000D52  486E FFB4                pea.l      [A6 - 0x4C]
00000D56  3F3C 0004                move.w     -[A7], 0x4
fn00000D5A:
00000D5A  4EAD 050A                jsr        [A5 + 0x50A /* export_157, CODE:1 @ 0000531E */]
// begin alternate branch 00000D5C-00000D5E
label00000D5C:
00000D5C  050A                     btst       A2, D2
// end alternate branch 00000D5C-00000D5E
label00000D5C: // (misaligned)
00000D5E  486E FFB4                pea.l      [A6 - 0x4C]
00000D62  206E 0008                movea.l    A0, [A6 + 0x8]
00000D66  2F28 0008                move.l     -[A7], [A0 + 0x8]
00000D6A  4EBA FBF4                jsr        [PC - 0x40C /* 00000960 */]
// begin alternate branch 00000D6C-00000D6E
label00000D6C:
00000D6C  FBF4                     .invalid   <<F/7/5>>
// end alternate branch 00000D6C-00000D6E
label00000D6C: // (misaligned)
00000D6E  4E5E                     unlink     A6
00000D70  205F                     movea.l    A0, [A7]+
00000D72  504F                     addq.w     A7, 8
00000D74  4ED0                     jmp        [A0]
fn00000D76:
00000D76  0C20 696E                cmpi.b     -[A0], 0x6E /* 'n' */
label00000D7A:
00000D7A  2063                     movea.l    A0, -[A3]
00000D7C  6172                     bsr        +0x74 /* 00000DF0 */
00000D7E  6420                     bcc        +0x22 /* 00000DA0 */
00000D80  4944                     chk.w      D4, D4
fn00000D82:
00000D82  2000                     move.l     D0, D0
00000D84  0442 6164                subi.w     D2, 0x6164 /* 'ad' */
00000D88  2000                     move.l     D0, D0
fn00000D8A:
00000D8A  4E56 FFF2                link       A6, -0x000E
00000D8E  48E7 0718                movem.l    -[A7], D5,D6,D7,A3,A4
00000D92  286E 0008                movea.l    A4, [A6 + 0x8]
00000D96  4AAC F828                tst.l      [A4 - 0x7D8]
00000D9A  660C                     bne        +0xE /* 00000DA8 */
00000D9C  487A 00EA                pea.l      [PC + 0xEA /* 00000E88, value 0xC636172, pstring "cardHndl NIL" */]
label00000DA0:
00000DA0  2F2E 0008                move.l     -[A7], [A6 + 0x8]
00000DA4  4EBA FBBA                jsr        [PC - 0x446 /* 00000960 */]
label00000DA8:
00000DA8  4267                     clr.w      -[A7]
00000DAA  2F2C F828                move.l     -[A7], [A4 - 0x7D8]
00000DAE  4EAD 1D22                jsr        [A5 + 0x1D22 /* export_928, CODE:18 @ 00000082 */]
00000DB2  101F                     move.b     D0, [A7]+
00000DB4  670A                     beq        +0xC /* 00000DC0 */
00000DB6  487A 00CA                pea.l      [PC + 0xCA /* 00000E82, value 0x4646174, pstring "data" */]
00000DBA  2F0E                     move.l     -[A7], A6
00000DBC  4EBA FF60                jsr        [PC - 0xA0 /* 00000D1E */]
label00000DC0:
00000DC0  206C F828                movea.l    A0, [A4 - 0x7D8]
00000DC4  2A10                     move.l     D5, [A0]
00000DC6  7032                     moveq.l    D0, 0x32
00000DC8  DA80                     add.l      D5, D0
00000DCA  2645                     movea.l    A3, D5
00000DCC  206C F828                movea.l    A0, [A4 - 0x7D8]
00000DD0  2050                     movea.l    A0, [A0]
00000DD2  3D68 0024 FFF2           move.w     [A6 - 0xE], [A0 + 0x24]
00000DD8  7C01                     moveq.l    D6, 0x01
00000DDA  605A                     bra        +0x5C /* 00000E36 */
label00000DDC:
00000DDC  3E13                     move.w     D7, [A3]
00000DDE  1007                     move.b     D0, D7
00000DE0  0240 0001                andi.w     D0, 0x1
00000DE4  721E                     moveq.l    D1, 0x1E
00000DE6  B247                     cmp.w      D1, D7
00000DE8  5EC1                     sgt        D1
00000DEA  8001                     or.b       D0, D1
00000DEC  3207                     move.w     D1, D7
00000DEE  48C1                     ext.l      D1
fn00000DF0:
00000DF0  206C F828                movea.l    A0, [A4 - 0x7D8]
00000DF4  2050                     movea.l    A0, [A0]
00000DF6  B2A8 0028                cmp.l      D1, [A0 + 0x28]
00000DFA  5EC1                     sgt        D1
00000DFC  8001                     or.b       D0, D1
00000DFE  0240 0001                andi.w     D0, 0x1
00000E02  670A                     beq        +0xC /* 00000E0E */
00000E04  487A 0072                pea.l      [PC + 0x72 /* 00000E78, value 0x8706172, pstring "partSize" */]
00000E08  2F0E                     move.l     -[A7], A6
00000E0A  4EBA FF12                jsr        [PC - 0xEE /* 00000D1E */]
label00000E0E:
00000E0E  7001                     moveq.l    D0, 0x01
00000E10  B02B 0004                cmp.b      D0, [A3 + 0x4]
00000E14  56C0                     sne        D0
00000E16  7202                     moveq.l    D1, 0x02
00000E18  B22B 0004                cmp.b      D1, [A3 + 0x4]
00000E1C  56C1                     sne        D1
00000E1E  C001                     and.b      D0, D1
00000E20  670A                     beq        +0xC /* 00000E2C */
00000E22  487A 004A                pea.l      [PC + 0x4A /* 00000E6E, value 0x8706172, pstring "partKind" */]
00000E26  2F0E                     move.l     -[A7], A6
00000E28  4EBA FEF4                jsr        [PC - 0x10C /* 00000D1E */]
label00000E2C:
00000E2C  3007                     move.w     D0, D7
00000E2E  48C0                     ext.l      D0
00000E30  D7C0                     add.l      A3, D0
00000E32  5246                     addq.w     D6, 1
00000E34  6906                     bvs        +0x8 /* 00000E3C */
label00000E36:
00000E36  BC6E FFF2                cmp.w      D6, [A6 - 0xE]
00000E3A  6FA0                     ble        -0x5E /* 00000DDC */
label00000E3C:
00000E3C  206C F828                movea.l    A0, [A4 - 0x7D8]
00000E40  2050                     movea.l    A0, [A0]
00000E42  200B                     move.l     D0, A3
00000E44  9085                     sub.l      D0, D5
00000E46  B0A8 0028                cmp.l      D0, [A0 + 0x28]
00000E4A  670A                     beq        +0xC /* 00000E56 */
00000E4C  487A 0012                pea.l      [PC + 0x12 /* 00000E60, value 0xD746F74 '\rtot', pstring "totalPartSize" */]
00000E50  2F0E                     move.l     -[A7], A6
00000E52  4EBA FECA                jsr        [PC - 0x136 /* 00000D1E */]
label00000E56:
00000E56  4CDF 18E0                movem.l    D5,D6,D7,A3,A4, [A7]+
00000E5A  4E5E                     unlink     A6
00000E5C  2E9F                     move.l     [A7], [A7]+
00000E5E  4E75                     rts
00000E60  0D74 6F74                bchg       <<invalid full ext with I/IS == 4>>, D6
00000E64  616C                     bsr        +0x6E /* 00000ED2 */
00000E66  5061                     addq.w     -[A1], 8
00000E68  7274                     moveq.l    D1, 0x74
00000E6A  5369 7A65                subq.w     [A1 + 0x7A65], 1
00000E6E  0870 6172 744B           bchg.b     [A0 + D7.w * 4 + 0x4B], 0x72 /* 'r' */
00000E74  696E                     bvs        +0x70 /* 00000EE4 */
00000E76  6400 0870                bcc        +0x872 /* 000016E8 */
00000E7A  6172                     bsr        +0x74 /* 00000EEE */
00000E7C  7453                     moveq.l    D2, 0x53
00000E7E  697A                     bvs        +0x7C /* 00000EFA */
00000E80  6500 0464                bcs        +0x466 /* 000012E6 */
00000E84  6174                     bsr        +0x76 /* 00000EFA */
00000E86  6100 0C63                bsr        +0xC65 /* 00001AEB */
00000E8A  6172                     bsr        +0x74 /* 00000EFE */
00000E8C  6448                     bcc        +0x4A /* 00000ED6 */
00000E8E  6E64                     bgt        +0x66 /* 00000EF4 */
00000E90  6C20                     bge        +0x22 /* 00000EB2 */
00000E92  4E49                     trap       9
00000E94  4C00 4E56                muls.l     D6:D4, D0
// begin alternate branch 00000E96-00000E9A
fn00000E96:
00000E96  4E56 FFFA                link       A6, -0x0006
// end alternate branch 00000E96-00000E9A
fn00000E96: // (misaligned)
00000E98  FFFA                     .invalid   <<F/7/7>>
00000E9A  48E7 0018                movem.l    -[A7], A3,A4
00000E9E  286E 0008                movea.l    A4, [A6 + 0x8]
00000EA2  1D7C 0001 0010           move.b     [A6 + 0x10], 0x1
00000EA8  2F2E 000C                move.l     -[A7], [A6 + 0xC]
00000EAC  486E FFFE                pea.l      [A6 - 0x2]
00000EB0  7002                     moveq.l    D0, 0x02
label00000EB2:
00000EB2  2F00                     move.l     -[A7], D0
00000EB4  4EAD 19B2                jsr        [A5 + 0x19B2 /* export_818, CODE:16 @ 000010BE */]
00000EB8  4A6E FFFE                tst.w      [A6 - 0x2]
00000EBC  6606                     bne        +0x8 /* 00000EC4 */
00000EBE  422E 0010                clr.b      [A6 + 0x10]
00000EC2  6030                     bra        +0x32 /* 00000EF4 */
label00000EC4:
00000EC4  47EC EBE2                lea.l      A3, [A4 - 0x141E]
label00000EC8:
00000EC8  4A53                     tst.w      [A3]
00000ECA  670E                     beq        +0x10 /* 00000EDA */
00000ECC  3013                     move.w     D0, [A3]
00000ECE  B06E FFFE                cmp.w      D0, [A6 - 0x2]
fn00000ED2:
00000ED2  6602                     bne        +0x4 /* 00000ED6 */
00000ED4  601E                     bra        +0x20 /* 00000EF4 */
label00000ED6:
00000ED6  548B                     addq.l     A3, 2
00000ED8  60EE                     bra        -0x10 /* 00000EC8 */
label00000EDA:
00000EDA  47EC E410                lea.l      A3, [A4 - 0x1BF0]
label00000EDE:
00000EDE  4A53                     tst.w      [A3]
00000EE0  670E                     beq        +0x10 /* 00000EF0 */
00000EE2  3013                     move.w     D0, [A3]
label00000EE4:
00000EE4  B06E FFFE                cmp.w      D0, [A6 - 0x2]
00000EE8  6602                     bne        +0x4 /* 00000EEC */
00000EEA  6008                     bra        +0xA /* 00000EF4 */
label00000EEC:
00000EEC  548B                     addq.l     A3, 2
fn00000EEE:
00000EEE  60EE                     bra        -0x10 /* 00000EDE */
label00000EF0:
00000EF0  422E 0010                clr.b      [A6 + 0x10]
label00000EF4:
00000EF4  4CDF 1800                movem.l    A3,A4, [A7]+
00000EF8  4E5E                     unlink     A6
fn00000EFA:
00000EFA  205F                     movea.l    A0, [A7]+
00000EFC  504F                     addq.w     A7, 8
fn00000EFE:
00000EFE  4ED0                     jmp        [A0]
fn00000F00:
00000F00  4E56 FFC4                link       A6, -0x003C
00000F04  48E7 0F18                movem.l    -[A7], D4,D5,D6,D7,A3,A4
00000F08  286E 0008                movea.l    A4, [A6 + 0x8]
00000F0C  206C F828                movea.l    A0, [A4 - 0x7D8]
00000F10  2050                     movea.l    A0, [A0]
00000F12  2028 0020                move.l     D0, [A0 + 0x20]
00000F16  B0AC F844                cmp.l      D0, [A4 - 0x7BC]
00000F1A  6700 00A6                beq        +0xA8 /* 00000FC2 */
00000F1E  206C F828                movea.l    A0, [A4 - 0x7D8]
00000F22  2050                     movea.l    A0, [A0]
00000F24  2968 0020 F844           move.l     [A4 - 0x7BC], [A0 + 0x20]
00000F2A  42A7                     clr.l      -[A7]
00000F2C  2F2C F844                move.l     -[A7], [A4 - 0x7BC]
00000F30  4EAD 1F6A                jsr        [A5 + 0x1F6A /* export_1001, CODE:19 @ 000016EC */]
00000F34  295F F838                move.l     [A4 - 0x7C8], [A7]+
00000F38  660C                     bne        +0xE /* 00000F46 */
00000F3A  487A 01D0                pea.l      [PC + 0x1D0 /* 0000110C, value 0x9626B67 '\tbkg', pstring "bkgnd NIL" */]
00000F3E  2F2E 0008                move.l     -[A7], [A6 + 0x8]
00000F42  4EBA FA1C                jsr        [PC - 0x5E4 /* 00000960 */]
label00000F46:
00000F46  47EC EBE2                lea.l      A3, [A4 - 0x141E]
00000F4A  200B                     move.l     D0, A3
00000F4C  D0BC 0000 07D2           add.l      D0, 0x7D2
00000F52  5580                     subq.l     D0, 2
00000F54  2D40 FFF8                move.l     [A6 - 0x8], D0
00000F58  206C F838                movea.l    A0, [A4 - 0x7C8]
00000F5C  2E10                     move.l     D7, [A0]
00000F5E  702E                     moveq.l    D0, 0x2E
00000F60  DE80                     add.l      D7, D0
00000F62  206C F838                movea.l    A0, [A4 - 0x7C8]
00000F66  2050                     movea.l    A0, [A0]
00000F68  3D68 0020 FFDA           move.w     [A6 - 0x26], [A0 + 0x20]
00000F6E  7A01                     moveq.l    D5, 0x01
00000F70  6038                     bra        +0x3A /* 00000FAA */
label00000F72:
00000F72  2047                     movea.l    A0, D7
00000F74  7002                     moveq.l    D0, 0x02
00000F76  B028 0004                cmp.b      D0, [A0 + 0x4]
00000F7A  6622                     bne        +0x24 /* 00000F9E */
00000F7C  2047                     movea.l    A0, D7
00000F7E  36A8 0002                move.w     [A3], [A0 + 0x2]
00000F82  548B                     addq.l     A3, 2
00000F84  B7EE FFF8                cmpa.l     A3, [A6 - 0x8]
00000F88  6614                     bne        +0x16 /* 00000F9E */
00000F8A  2F2C F844                move.l     -[A7], [A4 - 0x7BC]
00000F8E  4267                     clr.w      -[A7]
00000F90  4EAD 1EE2                jsr        [A5 + 0x1EE2 /* export_984, CODE:19 @ 00000414 */]
00000F94  7000                     moveq.l    D0, 0x00
00000F96  2940 F838                move.l     [A4 - 0x7C8], D0
00000F9A  6000 0164                bra        +0x166 /* 00001100 */
label00000F9E:
00000F9E  2047                     movea.l    A0, D7
00000FA0  3010                     move.w     D0, [A0]
00000FA2  48C0                     ext.l      D0
00000FA4  DE80                     add.l      D7, D0
00000FA6  5245                     addq.w     D5, 1
00000FA8  6906                     bvs        +0x8 /* 00000FB0 */
label00000FAA:
00000FAA  BA6E FFDA                cmp.w      D5, [A6 - 0x26]
00000FAE  6FC2                     ble        -0x3C /* 00000F72 */
label00000FB0:
00000FB0  4253                     clr.w      [A3]
00000FB2  2F2C F844                move.l     -[A7], [A4 - 0x7BC]
00000FB6  4267                     clr.w      -[A7]
00000FB8  4EAD 1EE2                jsr        [A5 + 0x1EE2 /* export_984, CODE:19 @ 00000414 */]
00000FBC  7000                     moveq.l    D0, 0x00
00000FBE  2940 F838                move.l     [A4 - 0x7C8], D0
label00000FC2:
00000FC2  47EC E410                lea.l      A3, [A4 - 0x1BF0]
00000FC6  200B                     move.l     D0, A3
00000FC8  D0BC 0000 07D2           add.l      D0, 0x7D2
00000FCE  5580                     subq.l     D0, 2
00000FD0  2D40 FFF8                move.l     [A6 - 0x8], D0
00000FD4  206C F828                movea.l    A0, [A4 - 0x7D8]
00000FD8  2E10                     move.l     D7, [A0]
00000FDA  7032                     moveq.l    D0, 0x32
00000FDC  DE80                     add.l      D7, D0
00000FDE  206C F828                movea.l    A0, [A4 - 0x7D8]
00000FE2  2050                     movea.l    A0, [A0]
00000FE4  3D68 0024 FFD8           move.w     [A6 - 0x28], [A0 + 0x24]
00000FEA  7A01                     moveq.l    D5, 0x01
00000FEC  602C                     bra        +0x2E /* 0000101A */
label00000FEE:
00000FEE  2047                     movea.l    A0, D7
00000FF0  7002                     moveq.l    D0, 0x02
00000FF2  B028 0004                cmp.b      D0, [A0 + 0x4]
00000FF6  6616                     bne        +0x18 /* 0000100E */
00000FF8  2047                     movea.l    A0, D7
00000FFA  3028 0002                move.w     D0, [A0 + 0x2]
00000FFE  4440                     neg.w      D0
00001000  3680                     move.w     [A3], D0
00001002  548B                     addq.l     A3, 2
00001004  B7EE FFF8                cmpa.l     A3, [A6 - 0x8]
00001008  6604                     bne        +0x6 /* 0000100E */
0000100A  6000 00F4                bra        +0xF6 /* 00001100 */
label0000100E:
0000100E  2047                     movea.l    A0, D7
00001010  3010                     move.w     D0, [A0]
00001012  48C0                     ext.l      D0
00001014  DE80                     add.l      D7, D0
00001016  5245                     addq.w     D5, 1
00001018  6906                     bvs        +0x8 /* 00001020 */
label0000101A:
0000101A  BA6E FFD8                cmp.w      D5, [A6 - 0x28]
0000101E  6FCE                     ble        -0x30 /* 00000FEE */
label00001020:
00001020  4253                     clr.w      [A3]
00001022  206C F828                movea.l    A0, [A4 - 0x7D8]
00001026  226C F828                movea.l    A1, [A4 - 0x7D8]
0000102A  2251                     movea.l    A1, [A1]
0000102C  2011                     move.l     D0, [A1]
0000102E  D090                     add.l      D0, [A0]
00001030  2D40 FFEE                move.l     [A6 - 0x12], D0
00001034  206C F828                movea.l    A0, [A4 - 0x7D8]
00001038  2010                     move.l     D0, [A0]
0000103A  7232                     moveq.l    D1, 0x32
0000103C  D081                     add.l      D0, D1
0000103E  206C F828                movea.l    A0, [A4 - 0x7D8]
00001042  2050                     movea.l    A0, [A0]
00001044  2228 0028                move.l     D1, [A0 + 0x28]
00001048  D280                     add.l      D1, D0
0000104A  2D41 FFEA                move.l     [A6 - 0x16], D1
0000104E  2C2E FFEA                move.l     D6, [A6 - 0x16]
00001052  2D6E FFEA FFE2           move.l     [A6 - 0x1E], [A6 - 0x16]
00001058  426E FFE0                clr.w      [A6 - 0x20]
0000105C  206C F828                movea.l    A0, [A4 - 0x7D8]
00001060  2050                     movea.l    A0, [A0]
00001062  2828 002E                move.l     D4, [A0 + 0x2E]
label00001066:
00001066  2004                     move.l     D0, D4
00001068  D0AE FFEA                add.l      D0, [A6 - 0x16]
0000106C  B086                     cmp.l      D0, D6
0000106E  6F4A                     ble        +0x4C /* 000010BA */
00001070  2006                     move.l     D0, D6
00001072  5480                     addq.l     D0, 2
00001074  2D40 FFE2                move.l     [A6 - 0x1E], D0
00001078  486E FFE2                pea.l      [A6 - 0x1E]
0000107C  4EAD 1932                jsr        [A5 + 0x1932 /* export_802, CODE:16 @ 00000C5A */]
00001080  4267                     clr.w      -[A7]
00001082  2F06                     move.l     -[A7], D6
00001084  2F2E 0008                move.l     -[A7], [A6 + 0x8]
00001088  4EBA FE0C                jsr        [PC - 0x1F4 /* 00000E96 */]
0000108C  101F                     move.b     D0, [A7]+
0000108E  670A                     beq        +0xC /* 0000109A */
00001090  526E FFE0                addq.w     [A6 - 0x20], 1
00001094  2C2E FFE2                move.l     D6, [A6 - 0x1E]
00001098  601E                     bra        +0x20 /* 000010B8 */
label0000109A:
0000109A  2F2E FFE2                move.l     -[A7], [A6 - 0x1E]
0000109E  2F06                     move.l     -[A7], D6
000010A0  202E FFEE                move.l     D0, [A6 - 0x12]
000010A4  90AE FFE2                sub.l      D0, [A6 - 0x1E]
000010A8  2F00                     move.l     -[A7], D0
000010AA  4EAD 024A                jsr        [A5 + 0x24A /* export_69, CODE:1 @ 000046A6 */]
000010AE  2004                     move.l     D0, D4
000010B0  D086                     add.l      D0, D6
000010B2  2800                     move.l     D4, D0
000010B4  98AE FFE2                sub.l      D4, [A6 - 0x1E]
label000010B8:
000010B8  60AC                     bra        -0x52 /* 00001066 */
label000010BA:
000010BA  2004                     move.l     D0, D4
000010BC  D0AE FFEA                add.l      D0, [A6 - 0x16]
000010C0  B086                     cmp.l      D0, D6
000010C2  6726                     beq        +0x28 /* 000010EA */
000010C4  486E FFC4                pea.l      [A6 - 0x3C]
000010C8  2F2C F82C                move.l     -[A7], [A4 - 0x7D4]
000010CC  4EAD 18B2                jsr        [A5 + 0x18B2 /* export_786, CODE:16 @ 00000738 */]
000010D0  487A 0038                pea.l      [PC + 0x38 /* 0000110A, value 0x962 '\tb', cstring "" */]
000010D4  487A 0034                pea.l      [PC + 0x34 /* 0000110A, value 0x962 '\tb', cstring "" */]
000010D8  487A 0030                pea.l      [PC + 0x30 /* 0000110A, value 0x962 '\tb', cstring "" */]
000010DC  A98B                     syscall    ParamText
000010DE  3F3C 0022                move.w     -[A7], 0x22 /* '\"' */
000010E2  2F2E 0008                move.l     -[A7], [A6 + 0x8]
000010E6  4EBA F7EE                jsr        [PC - 0x812 /* 000008D6 */]
label000010EA:
000010EA  206C F828                movea.l    A0, [A4 - 0x7D8]
000010EE  2050                     movea.l    A0, [A0]
000010F0  316E FFE0 002C           move.w     [A0 + 0x2C], [A6 - 0x20]
000010F6  206C F828                movea.l    A0, [A4 - 0x7D8]
000010FA  2050                     movea.l    A0, [A0]
000010FC  2144 002E                move.l     [A0 + 0x2E], D4
label00001100:
00001100  4CDF 18F0                movem.l    D4,D5,D6,D7,A3,A4, [A7]+
00001104  4E5E                     unlink     A6
00001106  2E9F                     move.l     [A7], [A7]+
00001108  4E75                     rts
0000110A  0000 0962                ori.b      D0, 0x62 /* 'b' */
0000110E  6B67                     bmi        +0x69 /* 00001177 */
00001110  6E64                     bgt        +0x66 /* 00001176 */
00001112  204E                     movea.l    A0, A6
00001114  494C                     chk.w      D4, A4
fn00001116:
00001116  4E56 FF40                link       A6, -0x00C0
0000111A  48E7 0308                movem.l    -[A7], D6,D7,A4
0000111E  286E 0008                movea.l    A4, [A6 + 0x8]
00001122  4EAD 1D2A                jsr        [A5 + 0x1D2A /* export_929, CODE:18 @ 0000010C */]
00001126  4267                     clr.w      -[A7]
00001128  2F2D F670                move.l     -[A7], [A5 - 0x990]
0000112C  486E FF44                pea.l      [A6 - 0xBC]
00001130  4EAD 1DA2                jsr        [A5 + 0x1DA2 /* export_944, CODE:18 @ 00000C62 */]
00001134  101F                     move.b     D0, [A7]+
00001136  660C                     bne        +0xE /* 00001144 */
00001138  487A 00B4                pea.l      [PC + 0xB4 /* 000011EE, value 0xB476574, pstring "GetListInfo" */]
0000113C  2F2E 0008                move.l     -[A7], [A6 + 0x8]
00001140  4EBA F81E                jsr        [PC - 0x7E2 /* 00000960 */]
label00001144:
00001144  396E FF62 FEE4           move.w     [A4 - 0x11C], [A6 - 0x9E]
0000114A  396E FF60 FEE0           move.w     [A4 - 0x120], [A6 - 0xA0]
00001150  396E FF56 FEE8           move.w     [A4 - 0x118], [A6 - 0xAA]
00001156  7C00                     moveq.l    D6, 0x00
00001158  2D6D F668 FF40           move.l     [A6 - 0xC0], [A5 - 0x998]
0000115E  7E01                     moveq.l    D7, 0x01
00001160  604C                     bra        +0x4E /* 000011AE */
label00001162:
00001162  4267                     clr.w      -[A7]
00001164  2F2D F670                move.l     -[A7], [A5 - 0x990]
00001168  2F07                     move.l     -[A7], D7
0000116A  486E FF7C                pea.l      [A6 - 0x84]
label0000116E:
0000116E  4EAD 1D9A                jsr        [A5 + 0x1D9A /* export_943, CODE:18 @ 00000B9E */]
00001172  101F                     move.b     D0, [A7]+
00001174  660C                     bne        +0xE /* 00001182 */
label00001176:
00001176  487A 006C                pea.l      [PC + 0x6C /* 000011E4, value 0x8476574, pstring "GetEntry" */]
0000117A  2F2E 0008                move.l     -[A7], [A6 + 0x8]
0000117E  4EBA F7E0                jsr        [PC - 0x820 /* 00000960 */]
label00001182:
00001182  4267                     clr.w      -[A7]
00001184  486E FF80                pea.l      [A6 - 0x80]
00001188  3F2C FEE0                move.w     -[A7], [A4 - 0x120]
0000118C  4EAD 1BE2                jsr        [A5 + 0x1BE2 /* export_888, CODE:17 @ 000007A4 */]
00001190  301F                     move.w     D0, [A7]+
00001192  48C0                     ext.l      D0
00001194  DC80                     add.l      D6, D0
00001196  4267                     clr.w      -[A7]
00001198  4EAD 17FA                jsr        [A5 + 0x17FA /* export_763, CODE:16 @ 0000009E */]
0000119C  101F                     move.b     D0, [A7]+
0000119E  670A                     beq        +0xC /* 000011AA */
000011A0  4267                     clr.w      -[A7]
000011A2  2F2E 0008                move.l     -[A7], [A6 + 0x8]
000011A6  4EBA F72E                jsr        [PC - 0x8D2 /* 000008D6 */]
label000011AA:
000011AA  5287                     addq.l     D7, 1
000011AC  6906                     bvs        +0x8 /* 000011B4 */
label000011AE:
000011AE  BEAE FF40                cmp.l      D7, [A6 - 0xC0]
000011B2  6FAE                     ble        -0x50 /* 00001162 */
label000011B4:
000011B4  7064                     moveq.l    D0, 0x64
000011B6  2F00                     move.l     -[A7], D0
000011B8  2F06                     move.l     -[A7], D6
000011BA  4EAD 04EA                jsr        [A5 + 0x4EA /* export_153, CODE:1 @ 000051F0 */]
000011BE  302C FEE0                move.w     D0, [A4 - 0x120]
000011C2  EB40                     asl        D0.w, 5
000011C4  48C0                     ext.l      D0
000011C6  2F2D F668                move.l     -[A7], [A5 - 0x998]
000011CA  2F00                     move.l     -[A7], D0
000011CC  4EAD 04EA                jsr        [A5 + 0x4EA /* export_153, CODE:1 @ 000051F0 */]
000011D0  4EAD 04F2                jsr        [A5 + 0x4F2 /* export_154, CODE:1 @ 00005224 */]
000011D4  201F                     move.l     D0, [A7]+
000011D6  3940 FEDC                move.w     [A4 - 0x124], D0
000011DA  4CDF 10C0                movem.l    D6,D7,A4, [A7]+
000011DE  4E5E                     unlink     A6
000011E0  2E9F                     move.l     [A7], [A7]+
000011E2  4E75                     rts
000011E4  0847 6574                bchg.b     D7, 0x74 /* 't' */
000011E8  456E 7472                chk.w      D2, [A6 + 0x7472]
000011EC  7900                     moveq.l    D4, 0x00
000011EE  0B47                     bchg       D7, D5
000011F0  6574                     bcs        +0x76 /* 00001266 */
000011F2  4C69 7374 496E           divs.l     D6:D4, [A1 + 0x7374]
000011F8  666F                     bne        +0x71 /* 00001269 */
fn000011FA:
000011FA  4E56 FFE8                link       A6, -0x0018
000011FE  48E7 0F08                movem.l    -[A7], D4,D5,D6,D7,A4
00001202  286E 0008                movea.l    A4, [A6 + 0x8]
00001206  42A7                     clr.l      -[A7]
00001208  3F2C FEEA                move.w     -[A7], [A4 - 0x116]
0000120C  302C FEE2                move.w     D0, [A4 - 0x11E]
00001210  5240                     addq.w     D0, 1
00001212  E540                     asl        D0.w, 2
00001214  3F00                     move.w     -[A7], D0
00001216  3F2C FEE2                move.w     -[A7], [A4 - 0x11E]
0000121A  3F2C FEE6                move.w     -[A7], [A4 - 0x11A]
0000121E  3F3C 0002                move.w     -[A7], 0x2
00001222  4EAD 1D4A                jsr        [A5 + 0x1D4A /* export_933, CODE:18 @ 00000406 */]
00001226  2E1F                     move.l     D7, [A7]+
00001228  660C                     bne        +0xE /* 00001236 */
0000122A  487A 00D4                pea.l      [PC + 0xD4 /* 00001300, value 0xA437265 '\nCre', pstring "CreateList" */]
0000122E  2F2E 0008                move.l     -[A7], [A6 + 0x8]
00001232  4EBA F72C                jsr        [PC - 0x8D4 /* 00000960 */]
label00001236:
00001236  7A00                     moveq.l    D5, 0x00
00001238  2D6D F668 FFE8           move.l     [A6 - 0x18], [A5 - 0x998]
// begin alternate branch 0000123A-0000123E
label0000123A:
0000123A  F668 FFE8                .extension 0x668 <<F/1/3>>, 0xFFE8 // unimplemented
// end alternate branch 0000123A-0000123E
label0000123A: // (misaligned)
0000123E  7C01                     moveq.l    D6, 0x01
00001240  607E                     bra        +0x80 /* 000012C0 */
label00001242:
00001242  4EAD 181A                jsr        [A5 + 0x181A /* export_767, CODE:16 @ 00000216 */]
00001246  4267                     clr.w      -[A7]
00001248  4EAD 17FA                jsr        [A5 + 0x17FA /* export_763, CODE:16 @ 0000009E */]
0000124C  101F                     move.b     D0, [A7]+
0000124E  670A                     beq        +0xC /* 0000125A */
00001250  4267                     clr.w      -[A7]
00001252  2F2E 0008                move.l     -[A7], [A6 + 0x8]
00001256  4EBA F67E                jsr        [PC - 0x982 /* 000008D6 */]
label0000125A:
0000125A  486C FE58                pea.l      [A4 - 0x1A8]
0000125E  2F3C 0000 0084           move.l     -[A7], 0x84
00001264  4EAD 1B42                jsr        [A5 + 0x1B42 /* export_868, CODE:16 @ 00001E7C */]
// begin alternate branch 00001266-0000126A
label00001266:
00001266  1B42 42A7                move.b     [A5 + 0x42A7], D2
// end alternate branch 00001266-0000126A
label00001266: // (misaligned)
00001268  42A7                     clr.l      -[A7]
0000126A  2F2D F670                move.l     -[A7], [A5 - 0x990]
0000126E  2F06                     move.l     -[A7], D6
00001270  4EAD 1E22                jsr        [A5 + 0x1E22 /* export_960, CODE:18 @ 00001CCC */]
00001274  295F FE58                move.l     [A4 - 0x1A8], [A7]+
00001278  42A7                     clr.l      -[A7]
0000127A  2F2C FE58                move.l     -[A7], [A4 - 0x1A8]
0000127E  4EAD 1ECA                jsr        [A5 + 0x1ECA /* export_981, CODE:19 @ 000000FC */]
00001282  281F                     move.l     D4, [A7]+
00001284  BA84                     cmp.l      D5, D4
00001286  6708                     beq        +0xA /* 00001290 */
00001288  08EC 0006 FE5C           bset.b     [A4 - 0x1A4], 0x6
0000128E  2A04                     move.l     D5, D4
label00001290:
00001290  4267                     clr.w      -[A7]
00001292  2F07                     move.l     -[A7], D7
00001294  2F3C 7FFF FFFF           move.l     -[A7], 0x7FFFFFFF
0000129A  486C FE58                pea.l      [A4 - 0x1A8]
0000129E  4EAD 1E1A                jsr        [A5 + 0x1E1A /* export_959, CODE:18 @ 00001390 */]
000012A2  101F                     move.b     D0, [A7]+
000012A4  660C                     bne        +0xE /* 000012B2 */
000012A6  487A 004C                pea.l      [PC + 0x4C /* 000012F4, value 0xB496E73, pstring "InsertEntry" */]
000012AA  2F2E 0008                move.l     -[A7], [A6 + 0x8]
000012AE  4EBA F6B0                jsr        [PC - 0x950 /* 00000960 */]
label000012B2:
000012B2  2F07                     move.l     -[A7], D7
000012B4  2F06                     move.l     -[A7], D6
000012B6  4267                     clr.w      -[A7]
000012B8  4EAD 1EC2                jsr        [A5 + 0x1EC2 /* export_980, CODE:18 @ 00003918 */]
000012BC  5286                     addq.l     D6, 1
000012BE  6908                     bvs        +0xA /* 000012C8 */
label000012C0:
000012C0  BCAE FFE8                cmp.l      D6, [A6 - 0x18]
000012C4  6F00 FF7C                ble        -0x82 /* 00001242 */
label000012C8:
000012C8  2D6D F670 FFF8           move.l     [A6 - 0x8], [A5 - 0x990]
000012CE  2B47 F670                move.l     [A5 - 0x990], D7
000012D2  1B7C 0001 F63B           move.b     [A5 - 0x9C5], 0x1
000012D8  4EAD 1ED2                jsr        [A5 + 0x1ED2 /* export_982, CODE:19 @ 00000172 */]
000012DC  4267                     clr.w      -[A7]
000012DE  2F2E FFF8                move.l     -[A7], [A6 - 0x8]
000012E2  4EAD 1D62                jsr        [A5 + 0x1D62 /* export_936, CODE:18 @ 00000834 */]
label000012E6:
000012E6  195F E2E7                move.b     [A4 - 0x1D19], [A7]+
000012EA  4CDF 10F0                movem.l    D4,D5,D6,D7,A4, [A7]+
000012EE  4E5E                     unlink     A6
000012F0  2E9F                     move.l     [A7], [A7]+
000012F2  4E75                     rts
000012F4  0B49                     bchg       A1, D5
000012F6  6E73                     bgt        +0x75 /* 0000136B */
000012F8  6572                     bcs        +0x74 /* 0000136C */
000012FA  7445                     moveq.l    D2, 0x45
000012FC  6E74                     bgt        +0x76 /* 00001372 */
000012FE  7279                     moveq.l    D1, 0x79
00001300  0A43 7265                xori.w     D3, 0x7265 /* 're' */
00001304  6174                     bsr        +0x76 /* 0000137A */
00001306  654C                     bcs        +0x4E /* 00001354 */
00001308  6973                     bvs        +0x75 /* 0000137D */
0000130A  7400                     moveq.l    D2, 0x00
fn0000130C:
0000130C  4E56 0000                link       A6, 0
00001310  2F0C                     move.l     -[A7], A4
00001312  286E 0008                movea.l    A4, [A6 + 0x8]
00001316  42A7                     clr.l      -[A7]
00001318  2F2E 0010                move.l     -[A7], [A6 + 0x10]
0000131C  2F2E 000C                move.l     -[A7], [A6 + 0xC]
00001320  4EAD 1F8A                jsr        [A5 + 0x1F8A /* export_1005, CODE:19 @ 00001926 */]
00001324  295F F3B4                move.l     [A4 - 0xC4C], [A7]+
00001328  6716                     beq        +0x18 /* 00001340 */
0000132A  2F2C F3B4                move.l     -[A7], [A4 - 0xC4C]
0000132E  2F2E 0008                move.l     -[A7], [A6 + 0x8]
00001332  4EBA F6B6                jsr        [PC - 0x94A /* 000009EA */]
00001336  2F2E 0010                move.l     -[A7], [A6 + 0x10]
0000133A  4267                     clr.w      -[A7]
0000133C  4EAD 1F02                jsr        [A5 + 0x1F02 /* export_988, CODE:19 @ 000004D6 */]
label00001340:
00001340  285F                     movea.l    A4, [A7]+
00001342  4E5E                     unlink     A6
00001344  205F                     movea.l    A0, [A7]+
00001346  DEFC 000C                add.w      A7, 0xC
0000134A  4ED0                     jmp        [A0]
export_266:
0000134C  4E56 E252                link       A6, -0x1DAE
00001350  48E7 1F38                movem.l    -[A7], D3,D4,D5,D6,D7,A2,A3,A4
label00001354:
00001354  102D F4CD                move.b     D0, [A5 - 0xB33]
00001358  6708                     beq        +0xA /* 00001362 */
0000135A  4EAD 15BA                jsr        [A5 + 0x15BA /* export_691, CODE:15 @ 00000AE6 */]
0000135E  6000 0C60                bra        +0xC62 /* 00001FC0 */
label00001362:
00001362  1F3C 0001                move.b     -[A7], 0x1
00001366  4EAD 1542                jsr        [A5 + 0x1542 /* export_676, CODE:15 @ 00000000 */]
0000136A  7000                     moveq.l    D0, 0x00
label0000136C:
0000136C  2D40 F81C                move.l     [A6 - 0x7E4], D0
00001370  7000                     moveq.l    D0, 0x00
label00001372:
00001372  2D40 F84C                move.l     [A6 - 0x7B4], D0
00001376  7000                     moveq.l    D0, 0x00
00001378  2D40 F828                move.l     [A6 - 0x7D8], D0
// begin alternate branch 0000137A-0000137E
fn0000137A:
0000137A  F828 7000                .tblXX     0xF828, 0x7000 // unimplemented
// end alternate branch 0000137A-0000137E
fn0000137A: // (misaligned)
0000137C  7000                     moveq.l    D0, 0x00
0000137E  2D40 F838                move.l     [A6 - 0x7C8], D0
00001382  4EAD 181A                jsr        [A5 + 0x181A /* export_767, CODE:16 @ 00000216 */]
00001386  42A7                     clr.l      -[A7]
00001388  3F2D FC42                move.w     -[A7], [A5 - 0x3BE]
0000138C  4EAD 2252                jsr        [A5 + 0x2252 /* export_1094, CODE:20 @ 000050CA */]
00001390  2D5F F5D6                move.l     [A6 - 0xA2A], [A7]+
00001394  202D F650                move.l     D0, [A5 - 0x9B0]
00001398  90AD F678                sub.l      D0, [A5 - 0x988]
0000139C  222E F5D6                move.l     D1, [A6 - 0xA2A]
000013A0  D280                     add.l      D1, D0
000013A2  2D41 F5DA                move.l     [A6 - 0xA26], D1
000013A6  42A7                     clr.l      -[A7]
000013A8  3F2D FC44                move.w     -[A7], [A5 - 0x3BC]
000013AC  4EAD 19F2                jsr        [A5 + 0x19F2 /* export_826, CODE:16 @ 000013B8 */]
000013B0  201F                     move.l     D0, [A7]+
000013B2  90BC 0000 1000           sub.l      D0, 0x1000
000013B8  B0AE F5DA                cmp.l      D0, [A6 - 0xA26]
000013BC  6C0C                     bge        +0xE /* 000013CA */
000013BE  3F3C 0005                move.w     -[A7], 0x5
000013C2  4EAD 187A                jsr        [A5 + 0x187A /* export_779, CODE:16 @ 00000500 */]
000013C6  6000 0BF8                bra        +0xBFA /* 00001FC0 */
label000013CA:
000013CA  41EE F4D2                lea.l      A0, [A6 - 0xB2E]
000013CE  43ED FD48                lea.l      A1, [A5 - 0x2B8]
000013D2  7007                     moveq.l    D0, 0x07
label000013D4:
000013D4  20D9                     move.l     [A0]+, [A1]+
000013D6  51C8 FFFC                dbf        D0, -0x6 /* 000013D4 */
000013DA  3D7C 0001 F3D0           move.w     [A6 - 0xC30], 0x1
000013E0  6074                     bra        +0x76 /* 00001456 */
label000013E2:
000013E2  487A 0C30                pea.l      [PC + 0xC30 /* 00002014, value 0xA487970 '\nHyp', pstring "HyperTemp " */]
000013E6  486E E2A8                pea.l      [A6 - 0x1D58]
000013EA  302E F3D0                move.w     D0, [A6 - 0xC30]
000013EE  48C0                     ext.l      D0
000013F0  2F00                     move.l     -[A7], D0
000013F2  4EAD 1902                jsr        [A5 + 0x1902 /* export_796, CODE:16 @ 000009D4 */]
000013F6  486E E2BC                pea.l      [A6 - 0x1D44]
000013FA  3F3C 0002                move.w     -[A7], 0x2
000013FE  4EAD 050A                jsr        [A5 + 0x50A /* export_157, CODE:1 @ 0000531E */]
00001402  41EE F3D2                lea.l      A0, [A6 - 0xC2E]
00001406  43EE E2BC                lea.l      A1, [A6 - 0x1D44]
0000140A  7006                     moveq.l    D0, 0x06
label0000140C:
0000140C  20D9                     move.l     [A0]+, [A1]+
0000140E  51C8 FFFC                dbf        D0, -0x6 /* 0000140C */
00001412  3091                     move.w     [A0], [A1]
00001414  4267                     clr.w      -[A7]
00001416  486E F3D2                pea.l      [A6 - 0xC2E]
0000141A  3F2D FC46                move.w     -[A7], [A5 - 0x3BA]
0000141E  2F3A 0BCC                move.l     -[A7], [PC + 0xBCC /* 00001FEC, value 0x57494C44 'WILD' */]
00001422  2F3A 0BEC                move.l     -[A7], [PC + 0xBEC /* 00002010, value 0x5354414B 'STAK', cstring "STAK\
HyperTemp " */]
00001426  4EAD 0332                jsr        [A5 + 0x332 /* export_98, CODE:1 @ 000049A8 */]
0000142A  4A5F                     tst.w      [A7]+
0000142C  57C0                     seq        D0
0000142E  4A00                     tst.b      D0
00001430  6720                     beq        +0x22 /* 00001452 */
00001432  2F00                     move.l     -[A7], D0
00001434  4267                     clr.w      -[A7]
00001436  486E F3D2                pea.l      [A6 - 0xC2E]
0000143A  3F2D FC46                move.w     -[A7], [A5 - 0x3BA]
0000143E  486E F826                pea.l      [A6 - 0x7DA]
00001442  4EAD 02EA                jsr        [A5 + 0x2EA /* export_89, CODE:1 @ 00004832 */]
00001446  321F                     move.w     D1, [A7]+
00001448  201F                     move.l     D0, [A7]+
0000144A  4A41                     tst.w      D1
0000144C  57C1                     seq        D1
0000144E  C001                     and.b      D0, D1
00001450  6618                     bne        +0x1A /* 0000146A */
label00001452:
00001452  526E F3D0                addq.w     [A6 - 0xC30], 1
label00001456:
00001456  7014                     moveq.l    D0, 0x14
00001458  B06E F3D0                cmp.w      D0, [A6 - 0xC30]
0000145C  6C84                     bge        -0x7A /* 000013E2 */
0000145E  3F3C 0006                move.w     -[A7], 0x6
00001462  4EAD 187A                jsr        [A5 + 0x187A /* export_779, CODE:16 @ 00000500 */]
00001466  6000 0B58                bra        +0xB5A /* 00001FC0 */
label0000146A:
0000146A  2F0E                     move.l     -[A7], A6
0000146C  4EBA FCA8                jsr        [PC - 0x358 /* 00001116 */]
00001470  3D7C 0003 FEE6           move.w     [A6 - 0x11A], 0x3
00001476  0CAD 0000 010E F668      cmpi.l     [A5 - 0x998], 0x10E
0000147E  6F06                     ble        +0x8 /* 00001486 */
00001480  3D7C 0004 FEE6           move.w     [A6 - 0x11A], 0x4
label00001486:
00001486  0CAD 0000 032A F668      cmpi.l     [A5 - 0x998], 0x32A
0000148E  6F06                     ble        +0x8 /* 00001496 */
00001490  3D7C 0005 FEE6           move.w     [A6 - 0x11A], 0x5
label00001496:
00001496  0CAD 0000 097E F668      cmpi.l     [A5 - 0x998], 0x97E /* '\t~' */
0000149E  6F06                     ble        +0x8 /* 000014A6 */
000014A0  3D7C 0006 FEE6           move.w     [A6 - 0x11A], 0x6
label000014A6:
000014A6  0CAD 0000 1C7A F668      cmpi.l     [A5 - 0x998], 0x1C7A
000014AE  6F06                     ble        +0x8 /* 000014B6 */
000014B0  3D7C 0007 FEE6           move.w     [A6 - 0x11A], 0x7
label000014B6:
000014B6  42A7                     clr.l      -[A7]
000014B8  302E FEE6                move.w     D0, [A6 - 0x11A]
000014BC  5240                     addq.w     D0, 1
000014BE  C1EE FEE0                muls.w     D0, [A6 - 0x120]
000014C2  C1EE FEDC                muls.w     D0, [A6 - 0x124]
000014C6  3D40 E29C                move.w     [A6 - 0x1D64], D0
000014CA  486E E29C                pea.l      [A6 - 0x1D64]
000014CE  486E E29E                pea.l      [A6 - 0x1D62]
000014D2  3F3C 200E                move.w     -[A7], 0x200E
000014D6  A9EB                     syscall    Pack4/FP68K
000014D8  302E FEE4                move.w     D0, [A6 - 0x11C]
000014DC  5240                     addq.w     D0, 1
000014DE  C1FC 0021                muls.w     D0, 0x21 /* '!' */
000014E2  3D40 E29A                move.w     [A6 - 0x1D66], D0
000014E6  486E E29A                pea.l      [A6 - 0x1D66]
000014EA  486E E29E                pea.l      [A6 - 0x1D62]
000014EE  3F3C 2006                move.w     -[A7], 0x2006
000014F2  A9EB                     syscall    Pack4/FP68K
000014F4  486E E29E                pea.l      [A6 - 0x1D62]
000014F8  4EAD 04AA                jsr        [A5 + 0x4AA /* export_145, CODE:1 @ 00005092 */]
000014FC  201F                     move.l     D0, [A7]+
000014FE  3D40 FEE2                move.w     [A6 - 0x11E], D0
00001502  7001                     moveq.l    D0, 0x01
00001504  B06E FEE2                cmp.w      D0, [A6 - 0x11E]
00001508  6F06                     ble        +0x8 /* 00001510 */
0000150A  3D7C 0001 FEE2           move.w     [A6 - 0x11E], 0x1
label00001510:
00001510  7010                     moveq.l    D0, 0x10
00001512  B06E FEE2                cmp.w      D0, [A6 - 0x11E]
00001516  6C06                     bge        +0x8 /* 0000151E */
00001518  3D7C 0010 FEE2           move.w     [A6 - 0x11E], 0x10
label0000151E:
0000151E  3D7C 0800 FEEA           move.w     [A6 - 0x116], 0x800
00001524  102D F2B8                move.b     D0, [A5 - 0xD48]
00001528  6700 0204                beq        +0x206 /* 0000172E */
0000152C  4EAD 1862                jsr        [A5 + 0x1862 /* export_776, CODE:16 @ 00000474 */]
00001530  486E E2A8                pea.l      [A6 - 0x1D58]
00001534  302E FEDC                move.w     D0, [A6 - 0x124]
00001538  48C0                     ext.l      D0
0000153A  2F00                     move.l     -[A7], D0
0000153C  4EAD 1902                jsr        [A5 + 0x1902 /* export_796, CODE:16 @ 000009D4 */]
00001540  486E E286                pea.l      [A6 - 0x1D7A]
00001544  302E FEE4                move.w     D0, [A6 - 0x11C]
00001548  48C0                     ext.l      D0
0000154A  2F00                     move.l     -[A7], D0
0000154C  4EAD 1902                jsr        [A5 + 0x1902 /* export_796, CODE:16 @ 000009D4 */]
00001550  486E E272                pea.l      [A6 - 0x1D8E]
00001554  302E FEE0                move.w     D0, [A6 - 0x120]
00001558  48C0                     ext.l      D0
0000155A  2F00                     move.l     -[A7], D0
0000155C  4EAD 1902                jsr        [A5 + 0x1902 /* export_796, CODE:16 @ 000009D4 */]
00001560  486E E25E                pea.l      [A6 - 0x1DA2]
00001564  302E FEE8                move.w     D0, [A6 - 0x118]
00001568  48C0                     ext.l      D0
0000156A  2F00                     move.l     -[A7], D0
0000156C  4EAD 1902                jsr        [A5 + 0x1902 /* export_796, CODE:16 @ 000009D4 */]
label00001570:
00001570  A98B                     syscall    ParamText
00001572  42A7                     clr.l      -[A7]
00001574  3F3C 0C8A                move.w     -[A7], 0xC8A
00001578  42A7                     clr.l      -[A7]
0000157A  70FF                     moveq.l    D0, 0xFFFFFFFF
0000157C  2F00                     move.l     -[A7], D0
0000157E  A97C                     syscall    GetNewDialog
00001580  2D5F FFFC                move.l     [A6 - 0x4], [A7]+
00001584  2F2E FFFC                move.l     -[A7], [A6 - 0x4]
00001588  4EAD 182A                jsr        [A5 + 0x182A /* export_769, CODE:16 @ 000002AC */]
0000158C  2F2E FFFC                move.l     -[A7], [A6 - 0x4]
00001590  A915                     syscall    ShowWindow
00001592  2F2E FFFC                move.l     -[A7], [A6 - 0x4]
00001596  4EAD 186A                jsr        [A5 + 0x186A /* export_777, CODE:16 @ 00000490 */]
0000159A  2F2E FFFC                move.l     -[A7], [A6 - 0x4]
0000159E  3F3C 000A                move.w     -[A7], 0xA /* '\n' */
000015A2  486E FFF8                pea.l      [A6 - 0x8]
000015A6  486E FFF4                pea.l      [A6 - 0xC]
000015AA  486E FFEC                pea.l      [A6 - 0x14]
000015AE  A98D                     syscall    GetDialogItem/GetDItem
000015B0  2F2E FFF4                move.l     -[A7], [A6 - 0xC]
000015B4  486E E2A8                pea.l      [A6 - 0x1D58]
000015B8  302E FEE6                move.w     D0, [A6 - 0x11A]
000015BC  48C0                     ext.l      D0
000015BE  2F00                     move.l     -[A7], D0
000015C0  4EAD 1902                jsr        [A5 + 0x1902 /* export_796, CODE:16 @ 000009D4 */]
000015C4  A98F                     syscall    SetDialogItemText/SetIText
000015C6  2F2E FFFC                move.l     -[A7], [A6 - 0x4]
000015CA  3F3C 000B                move.w     -[A7], 0xB
000015CE  486E FFF8                pea.l      [A6 - 0x8]
000015D2  486E FFF4                pea.l      [A6 - 0xC]
000015D6  486E FFEC                pea.l      [A6 - 0x14]
000015DA  A98D                     syscall    GetDialogItem/GetDItem
000015DC  2F2E FFF4                move.l     -[A7], [A6 - 0xC]
000015E0  486E E2A8                pea.l      [A6 - 0x1D58]
000015E4  302E FEE2                move.w     D0, [A6 - 0x11E]
000015E8  48C0                     ext.l      D0
000015EA  2F00                     move.l     -[A7], D0
000015EC  4EAD 1902                jsr        [A5 + 0x1902 /* export_796, CODE:16 @ 000009D4 */]
000015F0  A98F                     syscall    SetDialogItemText/SetIText
000015F2  2F2E FFFC                move.l     -[A7], [A6 - 0x4]
000015F6  3F3C 000C                move.w     -[A7], 0xC
000015FA  486E FFF8                pea.l      [A6 - 0x8]
000015FE  486E FFF4                pea.l      [A6 - 0xC]
00001602  486E FFEC                pea.l      [A6 - 0x14]
00001606  A98D                     syscall    GetDialogItem/GetDItem
00001608  2F2E FFF4                move.l     -[A7], [A6 - 0xC]
0000160C  486E E2A8                pea.l      [A6 - 0x1D58]
00001610  302E FEEA                move.w     D0, [A6 - 0x116]
00001614  48C0                     ext.l      D0
00001616  2F00                     move.l     -[A7], D0
00001618  4EAD 1902                jsr        [A5 + 0x1902 /* export_796, CODE:16 @ 000009D4 */]
0000161C  A98F                     syscall    SetDialogItemText/SetIText
label0000161E:
0000161E  42A7                     clr.l      -[A7]
00001620  486E FFFA                pea.l      [A6 - 0x6]
00001624  A991                     syscall    ModalDialog
00001626  7001                     moveq.l    D0, 0x01
00001628  B06E FFFA                cmp.w      D0, [A6 - 0x6]
0000162C  57C0                     seq        D0
0000162E  7202                     moveq.l    D1, 0x02
00001630  B26E FFFA                cmp.w      D1, [A6 - 0x6]
00001634  57C1                     seq        D1
00001636  8001                     or.b       D0, D1
00001638  67E4                     beq        -0x1A /* 0000161E */
0000163A  7001                     moveq.l    D0, 0x01
0000163C  B06E FFFA                cmp.w      D0, [A6 - 0x6]
00001640  6600 00D0                bne        +0xD2 /* 00001712 */
00001644  2F2E FFFC                move.l     -[A7], [A6 - 0x4]
00001648  3F3C 000A                move.w     -[A7], 0xA /* '\n' */
0000164C  486E FFF8                pea.l      [A6 - 0x8]
00001650  486E FFF4                pea.l      [A6 - 0xC]
00001654  486E FFEC                pea.l      [A6 - 0x14]
00001658  A98D                     syscall    GetDialogItem/GetDItem
0000165A  2F2E FFF4                move.l     -[A7], [A6 - 0xC]
0000165E  486E FEEC                pea.l      [A6 - 0x114]
00001662  A990                     syscall    GetDialogItemText/GetIText
00001664  4267                     clr.w      -[A7]
00001666  42A7                     clr.l      -[A7]
00001668  486E FEEC                pea.l      [A6 - 0x114]
0000166C  4EAD 194A                jsr        [A5 + 0x194A /* export_805, CODE:16 @ 00000CB2 */]
00001670  201F                     move.l     D0, [A7]+
00001672  3F00                     move.w     -[A7], D0
00001674  2F3C 0008 0001           move.l     -[A7], 0x80001
0000167A  4EAD 1A8A                jsr        [A5 + 0x1A8A /* export_845, CODE:16 @ 000019F8 */]
0000167E  3D5F FEE6                move.w     [A6 - 0x11A], [A7]+
00001682  2F2E FFFC                move.l     -[A7], [A6 - 0x4]
00001686  3F3C 000B                move.w     -[A7], 0xB
0000168A  486E FFF8                pea.l      [A6 - 0x8]
0000168E  486E FFF4                pea.l      [A6 - 0xC]
00001692  486E FFEC                pea.l      [A6 - 0x14]
00001696  A98D                     syscall    GetDialogItem/GetDItem
00001698  2F2E FFF4                move.l     -[A7], [A6 - 0xC]
0000169C  486E FEEC                pea.l      [A6 - 0x114]
000016A0  A990                     syscall    GetDialogItemText/GetIText
000016A2  4267                     clr.w      -[A7]
000016A4  42A7                     clr.l      -[A7]
000016A6  486E FEEC                pea.l      [A6 - 0x114]
000016AA  4EAD 194A                jsr        [A5 + 0x194A /* export_805, CODE:16 @ 00000CB2 */]
000016AE  201F                     move.l     D0, [A7]+
000016B0  3F00                     move.w     -[A7], D0
000016B2  2F3C 0020 0001           move.l     -[A7], 0x200001
000016B8  4EAD 1A8A                jsr        [A5 + 0x1A8A /* export_845, CODE:16 @ 000019F8 */]
000016BC  3D5F FEE2                move.w     [A6 - 0x11E], [A7]+
000016C0  2F2E FFFC                move.l     -[A7], [A6 - 0x4]
000016C4  3F3C 000C                move.w     -[A7], 0xC
000016C8  486E FFF8                pea.l      [A6 - 0x8]
000016CC  486E FFF4                pea.l      [A6 - 0xC]
000016D0  486E FFEC                pea.l      [A6 - 0x14]
000016D4  A98D                     syscall    GetDialogItem/GetDItem
000016D6  2F2E FFF4                move.l     -[A7], [A6 - 0xC]
000016DA  486E FEEC                pea.l      [A6 - 0x114]
000016DE  A990                     syscall    GetDialogItemText/GetIText
000016E0  4267                     clr.w      -[A7]
000016E2  42A7                     clr.l      -[A7]
000016E4  486E FEEC                pea.l      [A6 - 0x114]
label000016E8:
000016E8  4EAD 194A                jsr        [A5 + 0x194A /* export_805, CODE:16 @ 00000CB2 */]
000016EC  201F                     move.l     D0, [A7]+
000016EE  3F00                     move.w     -[A7], D0
000016F0  2F3C 2000 0200           move.l     -[A7], 0x20000200
000016F6  4EAD 1A8A                jsr        [A5 + 0x1A8A /* export_845, CODE:16 @ 000019F8 */]
000016FA  3D5F FEEA                move.w     [A6 - 0x116], [A7]+
000016FE  42A7                     clr.l      -[A7]
00001700  302E FEEA                move.w     D0, [A6 - 0x116]
00001704  48C0                     ext.l      D0
00001706  2F00                     move.l     -[A7], D0
00001708  4EAD 18EA                jsr        [A5 + 0x18EA /* export_793, CODE:16 @ 000008E4 */]
0000170C  201F                     move.l     D0, [A7]+
0000170E  3D40 FEEA                move.w     [A6 - 0x116], D0
label00001712:
00001712  2F2E FFFC                move.l     -[A7], [A6 - 0x4]
00001716  4EAD 201A                jsr        [A5 + 0x201A /* export_1023, CODE:20 @ 000002FA */]
0000171A  4EAD 22A2                jsr        [A5 + 0x22A2 /* export_1104, CODE:20 @ 00005D82 */]
0000171E  7002                     moveq.l    D0, 0x02
00001720  B06E FFFA                cmp.w      D0, [A6 - 0x6]
00001724  6608                     bne        +0xA /* 0000172E */
00001726  4267                     clr.w      -[A7]
00001728  2F0E                     move.l     -[A7], A6
0000172A  4EBA F1AA                jsr        [PC - 0xE56 /* 000008D6 */]
label0000172E:
0000172E  302E FEE2                move.w     D0, [A6 - 0x11E]
00001732  B06E FEE0                cmp.w      D0, [A6 - 0x120]
00001736  6F40                     ble        +0x42 /* 00001778 */
00001738  202D F668                move.l     D0, [A5 - 0x998]
0000173C  E580                     asl        D0, 2
0000173E  322E FEE2                move.w     D1, [A6 - 0x11E]
00001742  926E FEE0                sub.w      D1, [A6 - 0x120]
00001746  48C1                     ext.l      D1
00001748  2F00                     move.l     -[A7], D0
0000174A  2F01                     move.l     -[A7], D1
0000174C  4EAD 04EA                jsr        [A5 + 0x4EA /* export_153, CODE:1 @ 000051F0 */]
00001750  201F                     move.l     D0, [A7]+
00001752  D1AE F5DA                add.l      [A6 - 0xA26], D0
00001756  42A7                     clr.l      -[A7]
00001758  3F2D FC44                move.w     -[A7], [A5 - 0x3BC]
0000175C  4EAD 19F2                jsr        [A5 + 0x19F2 /* export_826, CODE:16 @ 000013B8 */]
00001760  201F                     move.l     D0, [A7]+
00001762  90BC 0000 1000           sub.l      D0, 0x1000
00001768  B0AE F5DA                cmp.l      D0, [A6 - 0xA26]
0000176C  6C0A                     bge        +0xC /* 00001778 */
0000176E  3F3C 0005                move.w     -[A7], 0x5
00001772  2F0E                     move.l     -[A7], A6
00001774  4EBA F160                jsr        [PC - 0xEA0 /* 000008D6 */]
label00001778:
00001778  2F0E                     move.l     -[A7], A6
0000177A  4EBA FA7E                jsr        [PC - 0x582 /* 000011FA */]
0000177E  4EAD 1ED2                jsr        [A5 + 0x1ED2 /* export_982, CODE:19 @ 00000172 */]
00001782  202D F650                move.l     D0, [A5 - 0x9B0]
00001786  90AD F678                sub.l      D0, [A5 - 0x988]
0000178A  222E F5D6                move.l     D1, [A6 - 0xA2A]
0000178E  D280                     add.l      D1, D0
00001790  2D41 F5DA                move.l     [A6 - 0xA26], D1
00001794  42A7                     clr.l      -[A7]
00001796  3F2D FC44                move.w     -[A7], [A5 - 0x3BC]
0000179A  4EAD 19F2                jsr        [A5 + 0x19F2 /* export_826, CODE:16 @ 000013B8 */]
0000179E  201F                     move.l     D0, [A7]+
000017A0  90BC 0000 1000           sub.l      D0, 0x1000
000017A6  B0AE F5DA                cmp.l      D0, [A6 - 0xA26]
000017AA  6C0A                     bge        +0xC /* 000017B6 */
000017AC  3F3C 0005                move.w     -[A7], 0x5
000017B0  2F0E                     move.l     -[A7], A6
000017B2  4EBA F122                jsr        [PC - 0xEDE /* 000008D6 */]
label000017B6:
000017B6  202D F65C                move.l     D0, [A5 - 0x9A4]
000017BA  5280                     addq.l     D0, 1
000017BC  EF80                     asl        D0, 7
000017BE  2D40 F854                move.l     [A6 - 0x7AC], D0
000017C2  E580                     asl        D0, 2
000017C4  2D40 F850                move.l     [A6 - 0x7B0], D0
000017C8  42A7                     clr.l      -[A7]
000017CA  2F2E F850                move.l     -[A7], [A6 - 0x7B0]
000017CE  4EAD 196A                jsr        [A5 + 0x196A /* export_809, CODE:16 @ 00000DB2 */]
000017D2  2D5F F84C                move.l     [A6 - 0x7B4], [A7]+
000017D6  660A                     bne        +0xC /* 000017E2 */
000017D8  3F3C 000F                move.w     -[A7], 0xF
000017DC  2F0E                     move.l     -[A7], A6
000017DE  4EBA F0F6                jsr        [PC - 0xF0A /* 000008D6 */]
label000017E2:
000017E2  206E F84C                movea.l    A0, [A6 - 0x7B4]
000017E6  2F10                     move.l     -[A7], [A0]
000017E8  2F2E F854                move.l     -[A7], [A6 - 0x7AC]
000017EC  4EAD 1B4A                jsr        [A5 + 0x1B4A /* export_869, CODE:16 @ 00001E9C */]
000017F0  2F2D F654                move.l     -[A7], [A5 - 0x9AC]
000017F4  7020                     moveq.l    D0, 0x20
000017F6  2F00                     move.l     -[A7], D0
000017F8  206E F84C                movea.l    A0, [A6 - 0x7B4]
000017FC  2F10                     move.l     -[A7], [A0]
000017FE  4EAD 1FB2                jsr        [A5 + 0x1FB2 /* export_1010, CODE:19 @ 00001DA0 */]
00001802  102D FD89                move.b     D0, [A5 - 0x277]
00001806  6712                     beq        +0x14 /* 0000181A */
00001808  42A7                     clr.l      -[A7]
0000180A  486E F80C                pea.l      [A6 - 0x7F4]
0000180E  3F3C 0015                move.w     -[A7], 0x15
00001812  A88F                     syscall    OSDispatch
00001814  2D5F F818                move.l     [A6 - 0x7E8], [A7]+
00001818  6016                     bra        +0x18 /* 00001830 */
label0000181A:
0000181A  42A7                     clr.l      -[A7]
0000181C  486E F80C                pea.l      [A6 - 0x7F4]
00001820  4EAD 01CA                jsr        [A5 + 0x1CA /* export_53, CODE:1 @ 0000439E */]
00001824  201F                     move.l     D0, [A7]+
00001826  90BC 0000 ABE0           sub.l      D0, 0xABE0
0000182C  2D40 F818                move.l     [A6 - 0x7E8], D0
label00001830:
00001830  0CAE 0000 2800 F818      cmpi.l     [A6 - 0x7E8], 0x2800 /* '(\0' */
00001838  6C08                     bge        +0xA /* 00001842 */
0000183A  2D7C 0000 2800 F818      move.l     [A6 - 0x7E8], 0x2800 /* '(\0' */
label00001842:
00001842  0CAE 0001 9000 F818      cmpi.l     [A6 - 0x7E8], 0x19000
0000184A  6F08                     ble        +0xA /* 00001854 */
0000184C  2D7C 0001 9000 F818      move.l     [A6 - 0x7E8], 0x19000
label00001854:
00001854  202E F818                move.l     D0, [A6 - 0x7E8]
00001858  C0BC FFFF FC00           and.l      D0, 0xFFFFFC00
0000185E  2D40 F818                move.l     [A6 - 0x7E8], D0
00001862  42A7                     clr.l      -[A7]
00001864  2F2E F818                move.l     -[A7], [A6 - 0x7E8]
00001868  4EAD 196A                jsr        [A5 + 0x196A /* export_809, CODE:16 @ 00000DB2 */]
0000186C  2D5F F81C                move.l     [A6 - 0x7E4], [A7]+
00001870  660A                     bne        +0xC /* 0000187C */
00001872  3F3C 000F                move.w     -[A7], 0xF
00001876  2F0E                     move.l     -[A7], A6
00001878  4EBA F05C                jsr        [PC - 0xFA4 /* 000008D6 */]
label0000187C:
0000187C  7000                     moveq.l    D0, 0x00
0000187E  2D40 F810                move.l     [A6 - 0x7F0], D0
00001882  202E F850                move.l     D0, [A6 - 0x7B0]
00001886  D0AD F654                add.l      D0, [A5 - 0x9AC]
0000188A  2D40 F822                move.l     [A6 - 0x7DE], D0
0000188E  2D6E F822 F808           move.l     [A6 - 0x7F8], [A6 - 0x7DE]
00001894  42A7                     clr.l      -[A7]
00001896  2F2D F670                move.l     -[A7], [A5 - 0x990]
0000189A  4EAD 1F82                jsr        [A5 + 0x1F82 /* export_1004, CODE:19 @ 00001770 */]
0000189E  2D5F F3CC                move.l     [A6 - 0xC34], [A7]+
000018A2  660A                     bne        +0xC /* 000018AE */
000018A4  487A 075C                pea.l      [PC + 0x75C /* 00002002, value 0xC6C6973, pstring "listHndl NIL" */]
000018A8  2F0E                     move.l     -[A7], A6
000018AA  4EBA F0B4                jsr        [PC - 0xF4C /* 00000960 */]
label000018AE:
000018AE  2F2E F3CC                move.l     -[A7], [A6 - 0xC34]
000018B2  2F0E                     move.l     -[A7], A6
000018B4  4EBA F134                jsr        [PC - 0xECC /* 000009EA */]
000018B8  7030                     moveq.l    D0, 0x30
000018BA  2D40 F3C4                move.l     [A6 - 0xC3C], D0
000018BE  206E F3CC                movea.l    A0, [A6 - 0xC34]
000018C2  2050                     movea.l    A0, [A0]
000018C4  2D68 000C E25A           move.l     [A6 - 0x1DA6], [A0 + 0xC]
000018CA  7001                     moveq.l    D0, 0x01
000018CC  2D40 F3C8                move.l     [A6 - 0xC38], D0
000018D0  6056                     bra        +0x58 /* 00001928 */
label000018D2:
000018D2  206E F3CC                movea.l    A0, [A6 - 0xC34]
000018D6  202E F3C4                move.l     D0, [A6 - 0xC3C]
000018DA  D090                     add.l      D0, [A0]
000018DC  2D40 F3C0                move.l     [A6 - 0xC40], D0
000018E0  206E F3C0                movea.l    A0, [A6 - 0xC40]
000018E4  2D50 F3BC                move.l     [A6 - 0xC44], [A0]
000018E8  42A7                     clr.l      -[A7]
000018EA  2F2E F3BC                move.l     -[A7], [A6 - 0xC44]
000018EE  4EAD 1F92                jsr        [A5 + 0x1F92 /* export_1006, CODE:19 @ 00001B32 */]
000018F2  2D5F F3B8                move.l     [A6 - 0xC48], [A7]+
000018F6  660A                     bne        +0xC /* 00001902 */
000018F8  487A 06FA                pea.l      [PC + 0x6FA /* 00001FF4, value 0xC706167, pstring "pageHndl NIL" */]
000018FC  2F0E                     move.l     -[A7], A6
000018FE  4EBA F060                jsr        [PC - 0xFA0 /* 00000960 */]
label00001902:
00001902  2F2E F3B8                move.l     -[A7], [A6 - 0xC48]
00001906  2F0E                     move.l     -[A7], A6
00001908  4EBA F0E0                jsr        [PC - 0xF20 /* 000009EA */]
0000190C  2F2E F3BC                move.l     -[A7], [A6 - 0xC44]
00001910  4267                     clr.w      -[A7]
00001912  4EAD 1F0A                jsr        [A5 + 0x1F0A /* export_989, CODE:19 @ 00000586 */]
00001916  2F2E F3BC                move.l     -[A7], [A6 - 0xC44]
0000191A  4EAD 1FAA                jsr        [A5 + 0x1FAA /* export_1009, CODE:19 @ 00001BE8 */]
0000191E  5CAE F3C4                addq.l     [A6 - 0xC3C], 6
00001922  52AE F3C8                addq.l     [A6 - 0xC38], 1
00001926  690A                     bvs        +0xC /* 00001932 */
label00001928:
00001928  202E F3C8                move.l     D0, [A6 - 0xC38]
0000192C  B0AE E25A                cmp.l      D0, [A6 - 0x1DA6]
00001930  6FA0                     ble        -0x5E /* 000018D2 */
label00001932:
00001932  2F2D F670                move.l     -[A7], [A5 - 0x990]
00001936  4267                     clr.w      -[A7]
00001938  4EAD 1EFA                jsr        [A5 + 0x1EFA /* export_987, CODE:19 @ 0000046E */]
0000193C  2F2D F670                move.l     -[A7], [A5 - 0x990]
00001940  4EAD 1FAA                jsr        [A5 + 0x1FAA /* export_1009, CODE:19 @ 00001BE8 */]
00001944  7000                     moveq.l    D0, 0x00
00001946  2D40 F83C                move.l     [A6 - 0x7C4], D0
0000194A  2D6D F664 F844           move.l     [A6 - 0x7BC], [A5 - 0x99C]
00001950  2D6D F660 E256           move.l     [A6 - 0x1DAA], [A5 - 0x9A0]
00001956  7001                     moveq.l    D0, 0x01
00001958  2D40 F848                move.l     [A6 - 0x7B8], D0
0000195C  6000 00AA                bra        +0xAC /* 00001A08 */
label00001960:
00001960  42A7                     clr.l      -[A7]
00001962  2F2E F844                move.l     -[A7], [A6 - 0x7BC]
00001966  4EAD 1F6A                jsr        [A5 + 0x1F6A /* export_1001, CODE:19 @ 000016EC */]
0000196A  2D5F F838                move.l     [A6 - 0x7C8], [A7]+
0000196E  2F0E                     move.l     -[A7], A6
00001970  4EBA F25C                jsr        [PC - 0xDA4 /* 00000BCE */]
00001974  52AE F83C                addq.l     [A6 - 0x7C4], 1
00001978  206E F838                movea.l    A0, [A6 - 0x7C8]
0000197C  2050                     movea.l    A0, [A0]
0000197E  2D68 000C F834           move.l     [A6 - 0x7CC], [A0 + 0xC]
00001984  42A7                     clr.l      -[A7]
00001986  2F2E F838                move.l     -[A7], [A6 - 0x7C8]
0000198A  4EAD 1EA2                jsr        [A5 + 0x1EA2 /* export_976, CODE:18 @ 00003650 */]
0000198E  2D5F E2DC                move.l     [A6 - 0x1D24], [A7]+
00001992  206E F838                movea.l    A0, [A6 - 0x7C8]
00001996  2050                     movea.l    A0, [A0]
00001998  2F08                     move.l     -[A7], A0
0000199A  42A7                     clr.l      -[A7]
0000199C  2F2E E2DC                move.l     -[A7], [A6 - 0x1D24]
000019A0  4EAD 18EA                jsr        [A5 + 0x18EA /* export_793, CODE:16 @ 000008E4 */]
000019A4  201F                     move.l     D0, [A7]+
000019A6  205F                     movea.l    A0, [A7]+
000019A8  2080                     move.l     [A0], D0
000019AA  206E F838                movea.l    A0, [A6 - 0x7C8]
000019AE  202E E2DC                move.l     D0, [A6 - 0x1D24]
000019B2  D090                     add.l      D0, [A0]
000019B4  2F00                     move.l     -[A7], D0
000019B6  206E F838                movea.l    A0, [A6 - 0x7C8]
000019BA  2050                     movea.l    A0, [A0]
000019BC  2010                     move.l     D0, [A0]
000019BE  90AE E2DC                sub.l      D0, [A6 - 0x1D24]
000019C2  2F00                     move.l     -[A7], D0
000019C4  4EAD 1B42                jsr        [A5 + 0x1B42 /* export_868, CODE:16 @ 00001E7C */]
000019C8  2F2E F838                move.l     -[A7], [A6 - 0x7C8]
000019CC  2F0E                     move.l     -[A7], A6
000019CE  4EBA F01A                jsr        [PC - 0xFE6 /* 000009EA */]
000019D2  2F0E                     move.l     -[A7], A6
000019D4  4EBA F12A                jsr        [PC - 0xED6 /* 00000B00 */]
000019D8  206E F838                movea.l    A0, [A6 - 0x7C8]
000019DC  2050                     movea.l    A0, [A0]
000019DE  2D68 0018 F840           move.l     [A6 - 0x7C0], [A0 + 0x18]
000019E4  2F2E F844                move.l     -[A7], [A6 - 0x7BC]
000019E8  4267                     clr.w      -[A7]
000019EA  4EAD 1EE2                jsr        [A5 + 0x1EE2 /* export_984, CODE:19 @ 00000414 */]
000019EE  7000                     moveq.l    D0, 0x00
000019F0  2D40 F838                move.l     [A6 - 0x7C8], D0
000019F4  2F2E F844                move.l     -[A7], [A6 - 0x7BC]
000019F8  4EAD 1FAA                jsr        [A5 + 0x1FAA /* export_1009, CODE:19 @ 00001BE8 */]
000019FC  2D6E F840 F844           move.l     [A6 - 0x7BC], [A6 - 0x7C0]
00001A02  52AE F848                addq.l     [A6 - 0x7B8], 1
00001A06  690C                     bvs        +0xE /* 00001A14 */
label00001A08:
00001A08  202E F848                move.l     D0, [A6 - 0x7B8]
00001A0C  B0AE E256                cmp.l      D0, [A6 - 0x1DAA]
00001A10  6F00 FF4E                ble        -0xB0 /* 00001960 */
label00001A14:
00001A14  7000                     moveq.l    D0, 0x00
00001A16  2D40 F844                move.l     [A6 - 0x7BC], D0
00001A1A  2D6D F668 E252           move.l     [A6 - 0x1DAE], [A5 - 0x998]
00001A20  7001                     moveq.l    D0, 0x01
00001A22  2D40 F830                move.l     [A6 - 0x7D0], D0
00001A26  6000 00EA                bra        +0xEC /* 00001B12 */
label00001A2A:
00001A2A  4EAD 181A                jsr        [A5 + 0x181A /* export_767, CODE:16 @ 00000216 */]
00001A2E  4267                     clr.w      -[A7]
00001A30  4EAD 17FA                jsr        [A5 + 0x17FA /* export_763, CODE:16 @ 0000009E */]
00001A34  101F                     move.b     D0, [A7]+
00001A36  6708                     beq        +0xA /* 00001A40 */
00001A38  4267                     clr.w      -[A7]
00001A3A  2F0E                     move.l     -[A7], A6
00001A3C  4EBA EE98                jsr        [PC - 0x1168 /* 000008D6 */]
label00001A40:
00001A40  4267                     clr.w      -[A7]
00001A42  2F2D F670                move.l     -[A7], [A5 - 0x990]
00001A46  2F2E F830                move.l     -[A7], [A6 - 0x7D0]
00001A4A  486E FE58                pea.l      [A6 - 0x1A8]
00001A4E  4EAD 1D9A                jsr        [A5 + 0x1D9A /* export_943, CODE:18 @ 00000B9E */]
00001A52  1D5F E2E7                move.b     [A6 - 0x1D19], [A7]+
00001A56  2D6E FE58 F82C           move.l     [A6 - 0x7D4], [A6 - 0x1A8]
00001A5C  42A7                     clr.l      -[A7]
00001A5E  2F2E F82C                move.l     -[A7], [A6 - 0x7D4]
00001A62  4EAD 1F7A                jsr        [A5 + 0x1F7A /* export_1003, CODE:19 @ 00001744 */]
00001A66  2D5F F828                move.l     [A6 - 0x7D8], [A7]+
00001A6A  2F0E                     move.l     -[A7], A6
00001A6C  4EBA F31C                jsr        [PC - 0xCE4 /* 00000D8A */]
00001A70  206E F828                movea.l    A0, [A6 - 0x7D8]
// begin alternate branch 00001A72-00001A76
fn00001A72:
00001A72  F828 2050                .tblXX     0xF828, 0x2050 // unimplemented
// end alternate branch 00001A72-00001A76
fn00001A72: // (misaligned)
00001A74  2050                     movea.l    A0, [A0]
00001A76  2D68 000C F834           move.l     [A6 - 0x7CC], [A0 + 0xC]
00001A7C  206E F828                movea.l    A0, [A6 - 0x7D8]
00001A80  2050                     movea.l    A0, [A0]
00001A82  216D F4C4 001C           move.l     [A0 + 0x1C], [A5 - 0xB3C]
00001A88  2F0E                     move.l     -[A7], A6
00001A8A  4EBA F474                jsr        [PC - 0xB8C /* 00000F00 */]
00001A8E  42A7                     clr.l      -[A7]
00001A90  2F2E F828                move.l     -[A7], [A6 - 0x7D8]
00001A94  4EAD 1EB2                jsr        [A5 + 0x1EB2 /* export_978, CODE:18 @ 000036C0 */]
00001A98  2D5F E2DC                move.l     [A6 - 0x1D24], [A7]+
00001A9C  206E F828                movea.l    A0, [A6 - 0x7D8]
00001AA0  2050                     movea.l    A0, [A0]
00001AA2  2F08                     move.l     -[A7], A0
00001AA4  42A7                     clr.l      -[A7]
00001AA6  2F2E E2DC                move.l     -[A7], [A6 - 0x1D24]
00001AAA  4EAD 18EA                jsr        [A5 + 0x18EA /* export_793, CODE:16 @ 000008E4 */]
00001AAE  201F                     move.l     D0, [A7]+
00001AB0  205F                     movea.l    A0, [A7]+
00001AB2  2080                     move.l     [A0], D0
00001AB4  206E F828                movea.l    A0, [A6 - 0x7D8]
00001AB8  202E E2DC                move.l     D0, [A6 - 0x1D24]
00001ABC  D090                     add.l      D0, [A0]
00001ABE  2F00                     move.l     -[A7], D0
00001AC0  206E F828                movea.l    A0, [A6 - 0x7D8]
00001AC4  2050                     movea.l    A0, [A0]
00001AC6  2010                     move.l     D0, [A0]
00001AC8  90AE E2DC                sub.l      D0, [A6 - 0x1D24]
00001ACC  2F00                     move.l     -[A7], D0
00001ACE  4EAD 1B42                jsr        [A5 + 0x1B42 /* export_868, CODE:16 @ 00001E7C */]
00001AD2  2F2E F828                move.l     -[A7], [A6 - 0x7D8]
00001AD6  2F0E                     move.l     -[A7], A6
00001AD8  4EBA EF10                jsr        [PC - 0x10F0 /* 000009EA */]
00001ADC  2F2E F82C                move.l     -[A7], [A6 - 0x7D4]
00001AE0  4267                     clr.w      -[A7]
00001AE2  4EAD 1EF2                jsr        [A5 + 0x1EF2 /* export_986, CODE:19 @ 00000450 */]
00001AE6  7000                     moveq.l    D0, 0x00
00001AE8  2D40 F828                move.l     [A6 - 0x7D8], D0
00001AEC  2F2E F82C                move.l     -[A7], [A6 - 0x7D4]
00001AF0  4EAD 1FAA                jsr        [A5 + 0x1FAA /* export_1009, CODE:19 @ 00001BE8 */]
00001AF4  2F0E                     move.l     -[A7], A6
00001AF6  4EBA F008                jsr        [PC - 0xFF8 /* 00000B00 */]
00001AFA  4267                     clr.w      -[A7]
00001AFC  4EAD 17FA                jsr        [A5 + 0x17FA /* export_763, CODE:16 @ 0000009E */]
00001B00  101F                     move.b     D0, [A7]+
00001B02  6708                     beq        +0xA /* 00001B0C */
00001B04  4267                     clr.w      -[A7]
00001B06  2F0E                     move.l     -[A7], A6
00001B08  4EBA EDCC                jsr        [PC - 0x1234 /* 000008D6 */]
label00001B0C:
00001B0C  52AE F830                addq.l     [A6 - 0x7D0], 1
00001B10  690C                     bvs        +0xE /* 00001B1E */
label00001B12:
00001B12  202E F830                move.l     D0, [A6 - 0x7D0]
00001B16  B0AE E252                cmp.l      D0, [A6 - 0x1DAE]
00001B1A  6F00 FF0E                ble        -0xF0 /* 00001A2A */
label00001B1E:
00001B1E  2F2D F67C                move.l     -[A7], [A5 - 0x984]
00001B22  2F3A 04CC                move.l     -[A7], [PC + 0x4CC /* 00001FF0, value 0x50524E54 'PRNT' */]
00001B26  2F0E                     move.l     -[A7], A6
00001B28  4EBA F7E2                jsr        [PC - 0x81E /* 0000130C */]
00001B2C  2F2D F68C                move.l     -[A7], [A5 - 0x974]
00001B30  2F3A 04BA                move.l     -[A7], [PC + 0x4BA /* 00001FEC, value 0x57494C44 'WILD' */]
00001B34  2F0E                     move.l     -[A7], A6
00001B36  4EBA F7D4                jsr        [PC - 0x82C /* 0000130C */]
00001B3A  2F2D F690                move.l     -[A7], [A5 - 0x970]
00001B3E  2F3A 04AC                move.l     -[A7], [PC + 0x4AC /* 00001FEC, value 0x57494C44 'WILD' */]
00001B42  2F0E                     move.l     -[A7], A6
00001B44  4EBA F7C6                jsr        [PC - 0x83A /* 0000130C */]
00001B48  2F2D F694                move.l     -[A7], [A5 - 0x96C]
00001B4C  2F3A 049E                move.l     -[A7], [PC + 0x49E /* 00001FEC, value 0x57494C44 'WILD' */]
00001B50  2F0E                     move.l     -[A7], A6
00001B52  4EBA F7B8                jsr        [PC - 0x848 /* 0000130C */]
00001B56  2F2D F698                move.l     -[A7], [A5 - 0x968]
00001B5A  2F3A 0490                move.l     -[A7], [PC + 0x490 /* 00001FEC, value 0x57494C44 'WILD' */]
00001B5E  2F0E                     move.l     -[A7], A6
00001B60  4EBA F7AA                jsr        [PC - 0x856 /* 0000130C */]
00001B64  2F0E                     move.l     -[A7], A6
00001B66  4EBA EE20                jsr        [PC - 0x11E0 /* 00000988 */]
00001B6A  486E F7E4                pea.l      [A6 - 0x81C]
00001B6E  7008                     moveq.l    D0, 0x08
00001B70  2F00                     move.l     -[A7], D0
00001B72  4EAD 1B4A                jsr        [A5 + 0x1B4A /* export_869, CODE:16 @ 00001E9C */]
00001B76  7020                     moveq.l    D0, 0x20
00001B78  2D40 F7E4                move.l     [A6 - 0x81C], D0
00001B7C  2D7C 5441 494C F7E8      move.l     [A6 - 0x818], 0x5441494C /* 'TAIL' */
00001B84  70FF                     moveq.l    D0, 0xFFFFFFFF
00001B86  2D40 F7EC                move.l     [A6 - 0x814], D0
00001B8A  41EE F7F0                lea.l      A0, [A6 - 0x810]
00001B8E  43FA 0448                lea.l      A1, [PC + 0x448 /* 00001FD8, value 0x13546861, pstring "That\'s all folks..." */]
00001B92  7004                     moveq.l    D0, 0x04
label00001B94:
00001B94  20D9                     move.l     [A0]+, [A1]+
00001B96  51C8 FFFC                dbf        D0, -0x6 /* 00001B94 */
00001B9A  4267                     clr.w      -[A7]
00001B9C  3F2E F826                move.w     -[A7], [A6 - 0x7DA]
00001BA0  486E F822                pea.l      [A6 - 0x7DE]
00001BA4  7020                     moveq.l    D0, 0x20
00001BA6  2F00                     move.l     -[A7], D0
00001BA8  486E F7E4                pea.l      [A6 - 0x81C]
00001BAC  4EAD 1B2A                jsr        [A5 + 0x1B2A /* export_865, CODE:16 @ 00001E1C */]
00001BB0  3D5F F820                move.w     [A6 - 0x7E0], [A7]+
00001BB4  4A6E F820                tst.w      [A6 - 0x7E0]
00001BB8  670A                     beq        +0xC /* 00001BC4 */
00001BBA  487A 0410                pea.l      [PC + 0x410 /* 00001FCC, value 0xA777269 '\nwri', pstring "write tail" */]
00001BBE  2F0E                     move.l     -[A7], A6
00001BC0  4EBA ED9E                jsr        [PC - 0x1262 /* 00000960 */]
label00001BC4:
00001BC4  2D6E F822 F804           move.l     [A6 - 0x7FC], [A6 - 0x7DE]
00001BCA  4267                     clr.w      -[A7]
00001BCC  3F2E F826                move.w     -[A7], [A6 - 0x7DA]
00001BD0  2F2E F804                move.l     -[A7], [A6 - 0x7FC]
00001BD4  4EAD 035A                jsr        [A5 + 0x35A /* export_103, CODE:1 @ 00004AAA */]
00001BD8  3D5F F820                move.w     [A6 - 0x7E0], [A7]+
00001BDC  3F2E F820                move.w     -[A7], [A6 - 0x7E0]
00001BE0  2F3C 0000 87A2           move.l     -[A7], 0x87A2
00001BE6  4EAD 1832                jsr        [A5 + 0x1832 /* export_770, CODE:16 @ 000002F0 */]
00001BEA  41EE F858                lea.l      A0, [A6 - 0x7A8]
00001BEE  43ED F63C                lea.l      A1, [A5 - 0x9C4]
00001BF2  303C 017F                move.w     D0, 0x17F
label00001BF6:
00001BF6  20D9                     move.l     [A0]+, [A1]+
00001BF8  51C8 FFFC                dbf        D0, -0x6 /* 00001BF6 */
00001BFC  2D6E F83C F87C           move.l     [A6 - 0x784], [A6 - 0x7C4]
00001C02  486E FC58                pea.l      [A6 - 0x3A8]
00001C06  2F3C 0000 0080           move.l     -[A7], 0x80
00001C0C  4EAD 1B4A                jsr        [A5 + 0x1B4A /* export_869, CODE:16 @ 00001E9C */]
00001C10  7000                     moveq.l    D0, 0x00
00001C12  2D40 F890                move.l     [A6 - 0x770], D0
00001C16  7000                     moveq.l    D0, 0x00
00001C18  2D40 F894                move.l     [A6 - 0x76C], D0
00001C1C  2D6E F804 F86C           move.l     [A6 - 0x794], [A6 - 0x7FC]
00001C22  08EE 0004 F8A4           bset.b     [A6 - 0x75C], 0x4
00001C28  082E 0005 F8A4           btst.b     [A6 - 0x75C], 0x5
00001C2E  56C0                     sne        D0
00001C30  4400                     neg.b      D0
00001C32  1D40 E2E1                move.b     [A6 - 0x1D1F], D0
00001C36  2D6D F4BE F8BC           move.l     [A6 - 0x744], [A5 - 0xB42]
00001C3C  2D6D F4BE F8C0           move.l     [A6 - 0x740], [A5 - 0xB42]
00001C42  2D6D F4BE F8C4           move.l     [A6 - 0x73C], [A5 - 0xB42]
00001C48  2D6E F864 E2E2           move.l     [A6 - 0x1D1E], [A6 - 0x79C]
00001C4E  42A7                     clr.l      -[A7]
00001C50  486E F858                pea.l      [A6 - 0x7A8]
00001C54  2F3C 0000 0180           move.l     -[A7], 0x180
00001C5A  4EAD 1AFA                jsr        [A5 + 0x1AFA /* export_859, CODE:16 @ 00001D2A */]
00001C5E  202E F864                move.l     D0, [A6 - 0x79C]
00001C62  909F                     sub.l      D0, [A7]+
00001C64  2D40 F864                move.l     [A6 - 0x79C], D0
00001C68  102E E2E1                move.b     D0, [A6 - 0x1D1F]
00001C6C  670C                     beq        +0xE /* 00001C7A */
00001C6E  486E F870                pea.l      [A6 - 0x790]
00001C72  2F2E E2E2                move.l     -[A7], [A6 - 0x1D1E]
00001C76  4EAD 1FC2                jsr        [A5 + 0x1FC2 /* export_1012, CODE:19 @ 00001EC8 */]
label00001C7A:
00001C7A  7000                     moveq.l    D0, 0x00
00001C7C  2D40 F822                move.l     [A6 - 0x7DE], D0
00001C80  4267                     clr.w      -[A7]
00001C82  3F2E F826                move.w     -[A7], [A6 - 0x7DA]
00001C86  486E F822                pea.l      [A6 - 0x7DE]
00001C8A  2F3C 0000 0600           move.l     -[A7], 0x600
00001C90  486E F858                pea.l      [A6 - 0x7A8]
00001C94  4EAD 1B2A                jsr        [A5 + 0x1B2A /* export_865, CODE:16 @ 00001E1C */]
00001C98  3D5F F820                move.w     [A6 - 0x7E0], [A7]+
00001C9C  3F2E F820                move.w     -[A7], [A6 - 0x7E0]
00001CA0  2F3C 0000 87A3           move.l     -[A7], 0x87A3
00001CA6  4EAD 1832                jsr        [A5 + 0x1832 /* export_770, CODE:16 @ 000002F0 */]
label00001CAA:
00001CAA  202E F822                move.l     D0, [A6 - 0x7DE]
00001CAE  B0AE F858                cmp.l      D0, [A6 - 0x7A8]
00001CB2  6C3E                     bge        +0x40 /* 00001CF2 */
00001CB4  2F2E F822                move.l     -[A7], [A6 - 0x7DE]
00001CB8  2F3C 0000 0200           move.l     -[A7], 0x200
00001CBE  486E F5E0                pea.l      [A6 - 0xA20]
00001CC2  4EAD 1FB2                jsr        [A5 + 0x1FB2 /* export_1010, CODE:19 @ 00001DA0 */]
00001CC6  4267                     clr.w      -[A7]
00001CC8  3F2E F826                move.w     -[A7], [A6 - 0x7DA]
00001CCC  486E F822                pea.l      [A6 - 0x7DE]
00001CD0  2F3C 0000 0200           move.l     -[A7], 0x200
00001CD6  486E F5E0                pea.l      [A6 - 0xA20]
00001CDA  4EAD 1B2A                jsr        [A5 + 0x1B2A /* export_865, CODE:16 @ 00001E1C */]
00001CDE  3D5F F820                move.w     [A6 - 0x7E0], [A7]+
00001CE2  3F2E F820                move.w     -[A7], [A6 - 0x7E0]
00001CE6  2F3C 0000 87A4           move.l     -[A7], 0x87A4
00001CEC  4EAD 1832                jsr        [A5 + 0x1832 /* export_770, CODE:16 @ 000002F0 */]
00001CF0  60B8                     bra        -0x46 /* 00001CAA */
label00001CF2:
00001CF2  2D6D F654 F822           move.l     [A6 - 0x7DE], [A5 - 0x9AC]
00001CF8  2F2E F84C                move.l     -[A7], [A6 - 0x7B4]
00001CFC  4EAD 195A                jsr        [A5 + 0x195A /* export_807, CODE:16 @ 00000D46 */]
00001D00  4267                     clr.w      -[A7]
00001D02  3F2E F826                move.w     -[A7], [A6 - 0x7DA]
00001D06  486E F822                pea.l      [A6 - 0x7DE]
00001D0A  2F2E F850                move.l     -[A7], [A6 - 0x7B0]
00001D0E  206E F84C                movea.l    A0, [A6 - 0x7B4]
00001D12  2F10                     move.l     -[A7], [A0]
00001D14  4EAD 1B2A                jsr        [A5 + 0x1B2A /* export_865, CODE:16 @ 00001E1C */]
00001D18  3D5F F820                move.w     [A6 - 0x7E0], [A7]+
00001D1C  3F2E F820                move.w     -[A7], [A6 - 0x7E0]
00001D20  2F3C 0000 87A5           move.l     -[A7], 0x87A5
00001D26  4EAD 1832                jsr        [A5 + 0x1832 /* export_770, CODE:16 @ 000002F0 */]
00001D2A  2F2E F84C                move.l     -[A7], [A6 - 0x7B4]
00001D2E  4EAD 1952                jsr        [A5 + 0x1952 /* export_806, CODE:16 @ 00000D00 */]
00001D32  7000                     moveq.l    D0, 0x00
00001D34  2D40 F84C                move.l     [A6 - 0x7B4], D0
00001D38  4267                     clr.w      -[A7]
00001D3A  3F2E F826                move.w     -[A7], [A6 - 0x7DA]
00001D3E  4EAD 02F2                jsr        [A5 + 0x2F2 /* export_90, CODE:1 @ 0000486A */]
00001D42  3D5F F820                move.w     [A6 - 0x7E0], [A7]+
00001D46  4EAD 1FA2                jsr        [A5 + 0x1FA2 /* export_1008, CODE:19 @ 00001B96 */]
00001D4A  70FF                     moveq.l    D0, 0xFFFFFFFF
00001D4C  B06D FC42                cmp.w      D0, [A5 - 0x3BE]
00001D50  6700 0092                beq        +0x94 /* 00001DE4 */
00001D54  4267                     clr.w      -[A7]
00001D56  486E F3D2                pea.l      [A6 - 0xC2E]
00001D5A  3F2D FC46                move.w     -[A7], [A5 - 0x3BA]
00001D5E  486E F5DE                pea.l      [A6 - 0xA22]
00001D62  4EAD 0342                jsr        [A5 + 0x342 /* export_100, CODE:1 @ 00004A10 */]
00001D66  3D5F F820                move.w     [A6 - 0x7E0], [A7]+
00001D6A  4267                     clr.w      -[A7]
00001D6C  3F2D FC42                move.w     -[A7], [A5 - 0x3BE]
00001D70  3F3C 0001                move.w     -[A7], 0x1
00001D74  42A7                     clr.l      -[A7]
00001D76  4EAD 036A                jsr        [A5 + 0x36A /* export_105, CODE:1 @ 00004AF0 */]
00001D7A  3D5F F820                move.w     [A6 - 0x7E0], [A7]+
00001D7E  4267                     clr.w      -[A7]
00001D80  3F2E F5DE                move.w     -[A7], [A6 - 0xA22]
00001D84  3F3C 0001                move.w     -[A7], 0x1
00001D88  42A7                     clr.l      -[A7]
00001D8A  4EAD 036A                jsr        [A5 + 0x36A /* export_105, CODE:1 @ 00004AF0 */]
00001D8E  3D5F F820                move.w     [A6 - 0x7E0], [A7]+
00001D92  2F2E F81C                move.l     -[A7], [A6 - 0x7E4]
00001D96  4EAD 195A                jsr        [A5 + 0x195A /* export_807, CODE:16 @ 00000D46 */]
label00001D9A:
00001D9A  2D6E F818 F814           move.l     [A6 - 0x7EC], [A6 - 0x7E8]
00001DA0  4267                     clr.w      -[A7]
00001DA2  3F2D FC42                move.w     -[A7], [A5 - 0x3BE]
00001DA6  486E F814                pea.l      [A6 - 0x7EC]
00001DAA  206E F81C                movea.l    A0, [A6 - 0x7E4]
00001DAE  2F10                     move.l     -[A7], [A0]
00001DB0  4EAD 02FA                jsr        [A5 + 0x2FA /* export_91, CODE:1 @ 00004886 */]
00001DB4  3D5F F820                move.w     [A6 - 0x7E0], [A7]+
00001DB8  4267                     clr.w      -[A7]
00001DBA  3F2E F5DE                move.w     -[A7], [A6 - 0xA22]
00001DBE  486E F814                pea.l      [A6 - 0x7EC]
00001DC2  206E F81C                movea.l    A0, [A6 - 0x7E4]
00001DC6  2F10                     move.l     -[A7], [A0]
00001DC8  4EAD 0302                jsr        [A5 + 0x302 /* export_92, CODE:1 @ 0000488A */]
00001DCC  3D5F F820                move.w     [A6 - 0x7E0], [A7]+
00001DD0  4AAE F814                tst.l      [A6 - 0x7EC]
00001DD4  66C4                     bne        -0x3A /* 00001D9A */
00001DD6  4267                     clr.w      -[A7]
00001DD8  3F2E F5DE                move.w     -[A7], [A6 - 0xA22]
00001DDC  4EAD 02F2                jsr        [A5 + 0x2F2 /* export_90, CODE:1 @ 0000486A */]
00001DE0  3D5F F820                move.w     [A6 - 0x7E0], [A7]+
label00001DE4:
00001DE4  4AAE F81C                tst.l      [A6 - 0x7E4]
00001DE8  6708                     beq        +0xA /* 00001DF2 */
00001DEA  2F2E F81C                move.l     -[A7], [A6 - 0x7E4]
00001DEE  4EAD 1952                jsr        [A5 + 0x1952 /* export_806, CODE:16 @ 00000D00 */]
label00001DF2:
00001DF2  7000                     moveq.l    D0, 0x00
00001DF4  2D40 F81C                move.l     [A6 - 0x7E4], D0
00001DF8  486E E2E8                pea.l      [A6 - 0x1D18]
00001DFC  706C                     moveq.l    D0, 0x6C
00001DFE  2F00                     move.l     -[A7], D0
00001E00  4EAD 1B42                jsr        [A5 + 0x1B42 /* export_868, CODE:16 @ 00001E7C */]
00001E04  41EE F4D2                lea.l      A0, [A6 - 0xB2E]
00001E08  2D48 E2FA                move.l     [A6 - 0x1D06], A0
00001E0C  3D6D FC46 E2FE           move.w     [A6 - 0x1D02], [A5 - 0x3BA]
00001E12  4267                     clr.w      -[A7]
00001E14  486E E2E8                pea.l      [A6 - 0x1D18]
00001E18  4267                     clr.w      -[A7]
00001E1A  4EAD 038A                jsr        [A5 + 0x38A /* export_109, CODE:1 @ 00004B5A */]
00001E1E  3D5F F820                move.w     [A6 - 0x7E0], [A7]+
00001E22  3F2E F820                move.w     -[A7], [A6 - 0x7E0]
00001E26  2F3C 0001 5ABD           move.l     -[A7], 0x15ABD
00001E2C  4EAD 1832                jsr        [A5 + 0x1832 /* export_770, CODE:16 @ 000002F0 */]
00001E30  486E E354                pea.l      [A6 - 0x1CAC]
00001E34  706C                     moveq.l    D0, 0x6C
00001E36  2F00                     move.l     -[A7], D0
00001E38  4EAD 1B42                jsr        [A5 + 0x1B42 /* export_868, CODE:16 @ 00001E7C */]
00001E3C  41EE F3D2                lea.l      A0, [A6 - 0xC2E]
00001E40  2D48 E366                move.l     [A6 - 0x1C9A], A0
00001E44  3D6D FC46 E36A           move.w     [A6 - 0x1C96], [A5 - 0x3BA]
00001E4A  4267                     clr.w      -[A7]
00001E4C  486E E354                pea.l      [A6 - 0x1CAC]
00001E50  4267                     clr.w      -[A7]
00001E52  4EAD 038A                jsr        [A5 + 0x38A /* export_109, CODE:1 @ 00004B5A */]
00001E56  3D5F F820                move.w     [A6 - 0x7E0], [A7]+
00001E5A  3F2E F820                move.w     -[A7], [A6 - 0x7E0]
00001E5E  2F3C 0000 5B7F           move.l     -[A7], 0x5B7F
00001E64  4EAD 1832                jsr        [A5 + 0x1832 /* export_770, CODE:16 @ 000002F0 */]
00001E68  7000                     moveq.l    D0, 0x00
00001E6A  2D40 E384                move.l     [A6 - 0x1C7C], D0
00001E6E  426E E36C                clr.w      [A6 - 0x1C94]
00001E72  41EE E374                lea.l      A0, [A6 - 0x1C8C]
00001E76  43EE E308                lea.l      A1, [A6 - 0x1CF8]
00001E7A  20D9                     move.l     [A0]+, [A1]+
00001E7C  20D9                     move.l     [A0]+, [A1]+
00001E7E  20D9                     move.l     [A0]+, [A1]+
00001E80  20D9                     move.l     [A0]+, [A1]+
00001E82  2D6E E330 E39C           move.l     [A6 - 0x1C64], [A6 - 0x1CD0]
00001E88  41EE E3A8                lea.l      A0, [A6 - 0x1C58]
00001E8C  43EE E33C                lea.l      A1, [A6 - 0x1CC4]
00001E90  20D9                     move.l     [A0]+, [A1]+
00001E92  20D9                     move.l     [A0]+, [A1]+
00001E94  20D9                     move.l     [A0]+, [A1]+
00001E96  20D9                     move.l     [A0]+, [A1]+
00001E98  4267                     clr.w      -[A7]
00001E9A  486E E354                pea.l      [A6 - 0x1CAC]
00001E9E  4267                     clr.w      -[A7]
00001EA0  4EAD 0392                jsr        [A5 + 0x392 /* export_110, CODE:1 @ 00004B78 */]
00001EA4  3D5F F820                move.w     [A6 - 0x7E0], [A7]+
00001EA8  3F2E F820                move.w     -[A7], [A6 - 0x7E0]
00001EAC  2F3C 0000 9757           move.l     -[A7], 0x9757
00001EB2  4EAD 1832                jsr        [A5 + 0x1832 /* export_770, CODE:16 @ 000002F0 */]
00001EB6  3F2D FC42                move.w     -[A7], [A5 - 0x3BE]
00001EBA  4EAD 18CA                jsr        [A5 + 0x18CA /* export_789, CODE:16 @ 00000806 */]
00001EBE  4267                     clr.w      -[A7]
00001EC0  3F2D FD68                move.w     -[A7], [A5 - 0x298]
00001EC4  4EAD 02F2                jsr        [A5 + 0x2F2 /* export_90, CODE:1 @ 0000486A */]
00001EC8  3D5F F820                move.w     [A6 - 0x7E0], [A7]+
00001ECC  4267                     clr.w      -[A7]
00001ECE  486E F4D2                pea.l      [A6 - 0xB2E]
00001ED2  3F2D FC46                move.w     -[A7], [A5 - 0x3BA]
00001ED6  4EAD 033A                jsr        [A5 + 0x33A /* export_99, CODE:1 @ 000049EA */]
00001EDA  3D5F F820                move.w     [A6 - 0x7E0], [A7]+
00001EDE  3F2E F820                move.w     -[A7], [A6 - 0x7E0]
00001EE2  2F3C 0001 1BB2           move.l     -[A7], 0x11BB2
00001EE8  4EAD 1832                jsr        [A5 + 0x1832 /* export_770, CODE:16 @ 000002F0 */]
00001EEC  486E E3C0                pea.l      [A6 - 0x1C40]
00001EF0  7050                     moveq.l    D0, 0x50
00001EF2  2F00                     move.l     -[A7], D0
00001EF4  4EAD 1B42                jsr        [A5 + 0x1B42 /* export_868, CODE:16 @ 00001E7C */]
00001EF8  41EE F3D2                lea.l      A0, [A6 - 0xC2E]
00001EFC  2D48 E3D2                move.l     [A6 - 0x1C2E], A0
00001F00  41EE F4D2                lea.l      A0, [A6 - 0xB2E]
00001F04  2D48 E3DC                move.l     [A6 - 0x1C24], A0
00001F08  3D6D FC46 E3D6           move.w     [A6 - 0x1C2A], [A5 - 0x3BA]
00001F0E  4267                     clr.w      -[A7]
00001F10  486E E3C0                pea.l      [A6 - 0x1C40]
00001F14  4267                     clr.w      -[A7]
00001F16  4EAD 02D2                jsr        [A5 + 0x2D2 /* export_86, CODE:1 @ 000047FC */]
00001F1A  3D5F F820                move.w     [A6 - 0x7E0], [A7]+
00001F1E  3F2E F820                move.w     -[A7], [A6 - 0x7E0]
00001F22  2F3C 000D 60F3           move.l     -[A7], 0xD60F3
00001F28  4EAD 1832                jsr        [A5 + 0x1832 /* export_770, CODE:16 @ 000002F0 */]
00001F2C  4267                     clr.w      -[A7]
00001F2E  42A7                     clr.l      -[A7]
00001F30  3F2D FC44                move.w     -[A7], [A5 - 0x3BC]
00001F34  4EAD 032A                jsr        [A5 + 0x32A /* export_97, CODE:1 @ 00004986 */]
00001F38  3D5F F820                move.w     [A6 - 0x7E0], [A7]+
00001F3C  4267                     clr.w      -[A7]
00001F3E  486D FD48                pea.l      [A5 - 0x2B8]
00001F42  3F2D FC46                move.w     -[A7], [A5 - 0x3BA]
00001F46  486E F826                pea.l      [A6 - 0x7DA]
00001F4A  4EAD 02EA                jsr        [A5 + 0x2EA /* export_89, CODE:1 @ 00004832 */]
00001F4E  3D5F F820                move.w     [A6 - 0x7E0], [A7]+
00001F52  3F2E F820                move.w     -[A7], [A6 - 0x7E0]
00001F56  2F3C 0000 87A8           move.l     -[A7], 0x87A8
00001F5C  4EAD 1832                jsr        [A5 + 0x1832 /* export_770, CODE:16 @ 000002F0 */]
00001F60  3B6E F826 FD68           move.w     [A5 - 0x298], [A6 - 0x7DA]
00001F66  42A7                     clr.l      -[A7]
00001F68  2F3C 0000 0600           move.l     -[A7], 0x600
00001F6E  486D F63C                pea.l      [A5 - 0x9C4]
00001F72  4EAD 1FB2                jsr        [A5 + 0x1FB2 /* export_1010, CODE:19 @ 00001DA0 */]
00001F76  102E E2E1                move.b     D0, [A6 - 0x1D1F]
00001F7A  670C                     beq        +0xE /* 00001F88 */
00001F7C  486D F654                pea.l      [A5 - 0x9AC]
00001F80  2F2E E2E2                move.l     -[A7], [A6 - 0x1D1E]
00001F84  4EAD 1FC2                jsr        [A5 + 0x1FC2 /* export_1012, CODE:19 @ 00001EC8 */]
label00001F88:
00001F88  2B6E E2E2 F648           move.l     [A5 - 0x9B8], [A6 - 0x1D1E]
00001F8E  70FF                     moveq.l    D0, 0xFFFFFFFF
00001F90  B06D FC42                cmp.w      D0, [A5 - 0x3BE]
00001F94  672A                     beq        +0x2C /* 00001FC0 */
00001F96  4267                     clr.w      -[A7]
00001F98  486D FD48                pea.l      [A5 - 0x2B8]
00001F9C  3F2D FC46                move.w     -[A7], [A5 - 0x3BA]
00001FA0  1F3C 0003                move.b     -[A7], 0x3
00001FA4  A9C4                     syscall    OpenRFPerm
00001FA6  3D5F F5DE                move.w     [A6 - 0xA22], [A7]+
00001FAA  302D F4F8                move.w     D0, [A5 - 0xB08]
00001FAE  B06D FC42                cmp.w      D0, [A5 - 0x3BE]
00001FB2  6606                     bne        +0x8 /* 00001FBA */
00001FB4  3B6E F5DE F4F8           move.w     [A5 - 0xB08], [A6 - 0xA22]
label00001FBA:
00001FBA  3B6E F5DE FC42           move.w     [A5 - 0x3BE], [A6 - 0xA22]
label00001FC0:
00001FC0  4FEE E232                lea.l      A7, [A6 - 0x1DCE]
00001FC4  4CDF 1CF8                movem.l    D3,D4,D5,D6,D7,A2,A3,A4, [A7]+
00001FC8  4E5E                     unlink     A6
00001FCA  4E75                     rts
00001FCC  0A77 7269 7465           xori.w     [A7 + D7.w * 4 + 0x65], 0x7269 /* 'ri' */
00001FD2  2074 6169 6C00           movea.l    A0, [[A4 + 0x6C00]]
00001FD8  1354 6861                move.b     [A1 + 0x6861], [A4]
00001FDC  7427                     moveq.l    D2, 0x27
00001FDE  7320                     moveq.l    D1, 0x20
00001FE0  616C                     bsr        +0x6E /* 0000204E */
00001FE2  6C20                     bge        +0x22 /* 00002004 */
00001FE4  666F                     bne        +0x71 /* 00002055 */
00001FE6  6C6B                     bge        +0x6D /* 00002053 */
00001FE8  732E                     moveq.l    D1, 0x2E
00001FEA  2E2E 5749                move.l     D7, [A6 + 0x5749]
00001FEE  4C44 5052                divu.l     D2:D5, D4
00001FF2  4E54 0C70                link       A4, -0xFFFFF390
00001FF6  6167                     bsr        +0x69 /* 0000205F */
00001FF8  6548                     bcs        +0x4A /* 00002042 */
00001FFA  6E64                     bgt        +0x66 /* 00002060 */
00001FFC  6C20                     bge        +0x22 /* 0000201E */
00001FFE  4E49                     trap       9
00002000  4C00 0C6C                muls.l     D4:D0, D0
label00002004:
00002004  6973                     bvs        +0x75 /* 00002079 */
00002006  7448                     moveq.l    D2, 0x48
00002008  6E64                     bgt        +0x66 /* 0000206E */
0000200A  6C20                     bge        +0x22 /* 0000202C */
0000200C  4E49                     trap       9
0000200E  4C00 5354                mulu.l     D5, D0
00002012  414B                     chk.w      D0, A3
00002014  0A48 7970                xori.w     A0, 0x7970 /* 'yp' */
00002018  6572                     bcs        +0x74 /* 0000208C */
0000201A  5465                     addq.w     -[A5], 2
0000201C  6D70                     blt        +0x72 /* 0000208E */
label0000201E:
0000201E  2000                     move.l     D0, D0
export_267:
00002020  4E56 FA06                link       A6, -0x05FA
00002024  48E7 0F18                movem.l    -[A7], D4,D5,D6,D7,A3,A4
00002028  2F2D FF98                move.l     -[A7], [A5 - 0x68]
label0000202C:
0000202C  4EAD 201A                jsr        [A5 + 0x201A /* export_1023, CODE:20 @ 000002FA */]
00002030  7000                     moveq.l    D0, 0x00
00002032  2B40 FF98                move.l     [A5 - 0x68], D0
00002036  4EAD 22A2                jsr        [A5 + 0x22A2 /* export_1104, CODE:20 @ 00005D82 */]
0000203A  4A6D FFAA                tst.w      [A5 - 0x56]
0000203E  57C0                     seq        D0
00002040  7201                     moveq.l    D1, 0x01
label00002042:
00002042  B26E 0008                cmp.w      D1, [A6 + 0x8]
00002046  57C1                     seq        D1
00002048  8001                     or.b       D0, D1
0000204A  6600 0390                bne        +0x392 /* 000023DC */
fn0000204E:
0000204E  41EE FDA2                lea.l      A0, [A6 - 0x25E]
00002052  43ED FC48                lea.l      A1, [A5 - 0x3B8]
00002056  703F                     moveq.l    D0, 0x3F
label00002058:
00002058  20D9                     move.l     [A0]+, [A1]+
0000205A  51C8 FFFC                dbf        D0, -0x6 /* 00002058 */
0000205E  41EE FD82                lea.l      A0, [A6 - 0x27E]
// begin alternate branch 00002060-00002062
label00002060:
00002060  FD82                     .invalid   <<F/6/6>>
// end alternate branch 00002060-00002062
label00002060: // (misaligned)
00002062  43ED FD48                lea.l      A1, [A5 - 0x2B8]
00002066  7007                     moveq.l    D0, 0x07
label00002068:
00002068  20D9                     move.l     [A0]+, [A1]+
0000206A  51C8 FFFC                dbf        D0, -0x6 /* 00002068 */
label0000206E:
0000206E  2D6D F62A FD7E           move.l     [A6 - 0x282], [A5 - 0x9D6]
00002074  2E2D F4E0                move.l     D7, [A5 - 0xB20]
00002078  4206                     clr.b      D6
0000207A  BEAD FF9C                cmp.l      D7, [A5 - 0x64]
0000207E  56C5                     sne        D5
00002080  4405                     neg.b      D5
00002082  1005                     move.b     D0, D5
00002084  675E                     beq        +0x60 /* 000020E4 */
00002086  422E FC1C                clr.b      [A6 - 0x3E4]
0000208A  2D6D FFA0 FC1E           move.l     [A6 - 0x3E2], [A5 - 0x60]
// begin alternate branch 0000208C-00002096
label0000208C:
0000208C  FFA0                     .invalid   <<F/6/7>>
label0000208E:
0000208E  FC1E 1D7C                .unknown   0xFC1E 0x1D7C (W = 6)
00002092  0005 FC48                ori.b      D5, 0x48 /* 'H' */
// end alternate branch 0000208C-00002096
label0000208C: // (misaligned)
label0000208E: // (misaligned)
00002090  1D7C 0005 FC48           move.b     [A6 - 0x3B8], 0x5
00002096  2D6D FF9C FC74           move.l     [A6 - 0x38C], [A5 - 0x64]
0000209C  4267                     clr.w      -[A7]
0000209E  486E FC1C                pea.l      [A6 - 0x3E4]
000020A2  4EAD 204A                jsr        [A5 + 0x204A /* export_1029, CODE:20 @ 000004A6 */]
000020A6  181F                     move.b     D4, [A7]+
000020A8  422E FC1C                clr.b      [A6 - 0x3E4]
000020AC  2D6E FD7E FC1E           move.l     [A6 - 0x3E2], [A6 - 0x282]
000020B2  1D7C 0005 FC48           move.b     [A6 - 0x3B8], 0x5
000020B8  42A7                     clr.l      -[A7]
000020BA  486E FD82                pea.l      [A6 - 0x27E]
000020BE  4EAD 1FE2                jsr        [A5 + 0x1FE2 /* export_1016, CODE:19 @ 0000227C */]
000020C2  2D5F FC74                move.l     [A6 - 0x38C], [A7]+
000020C6  1B7C 0001 E2FD           move.b     [A5 - 0x1D03], 0x1
000020CC  4267                     clr.w      -[A7]
000020CE  486E FC1C                pea.l      [A6 - 0x3E4]
000020D2  4EAD 204A                jsr        [A5 + 0x204A /* export_1029, CODE:20 @ 000004A6 */]
000020D6  181F                     move.b     D4, [A7]+
000020D8  422D E2FD                clr.b      [A5 - 0x1D03]
000020DC  BEAD F4E0                cmp.l      D7, [A5 - 0xB20]
000020E0  56C6                     sne        D6
000020E2  4406                     neg.b      D6
label000020E4:
000020E4  2F2D FFA0                move.l     -[A7], [A5 - 0x60]
000020E8  486E FA1A                pea.l      [A6 - 0x5E6]
000020EC  2F2D FF9C                move.l     -[A7], [A5 - 0x64]
000020F0  4EAD 1FEA                jsr        [A5 + 0x1FEA /* export_1017, CODE:19 @ 0000235A */]
000020F4  4EAD 20CA                jsr        [A5 + 0x20CA /* export_1045, CODE:20 @ 00001388 */]
000020F8  3F3C 0002                move.w     -[A7], 0x2
000020FC  4EAD 15F2                jsr        [A5 + 0x15F2 /* export_698, CODE:15 @ 00000E4A */]
00002100  41ED E274                lea.l      A0, [A5 - 0x1D8C]
00002104  43ED FFA8                lea.l      A1, [A5 - 0x58]
00002108  7006                     moveq.l    D0, 0x06
label0000210A:
0000210A  20D9                     move.l     [A0]+, [A1]+
0000210C  51C8 FFFC                dbf        D0, -0x6 /* 0000210A */
00002110  3091                     move.w     [A0], [A1]
00002112  2B6D FFA4 E270           move.l     [A5 - 0x1D90], [A5 - 0x5C]
00002118  486D EE38                pea.l      [A5 - 0x11C8]
0000211C  A873                     syscall    SetPort
0000211E  2F2D E270                move.l     -[A7], [A5 - 0x1D90]
00002122  3F2D E276                move.w     -[A7], [A5 - 0x1D8A]
00002126  4EAD 1682                jsr        [A5 + 0x1682 /* export_716, CODE:15 @ 00003082 */]
0000212A  2F2D E270                move.l     -[A7], [A5 - 0x1D90]
0000212E  3F2D E276                move.w     -[A7], [A5 - 0x1D8A]
00002132  4EAD 16A2                jsr        [A5 + 0x16A2 /* export_720, CODE:15 @ 00003A22 */]
00002136  486D E27A                pea.l      [A5 - 0x1D86]
0000213A  486D E2F2                pea.l      [A5 - 0x1D0E]
0000213E  4EAD 1CEA                jsr        [A5 + 0x1CEA /* export_921, CODE:17 @ 00001DBA */]
00002142  4EAD 1742                jsr        [A5 + 0x1742 /* export_740, CODE:15 @ 000050EE */]
00002146  1006                     move.b     D0, D6
00002148  672E                     beq        +0x30 /* 00002178 */
0000214A  487A 02EC                pea.l      [PC + 0x2EC /* 00002438, value 0x7737461, pstring "stack \"" */]
0000214E  486E FDA2                pea.l      [A6 - 0x25E]
00002152  486E FD82                pea.l      [A6 - 0x27E]
00002156  487A 02DE                pea.l      [PC + 0x2DE /* 00002436, value 0x1220773 */]
0000215A  486E FB1A                pea.l      [A6 - 0x4E6]
0000215E  3F3C 0004                move.w     -[A7], 0x4
00002162  4EAD 050A                jsr        [A5 + 0x50A /* export_157, CODE:1 @ 0000531E */]
00002166  41EE FC7A                lea.l      A0, [A6 - 0x386]
0000216A  43EE FB1A                lea.l      A1, [A6 - 0x4E6]
0000216E  703F                     moveq.l    D0, 0x3F
label00002170:
00002170  20D9                     move.l     [A0]+, [A1]+
00002172  51C8 FFFC                dbf        D0, -0x6 /* 00002170 */
00002176  6028                     bra        +0x2A /* 000021A0 */
label00002178:
00002178  487A 02BE                pea.l      [PC + 0x2BE /* 00002438, value 0x7737461, pstring "stack \"" */]
0000217C  486E FD82                pea.l      [A6 - 0x27E]
00002180  487A 02B4                pea.l      [PC + 0x2B4 /* 00002436, value 0x1220773 */]
00002184  486E FBF2                pea.l      [A6 - 0x40E]
00002188  3F3C 0003                move.w     -[A7], 0x3
0000218C  4EAD 050A                jsr        [A5 + 0x50A /* export_157, CODE:1 @ 0000531E */]
00002190  41EE FC7A                lea.l      A0, [A6 - 0x386]
00002194  43EE FBF2                lea.l      A1, [A6 - 0x40E]
00002198  7009                     moveq.l    D0, 0x09
label0000219A:
0000219A  20D9                     move.l     [A0]+, [A1]+
0000219C  51C8 FFFC                dbf        D0, -0x6 /* 0000219A */
label000021A0:
000021A0  7002                     moveq.l    D0, 0x02
000021A2  B06E 0008                cmp.w      D0, [A6 + 0x8]
000021A6  6626                     bne        +0x28 /* 000021CE */
000021A8  487A 0284                pea.l      [PC + 0x284 /* 0000242E, value 0x6676F20, pstring "go to " */]
000021AC  486E FC7A                pea.l      [A6 - 0x386]
000021B0  486E FB1A                pea.l      [A6 - 0x4E6]
000021B4  3F3C 0002                move.w     -[A7], 0x2
000021B8  4EAD 050A                jsr        [A5 + 0x50A /* export_157, CODE:1 @ 0000531E */]
000021BC  41EE FF00                lea.l      A0, [A6 - 0x100]
000021C0  43EE FB1A                lea.l      A1, [A6 - 0x4E6]
000021C4  703F                     moveq.l    D0, 0x3F
label000021C6:
000021C6  20D9                     move.l     [A0]+, [A1]+
000021C8  51C8 FFFC                dbf        D0, -0x6 /* 000021C6 */
000021CC  605A                     bra        +0x5C /* 00002228 */
label000021CE:
000021CE  487A 024E                pea.l      [PC + 0x24E /* 0000241E, value 0xE676F20, pstring "go to card id " */]
000021D2  486E FA06                pea.l      [A6 - 0x5FA]
000021D6  2F2E FD7E                move.l     -[A7], [A6 - 0x282]
000021DA  4EAD 18B2                jsr        [A5 + 0x18B2 /* export_786, CODE:16 @ 00000738 */]
000021DE  486E FBF8                pea.l      [A6 - 0x408]
000021E2  3F3C 0002                move.w     -[A7], 0x2
000021E6  4EAD 050A                jsr        [A5 + 0x50A /* export_157, CODE:1 @ 0000531E */]
000021EA  41EE FF00                lea.l      A0, [A6 - 0x100]
000021EE  43EE FBF8                lea.l      A1, [A6 - 0x408]
000021F2  7007                     moveq.l    D0, 0x07
label000021F4:
000021F4  20D9                     move.l     [A0]+, [A1]+
000021F6  51C8 FFFC                dbf        D0, -0x6 /* 000021F4 */
000021FA  3091                     move.w     [A0], [A1]
000021FC  1005                     move.b     D0, D5
000021FE  6728                     beq        +0x2A /* 00002228 */
00002200  486E FF00                pea.l      [A6 - 0x100]
00002204  487A 0212                pea.l      [PC + 0x212 /* 00002418, value 0x4206F66, pstring " of " */]
00002208  486E FC7A                pea.l      [A6 - 0x386]
0000220C  486E FB1A                pea.l      [A6 - 0x4E6]
00002210  3F3C 0003                move.w     -[A7], 0x3
00002214  4EAD 050A                jsr        [A5 + 0x50A /* export_157, CODE:1 @ 0000531E */]
00002218  41EE FF00                lea.l      A0, [A6 - 0x100]
0000221C  43EE FB1A                lea.l      A1, [A6 - 0x4E6]
00002220  703F                     moveq.l    D0, 0x3F
label00002222:
00002222  20D9                     move.l     [A0]+, [A1]+
00002224  51C8 FFFC                dbf        D0, -0x6 /* 00002222 */
label00002228:
00002228  1D7C 0001 FEE6           move.b     [A6 - 0x11A], 0x1
0000222E  1D7C 000D FEE7           move.b     [A6 - 0x119], 0xD /* '\r' */
00002234  42A7                     clr.l      -[A7]
00002236  2F2D FFA4                move.l     -[A7], [A5 - 0x5C]
0000223A  3F2D FFAA                move.w     -[A7], [A5 - 0x56]
0000223E  4EAD 1DDA                jsr        [A5 + 0x1DDA /* export_951, CODE:18 @ 00000FB4 */]
00002242  265F                     movea.l    A3, [A7]+
00002244  200B                     move.l     D0, A3
00002246  6700 0194                beq        +0x196 /* 000023DC */
0000224A  42A7                     clr.l      -[A7]
0000224C  2F0B                     move.l     -[A7], A3
0000224E  4EAD 0202                jsr        [A5 + 0x202 /* export_60, CODE:1 @ 00004640 */]
00002252  201F                     move.l     D0, [A7]+
00002254  D0BC 0000 0100           add.l      D0, 0x100
0000225A  3D40 FEE8                move.w     [A6 - 0x118], D0
0000225E  2F0B                     move.l     -[A7], A3
00002260  302E FEE8                move.w     D0, [A6 - 0x118]
00002264  48C0                     ext.l      D0
00002266  2F00                     move.l     -[A7], D0
00002268  4EAD 1982                jsr        [A5 + 0x1982 /* export_812, CODE:16 @ 00000EAC */]
0000226C  4267                     clr.w      -[A7]
0000226E  3EB8 0220                move.w     [A7], [0x00000220 /* MemErr */]
00002272  4A5F                     tst.w      [A7]+
00002274  6600 0160                bne        +0x162 /* 000023D6 */
00002278  302E FEE8                move.w     D0, [A6 - 0x118]
0000227C  48C0                     ext.l      D0
0000227E  D093                     add.l      D0, [A3]
00002280  2D40 FEF8                move.l     [A6 - 0x108], D0
00002284  41EE FECE                lea.l      A0, [A6 - 0x132]
00002288  43FA 0188                lea.l      A1, [PC + 0x188 /* 00002412, value 0x43F676F, pstring "?go " */]
0000228C  20D9                     move.l     [A0]+, [A1]+
0000228E  3091                     move.w     [A0], [A1]
00002290  1D7C 000D FECF           move.b     [A6 - 0x131], 0xD /* '\r' */
00002296  42A7                     clr.l      -[A7]
00002298  486E FECE                pea.l      [A6 - 0x132]
0000229C  2F13                     move.l     -[A7], [A3]
0000229E  4EAD 1AE2                jsr        [A5 + 0x1AE2 /* export_856, CODE:16 @ 00001C78 */]
000022A2  285F                     movea.l    A4, [A7]+
000022A4  200C                     move.l     D0, A4
000022A6  6726                     beq        +0x28 /* 000022CE */
000022A8  528C                     addq.l     A4, 1
000022AA  2D4C FEF0                move.l     [A6 - 0x110], A4
000022AE  486E FEF0                pea.l      [A6 - 0x110]
000022B2  4EAD 1AA2                jsr        [A5 + 0x1AA2 /* export_848, CODE:16 @ 00001A3E */]
000022B6  2F2E FEF0                move.l     -[A7], [A6 - 0x110]
000022BA  2F0C                     move.l     -[A7], A4
000022BC  202E FEF8                move.l     D0, [A6 - 0x108]
000022C0  90AE FEF0                sub.l      D0, [A6 - 0x110]
000022C4  2F00                     move.l     -[A7], D0
000022C6  4EAD 024A                jsr        [A5 + 0x24A /* export_69, CODE:1 @ 000046A6 */]
000022CA  6000 00AE                bra        +0xB0 /* 0000237A */
label000022CE:
000022CE  42A7                     clr.l      -[A7]
000022D0  487A 0126                pea.l      [PC + 0x126 /* 000023F8, value 0xA6F6E20 '\non ', pstring "on mouseUp" */]
000022D4  2F13                     move.l     -[A7], [A3]
000022D6  4EAD 1AE2                jsr        [A5 + 0x1AE2 /* export_856, CODE:16 @ 00001C78 */]
000022DA  285F                     movea.l    A4, [A7]+
000022DC  200C                     move.l     D0, A4
000022DE  6724                     beq        +0x26 /* 00002304 */
000022E0  41EE FEBA                lea.l      A0, [A6 - 0x146]
000022E4  43FA 011E                lea.l      A1, [PC + 0x11E /* 00002404, value 0xC3F656E, pstring "?end mouseUp" */]
000022E8  20D9                     move.l     [A0]+, [A1]+
000022EA  20D9                     move.l     [A0]+, [A1]+
000022EC  20D9                     move.l     [A0]+, [A1]+
000022EE  3091                     move.w     [A0], [A1]
000022F0  1D7C 000D FEBB           move.b     [A6 - 0x145], 0xD /* '\r' */
000022F6  42A7                     clr.l      -[A7]
000022F8  486E FEBA                pea.l      [A6 - 0x146]
000022FC  2F0C                     move.l     -[A7], A4
000022FE  4EAD 1AE2                jsr        [A5 + 0x1AE2 /* export_856, CODE:16 @ 00001C78 */]
00002302  285F                     movea.l    A4, [A7]+
label00002304:
00002304  200C                     move.l     D0, A4
00002306  663C                     bne        +0x3E /* 00002344 */
00002308  487A 00EE                pea.l      [PC + 0xEE /* 000023F8, value 0xA6F6E20 '\non ', pstring "on mouseUp" */]
0000230C  486E FEE6                pea.l      [A6 - 0x11A]
00002310  486E FF00                pea.l      [A6 - 0x100]
00002314  486E FEE6                pea.l      [A6 - 0x11A]
00002318  487A 00D2                pea.l      [PC + 0xD2 /* 000023EC, value 0xB656E64, pstring "end mouseUp" */]
0000231C  486E FEE6                pea.l      [A6 - 0x11A]
00002320  486E FEE6                pea.l      [A6 - 0x11A]
00002324  486E FB1A                pea.l      [A6 - 0x4E6]
00002328  3F3C 0007                move.w     -[A7], 0x7
0000232C  4EAD 050A                jsr        [A5 + 0x50A /* export_157, CODE:1 @ 0000531E */]
00002330  41EE FF00                lea.l      A0, [A6 - 0x100]
00002334  43EE FB1A                lea.l      A1, [A6 - 0x4E6]
00002338  703F                     moveq.l    D0, 0x3F
label0000233A:
0000233A  20D9                     move.l     [A0]+, [A1]+
0000233C  51C8 FFFC                dbf        D0, -0x6 /* 0000233A */
00002340  2853                     movea.l    A4, [A3]
00002342  6036                     bra        +0x38 /* 0000237A */
label00002344:
00002344  200C                     move.l     D0, A4
00002346  5380                     subq.l     D0, 1
00002348  2D40 FEA2                move.l     [A6 - 0x15E], D0
0000234C  206E FEA2                movea.l    A0, [A6 - 0x15E]
00002350  700D                     moveq.l    D0, 0x0D
00002352  B010                     cmp.b      D0, [A0]
00002354  6724                     beq        +0x26 /* 0000237A */
00002356  486E FEE6                pea.l      [A6 - 0x11A]
0000235A  486E FF00                pea.l      [A6 - 0x100]
0000235E  486E FB1A                pea.l      [A6 - 0x4E6]
00002362  3F3C 0002                move.w     -[A7], 0x2
00002366  4EAD 050A                jsr        [A5 + 0x50A /* export_157, CODE:1 @ 0000531E */]
0000236A  41EE FF00                lea.l      A0, [A6 - 0x100]
0000236E  43EE FB1A                lea.l      A1, [A6 - 0x4E6]
00002372  703F                     moveq.l    D0, 0x3F
label00002374:
00002374  20D9                     move.l     [A0]+, [A1]+
00002376  51C8 FFFC                dbf        D0, -0x6 /* 00002374 */
label0000237A:
0000237A  4240                     clr.w      D0
0000237C  102E FF00                move.b     D0, [A6 - 0x100]
00002380  3D40 FEEA                move.w     [A6 - 0x116], D0
00002384  48C0                     ext.l      D0
00002386  D08C                     add.l      D0, A4
00002388  2D40 FEF4                move.l     [A6 - 0x10C], D0
0000238C  2F0C                     move.l     -[A7], A4
0000238E  2F2E FEF4                move.l     -[A7], [A6 - 0x10C]
00002392  202E FEF8                move.l     D0, [A6 - 0x108]
00002396  90AE FEF4                sub.l      D0, [A6 - 0x10C]
0000239A  2F00                     move.l     -[A7], D0
0000239C  4EAD 024A                jsr        [A5 + 0x24A /* export_69, CODE:1 @ 000046A6 */]
000023A0  41EE FF00                lea.l      A0, [A6 - 0x100]
000023A4  2008                     move.l     D0, A0
000023A6  5280                     addq.l     D0, 1
000023A8  2F00                     move.l     -[A7], D0
000023AA  2F0C                     move.l     -[A7], A4
000023AC  302E FEEA                move.w     D0, [A6 - 0x116]
000023B0  48C0                     ext.l      D0
000023B2  2F00                     move.l     -[A7], D0
000023B4  4EAD 19B2                jsr        [A5 + 0x19B2 /* export_818, CODE:16 @ 000010BE */]
000023B8  2F2D FFA4                move.l     -[A7], [A5 - 0x5C]
000023BC  3F2D FFAA                move.w     -[A7], [A5 - 0x56]
000023C0  4EAD 10A2                jsr        [A5 + 0x10A2 /* export_528, CODE:9 @ 00004722 */]
000023C4  4267                     clr.w      -[A7]
000023C6  2F2D FFA4                move.l     -[A7], [A5 - 0x5C]
000023CA  3F2D FFAA                move.w     -[A7], [A5 - 0x56]
000023CE  2F0B                     move.l     -[A7], A3
000023D0  4EAD 1E7A                jsr        [A5 + 0x1E7A /* export_971, CODE:18 @ 00002FCA */]
000023D4  181F                     move.b     D4, [A7]+
label000023D6:
000023D6  2F0B                     move.l     -[A7], A3
000023D8  4EAD 18D2                jsr        [A5 + 0x18D2 /* export_790, CODE:16 @ 0000083E */]
label000023DC:
000023DC  4EAD 0062                jsr        [A5 + 0x62 /* export_8, CODE:1 @ 0000184E */]
000023E0  4CDF 18F0                movem.l    D4,D5,D6,D7,A3,A4, [A7]+
000023E4  4E5E                     unlink     A6
000023E6  205F                     movea.l    A0, [A7]+
000023E8  544F                     addq.w     A7, 2
000023EA  4ED0                     jmp        [A0]
000023EC  0B65                     bchg       -[A5], D5
000023EE  6E64                     bgt        +0x66 /* 00002454 */
000023F0  206D 6F75                movea.l    A0, [A5 + 0x6F75]
000023F4  7365                     moveq.l    D1, 0x65
000023F6  5570 0A6F                subq.w     [A0 + D0 * 2 + 0x6F], 2
000023FA  6E20                     bgt        +0x22 /* 0000241C */
000023FC  6D6F                     blt        +0x71 /* 0000246D */
000023FE  7573                     moveq.l    D2, 0x73
00002400  6555                     bcs        +0x57 /* 00002457 */
00002402  7000                     moveq.l    D0, 0x00
00002404  0C3F 656E                cmpi.b     <<invalid special address>>, 0x6E /* 'n' */
00002408  6420                     bcc        +0x22 /* 0000242A */
0000240A  6D6F                     blt        +0x71 /* 0000247B */
0000240C  7573                     moveq.l    D2, 0x73
0000240E  6555                     bcs        +0x57 /* 00002465 */
00002410  7000                     moveq.l    D0, 0x00
00002412  043F 676F                subi.b     <<invalid special address>>, 0x6F /* 'o' */
00002416  2000                     move.l     D0, D0
00002418  0420 6F66                subi.b     -[A0], 0x66 /* 'f' */
label0000241C:
0000241C  2000                     move.l     D0, D0
0000241E  0E67 6F20                .invalid.w -[A7], 0x6F20 /* 'o ' */ // invalid immediate operation
00002422  746F                     moveq.l    D2, 0x6F
00002424  2063                     movea.l    A0, -[A3]
00002426  6172                     bsr        +0x74 /* 0000249A */
00002428  6420                     bcc        +0x22 /* 0000244A */
label0000242A:
0000242A  6964                     bvs        +0x66 /* 00002490 */
0000242C  2000                     move.l     D0, D0
0000242E  0667 6F20                addi.w     -[A7], 0x6F20 /* 'o ' */
00002432  746F                     moveq.l    D2, 0x6F
00002434  2000                     move.l     D0, D0
00002436  0122                     btst       -[A2], D0
00002438  0773 7461                bchg       [A3 + D7.w * 4 + 0x61], D3
0000243C  636B                     bls        +0x6D /* 000024A9 */
0000243E  2022                     move.l     D0, -[A2]
export_268:
00002440  4E56 FDE0                link       A6, -0x0220
00002444  48E7 0308                movem.l    -[A7], D6,D7,A4
00002448  486D FC48                pea.l      [A5 - 0x3B8]
// begin alternate branch 0000244A-00002450
label0000244A:
0000244A  FC48 486D                .extension 0xC48 <<F/1/6>>, 0x486D // unimplemented
0000244E  FD48                     .extension 0xD48 <<F/4-5/6>> // unimplemented
// end alternate branch 0000244A-00002450
label0000244A: // (misaligned)
0000244C  486D FD48                pea.l      [A5 - 0x2B8]
00002450  486E FDF4                pea.l      [A6 - 0x20C]
label00002454:
00002454  3F3C 0002                move.w     -[A7], 0x2
00002458  4EAD 050A                jsr        [A5 + 0x50A /* export_157, CODE:1 @ 0000531E */]
0000245C  41EE FEFA                lea.l      A0, [A6 - 0x106]
00002460  43EE FDF4                lea.l      A1, [A6 - 0x20C]
00002464  703F                     moveq.l    D0, 0x3F
label00002466:
00002466  20D9                     move.l     [A0]+, [A1]+
00002468  51C8 FFFC                dbf        D0, -0x6 /* 00002466 */
0000246C  4267                     clr.w      -[A7]
0000246E  486E FEFA                pea.l      [A6 - 0x106]
00002472  486D F4FE                pea.l      [A5 - 0xB02]
00002476  486D F5FE                pea.l      [A5 - 0xA02]
0000247A  486E FDF4                pea.l      [A6 - 0x20C]
0000247E  3F3C 0002                move.w     -[A7], 0x2
00002482  4EAD 050A                jsr        [A5 + 0x50A /* export_157, CODE:1 @ 0000531E */]
00002486  486E FDF4                pea.l      [A6 - 0x20C]
0000248A  4EAD 1AC2                jsr        [A5 + 0x1AC2 /* export_852, CODE:16 @ 00001B82 */]
0000248E  101F                     move.b     D0, [A7]+
label00002490:
00002490  670C                     beq        +0xE /* 0000249E */
00002492  3F3C 0007                move.w     -[A7], 0x7
00002496  4EAD 187A                jsr        [A5 + 0x187A /* export_779, CODE:16 @ 00000500 */]
fn0000249A:
0000249A  6000 00D6                bra        +0xD8 /* 00002572 */
label0000249E:
0000249E  082D 0006 F688           btst.b     [A5 - 0x978], 0x6
000024A4  56C7                     sne        D7
000024A6  4407                     neg.b      D7
000024A8  1007                     move.b     D0, D7
000024AA  802D F4CD                or.b       D0, [A5 - 0xB33]
000024AE  670C                     beq        +0xE /* 000024BC */
000024B0  3F3C 0008                move.w     -[A7], 0x8
000024B4  4EAD 187A                jsr        [A5 + 0x187A /* export_779, CODE:16 @ 00000500 */]
000024B8  6000 00B8                bra        +0xBA /* 00002572 */
label000024BC:
000024BC  486E FDE0                pea.l      [A6 - 0x220]
000024C0  2F2D F668                move.l     -[A7], [A5 - 0x998]
000024C4  4EAD 1902                jsr        [A5 + 0x1902 /* export_796, CODE:16 @ 000009D4 */]
000024C8  486E FEFA                pea.l      [A6 - 0x106]
000024CC  487A 00B8                pea.l      [PC + 0xB8 /* 00002586, value 0x4E56 'NV', cstring "" */]
000024D0  487A 00B4                pea.l      [PC + 0xB4 /* 00002586, value 0x4E56 'NV', cstring "" */]
000024D4  A98B                     syscall    ParamText
000024D6  4EAD 1862                jsr        [A5 + 0x1862 /* export_776, CODE:16 @ 00000474 */]
000024DA  42A7                     clr.l      -[A7]
000024DC  3F3C 07D4                move.w     -[A7], 0x7D4
000024E0  42A7                     clr.l      -[A7]
000024E2  70FF                     moveq.l    D0, 0xFFFFFFFF
000024E4  2F00                     move.l     -[A7], D0
000024E6  A97C                     syscall    GetNewDialog
000024E8  285F                     movea.l    A4, [A7]+
000024EA  2F0C                     move.l     -[A7], A4
000024EC  4EAD 186A                jsr        [A5 + 0x186A /* export_777, CODE:16 @ 00000490 */]
label000024F0:
000024F0  42A7                     clr.l      -[A7]
000024F2  486E FFFA                pea.l      [A6 - 0x6]
000024F6  A991                     syscall    ModalDialog
000024F8  7002                     moveq.l    D0, 0x02
000024FA  B06E FFFA                cmp.w      D0, [A6 - 0x6]
000024FE  57C0                     seq        D0
00002500  7201                     moveq.l    D1, 0x01
00002502  B26E FFFA                cmp.w      D1, [A6 - 0x6]
00002506  57C1                     seq        D1
00002508  8001                     or.b       D0, D1
0000250A  67E4                     beq        -0x1A /* 000024F0 */
0000250C  2F0C                     move.l     -[A7], A4
0000250E  4EAD 201A                jsr        [A5 + 0x201A /* export_1023, CODE:20 @ 000002FA */]
00002512  4EAD 22A2                jsr        [A5 + 0x22A2 /* export_1104, CODE:20 @ 00005D82 */]
00002516  7002                     moveq.l    D0, 0x02
00002518  B06E FFFA                cmp.w      D0, [A6 - 0x6]
0000251C  6654                     bne        +0x56 /* 00002572 */
0000251E  2C2D F4E0                move.l     D6, [A5 - 0xB20]
00002522  41ED E0E8                lea.l      A0, [A5 - 0x1F18]
00002526  43FA 0052                lea.l      A1, [PC + 0x52 /* 0000257A, value 0xB64656C, pstring "deleteStack" */]
0000252A  20D9                     move.l     [A0]+, [A1]+
0000252C  20D9                     move.l     [A0]+, [A1]+
0000252E  20D9                     move.l     [A0]+, [A1]+
00002530  4EAD 0B8A                jsr        [A5 + 0xB8A /* export_365, CODE:8 @ 00003F30 */]
00002534  2F2D F4E0                move.l     -[A7], [A5 - 0xB20]
00002538  1F3C 0001                move.b     -[A7], 0x1
0000253C  4EAD 108A                jsr        [A5 + 0x108A /* export_525, CODE:9 @ 000045EC */]
00002540  7001                     moveq.l    D0, 0x01
00002542  2F00                     move.l     -[A7], D0
00002544  486D F5FE                pea.l      [A5 - 0xA02]
00002548  4EAD 20C2                jsr        [A5 + 0x20C2 /* export_1044, CODE:20 @ 0000133E */]
0000254C  4267                     clr.w      -[A7]
0000254E  486E FEFA                pea.l      [A6 - 0x106]
00002552  4267                     clr.w      -[A7]
00002554  4EAD 033A                jsr        [A5 + 0x33A /* export_99, CODE:1 @ 000049EA */]
00002558  3D5F FFFA                move.w     [A6 - 0x6], [A7]+
0000255C  4A6E FFFA                tst.w      [A6 - 0x6]
00002560  6608                     bne        +0xA /* 0000256A */
00002562  2F06                     move.l     -[A7], D6
00002564  4EAD 2032                jsr        [A5 + 0x2032 /* export_1026, CODE:20 @ 000003A8 */]
00002568  6008                     bra        +0xA /* 00002572 */
label0000256A:
0000256A  3F3C 0009                move.w     -[A7], 0x9 /* '\t' */
0000256E  4EAD 187A                jsr        [A5 + 0x187A /* export_779, CODE:16 @ 00000500 */]
label00002572:
00002572  4CDF 10C0                movem.l    D6,D7,A4, [A7]+
00002576  4E5E                     unlink     A6
00002578  4E75                     rts
0000257A  0B64                     bchg       -[A4], D5
0000257C  656C                     bcs        +0x6E /* 000025EA */
0000257E  6574                     bcs        +0x76 /* 000025F4 */
00002580  6553                     bcs        +0x55 /* 000025D5 */
00002582  7461                     moveq.l    D2, 0x61
00002584  636B                     bls        +0x6D /* 000025F1 */
00002586  0000 4E56                ori.b      D0, 0x56 /* 'V' */
// begin alternate branch 00002588-0000258E
fn00002588:
00002588  4E56 0000                link       A6, 0
0000258C  2F0C                     move.l     -[A7], A4
// end alternate branch 00002588-0000258E
fn00002588: // (misaligned)
0000258A  0000 2F0C                ori.b      D0, 0xC
0000258E  286E 0008                movea.l    A4, [A6 + 0x8]
00002592  2F2C FFFC                move.l     -[A7], [A4 - 0x4]
00002596  3F2E 000E                move.w     -[A7], [A6 + 0xE]
0000259A  486C FFF8                pea.l      [A4 - 0x8]
0000259E  486C FFF4                pea.l      [A4 - 0xC]
000025A2  486C FFEC                pea.l      [A4 - 0x14]
000025A6  A98D                     syscall    GetDialogItem/GetDItem
000025A8  2F2C FFF4                move.l     -[A7], [A4 - 0xC]
000025AC  102E 000C                move.b     D0, [A6 + 0xC]
000025B0  4880                     ext.w      D0
000025B2  3F00                     move.w     -[A7], D0
000025B4  A963                     syscall    SetControlValue/SetCtlValue
000025B6  285F                     movea.l    A4, [A7]+
000025B8  4E5E                     unlink     A6
000025BA  205F                     movea.l    A0, [A7]+
000025BC  504F                     addq.w     A7, 8
000025BE  4ED0                     jmp        [A0]
export_269:
000025C0  4E56 FC8C                link       A6, -0x0374
000025C4  48E7 0F18                movem.l    -[A7], D4,D5,D6,D7,A3,A4
000025C8  4267                     clr.w      -[A7]
000025CA  4EAD 221A                jsr        [A5 + 0x221A /* export_1087, CODE:20 @ 00004B46 */]
000025CE  101F                     move.b     D0, [A7]+
000025D0  802D F005                or.b       D0, [A5 - 0xFFB]
000025D4  6600 0270                bne        +0x272 /* 00002846 */
000025D8  102D F4CD                move.b     D0, [A5 - 0xB33]
000025DC  0A00 0001                xori.b     D0, 0x1
000025E0  802D F015                or.b       D0, [A5 - 0xFEB]
000025E4  1800                     move.b     D4, D0
000025E6  486E FCDC                pea.l      [A6 - 0x324]
label000025EA:
000025EA  2F2D F622                move.l     -[A7], [A5 - 0x9DE]
000025EE  4EAD 1D72                jsr        [A5 + 0x1D72 /* export_938, CODE:18 @ 00000950 */]
000025F2  205F                     movea.l    A0, [A7]+
label000025F4:
000025F4  43EE FEEC                lea.l      A1, [A6 - 0x114]
000025F8  703F                     moveq.l    D0, 0x3F
label000025FA:
000025FA  22D8                     move.l     [A1]+, [A0]+
000025FC  51C8 FFFC                dbf        D0, -0x6 /* 000025FA */
00002600  42A7                     clr.l      -[A7]
00002602  2F2D F622                move.l     -[A7], [A5 - 0x9DE]
00002606  4EAD 1F6A                jsr        [A5 + 0x1F6A /* export_1001, CODE:19 @ 000016EC */]
0000260A  265F                     movea.l    A3, [A7]+
0000260C  2053                     movea.l    A0, [A3]
0000260E  2D68 0014 FDE8           move.l     [A6 - 0x218], [A0 + 0x14]
00002614  2053                     movea.l    A0, [A3]
00002616  0828 0007 0010           btst.b     [A0 + 0x10], 0x7
0000261C  56C7                     sne        D7
0000261E  4407                     neg.b      D7
00002620  2053                     movea.l    A0, [A3]
00002622  0828 0006 0010           btst.b     [A0 + 0x10], 0x6
00002628  56C6                     sne        D6
0000262A  4406                     neg.b      D6
0000262C  2F2D F622                move.l     -[A7], [A5 - 0x9DE]
00002630  4267                     clr.w      -[A7]
00002632  4EAD 1EE2                jsr        [A5 + 0x1EE2 /* export_984, CODE:19 @ 00000414 */]
00002636  486E FCC8                pea.l      [A6 - 0x338]
0000263A  2F2D F622                move.l     -[A7], [A5 - 0x9DE]
0000263E  4EAD 18B2                jsr        [A5 + 0x18B2 /* export_786, CODE:16 @ 00000738 */]
00002642  486E FCB4                pea.l      [A6 - 0x34C]
00002646  2F2E FDE8                move.l     -[A7], [A6 - 0x218]
0000264A  4EAD 1902                jsr        [A5 + 0x1902 /* export_796, CODE:16 @ 000009D4 */]
0000264E  486E FCA0                pea.l      [A6 - 0x360]
00002652  4267                     clr.w      -[A7]
00002654  2F2D F622                move.l     -[A7], [A5 - 0x9DE]
00002658  3F3C 0002                move.w     -[A7], 0x2
0000265C  4EAD 1D32                jsr        [A5 + 0x1D32 /* export_930, CODE:18 @ 0000012E */]
00002660  301F                     move.w     D0, [A7]+
00002662  48C0                     ext.l      D0
00002664  2F00                     move.l     -[A7], D0
00002666  4EAD 1902                jsr        [A5 + 0x1902 /* export_796, CODE:16 @ 000009D4 */]
0000266A  486E FC8C                pea.l      [A6 - 0x374]
0000266E  4267                     clr.w      -[A7]
00002670  2F2D F622                move.l     -[A7], [A5 - 0x9DE]
00002674  3F3C 0001                move.w     -[A7], 0x1
00002678  4EAD 1D32                jsr        [A5 + 0x1D32 /* export_930, CODE:18 @ 0000012E */]
0000267C  301F                     move.w     D0, [A7]+
0000267E  48C0                     ext.l      D0
00002680  2F00                     move.l     -[A7], D0
00002682  4EAD 1902                jsr        [A5 + 0x1902 /* export_796, CODE:16 @ 000009D4 */]
00002686  A98B                     syscall    ParamText
00002688  4EAD 1862                jsr        [A5 + 0x1862 /* export_776, CODE:16 @ 00000474 */]
0000268C  42A7                     clr.l      -[A7]
0000268E  3F3C 089B                move.w     -[A7], 0x89B
00002692  42A7                     clr.l      -[A7]
00002694  70FF                     moveq.l    D0, 0xFFFFFFFF
00002696  2F00                     move.l     -[A7], D0
00002698  A97C                     syscall    GetNewDialog
0000269A  2D5F FFFC                move.l     [A6 - 0x4], [A7]+
0000269E  2F2E FFFC                move.l     -[A7], [A6 - 0x4]
000026A2  4EAD 182A                jsr        [A5 + 0x182A /* export_769, CODE:16 @ 000002AC */]
000026A6  3F3C 000A                move.w     -[A7], 0xA /* '\n' */
000026AA  1F07                     move.b     -[A7], D7
000026AC  2F0E                     move.l     -[A7], A6
000026AE  4EBA FED8                jsr        [PC - 0x128 /* 00002588 */]
000026B2  3F3C 000B                move.w     -[A7], 0xB
000026B6  1F06                     move.b     -[A7], D6
000026B8  2F0E                     move.l     -[A7], A6
000026BA  4EBA FECC                jsr        [PC - 0x134 /* 00002588 */]
000026BE  2F2E FFFC                move.l     -[A7], [A6 - 0x4]
000026C2  A915                     syscall    ShowWindow
000026C4  2F2E FFFC                move.l     -[A7], [A6 - 0x4]
000026C8  4EAD 186A                jsr        [A5 + 0x186A /* export_777, CODE:16 @ 00000490 */]
000026CC  7005                     moveq.l    D0, 0x05
000026CE  B06D F02C                cmp.w      D0, [A5 - 0xFD4]
000026D2  6F20                     ble        +0x22 /* 000026F4 */
000026D4  2F2E FFFC                move.l     -[A7], [A6 - 0x4]
000026D8  3F3C 0003                move.w     -[A7], 0x3
000026DC  486E FFF8                pea.l      [A6 - 0x8]
000026E0  486E FFF4                pea.l      [A6 - 0xC]
000026E4  486E FFEC                pea.l      [A6 - 0x14]
000026E8  A98D                     syscall    GetDialogItem/GetDItem
000026EA  2F2E FFF4                move.l     -[A7], [A6 - 0xC]
000026EE  3F3C 00FF                move.w     -[A7], 0xFF
000026F2  A95D                     syscall    HiliteControl
label000026F4:
000026F4  2F2E FFFC                move.l     -[A7], [A6 - 0x4]
000026F8  3F3C 0005                move.w     -[A7], 0x5
000026FC  486E FFF8                pea.l      [A6 - 0x8]
00002700  486E FFF4                pea.l      [A6 - 0xC]
00002704  486E FFEC                pea.l      [A6 - 0x14]
00002708  A98D                     syscall    GetDialogItem/GetDItem
0000270A  2F2E FFF4                move.l     -[A7], [A6 - 0xC]
0000270E  486E FEEC                pea.l      [A6 - 0x114]
00002712  A98F                     syscall    SetDialogItemText/SetIText
00002714  2F2E FFFC                move.l     -[A7], [A6 - 0x4]
00002718  2F3C 0000 0005           move.l     -[A7], 0x5
0000271E  3F3C 7FFF                move.w     -[A7], 0x7FFF
00002722  A97E                     syscall    SelectDialogItemText/SelIText
label00002724:
00002724  42A7                     clr.l      -[A7]
00002726  486E FFFA                pea.l      [A6 - 0x6]
0000272A  A991                     syscall    ModalDialog
0000272C  1004                     move.b     D0, D4
0000272E  6732                     beq        +0x34 /* 00002762 */
00002730  302E FFFA                move.w     D0, [A6 - 0x6]
00002734  0440 000A                subi.w     D0, 0xA /* '\n' */
00002738  6706                     beq        +0x8 /* 00002740 */
0000273A  5340                     subq.w     D0, 1
0000273C  6714                     beq        +0x16 /* 00002752 */
0000273E  6022                     bra        +0x24 /* 00002762 */
label00002740:
00002740  0A07 0001                xori.b     D7, 0x1
00002744  3F3C 000A                move.w     -[A7], 0xA /* '\n' */
00002748  1F07                     move.b     -[A7], D7
0000274A  2F0E                     move.l     -[A7], A6
0000274C  4EBA FE3A                jsr        [PC - 0x1C6 /* 00002588 */]
00002750  6010                     bra        +0x12 /* 00002762 */
label00002752:
00002752  0A06 0001                xori.b     D6, 0x1
00002756  3F3C 000B                move.w     -[A7], 0xB
0000275A  1F06                     move.b     -[A7], D6
0000275C  2F0E                     move.l     -[A7], A6
0000275E  4EBA FE28                jsr        [PC - 0x1D8 /* 00002588 */]
label00002762:
00002762  7001                     moveq.l    D0, 0x01
00002764  B06E FFFA                cmp.w      D0, [A6 - 0x6]
00002768  57C0                     seq        D0
0000276A  7202                     moveq.l    D1, 0x02
0000276C  B26E FFFA                cmp.w      D1, [A6 - 0x6]
00002770  57C1                     seq        D1
00002772  8001                     or.b       D0, D1
00002774  7203                     moveq.l    D1, 0x03
00002776  B26E FFFA                cmp.w      D1, [A6 - 0x6]
0000277A  57C1                     seq        D1
0000277C  8001                     or.b       D0, D1
0000277E  67A4                     beq        -0x5A /* 00002724 */
00002780  7002                     moveq.l    D0, 0x02
00002782  B06E FFFA                cmp.w      D0, [A6 - 0x6]
00002786  6700 00AC                beq        +0xAE /* 00002834 */
0000278A  42A7                     clr.l      -[A7]
0000278C  2F2D F622                move.l     -[A7], [A5 - 0x9DE]
00002790  4EAD 1F6A                jsr        [A5 + 0x1F6A /* export_1001, CODE:19 @ 000016EC */]
00002794  265F                     movea.l    A3, [A7]+
00002796  7A00                     moveq.l    D5, 0x00
00002798  200B                     move.l     D0, A3
0000279A  6606                     bne        +0x8 /* 000027A2 */
0000279C  4EAD 1812                jsr        [A5 + 0x1812 /* export_766, CODE:16 @ 00000208 */]
000027A0  6042                     bra        +0x44 /* 000027E4 */
label000027A2:
000027A2  2853                     movea.l    A4, [A3]
000027A4  082C 0007 0010           btst.b     [A4 + 0x10], 0x7
000027AA  56C0                     sne        D0
000027AC  4400                     neg.b      D0
000027AE  B007                     cmp.b      D0, D7
000027B0  6704                     beq        +0x6 /* 000027B6 */
000027B2  08C5 001F                bset.b     D5, 0x1F
label000027B6:
000027B6  082C 0006 0010           btst.b     [A4 + 0x10], 0x6
000027BC  56C0                     sne        D0
000027BE  4400                     neg.b      D0
000027C0  B006                     cmp.b      D0, D6
000027C2  6704                     beq        +0x6 /* 000027C8 */
000027C4  08C5 001E                bset.b     D5, 0x1E
label000027C8:
000027C8  2005                     move.l     D0, D5
000027CA  222C 0010                move.l     D1, [A4 + 0x10]
000027CE  B380                     xor.l      D0, D1
000027D0  2940 0010                move.l     [A4 + 0x10], D0
000027D4  2F2D F622                move.l     -[A7], [A5 - 0x9DE]
000027D8  4A85                     tst.l      D5
000027DA  56C0                     sne        D0
000027DC  4400                     neg.b      D0
000027DE  1F00                     move.b     -[A7], D0
000027E0  4EAD 1EE2                jsr        [A5 + 0x1EE2 /* export_984, CODE:19 @ 00000414 */]
label000027E4:
000027E4  2F2E FFFC                move.l     -[A7], [A6 - 0x4]
000027E8  3F3C 0005                move.w     -[A7], 0x5
000027EC  486E FFF8                pea.l      [A6 - 0x8]
000027F0  486E FFF4                pea.l      [A6 - 0xC]
000027F4  486E FFEC                pea.l      [A6 - 0x14]
000027F8  A98D                     syscall    GetDialogItem/GetDItem
000027FA  2F2E FFF4                move.l     -[A7], [A6 - 0xC]
000027FE  486E FDEC                pea.l      [A6 - 0x214]
00002802  A990                     syscall    GetDialogItemText/GetIText
00002804  486E FDEC                pea.l      [A6 - 0x214]
00002808  486E FEEC                pea.l      [A6 - 0x114]
0000280C  4EAD 052A                jsr        [A5 + 0x52A /* export_161, CODE:1 @ 0000543C */]
00002810  101F                     move.b     D0, [A7]+
00002812  6720                     beq        +0x22 /* 00002834 */
00002814  1004                     move.b     D0, D4
00002816  6718                     beq        +0x1A /* 00002830 */
00002818  4267                     clr.w      -[A7]
0000281A  2F2D F622                move.l     -[A7], [A5 - 0x9DE]
0000281E  486E FDEC                pea.l      [A6 - 0x214]
00002822  4EAD 1E4A                jsr        [A5 + 0x1E4A /* export_965, CODE:18 @ 00002984 */]
00002826  101F                     move.b     D0, [A7]+
00002828  6604                     bne        +0x6 /* 0000282E */
0000282A  4EAD 1812                jsr        [A5 + 0x1812 /* export_766, CODE:16 @ 00000208 */]
label0000282E:
0000282E  6004                     bra        +0x6 /* 00002834 */
label00002830:
00002830  4EAD 15BA                jsr        [A5 + 0x15BA /* export_691, CODE:15 @ 00000AE6 */]
label00002834:
00002834  2F2E FFFC                move.l     -[A7], [A6 - 0x4]
00002838  4EAD 201A                jsr        [A5 + 0x201A /* export_1023, CODE:20 @ 000002FA */]
0000283C  7003                     moveq.l    D0, 0x03
0000283E  B06E FFFA                cmp.w      D0, [A6 - 0x6]
00002842  6702                     beq        +0x4 /* 00002846 */
00002844  600C                     bra        +0xE /* 00002852 */
label00002846:
00002846  7005                     moveq.l    D0, 0x05
00002848  B06D F02C                cmp.w      D0, [A5 - 0xFD4]
0000284C  6604                     bne        +0x6 /* 00002852 */
0000284E  4EAD 16E2                jsr        [A5 + 0x16E2 /* export_728, CODE:15 @ 000041E0 */]
label00002852:
00002852  4CDF 18F0                movem.l    D4,D5,D6,D7,A3,A4, [A7]+
00002856  4E5E                     unlink     A6
00002858  4E75                     rts
fn0000285A:
0000285A  4E56 0000                link       A6, 0
0000285E  2F0C                     move.l     -[A7], A4
00002860  286E 0008                movea.l    A4, [A6 + 0x8]
00002864  2F2C FFFC                move.l     -[A7], [A4 - 0x4]
00002868  3F2E 000E                move.w     -[A7], [A6 + 0xE]
0000286C  486C FFF8                pea.l      [A4 - 0x8]
00002870  486C FFF4                pea.l      [A4 - 0xC]
00002874  486C FFEC                pea.l      [A4 - 0x14]
00002878  A98D                     syscall    GetDialogItem/GetDItem
0000287A  2F2C FFF4                move.l     -[A7], [A4 - 0xC]
0000287E  102E 000C                move.b     D0, [A6 + 0xC]
00002882  4880                     ext.w      D0
00002884  3F00                     move.w     -[A7], D0
00002886  A963                     syscall    SetControlValue/SetCtlValue
00002888  285F                     movea.l    A4, [A7]+
0000288A  4E5E                     unlink     A6
0000288C  205F                     movea.l    A0, [A7]+
0000288E  504F                     addq.w     A7, 8
00002890  4ED0                     jmp        [A0]
fn00002892:
00002892  4E56 0000                link       A6, 0
00002896  2F0C                     move.l     -[A7], A4
00002898  286E 0008                movea.l    A4, [A6 + 0x8]
0000289C  396E 000C FDC8           move.w     [A4 - 0x238], [A6 + 0xC]
000028A2  3F3C 000A                move.w     -[A7], 0xA /* '\n' */
000028A6  4A6C FDC8                tst.w      [A4 - 0x238]
000028AA  57C0                     seq        D0
000028AC  4400                     neg.b      D0
000028AE  1F00                     move.b     -[A7], D0
000028B0  2F2E 0008                move.l     -[A7], [A6 + 0x8]
000028B4  4EBA FFA4                jsr        [PC - 0x5C /* 0000285A */]
000028B8  3F3C 000B                move.w     -[A7], 0xB
000028BC  7001                     moveq.l    D0, 0x01
000028BE  B06C FDC8                cmp.w      D0, [A4 - 0x238]
000028C2  57C0                     seq        D0
000028C4  4400                     neg.b      D0
000028C6  1F00                     move.b     -[A7], D0
000028C8  2F2E 0008                move.l     -[A7], [A6 + 0x8]
000028CC  4EBA FF8C                jsr        [PC - 0x74 /* 0000285A */]
000028D0  3F3C 000C                move.w     -[A7], 0xC
000028D4  7002                     moveq.l    D0, 0x02
000028D6  B06C FDC8                cmp.w      D0, [A4 - 0x238]
000028DA  57C0                     seq        D0
000028DC  4400                     neg.b      D0
000028DE  1F00                     move.b     -[A7], D0
000028E0  2F2E 0008                move.l     -[A7], [A6 + 0x8]
000028E4  4EBA FF74                jsr        [PC - 0x8C /* 0000285A */]
000028E8  3F3C 0013                move.w     -[A7], 0x13
000028EC  7004                     moveq.l    D0, 0x04
000028EE  B06C FDC8                cmp.w      D0, [A4 - 0x238]
000028F2  57C0                     seq        D0
000028F4  4400                     neg.b      D0
000028F6  1F00                     move.b     -[A7], D0
000028F8  2F2E 0008                move.l     -[A7], [A6 + 0x8]
000028FC  4EBA FF5C                jsr        [PC - 0xA4 /* 0000285A */]
00002900  3F3C 000D                move.w     -[A7], 0xD /* '\r' */
00002904  7003                     moveq.l    D0, 0x03
00002906  B06C FDC8                cmp.w      D0, [A4 - 0x238]
0000290A  57C0                     seq        D0
0000290C  4400                     neg.b      D0
0000290E  1F00                     move.b     -[A7], D0
00002910  2F2E 0008                move.l     -[A7], [A6 + 0x8]
00002914  4EBA FF44                jsr        [PC - 0xBC /* 0000285A */]
00002918  3F3C 000E                move.w     -[A7], 0xE
0000291C  7005                     moveq.l    D0, 0x05
0000291E  B06C FDC8                cmp.w      D0, [A4 - 0x238]
00002922  57C0                     seq        D0
00002924  4400                     neg.b      D0
00002926  1F00                     move.b     -[A7], D0
00002928  2F2E 0008                move.l     -[A7], [A6 + 0x8]
0000292C  4EBA FF2C                jsr        [PC - 0xD4 /* 0000285A */]
00002930  3F3C 000F                move.w     -[A7], 0xF
00002934  7006                     moveq.l    D0, 0x06
00002936  B06C FDC8                cmp.w      D0, [A4 - 0x238]
0000293A  57C0                     seq        D0
0000293C  4400                     neg.b      D0
0000293E  1F00                     move.b     -[A7], D0
00002940  2F2E 0008                move.l     -[A7], [A6 + 0x8]
00002944  4EBA FF14                jsr        [PC - 0xEC /* 0000285A */]
00002948  285F                     movea.l    A4, [A7]+
0000294A  4E5E                     unlink     A6
0000294C  205F                     movea.l    A0, [A7]+
0000294E  5C4F                     addq.w     A7, 6
00002950  4ED0                     jmp        [A0]
export_270:
fn00002952:
00002952  4E56 FC86                link       A6, -0x037A
00002956  48E7 0F00                movem.l    -[A7], D4,D5,D6,D7
0000295A  4A6D E276                tst.w      [A5 - 0x1D8A]
0000295E  57C0                     seq        D0
00002960  7201                     moveq.l    D1, 0x01
00002962  B22D E278                cmp.b      D1, [A5 - 0x1D88]
00002966  56C1                     sne        D1
00002968  8001                     or.b       D0, D1
0000296A  670C                     beq        +0xE /* 00002978 */
0000296C  3F3C 002B                move.w     -[A7], 0x2B /* '+' */
00002970  4EAD 187A                jsr        [A5 + 0x187A /* export_779, CODE:16 @ 00000500 */]
00002974  6000 044C                bra        +0x44E /* 00002DC2 */
label00002978:
00002978  486E FCAE                pea.l      [A6 - 0x352]
0000297C  3F3C 001C                move.w     -[A7], 0x1C
00002980  4EAD 209A                jsr        [A5 + 0x209A /* export_1039, CODE:20 @ 00000F60 */]
00002984  205F                     movea.l    A0, [A7]+
00002986  43EE FDB0                lea.l      A1, [A6 - 0x250]
0000298A  7004                     moveq.l    D0, 0x04
label0000298C:
0000298C  22D8                     move.l     [A1]+, [A0]+
0000298E  51C8 FFFC                dbf        D0, -0x6 /* 0000298C */
00002992  202D E270                move.l     D0, [A5 - 0x1D90]
00002996  B0AD F622                cmp.l      D0, [A5 - 0x9DE]
0000299A  661A                     bne        +0x1C /* 000029B6 */
0000299C  486E FCAE                pea.l      [A6 - 0x352]
000029A0  3F3C 001D                move.w     -[A7], 0x1D
000029A4  4EAD 209A                jsr        [A5 + 0x209A /* export_1039, CODE:20 @ 00000F60 */]
000029A8  205F                     movea.l    A0, [A7]+
000029AA  43EE FDB0                lea.l      A1, [A6 - 0x250]
000029AE  7004                     moveq.l    D0, 0x04
label000029B0:
000029B0  22D8                     move.l     [A1]+, [A0]+
000029B2  51C8 FFFC                dbf        D0, -0x6 /* 000029B0 */
label000029B6:
000029B6  4267                     clr.w      -[A7]
000029B8  4EAD 221A                jsr        [A5 + 0x221A /* export_1087, CODE:20 @ 00004B46 */]
000029BC  101F                     move.b     D0, [A7]+
000029BE  802D F005                or.b       D0, [A5 - 0xFFB]
000029C2  7205                     moveq.l    D1, 0x05
000029C4  B26D F02C                cmp.w      D1, [A5 - 0xFD4]
000029C8  57C1                     seq        D1
000029CA  C001                     and.b      D0, D1
000029CC  6710                     beq        +0x12 /* 000029DE */
000029CE  2F2D E270                move.l     -[A7], [A5 - 0x1D90]
000029D2  486D E274                pea.l      [A5 - 0x1D8C]
000029D6  4EAD 16F2                jsr        [A5 + 0x16F2 /* export_730, CODE:15 @ 0000423C */]
000029DA  6000 03E6                bra        +0x3E8 /* 00002DC2 */
label000029DE:
000029DE  102D F4CD                move.b     D0, [A5 - 0xB33]
000029E2  0A00 0001                xori.b     D0, 0x1
000029E6  802D F015                or.b       D0, [A5 - 0xFEB]
000029EA  1A00                     move.b     D5, D0
000029EC  486E FCAE                pea.l      [A6 - 0x352]
000029F0  2F2D E270                move.l     -[A7], [A5 - 0x1D90]
000029F4  3F2D E276                move.w     -[A7], [A5 - 0x1D8A]
000029F8  4EAD 1DC2                jsr        [A5 + 0x1DC2 /* export_948, CODE:18 @ 00000E24 */]
000029FC  205F                     movea.l    A0, [A7]+
000029FE  43EE FDEC                lea.l      A1, [A6 - 0x214]
00002A02  703F                     moveq.l    D0, 0x3F
label00002A04:
00002A04  22D8                     move.l     [A1]+, [A0]+
00002A06  51C8 FFFC                dbf        D0, -0x6 /* 00002A04 */
00002A0A  4267                     clr.w      -[A7]
00002A0C  2F2D E270                move.l     -[A7], [A5 - 0x1D90]
00002A10  3F2D E276                move.w     -[A7], [A5 - 0x1D8A]
00002A14  4EAD 1DCA                jsr        [A5 + 0x1DCA /* export_949, CODE:18 @ 00000E6C */]
00002A18  3D5F FDEA                move.w     [A6 - 0x216], [A7]+
00002A1C  486E FC9A                pea.l      [A6 - 0x366]
00002A20  302D E276                move.w     D0, [A5 - 0x1D8A]
00002A24  48C0                     ext.l      D0
00002A26  2F00                     move.l     -[A7], D0
00002A28  4EAD 1902                jsr        [A5 + 0x1902 /* export_796, CODE:16 @ 000009D4 */]
00002A2C  486E FC86                pea.l      [A6 - 0x37A]
00002A30  302E FDEA                move.w     D0, [A6 - 0x216]
00002A34  48C0                     ext.l      D0
00002A36  2F00                     move.l     -[A7], D0
00002A38  4EAD 1902                jsr        [A5 + 0x1902 /* export_796, CODE:16 @ 000009D4 */]
00002A3C  486E FDB0                pea.l      [A6 - 0x250]
00002A40  487A 0388                pea.l      [PC + 0x388 /* 00002DCA, value 0x4E56 'NV', cstring "" */]
00002A44  A98B                     syscall    ParamText
00002A46  4EAD 1862                jsr        [A5 + 0x1862 /* export_776, CODE:16 @ 00000474 */]
00002A4A  42A7                     clr.l      -[A7]
00002A4C  3F3C 0898                move.w     -[A7], 0x898
00002A50  42A7                     clr.l      -[A7]
00002A52  70FF                     moveq.l    D0, 0xFFFFFFFF
00002A54  2F00                     move.l     -[A7], D0
00002A56  A97C                     syscall    GetNewDialog
00002A58  2D5F FFFC                move.l     [A6 - 0x4], [A7]+
00002A5C  2F2E FFFC                move.l     -[A7], [A6 - 0x4]
00002A60  4EAD 182A                jsr        [A5 + 0x182A /* export_769, CODE:16 @ 000002AC */]
00002A64  2F2E FFFC                move.l     -[A7], [A6 - 0x4]
00002A68  A915                     syscall    ShowWindow
00002A6A  2F2E FFFC                move.l     -[A7], [A6 - 0x4]
00002A6E  4EAD 186A                jsr        [A5 + 0x186A /* export_777, CODE:16 @ 00000490 */]
00002A72  7005                     moveq.l    D0, 0x05
00002A74  B06D F02C                cmp.w      D0, [A5 - 0xFD4]
00002A78  6F20                     ble        +0x22 /* 00002A9A */
00002A7A  2F2E FFFC                move.l     -[A7], [A6 - 0x4]
00002A7E  3F3C 0003                move.w     -[A7], 0x3
00002A82  486E FFF8                pea.l      [A6 - 0x8]
00002A86  486E FFF4                pea.l      [A6 - 0xC]
00002A8A  486E FFEC                pea.l      [A6 - 0x14]
00002A8E  A98D                     syscall    GetDialogItem/GetDItem
00002A90  2F2E FFF4                move.l     -[A7], [A6 - 0xC]
00002A94  3F3C 00FF                move.w     -[A7], 0xFF
00002A98  A95D                     syscall    HiliteControl
label00002A9A:
00002A9A  102D F4CD                move.b     D0, [A5 - 0xB33]
00002A9E  6720                     beq        +0x22 /* 00002AC0 */
00002AA0  2F2E FFFC                move.l     -[A7], [A6 - 0x4]
00002AA4  3F3C 0004                move.w     -[A7], 0x4
00002AA8  486E FFF8                pea.l      [A6 - 0x8]
00002AAC  486E FFF4                pea.l      [A6 - 0xC]
00002AB0  486E FFEC                pea.l      [A6 - 0x14]
00002AB4  A98D                     syscall    GetDialogItem/GetDItem
00002AB6  2F2E FFF4                move.l     -[A7], [A6 - 0xC]
00002ABA  3F3C 00FF                move.w     -[A7], 0xFF
00002ABE  A95D                     syscall    HiliteControl
label00002AC0:
00002AC0  2F2E FFFC                move.l     -[A7], [A6 - 0x4]
00002AC4  3F3C 0007                move.w     -[A7], 0x7
00002AC8  486E FFF8                pea.l      [A6 - 0x8]
00002ACC  486E FFF4                pea.l      [A6 - 0xC]
00002AD0  486E FFEC                pea.l      [A6 - 0x14]
00002AD4  A98D                     syscall    GetDialogItem/GetDItem
00002AD6  2F2E FFF4                move.l     -[A7], [A6 - 0xC]
00002ADA  486E FDEC                pea.l      [A6 - 0x214]
00002ADE  A98F                     syscall    SetDialogItemText/SetIText
00002AE0  2F2E FFFC                move.l     -[A7], [A6 - 0x4]
00002AE4  2F3C 0000 0007           move.l     -[A7], 0x7
00002AEA  3F3C 7FFF                move.w     -[A7], 0x7FFF
00002AEE  A97E                     syscall    SelectDialogItemText/SelIText
00002AF0  7000                     moveq.l    D0, 0x00
00002AF2  302D E282                move.w     D0, [A5 - 0x1D7E]
00002AF6  C0BC FFFF 8000           and.l      D0, 0xFFFF8000
00002AFC  4A80                     tst.l      D0
00002AFE  56C7                     sne        D7
00002B00  4407                     neg.b      D7
00002B02  3F3C 0011                move.w     -[A7], 0x11
00002B06  1F07                     move.b     -[A7], D7
00002B08  2F0E                     move.l     -[A7], A6
00002B0A  4EBA FD4E                jsr        [PC - 0x2B2 /* 0000285A */]
00002B0E  41EE FDCC                lea.l      A0, [A6 - 0x234]
00002B12  43ED E274                lea.l      A1, [A5 - 0x1D8C]
00002B16  7006                     moveq.l    D0, 0x06
label00002B18:
00002B18  20D9                     move.l     [A0]+, [A1]+
00002B1A  51C8 FFFC                dbf        D0, -0x6 /* 00002B18 */
00002B1E  3091                     move.w     [A0], [A1]
00002B20  3D6D E286 FDCA           move.w     [A6 - 0x236], [A5 - 0x1D7A]
00002B26  7000                     moveq.l    D0, 0x00
00002B28  302D E282                move.w     D0, [A5 - 0x1D7E]
00002B2C  C0BC 0000 4000           and.l      D0, 0x4000 /* '@\0' */
00002B32  4A80                     tst.l      D0
00002B34  56C4                     sne        D4
00002B36  4404                     neg.b      D4
00002B38  7000                     moveq.l    D0, 0x00
00002B3A  302D E282                move.w     D0, [A5 - 0x1D7E]
00002B3E  C0BC 0000 2000           and.l      D0, 0x2000 /* ' \0' */
00002B44  4A80                     tst.l      D0
00002B46  56C6                     sne        D6
00002B48  4406                     neg.b      D6
00002B4A  3F3C 0012                move.w     -[A7], 0x12
00002B4E  1F06                     move.b     -[A7], D6
00002B50  2F0E                     move.l     -[A7], A6
00002B52  4EBA FD06                jsr        [PC - 0x2FA /* 0000285A */]
00002B56  7000                     moveq.l    D0, 0x00
00002B58  302D E282                move.w     D0, [A5 - 0x1D7E]
00002B5C  C0BC 0000 000F           and.l      D0, 0xF
00002B62  3D40 FDC8                move.w     [A6 - 0x238], D0
00002B66  3F2E FDC8                move.w     -[A7], [A6 - 0x238]
00002B6A  2F0E                     move.l     -[A7], A6
00002B6C  4EBA FD24                jsr        [PC - 0x2DC /* 00002892 */]
label00002B70:
00002B70  42A7                     clr.l      -[A7]
00002B72  486E FFFA                pea.l      [A6 - 0x6]
00002B76  A991                     syscall    ModalDialog
00002B78  1005                     move.b     D0, D5
00002B7A  6700 00A8                beq        +0xAA /* 00002C24 */
00002B7E  302E FFFA                move.w     D0, [A6 - 0x6]
00002B82  0440 000A                subi.w     D0, 0xA /* '\n' */
00002B86  6B00 009C                bmi        +0x9E /* 00002C24 */
00002B8A  0C40 0009                cmpi.w     D0, 0x9 /* '\t' */
00002B8E  6E00 0094                bgt        +0x96 /* 00002C24 */
00002B92  D040                     add.w      D0, D0
00002B94  303B 0006                move.w     D0, [PC + D0.w + 0x6]
00002B98  4EFB 0000                jmp        [PC + D0.w]
00002B9C  0016 0020                ori.b      [A6], 0x20 /* ' ' */
00002BA0  002C 0044 0050           ori.b      [A4 + 0x50], 0x44 /* 'D' */
00002BA6  005C 008A                ori.w      [A4]+, 0x8A
00002BAA  0068 007A 0038           ori.w      [A0 + 0x38], 0x7A /* 'z' */
00002BB0  4267                     clr.w      -[A7]
00002BB2  2F0E                     move.l     -[A7], A6
00002BB4  4EBA FCDC                jsr        [PC - 0x324 /* 00002892 */]
00002BB8  606A                     bra        +0x6C /* 00002C24 */
00002BBA  3F3C 0001                move.w     -[A7], 0x1
00002BBE  2F0E                     move.l     -[A7], A6
00002BC0  4EBA FCD0                jsr        [PC - 0x330 /* 00002892 */]
00002BC4  605E                     bra        +0x60 /* 00002C24 */
00002BC6  3F3C 0002                move.w     -[A7], 0x2
00002BCA  2F0E                     move.l     -[A7], A6
00002BCC  4EBA FCC4                jsr        [PC - 0x33C /* 00002892 */]
00002BD0  6052                     bra        +0x54 /* 00002C24 */
00002BD2  3F3C 0004                move.w     -[A7], 0x4
00002BD6  2F0E                     move.l     -[A7], A6
00002BD8  4EBA FCB8                jsr        [PC - 0x348 /* 00002892 */]
00002BDC  6046                     bra        +0x48 /* 00002C24 */
00002BDE  3F3C 0003                move.w     -[A7], 0x3
00002BE2  2F0E                     move.l     -[A7], A6
00002BE4  4EBA FCAC                jsr        [PC - 0x354 /* 00002892 */]
00002BE8  603A                     bra        +0x3C /* 00002C24 */
00002BEA  3F3C 0005                move.w     -[A7], 0x5
00002BEE  2F0E                     move.l     -[A7], A6
00002BF0  4EBA FCA0                jsr        [PC - 0x360 /* 00002892 */]
00002BF4  602E                     bra        +0x30 /* 00002C24 */
00002BF6  3F3C 0006                move.w     -[A7], 0x6
00002BFA  2F0E                     move.l     -[A7], A6
00002BFC  4EBA FC94                jsr        [PC - 0x36C /* 00002892 */]
00002C00  6022                     bra        +0x24 /* 00002C24 */
00002C02  0A07 0001                xori.b     D7, 0x1
00002C06  3F3C 0011                move.w     -[A7], 0x11
00002C0A  1F07                     move.b     -[A7], D7
00002C0C  2F0E                     move.l     -[A7], A6
00002C0E  4EBA FC4A                jsr        [PC - 0x3B6 /* 0000285A */]
00002C12  6010                     bra        +0x12 /* 00002C24 */
00002C14  0A06 0001                xori.b     D6, 0x1
00002C18  3F3C 0012                move.w     -[A7], 0x12
00002C1C  1F06                     move.b     -[A7], D6
00002C1E  2F0E                     move.l     -[A7], A6
00002C20  4EBA FC38                jsr        [PC - 0x3C8 /* 0000285A */]
label00002C24:
00002C24  7001                     moveq.l    D0, 0x01
00002C26  B06E FFFA                cmp.w      D0, [A6 - 0x6]
00002C2A  57C0                     seq        D0
00002C2C  7202                     moveq.l    D1, 0x02
00002C2E  B26E FFFA                cmp.w      D1, [A6 - 0x6]
00002C32  57C1                     seq        D1
00002C34  8001                     or.b       D0, D1
00002C36  7203                     moveq.l    D1, 0x03
00002C38  B26E FFFA                cmp.w      D1, [A6 - 0x6]
00002C3C  57C1                     seq        D1
00002C3E  8001                     or.b       D0, D1
00002C40  7204                     moveq.l    D1, 0x04
00002C42  B26E FFFA                cmp.w      D1, [A6 - 0x6]
00002C46  57C1                     seq        D1
00002C48  8001                     or.b       D0, D1
00002C4A  7205                     moveq.l    D1, 0x05
00002C4C  B26E FFFA                cmp.w      D1, [A6 - 0x6]
00002C50  57C1                     seq        D1
00002C52  8001                     or.b       D0, D1
00002C54  6700 FF1A                beq        -0xE4 /* 00002B70 */
00002C58  7002                     moveq.l    D0, 0x02
00002C5A  B06E FFFA                cmp.w      D0, [A6 - 0x6]
00002C5E  6700 00D8                beq        +0xDA /* 00002D38 */
00002C62  3D6E FDC8 FDDA           move.w     [A6 - 0x226], [A6 - 0x238]
00002C68  1007                     move.b     D0, D7
00002C6A  6710                     beq        +0x12 /* 00002C7C */
00002C6C  7000                     moveq.l    D0, 0x00
00002C6E  302E FDDA                move.w     D0, [A6 - 0x226]
00002C72  80BC FFFF 8000           or.l       D0, 0xFFFF8000
00002C78  3D40 FDDA                move.w     [A6 - 0x226], D0
label00002C7C:
00002C7C  1004                     move.b     D0, D4
00002C7E  6710                     beq        +0x12 /* 00002C90 */
00002C80  7000                     moveq.l    D0, 0x00
00002C82  302E FDDA                move.w     D0, [A6 - 0x226]
00002C86  80BC 0000 4000           or.l       D0, 0x4000 /* '@\0' */
00002C8C  3D40 FDDA                move.w     [A6 - 0x226], D0
label00002C90:
00002C90  1006                     move.b     D0, D6
00002C92  6710                     beq        +0x12 /* 00002CA4 */
00002C94  7000                     moveq.l    D0, 0x00
00002C96  302E FDDA                move.w     D0, [A6 - 0x226]
00002C9A  80BC 0000 2000           or.l       D0, 0x2000 /* ' \0' */
00002CA0  3D40 FDDA                move.w     [A6 - 0x226], D0
label00002CA4:
00002CA4  4267                     clr.w      -[A7]
00002CA6  486E FDCC                pea.l      [A6 - 0x234]
00002CAA  486D E274                pea.l      [A5 - 0x1D8C]
00002CAE  3F3C 001E                move.w     -[A7], 0x1E
00002CB2  4EAD 19FA                jsr        [A5 + 0x19FA /* export_827, CODE:16 @ 00001412 */]
00002CB6  101F                     move.b     D0, [A7]+
00002CB8  662A                     bne        +0x2C /* 00002CE4 */
00002CBA  4267                     clr.w      -[A7]
00002CBC  2F2D E270                move.l     -[A7], [A5 - 0x1D90]
00002CC0  486E FDCC                pea.l      [A6 - 0x234]
00002CC4  4EAD 1E6A                jsr        [A5 + 0x1E6A /* export_969, CODE:18 @ 00002E96 */]
00002CC8  101F                     move.b     D0, [A7]+
00002CCA  6714                     beq        +0x16 /* 00002CE0 */
00002CCC  41ED E274                lea.l      A0, [A5 - 0x1D8C]
00002CD0  43EE FDCC                lea.l      A1, [A6 - 0x234]
00002CD4  7006                     moveq.l    D0, 0x06
label00002CD6:
00002CD6  20D9                     move.l     [A0]+, [A1]+
00002CD8  51C8 FFFC                dbf        D0, -0x6 /* 00002CD6 */
00002CDC  3091                     move.w     [A0], [A1]
00002CDE  6004                     bra        +0x6 /* 00002CE4 */
label00002CE0:
00002CE0  4EAD 1812                jsr        [A5 + 0x1812 /* export_766, CODE:16 @ 00000208 */]
label00002CE4:
00002CE4  2F2E FFFC                move.l     -[A7], [A6 - 0x4]
00002CE8  3F3C 0007                move.w     -[A7], 0x7
00002CEC  486E FFF8                pea.l      [A6 - 0x8]
00002CF0  486E FFF4                pea.l      [A6 - 0xC]
00002CF4  486E FFEC                pea.l      [A6 - 0x14]
00002CF8  A98D                     syscall    GetDialogItem/GetDItem
00002CFA  2F2E FFF4                move.l     -[A7], [A6 - 0xC]
00002CFE  486E FEEC                pea.l      [A6 - 0x114]
00002D02  A990                     syscall    GetDialogItemText/GetIText
00002D04  486E FEEC                pea.l      [A6 - 0x114]
00002D08  486E FDEC                pea.l      [A6 - 0x214]
00002D0C  4EAD 052A                jsr        [A5 + 0x52A /* export_161, CODE:1 @ 0000543C */]
00002D10  101F                     move.b     D0, [A7]+
00002D12  6724                     beq        +0x26 /* 00002D38 */
00002D14  1005                     move.b     D0, D5
00002D16  671C                     beq        +0x1E /* 00002D34 */
00002D18  4267                     clr.w      -[A7]
00002D1A  2F2D E270                move.l     -[A7], [A5 - 0x1D90]
00002D1E  3F2D E276                move.w     -[A7], [A5 - 0x1D8A]
00002D22  486E FEEC                pea.l      [A6 - 0x114]
00002D26  4EAD 1E72                jsr        [A5 + 0x1E72 /* export_970, CODE:18 @ 00002F34 */]
00002D2A  101F                     move.b     D0, [A7]+
00002D2C  6604                     bne        +0x6 /* 00002D32 */
00002D2E  4EAD 1812                jsr        [A5 + 0x1812 /* export_766, CODE:16 @ 00000208 */]
label00002D32:
00002D32  6004                     bra        +0x6 /* 00002D38 */
label00002D34:
00002D34  4EAD 15BA                jsr        [A5 + 0x15BA /* export_691, CODE:15 @ 00000AE6 */]
label00002D38:
00002D38  2F2E FFFC                move.l     -[A7], [A6 - 0x4]
00002D3C  4EAD 201A                jsr        [A5 + 0x201A /* export_1023, CODE:20 @ 000002FA */]
00002D40  486D E27A                pea.l      [A5 - 0x1D86]
00002D44  4EAD 207A                jsr        [A5 + 0x207A /* export_1035, CODE:20 @ 00000CEE */]
00002D48  7004                     moveq.l    D0, 0x04
00002D4A  B06E FFFA                cmp.w      D0, [A6 - 0x6]
00002D4E  6604                     bne        +0x6 /* 00002D54 */
00002D50  4EBA 0F76                jsr        [PC + 0xF76 /* 00003CC8 */]
label00002D54:
00002D54  7003                     moveq.l    D0, 0x03
00002D56  B06E FFFA                cmp.w      D0, [A6 - 0x6]
00002D5A  660C                     bne        +0xE /* 00002D68 */
00002D5C  2F2D E270                move.l     -[A7], [A5 - 0x1D90]
00002D60  486D E274                pea.l      [A5 - 0x1D8C]
00002D64  4EAD 16F2                jsr        [A5 + 0x16F2 /* export_730, CODE:15 @ 0000423C */]
label00002D68:
00002D68  7005                     moveq.l    D0, 0x05
00002D6A  B06E FFFA                cmp.w      D0, [A6 - 0x6]
00002D6E  6652                     bne        +0x54 /* 00002DC2 */
00002D70  486E FDCA                pea.l      [A6 - 0x236]
00002D74  4EAD 0042                jsr        [A5 + 0x42 /* export_4, CODE:1 @ 00000B56 */]
00002D78  302E FDCA                move.w     D0, [A6 - 0x236]
00002D7C  48C0                     ext.l      D0
00002D7E  B0AE FDDC                cmp.l      D0, [A6 - 0x224]
00002D82  673E                     beq        +0x40 /* 00002DC2 */
00002D84  302E FDCA                move.w     D0, [A6 - 0x236]
00002D88  48C0                     ext.l      D0
00002D8A  2D40 FDDC                move.l     [A6 - 0x224], D0
00002D8E  1005                     move.b     D0, D5
00002D90  672C                     beq        +0x2E /* 00002DBE */
00002D92  4267                     clr.w      -[A7]
00002D94  2F2D E270                move.l     -[A7], [A5 - 0x1D90]
00002D98  486E FDCC                pea.l      [A6 - 0x234]
00002D9C  4EAD 1E6A                jsr        [A5 + 0x1E6A /* export_969, CODE:18 @ 00002E96 */]
00002DA0  101F                     move.b     D0, [A7]+
00002DA2  6714                     beq        +0x16 /* 00002DB8 */
00002DA4  41ED E274                lea.l      A0, [A5 - 0x1D8C]
00002DA8  43EE FDCC                lea.l      A1, [A6 - 0x234]
00002DAC  7006                     moveq.l    D0, 0x06
label00002DAE:
00002DAE  20D9                     move.l     [A0]+, [A1]+
00002DB0  51C8 FFFC                dbf        D0, -0x6 /* 00002DAE */
00002DB4  3091                     move.w     [A0], [A1]
00002DB6  600A                     bra        +0xC /* 00002DC2 */
label00002DB8:
00002DB8  4EAD 1812                jsr        [A5 + 0x1812 /* export_766, CODE:16 @ 00000208 */]
00002DBC  6004                     bra        +0x6 /* 00002DC2 */
label00002DBE:
00002DBE  4EAD 15BA                jsr        [A5 + 0x15BA /* export_691, CODE:15 @ 00000AE6 */]
label00002DC2:
00002DC2  4CDF 00F0                movem.l    D4,D5,D6,D7, [A7]+
00002DC6  4E5E                     unlink     A6
00002DC8  4E75                     rts
00002DCA  0000 4E56                ori.b      D0, 0x56 /* 'V' */
// begin alternate branch 00002DCC-00002DD2
fn00002DCC:
00002DCC  4E56 0000                link       A6, 0
00002DD0  2F0C                     move.l     -[A7], A4
// end alternate branch 00002DCC-00002DD2
fn00002DCC: // (misaligned)
00002DCE  0000 2F0C                ori.b      D0, 0xC
00002DD2  286E 0008                movea.l    A4, [A6 + 0x8]
00002DD6  2F2C FFFC                move.l     -[A7], [A4 - 0x4]
00002DDA  3F2E 000E                move.w     -[A7], [A6 + 0xE]
00002DDE  486C FFF8                pea.l      [A4 - 0x8]
00002DE2  486C FFF4                pea.l      [A4 - 0xC]
00002DE6  486C FFEC                pea.l      [A4 - 0x14]
00002DEA  A98D                     syscall    GetDialogItem/GetDItem
00002DEC  2F2C FFF4                move.l     -[A7], [A4 - 0xC]
00002DF0  102E 000C                move.b     D0, [A6 + 0xC]
00002DF4  4880                     ext.w      D0
00002DF6  3F00                     move.w     -[A7], D0
00002DF8  A963                     syscall    SetControlValue/SetCtlValue
00002DFA  285F                     movea.l    A4, [A7]+
00002DFC  4E5E                     unlink     A6
00002DFE  205F                     movea.l    A0, [A7]+
00002E00  504F                     addq.w     A7, 8
00002E02  4ED0                     jmp        [A0]
export_271:
00002E04  4E56 FB7C                link       A6, -0x0484
00002E08  48E7 0F18                movem.l    -[A7], D4,D5,D6,D7,A3,A4
00002E0C  4267                     clr.w      -[A7]
00002E0E  4EAD 221A                jsr        [A5 + 0x221A /* export_1087, CODE:20 @ 00004B46 */]
00002E12  101F                     move.b     D0, [A7]+
00002E14  802D F005                or.b       D0, [A5 - 0xFFB]
00002E18  6600 0294                bne        +0x296 /* 000030AE */
00002E1C  102D F4CD                move.b     D0, [A5 - 0xB33]
00002E20  0A00 0001                xori.b     D0, 0x1
00002E24  802D F015                or.b       D0, [A5 - 0xFEB]
00002E28  1800                     move.b     D4, D0
00002E2A  42A7                     clr.l      -[A7]
00002E2C  2F2D F62A                move.l     -[A7], [A5 - 0x9D6]
00002E30  4EAD 1F7A                jsr        [A5 + 0x1F7A /* export_1003, CODE:19 @ 00001744 */]
00002E34  265F                     movea.l    A3, [A7]+
00002E36  2053                     movea.l    A0, [A3]
00002E38  0828 0007 0010           btst.b     [A0 + 0x10], 0x7
00002E3E  56C7                     sne        D7
00002E40  4407                     neg.b      D7
00002E42  2053                     movea.l    A0, [A3]
00002E44  0828 0006 0010           btst.b     [A0 + 0x10], 0x6
00002E4A  56C6                     sne        D6
00002E4C  4406                     neg.b      D6
00002E4E  2F2D F62A                move.l     -[A7], [A5 - 0x9D6]
00002E52  4267                     clr.w      -[A7]
00002E54  4EAD 1EF2                jsr        [A5 + 0x1EF2 /* export_986, CODE:19 @ 00000450 */]
00002E58  486E FBE0                pea.l      [A6 - 0x420]
00002E5C  2F2D F62A                move.l     -[A7], [A5 - 0x9D6]
00002E60  4EAD 1D8A                jsr        [A5 + 0x1D8A /* export_941, CODE:18 @ 00000AA4 */]
00002E64  205F                     movea.l    A0, [A7]+
00002E66  43EE FEEC                lea.l      A1, [A6 - 0x114]
00002E6A  703F                     moveq.l    D0, 0x3F
label00002E6C:
00002E6C  22D8                     move.l     [A1]+, [A0]+
00002E6E  51C8 FFFC                dbf        D0, -0x6 /* 00002E6C */
00002E72  486E FBCC                pea.l      [A6 - 0x434]
00002E76  2F2D F62A                move.l     -[A7], [A5 - 0x9D6]
00002E7A  4EAD 18B2                jsr        [A5 + 0x18B2 /* export_786, CODE:16 @ 00000738 */]
00002E7E  486E FBB8                pea.l      [A6 - 0x448]
00002E82  42A7                     clr.l      -[A7]
00002E84  4EAD 1DF2                jsr        [A5 + 0x1DF2 /* export_954, CODE:18 @ 000010BC */]
00002E88  4EAD 1902                jsr        [A5 + 0x1902 /* export_796, CODE:16 @ 000009D4 */]
00002E8C  486E FBE0                pea.l      [A6 - 0x420]
00002E90  3F3C 0014                move.w     -[A7], 0x14
00002E94  4EAD 209A                jsr        [A5 + 0x209A /* export_1039, CODE:20 @ 00000F60 */]
00002E98  486E FBA4                pea.l      [A6 - 0x45C]
00002E9C  2F2D F668                move.l     -[A7], [A5 - 0x998]
00002EA0  4EAD 1902                jsr        [A5 + 0x1902 /* export_796, CODE:16 @ 000009D4 */]
00002EA4  486E FCE0                pea.l      [A6 - 0x320]
00002EA8  3F3C 0003                move.w     -[A7], 0x3
00002EAC  4EAD 050A                jsr        [A5 + 0x50A /* export_157, CODE:1 @ 0000531E */]
00002EB0  486E FCE0                pea.l      [A6 - 0x320]
00002EB4  486E FB90                pea.l      [A6 - 0x470]
00002EB8  4267                     clr.w      -[A7]
00002EBA  2F2D F62A                move.l     -[A7], [A5 - 0x9D6]
00002EBE  3F3C 0002                move.w     -[A7], 0x2
00002EC2  4EAD 1D32                jsr        [A5 + 0x1D32 /* export_930, CODE:18 @ 0000012E */]
00002EC6  301F                     move.w     D0, [A7]+
00002EC8  48C0                     ext.l      D0
00002ECA  2F00                     move.l     -[A7], D0
00002ECC  4EAD 1902                jsr        [A5 + 0x1902 /* export_796, CODE:16 @ 000009D4 */]
00002ED0  486E FB7C                pea.l      [A6 - 0x484]
00002ED4  4267                     clr.w      -[A7]
00002ED6  2F2D F62A                move.l     -[A7], [A5 - 0x9D6]
00002EDA  3F3C 0001                move.w     -[A7], 0x1
00002EDE  4EAD 1D32                jsr        [A5 + 0x1D32 /* export_930, CODE:18 @ 0000012E */]
00002EE2  301F                     move.w     D0, [A7]+
00002EE4  48C0                     ext.l      D0
00002EE6  2F00                     move.l     -[A7], D0
00002EE8  4EAD 1902                jsr        [A5 + 0x1902 /* export_796, CODE:16 @ 000009D4 */]
00002EEC  A98B                     syscall    ParamText
00002EEE  4EAD 1862                jsr        [A5 + 0x1862 /* export_776, CODE:16 @ 00000474 */]
00002EF2  42A7                     clr.l      -[A7]
00002EF4  3F3C 089A                move.w     -[A7], 0x89A
00002EF8  42A7                     clr.l      -[A7]
00002EFA  70FF                     moveq.l    D0, 0xFFFFFFFF
00002EFC  2F00                     move.l     -[A7], D0
00002EFE  A97C                     syscall    GetNewDialog
00002F00  2D5F FFFC                move.l     [A6 - 0x4], [A7]+
00002F04  2F2E FFFC                move.l     -[A7], [A6 - 0x4]
00002F08  4EAD 182A                jsr        [A5 + 0x182A /* export_769, CODE:16 @ 000002AC */]
00002F0C  3F3C 000A                move.w     -[A7], 0xA /* '\n' */
00002F10  1F07                     move.b     -[A7], D7
00002F12  2F0E                     move.l     -[A7], A6
00002F14  4EBA FEB6                jsr        [PC - 0x14A /* 00002DCC */]
00002F18  3F3C 000B                move.w     -[A7], 0xB
00002F1C  1F06                     move.b     -[A7], D6
00002F1E  2F0E                     move.l     -[A7], A6
00002F20  4EBA FEAA                jsr        [PC - 0x156 /* 00002DCC */]
00002F24  2F2E FFFC                move.l     -[A7], [A6 - 0x4]
00002F28  A915                     syscall    ShowWindow
00002F2A  2F2E FFFC                move.l     -[A7], [A6 - 0x4]
00002F2E  4EAD 186A                jsr        [A5 + 0x186A /* export_777, CODE:16 @ 00000490 */]
00002F32  7005                     moveq.l    D0, 0x05
00002F34  B06D F02C                cmp.w      D0, [A5 - 0xFD4]
00002F38  6F20                     ble        +0x22 /* 00002F5A */
00002F3A  2F2E FFFC                move.l     -[A7], [A6 - 0x4]
00002F3E  3F3C 0003                move.w     -[A7], 0x3
00002F42  486E FFF8                pea.l      [A6 - 0x8]
00002F46  486E FFF4                pea.l      [A6 - 0xC]
00002F4A  486E FFEC                pea.l      [A6 - 0x14]
00002F4E  A98D                     syscall    GetDialogItem/GetDItem
00002F50  2F2E FFF4                move.l     -[A7], [A6 - 0xC]
00002F54  3F3C 00FF                move.w     -[A7], 0xFF
00002F58  A95D                     syscall    HiliteControl
label00002F5A:
00002F5A  2F2E FFFC                move.l     -[A7], [A6 - 0x4]
00002F5E  3F3C 0005                move.w     -[A7], 0x5
00002F62  486E FFF8                pea.l      [A6 - 0x8]
00002F66  486E FFF4                pea.l      [A6 - 0xC]
00002F6A  486E FFEC                pea.l      [A6 - 0x14]
00002F6E  A98D                     syscall    GetDialogItem/GetDItem
00002F70  2F2E FFF4                move.l     -[A7], [A6 - 0xC]
00002F74  486E FEEC                pea.l      [A6 - 0x114]
00002F78  A98F                     syscall    SetDialogItemText/SetIText
00002F7A  2F2E FFFC                move.l     -[A7], [A6 - 0x4]
00002F7E  2F3C 0000 0005           move.l     -[A7], 0x5
00002F84  3F3C 7FFF                move.w     -[A7], 0x7FFF
00002F88  A97E                     syscall    SelectDialogItemText/SelIText
label00002F8A:
00002F8A  42A7                     clr.l      -[A7]
00002F8C  486E FFFA                pea.l      [A6 - 0x6]
00002F90  A991                     syscall    ModalDialog
00002F92  1004                     move.b     D0, D4
00002F94  6732                     beq        +0x34 /* 00002FC8 */
00002F96  302E FFFA                move.w     D0, [A6 - 0x6]
00002F9A  0440 000A                subi.w     D0, 0xA /* '\n' */
00002F9E  6706                     beq        +0x8 /* 00002FA6 */
00002FA0  5340                     subq.w     D0, 1
00002FA2  6714                     beq        +0x16 /* 00002FB8 */
00002FA4  6022                     bra        +0x24 /* 00002FC8 */
label00002FA6:
00002FA6  0A07 0001                xori.b     D7, 0x1
00002FAA  3F3C 000A                move.w     -[A7], 0xA /* '\n' */
00002FAE  1F07                     move.b     -[A7], D7
00002FB0  2F0E                     move.l     -[A7], A6
00002FB2  4EBA FE18                jsr        [PC - 0x1E8 /* 00002DCC */]
00002FB6  6010                     bra        +0x12 /* 00002FC8 */
label00002FB8:
00002FB8  0A06 0001                xori.b     D6, 0x1
00002FBC  3F3C 000B                move.w     -[A7], 0xB
00002FC0  1F06                     move.b     -[A7], D6
00002FC2  2F0E                     move.l     -[A7], A6
00002FC4  4EBA FE06                jsr        [PC - 0x1FA /* 00002DCC */]
label00002FC8:
00002FC8  7001                     moveq.l    D0, 0x01
00002FCA  B06E FFFA                cmp.w      D0, [A6 - 0x6]
00002FCE  57C0                     seq        D0
00002FD0  7202                     moveq.l    D1, 0x02
00002FD2  B26E FFFA                cmp.w      D1, [A6 - 0x6]
00002FD6  57C1                     seq        D1
00002FD8  8001                     or.b       D0, D1
00002FDA  7203                     moveq.l    D1, 0x03
00002FDC  B26E FFFA                cmp.w      D1, [A6 - 0x6]
00002FE0  57C1                     seq        D1
00002FE2  8001                     or.b       D0, D1
00002FE4  67A4                     beq        -0x5A /* 00002F8A */
00002FE6  7002                     moveq.l    D0, 0x02
00002FE8  B06E FFFA                cmp.w      D0, [A6 - 0x6]
00002FEC  6700 00AE                beq        +0xB0 /* 0000309C */
00002FF0  42A7                     clr.l      -[A7]
00002FF2  2F2D F62A                move.l     -[A7], [A5 - 0x9D6]
00002FF6  4EAD 1F7A                jsr        [A5 + 0x1F7A /* export_1003, CODE:19 @ 00001744 */]
00002FFA  265F                     movea.l    A3, [A7]+
00002FFC  7A00                     moveq.l    D5, 0x00
00002FFE  200B                     move.l     D0, A3
00003000  6608                     bne        +0xA /* 0000300A */
00003002  4EAD 1812                jsr        [A5 + 0x1812 /* export_766, CODE:16 @ 00000208 */]
00003006  6000 0094                bra        +0x96 /* 0000309C */
label0000300A:
0000300A  2853                     movea.l    A4, [A3]
0000300C  082C 0007 0010           btst.b     [A4 + 0x10], 0x7
00003012  56C0                     sne        D0
00003014  4400                     neg.b      D0
00003016  B007                     cmp.b      D0, D7
00003018  6704                     beq        +0x6 /* 0000301E */
0000301A  08C5 001F                bset.b     D5, 0x1F
label0000301E:
0000301E  082C 0006 0010           btst.b     [A4 + 0x10], 0x6
00003024  56C0                     sne        D0
00003026  4400                     neg.b      D0
00003028  B006                     cmp.b      D0, D6
0000302A  6704                     beq        +0x6 /* 00003030 */
0000302C  08C5 001E                bset.b     D5, 0x1E
label00003030:
00003030  2005                     move.l     D0, D5
00003032  222C 0010                move.l     D1, [A4 + 0x10]
00003036  B380                     xor.l      D0, D1
00003038  2940 0010                move.l     [A4 + 0x10], D0
0000303C  2F2D F62A                move.l     -[A7], [A5 - 0x9D6]
00003040  4A85                     tst.l      D5
00003042  56C0                     sne        D0
00003044  4400                     neg.b      D0
00003046  1F00                     move.b     -[A7], D0
00003048  4EAD 1EF2                jsr        [A5 + 0x1EF2 /* export_986, CODE:19 @ 00000450 */]
0000304C  2F2E FFFC                move.l     -[A7], [A6 - 0x4]
00003050  3F3C 0005                move.w     -[A7], 0x5
00003054  486E FFF8                pea.l      [A6 - 0x8]
00003058  486E FFF4                pea.l      [A6 - 0xC]
0000305C  486E FFEC                pea.l      [A6 - 0x14]
00003060  A98D                     syscall    GetDialogItem/GetDItem
00003062  2F2E FFF4                move.l     -[A7], [A6 - 0xC]
00003066  486E FDEC                pea.l      [A6 - 0x214]
0000306A  A990                     syscall    GetDialogItemText/GetIText
0000306C  486E FDEC                pea.l      [A6 - 0x214]
00003070  486E FEEC                pea.l      [A6 - 0x114]
00003074  4EAD 052A                jsr        [A5 + 0x52A /* export_161, CODE:1 @ 0000543C */]
00003078  101F                     move.b     D0, [A7]+
0000307A  6720                     beq        +0x22 /* 0000309C */
0000307C  1004                     move.b     D0, D4
0000307E  6718                     beq        +0x1A /* 00003098 */
00003080  4267                     clr.w      -[A7]
00003082  2F2D F62A                move.l     -[A7], [A5 - 0x9D6]
00003086  486E FDEC                pea.l      [A6 - 0x214]
0000308A  4EAD 1E5A                jsr        [A5 + 0x1E5A /* export_967, CODE:18 @ 00002B76 */]
0000308E  101F                     move.b     D0, [A7]+
00003090  6604                     bne        +0x6 /* 00003096 */
00003092  4EAD 1812                jsr        [A5 + 0x1812 /* export_766, CODE:16 @ 00000208 */]
label00003096:
00003096  6004                     bra        +0x6 /* 0000309C */
label00003098:
00003098  4EAD 15BA                jsr        [A5 + 0x15BA /* export_691, CODE:15 @ 00000AE6 */]
label0000309C:
0000309C  2F2E FFFC                move.l     -[A7], [A6 - 0x4]
000030A0  4EAD 201A                jsr        [A5 + 0x201A /* export_1023, CODE:20 @ 000002FA */]
000030A4  7003                     moveq.l    D0, 0x03
000030A6  B06E FFFA                cmp.w      D0, [A6 - 0x6]
000030AA  6702                     beq        +0x4 /* 000030AE */
000030AC  600C                     bra        +0xE /* 000030BA */
label000030AE:
000030AE  7005                     moveq.l    D0, 0x05
000030B0  B06D F02C                cmp.w      D0, [A5 - 0xFD4]
000030B4  6604                     bne        +0x6 /* 000030BA */
000030B6  4EAD 16EA                jsr        [A5 + 0x16EA /* export_729, CODE:15 @ 0000420E */]
label000030BA:
000030BA  4CDF 18F0                movem.l    D4,D5,D6,D7,A3,A4, [A7]+
000030BE  4E5E                     unlink     A6
000030C0  4E75                     rts
fn000030C2:
000030C2  4E56 0000                link       A6, 0
000030C6  2F0C                     move.l     -[A7], A4
000030C8  286E 0008                movea.l    A4, [A6 + 0x8]
000030CC  2F2C FFFC                move.l     -[A7], [A4 - 0x4]
000030D0  3F2E 000E                move.w     -[A7], [A6 + 0xE]
000030D4  486C FFF8                pea.l      [A4 - 0x8]
000030D8  486C FFF4                pea.l      [A4 - 0xC]
000030DC  486C FFEC                pea.l      [A4 - 0x14]
000030E0  A98D                     syscall    GetDialogItem/GetDItem
000030E2  2F2C FFF4                move.l     -[A7], [A4 - 0xC]
000030E6  102E 000C                move.b     D0, [A6 + 0xC]
000030EA  4880                     ext.w      D0
000030EC  3F00                     move.w     -[A7], D0
000030EE  A963                     syscall    SetControlValue/SetCtlValue
000030F0  285F                     movea.l    A4, [A7]+
000030F2  4E5E                     unlink     A6
000030F4  205F                     movea.l    A0, [A7]+
000030F6  504F                     addq.w     A7, 8
000030F8  4ED0                     jmp        [A0]
fn000030FA:
000030FA  4E56 0000                link       A6, 0
000030FE  2F0C                     move.l     -[A7], A4
00003100  286E 0008                movea.l    A4, [A6 + 0x8]
00003104  396E 000C FDC6           move.w     [A4 - 0x23A], [A6 + 0xC]
0000310A  3F3C 000A                move.w     -[A7], 0xA /* '\n' */
0000310E  4A6C FDC6                tst.w      [A4 - 0x23A]
00003112  57C0                     seq        D0
00003114  4400                     neg.b      D0
00003116  1F00                     move.b     -[A7], D0
00003118  2F2E 0008                move.l     -[A7], [A6 + 0x8]
0000311C  4EBA FFA4                jsr        [PC - 0x5C /* 000030C2 */]
00003120  3F3C 000B                move.w     -[A7], 0xB
00003124  7001                     moveq.l    D0, 0x01
00003126  B06C FDC6                cmp.w      D0, [A4 - 0x23A]
0000312A  57C0                     seq        D0
0000312C  4400                     neg.b      D0
0000312E  1F00                     move.b     -[A7], D0
00003130  2F2E 0008                move.l     -[A7], [A6 + 0x8]
00003134  4EBA FF8C                jsr        [PC - 0x74 /* 000030C2 */]
00003138  3F3C 000C                move.w     -[A7], 0xC
0000313C  7002                     moveq.l    D0, 0x02
0000313E  B06C FDC6                cmp.w      D0, [A4 - 0x23A]
00003142  57C0                     seq        D0
00003144  4400                     neg.b      D0
00003146  1F00                     move.b     -[A7], D0
00003148  2F2E 0008                move.l     -[A7], [A6 + 0x8]
0000314C  4EBA FF74                jsr        [PC - 0x8C /* 000030C2 */]
00003150  3F3C 000D                move.w     -[A7], 0xD /* '\r' */
00003154  7004                     moveq.l    D0, 0x04
00003156  B06C FDC6                cmp.w      D0, [A4 - 0x23A]
0000315A  57C0                     seq        D0
0000315C  4400                     neg.b      D0
0000315E  1F00                     move.b     -[A7], D0
00003160  2F2E 0008                move.l     -[A7], [A6 + 0x8]
00003164  4EBA FF5C                jsr        [PC - 0xA4 /* 000030C2 */]
00003168  3F3C 0011                move.w     -[A7], 0x11
0000316C  7007                     moveq.l    D0, 0x07
0000316E  B06C FDC6                cmp.w      D0, [A4 - 0x23A]
00003172  57C0                     seq        D0
00003174  4400                     neg.b      D0
00003176  1F00                     move.b     -[A7], D0
00003178  2F2E 0008                move.l     -[A7], [A6 + 0x8]
0000317C  4EBA FF44                jsr        [PC - 0xBC /* 000030C2 */]
00003180  285F                     movea.l    A4, [A7]+
00003182  4E5E                     unlink     A6
00003184  205F                     movea.l    A0, [A7]+
00003186  5C4F                     addq.w     A7, 6
00003188  4ED0                     jmp        [A0]
export_272:
fn0000318A:
0000318A  4E56 FB98                link       A6, -0x0468
0000318E  48E7 0F00                movem.l    -[A7], D4,D5,D6,D7
00003192  102D E245                move.b     D0, [A5 - 0x1DBB]
00003196  6740                     beq        +0x42 /* 000031D8 */
00003198  41EE FDCC                lea.l      A0, [A6 - 0x234]
0000319C  43ED E252                lea.l      A1, [A5 - 0x1DAE]
000031A0  7006                     moveq.l    D0, 0x06
label000031A2:
000031A2  20D9                     move.l     [A0]+, [A1]+
000031A4  51C8 FFFC                dbf        D0, -0x6 /* 000031A2 */
000031A8  3091                     move.w     [A0], [A1]
000031AA  2D6D E24E FDC8           move.l     [A6 - 0x238], [A5 - 0x1DB2]
000031B0  1F3C 0001                move.b     -[A7], 0x1
000031B4  4EAD 1602                jsr        [A5 + 0x1602 /* export_700, CODE:15 @ 0000114C */]
000031B8  3F3C 0003                move.w     -[A7], 0x3
000031BC  4EAD 15F2                jsr        [A5 + 0x15F2 /* export_698, CODE:15 @ 00000E4A */]
000031C0  41ED E274                lea.l      A0, [A5 - 0x1D8C]
000031C4  43EE FDCC                lea.l      A1, [A6 - 0x234]
000031C8  7006                     moveq.l    D0, 0x06
label000031CA:
000031CA  20D9                     move.l     [A0]+, [A1]+
000031CC  51C8 FFFC                dbf        D0, -0x6 /* 000031CA */
000031D0  3091                     move.w     [A0], [A1]
000031D2  2B6E FDC8 E270           move.l     [A5 - 0x1D90], [A6 - 0x238]
label000031D8:
000031D8  4A6D E276                tst.w      [A5 - 0x1D8A]
000031DC  57C0                     seq        D0
000031DE  7202                     moveq.l    D1, 0x02
000031E0  B22D E278                cmp.b      D1, [A5 - 0x1D88]
000031E4  56C1                     sne        D1
000031E6  8001                     or.b       D0, D1
000031E8  670C                     beq        +0xE /* 000031F6 */
000031EA  3F3C 002A                move.w     -[A7], 0x2A /* '*' */
000031EE  4EAD 187A                jsr        [A5 + 0x187A /* export_779, CODE:16 @ 00000500 */]
000031F2  6000 03EC                bra        +0x3EE /* 000035E0 */
label000031F6:
000031F6  486E FBC0                pea.l      [A6 - 0x440]
000031FA  3F3C 001C                move.w     -[A7], 0x1C
000031FE  4EAD 209A                jsr        [A5 + 0x209A /* export_1039, CODE:20 @ 00000F60 */]
00003202  205F                     movea.l    A0, [A7]+
00003204  43EE FCC2                lea.l      A1, [A6 - 0x33E]
00003208  703F                     moveq.l    D0, 0x3F
label0000320A:
0000320A  22D8                     move.l     [A1]+, [A0]+
0000320C  51C8 FFFC                dbf        D0, -0x6 /* 0000320A */
00003210  202D E270                move.l     D0, [A5 - 0x1D90]
00003214  B0AD F622                cmp.l      D0, [A5 - 0x9DE]
00003218  661A                     bne        +0x1C /* 00003234 */
0000321A  486E FBC0                pea.l      [A6 - 0x440]
0000321E  3F3C 001D                move.w     -[A7], 0x1D
00003222  4EAD 209A                jsr        [A5 + 0x209A /* export_1039, CODE:20 @ 00000F60 */]
00003226  205F                     movea.l    A0, [A7]+
00003228  43EE FCC2                lea.l      A1, [A6 - 0x33E]
0000322C  703F                     moveq.l    D0, 0x3F
label0000322E:
0000322E  22D8                     move.l     [A1]+, [A0]+
00003230  51C8 FFFC                dbf        D0, -0x6 /* 0000322E */
label00003234:
00003234  4267                     clr.w      -[A7]
00003236  4EAD 221A                jsr        [A5 + 0x221A /* export_1087, CODE:20 @ 00004B46 */]
0000323A  101F                     move.b     D0, [A7]+
0000323C  802D F005                or.b       D0, [A5 - 0xFFB]
00003240  7205                     moveq.l    D1, 0x05
00003242  B26D F02C                cmp.w      D1, [A5 - 0xFD4]
00003246  57C1                     seq        D1
00003248  C001                     and.b      D0, D1
0000324A  6710                     beq        +0x12 /* 0000325C */
0000324C  2F2D E270                move.l     -[A7], [A5 - 0x1D90]
00003250  486D E274                pea.l      [A5 - 0x1D8C]
00003254  4EAD 16F2                jsr        [A5 + 0x16F2 /* export_730, CODE:15 @ 0000423C */]
00003258  6000 0386                bra        +0x388 /* 000035E0 */
label0000325C:
0000325C  102D F4CD                move.b     D0, [A5 - 0xB33]
00003260  0A00 0001                xori.b     D0, 0x1
00003264  802D F015                or.b       D0, [A5 - 0xFEB]
00003268  1D40 FCC1                move.b     [A6 - 0x33F], D0
0000326C  486E FBC0                pea.l      [A6 - 0x440]
00003270  2F2D E270                move.l     -[A7], [A5 - 0x1D90]
00003274  3F2D E276                move.w     -[A7], [A5 - 0x1D8A]
00003278  4EAD 1DC2                jsr        [A5 + 0x1DC2 /* export_948, CODE:18 @ 00000E24 */]
0000327C  205F                     movea.l    A0, [A7]+
0000327E  43EE FDEC                lea.l      A1, [A6 - 0x214]
00003282  703F                     moveq.l    D0, 0x3F
label00003284:
00003284  22D8                     move.l     [A1]+, [A0]+
00003286  51C8 FFFC                dbf        D0, -0x6 /* 00003284 */
0000328A  4267                     clr.w      -[A7]
0000328C  2F2D E270                move.l     -[A7], [A5 - 0x1D90]
00003290  3F2D E276                move.w     -[A7], [A5 - 0x1D8A]
00003294  4EAD 1DCA                jsr        [A5 + 0x1DCA /* export_949, CODE:18 @ 00000E6C */]
00003298  3D5F FDEA                move.w     [A6 - 0x216], [A7]+
0000329C  486E FBAC                pea.l      [A6 - 0x454]
000032A0  302D E276                move.w     D0, [A5 - 0x1D8A]
000032A4  48C0                     ext.l      D0
000032A6  2F00                     move.l     -[A7], D0
000032A8  4EAD 1902                jsr        [A5 + 0x1902 /* export_796, CODE:16 @ 000009D4 */]
000032AC  486E FB98                pea.l      [A6 - 0x468]
000032B0  302E FDEA                move.w     D0, [A6 - 0x216]
000032B4  48C0                     ext.l      D0
000032B6  2F00                     move.l     -[A7], D0
000032B8  4EAD 1902                jsr        [A5 + 0x1902 /* export_796, CODE:16 @ 000009D4 */]
000032BC  486E FCC2                pea.l      [A6 - 0x33E]
000032C0  487A 0326                pea.l      [PC + 0x326 /* 000035E8, value 0x4E56 'NV', cstring "" */]
000032C4  A98B                     syscall    ParamText
000032C6  4EAD 1862                jsr        [A5 + 0x1862 /* export_776, CODE:16 @ 00000474 */]
000032CA  42A7                     clr.l      -[A7]
000032CC  3F3C 0899                move.w     -[A7], 0x899
000032D0  42A7                     clr.l      -[A7]
000032D2  70FF                     moveq.l    D0, 0xFFFFFFFF
000032D4  2F00                     move.l     -[A7], D0
000032D6  A97C                     syscall    GetNewDialog
000032D8  2D5F FFFC                move.l     [A6 - 0x4], [A7]+
000032DC  2F2E FFFC                move.l     -[A7], [A6 - 0x4]
000032E0  4EAD 182A                jsr        [A5 + 0x182A /* export_769, CODE:16 @ 000002AC */]
000032E4  2F2E FFFC                move.l     -[A7], [A6 - 0x4]
000032E8  A915                     syscall    ShowWindow
000032EA  2F2E FFFC                move.l     -[A7], [A6 - 0x4]
000032EE  4EAD 186A                jsr        [A5 + 0x186A /* export_777, CODE:16 @ 00000490 */]
000032F2  7005                     moveq.l    D0, 0x05
000032F4  B06D F02C                cmp.w      D0, [A5 - 0xFD4]
000032F8  6F20                     ble        +0x22 /* 0000331A */
000032FA  2F2E FFFC                move.l     -[A7], [A6 - 0x4]
000032FE  3F3C 0003                move.w     -[A7], 0x3
00003302  486E FFF8                pea.l      [A6 - 0x8]
00003306  486E FFF4                pea.l      [A6 - 0xC]
0000330A  486E FFEC                pea.l      [A6 - 0x14]
0000330E  A98D                     syscall    GetDialogItem/GetDItem
00003310  2F2E FFF4                move.l     -[A7], [A6 - 0xC]
00003314  3F3C 00FF                move.w     -[A7], 0xFF
00003318  A95D                     syscall    HiliteControl
label0000331A:
0000331A  2F2E FFFC                move.l     -[A7], [A6 - 0x4]
0000331E  3F3C 0005                move.w     -[A7], 0x5
00003322  486E FFF8                pea.l      [A6 - 0x8]
00003326  486E FFF4                pea.l      [A6 - 0xC]
0000332A  486E FFEC                pea.l      [A6 - 0x14]
0000332E  A98D                     syscall    GetDialogItem/GetDItem
00003330  2F2E FFF4                move.l     -[A7], [A6 - 0xC]
00003334  486E FDEC                pea.l      [A6 - 0x214]
00003338  A98F                     syscall    SetDialogItemText/SetIText
0000333A  2F2E FFFC                move.l     -[A7], [A6 - 0x4]
0000333E  2F3C 0000 0005           move.l     -[A7], 0x5
00003344  3F3C 7FFF                move.w     -[A7], 0x7FFF
00003348  A97E                     syscall    SelectDialogItemText/SelIText
0000334A  1E2D E279                move.b     D7, [A5 - 0x1D87]
0000334E  0247 0001                andi.w     D7, 0x1
00003352  3F3C 000E                move.w     -[A7], 0xE
00003356  1F07                     move.b     -[A7], D7
00003358  2F0E                     move.l     -[A7], A6
0000335A  4EBA FD66                jsr        [PC - 0x29A /* 000030C2 */]
0000335E  7000                     moveq.l    D0, 0x00
00003360  102D E279                move.b     D0, [A5 - 0x1D87]
00003364  C0BC 0000 0002           and.l      D0, 0x2
0000336A  4A80                     tst.l      D0
0000336C  56C6                     sne        D6
0000336E  4406                     neg.b      D6
00003370  3F3C 0012                move.w     -[A7], 0x12
00003374  1F06                     move.b     -[A7], D6
00003376  2F0E                     move.l     -[A7], A6
00003378  4EBA FD48                jsr        [PC - 0x2B8 /* 000030C2 */]
0000337C  7000                     moveq.l    D0, 0x00
0000337E  302D E282                move.w     D0, [A5 - 0x1D7E]
00003382  C0BC 0000 4000           and.l      D0, 0x4000 /* '@\0' */
00003388  4A80                     tst.l      D0
0000338A  56C5                     sne        D5
0000338C  4405                     neg.b      D5
0000338E  3F3C 000F                move.w     -[A7], 0xF
00003392  1F05                     move.b     -[A7], D5
00003394  2F0E                     move.l     -[A7], A6
00003396  4EBA FD2A                jsr        [PC - 0x2D6 /* 000030C2 */]
0000339A  7000                     moveq.l    D0, 0x00
0000339C  302D E282                move.w     D0, [A5 - 0x1D7E]
000033A0  C0BC 0000 2000           and.l      D0, 0x2000 /* ' \0' */
000033A6  4A80                     tst.l      D0
000033A8  56C4                     sne        D4
000033AA  4404                     neg.b      D4
000033AC  3F3C 0010                move.w     -[A7], 0x10
000033B0  1F04                     move.b     -[A7], D4
000033B2  2F0E                     move.l     -[A7], A6
000033B4  4EBA FD0C                jsr        [PC - 0x2F4 /* 000030C2 */]
000033B8  41EE FDCC                lea.l      A0, [A6 - 0x234]
000033BC  43ED E274                lea.l      A1, [A5 - 0x1D8C]
000033C0  7006                     moveq.l    D0, 0x06
label000033C2:
000033C2  20D9                     move.l     [A0]+, [A1]+
000033C4  51C8 FFFC                dbf        D0, -0x6 /* 000033C2 */
000033C8  3091                     move.w     [A0], [A1]
000033CA  7000                     moveq.l    D0, 0x00
000033CC  302D E282                move.w     D0, [A5 - 0x1D7E]
000033D0  C0BC 0000 000F           and.l      D0, 0xF
000033D6  3D40 FDC6                move.w     [A6 - 0x23A], D0
000033DA  3F2E FDC6                move.w     -[A7], [A6 - 0x23A]
000033DE  2F0E                     move.l     -[A7], A6
000033E0  4EBA FD18                jsr        [PC - 0x2E8 /* 000030FA */]
label000033E4:
000033E4  42A7                     clr.l      -[A7]
000033E6  486E FFFA                pea.l      [A6 - 0x6]
000033EA  A991                     syscall    ModalDialog
000033EC  102E FCC1                move.b     D0, [A6 - 0x33F]
000033F0  6700 00B2                beq        +0xB4 /* 000034A4 */
000033F4  302E FFFA                move.w     D0, [A6 - 0x6]
000033F8  0440 000A                subi.w     D0, 0xA /* '\n' */
000033FC  6B00 00A6                bmi        +0xA8 /* 000034A4 */
00003400  0C40 0008                cmpi.w     D0, 0x8
00003404  6E00 009E                bgt        +0xA0 /* 000034A4 */
00003408  D040                     add.w      D0, D0
0000340A  303B 0006                move.w     D0, [PC + D0.w + 0x6]
0000340E  4EFB 0000                jmp        [PC + D0.w]
00003412  0014 001E                ori.b      [A4], 0x1E
00003416  002A 0036 004E           ori.b      [A2 + 0x4E], 0x36 /* '6' */
0000341C  0060 0072                ori.w      -[A0], 0x72 /* 'r' */
00003420  0042 0084                ori.w      D2, 0x84
00003424  4267                     clr.w      -[A7]
00003426  2F0E                     move.l     -[A7], A6
00003428  4EBA FCD0                jsr        [PC - 0x330 /* 000030FA */]
0000342C  6076                     bra        +0x78 /* 000034A4 */
0000342E  3F3C 0001                move.w     -[A7], 0x1
00003432  2F0E                     move.l     -[A7], A6
00003434  4EBA FCC4                jsr        [PC - 0x33C /* 000030FA */]
00003438  606A                     bra        +0x6C /* 000034A4 */
0000343A  3F3C 0002                move.w     -[A7], 0x2
0000343E  2F0E                     move.l     -[A7], A6
00003440  4EBA FCB8                jsr        [PC - 0x348 /* 000030FA */]
00003444  605E                     bra        +0x60 /* 000034A4 */
00003446  3F3C 0004                move.w     -[A7], 0x4
0000344A  2F0E                     move.l     -[A7], A6
0000344C  4EBA FCAC                jsr        [PC - 0x354 /* 000030FA */]
00003450  6052                     bra        +0x54 /* 000034A4 */
00003452  3F3C 0007                move.w     -[A7], 0x7
00003456  2F0E                     move.l     -[A7], A6
00003458  4EBA FCA0                jsr        [PC - 0x360 /* 000030FA */]
0000345C  6046                     bra        +0x48 /* 000034A4 */
0000345E  0A07 0001                xori.b     D7, 0x1
00003462  3F3C 000E                move.w     -[A7], 0xE
00003466  1F07                     move.b     -[A7], D7
00003468  2F0E                     move.l     -[A7], A6
0000346A  4EBA FC56                jsr        [PC - 0x3AA /* 000030C2 */]
0000346E  6034                     bra        +0x36 /* 000034A4 */
00003470  0A05 0001                xori.b     D5, 0x1
00003474  3F3C 000F                move.w     -[A7], 0xF
00003478  1F05                     move.b     -[A7], D5
0000347A  2F0E                     move.l     -[A7], A6
0000347C  4EBA FC44                jsr        [PC - 0x3BC /* 000030C2 */]
00003480  6022                     bra        +0x24 /* 000034A4 */
00003482  0A04 0001                xori.b     D4, 0x1
00003486  3F3C 0010                move.w     -[A7], 0x10
0000348A  1F04                     move.b     -[A7], D4
0000348C  2F0E                     move.l     -[A7], A6
0000348E  4EBA FC32                jsr        [PC - 0x3CE /* 000030C2 */]
00003492  6010                     bra        +0x12 /* 000034A4 */
00003494  0A06 0001                xori.b     D6, 0x1
00003498  3F3C 0012                move.w     -[A7], 0x12
0000349C  1F06                     move.b     -[A7], D6
0000349E  2F0E                     move.l     -[A7], A6
000034A0  4EBA FC20                jsr        [PC - 0x3E0 /* 000030C2 */]
label000034A4:
000034A4  7001                     moveq.l    D0, 0x01
000034A6  B06E FFFA                cmp.w      D0, [A6 - 0x6]
000034AA  57C0                     seq        D0
000034AC  7202                     moveq.l    D1, 0x02
000034AE  B26E FFFA                cmp.w      D1, [A6 - 0x6]
000034B2  57C1                     seq        D1
000034B4  8001                     or.b       D0, D1
000034B6  7203                     moveq.l    D1, 0x03
000034B8  B26E FFFA                cmp.w      D1, [A6 - 0x6]
000034BC  57C1                     seq        D1
000034BE  8001                     or.b       D0, D1
000034C0  7207                     moveq.l    D1, 0x07
000034C2  B26E FFFA                cmp.w      D1, [A6 - 0x6]
000034C6  57C1                     seq        D1
000034C8  8001                     or.b       D0, D1
000034CA  6700 FF18                beq        -0xE6 /* 000033E4 */
000034CE  7002                     moveq.l    D0, 0x02
000034D0  B06E FFFA                cmp.w      D0, [A6 - 0x6]
000034D4  6700 00CE                beq        +0xD0 /* 000035A4 */
000034D8  3D6E FDC6 FDDA           move.w     [A6 - 0x226], [A6 - 0x23A]
000034DE  1005                     move.b     D0, D5
000034E0  670C                     beq        +0xE /* 000034EE */
000034E2  302E FDDA                move.w     D0, [A6 - 0x226]
000034E6  D07C 4000                add.w      D0, 0x4000 /* '@\0' */
000034EA  3D40 FDDA                move.w     [A6 - 0x226], D0
label000034EE:
000034EE  1004                     move.b     D0, D4
000034F0  670C                     beq        +0xE /* 000034FE */
000034F2  302E FDDA                move.w     D0, [A6 - 0x226]
000034F6  D07C 2000                add.w      D0, 0x2000 /* ' \0' */
000034FA  3D40 FDDA                move.w     [A6 - 0x226], D0
label000034FE:
000034FE  1007                     move.b     D0, D7
00003500  4880                     ext.w      D0
00003502  1206                     move.b     D1, D6
00003504  4881                     ext.w      D1
00003506  E341                     asl        D1.w, 1
00003508  D240                     add.w      D1, D0
0000350A  1D41 FDD1                move.b     [A6 - 0x22F], D1
0000350E  4267                     clr.w      -[A7]
00003510  486E FDCC                pea.l      [A6 - 0x234]
00003514  486D E274                pea.l      [A5 - 0x1D8C]
00003518  3F3C 001E                move.w     -[A7], 0x1E
0000351C  4EAD 19FA                jsr        [A5 + 0x19FA /* export_827, CODE:16 @ 00001412 */]
00003520  101F                     move.b     D0, [A7]+
00003522  662A                     bne        +0x2C /* 0000354E */
00003524  4267                     clr.w      -[A7]
00003526  2F2D E270                move.l     -[A7], [A5 - 0x1D90]
0000352A  486E FDCC                pea.l      [A6 - 0x234]
0000352E  4EAD 1E6A                jsr        [A5 + 0x1E6A /* export_969, CODE:18 @ 00002E96 */]
00003532  101F                     move.b     D0, [A7]+
00003534  6714                     beq        +0x16 /* 0000354A */
00003536  41ED E274                lea.l      A0, [A5 - 0x1D8C]
0000353A  43EE FDCC                lea.l      A1, [A6 - 0x234]
0000353E  7006                     moveq.l    D0, 0x06
label00003540:
00003540  20D9                     move.l     [A0]+, [A1]+
00003542  51C8 FFFC                dbf        D0, -0x6 /* 00003540 */
00003546  3091                     move.w     [A0], [A1]
00003548  6004                     bra        +0x6 /* 0000354E */
label0000354A:
0000354A  4EAD 1812                jsr        [A5 + 0x1812 /* export_766, CODE:16 @ 00000208 */]
label0000354E:
0000354E  2F2E FFFC                move.l     -[A7], [A6 - 0x4]
00003552  3F3C 0005                move.w     -[A7], 0x5
00003556  486E FFF8                pea.l      [A6 - 0x8]
0000355A  486E FFF4                pea.l      [A6 - 0xC]
0000355E  486E FFEC                pea.l      [A6 - 0x14]
00003562  A98D                     syscall    GetDialogItem/GetDItem
00003564  2F2E FFF4                move.l     -[A7], [A6 - 0xC]
00003568  486E FEEC                pea.l      [A6 - 0x114]
0000356C  A990                     syscall    GetDialogItemText/GetIText
0000356E  486E FEEC                pea.l      [A6 - 0x114]
00003572  486E FDEC                pea.l      [A6 - 0x214]
00003576  4EAD 052A                jsr        [A5 + 0x52A /* export_161, CODE:1 @ 0000543C */]
0000357A  101F                     move.b     D0, [A7]+
0000357C  6726                     beq        +0x28 /* 000035A4 */
0000357E  102E FCC1                move.b     D0, [A6 - 0x33F]
00003582  671C                     beq        +0x1E /* 000035A0 */
00003584  4267                     clr.w      -[A7]
00003586  2F2D E270                move.l     -[A7], [A5 - 0x1D90]
0000358A  3F2D E276                move.w     -[A7], [A5 - 0x1D8A]
0000358E  486E FEEC                pea.l      [A6 - 0x114]
00003592  4EAD 1E72                jsr        [A5 + 0x1E72 /* export_970, CODE:18 @ 00002F34 */]
00003596  101F                     move.b     D0, [A7]+
00003598  6604                     bne        +0x6 /* 0000359E */
0000359A  4EAD 1812                jsr        [A5 + 0x1812 /* export_766, CODE:16 @ 00000208 */]
label0000359E:
0000359E  6004                     bra        +0x6 /* 000035A4 */
label000035A0:
000035A0  4EAD 15BA                jsr        [A5 + 0x15BA /* export_691, CODE:15 @ 00000AE6 */]
label000035A4:
000035A4  2F2E FFFC                move.l     -[A7], [A6 - 0x4]
000035A8  4EAD 201A                jsr        [A5 + 0x201A /* export_1023, CODE:20 @ 000002FA */]
000035AC  486D E27A                pea.l      [A5 - 0x1D86]
000035B0  4EAD 207A                jsr        [A5 + 0x207A /* export_1035, CODE:20 @ 00000CEE */]
000035B4  7007                     moveq.l    D0, 0x07
000035B6  B06E FFFA                cmp.w      D0, [A6 - 0x6]
000035BA  6604                     bne        +0x6 /* 000035C0 */
000035BC  4EAD 003A                jsr        [A5 + 0x3A /* export_3, CODE:1 @ 00000978 */]
label000035C0:
000035C0  7003                     moveq.l    D0, 0x03
000035C2  B06E FFFA                cmp.w      D0, [A6 - 0x6]
000035C6  57C0                     seq        D0
000035C8  7205                     moveq.l    D1, 0x05
000035CA  B26D F02C                cmp.w      D1, [A5 - 0xFD4]
000035CE  57C1                     seq        D1
000035D0  C001                     and.b      D0, D1
000035D2  670C                     beq        +0xE /* 000035E0 */
000035D4  2F2D E270                move.l     -[A7], [A5 - 0x1D90]
000035D8  486D E274                pea.l      [A5 - 0x1D8C]
000035DC  4EAD 16F2                jsr        [A5 + 0x16F2 /* export_730, CODE:15 @ 0000423C */]
label000035E0:
000035E0  4CDF 00F0                movem.l    D4,D5,D6,D7, [A7]+
000035E4  4E5E                     unlink     A6
000035E6  4E75                     rts
000035E8  0000 4E56                ori.b      D0, 0x56 /* 'V' */
// begin alternate branch 000035EA-000035F2
export_273:
000035EA  4E56 FE94                link       A6, -0x016C
000035EE  48E7 0108                movem.l    -[A7], D7,A4
// end alternate branch 000035EA-000035F2
export_273: // at 000035EA (misaligned)
000035EC  FE94 48E7                .extension 0xE94 <<F/2-3/7>> // unimplemented
000035F0  0108                     btst       A0, D0
000035F2  4267                     clr.w      -[A7]
000035F4  4EAD 221A                jsr        [A5 + 0x221A /* export_1087, CODE:20 @ 00004B46 */]
000035F8  101F                     move.b     D0, [A7]+
000035FA  802D F005                or.b       D0, [A5 - 0xFFB]
000035FE  6600 016E                bne        +0x170 /* 0000376E */
00003602  7000                     moveq.l    D0, 0x00
00003604  2D40 FEE8                move.l     [A6 - 0x118], D0
00003608  70FF                     moveq.l    D0, 0xFFFFFFFF
0000360A  B06D FC42                cmp.w      D0, [A5 - 0x3BE]
0000360E  6710                     beq        +0x12 /* 00003620 */
00003610  4267                     clr.w      -[A7]
00003612  3F2D FC42                move.w     -[A7], [A5 - 0x3BE]
00003616  486E FEE8                pea.l      [A6 - 0x118]
0000361A  4EAD 0352                jsr        [A5 + 0x352 /* export_102, CODE:1 @ 00004A86 */]
0000361E  3E1F                     move.w     D7, [A7]+
label00003620:
00003620  202D F650                move.l     D0, [A5 - 0x9B0]
00003624  D1AE FEE8                add.l      [A6 - 0x118], D0
00003628  486E FED0                pea.l      [A6 - 0x130]
0000362C  2F2D F668                move.l     -[A7], [A5 - 0x998]
00003630  4EAD 1902                jsr        [A5 + 0x1902 /* export_796, CODE:16 @ 000009D4 */]
00003634  486E FEBC                pea.l      [A6 - 0x144]
00003638  2F2D F660                move.l     -[A7], [A5 - 0x9A0]
0000363C  4EAD 1902                jsr        [A5 + 0x1902 /* export_796, CODE:16 @ 000009D4 */]
00003640  486E FEA8                pea.l      [A6 - 0x158]
00003644  202E FEE8                move.l     D0, [A6 - 0x118]
00003648  D0BC 0000 03FF           add.l      D0, 0x3FF
0000364E  720A                     moveq.l    D1, 0x0A
00003650  E2A8                     lsr        D0, D1
00003652  2F00                     move.l     -[A7], D0
00003654  4EAD 1902                jsr        [A5 + 0x1902 /* export_796, CODE:16 @ 000009D4 */]
00003658  486E FE94                pea.l      [A6 - 0x16C]
0000365C  202D F678                move.l     D0, [A5 - 0x988]
00003660  D0BC 0000 03FF           add.l      D0, 0x3FF
00003666  720A                     moveq.l    D1, 0x0A
00003668  E2A8                     lsr        D0, D1
0000366A  2F00                     move.l     -[A7], D0
0000366C  4EAD 1902                jsr        [A5 + 0x1902 /* export_796, CODE:16 @ 000009D4 */]
00003670  A98B                     syscall    ParamText
00003672  4EAD 1862                jsr        [A5 + 0x1862 /* export_776, CODE:16 @ 00000474 */]
00003676  42A7                     clr.l      -[A7]
00003678  3F3C 089C                move.w     -[A7], 0x89C
0000367C  42A7                     clr.l      -[A7]
0000367E  70FF                     moveq.l    D0, 0xFFFFFFFF
00003680  2F00                     move.l     -[A7], D0
00003682  A97C                     syscall    GetNewDialog
00003684  285F                     movea.l    A4, [A7]+
00003686  2F0C                     move.l     -[A7], A4
00003688  4EAD 182A                jsr        [A5 + 0x182A /* export_769, CODE:16 @ 000002AC */]
0000368C  2F0C                     move.l     -[A7], A4
0000368E  A915                     syscall    ShowWindow
00003690  2F0C                     move.l     -[A7], A4
00003692  4EAD 186A                jsr        [A5 + 0x186A /* export_777, CODE:16 @ 00000490 */]
00003696  7005                     moveq.l    D0, 0x05
00003698  B06D F02C                cmp.w      D0, [A5 - 0xFD4]
0000369C  6F1E                     ble        +0x20 /* 000036BC */
0000369E  2F0C                     move.l     -[A7], A4
000036A0  3F3C 0003                move.w     -[A7], 0x3
000036A4  486E FFF8                pea.l      [A6 - 0x8]
000036A8  486E FFF4                pea.l      [A6 - 0xC]
000036AC  486E FFEC                pea.l      [A6 - 0x14]
000036B0  A98D                     syscall    GetDialogItem/GetDItem
000036B2  2F2E FFF4                move.l     -[A7], [A6 - 0xC]
000036B6  3F3C 00FF                move.w     -[A7], 0xFF
000036BA  A95D                     syscall    HiliteControl
label000036BC:
000036BC  2F0C                     move.l     -[A7], A4
000036BE  3F3C 000B                move.w     -[A7], 0xB
000036C2  486E FFF8                pea.l      [A6 - 0x8]
000036C6  486E FFF4                pea.l      [A6 - 0xC]
000036CA  486E FFEC                pea.l      [A6 - 0x14]
000036CE  A98D                     syscall    GetDialogItem/GetDItem
000036D0  2F2E FFF4                move.l     -[A7], [A6 - 0xC]
000036D4  486D FC48                pea.l      [A5 - 0x3B8]
000036D8  A98F                     syscall    SetDialogItemText/SetIText
000036DA  2F0C                     move.l     -[A7], A4
000036DC  3F3C 0005                move.w     -[A7], 0x5
000036E0  486E FFF8                pea.l      [A6 - 0x8]
000036E4  486E FFF4                pea.l      [A6 - 0xC]
000036E8  486E FFEC                pea.l      [A6 - 0x14]
000036EC  A98D                     syscall    GetDialogItem/GetDItem
000036EE  2F2E FFF4                move.l     -[A7], [A6 - 0xC]
000036F2  486D FD48                pea.l      [A5 - 0x2B8]
000036F6  A98F                     syscall    SetDialogItemText/SetIText
000036F8  2F0C                     move.l     -[A7], A4
000036FA  2F3C 0000 0005           move.l     -[A7], 0x5
00003700  3F3C 7FFF                move.w     -[A7], 0x7FFF
00003704  A97E                     syscall    SelectDialogItemText/SelIText
label00003706:
00003706  42A7                     clr.l      -[A7]
00003708  486E FFFA                pea.l      [A6 - 0x6]
0000370C  A991                     syscall    ModalDialog
0000370E  7001                     moveq.l    D0, 0x01
00003710  B06E FFFA                cmp.w      D0, [A6 - 0x6]
00003714  57C0                     seq        D0
00003716  7202                     moveq.l    D1, 0x02
00003718  B26E FFFA                cmp.w      D1, [A6 - 0x6]
0000371C  57C1                     seq        D1
0000371E  8001                     or.b       D0, D1
00003720  7203                     moveq.l    D1, 0x03
00003722  B26E FFFA                cmp.w      D1, [A6 - 0x6]
00003726  57C1                     seq        D1
00003728  8001                     or.b       D0, D1
0000372A  67DA                     beq        -0x24 /* 00003706 */
0000372C  2F2E FFF4                move.l     -[A7], [A6 - 0xC]
00003730  486E FEEC                pea.l      [A6 - 0x114]
00003734  A990                     syscall    GetDialogItemText/GetIText
00003736  2F0C                     move.l     -[A7], A4
00003738  4EAD 201A                jsr        [A5 + 0x201A /* export_1023, CODE:20 @ 000002FA */]
0000373C  7002                     moveq.l    D0, 0x02
0000373E  B06E FFFA                cmp.w      D0, [A6 - 0x6]
00003742  56C0                     sne        D0
00003744  4A00                     tst.b      D0
00003746  671C                     beq        +0x1E /* 00003764 */
00003748  2F00                     move.l     -[A7], D0
0000374A  4267                     clr.w      -[A7]
0000374C  486E FEEC                pea.l      [A6 - 0x114]
00003750  4EAD 1E82                jsr        [A5 + 0x1E82 /* export_972, CODE:18 @ 0000307C */]
00003754  121F                     move.b     D1, [A7]+
00003756  201F                     move.l     D0, [A7]+
00003758  0A01 0001                xori.b     D1, 0x1
0000375C  C001                     and.b      D0, D1
0000375E  6704                     beq        +0x6 /* 00003764 */
00003760  4EAD 1812                jsr        [A5 + 0x1812 /* export_766, CODE:16 @ 00000208 */]
label00003764:
00003764  7003                     moveq.l    D0, 0x03
00003766  B06E FFFA                cmp.w      D0, [A6 - 0x6]
0000376A  6702                     beq        +0x4 /* 0000376E */
0000376C  600C                     bra        +0xE /* 0000377A */
label0000376E:
0000376E  7005                     moveq.l    D0, 0x05
00003770  B06D F02C                cmp.w      D0, [A5 - 0xFD4]
00003774  6604                     bne        +0x6 /* 0000377A */
00003776  4EAD 1702                jsr        [A5 + 0x1702 /* export_732, CODE:15 @ 000046C4 */]
label0000377A:
0000377A  4CDF 1080                movem.l    D7,A4, [A7]+
0000377E  4E5E                     unlink     A6
00003780  4E75                     rts
export_274:
00003782  4E56 FFFA                link       A6, -0x0006
00003786  48E7 0700                movem.l    -[A7], D5,D6,D7
0000378A  486D F022                pea.l      [A5 - 0xFDE]
0000378E  A871                     syscall    GlobalToLocal
00003790  302D F024                move.w     D0, [A5 - 0xFDC]
00003794  48C0                     ext.l      D0
00003796  81FC 0017                divs.w     D0, 0x17
0000379A  3E00                     move.w     D7, D0
0000379C  302D F022                move.w     D0, [A5 - 0xFDE]
000037A0  5940                     subq.w     D0, 4
000037A2  48C0                     ext.l      D0
000037A4  81FC 0015                divs.w     D0, 0x15
000037A8  3C00                     move.w     D6, D0
000037AA  3007                     move.w     D0, D7
000037AC  5240                     addq.w     D0, 1
000037AE  3206                     move.w     D1, D6
000037B0  C3FC 0003                muls.w     D1, 0x3
000037B4  3A01                     move.w     D5, D1
000037B6  DA40                     add.w      D5, D0
000037B8  3F3C 0005                move.w     -[A7], 0x5
000037BC  3F05                     move.w     -[A7], D5
000037BE  4EAD 21BA                jsr        [A5 + 0x21BA /* export_1075, CODE:20 @ 00004336 */]
000037C2  2F2D EDC4                move.l     -[A7], [A5 - 0x123C]
000037C6  A91F                     syscall    SelectWindow
000037C8  2F2D EDC4                move.l     -[A7], [A5 - 0x123C]
000037CC  4EAD 22E2                jsr        [A5 + 0x22E2 /* export_1112, CODE:20 @ 0000633A */]
000037D0  4CDF 00E0                movem.l    D5,D6,D7, [A7]+
000037D4  4E5E                     unlink     A6
000037D6  4E75                     rts
export_275:
fn000037D8:
000037D8  4E56 0000                link       A6, 0
000037DC  4EAD 009A                jsr        [A5 + 0x9A /* export_15, CODE:1 @ 00002548 */]
000037E0  422D E2E2                clr.b      [A5 - 0x1D1E]
000037E4  4267                     clr.w      -[A7]
000037E6  4EAD 1542                jsr        [A5 + 0x1542 /* export_676, CODE:15 @ 00000000 */]
000037EA  1B7C 0001 E2E2           move.b     [A5 - 0x1D1E], 0x1
000037F0  0A2D 0001 EFDF           xori.b     [A5 - 0x1021], 0x1
000037F6  422D E2FB                clr.b      [A5 - 0x1D05]
000037FA  41ED E2F2                lea.l      A0, [A5 - 0x1D0E]
000037FE  43ED ED82                lea.l      A1, [A5 - 0x127E]
00003802  20D9                     move.l     [A0]+, [A1]+
00003804  20D9                     move.l     [A0]+, [A1]+
00003806  486D ED82                pea.l      [A5 - 0x127E]
0000380A  4EAD 16D2                jsr        [A5 + 0x16D2 /* export_726, CODE:15 @ 0000402E */]
0000380E  486D ED82                pea.l      [A5 - 0x127E]
00003812  4EAD 00BA                jsr        [A5 + 0xBA /* export_19, CODE:1 @ 00003970 */]
00003816  4EAD 2182                jsr        [A5 + 0x2182 /* export_1068, CODE:20 @ 00003930 */]
0000381A  4E5E                     unlink     A6
0000381C  4E75                     rts
fn0000381E:
0000381E  4E56 0000                link       A6, 0
00003822  2F0C                     move.l     -[A7], A4
00003824  286E 0008                movea.l    A4, [A6 + 0x8]
00003828  2F2C FFFC                move.l     -[A7], [A4 - 0x4]
0000382C  3F2E 000E                move.w     -[A7], [A6 + 0xE]
00003830  486C FFF8                pea.l      [A4 - 0x8]
00003834  486C FFF4                pea.l      [A4 - 0xC]
00003838  486C FFEC                pea.l      [A4 - 0x14]
0000383C  A98D                     syscall    GetDialogItem/GetDItem
0000383E  2F2C FFF4                move.l     -[A7], [A4 - 0xC]
00003842  102E 000C                move.b     D0, [A6 + 0xC]
00003846  4880                     ext.w      D0
00003848  3F00                     move.w     -[A7], D0
0000384A  A963                     syscall    SetControlValue/SetCtlValue
0000384C  285F                     movea.l    A4, [A7]+
0000384E  4E5E                     unlink     A6
00003850  205F                     movea.l    A0, [A7]+
00003852  504F                     addq.w     A7, 8
00003854  4ED0                     jmp        [A0]
fn00003856:
00003856  4E56 FFFE                link       A6, -0x0002
0000385A  48E7 0108                movem.l    -[A7], D7,A4
0000385E  286E 0008                movea.l    A4, [A6 + 0x8]
00003862  396E 000C FDE6           move.w     [A4 - 0x21A], [A6 + 0xC]
00003868  7E01                     moveq.l    D7, 0x01
0000386A  601A                     bra        +0x1C /* 00003886 */
label0000386C:
0000386C  3007                     move.w     D0, D7
0000386E  5C40                     addq.w     D0, 6
00003870  3F00                     move.w     -[A7], D0
00003872  BE6C FDE6                cmp.w      D7, [A4 - 0x21A]
00003876  57C0                     seq        D0
00003878  4400                     neg.b      D0
0000387A  1F00                     move.b     -[A7], D0
0000387C  2F2E 0008                move.l     -[A7], [A6 + 0x8]
00003880  4EBA FF9C                jsr        [PC - 0x64 /* 0000381E */]
00003884  5247                     addq.w     D7, 1
label00003886:
00003886  7005                     moveq.l    D0, 0x05
00003888  B047                     cmp.w      D0, D7
0000388A  6CE0                     bge        -0x1E /* 0000386C */
0000388C  4CDF 1080                movem.l    D7,A4, [A7]+
00003890  4E5E                     unlink     A6
00003892  205F                     movea.l    A0, [A7]+
00003894  5C4F                     addq.w     A7, 6
00003896  4ED0                     jmp        [A0]
fn00003898:
00003898  4E56 0000                link       A6, 0
0000389C  2F0C                     move.l     -[A7], A4
0000389E  286E 0008                movea.l    A4, [A6 + 0x8]
000038A2  42A7                     clr.l      -[A7]
000038A4  3F3C 0837                move.w     -[A7], 0x837
000038A8  42A7                     clr.l      -[A7]
000038AA  70FF                     moveq.l    D0, 0xFFFFFFFF
000038AC  2F00                     move.l     -[A7], D0
000038AE  A97C                     syscall    GetNewDialog
000038B0  295F FFFC                move.l     [A4 - 0x4], [A7]+
000038B4  2F2C FFFC                move.l     -[A7], [A4 - 0x4]
000038B8  4EAD 182A                jsr        [A5 + 0x182A /* export_769, CODE:16 @ 000002AC */]
000038BC  2F2C FFFC                move.l     -[A7], [A4 - 0x4]
000038C0  A915                     syscall    ShowWindow
000038C2  2F2C FFFC                move.l     -[A7], [A4 - 0x4]
000038C6  4EAD 186A                jsr        [A5 + 0x186A /* export_777, CODE:16 @ 00000490 */]
label000038CA:
000038CA  422C FDE1                clr.b      [A4 - 0x21F]
000038CE  42A7                     clr.l      -[A7]
000038D0  486C FFFA                pea.l      [A4 - 0x6]
000038D4  A991                     syscall    ModalDialog
000038D6  7001                     moveq.l    D0, 0x01
000038D8  B06C FFFA                cmp.w      D0, [A4 - 0x6]
000038DC  6600 009A                bne        +0x9C /* 00003978 */
000038E0  2F2C FFFC                move.l     -[A7], [A4 - 0x4]
000038E4  3F3C 0004                move.w     -[A7], 0x4
000038E8  486C FFF8                pea.l      [A4 - 0x8]
000038EC  486C FFF4                pea.l      [A4 - 0xC]
000038F0  486C FFEC                pea.l      [A4 - 0x14]
000038F4  A98D                     syscall    GetDialogItem/GetDItem
000038F6  2F2C FFF4                move.l     -[A7], [A4 - 0xC]
000038FA  486C FDEC                pea.l      [A4 - 0x214]
000038FE  A990                     syscall    GetDialogItemText/GetIText
00003900  2F2C FFFC                move.l     -[A7], [A4 - 0x4]
00003904  3F3C 0005                move.w     -[A7], 0x5
00003908  486C FFF8                pea.l      [A4 - 0x8]
0000390C  486C FFF4                pea.l      [A4 - 0xC]
00003910  486C FFEC                pea.l      [A4 - 0x14]
00003914  A98D                     syscall    GetDialogItem/GetDItem
00003916  2F2C FFF4                move.l     -[A7], [A4 - 0xC]
0000391A  486C FEEC                pea.l      [A4 - 0x114]
0000391E  A990                     syscall    GetDialogItemText/GetIText
00003920  4267                     clr.w      -[A7]
00003922  486C FDEC                pea.l      [A4 - 0x214]
00003926  486C FEEC                pea.l      [A4 - 0x114]
0000392A  4EAD 1AC2                jsr        [A5 + 0x1AC2 /* export_852, CODE:16 @ 00001B82 */]
0000392E  101F                     move.b     D0, [A7]+
00003930  672C                     beq        +0x2E /* 0000395E */
00003932  486C FDEC                pea.l      [A4 - 0x214]
00003936  4EAD 1A52                jsr        [A5 + 0x1A52 /* export_838, CODE:16 @ 0000157C */]
0000393A  42A7                     clr.l      -[A7]
0000393C  41EC FDEC                lea.l      A0, [A4 - 0x214]
00003940  2008                     move.l     D0, A0
00003942  5280                     addq.l     D0, 1
00003944  2F00                     move.l     -[A7], D0
00003946  4240                     clr.w      D0
00003948  102C FDEC                move.b     D0, [A4 - 0x214]
0000394C  3F00                     move.w     -[A7], D0
0000394E  4EAD 1972                jsr        [A5 + 0x1972 /* export_810, CODE:16 @ 00000DF0 */]
00003952  295F FDE2                move.l     [A4 - 0x21E], [A7]+
00003956  197C 0001 FDE1           move.b     [A4 - 0x21F], 0x1
0000395C  601A                     bra        +0x1C /* 00003978 */
label0000395E:
0000395E  1B7C 0001 FD8C           move.b     [A5 - 0x274], 0x1
00003964  3F3C 000B                move.w     -[A7], 0xB
00003968  4EAD 187A                jsr        [A5 + 0x187A /* export_779, CODE:16 @ 00000500 */]
0000396C  422D FD8C                clr.b      [A5 - 0x274]
00003970  2F2C FFFC                move.l     -[A7], [A4 - 0x4]
00003974  4EAD 186A                jsr        [A5 + 0x186A /* export_777, CODE:16 @ 00000490 */]
label00003978:
00003978  7007                     moveq.l    D0, 0x07
0000397A  B06C FFFA                cmp.w      D0, [A4 - 0x6]
0000397E  664C                     bne        +0x4E /* 000039CC */
00003980  2F2C FFFC                move.l     -[A7], [A4 - 0x4]
00003984  3F3C 0004                move.w     -[A7], 0x4
00003988  486C FFF8                pea.l      [A4 - 0x8]
0000398C  486C FFF4                pea.l      [A4 - 0xC]
00003990  486C FFEC                pea.l      [A4 - 0x14]
00003994  A98D                     syscall    GetDialogItem/GetDItem
00003996  2F2C FFF4                move.l     -[A7], [A4 - 0xC]
0000399A  487A 0076                pea.l      [PC + 0x76 /* 00003A12, value 0x4E56 'NV', cstring "" */]
0000399E  A98F                     syscall    SetDialogItemText/SetIText
000039A0  2F2C FFFC                move.l     -[A7], [A4 - 0x4]
000039A4  3F3C 0005                move.w     -[A7], 0x5
000039A8  486C FFF8                pea.l      [A4 - 0x8]
000039AC  486C FFF4                pea.l      [A4 - 0xC]
000039B0  486C FFEC                pea.l      [A4 - 0x14]
000039B4  A98D                     syscall    GetDialogItem/GetDItem
000039B6  2F2C FFF4                move.l     -[A7], [A4 - 0xC]
000039BA  487A 0056                pea.l      [PC + 0x56 /* 00003A12, value 0x4E56 'NV', cstring "" */]
000039BE  A98F                     syscall    SetDialogItemText/SetIText
000039C0  7000                     moveq.l    D0, 0x00
000039C2  2940 FDE2                move.l     [A4 - 0x21E], D0
000039C6  197C 0001 FDE1           move.b     [A4 - 0x21F], 0x1
label000039CC:
000039CC  7002                     moveq.l    D0, 0x02
000039CE  B06C FFFA                cmp.w      D0, [A4 - 0x6]
000039D2  57C0                     seq        D0
000039D4  802C FDE1                or.b       D0, [A4 - 0x21F]
000039D8  0240 0001                andi.w     D0, 0x1
000039DC  6700 FEEC                beq        -0x112 /* 000038CA */
000039E0  2F2C FFFC                move.l     -[A7], [A4 - 0x4]
000039E4  4EAD 201A                jsr        [A5 + 0x201A /* export_1023, CODE:20 @ 000002FA */]
000039E8  4EAD 22A2                jsr        [A5 + 0x22A2 /* export_1104, CODE:20 @ 00005D82 */]
000039EC  102C FDE1                move.b     D0, [A4 - 0x21F]
000039F0  6718                     beq        +0x1A /* 00003A0A */
000039F2  2B6C FDE2 F632           move.l     [A5 - 0x9CE], [A4 - 0x21E]
000039F8  42A7                     clr.l      -[A7]
000039FA  486C FDE2                pea.l      [A4 - 0x21E]
000039FE  3F3C 0004                move.w     -[A7], 0x4
00003A02  4EAD 1972                jsr        [A5 + 0x1972 /* export_810, CODE:16 @ 00000DF0 */]
00003A06  2B5F F680                move.l     [A5 - 0x980], [A7]+
label00003A0A:
00003A0A  285F                     movea.l    A4, [A7]+
00003A0C  4E5E                     unlink     A6
00003A0E  2E9F                     move.l     [A7], [A7]+
00003A10  4E75                     rts
00003A12  0000 4E56                ori.b      D0, 0x56 /* 'V' */
// begin alternate branch 00003A14-00003A18
export_276:
00003A14  4E56 F7DE                link       A6, -0x0822
// end alternate branch 00003A14-00003A18
export_276: // at 00003A14 (misaligned)
00003A16  F7DE                     .invalid   <<F/7/3>>
00003A18  48E7 0F00                movem.l    -[A7], D4,D5,D6,D7
00003A1C  4EAD 1862                jsr        [A5 + 0x1862 /* export_776, CODE:16 @ 00000474 */]
00003A20  41EE F7E0                lea.l      A0, [A6 - 0x820]
00003A24  43ED F63C                lea.l      A1, [A5 - 0x9C4]
00003A28  303C 017F                move.w     D0, 0x17F
label00003A2C:
00003A2C  20D9                     move.l     [A0]+, [A1]+
00003A2E  51C8 FFFC                dbf        D0, -0x6 /* 00003A2C */
00003A32  4AAD F680                tst.l      [A5 - 0x980]
00003A36  6700 0098                beq        +0x9A /* 00003AD0 */
00003A3A  42A7                     clr.l      -[A7]
00003A3C  3F3C 0836                move.w     -[A7], 0x836
00003A40  42A7                     clr.l      -[A7]
00003A42  70FF                     moveq.l    D0, 0xFFFFFFFF
00003A44  2F00                     move.l     -[A7], D0
00003A46  A97C                     syscall    GetNewDialog
00003A48  2D5F FFFC                move.l     [A6 - 0x4], [A7]+
00003A4C  2F2E FFFC                move.l     -[A7], [A6 - 0x4]
00003A50  4EAD 182A                jsr        [A5 + 0x182A /* export_769, CODE:16 @ 000002AC */]
00003A54  2F2E FFFC                move.l     -[A7], [A6 - 0x4]
00003A58  A915                     syscall    ShowWindow
label00003A5A:
00003A5A  42A7                     clr.l      -[A7]
00003A5C  486E FFFA                pea.l      [A6 - 0x6]
00003A60  A991                     syscall    ModalDialog
00003A62  7001                     moveq.l    D0, 0x01
00003A64  B06E FFFA                cmp.w      D0, [A6 - 0x6]
00003A68  66F0                     bne        -0xE /* 00003A5A */
00003A6A  2F2E FFFC                move.l     -[A7], [A6 - 0x4]
00003A6E  3F3C 0003                move.w     -[A7], 0x3
00003A72  486E FFF8                pea.l      [A6 - 0x8]
00003A76  486E FFF4                pea.l      [A6 - 0xC]
00003A7A  486E FFEC                pea.l      [A6 - 0x14]
00003A7E  A98D                     syscall    GetDialogItem/GetDItem
00003A80  2F2E FFF4                move.l     -[A7], [A6 - 0xC]
00003A84  486E FDEC                pea.l      [A6 - 0x214]
00003A88  A990                     syscall    GetDialogItemText/GetIText
00003A8A  486E FDEC                pea.l      [A6 - 0x214]
00003A8E  4EAD 1A52                jsr        [A5 + 0x1A52 /* export_838, CODE:16 @ 0000157C */]
00003A92  42A7                     clr.l      -[A7]
00003A94  41EE FDEC                lea.l      A0, [A6 - 0x214]
00003A98  2008                     move.l     D0, A0
00003A9A  5280                     addq.l     D0, 1
00003A9C  2F00                     move.l     -[A7], D0
00003A9E  4240                     clr.w      D0
00003AA0  102E FDEC                move.b     D0, [A6 - 0x214]
00003AA4  3F00                     move.w     -[A7], D0
00003AA6  4EAD 1972                jsr        [A5 + 0x1972 /* export_810, CODE:16 @ 00000DF0 */]
00003AAA  2D5F FDE2                move.l     [A6 - 0x21E], [A7]+
00003AAE  2F2E FFFC                move.l     -[A7], [A6 - 0x4]
00003AB2  4EAD 201A                jsr        [A5 + 0x201A /* export_1023, CODE:20 @ 000002FA */]
00003AB6  42A7                     clr.l      -[A7]
00003AB8  486E FDE2                pea.l      [A6 - 0x21E]
00003ABC  3F3C 0004                move.w     -[A7], 0x4
00003AC0  4EAD 1972                jsr        [A5 + 0x1972 /* export_810, CODE:16 @ 00000DF0 */]
00003AC4  201F                     move.l     D0, [A7]+
00003AC6  B0AD F680                cmp.l      D0, [A5 - 0x980]
00003ACA  6704                     beq        +0x6 /* 00003AD0 */
00003ACC  6000 01F2                bra        +0x1F4 /* 00003CC0 */
label00003AD0:
00003AD0  42A7                     clr.l      -[A7]
00003AD2  3F3C 07D7                move.w     -[A7], 0x7D7
00003AD6  42A7                     clr.l      -[A7]
00003AD8  70FF                     moveq.l    D0, 0xFFFFFFFF
00003ADA  2F00                     move.l     -[A7], D0
00003ADC  A97C                     syscall    GetNewDialog
00003ADE  2D5F FFFC                move.l     [A6 - 0x4], [A7]+
00003AE2  2F2E FFFC                move.l     -[A7], [A6 - 0x4]
00003AE6  4EAD 182A                jsr        [A5 + 0x182A /* export_769, CODE:16 @ 000002AC */]
00003AEA  1E2D F4CD                move.b     D7, [A5 - 0xB33]
00003AEE  082D 0006 F688           btst.b     [A5 - 0x978], 0x6
00003AF4  56C5                     sne        D5
00003AF6  4405                     neg.b      D5
00003AF8  082D 0005 F688           btst.b     [A5 - 0x978], 0x5
00003AFE  56C6                     sne        D6
00003B00  4406                     neg.b      D6
00003B02  3F3C 0003                move.w     -[A7], 0x3
00003B06  1F07                     move.b     -[A7], D7
00003B08  2F0E                     move.l     -[A7], A6
00003B0A  4EBA FD12                jsr        [PC - 0x2EE /* 0000381E */]
00003B0E  3F3C 000D                move.w     -[A7], 0xD /* '\r' */
00003B12  2005                     move.l     D0, D5
00003B14  8007                     or.b       D0, D7
00003B16  1F00                     move.b     -[A7], D0
00003B18  2F0E                     move.l     -[A7], A6
00003B1A  4EBA FD02                jsr        [PC - 0x2FE /* 0000381E */]
00003B1E  3F3C 0004                move.w     -[A7], 0x4
00003B22  1F06                     move.b     -[A7], D6
00003B24  2F0E                     move.l     -[A7], A6
00003B26  4EBA FCF6                jsr        [PC - 0x30A /* 0000381E */]
00003B2A  3F2D F684                move.w     -[A7], [A5 - 0x97C]
00003B2E  2F0E                     move.l     -[A7], A6
00003B30  4EBA FD24                jsr        [PC - 0x2DC /* 00003856 */]
00003B34  2F2E FFFC                move.l     -[A7], [A6 - 0x4]
00003B38  A915                     syscall    ShowWindow
00003B3A  2F2E FFFC                move.l     -[A7], [A6 - 0x4]
00003B3E  4EAD 186A                jsr        [A5 + 0x186A /* export_777, CODE:16 @ 00000490 */]
label00003B42:
00003B42  42A7                     clr.l      -[A7]
00003B44  486E FFFA                pea.l      [A6 - 0x6]
00003B48  A991                     syscall    ModalDialog
00003B4A  102D F4CE                move.b     D0, [A5 - 0xB32]
00003B4E  6600 0088                bne        +0x8A /* 00003BD8 */
00003B52  302E FFFA                move.w     D0, [A6 - 0x6]
00003B56  5740                     subq.w     D0, 3
00003B58  6B7E                     bmi        +0x80 /* 00003BD8 */
00003B5A  0C40 000A                cmpi.w     D0, 0xA /* '\n' */
00003B5E  6E78                     bgt        +0x7A /* 00003BD8 */
00003B60  D040                     add.w      D0, D0
00003B62  303B 0006                move.w     D0, [PC + D0.w + 0x6]
00003B66  4EFB 0000                jmp        [PC + D0.w]
00003B6A  0028 0060 0070           ori.b      [A0 + 0x70], 0x60 /* '`' */
00003B70  0070 0018 0018           ori.w      [A0 + D0.w + 0x18], 0x18
00003B76  0018 0018                ori.b      [A0]+, 0x18
00003B7A  0018 0070                ori.b      [A0]+, 0x70 /* 'p' */
00003B7E  004A 302E                ori.w      A2, 0x302E /* '0.' */
00003B82  FFFA                     .invalid   <<F/7/7>>
00003B84  5D40                     subq.w     D0, 6
00003B86  3F00                     move.w     -[A7], D0
00003B88  2F0E                     move.l     -[A7], A6
00003B8A  4EBA FCCA                jsr        [PC - 0x336 /* 00003856 */]
00003B8E  6048                     bra        +0x4A /* 00003BD8 */
00003B90  0A07 0001                xori.b     D7, 0x1
00003B94  3F3C 0003                move.w     -[A7], 0x3
00003B98  1F07                     move.b     -[A7], D7
00003B9A  2F0E                     move.l     -[A7], A6
00003B9C  4EBA FC80                jsr        [PC - 0x380 /* 0000381E */]
00003BA0  3F3C 000D                move.w     -[A7], 0xD /* '\r' */
00003BA4  2005                     move.l     D0, D5
00003BA6  8007                     or.b       D0, D7
00003BA8  1F00                     move.b     -[A7], D0
00003BAA  2F0E                     move.l     -[A7], A6
00003BAC  4EBA FC70                jsr        [PC - 0x390 /* 0000381E */]
00003BB0  6026                     bra        +0x28 /* 00003BD8 */
00003BB2  1007                     move.b     D0, D7
00003BB4  6610                     bne        +0x12 /* 00003BC6 */
00003BB6  0A05 0001                xori.b     D5, 0x1
00003BBA  3F3C 000D                move.w     -[A7], 0xD /* '\r' */
00003BBE  1F05                     move.b     -[A7], D5
00003BC0  2F0E                     move.l     -[A7], A6
00003BC2  4EBA FC5A                jsr        [PC - 0x3A6 /* 0000381E */]
label00003BC6:
00003BC6  6010                     bra        +0x12 /* 00003BD8 */
00003BC8  0A06 0001                xori.b     D6, 0x1
00003BCC  3F3C 0004                move.w     -[A7], 0x4
00003BD0  1F06                     move.b     -[A7], D6
00003BD2  2F0E                     move.l     -[A7], A6
00003BD4  4EBA FC48                jsr        [PC - 0x3B8 /* 0000381E */]
label00003BD8:
00003BD8  7001                     moveq.l    D0, 0x01
00003BDA  B06E FFFA                cmp.w      D0, [A6 - 0x6]
00003BDE  57C0                     seq        D0
00003BE0  7202                     moveq.l    D1, 0x02
00003BE2  B26E FFFA                cmp.w      D1, [A6 - 0x6]
00003BE6  57C1                     seq        D1
00003BE8  8001                     or.b       D0, D1
00003BEA  720C                     moveq.l    D1, 0x0C
00003BEC  B26E FFFA                cmp.w      D1, [A6 - 0x6]
00003BF0  57C1                     seq        D1
00003BF2  142D F4CE                move.b     D2, [A5 - 0xB32]
00003BF6  0A02 0001                xori.b     D2, 0x1
00003BFA  C202                     and.b      D1, D2
00003BFC  8001                     or.b       D0, D1
00003BFE  0240 0001                andi.w     D0, 0x1
00003C02  6700 FF3E                beq        -0xC0 /* 00003B42 */
00003C06  2F2E FFFC                move.l     -[A7], [A6 - 0x4]
00003C0A  4EAD 201A                jsr        [A5 + 0x201A /* export_1023, CODE:20 @ 000002FA */]
00003C0E  4EAD 22A2                jsr        [A5 + 0x22A2 /* export_1104, CODE:20 @ 00005D82 */]
00003C12  7002                     moveq.l    D0, 0x02
00003C14  B06E FFFA                cmp.w      D0, [A6 - 0x6]
00003C18  57C0                     seq        D0
00003C1A  802D F4CE                or.b       D0, [A5 - 0xB32]
00003C1E  0240 0001                andi.w     D0, 0x1
00003C22  6704                     beq        +0x6 /* 00003C28 */
00003C24  6000 009A                bra        +0x9C /* 00003CC0 */
label00003C28:
00003C28  700C                     moveq.l    D0, 0x0C
00003C2A  B06E FFFA                cmp.w      D0, [A6 - 0x6]
00003C2E  57C0                     seq        D0
00003C30  4AAD F680                tst.l      [A5 - 0x980]
00003C34  57C1                     seq        D1
00003C36  2406                     move.l     D2, D6
00003C38  C401                     and.b      D2, D1
00003C3A  8002                     or.b       D0, D2
00003C3C  0240 0001                andi.w     D0, 0x1
00003C40  6706                     beq        +0x8 /* 00003C48 */
00003C42  2F0E                     move.l     -[A7], A6
00003C44  4EBA FC52                jsr        [PC - 0x3AE /* 00003898 */]
label00003C48:
00003C48  4AAD F680                tst.l      [A5 - 0x980]
00003C4C  6602                     bne        +0x4 /* 00003C50 */
00003C4E  4206                     clr.b      D6
label00003C50:
00003C50  1007                     move.b     D0, D7
00003C52  6708                     beq        +0xA /* 00003C5C */
00003C54  08ED 0007 F688           bset.b     [A5 - 0x978], 0x7
00003C5A  6006                     bra        +0x8 /* 00003C62 */
label00003C5C:
00003C5C  08AD 0007 F688           bclr.b     [A5 - 0x978], 0x7
label00003C62:
00003C62  1005                     move.b     D0, D5
00003C64  6708                     beq        +0xA /* 00003C6E */
00003C66  08ED 0006 F688           bset.b     [A5 - 0x978], 0x6
00003C6C  6006                     bra        +0x8 /* 00003C74 */
label00003C6E:
00003C6E  08AD 0006 F688           bclr.b     [A5 - 0x978], 0x6
label00003C74:
00003C74  1006                     move.b     D0, D6
00003C76  6708                     beq        +0xA /* 00003C80 */
00003C78  08ED 0005 F688           bset.b     [A5 - 0x978], 0x5
00003C7E  6006                     bra        +0x8 /* 00003C86 */
label00003C80:
00003C80  08AD 0005 F688           bclr.b     [A5 - 0x978], 0x5
label00003C86:
00003C86  3B6E FDE6 F684           move.w     [A5 - 0x97C], [A6 - 0x21A]
00003C8C  4267                     clr.w      -[A7]
00003C8E  486D F63C                pea.l      [A5 - 0x9C4]
00003C92  486E F7E0                pea.l      [A6 - 0x820]
00003C96  3F3C 0600                move.w     -[A7], 0x600
00003C9A  4EAD 19FA                jsr        [A5 + 0x19FA /* export_827, CODE:16 @ 00001412 */]
00003C9E  181F                     move.b     D4, [A7]+
00003CA0  0A04 0001                xori.b     D4, 0x1
00003CA4  2B6E FDE2 F648           move.l     [A5 - 0x9B8], [A6 - 0x21E]
00003CAA  1004                     move.b     D0, D4
00003CAC  6704                     beq        +0x6 /* 00003CB2 */
00003CAE  4EAD 1FFA                jsr        [A5 + 0x1FFA /* export_1019, CODE:19 @ 000024DE */]
label00003CB2:
00003CB2  1F07                     move.b     -[A7], D7
00003CB4  4EAD 21C2                jsr        [A5 + 0x21C2 /* export_1076, CODE:20 @ 00004486 */]
00003CB8  3F2D F02A                move.w     -[A7], [A5 - 0xFD6]
00003CBC  4EAD 2212                jsr        [A5 + 0x2212 /* export_1086, CODE:20 @ 00004A9E */]
label00003CC0:
00003CC0  4CDF 00F0                movem.l    D4,D5,D6,D7, [A7]+
00003CC4  4E5E                     unlink     A6
00003CC6  4E75                     rts
fn00003CC8:
00003CC8  4E56 0000                link       A6, 0
00003CCC  4A6D E276                tst.w      [A5 - 0x1D8A]
00003CD0  57C0                     seq        D0
00003CD2  802D F4CD                or.b       D0, [A5 - 0xB33]
00003CD6  0240 0001                andi.w     D0, 0x1
00003CDA  6706                     beq        +0x8 /* 00003CE2 */
00003CDC  4EAD 1812                jsr        [A5 + 0x1812 /* export_766, CODE:16 @ 00000208 */]
00003CE0  6054                     bra        +0x56 /* 00003D36 */
label00003CE2:
00003CE2  41ED FFA8                lea.l      A0, [A5 - 0x58]
00003CE6  43ED E274                lea.l      A1, [A5 - 0x1D8C]
00003CEA  7006                     moveq.l    D0, 0x06
label00003CEC:
00003CEC  20D9                     move.l     [A0]+, [A1]+
00003CEE  51C8 FFFC                dbf        D0, -0x6 /* 00003CEC */
00003CF2  3091                     move.w     [A0], [A1]
00003CF4  2B6D E270 FFA4           move.l     [A5 - 0x5C], [A5 - 0x1D90]
00003CFA  2B6D F62A FFA0           move.l     [A5 - 0x60], [A5 - 0x9D6]
00003D00  2B6D F4E0 FF9C           move.l     [A5 - 0x64], [A5 - 0xB20]
00003D06  42A7                     clr.l      -[A7]
00003D08  3F3C 2B1F                move.w     -[A7], 0x2B1F
00003D0C  42A7                     clr.l      -[A7]
00003D0E  70FF                     moveq.l    D0, 0xFFFFFFFF
00003D10  2F00                     move.l     -[A7], D0
00003D12  A97C                     syscall    GetNewDialog
00003D14  2B5F FF98                move.l     [A5 - 0x68], [A7]+
00003D18  206D FF98                movea.l    A0, [A5 - 0x68]
00003D1C  216D ED92 007E           move.l     [A0 + 0x7E], [A5 - 0x126E]
00003D22  2F2D FF98                move.l     -[A7], [A5 - 0x68]
00003D26  A915                     syscall    ShowWindow
00003D28  2F2D FF98                move.l     -[A7], [A5 - 0x68]
00003D2C  A981                     syscall    DrawDialog
00003D2E  3F3C 0001                move.w     -[A7], 0x1
00003D32  4EAD 15F2                jsr        [A5 + 0x15F2 /* export_698, CODE:15 @ 00000E4A */]
label00003D36:
00003D36  4E5E                     unlink     A6
00003D38  4E75                     rts
fn00003D3A:
00003D3A  4E56 0000                link       A6, 0
00003D3E  2F0C                     move.l     -[A7], A4
00003D40  286E 0008                movea.l    A4, [A6 + 0x8]
00003D44  102D F005                move.b     D0, [A5 - 0xFFB]
00003D48  6732                     beq        +0x34 /* 00003D7C */
00003D4A  536C FFD8                subq.w     [A4 - 0x28], 1
00003D4E  7001                     moveq.l    D0, 0x01
00003D50  B06C FFD8                cmp.w      D0, [A4 - 0x28]
00003D54  6F24                     ble        +0x26 /* 00003D7A */
00003D56  202C FFD4                move.l     D0, [A4 - 0x2C]
00003D5A  B0AD F622                cmp.l      D0, [A5 - 0x9DE]
00003D5E  660E                     bne        +0x10 /* 00003D6E */
00003D60  296D F62A FFD4           move.l     [A4 - 0x2C], [A5 - 0x9D6]
00003D66  396C FFDE FFD8           move.w     [A4 - 0x28], [A4 - 0x22]
00003D6C  604A                     bra        +0x4C /* 00003DB8 */
label00003D6E:
00003D6E  296D F622 FFD4           move.l     [A4 - 0x2C], [A5 - 0x9DE]
00003D74  396C FFDC FFD8           move.w     [A4 - 0x28], [A4 - 0x24]
label00003D7A:
00003D7A  603C                     bra        +0x3E /* 00003DB8 */
label00003D7C:
00003D7C  526C FFD8                addq.w     [A4 - 0x28], 1
00003D80  202C FFD4                move.l     D0, [A4 - 0x2C]
00003D84  B0AD F622                cmp.l      D0, [A5 - 0x9DE]
00003D88  6618                     bne        +0x1A /* 00003DA2 */
00003D8A  302C FFD8                move.w     D0, [A4 - 0x28]
00003D8E  B06C FFDC                cmp.w      D0, [A4 - 0x24]
00003D92  6F0C                     ble        +0xE /* 00003DA0 */
00003D94  296D F62A FFD4           move.l     [A4 - 0x2C], [A5 - 0x9D6]
00003D9A  397C 0001 FFD8           move.w     [A4 - 0x28], 0x1
label00003DA0:
00003DA0  6016                     bra        +0x18 /* 00003DB8 */
label00003DA2:
00003DA2  302C FFD8                move.w     D0, [A4 - 0x28]
00003DA6  B06C FFDE                cmp.w      D0, [A4 - 0x22]
00003DAA  6F0C                     ble        +0xE /* 00003DB8 */
00003DAC  296D F622 FFD4           move.l     [A4 - 0x2C], [A5 - 0x9DE]
00003DB2  397C 0001 FFD8           move.w     [A4 - 0x28], 0x1
label00003DB8:
00003DB8  285F                     movea.l    A4, [A7]+
00003DBA  4E5E                     unlink     A6
00003DBC  2E9F                     move.l     [A7], [A7]+
00003DBE  4E75                     rts
export_277:
00003DC0  4E56 FFD2                link       A6, -0x002E
00003DC4  48E7 0300                movem.l    -[A7], D6,D7
00003DC8  4EAD 160A                jsr        [A5 + 0x160A /* export_701, CODE:15 @ 00001282 */]
00003DCC  7001                     moveq.l    D0, 0x01
00003DCE  B06D F02C                cmp.w      D0, [A5 - 0xFD4]
00003DD2  57C0                     seq        D0
00003DD4  802D EFDF                or.b       D0, [A5 - 0x1021]
00003DD8  0240 0001                andi.w     D0, 0x1
00003DDC  6704                     beq        +0x6 /* 00003DE2 */
00003DDE  6000 0138                bra        +0x13A /* 00003F18 */
label00003DE2:
00003DE2  7001                     moveq.l    D0, 0x01
00003DE4  B06D EFDC                cmp.w      D0, [A5 - 0x1024]
00003DE8  6708                     beq        +0xA /* 00003DF2 */
00003DEA  3F3C 0001                move.w     -[A7], 0x1
00003DEE  4EAD 15F2                jsr        [A5 + 0x15F2 /* export_698, CODE:15 @ 00000E4A */]
label00003DF2:
00003DF2  4267                     clr.w      -[A7]
00003DF4  2F2D F622                move.l     -[A7], [A5 - 0x9DE]
00003DF8  3F3C 0002                move.w     -[A7], 0x2
00003DFC  4EAD 1D32                jsr        [A5 + 0x1D32 /* export_930, CODE:18 @ 0000012E */]
00003E00  3D5F FFDC                move.w     [A6 - 0x24], [A7]+
00003E04  4267                     clr.w      -[A7]
00003E06  2F2D F62A                move.l     -[A7], [A5 - 0x9D6]
00003E0A  3F3C 0002                move.w     -[A7], 0x2
00003E0E  4EAD 1D32                jsr        [A5 + 0x1D32 /* export_930, CODE:18 @ 0000012E */]
00003E12  3D5F FFDE                move.w     [A6 - 0x22], [A7]+
00003E16  102D E245                move.b     D0, [A5 - 0x1DBB]
00003E1A  671A                     beq        +0x1C /* 00003E36 */
00003E1C  2D6D E24E FFD4           move.l     [A6 - 0x2C], [A5 - 0x1DB2]
00003E22  4267                     clr.w      -[A7]
00003E24  2F2E FFD4                move.l     -[A7], [A6 - 0x2C]
00003E28  3F2D E254                move.w     -[A7], [A5 - 0x1DAC]
00003E2C  4EAD 1DCA                jsr        [A5 + 0x1DCA /* export_949, CODE:18 @ 00000E6C */]
00003E30  3D5F FFD8                move.w     [A6 - 0x28], [A7]+
00003E34  600A                     bra        +0xC /* 00003E40 */
label00003E36:
00003E36  2D6D F622 FFD4           move.l     [A6 - 0x2C], [A5 - 0x9DE]
00003E3C  426E FFD8                clr.w      [A6 - 0x28]
label00003E40:
00003E40  302E FFDE                move.w     D0, [A6 - 0x22]
00003E44  D06E FFDC                add.w      D0, [A6 - 0x24]
00003E48  5240                     addq.w     D0, 1
00003E4A  3D40 FFD2                move.w     [A6 - 0x2E], D0
00003E4E  7C01                     moveq.l    D6, 0x01
00003E50  6000 00BE                bra        +0xC0 /* 00003F10 */
label00003E54:
00003E54  2F0E                     move.l     -[A7], A6
00003E56  4EBA FEE2                jsr        [PC - 0x11E /* 00003D3A */]
00003E5A  4267                     clr.w      -[A7]
00003E5C  2F2E FFD4                move.l     -[A7], [A6 - 0x2C]
00003E60  3F2E FFD8                move.w     -[A7], [A6 - 0x28]
00003E64  3F3C 0002                move.w     -[A7], 0x2
00003E68  4EAD 1DBA                jsr        [A5 + 0x1DBA /* export_947, CODE:18 @ 00000D64 */]
00003E6C  3E1F                     move.w     D7, [A7]+
00003E6E  4267                     clr.w      -[A7]
00003E70  2F2E FFD4                move.l     -[A7], [A6 - 0x2C]
00003E74  3F07                     move.w     -[A7], D7
00003E76  486E FFE2                pea.l      [A6 - 0x1E]
00003E7A  4EAD 1DB2                jsr        [A5 + 0x1DB2 /* export_946, CODE:18 @ 00000D08 */]
00003E7E  4A2E FFE7                tst.b      [A6 - 0x19]
00003E82  5CC0                     sge        D0
00003E84  C01F                     and.b      D0, [A7]+
00003E86  122E FFE7                move.b     D1, [A6 - 0x19]
00003E8A  0241 0001                andi.w     D1, 0x1
00003E8E  0A01 0001                xori.b     D1, 0x1
00003E92  C001                     and.b      D0, D1
00003E94  6776                     beq        +0x78 /* 00003F0C */
00003E96  1F3C 0001                move.b     -[A7], 0x1
00003E9A  4EAD 1602                jsr        [A5 + 0x1602 /* export_700, CODE:15 @ 0000114C */]
00003E9E  102D E245                move.b     D0, [A5 - 0x1DBB]
00003EA2  6702                     beq        +0x4 /* 00003EA6 */
00003EA4  6072                     bra        +0x74 /* 00003F18 */
label00003EA6:
00003EA6  2F2E FFD4                move.l     -[A7], [A6 - 0x2C]
00003EAA  3F07                     move.w     -[A7], D7
00003EAC  1F3C 0001                move.b     -[A7], 0x1
00003EB0  4EAD 212A                jsr        [A5 + 0x212A /* export_1057, CODE:20 @ 00001A5A */]
00003EB4  2F2E FFD4                move.l     -[A7], [A6 - 0x2C]
00003EB8  3F07                     move.w     -[A7], D7
00003EBA  4EAD 1682                jsr        [A5 + 0x1682 /* export_716, CODE:15 @ 00003082 */]
00003EBE  2F2E FFD4                move.l     -[A7], [A6 - 0x2C]
00003EC2  3F07                     move.w     -[A7], D7
00003EC4  4EAD 169A                jsr        [A5 + 0x169A /* export_719, CODE:15 @ 0000371E */]
00003EC8  2F2E FFD4                move.l     -[A7], [A6 - 0x2C]
00003ECC  3F07                     move.w     -[A7], D7
00003ECE  4EAD 16A2                jsr        [A5 + 0x16A2 /* export_720, CODE:15 @ 00003A22 */]
00003ED2  1B7C 0001 E244           move.b     [A5 - 0x1DBC], 0x1
00003ED8  42A7                     clr.l      -[A7]
00003EDA  2F3C 0000 7FFF           move.l     -[A7], 0x7FFF
00003EE0  2F2D E246                move.l     -[A7], [A5 - 0x1DBA]
00003EE4  A9D1                     syscall    TESetSelect
00003EE6  4EAD 22CA                jsr        [A5 + 0x22CA /* export_1109, CODE:20 @ 000060CC */]
00003EEA  41ED E0E8                lea.l      A0, [A5 - 0x1F18]
00003EEE  43FA 0030                lea.l      A1, [PC + 0x30 /* 00003F20, value 0x96F7065 '\tope', pstring "openField" */]
00003EF2  20D9                     move.l     [A0]+, [A1]+
00003EF4  20D9                     move.l     [A0]+, [A1]+
00003EF6  3091                     move.w     [A0], [A1]
00003EF8  2F2E FFD4                move.l     -[A7], [A6 - 0x2C]
00003EFC  3F07                     move.w     -[A7], D7
00003EFE  2F2D F62A                move.l     -[A7], [A5 - 0x9D6]
00003F02  2F2D F622                move.l     -[A7], [A5 - 0x9DE]
00003F06  4EAD 0B9A                jsr        [A5 + 0xB9A /* export_367, CODE:8 @ 00004010 */]
00003F0A  600C                     bra        +0xE /* 00003F18 */
label00003F0C:
00003F0C  5246                     addq.w     D6, 1
00003F0E  6908                     bvs        +0xA /* 00003F18 */
label00003F10:
00003F10  BC6E FFD2                cmp.w      D6, [A6 - 0x2E]
00003F14  6F00 FF3E                ble        -0xC0 /* 00003E54 */
label00003F18:
00003F18  4CDF 00C0                movem.l    D6,D7, [A7]+
00003F1C  4E5E                     unlink     A6
00003F1E  4E75                     rts
00003F20  096F 7065                bchg       [A7 + 0x7065], D4
00003F24  6E46                     bgt        +0x48 /* 00003F6C */
00003F26  6965                     bvs        +0x67 /* 00003F8D */
00003F28  6C64                     bge        +0x66 /* 00003F8E */
