# near model CODE resource
# jump table entries: 2088-2089 (2 of them)
fn00000000:
00000000  4E56 FF00                link       A6, -0x0100
00000004  206E 000C                movea.l    A0, [A6 + 0xC]
00000008  43EE FF00                lea.l      A1, [A6 - 0x100]
0000000C  703F                     moveq.l    D0, 0x3F
label0000000E:
0000000E  22D8                     move.l     [A1]+, [A0]+
00000010  51C8 FFFC                dbf        D0, -0x6 /* 0000000E */
00000014  206E 0008                movea.l    A0, [A6 + 0x8]
00000018  1028 FE2B                move.b     D0, [A0 - 0x1D5]
0000001C  6706                     beq        +0x8 /* 00000024 */
0000001E  486E FF00                pea.l      [A6 - 0x100]
00000022  A884                     syscall    DrawString
label00000024:
00000024  206E 0008                movea.l    A0, [A6 + 0x8]
00000028  117C 0001 FE21           move.b     [A0 - 0x1DF], 0x1
0000002E  4E5E                     unlink     A6
00000030  205F                     movea.l    A0, [A7]+
00000032  504F                     addq.w     A7, 8
00000034  4ED0                     jmp        [A0]
fn00000036:
00000036  4E56 0000                link       A6, 0
0000003A  2F0C                     move.l     -[A7], A4
0000003C  286E 0008                movea.l    A4, [A6 + 0x8]
00000040  4EAD 181A                jsr        [A5 + 0x181A /* export_767, CODE:16 @ 00000216 */]
00000044  102D D7BF                move.b     D0, [A5 - 0x2841]
00000048  6704                     beq        +0x6 /* 0000004E */
0000004A  4EAD 05DA                jsr        [A5 + 0x5DA /* export_183, CODE:4 @ 00000000 */]
label0000004E:
0000004E  296D F62A FFD4           move.l     [A4 - 0x2C], [A5 - 0x9D6]
00000054  296D F626 FFD0           move.l     [A4 - 0x30], [A5 - 0x9DA]
0000005A  296D F66C FFD8           move.l     [A4 - 0x28], [A5 - 0x994]
00000060  2F2D F66C                move.l     -[A7], [A5 - 0x994]
00000064  7001                     moveq.l    D0, 0x01
00000066  2F00                     move.l     -[A7], D0
00000068  4EAD 0642                jsr        [A5 + 0x642 /* export_196, CODE:4 @ 0000138A */]
0000006C  426C FE26                clr.w      [A4 - 0x1DA]
00000070  285F                     movea.l    A4, [A7]+
00000072  4E5E                     unlink     A6
00000074  2E9F                     move.l     [A7], [A7]+
00000076  4E75                     rts
fn00000078:
00000078  4E56 FFF8                link       A6, -0x0008
0000007C  48E7 0300                movem.l    -[A7], D6,D7
00000080  4EAD 181A                jsr        [A5 + 0x181A /* export_767, CODE:16 @ 00000216 */]
00000084  102D D7BF                move.b     D0, [A5 - 0x2841]
00000088  6704                     beq        +0x6 /* 0000008E */
0000008A  4EAD 05DA                jsr        [A5 + 0x5DA /* export_183, CODE:4 @ 00000000 */]
label0000008E:
0000008E  42A7                     clr.l      -[A7]
00000090  4EAD 1DF2                jsr        [A5 + 0x1DF2 /* export_954, CODE:18 @ 000010BC */]
00000094  2E1F                     move.l     D7, [A7]+
00000096  5287                     addq.l     D7, 1
00000098  BEAD F668                cmp.l      D7, [A5 - 0x998]
0000009C  6F06                     ble        +0x8 /* 000000A4 */
0000009E  422E 000C                clr.b      [A6 + 0xC]
000000A2  6032                     bra        +0x34 /* 000000D6 */
label000000A4:
000000A4  1D7C 0001 000C           move.b     [A6 + 0xC], 0x1
000000AA  42A7                     clr.l      -[A7]
000000AC  2F2D F670                move.l     -[A7], [A5 - 0x990]
000000B0  2F07                     move.l     -[A7], D7
000000B2  4EAD 1E22                jsr        [A5 + 0x1E22 /* export_960, CODE:18 @ 00001CCC */]
000000B6  2C1F                     move.l     D6, [A7]+
000000B8  2F06                     move.l     -[A7], D6
000000BA  2F07                     move.l     -[A7], D7
000000BC  4EAD 0642                jsr        [A5 + 0x642 /* export_196, CODE:4 @ 0000138A */]
000000C0  4267                     clr.w      -[A7]
000000C2  4EAD 0722                jsr        [A5 + 0x722 /* export_224, CODE:4 @ 00002452 */]
000000C6  4A5F                     tst.w      [A7]+
000000C8  6704                     beq        +0x6 /* 000000CE */
000000CA  422E 000C                clr.b      [A6 + 0xC]
label000000CE:
000000CE  206E 0008                movea.l    A0, [A6 + 0x8]
000000D2  4268 FE26                clr.w      [A0 - 0x1DA]
label000000D6:
000000D6  4CDF 00C0                movem.l    D6,D7, [A7]+
000000DA  4E5E                     unlink     A6
000000DC  2E9F                     move.l     [A7], [A7]+
000000DE  4E75                     rts
fn000000E0:
000000E0  4E56 FFCC                link       A6, -0x0034
000000E4  48E7 0F18                movem.l    -[A7], D4,D5,D6,D7,A3,A4
000000E8  206E 0010                movea.l    A0, [A6 + 0x10]
000000EC  43EE FFF8                lea.l      A1, [A6 - 0x8]
000000F0  22D8                     move.l     [A1]+, [A0]+
000000F2  22D8                     move.l     [A1]+, [A0]+
000000F4  206E 000C                movea.l    A0, [A6 + 0xC]
000000F8  43EE FFF0                lea.l      A1, [A6 - 0x10]
000000FC  22D8                     move.l     [A1]+, [A0]+
000000FE  22D8                     move.l     [A1]+, [A0]+
00000100  102D F2B3                move.b     D0, [A5 - 0xD4D]
00000104  6704                     beq        +0x6 /* 0000010A */
00000106  7E00                     moveq.l    D7, 0x00
00000108  6074                     bra        +0x76 /* 0000017E */
label0000010A:
0000010A  42A7                     clr.l      -[A7]
0000010C  202E 0014                move.l     D0, [A6 + 0x14]
00000110  5480                     addq.l     D0, 2
00000112  2F00                     move.l     -[A7], D0
00000114  4EAD 01E2                jsr        [A5 + 0x1E2 /* export_56, CODE:1 @ 00004614 */]
00000118  2E1F                     move.l     D7, [A7]+
0000011A  6762                     beq        +0x64 /* 0000017E */
0000011C  266E 0018                movea.l    A3, [A6 + 0x18]
00000120  2C07                     move.l     D6, D7
00000122  4204                     clr.b      D4
label00000124:
00000124  700D                     moveq.l    D0, 0x0D
00000126  B013                     cmp.b      D0, [A3]
00000128  6608                     bne        +0xA /* 00000132 */
0000012A  528B                     addq.l     A3, 1
0000012C  53AE 0014                subq.l     [A6 + 0x14], 1
00000130  60F2                     bra        -0xC /* 00000124 */
label00000132:
00000132  2D6E 0014 FFCC           move.l     [A6 - 0x34], [A6 + 0x14]
00000138  7001                     moveq.l    D0, 0x01
0000013A  2D40 FFE8                move.l     [A6 - 0x18], D0
0000013E  6030                     bra        +0x32 /* 00000170 */
label00000140:
00000140  2046                     movea.l    A0, D6
00000142  1093                     move.b     [A0], [A3]
00000144  700D                     moveq.l    D0, 0x0D
00000146  B013                     cmp.b      D0, [A3]
00000148  57C0                     seq        D0
0000014A  C004                     and.b      D0, D4
0000014C  6710                     beq        +0x12 /* 0000015E */
0000014E  2006                     move.l     D0, D6
00000150  5380                     subq.l     D0, 1
00000152  2D40 FFE4                move.l     [A6 - 0x1C], D0
00000156  206E FFE4                movea.l    A0, [A6 - 0x1C]
0000015A  10BC 0020                move.b     [A0], 0x20 /* ' ' */
label0000015E:
0000015E  700D                     moveq.l    D0, 0x0D
00000160  B013                     cmp.b      D0, [A3]
00000162  57C4                     seq        D4
00000164  4404                     neg.b      D4
00000166  528B                     addq.l     A3, 1
00000168  5286                     addq.l     D6, 1
0000016A  52AE FFE8                addq.l     [A6 - 0x18], 1
0000016E  690A                     bvs        +0xC /* 0000017A */
label00000170:
00000170  202E FFE8                move.l     D0, [A6 - 0x18]
00000174  B0AE FFCC                cmp.l      D0, [A6 - 0x34]
00000178  6FC6                     ble        -0x38 /* 00000140 */
label0000017A:
0000017A  2046                     movea.l    A0, D6
0000017C  4210                     clr.b      [A0]
label0000017E:
0000017E  302E FFFE                move.w     D0, [A6 - 0x2]
00000182  906E FFFA                sub.w      D0, [A6 - 0x6]
00000186  48C0                     ext.l      D0
00000188  2D40 FFD0                move.l     [A6 - 0x30], D0
0000018C  7048                     moveq.l    D0, 0x48
0000018E  B0AE FFD0                cmp.l      D0, [A6 - 0x30]
00000192  5FC5                     sle        D5
00000194  4405                     neg.b      D5
00000196  1005                     move.b     D0, D5
00000198  6722                     beq        +0x24 /* 000001BC */
0000019A  302E FFFA                move.w     D0, [A6 - 0x6]
0000019E  48C0                     ext.l      D0
000001A0  2F2E FFD0                move.l     -[A7], [A6 - 0x30]
000001A4  7211                     moveq.l    D1, 0x11
000001A6  2F01                     move.l     -[A7], D1
000001A8  4EAD 04EA                jsr        [A5 + 0x4EA /* export_153, CODE:1 @ 000051F0 */]
000001AC  7212                     moveq.l    D1, 0x12
000001AE  2F01                     move.l     -[A7], D1
000001B0  4EAD 04F2                jsr        [A5 + 0x4F2 /* export_154, CODE:1 @ 00005224 */]
000001B4  221F                     move.l     D1, [A7]+
000001B6  D280                     add.l      D1, D0
000001B8  3D41 FFFE                move.w     [A6 - 0x2], D1
label000001BC:
000001BC  206D DBF8                movea.l    A0, [A5 - 0x2408]
000001C0  2850                     movea.l    A4, [A0]
000001C2  41EE FFF8                lea.l      A0, [A6 - 0x8]
000001C6  224C                     movea.l    A1, A4
000001C8  22D8                     move.l     [A1]+, [A0]+
000001CA  22D8                     move.l     [A1]+, [A0]+
000001CC  204C                     movea.l    A0, A4
000001CE  5088                     addq.l     A0, 8
000001D0  43EE FFF0                lea.l      A1, [A6 - 0x10]
000001D4  20D9                     move.l     [A0]+, [A1]+
000001D6  20D9                     move.l     [A0]+, [A1]+
000001D8  4A87                     tst.l      D7
000001DA  6606                     bne        +0x8 /* 000001E2 */
000001DC  266E 0018                movea.l    A3, [A6 + 0x18]
000001E0  6002                     bra        +0x4 /* 000001E4 */
label000001E2:
000001E2  2647                     movea.l    A3, D7
label000001E4:
000001E4  2F0B                     move.l     -[A7], A3
000001E6  2F2D DBF8                move.l     -[A7], [A5 - 0x2408]
000001EA  4EAD 1662                jsr        [A5 + 0x1662 /* export_712, CODE:15 @ 00002D26 */]
000001EE  4A87                     tst.l      D7
000001F0  6706                     beq        +0x8 /* 000001F8 */
000001F2  2F07                     move.l     -[A7], D7
000001F4  4EAD 01EA                jsr        [A5 + 0x1EA /* export_57, CODE:1 @ 00004620 */]
label000001F8:
000001F8  4EAD 181A                jsr        [A5 + 0x181A /* export_767, CODE:16 @ 00000216 */]
000001FC  206E 0008                movea.l    A0, [A6 + 0x8]
00000200  1028 FE2B                move.b     D0, [A0 - 0x1D5]
00000204  673A                     beq        +0x3C /* 00000240 */
00000206  1005                     move.b     D0, D5
00000208  670A                     beq        +0xC /* 00000214 */
0000020A  2F3C 0000 009B           move.l     -[A7], 0x9B
00000210  42A7                     clr.l      -[A7]
00000212  A8F2                     syscall    PicComment
label00000214:
00000214  4267                     clr.w      -[A7]
00000216  486E FFF0                pea.l      [A6 - 0x10]
0000021A  486D DC0C                pea.l      [A5 - 0x23F4]
0000021E  486E FFF0                pea.l      [A6 - 0x10]
00000222  A8AA                     syscall    SectRect
00000224  101F                     move.b     D0, [A7]+
00000226  670A                     beq        +0xC /* 00000232 */
00000228  486E FFF0                pea.l      [A6 - 0x10]
0000022C  2F2D DBF8                move.l     -[A7], [A5 - 0x2408]
00000230  A9D3                     syscall    TEUpdate
label00000232:
00000232  1005                     move.b     D0, D5
00000234  670A                     beq        +0xC /* 00000240 */
00000236  2F3C 0000 009C           move.l     -[A7], 0x9C
0000023C  42A7                     clr.l      -[A7]
0000023E  A8F2                     syscall    PicComment
label00000240:
00000240  206E 0008                movea.l    A0, [A6 + 0x8]
00000244  117C 0001 FE21           move.b     [A0 - 0x1DF], 0x1
0000024A  486E FFD6                pea.l      [A6 - 0x2A]
0000024E  A89A                     syscall    GetPen
00000250  206D DBF8                movea.l    A0, [A5 - 0x2408]
00000254  2850                     movea.l    A4, [A0]
00000256  2F3C 0001 0000           move.l     -[A7], 0x10000
0000025C  3F2C 005E                move.w     -[A7], [A4 + 0x5E]
00000260  4EAD 18BA                jsr        [A5 + 0x18BA /* export_787, CODE:16 @ 000007C6 */]
00000264  302C 0018                move.w     D0, [A4 + 0x18]
00000268  C1DF                     muls.w     D0, [A7]+
0000026A  D054                     add.w      D0, [A4]
0000026C  322C 001A                move.w     D1, [A4 + 0x1A]
00000270  D240                     add.w      D1, D0
00000272  3D41 FFD6                move.w     [A6 - 0x2A], D1
00000276  2F2E FFD6                move.l     -[A7], [A6 - 0x2A]
0000027A  A893                     syscall    MoveTo
0000027C  4CDF 18F0                movem.l    D4,D5,D6,D7,A3,A4, [A7]+
00000280  4E5E                     unlink     A6
00000282  205F                     movea.l    A0, [A7]+
00000284  DEFC 0014                add.w      A7, 0x14
00000288  4ED0                     jmp        [A0]
fn0000028A:
0000028A  4E56 FCE8                link       A6, -0x0318
0000028E  48E7 0018                movem.l    -[A7], A3,A4
00000292  286E 0008                movea.l    A4, [A6 + 0x8]
00000296  266C 0008                movea.l    A3, [A4 + 0x8]
0000029A  266B 0008                movea.l    A3, [A3 + 0x8]
0000029E  102D D9F0                move.b     D0, [A5 - 0x2610]
000002A2  6700 00F0                beq        +0xF2 /* 00000394 */
000002A6  2F2B FE3E                move.l     -[A7], [A3 - 0x1C2]
000002AA  A87A                     syscall    GetClip
000002AC  486C FFAA                pea.l      [A4 - 0x56]
000002B0  A87B                     syscall    ClipRect
000002B2  3D6C 000E FEFE           move.w     [A6 - 0x102], [A4 + 0xE]
000002B8  3D6C 0010 FEFC           move.w     [A6 - 0x104], [A4 + 0x10]
000002BE  102C FE99                move.b     D0, [A4 - 0x167]
000002C2  670C                     beq        +0xE /* 000002D0 */
000002C4  302E FEFC                move.w     D0, [A6 - 0x104]
000002C8  906C FE9A                sub.w      D0, [A4 - 0x166]
000002CC  3D40 FEFC                move.w     [A6 - 0x104], D0
label000002D0:
000002D0  3F2C 000E                move.w     -[A7], [A4 + 0xE]
000002D4  3F2E FEFC                move.w     -[A7], [A6 - 0x104]
000002D8  A893                     syscall    MoveTo
000002DA  4267                     clr.w      -[A7]
000002DC  2F2E FEFC                move.l     -[A7], [A6 - 0x104]
000002E0  486D DC04                pea.l      [A5 - 0x23FC]
000002E4  A8AD                     syscall    PtInRect
000002E6  101F                     move.b     D0, [A7]+
000002E8  6700 009E                beq        +0xA0 /* 00000388 */
000002EC  486E FCFC                pea.l      [A6 - 0x304]
000002F0  2F2E 0010                move.l     -[A7], [A6 + 0x10]
000002F4  3F2E 000E                move.w     -[A7], [A6 + 0xE]
000002F8  4EAD 1DC2                jsr        [A5 + 0x1DC2 /* export_948, CODE:18 @ 00000E24 */]
000002FC  205F                     movea.l    A0, [A7]+
000002FE  43EE FF00                lea.l      A1, [A6 - 0x100]
00000302  703F                     moveq.l    D0, 0x3F
label00000304:
00000304  22D8                     move.l     [A1]+, [A0]+
00000306  51C8 FFFC                dbf        D0, -0x6 /* 00000304 */
0000030A  4240                     clr.w      D0
0000030C  102E FF00                move.b     D0, [A6 - 0x100]
00000310  4A40                     tst.w      D0
00000312  663E                     bne        +0x40 /* 00000352 */
00000314  486E FCFC                pea.l      [A6 - 0x304]
00000318  3F3C 0004                move.w     -[A7], 0x4
0000031C  4EAD 070A                jsr        [A5 + 0x70A /* export_221, CODE:4 @ 00002328 */]
00000320  486E FCE8                pea.l      [A6 - 0x318]
00000324  302E 000C                move.w     D0, [A6 + 0xC]
00000328  48C0                     ext.l      D0
0000032A  2F00                     move.l     -[A7], D0
0000032C  4EAD 1902                jsr        [A5 + 0x1902 /* export_796, CODE:16 @ 000009D4 */]
00000330  486E FDFC                pea.l      [A6 - 0x204]
00000334  3F3C 0002                move.w     -[A7], 0x2
00000338  4EAD 050A                jsr        [A5 + 0x50A /* export_157, CODE:1 @ 0000531E */]
0000033C  41EE FF00                lea.l      A0, [A6 - 0x100]
00000340  43EE FDFC                lea.l      A1, [A6 - 0x204]
00000344  703F                     moveq.l    D0, 0x3F
label00000346:
00000346  20D9                     move.l     [A0]+, [A1]+
00000348  51C8 FFFC                dbf        D0, -0x6 /* 00000346 */
0000034C  3F3A 0056                move.w     -[A7], [PC + 0x56 /* 000003A4, value 0x2, cstring "" */]
00000350  A888                     syscall    TextFace
label00000352:
00000352  486E FF00                pea.l      [A6 - 0x100]
00000356  486E FCFC                pea.l      [A6 - 0x304]
0000035A  3F3C 0001                move.w     -[A7], 0x1
0000035E  4EAD 070A                jsr        [A5 + 0x70A /* export_221, CODE:4 @ 00002328 */]
00000362  486E FDFC                pea.l      [A6 - 0x204]
00000366  3F3C 0002                move.w     -[A7], 0x2
0000036A  4EAD 050A                jsr        [A5 + 0x50A /* export_157, CODE:1 @ 0000531E */]
0000036E  486E FDFC                pea.l      [A6 - 0x204]
00000372  206E 0008                movea.l    A0, [A6 + 0x8]
00000376  2068 0008                movea.l    A0, [A0 + 0x8]
0000037A  2F28 0008                move.l     -[A7], [A0 + 0x8]
0000037E  4EBA FC80                jsr        [PC - 0x380 /* 00000000 */]
00000382  3F3A 001E                move.w     -[A7], [PC + 0x1E /* 000003A2, value 0x0, cstring "" */]
00000386  A888                     syscall    TextFace
label00000388:
00000388  2F2B FE3E                move.l     -[A7], [A3 - 0x1C2]
0000038C  A879                     syscall    SetClip
0000038E  197C 0001 FE9D           move.b     [A4 - 0x163], 0x1
label00000394:
00000394  4CDF 1800                movem.l    A3,A4, [A7]+
00000398  4E5E                     unlink     A6
0000039A  205F                     movea.l    A0, [A7]+
0000039C  DEFC 000C                add.w      A7, 0xC
000003A0  4ED0                     jmp        [A0]
000003A2  0000 0002                ori.b      D0, 0x2
fn000003A6:
000003A6  4E56 FFE2                link       A6, -0x001E
000003AA  48E7 0718                movem.l    -[A7], D5,D6,D7,A3,A4
000003AE  286E 0008                movea.l    A4, [A6 + 0x8]
000003B2  4AAC FFA6                tst.l      [A4 - 0x5A]
000003B6  6700 0156                beq        +0x158 /* 0000050E */
000003BA  42A7                     clr.l      -[A7]
000003BC  2F2C FFA6                move.l     -[A7], [A4 - 0x5A]
000003C0  4EAD 1ADA                jsr        [A5 + 0x1ADA /* export_855, CODE:16 @ 00001C66 */]
000003C4  295F FFA2                move.l     [A4 - 0x5E], [A7]+
000003C8  4EAD 181A                jsr        [A5 + 0x181A /* export_767, CODE:16 @ 00000216 */]
000003CC  486C FFF2                pea.l      [A4 - 0xE]
000003D0  A89A                     syscall    GetPen
000003D2  396C FFF2 0010           move.w     [A4 + 0x10], [A4 - 0xE]
000003D8  102D D9F0                move.b     D0, [A5 - 0x2610]
000003DC  6728                     beq        +0x2A /* 00000406 */
000003DE  102E 0010                move.b     D0, [A6 + 0x10]
000003E2  6712                     beq        +0x14 /* 000003F6 */
000003E4  2F2D F62A                move.l     -[A7], [A5 - 0x9D6]
000003E8  2F2E 000C                move.l     -[A7], [A6 + 0xC]
000003EC  2F2E 0008                move.l     -[A7], [A6 + 0x8]
000003F0  4EBA FE98                jsr        [PC - 0x168 /* 0000028A */]
000003F4  6010                     bra        +0x12 /* 00000406 */
label000003F6:
000003F6  2F2D F622                move.l     -[A7], [A5 - 0x9DE]
000003FA  2F2E 000C                move.l     -[A7], [A6 + 0xC]
000003FE  2F2E 0008                move.l     -[A7], [A6 + 0x8]
00000402  4EBA FE86                jsr        [PC - 0x17A /* 0000028A */]
label00000406:
00000406  486C FFF2                pea.l      [A4 - 0xE]
0000040A  3F2C FFF6                move.w     -[A7], [A4 - 0xA]
0000040E  206D DBF8                movea.l    A0, [A5 - 0x2408]
00000412  2050                     movea.l    A0, [A0]
00000414  302C 0010                move.w     D0, [A4 + 0x10]
00000418  9068 001A                sub.w      D0, [A0 + 0x1A]
0000041C  3F00                     move.w     -[A7], D0
0000041E  A880                     syscall    SetPt
00000420  3E2D DC08                move.w     D7, [A5 - 0x23F8]
00000424  9E6C FFF2                sub.w      D7, [A4 - 0xE]
00000428  206D DBF8                movea.l    A0, [A5 - 0x2408]
0000042C  2650                     movea.l    A3, [A0]
0000042E  4267                     clr.w      -[A7]
00000430  3F2B 0018                move.w     -[A7], [A3 + 0x18]
00000434  3007                     move.w     D0, D7
00000436  48C0                     ext.l      D0
00000438  81EB 0018                divs.w     D0, [A3 + 0x18]
0000043C  4840                     swap.w     D0
0000043E  4A40                     tst.w      D0
00000440  3207                     move.w     D1, D7
00000442  9240                     sub.w      D1, D0
00000444  3F01                     move.w     -[A7], D1
00000446  4EAD 18BA                jsr        [A5 + 0x18BA /* export_787, CODE:16 @ 000007C6 */]
0000044A  3E1F                     move.w     D7, [A7]+
0000044C  486E FFF0                pea.l      [A6 - 0x10]
00000450  2F2C FFF2                move.l     -[A7], [A4 - 0xE]
00000454  3F2C 000C                move.w     -[A7], [A4 + 0xC]
00000458  3007                     move.w     D0, D7
0000045A  D06C FFF2                add.w      D0, [A4 - 0xE]
0000045E  3F00                     move.w     -[A7], D0
00000460  A8A7                     syscall    SetRect
00000462  41EE FFF8                lea.l      A0, [A6 - 0x8]
00000466  43EE FFF0                lea.l      A1, [A6 - 0x10]
0000046A  20D9                     move.l     [A0]+, [A1]+
0000046C  20D9                     move.l     [A0]+, [A1]+
0000046E  102C FE99                move.b     D0, [A4 - 0x167]
00000472  6712                     beq        +0x14 /* 00000486 */
00000474  302E FFF8                move.w     D0, [A6 - 0x8]
00000478  906C FE9A                sub.w      D0, [A4 - 0x166]
0000047C  3D40 FFF8                move.w     [A6 - 0x8], D0
00000480  422C FE99                clr.b      [A4 - 0x167]
00000484  6024                     bra        +0x26 /* 000004AA */
label00000486:
00000486  206D DBF8                movea.l    A0, [A5 - 0x2408]
0000048A  2650                     movea.l    A3, [A0]
0000048C  302B 0018                move.w     D0, [A3 + 0x18]
00000490  D06D DC04                add.w      D0, [A5 - 0x23FC]
00000494  3A00                     move.w     D5, D0
00000496  9A6B 001A                sub.w      D5, [A3 + 0x1A]
0000049A  4267                     clr.w      -[A7]
0000049C  3F2E FFF0                move.w     -[A7], [A6 - 0x10]
000004A0  3F05                     move.w     -[A7], D5
000004A2  4EAD 18BA                jsr        [A5 + 0x18BA /* export_787, CODE:16 @ 000007C6 */]
000004A6  3D5F FFF0                move.w     [A6 - 0x10], [A7]+
label000004AA:
000004AA  4AAC FFA2                tst.l      [A4 - 0x5E]
000004AE  6F32                     ble        +0x34 /* 000004E2 */
000004B0  197C 0001 FE9D           move.b     [A4 - 0x163], 0x1
000004B6  2F2C FFA6                move.l     -[A7], [A4 - 0x5A]
000004BA  2F2C FFA2                move.l     -[A7], [A4 - 0x5E]
000004BE  486E FFF8                pea.l      [A6 - 0x8]
000004C2  486E FFF0                pea.l      [A6 - 0x10]
000004C6  206E 0008                movea.l    A0, [A6 + 0x8]
000004CA  2068 0008                movea.l    A0, [A0 + 0x8]
000004CE  2F28 0008                move.l     -[A7], [A0 + 0x8]
000004D2  4EBA FC0C                jsr        [PC - 0x3F4 /* 000000E0 */]
000004D6  206D DBF8                movea.l    A0, [A5 - 0x2408]
000004DA  2050                     movea.l    A0, [A0]
000004DC  3C28 005E                move.w     D6, [A0 + 0x5E]
000004E0  601A                     bra        +0x1C /* 000004FC */
label000004E2:
000004E2  102D D9F0                move.b     D0, [A5 - 0x2610]
000004E6  6712                     beq        +0x14 /* 000004FA */
000004E8  4267                     clr.w      -[A7]
000004EA  206D DBF8                movea.l    A0, [A5 - 0x2408]
000004EE  2050                     movea.l    A0, [A0]
000004F0  3F28 0018                move.w     -[A7], [A0 + 0x18]
000004F4  A894                     syscall    Move
000004F6  7C01                     moveq.l    D6, 0x01
000004F8  6002                     bra        +0x4 /* 000004FC */
label000004FA:
000004FA  4246                     clr.w      D6
label000004FC:
000004FC  3006                     move.w     D0, D6
000004FE  206E 0008                movea.l    A0, [A6 + 0x8]
00000502  2068 0008                movea.l    A0, [A0 + 0x8]
00000506  2068 0008                movea.l    A0, [A0 + 0x8]
0000050A  D168 FE28                add.w      [A0 - 0x1D8], D0
label0000050E:
0000050E  4CDF 18E0                movem.l    D5,D6,D7,A3,A4, [A7]+
00000512  4E5E                     unlink     A6
00000514  205F                     movea.l    A0, [A7]+
00000516  DEFC 000A                add.w      A7, 0xA /* '\n' */
0000051A  4ED0                     jmp        [A0]
fn0000051C:
0000051C  4E56 0000                link       A6, 0
00000520  48E7 0018                movem.l    -[A7], A3,A4
00000524  286E 0008                movea.l    A4, [A6 + 0x8]
00000528  266C 0008                movea.l    A3, [A4 + 0x8]
0000052C  4267                     clr.w      -[A7]
0000052E  2F2D F622                move.l     -[A7], [A5 - 0x9DE]
00000532  3F2C FFFC                move.w     -[A7], [A4 - 0x4]
00000536  3F3C 0002                move.w     -[A7], 0x2
0000053A  4EAD 1DBA                jsr        [A5 + 0x1DBA /* export_947, CODE:18 @ 00000D64 */]
0000053E  395F FFFA                move.w     [A4 - 0x6], [A7]+
00000542  42A7                     clr.l      -[A7]
00000544  2F2B FFFC                move.l     -[A7], [A3 - 0x4]
00000548  3F2C FFFA                move.w     -[A7], [A4 - 0x6]
0000054C  4EAD 1C32                jsr        [A5 + 0x1C32 /* export_898, CODE:17 @ 00000A32 */]
00000550  275F FFA6                move.l     [A3 - 0x5A], [A7]+
00000554  4267                     clr.w      -[A7]
00000556  3F2C FFFA                move.w     -[A7], [A4 - 0x6]
0000055A  3F2C FFFC                move.w     -[A7], [A4 - 0x4]
0000055E  206E 0008                movea.l    A0, [A6 + 0x8]
00000562  2F28 0008                move.l     -[A7], [A0 + 0x8]
00000566  4EBA FE3E                jsr        [PC - 0x1C2 /* 000003A6 */]
0000056A  4CDF 1800                movem.l    A3,A4, [A7]+
0000056E  4E5E                     unlink     A6
00000570  2E9F                     move.l     [A7], [A7]+
00000572  4E75                     rts
fn00000574:
00000574  4E56 FFF4                link       A6, -0x000C
00000578  48E7 0300                movem.l    -[A7], D6,D7
0000057C  102E 000C                move.b     D0, [A6 + 0xC]
00000580  673A                     beq        +0x3C /* 000005BC */
00000582  42A7                     clr.l      -[A7]
00000584  2F2D F622                move.l     -[A7], [A5 - 0x9DE]
00000588  3F3C 0002                move.w     -[A7], 0x2
0000058C  4EAD 1D32                jsr        [A5 + 0x1D32 /* export_930, CODE:18 @ 0000012E */]
00000590  4267                     clr.w      -[A7]
00000592  4EAD 18BA                jsr        [A5 + 0x18BA /* export_787, CODE:16 @ 000007C6 */]
00000596  3C1F                     move.w     D6, [A7]+
00000598  3D46 FFF6                move.w     [A6 - 0xA], D6
0000059C  3D7C 0001 FFFC           move.w     [A6 - 0x4], 0x1
000005A2  600C                     bra        +0xE /* 000005B0 */
label000005A4:
000005A4  2F0E                     move.l     -[A7], A6
000005A6  4EBA FF74                jsr        [PC - 0x8C /* 0000051C */]
000005AA  526E FFFC                addq.w     [A6 - 0x4], 1
000005AE  690A                     bvs        +0xC /* 000005BA */
label000005B0:
000005B0  302E FFFC                move.w     D0, [A6 - 0x4]
000005B4  B06E FFF6                cmp.w      D0, [A6 - 0xA]
000005B8  6FEA                     ble        -0x14 /* 000005A4 */
label000005BA:
000005BA  602A                     bra        +0x2C /* 000005E6 */
label000005BC:
000005BC  3D6D D7D6 FFF4           move.w     [A6 - 0xC], [A5 - 0x282A]
000005C2  7E01                     moveq.l    D7, 0x01
000005C4  601A                     bra        +0x1C /* 000005E0 */
label000005C6:
000005C6  3007                     move.w     D0, D7
000005C8  5340                     subq.w     D0, 1
000005CA  41ED D7D8                lea.l      A0, [A5 - 0x2828]
000005CE  E540                     asl        D0.w, 2
000005D0  3D70 0000 FFFC           move.w     [A6 - 0x4], [A0 + D0.w]
000005D6  2F0E                     move.l     -[A7], A6
000005D8  4EBA FF42                jsr        [PC - 0xBE /* 0000051C */]
000005DC  5247                     addq.w     D7, 1
000005DE  6906                     bvs        +0x8 /* 000005E6 */
label000005E0:
000005E0  BE6E FFF4                cmp.w      D7, [A6 - 0xC]
000005E4  6FE0                     ble        -0x1E /* 000005C6 */
label000005E6:
000005E6  4CDF 00C0                movem.l    D6,D7, [A7]+
000005EA  4E5E                     unlink     A6
000005EC  205F                     movea.l    A0, [A7]+
000005EE  5C4F                     addq.w     A7, 6
000005F0  4ED0                     jmp        [A0]
fn000005F2:
000005F2  4E56 FFF6                link       A6, -0x000A
000005F6  48E7 0318                movem.l    -[A7], D6,D7,A3,A4
000005FA  286E 0008                movea.l    A4, [A6 + 0x8]
000005FE  206C FFFC                movea.l    A0, [A4 - 0x4]
00000602  2650                     movea.l    A3, [A0]
00000604  7032                     moveq.l    D0, 0x32
00000606  D7C0                     add.l      A3, D0
00000608  206C FFFC                movea.l    A0, [A4 - 0x4]
0000060C  2050                     movea.l    A0, [A0]
0000060E  3D68 0024 FFF6           move.w     [A6 - 0xA], [A0 + 0x24]
00000614  7E01                     moveq.l    D7, 0x01
00000616  604A                     bra        +0x4C /* 00000662 */
label00000618:
00000618  7002                     moveq.l    D0, 0x02
0000061A  B02B 0004                cmp.b      D0, [A3 + 0x4]
0000061E  6638                     bne        +0x3A /* 00000658 */
00000620  42A7                     clr.l      -[A7]
00000622  2F2C FFFC                move.l     -[A7], [A4 - 0x4]
00000626  302B 0002                move.w     D0, [A3 + 0x2]
0000062A  4440                     neg.w      D0
0000062C  3F00                     move.w     -[A7], D0
0000062E  4EAD 1C32                jsr        [A5 + 0x1C32 /* export_898, CODE:17 @ 00000A32 */]
00000632  295F FFA6                move.l     [A4 - 0x5A], [A7]+
00000636  4267                     clr.w      -[A7]
00000638  2F2D F62A                move.l     -[A7], [A5 - 0x9D6]
0000063C  3F2B 0002                move.w     -[A7], [A3 + 0x2]
00000640  4EAD 1DCA                jsr        [A5 + 0x1DCA /* export_949, CODE:18 @ 00000E6C */]
00000644  3C1F                     move.w     D6, [A7]+
00000646  1F3C 0001                move.b     -[A7], 0x1
0000064A  3F2B 0002                move.w     -[A7], [A3 + 0x2]
0000064E  3F06                     move.w     -[A7], D6
00000650  2F2E 0008                move.l     -[A7], [A6 + 0x8]
00000654  4EBA FD50                jsr        [PC - 0x2B0 /* 000003A6 */]
label00000658:
00000658  3013                     move.w     D0, [A3]
0000065A  48C0                     ext.l      D0
0000065C  D7C0                     add.l      A3, D0
0000065E  5247                     addq.w     D7, 1
00000660  6906                     bvs        +0x8 /* 00000668 */
label00000662:
00000662  BE6E FFF6                cmp.w      D7, [A6 - 0xA]
00000666  6FB0                     ble        -0x4E /* 00000618 */
label00000668:
00000668  4CDF 18C0                movem.l    D6,D7,A3,A4, [A7]+
0000066C  4E5E                     unlink     A6
0000066E  2E9F                     move.l     [A7], [A7]+
00000670  4E75                     rts
fn00000672:
00000672  4E56 0000                link       A6, 0
00000676  48E7 0018                movem.l    -[A7], A3,A4
0000067A  286E 0008                movea.l    A4, [A6 + 0x8]
0000067E  286C 0008                movea.l    A4, [A4 + 0x8]
00000682  206D DBF8                movea.l    A0, [A5 - 0x2408]
00000686  2650                     movea.l    A3, [A0]
00000688  206E 0008                movea.l    A0, [A6 + 0x8]
0000068C  3028 0010                move.w     D0, [A0 + 0x10]
00000690  906B 001A                sub.w      D0, [A3 + 0x1A]
00000694  3940 FFF6                move.w     [A4 - 0xA], D0
00000698  302D DC08                move.w     D0, [A5 - 0x23F8]
0000069C  906C FFF6                sub.w      D0, [A4 - 0xA]
000006A0  3940 FFF4                move.w     [A4 - 0xC], D0
000006A4  48C0                     ext.l      D0
000006A6  81EB 0018                divs.w     D0, [A3 + 0x18]
000006AA  4840                     swap.w     D0
000006AC  4A40                     tst.w      D0
000006AE  916C FFF4                sub.w      [A4 - 0xC], D0
000006B2  302C FFF4                move.w     D0, [A4 - 0xC]
000006B6  48C0                     ext.l      D0
000006B8  81EB 0018                divs.w     D0, [A3 + 0x18]
000006BC  3940 FFF2                move.w     [A4 - 0xE], D0
000006C0  206D DBF8                movea.l    A0, [A5 - 0x2408]
000006C4  2050                     movea.l    A0, [A0]
000006C6  3028 0018                move.w     D0, [A0 + 0x18]
000006CA  206E 0008                movea.l    A0, [A6 + 0x8]
000006CE  2068 0008                movea.l    A0, [A0 + 0x8]
000006D2  2068 0008                movea.l    A0, [A0 + 0x8]
000006D6  C1E8 FE26                muls.w     D0, [A0 - 0x1DA]
000006DA  206E 0008                movea.l    A0, [A6 + 0x8]
000006DE  3140 FE9A                move.w     [A0 - 0x166], D0
000006E2  4CDF 1800                movem.l    A3,A4, [A7]+
000006E6  4E5E                     unlink     A6
000006E8  2E9F                     move.l     [A7], [A7]+
000006EA  4E75                     rts
fn000006EC:
000006EC  4E56 FB82                link       A6, -0x047E
000006F0  48E7 0F18                movem.l    -[A7], D4,D5,D6,D7,A3,A4
000006F4  286E 0008                movea.l    A4, [A6 + 0x8]
000006F8  286C 0008                movea.l    A4, [A4 + 0x8]
000006FC  422E FE9D                clr.b      [A6 - 0x163]
00000700  486E FFAA                pea.l      [A6 - 0x56]
00000704  3F2E 000E                move.w     -[A7], [A6 + 0xE]
00000708  3F2D DC04                move.w     -[A7], [A5 - 0x23FC]
0000070C  302D D9DC                move.w     D0, [A5 - 0x2624]
00000710  D06E 000E                add.w      D0, [A6 + 0xE]
00000714  2F00                     move.l     -[A7], D0
00000716  4267                     clr.w      -[A7]
00000718  1F3C 0004                move.b     -[A7], 0x4
0000071C  4EAD 067A                jsr        [A5 + 0x67A /* export_203, CODE:4 @ 000016BA */]
00000720  321F                     move.w     D1, [A7]+
00000722  201F                     move.l     D0, [A7]+
00000724  9041                     sub.w      D0, D1
00000726  3F00                     move.w     -[A7], D0
00000728  3F2D DC08                move.w     -[A7], [A5 - 0x23F8]
0000072C  A8A7                     syscall    SetRect
0000072E  102D D9F0                move.b     D0, [A5 - 0x2610]
00000732  670E                     beq        +0x10 /* 00000742 */
00000734  302D D9DC                move.w     D0, [A5 - 0x2624]
00000738  D06E 000E                add.w      D0, [A6 + 0xE]
0000073C  3D40 FFF6                move.w     [A6 - 0xA], D0
00000740  6006                     bra        +0x8 /* 00000748 */
label00000742:
00000742  3D6E 000E FFF6           move.w     [A6 - 0xA], [A6 + 0xE]
label00000748:
00000748  3A2E 0010                move.w     D5, [A6 + 0x10]
0000074C  42A7                     clr.l      -[A7]
0000074E  2F2D F62A                move.l     -[A7], [A5 - 0x9D6]
00000752  4EAD 1F7A                jsr        [A5 + 0x1F7A /* export_1003, CODE:19 @ 00001744 */]
00000756  2D5F FFFC                move.l     [A6 - 0x4], [A7]+
0000075A  6608                     bne        +0xA /* 00000764 */
0000075C  4EAD 0752                jsr        [A5 + 0x752 /* export_230, CODE:4 @ 00002702 */]
00000760  6000 029A                bra        +0x29C /* 000009FC */
label00000764:
00000764  42A7                     clr.l      -[A7]
00000766  206E FFFC                movea.l    A0, [A6 - 0x4]
0000076A  2050                     movea.l    A0, [A0]
0000076C  2F28 0020                move.l     -[A7], [A0 + 0x20]
00000770  4EAD 1F6A                jsr        [A5 + 0x1F6A /* export_1001, CODE:19 @ 000016EC */]
00000774  265F                     movea.l    A3, [A7]+
00000776  200B                     move.l     D0, A3
00000778  6608                     bne        +0xA /* 00000782 */
0000077A  4EAD 0752                jsr        [A5 + 0x752 /* export_230, CODE:4 @ 00002702 */]
0000077E  6000 0272                bra        +0x274 /* 000009F2 */
label00000782:
00000782  206D DBF8                movea.l    A0, [A5 - 0x2408]
00000786  2050                     movea.l    A0, [A0]
00000788  3028 0018                move.w     D0, [A0 + 0x18]
0000078C  D16E 0010                add.w      [A6 + 0x10], D0
00000790  3F2E 000E                move.w     -[A7], [A6 + 0xE]
00000794  3F2E 0010                move.w     -[A7], [A6 + 0x10]
00000798  A893                     syscall    MoveTo
0000079A  2F0E                     move.l     -[A7], A6
0000079C  4EBA FED4                jsr        [PC - 0x12C /* 00000672 */]
000007A0  4A6C FE26                tst.w      [A4 - 0x1DA]
000007A4  57C0                     seq        D0
000007A6  C02D D9EF                and.b      D0, [A5 - 0x2611]
000007AA  6712                     beq        +0x14 /* 000007BE */
000007AC  3E2E 0010                move.w     D7, [A6 + 0x10]
000007B0  4267                     clr.w      -[A7]
000007B2  206D DBF8                movea.l    A0, [A5 - 0x2408]
000007B6  2050                     movea.l    A0, [A0]
000007B8  3F28 0018                move.w     -[A7], [A0 + 0x18]
000007BC  A894                     syscall    Move
label000007BE:
000007BE  2F0B                     move.l     -[A7], A3
000007C0  4EAD 01DA                jsr        [A5 + 0x1DA /* export_55, CODE:1 @ 000043FE */]
000007C4  2F2E FFFC                move.l     -[A7], [A6 - 0x4]
000007C8  4EAD 01DA                jsr        [A5 + 0x1DA /* export_55, CODE:1 @ 000043FE */]
000007CC  2F0B                     move.l     -[A7], A3
000007CE  486E FE98                pea.l      [A6 - 0x168]
000007D2  4EAD 1922                jsr        [A5 + 0x1922 /* export_800, CODE:16 @ 00000C02 */]
000007D6  2F2E FFFC                move.l     -[A7], [A6 - 0x4]
000007DA  486E FE97                pea.l      [A6 - 0x169]
000007DE  4EAD 1922                jsr        [A5 + 0x1922 /* export_800, CODE:16 @ 00000C02 */]
000007E2  486E FFEE                pea.l      [A6 - 0x12]
000007E6  A874                     syscall    GetPort
000007E8  206E FFEE                movea.l    A0, [A6 - 0x12]
000007EC  2C28 0068                move.l     D6, [A0 + 0x68]
000007F0  6612                     bne        +0x14 /* 00000804 */
000007F2  486E FFB2                pea.l      [A6 - 0x4E]
000007F6  A8EA                     syscall    SetStdProcs
000007F8  41EE FFB2                lea.l      A0, [A6 - 0x4E]
000007FC  226E FFEE                movea.l    A1, [A6 - 0x12]
00000800  2348 0068                move.l     [A1 + 0x68], A0
label00000804:
00000804  206E FFEE                movea.l    A0, [A6 - 0x12]
00000808  2068 0068                movea.l    A0, [A0 + 0x68]
0000080C  2828 0008                move.l     D4, [A0 + 0x8]
00000810  41ED 06B2                lea.l      A0, [A5 + 0x6B2 /* export_210, CODE:4 @ 00001C94 */]
00000814  226E FFEE                movea.l    A1, [A6 - 0x12]
00000818  2269 0068                movea.l    A1, [A1 + 0x68]
0000081C  2348 0008                move.l     [A1 + 0x8], A0
00000820  206D DBF8                movea.l    A0, [A5 - 0x2408]
00000824  2050                     movea.l    A0, [A0]
00000826  216E FFEE 0052           move.l     [A0 + 0x52], [A6 - 0x12]
0000082C  1D7C 0001 FE99           move.b     [A6 - 0x167], 0x1
00000832  102D D9F3                move.b     D0, [A5 - 0x260D]
00000836  4880                     ext.w      D0
00000838  4A40                     tst.w      D0
0000083A  6B18                     bmi        +0x1A /* 00000854 */
0000083C  B07C 0007                cmp.w      D0, 0x7
00000840  6E12                     bgt        +0x14 /* 00000854 */
00000842  41FA 01EA                lea.l      A0, [PC + 0x1EA /* 00000A2E, value 0x4E56FFE8 */]
00000846  3200                     move.w     D1, D0
00000848  E649                     lsr        D1.w, 3
0000084A  4441                     neg.w      D1
0000084C  0130 10FF                btst       [A0 + D1.w - 0x1], D0
00000850  0A3C 0004                xori.b     ccr, 4
label00000854:
00000854  6610                     bne        +0x12 /* 00000866 */
00000856  102D D9F2                move.b     D0, [A5 - 0x260E]
0000085A  0A00 0001                xori.b     D0, 0x1
0000085E  1F00                     move.b     -[A7], D0
00000860  2F0E                     move.l     -[A7], A6
00000862  4EBA FD10                jsr        [PC - 0x2F0 /* 00000574 */]
label00000866:
00000866  102D D9F3                move.b     D0, [A5 - 0x260D]
0000086A  4880                     ext.w      D0
0000086C  4A40                     tst.w      D0
0000086E  6B18                     bmi        +0x1A /* 00000888 */
00000870  B07C 0007                cmp.w      D0, 0x7
00000874  6E12                     bgt        +0x14 /* 00000888 */
00000876  41FA 01B4                lea.l      A0, [PC + 0x1B4 /* 00000A2C, value 0xC4E56, cstring "" */]
0000087A  3200                     move.w     D1, D0
0000087C  E649                     lsr        D1.w, 3
0000087E  4441                     neg.w      D1
00000880  0130 10FF                btst       [A0 + D1.w - 0x1], D0
00000884  0A3C 0004                xori.b     ccr, 4
label00000888:
00000888  6606                     bne        +0x8 /* 00000890 */
0000088A  2F0E                     move.l     -[A7], A6
0000088C  4EBA FD64                jsr        [PC - 0x29C /* 000005F2 */]
label00000890:
00000890  206E FFEE                movea.l    A0, [A6 - 0x12]
00000894  2068 0068                movea.l    A0, [A0 + 0x68]
00000898  2144 0008                move.l     [A0 + 0x8], D4
0000089C  206E FFEE                movea.l    A0, [A6 - 0x12]
000008A0  2146 0068                move.l     [A0 + 0x68], D6
000008A4  486E FFF2                pea.l      [A6 - 0xE]
000008A8  A89A                     syscall    GetPen
000008AA  4A6C FE26                tst.w      [A4 - 0x1DA]
000008AE  57C0                     seq        D0
000008B0  C02D D9EF                and.b      D0, [A5 - 0x2611]
000008B4  6700 0116                beq        +0x118 /* 000009CC */
000008B8  486E FC96                pea.l      [A6 - 0x36A]
000008BC  2F2D F62A                move.l     -[A7], [A5 - 0x9D6]
000008C0  4EAD 1D8A                jsr        [A5 + 0x1D8A /* export_941, CODE:18 @ 00000AA4 */]
000008C4  205F                     movea.l    A0, [A7]+
000008C6  43EE FEA2                lea.l      A1, [A6 - 0x15E]
000008CA  703F                     moveq.l    D0, 0x3F
label000008CC:
000008CC  22D8                     move.l     [A1]+, [A0]+
000008CE  51C8 FFFC                dbf        D0, -0x6 /* 000008CC */
000008D2  4240                     clr.w      D0
000008D4  102E FEA2                move.b     D0, [A6 - 0x15E]
000008D8  4A40                     tst.w      D0
000008DA  56C0                     sne        D0
000008DC  802E FE9D                or.b       D0, [A6 - 0x163]
000008E0  0240 0001                andi.w     D0, 0x1
000008E4  6700 00E6                beq        +0xE8 /* 000009CC */
000008E8  4EAD 181A                jsr        [A5 + 0x181A /* export_767, CODE:16 @ 00000216 */]
000008EC  2F2C FE3E                move.l     -[A7], [A4 - 0x1C2]
000008F0  A87A                     syscall    GetClip
000008F2  102D D9F0                move.b     D0, [A5 - 0x2610]
000008F6  675C                     beq        +0x5E /* 00000954 */
000008F8  4267                     clr.w      -[A7]
000008FA  486E FFAA                pea.l      [A6 - 0x56]
000008FE  486D DC0C                pea.l      [A5 - 0x23F4]
00000902  486E FFAA                pea.l      [A6 - 0x56]
00000906  A8AA                     syscall    SectRect
00000908  101F                     move.b     D0, [A7]+
0000090A  6748                     beq        +0x4A /* 00000954 */
0000090C  486E FFAA                pea.l      [A6 - 0x56]
00000910  A87B                     syscall    ClipRect
00000912  3F2E 000E                move.w     -[A7], [A6 + 0xE]
00000916  3007                     move.w     D0, D7
00000918  906E FE9A                sub.w      D0, [A6 - 0x166]
0000091C  3F00                     move.w     -[A7], D0
0000091E  A893                     syscall    MoveTo
00000920  486E FC96                pea.l      [A6 - 0x36A]
00000924  3F3C 0007                move.w     -[A7], 0x7
00000928  4EAD 070A                jsr        [A5 + 0x70A /* export_221, CODE:4 @ 00002328 */]
0000092C  486E FB96                pea.l      [A6 - 0x46A]
00000930  3F3C 0001                move.w     -[A7], 0x1
00000934  4EAD 070A                jsr        [A5 + 0x70A /* export_221, CODE:4 @ 00002328 */]
00000938  486E FD96                pea.l      [A6 - 0x26A]
0000093C  3F3C 0002                move.w     -[A7], 0x2
00000940  4EAD 050A                jsr        [A5 + 0x50A /* export_157, CODE:1 @ 0000531E */]
00000944  486E FD96                pea.l      [A6 - 0x26A]
00000948  206E 0008                movea.l    A0, [A6 + 0x8]
0000094C  2F28 0008                move.l     -[A7], [A0 + 0x8]
00000950  4EBA F6AE                jsr        [PC - 0x952 /* 00000000 */]
label00000954:
00000954  3F2E FFF6                move.w     -[A7], [A6 - 0xA]
00000958  3F07                     move.w     -[A7], D7
0000095A  A893                     syscall    MoveTo
0000095C  4240                     clr.w      D0
0000095E  102E FEA2                move.b     D0, [A6 - 0x15E]
00000962  4A40                     tst.w      D0
00000964  664A                     bne        +0x4C /* 000009B0 */
00000966  486D DC0C                pea.l      [A5 - 0x23F4]
0000096A  A87B                     syscall    ClipRect
0000096C  3F3A 00BA                move.w     -[A7], [PC + 0xBA /* 00000A28, value 0x2, cstring "" */]
00000970  A888                     syscall    TextFace
00000972  486E FC96                pea.l      [A6 - 0x36A]
00000976  3F3C 0002                move.w     -[A7], 0x2
0000097A  4EAD 070A                jsr        [A5 + 0x70A /* export_221, CODE:4 @ 00002328 */]
0000097E  486E FB82                pea.l      [A6 - 0x47E]
00000982  42A7                     clr.l      -[A7]
00000984  4EAD 1DF2                jsr        [A5 + 0x1DF2 /* export_954, CODE:18 @ 000010BC */]
00000988  4EAD 18B2                jsr        [A5 + 0x18B2 /* export_786, CODE:16 @ 00000738 */]
0000098C  486E FD96                pea.l      [A6 - 0x26A]
00000990  3F3C 0002                move.w     -[A7], 0x2
00000994  4EAD 050A                jsr        [A5 + 0x50A /* export_157, CODE:1 @ 0000531E */]
00000998  486E FD96                pea.l      [A6 - 0x26A]
0000099C  206E 0008                movea.l    A0, [A6 + 0x8]
000009A0  2F28 0008                move.l     -[A7], [A0 + 0x8]
000009A4  4EBA F65A                jsr        [PC - 0x9A6 /* 00000000 */]
000009A8  3F3A 007C                move.w     -[A7], [PC + 0x7C /* 00000A26, value 0x0, cstring "" */]
000009AC  A888                     syscall    TextFace
000009AE  6010                     bra        +0x12 /* 000009C0 */
label000009B0:
000009B0  486E FEA2                pea.l      [A6 - 0x15E]
000009B4  206E 0008                movea.l    A0, [A6 + 0x8]
000009B8  2F28 0008                move.l     -[A7], [A0 + 0x8]
000009BC  4EBA F642                jsr        [PC - 0x9BE /* 00000000 */]
label000009C0:
000009C0  1D7C 0001 FE9D           move.b     [A6 - 0x163], 0x1
000009C6  2F2C FE3E                move.l     -[A7], [A4 - 0x1C2]
000009CA  A879                     syscall    SetClip
label000009CC:
000009CC  2F0B                     move.l     -[A7], A3
000009CE  1F2E FE98                move.b     -[A7], [A6 - 0x168]
000009D2  4EAD 03F2                jsr        [A5 + 0x3F2 /* export_122, CODE:1 @ 00004D00 */]
000009D6  2F2E FFFC                move.l     -[A7], [A6 - 0x4]
000009DA  1F2E FE97                move.b     -[A7], [A6 - 0x169]
000009DE  4EAD 03F2                jsr        [A5 + 0x3F2 /* export_122, CODE:1 @ 00004D00 */]
000009E2  206E FFFC                movea.l    A0, [A6 - 0x4]
000009E6  2050                     movea.l    A0, [A0]
000009E8  2F28 0020                move.l     -[A7], [A0 + 0x20]
000009EC  4267                     clr.w      -[A7]
000009EE  4EAD 1EE2                jsr        [A5 + 0x1EE2 /* export_984, CODE:19 @ 00000414 */]
label000009F2:
000009F2  2F2D F62A                move.l     -[A7], [A5 - 0x9D6]
000009F6  4267                     clr.w      -[A7]
000009F8  4EAD 1EF2                jsr        [A5 + 0x1EF2 /* export_986, CODE:19 @ 00000450 */]
label000009FC:
000009FC  102E FE9D                move.b     D0, [A6 - 0x163]
00000A00  6604                     bne        +0x6 /* 00000A06 */
00000A02  3D45 FFF2                move.w     [A6 - 0xE], D5
label00000A06:
00000A06  206D DBF8                movea.l    A0, [A5 - 0x2408]
00000A0A  2050                     movea.l    A0, [A0]
00000A0C  302E FFF2                move.w     D0, [A6 - 0xE]
00000A10  9068 0018                sub.w      D0, [A0 + 0x18]
00000A14  3D40 0012                move.w     [A6 + 0x12], D0
00000A18  4CDF 18F0                movem.l    D4,D5,D6,D7,A3,A4, [A7]+
00000A1C  4E5E                     unlink     A6
00000A1E  205F                     movea.l    A0, [A7]+
00000A20  DEFC 000A                add.w      A7, 0xA /* '\n' */
00000A24  4ED0                     jmp        [A0]
00000A26  0000 0002                ori.b      D0, 0x2
00000A2A  000A 000C                ori.b      A2, 0xC
fn00000A2E:
00000A2E  4E56 FFE8                link       A6, -0x0018
00000A32  48E7 0F18                movem.l    -[A7], D4,D5,D6,D7,A3,A4
00000A36  266E 0008                movea.l    A3, [A6 + 0x8]
00000A3A  286B 0008                movea.l    A4, [A3 + 0x8]
00000A3E  4A2D D9F5                tst.b      [A5 - 0x260B]
00000A42  56C0                     sne        D0
00000A44  4400                     neg.b      D0
00000A46  4880                     ext.w      D0
00000A48  3800                     move.w     D4, D0
00000A4A  5244                     addq.w     D4, 1
00000A4C  426E FFF4                clr.w      [A6 - 0xC]
00000A50  3C2D DC06                move.w     D6, [A5 - 0x23FA]
00000A54  7002                     moveq.l    D0, 0x02
00000A56  B044                     cmp.w      D0, D4
00000A58  6606                     bne        +0x8 /* 00000A60 */
00000A5A  3E2C FEC8                move.w     D7, [A4 - 0x138]
00000A5E  6004                     bra        +0x6 /* 00000A64 */
label00000A60:
00000A60  3E2D DC0A                move.w     D7, [A5 - 0x23F6]
label00000A64:
00000A64  3A2D DC04                move.w     D5, [A5 - 0x23FC]
00000A68  422E FFEB                clr.b      [A6 - 0x15]
00000A6C  1D7C 0001 FFEA           move.b     [A6 - 0x16], 0x1
00000A72  526E FFF4                addq.w     [A6 - 0xC], 1
label00000A76:
00000A76  42A7                     clr.l      -[A7]
00000A78  2F2D F62A                move.l     -[A7], [A5 - 0x9D6]
00000A7C  4EAD 1F7A                jsr        [A5 + 0x1F7A /* export_1003, CODE:19 @ 00001744 */]
00000A80  275F FFFC                move.l     [A3 - 0x4], [A7]+
00000A84  660E                     bne        +0x10 /* 00000A94 */
00000A86  4EAD 0752                jsr        [A5 + 0x752 /* export_230, CODE:4 @ 00002702 */]
00000A8A  197C 0001 FFDD           move.b     [A4 - 0x23], 0x1
00000A90  6000 0156                bra        +0x158 /* 00000BE8 */
label00000A94:
00000A94  206B FFFC                movea.l    A0, [A3 - 0x4]
00000A98  2050                     movea.l    A0, [A0]
00000A9A  2768 0020 FFF8           move.l     [A3 - 0x8], [A0 + 0x20]
00000AA0  2F2D F62A                move.l     -[A7], [A5 - 0x9D6]
00000AA4  4267                     clr.w      -[A7]
00000AA6  4EAD 1EF2                jsr        [A5 + 0x1EF2 /* export_986, CODE:19 @ 00000450 */]
00000AAA  202B FFF8                move.l     D0, [A3 - 0x8]
00000AAE  B0AC FFCC                cmp.l      D0, [A4 - 0x34]
00000AB2  56C0                     sne        D0
00000AB4  C02D D9F2                and.b      D0, [A5 - 0x260E]
00000AB8  6736                     beq        +0x38 /* 00000AF0 */
00000ABA  4267                     clr.w      -[A7]
00000ABC  206E 0008                movea.l    A0, [A6 + 0x8]
00000AC0  2F28 0008                move.l     -[A7], [A0 + 0x8]
00000AC4  4EBA F5B2                jsr        [PC - 0xA4E /* 00000078 */]
00000AC8  101F                     move.b     D0, [A7]+
00000ACA  0A00 0001                xori.b     D0, 0x1
00000ACE  1940 FFDD                move.b     [A4 - 0x23], D0
00000AD2  4EAD 0802                jsr        [A5 + 0x802 /* export_252, CODE:4 @ 00004A48 */]
00000AD6  4267                     clr.w      -[A7]
00000AD8  4EAD 0722                jsr        [A5 + 0x722 /* export_224, CODE:4 @ 00002452 */]
00000ADC  4A5F                     tst.w      [A7]+
00000ADE  56C0                     sne        D0
00000AE0  802C FFDD                or.b       D0, [A4 - 0x23]
00000AE4  0240 0001                andi.w     D0, 0x1
00000AE8  1940 FFDD                move.b     [A4 - 0x23], D0
00000AEC  6000 00C8                bra        +0xCA /* 00000BB6 */
label00000AF0:
00000AF0  426C FE28                clr.w      [A4 - 0x1D8]
00000AF4  4267                     clr.w      -[A7]
00000AF6  3F05                     move.w     -[A7], D5
00000AF8  3F06                     move.w     -[A7], D6
00000AFA  3F07                     move.w     -[A7], D7
00000AFC  2F2E 0008                move.l     -[A7], [A6 + 0x8]
00000B00  4EBA FBEA                jsr        [PC - 0x416 /* 000006EC */]
00000B04  3D5F FFFA                move.w     [A6 - 0x6], [A7]+
00000B08  302C FE28                move.w     D0, [A4 - 0x1D8]
00000B0C  906C FE26                sub.w      D0, [A4 - 0x1DA]
00000B10  3D40 FFE8                move.w     [A6 - 0x18], D0
00000B14  4A6C FE26                tst.w      [A4 - 0x1DA]
00000B18  57C0                     seq        D0
00000B1A  C02D D9EF                and.b      D0, [A5 - 0x2611]
00000B1E  6704                     beq        +0x6 /* 00000B24 */
00000B20  536B FFF2                subq.w     [A3 - 0xE], 1
label00000B24:
00000B24  302E FFE8                move.w     D0, [A6 - 0x18]
00000B28  B06B FFF2                cmp.w      D0, [A3 - 0xE]
00000B2C  6E2C                     bgt        +0x2E /* 00000B5A */
00000B2E  4267                     clr.w      -[A7]
00000B30  206E 0008                movea.l    A0, [A6 + 0x8]
00000B34  2F28 0008                move.l     -[A7], [A0 + 0x8]
00000B38  4EBA F53E                jsr        [PC - 0xAC2 /* 00000078 */]
00000B3C  101F                     move.b     D0, [A7]+
00000B3E  0A00 0001                xori.b     D0, 0x1
00000B42  1940 FFDD                move.b     [A4 - 0x23], D0
00000B46  422E FFEA                clr.b      [A6 - 0x16]
00000B4A  206D DBF8                movea.l    A0, [A5 - 0x2408]
00000B4E  2050                     movea.l    A0, [A0]
00000B50  3A28 0018                move.w     D5, [A0 + 0x18]
00000B54  DA6E FFFA                add.w      D5, [A6 - 0x6]
00000B58  6048                     bra        +0x4A /* 00000BA2 */
label00000B5A:
00000B5A  1D7C 0001 FFEB           move.b     [A6 - 0x15], 0x1
00000B60  7009                     moveq.l    D0, 0x09
00000B62  B06B FFF2                cmp.w      D0, [A3 - 0xE]
00000B66  5DC0                     slt        D0
00000B68  322B FFF2                move.w     D1, [A3 - 0xE]
00000B6C  D27C 0009                add.w      D1, 0x9 /* '\t' */
00000B70  B26E FFE8                cmp.w      D1, [A6 - 0x18]
00000B74  5DC1                     slt        D1
00000B76  C001                     and.b      D0, D1
00000B78  802E FFEA                or.b       D0, [A6 - 0x16]
00000B7C  0240 0001                andi.w     D0, 0x1
00000B80  670A                     beq        +0xC /* 00000B8C */
00000B82  302B FFF2                move.w     D0, [A3 - 0xE]
00000B86  D16C FE26                add.w      [A4 - 0x1DA], D0
00000B8A  6016                     bra        +0x18 /* 00000BA2 */
label00000B8C:
00000B8C  486E FFEC                pea.l      [A6 - 0x14]
00000B90  3F06                     move.w     -[A7], D6
00000B92  3F05                     move.w     -[A7], D5
00000B94  3F07                     move.w     -[A7], D7
00000B96  3F2D DC10                move.w     -[A7], [A5 - 0x23F0]
00000B9A  A8A7                     syscall    SetRect
00000B9C  486E FFEC                pea.l      [A6 - 0x14]
00000BA0  A8A3                     syscall    EraseRect
label00000BA2:
00000BA2  4EAD 0802                jsr        [A5 + 0x802 /* export_252, CODE:4 @ 00004A48 */]
00000BA6  4267                     clr.w      -[A7]
00000BA8  4EAD 0722                jsr        [A5 + 0x722 /* export_224, CODE:4 @ 00002452 */]
00000BAC  4A5F                     tst.w      [A7]+
00000BAE  6706                     beq        +0x8 /* 00000BB6 */
00000BB0  197C 0001 FFDD           move.b     [A4 - 0x23], 0x1
label00000BB6:
00000BB6  102C FFDD                move.b     D0, [A4 - 0x23]
00000BBA  802E FFEB                or.b       D0, [A6 - 0x15]
00000BBE  6700 FEB6                beq        -0x148 /* 00000A76 */
00000BC2  4A2D D9F5                tst.b      [A5 - 0x260B]
00000BC6  670E                     beq        +0x10 /* 00000BD6 */
00000BC8  4267                     clr.w      -[A7]
00000BCA  4EAD 068A                jsr        [A5 + 0x68A /* export_205, CODE:4 @ 0000184A */]
00000BCE  3C1F                     move.w     D6, [A7]+
00000BD0  DC47                     add.w      D6, D7
00000BD2  3E2D DC0A                move.w     D7, [A5 - 0x23F6]
label00000BD6:
00000BD6  B86E FFF4                cmp.w      D4, [A6 - 0xC]
00000BDA  57C0                     seq        D0
00000BDC  802C FFDD                or.b       D0, [A4 - 0x23]
00000BE0  0240 0001                andi.w     D0, 0x1
00000BE4  6700 FE7E                beq        -0x180 /* 00000A64 */
label00000BE8:
00000BE8  4CDF 18F0                movem.l    D4,D5,D6,D7,A3,A4, [A7]+
00000BEC  4E5E                     unlink     A6
00000BEE  2E9F                     move.l     [A7], [A7]+
00000BF0  4E75                     rts
fn00000BF2:
00000BF2  4E56 FFF2                link       A6, -0x000E
00000BF6  48E7 0718                movem.l    -[A7], D5,D6,D7,A3,A4
00000BFA  286E 0008                movea.l    A4, [A6 + 0x8]
00000BFE  266C 0008                movea.l    A3, [A4 + 0x8]
00000C02  286B 0008                movea.l    A4, [A3 + 0x8]
00000C06  102C FFDD                move.b     D0, [A4 - 0x23]
00000C0A  206E 0008                movea.l    A0, [A6 + 0x8]
00000C0E  8028 FFF3                or.b       D0, [A0 - 0xD]
00000C12  670C                     beq        +0xE /* 00000C20 */
00000C14  206E 0008                movea.l    A0, [A6 + 0x8]
00000C18  2C48                     movea.l    A6, A0
00000C1A  4EFA 02EE                jmp        [PC + 0x2EE /* 00000F0A */]
00000C1E  0000 426C                ori.b      D0, 0x6C /* 'l' */
// begin alternate branch 00000C20-00000C26
label00000C20:
00000C20  426C FE28                clr.w      [A4 - 0x1D8]
00000C24  4267                     clr.w      -[A7]
// end alternate branch 00000C20-00000C26
label00000C20: // (misaligned)
00000C22  FE28 4267                .unknown   0xFE28 0x4267 (W = 7)
00000C26  206E 0008                movea.l    A0, [A6 + 0x8]
00000C2A  3F28 FFF4                move.w     -[A7], [A0 - 0xC]
00000C2E  2F2E 000C                move.l     -[A7], [A6 + 0xC]
00000C32  206E 0008                movea.l    A0, [A6 + 0x8]
00000C36  2F28 0008                move.l     -[A7], [A0 + 0x8]
00000C3A  4EBA FAB0                jsr        [PC - 0x550 /* 000006EC */]
00000C3E  3E1F                     move.w     D7, [A7]+
00000C40  206E 0008                movea.l    A0, [A6 + 0x8]
00000C44  BE68 FFF4                cmp.w      D7, [A0 - 0xC]
00000C48  5EC6                     sgt        D6
00000C4A  4406                     neg.b      D6
00000C4C  1D46 0010                move.b     [A6 + 0x10], D6
00000C50  1006                     move.b     D0, D6
00000C52  6620                     bne        +0x22 /* 00000C74 */
00000C54  4267                     clr.w      -[A7]
00000C56  206E 0008                movea.l    A0, [A6 + 0x8]
00000C5A  2068 0008                movea.l    A0, [A0 + 0x8]
00000C5E  2F28 0008                move.l     -[A7], [A0 + 0x8]
00000C62  4EBA F414                jsr        [PC - 0xBEC /* 00000078 */]
00000C66  101F                     move.b     D0, [A7]+
00000C68  0A00 0001                xori.b     D0, 0x1
00000C6C  1940 FFDD                move.b     [A4 - 0x23], D0
00000C70  6000 00C2                bra        +0xC4 /* 00000D34 */
label00000C74:
00000C74  4267                     clr.w      -[A7]
00000C76  206E 0008                movea.l    A0, [A6 + 0x8]
00000C7A  3F28 FFF6                move.w     -[A7], [A0 - 0xA]
00000C7E  3F07                     move.w     -[A7], D7
00000C80  4EAD 18BA                jsr        [A5 + 0x18BA /* export_787, CODE:16 @ 000007C6 */]
00000C84  206E 0008                movea.l    A0, [A6 + 0x8]
00000C88  315F FFF6                move.w     [A0 - 0xA], [A7]+
00000C8C  3A2C FE28                move.w     D5, [A4 - 0x1D8]
00000C90  9A6C FE26                sub.w      D5, [A4 - 0x1DA]
00000C94  4A6C FE26                tst.w      [A4 - 0x1DA]
00000C98  57C0                     seq        D0
00000C9A  C02D D9EF                and.b      D0, [A5 - 0x2611]
00000C9E  6704                     beq        +0x6 /* 00000CA4 */
00000CA0  536B FFF2                subq.w     [A3 - 0xE], 1
label00000CA4:
00000CA4  BA6B FFF2                cmp.w      D5, [A3 - 0xE]
00000CA8  6E1E                     bgt        +0x20 /* 00000CC8 */
00000CAA  4267                     clr.w      -[A7]
00000CAC  206E 0008                movea.l    A0, [A6 + 0x8]
00000CB0  2068 0008                movea.l    A0, [A0 + 0x8]
00000CB4  2F28 0008                move.l     -[A7], [A0 + 0x8]
00000CB8  4EBA F3BE                jsr        [PC - 0xC42 /* 00000078 */]
00000CBC  101F                     move.b     D0, [A7]+
00000CBE  0A00 0001                xori.b     D0, 0x1
00000CC2  1940 FFDD                move.b     [A4 - 0x23], D0
00000CC6  606C                     bra        +0x6E /* 00000D34 */
label00000CC8:
00000CC8  7009                     moveq.l    D0, 0x09
00000CCA  B06B FFF2                cmp.w      D0, [A3 - 0xE]
00000CCE  5DC0                     slt        D0
00000CD0  322B FFF2                move.w     D1, [A3 - 0xE]
00000CD4  D27C 0009                add.w      D1, 0x9 /* '\t' */
00000CD8  B245                     cmp.w      D1, D5
00000CDA  5DC1                     slt        D1
00000CDC  C001                     and.b      D0, D1
00000CDE  206E 0008                movea.l    A0, [A6 + 0x8]
00000CE2  8028 FFF1                or.b       D0, [A0 - 0xF]
00000CE6  0240 0001                andi.w     D0, 0x1
00000CEA  671E                     beq        +0x20 /* 00000D0A */
00000CEC  302B FFF2                move.w     D0, [A3 - 0xE]
00000CF0  D16C FE26                add.w      [A4 - 0x1DA], D0
00000CF4  206E 0008                movea.l    A0, [A6 + 0x8]
00000CF8  1028 FFF2                move.b     D0, [A0 - 0xE]
00000CFC  0A00 0001                xori.b     D0, 0x1
00000D00  206E 0008                movea.l    A0, [A6 + 0x8]
00000D04  1140 FFF3                move.b     [A0 - 0xD], D0
00000D08  602A                     bra        +0x2C /* 00000D34 */
label00000D0A:
00000D0A  486E FFF8                pea.l      [A6 - 0x8]
00000D0E  3F2E 000E                move.w     -[A7], [A6 + 0xE]
00000D12  206E 0008                movea.l    A0, [A6 + 0x8]
00000D16  3F28 FFF4                move.w     -[A7], [A0 - 0xC]
00000D1A  3F2E 000C                move.w     -[A7], [A6 + 0xC]
00000D1E  3F2D DC10                move.w     -[A7], [A5 - 0x23F0]
00000D22  A8A7                     syscall    SetRect
00000D24  486E FFF8                pea.l      [A6 - 0x8]
00000D28  A8A3                     syscall    EraseRect
00000D2A  206E 0008                movea.l    A0, [A6 + 0x8]
00000D2E  117C 0001 FFF3           move.b     [A0 - 0xD], 0x1
label00000D34:
00000D34  4CDF 18E0                movem.l    D5,D6,D7,A3,A4, [A7]+
00000D38  4E5E                     unlink     A6
00000D3A  205F                     movea.l    A0, [A7]+
00000D3C  504F                     addq.w     A7, 8
00000D3E  4ED0                     jmp        [A0]
fn00000D40:
00000D40  4E56 FFFC                link       A6, -0x0004
00000D44  48E7 0118                movem.l    -[A7], D7,A3,A4
00000D48  286E 0008                movea.l    A4, [A6 + 0x8]
00000D4C  266C 0008                movea.l    A3, [A4 + 0x8]
00000D50  286B 0008                movea.l    A4, [A3 + 0x8]
00000D54  102C FFDD                move.b     D0, [A4 - 0x23]
00000D58  206E 0008                movea.l    A0, [A6 + 0x8]
00000D5C  8028 FFF3                or.b       D0, [A0 - 0xD]
00000D60  670C                     beq        +0xE /* 00000D6E */
00000D62  206E 0008                movea.l    A0, [A6 + 0x8]
00000D66  2C48                     movea.l    A6, A0
00000D68  4EFA 01A0                jmp        [PC + 0x1A0 /* 00000F0A */]
00000D6C  0000 42A7                ori.b      D0, 0xA7
// begin alternate branch 00000D6E-00000D70
label00000D6E:
00000D6E  42A7                     clr.l      -[A7]
// end alternate branch 00000D6E-00000D70
label00000D6E: // (misaligned)
00000D70  2F2D F62A                move.l     -[A7], [A5 - 0x9D6]
00000D74  4EAD 1F7A                jsr        [A5 + 0x1F7A /* export_1003, CODE:19 @ 00001744 */]
00000D78  2E1F                     move.l     D7, [A7]+
00000D7A  6608                     bne        +0xA /* 00000D84 */
00000D7C  4EAD 0752                jsr        [A5 + 0x752 /* export_230, CODE:4 @ 00002702 */]
00000D80  6000 0082                bra        +0x84 /* 00000E04 */
label00000D84:
00000D84  2047                     movea.l    A0, D7
00000D86  2050                     movea.l    A0, [A0]
00000D88  2768 0020 FFF8           move.l     [A3 - 0x8], [A0 + 0x20]
00000D8E  2F2D F62A                move.l     -[A7], [A5 - 0x9D6]
00000D92  4267                     clr.w      -[A7]
00000D94  4EAD 1EF2                jsr        [A5 + 0x1EF2 /* export_986, CODE:19 @ 00000450 */]
00000D98  102D D9F2                move.b     D0, [A5 - 0x260E]
00000D9C  677A                     beq        +0x7C /* 00000E18 */
label00000D9E:
00000D9E  202B FFF8                move.l     D0, [A3 - 0x8]
00000DA2  B0AC FFCC                cmp.l      D0, [A4 - 0x34]
00000DA6  6770                     beq        +0x72 /* 00000E18 */
00000DA8  4267                     clr.w      -[A7]
00000DAA  206E 0008                movea.l    A0, [A6 + 0x8]
00000DAE  2068 0008                movea.l    A0, [A0 + 0x8]
00000DB2  2F28 0008                move.l     -[A7], [A0 + 0x8]
00000DB6  4EBA F2C0                jsr        [PC - 0xD40 /* 00000078 */]
00000DBA  101F                     move.b     D0, [A7]+
00000DBC  0A00 0001                xori.b     D0, 0x1
00000DC0  1940 FFDD                move.b     [A4 - 0x23], D0
00000DC4  42A7                     clr.l      -[A7]
00000DC6  2F2D F62A                move.l     -[A7], [A5 - 0x9D6]
00000DCA  4EAD 1F7A                jsr        [A5 + 0x1F7A /* export_1003, CODE:19 @ 00001744 */]
00000DCE  2E1F                     move.l     D7, [A7]+
00000DD0  6606                     bne        +0x8 /* 00000DD8 */
00000DD2  4EAD 0752                jsr        [A5 + 0x752 /* export_230, CODE:4 @ 00002702 */]
00000DD6  602C                     bra        +0x2E /* 00000E04 */
label00000DD8:
00000DD8  2047                     movea.l    A0, D7
00000DDA  2050                     movea.l    A0, [A0]
00000DDC  2768 0020 FFF8           move.l     [A3 - 0x8], [A0 + 0x20]
00000DE2  2F2D F62A                move.l     -[A7], [A5 - 0x9D6]
00000DE6  4267                     clr.w      -[A7]
00000DE8  4EAD 1EF2                jsr        [A5 + 0x1EF2 /* export_986, CODE:19 @ 00000450 */]
00000DEC  4EAD 0802                jsr        [A5 + 0x802 /* export_252, CODE:4 @ 00004A48 */]
00000DF0  4267                     clr.w      -[A7]
00000DF2  4EAD 0722                jsr        [A5 + 0x722 /* export_224, CODE:4 @ 00002452 */]
00000DF6  4A5F                     tst.w      [A7]+
00000DF8  56C0                     sne        D0
00000DFA  802C FFDD                or.b       D0, [A4 - 0x23]
00000DFE  0240 0001                andi.w     D0, 0x1
00000E02  6712                     beq        +0x14 /* 00000E16 */
label00000E04:
00000E04  197C 0001 FFDD           move.b     [A4 - 0x23], 0x1
00000E0A  206E 0008                movea.l    A0, [A6 + 0x8]
00000E0E  2C48                     movea.l    A6, A0
00000E10  4EFA 00F8                jmp        [PC + 0xF8 /* 00000F0A */]
00000E14  0000 6086                ori.b      D0, 0x86
// begin alternate branch 00000E16-00000E18
label00000E16:
00000E16  6086                     bra        -0x78 /* 00000D9E */
// end alternate branch 00000E16-00000E18
label00000E16: // (misaligned)
label00000E18:
00000E18  4CDF 1880                movem.l    D7,A3,A4, [A7]+
00000E1C  4E5E                     unlink     A6
00000E1E  2E9F                     move.l     [A7], [A7]+
00000E20  4E75                     rts
fn00000E22:
00000E22  4E56 FFF0                link       A6, -0x0010
00000E26  48E7 1F38                movem.l    -[A7], D3,D4,D5,D6,D7,A2,A3,A4
00000E2A  3D6D DC06 FFFC           move.w     [A6 - 0x4], [A5 - 0x23FA]
00000E30  206E 0008                movea.l    A0, [A6 + 0x8]
00000E34  2068 0008                movea.l    A0, [A0 + 0x8]
00000E38  3D68 FEC8 FFFE           move.w     [A6 - 0x2], [A0 - 0x138]
00000E3E  4267                     clr.w      -[A7]
00000E40  4EAD 068A                jsr        [A5 + 0x68A /* export_205, CODE:4 @ 0000184A */]
00000E44  301F                     move.w     D0, [A7]+
00000E46  D06E FFFE                add.w      D0, [A6 - 0x2]
00000E4A  3D40 FFF8                move.w     [A6 - 0x8], D0
00000E4E  3D6D DC0A FFFA           move.w     [A6 - 0x6], [A5 - 0x23F6]
00000E54  3D6D DC04 FFF4           move.w     [A6 - 0xC], [A5 - 0x23FC]
00000E5A  3D6E FFF4 FFF6           move.w     [A6 - 0xA], [A6 - 0xC]
00000E60  422E FFF3                clr.b      [A6 - 0xD]
00000E64  1D7C 0001 FFF2           move.b     [A6 - 0xE], 0x1
00000E6A  1D7C 0001 FFF1           move.b     [A6 - 0xF], 0x1
label00000E70:
00000E70  2F0E                     move.l     -[A7], A6
00000E72  4EBA FECC                jsr        [PC - 0x134 /* 00000D40 */]
00000E76  4267                     clr.w      -[A7]
00000E78  3F2E FFFC                move.w     -[A7], [A6 - 0x4]
00000E7C  3F2E FFFE                move.w     -[A7], [A6 - 0x2]
00000E80  2F0E                     move.l     -[A7], A6
00000E82  4EBA FD6E                jsr        [PC - 0x292 /* 00000BF2 */]
00000E86  101F                     move.b     D0, [A7]+
00000E88  67E6                     beq        -0x18 /* 00000E70 */
00000E8A  422E FFF2                clr.b      [A6 - 0xE]
label00000E8E:
00000E8E  2F0E                     move.l     -[A7], A6
00000E90  4EBA FEAE                jsr        [PC - 0x152 /* 00000D40 */]
00000E94  4267                     clr.w      -[A7]
00000E96  3F2E FFF8                move.w     -[A7], [A6 - 0x8]
00000E9A  3F2E FFFA                move.w     -[A7], [A6 - 0x6]
00000E9E  2F0E                     move.l     -[A7], A6
00000EA0  4EBA FD50                jsr        [PC - 0x2B0 /* 00000BF2 */]
00000EA4  101F                     move.b     D0, [A7]+
00000EA6  67E6                     beq        -0x18 /* 00000E8E */
00000EA8  422E FFF1                clr.b      [A6 - 0xF]
00000EAC  206D DBF8                movea.l    A0, [A5 - 0x2408]
00000EB0  2050                     movea.l    A0, [A0]
00000EB2  3028 0018                move.w     D0, [A0 + 0x18]
00000EB6  C1FC 0003                muls.w     D0, 0x3
00000EBA  48C0                     ext.l      D0
00000EBC  81FC 0002                divs.w     D0, 0x2
00000EC0  D06E FFF6                add.w      D0, [A6 - 0xA]
00000EC4  3D40 FFF4                move.w     [A6 - 0xC], D0
00000EC8  B06D DC08                cmp.w      D0, [A5 - 0x23F8]
00000ECC  5CC0                     sge        D0
00000ECE  802E FFF3                or.b       D0, [A6 - 0xD]
00000ED2  0240 0001                andi.w     D0, 0x1
00000ED6  1D40 FFF3                move.b     [A6 - 0xD], D0
00000EDA  4EAD 0802                jsr        [A5 + 0x802 /* export_252, CODE:4 @ 00004A48 */]
00000EDE  4267                     clr.w      -[A7]
00000EE0  4EAD 0722                jsr        [A5 + 0x722 /* export_224, CODE:4 @ 00002452 */]
00000EE4  4A5F                     tst.w      [A7]+
00000EE6  670E                     beq        +0x10 /* 00000EF6 */
00000EE8  206E 0008                movea.l    A0, [A6 + 0x8]
00000EEC  2068 0008                movea.l    A0, [A0 + 0x8]
00000EF0  117C 0001 FFDD           move.b     [A0 - 0x23], 0x1
label00000EF6:
00000EF6  206E 0008                movea.l    A0, [A6 + 0x8]
00000EFA  2068 0008                movea.l    A0, [A0 + 0x8]
00000EFE  1028 FFDD                move.b     D0, [A0 - 0x23]
00000F02  802E FFF3                or.b       D0, [A6 - 0xD]
00000F06  6700 FF68                beq        -0x96 /* 00000E70 */
label00000F0A:
00000F0A  4FEE FFD0                lea.l      A7, [A6 - 0x30]
00000F0E  4CDF 1CF8                movem.l    D3,D4,D5,D6,D7,A2,A3,A4, [A7]+
00000F12  4E5E                     unlink     A6
00000F14  2E9F                     move.l     [A7], [A7]+
00000F16  4E75                     rts
fn00000F18:
00000F18  4E56 FFEE                link       A6, -0x0012
00000F1C  486E FFEE                pea.l      [A6 - 0x12]
00000F20  A874                     syscall    GetPort
00000F22  42A7                     clr.l      -[A7]
00000F24  4EAD 0672                jsr        [A5 + 0x672 /* export_202, CODE:4 @ 0000164A */]
00000F28  A887                     syscall    TextFont
00000F2A  4267                     clr.w      -[A7]
00000F2C  1F3C 0004                move.b     -[A7], 0x4
00000F30  4EAD 067A                jsr        [A5 + 0x67A /* export_203, CODE:4 @ 000016BA */]
00000F34  A88A                     syscall    TextSize
00000F36  7002                     moveq.l    D0, 0x02
00000F38  B02D D9F5                cmp.b      D0, [A5 - 0x260B]
00000F3C  6608                     bne        +0xA /* 00000F46 */
00000F3E  2F0E                     move.l     -[A7], A6
00000F40  4EBA FEE0                jsr        [PC - 0x120 /* 00000E22 */]
00000F44  6006                     bra        +0x8 /* 00000F4C */
label00000F46:
00000F46  2F0E                     move.l     -[A7], A6
00000F48  4EBA FAE4                jsr        [PC - 0x51C /* 00000A2E */]
label00000F4C:
00000F4C  2F2E FFEE                move.l     -[A7], [A6 - 0x12]
00000F50  A873                     syscall    SetPort
00000F52  4E5E                     unlink     A6
00000F54  2E9F                     move.l     [A7], [A7]+
00000F56  4E75                     rts
fn00000F58:
00000F58  4E56 FFEA                link       A6, -0x0016
00000F5C  48E7 0F18                movem.l    -[A7], D4,D5,D6,D7,A3,A4
00000F60  286E 0010                movea.l    A4, [A6 + 0x10]
00000F64  486E FFEC                pea.l      [A6 - 0x14]
00000F68  A874                     syscall    GetPort
00000F6A  2F0C                     move.l     -[A7], A4
00000F6C  A873                     syscall    SetPort
00000F6E  2F2E 000C                move.l     -[A7], [A6 + 0xC]
00000F72  A89A                     syscall    GetPen
00000F74  206E 000C                movea.l    A0, [A6 + 0xC]
00000F78  3010                     move.w     D0, [A0]
00000F7A  B06C 000C                cmp.w      D0, [A4 + 0xC]
00000F7E  6D08                     blt        +0xA /* 00000F88 */
00000F80  206E 000C                movea.l    A0, [A6 + 0xC]
00000F84  4250                     clr.w      [A0]
00000F86  6016                     bra        +0x18 /* 00000F9E */
label00000F88:
00000F88  206E 000C                movea.l    A0, [A6 + 0xC]
00000F8C  302C 000C                move.w     D0, [A4 + 0xC]
00000F90  9050                     sub.w      D0, [A0]
00000F92  48C0                     ext.l      D0
00000F94  81FC 0002                divs.w     D0, 0x2
00000F98  206E 000C                movea.l    A0, [A6 + 0xC]
00000F9C  3080                     move.w     [A0], D0
label00000F9E:
00000F9E  4EAD 181A                jsr        [A5 + 0x181A /* export_767, CODE:16 @ 00000216 */]
00000FA2  7E04                     moveq.l    D7, 0x04
00000FA4  206E 000C                movea.l    A0, [A6 + 0xC]
00000FA8  317C FFFC 0002           move.w     [A0 + 0x2], 0xFFFC
00000FAE  302C 0006                move.w     D0, [A4 + 0x6]
00000FB2  48C0                     ext.l      D0
00000FB4  D0AC 0002                add.l      D0, [A4 + 0x2]
00000FB8  2640                     movea.l    A3, D0
00000FBA  97FC 0000 0001           sub.l      A3, 0x1
00000FC0  3C2C 0006                move.w     D6, [A4 + 0x6]
label00000FC4:
00000FC4  2A0B                     move.l     D5, A3
00000FC6  302C 000C                move.w     D0, [A4 + 0xC]
00000FCA  5340                     subq.w     D0, 1
00000FCC  3D40 FFEA                move.w     [A6 - 0x16], D0
00000FD0  382C 0008                move.w     D4, [A4 + 0x8]
00000FD4  6016                     bra        +0x18 /* 00000FEC */
label00000FD6:
00000FD6  2045                     movea.l    A0, D5
00000FD8  4A10                     tst.b      [A0]
00000FDA  6704                     beq        +0x6 /* 00000FE0 */
00000FDC  4247                     clr.w      D7
00000FDE  6012                     bra        +0x14 /* 00000FF2 */
label00000FE0:
00000FE0  302C 0006                move.w     D0, [A4 + 0x6]
00000FE4  48C0                     ext.l      D0
00000FE6  DA80                     add.l      D5, D0
00000FE8  5244                     addq.w     D4, 1
00000FEA  6906                     bvs        +0x8 /* 00000FF2 */
label00000FEC:
00000FEC  B86E FFEA                cmp.w      D4, [A6 - 0x16]
00000FF0  6FE4                     ble        -0x1A /* 00000FD6 */
label00000FF2:
00000FF2  206E 000C                movea.l    A0, [A6 + 0xC]
00000FF6  3007                     move.w     D0, D7
00000FF8  D068 0002                add.w      D0, [A0 + 0x2]
00000FFC  206E 000C                movea.l    A0, [A6 + 0xC]
00001000  3140 0002                move.w     [A0 + 0x2], D0
00001004  538B                     subq.l     A3, 1
00001006  5346                     subq.w     D6, 1
00001008  4A47                     tst.w      D7
0000100A  57C0                     seq        D0
0000100C  322C 0006                move.w     D1, [A4 + 0x6]
00001010  48C1                     ext.l      D1
00001012  83FC 0002                divs.w     D1, 0x2
00001016  B246                     cmp.w      D1, D6
00001018  5EC1                     sgt        D1
0000101A  8001                     or.b       D0, D1
0000101C  67A6                     beq        -0x58 /* 00000FC4 */
0000101E  206E 000C                movea.l    A0, [A6 + 0xC]
00001022  4A68 0002                tst.w      [A0 + 0x2]
00001026  6C08                     bge        +0xA /* 00001030 */
00001028  206E 000C                movea.l    A0, [A6 + 0xC]
0000102C  4268 0002                clr.w      [A0 + 0x2]
label00001030:
00001030  2F2E FFEC                move.l     -[A7], [A6 - 0x14]
00001034  A873                     syscall    SetPort
00001036  4CDF 18F0                movem.l    D4,D5,D6,D7,A3,A4, [A7]+
0000103A  4E5E                     unlink     A6
0000103C  205F                     movea.l    A0, [A7]+
0000103E  DEFC 000C                add.w      A7, 0xC
00001042  4ED0                     jmp        [A0]
fn00001044:
00001044  4E56 FFF4                link       A6, -0x000C
00001048  48E7 0308                movem.l    -[A7], D6,D7,A4
0000104C  206E 000C                movea.l    A0, [A6 + 0xC]
00001050  43EE FFF8                lea.l      A1, [A6 - 0x8]
00001054  22D8                     move.l     [A1]+, [A0]+
00001056  22D8                     move.l     [A1]+, [A0]+
00001058  49ED DC0C                lea.l      A4, [A5 - 0x23F4]
0000105C  206E 0010                movea.l    A0, [A6 + 0x10]
00001060  3E14                     move.w     D7, [A4]
00001062  9E50                     sub.w      D7, [A0]
00001064  4A47                     tst.w      D7
00001066  6F0A                     ble        +0xC /* 00001072 */
00001068  2F2E 0010                move.l     -[A7], [A6 + 0x10]
0000106C  4267                     clr.w      -[A7]
0000106E  3F07                     move.w     -[A7], D7
00001070  A8A8                     syscall    OffsetRect
label00001072:
00001072  206E 0010                movea.l    A0, [A6 + 0x10]
00001076  3E2C 0002                move.w     D7, [A4 + 0x2]
0000107A  9E68 0002                sub.w      D7, [A0 + 0x2]
0000107E  4A47                     tst.w      D7
00001080  6F0A                     ble        +0xC /* 0000108C */
00001082  2F2E 0010                move.l     -[A7], [A6 + 0x10]
00001086  3F07                     move.w     -[A7], D7
00001088  4267                     clr.w      -[A7]
0000108A  A8A8                     syscall    OffsetRect
label0000108C:
0000108C  206E 0010                movea.l    A0, [A6 + 0x10]
00001090  3E2C 0004                move.w     D7, [A4 + 0x4]
00001094  9E68 0004                sub.w      D7, [A0 + 0x4]
00001098  4A47                     tst.w      D7
0000109A  6C0A                     bge        +0xC /* 000010A6 */
0000109C  2F2E 0010                move.l     -[A7], [A6 + 0x10]
000010A0  4267                     clr.w      -[A7]
000010A2  3F07                     move.w     -[A7], D7
000010A4  A8A8                     syscall    OffsetRect
label000010A6:
000010A6  206E 0010                movea.l    A0, [A6 + 0x10]
000010AA  3E2C 0006                move.w     D7, [A4 + 0x6]
000010AE  9E68 0006                sub.w      D7, [A0 + 0x6]
000010B2  4A47                     tst.w      D7
000010B4  6C0A                     bge        +0xC /* 000010C0 */
000010B6  2F2E 0010                move.l     -[A7], [A6 + 0x10]
000010BA  3F07                     move.w     -[A7], D7
000010BC  4267                     clr.w      -[A7]
000010BE  A8A8                     syscall    OffsetRect
label000010C0:
000010C0  4267                     clr.w      -[A7]
000010C2  2F2E 0010                move.l     -[A7], [A6 + 0x10]
000010C6  486E FFF8                pea.l      [A6 - 0x8]
000010CA  2F2E 0010                move.l     -[A7], [A6 + 0x10]
000010CE  A8AA                     syscall    SectRect
000010D0  1C1F                     move.b     D6, [A7]+
000010D2  286E 0010                movea.l    A4, [A6 + 0x10]
000010D6  302C 0004                move.w     D0, [A4 + 0x4]
000010DA  5240                     addq.w     D0, 1
000010DC  322C 0004                move.w     D1, [A4 + 0x4]
000010E0  9254                     sub.w      D1, [A4]
000010E2  206D DBF8                movea.l    A0, [A5 - 0x2408]
000010E6  2050                     movea.l    A0, [A0]
000010E8  48C1                     ext.l      D1
000010EA  83E8 0018                divs.w     D1, [A0 + 0x18]
000010EE  4841                     swap.w     D1
000010F0  4A41                     tst.w      D1
000010F2  9041                     sub.w      D0, D1
000010F4  3940 0004                move.w     [A4 + 0x4], D0
000010F8  4CDF 10C0                movem.l    D6,D7,A4, [A7]+
000010FC  4E5E                     unlink     A6
000010FE  205F                     movea.l    A0, [A7]+
00001100  DEFC 000C                add.w      A7, 0xC
00001104  4ED0                     jmp        [A0]
fn00001106:
00001106  4E56 0000                link       A6, 0
0000110A  2F0C                     move.l     -[A7], A4
0000110C  286E 0008                movea.l    A4, [A6 + 0x8]
00001110  4AAC FFA8                tst.l      [A4 - 0x58]
00001114  6752                     beq        +0x54 /* 00001168 */
00001116  42A7                     clr.l      -[A7]
00001118  2F2C FFA8                move.l     -[A7], [A4 - 0x58]
0000111C  4EAD 1ADA                jsr        [A5 + 0x1ADA /* export_855, CODE:16 @ 00001C66 */]
00001120  295F FFA4                move.l     [A4 - 0x5C], [A7]+
00001124  6F42                     ble        +0x44 /* 00001168 */
00001126  4EAD 181A                jsr        [A5 + 0x181A /* export_767, CODE:16 @ 00000216 */]
0000112A  2F2C FFA8                move.l     -[A7], [A4 - 0x58]
0000112E  2F2C FFA4                move.l     -[A7], [A4 - 0x5C]
00001132  486C FFF8                pea.l      [A4 - 0x8]
00001136  486C FFF8                pea.l      [A4 - 0x8]
0000113A  206E 0008                movea.l    A0, [A6 + 0x8]
0000113E  2F28 0008                move.l     -[A7], [A0 + 0x8]
00001142  4EBA EF9C                jsr        [PC - 0x1064 /* 000000E0 */]
00001146  486C FFAC                pea.l      [A4 - 0x54]
0000114A  A89A                     syscall    GetPen
0000114C  206D DBF8                movea.l    A0, [A5 - 0x2408]
00001150  2050                     movea.l    A0, [A0]
00001152  302C FFAC                move.w     D0, [A4 - 0x54]
00001156  9068 001A                sub.w      D0, [A0 + 0x1A]
0000115A  3940 FFF8                move.w     [A4 - 0x8], D0
0000115E  206E 0008                movea.l    A0, [A6 + 0x8]
00001162  117C 0001 0016           move.b     [A0 + 0x16], 0x1
label00001168:
00001168  285F                     movea.l    A4, [A7]+
0000116A  4E5E                     unlink     A6
0000116C  2E9F                     move.l     [A7], [A7]+
0000116E  4E75                     rts
fn00001170:
00001170  4E56 0000                link       A6, 0
00001174  48E7 0018                movem.l    -[A7], A3,A4
00001178  266E 0008                movea.l    A3, [A6 + 0x8]
0000117C  286B 0008                movea.l    A4, [A3 + 0x8]
00001180  4267                     clr.w      -[A7]
00001182  2F2D F622                move.l     -[A7], [A5 - 0x9DE]
00001186  3F2B FFFC                move.w     -[A7], [A3 - 0x4]
0000118A  3F3C 0002                move.w     -[A7], 0x2
0000118E  4EAD 1DBA                jsr        [A5 + 0x1DBA /* export_947, CODE:18 @ 00000D64 */]
00001192  375F FFFA                move.w     [A3 - 0x6], [A7]+
00001196  42A7                     clr.l      -[A7]
00001198  2F2C FFF0                move.l     -[A7], [A4 - 0x10]
0000119C  3F2B FFFA                move.w     -[A7], [A3 - 0x6]
000011A0  4EAD 1C32                jsr        [A5 + 0x1C32 /* export_898, CODE:17 @ 00000A32 */]
000011A4  295F FFA8                move.l     [A4 - 0x58], [A7]+
000011A8  206E 0008                movea.l    A0, [A6 + 0x8]
000011AC  2F28 0008                move.l     -[A7], [A0 + 0x8]
000011B0  4EBA FF54                jsr        [PC - 0xAC /* 00001106 */]
000011B4  4CDF 1800                movem.l    A3,A4, [A7]+
000011B8  4E5E                     unlink     A6
000011BA  2E9F                     move.l     [A7], [A7]+
000011BC  4E75                     rts
fn000011BE:
000011BE  4E56 FFF4                link       A6, -0x000C
000011C2  48E7 0300                movem.l    -[A7], D6,D7
000011C6  102E 000C                move.b     D0, [A6 + 0xC]
000011CA  673A                     beq        +0x3C /* 00001206 */
000011CC  42A7                     clr.l      -[A7]
000011CE  2F2D F622                move.l     -[A7], [A5 - 0x9DE]
000011D2  3F3C 0002                move.w     -[A7], 0x2
000011D6  4EAD 1D32                jsr        [A5 + 0x1D32 /* export_930, CODE:18 @ 0000012E */]
000011DA  4267                     clr.w      -[A7]
000011DC  4EAD 18BA                jsr        [A5 + 0x18BA /* export_787, CODE:16 @ 000007C6 */]
000011E0  3C1F                     move.w     D6, [A7]+
000011E2  3D46 FFF6                move.w     [A6 - 0xA], D6
000011E6  3D7C 0001 FFFC           move.w     [A6 - 0x4], 0x1
000011EC  600C                     bra        +0xE /* 000011FA */
label000011EE:
000011EE  2F0E                     move.l     -[A7], A6
000011F0  4EBA FF7E                jsr        [PC - 0x82 /* 00001170 */]
000011F4  526E FFFC                addq.w     [A6 - 0x4], 1
000011F8  690A                     bvs        +0xC /* 00001204 */
label000011FA:
000011FA  302E FFFC                move.w     D0, [A6 - 0x4]
000011FE  B06E FFF6                cmp.w      D0, [A6 - 0xA]
00001202  6FEA                     ble        -0x14 /* 000011EE */
label00001204:
00001204  602A                     bra        +0x2C /* 00001230 */
label00001206:
00001206  3D6D D7D6 FFF4           move.w     [A6 - 0xC], [A5 - 0x282A]
0000120C  7E01                     moveq.l    D7, 0x01
0000120E  601A                     bra        +0x1C /* 0000122A */
label00001210:
00001210  3007                     move.w     D0, D7
00001212  5340                     subq.w     D0, 1
00001214  41ED D7D8                lea.l      A0, [A5 - 0x2828]
00001218  E540                     asl        D0.w, 2
0000121A  3D70 0000 FFFC           move.w     [A6 - 0x4], [A0 + D0.w]
00001220  2F0E                     move.l     -[A7], A6
00001222  4EBA FF4C                jsr        [PC - 0xB4 /* 00001170 */]
00001226  5247                     addq.w     D7, 1
00001228  6906                     bvs        +0x8 /* 00001230 */
label0000122A:
0000122A  BE6E FFF4                cmp.w      D7, [A6 - 0xC]
0000122E  6FE0                     ble        -0x1E /* 00001210 */
label00001230:
00001230  4CDF 00C0                movem.l    D6,D7, [A7]+
00001234  4E5E                     unlink     A6
00001236  205F                     movea.l    A0, [A7]+
00001238  5C4F                     addq.w     A7, 6
0000123A  4ED0                     jmp        [A0]
fn0000123C:
0000123C  4E56 FFF8                link       A6, -0x0008
00001240  48E7 0118                movem.l    -[A7], D7,A3,A4
00001244  286E 0008                movea.l    A4, [A6 + 0x8]
00001248  206C FFF0                movea.l    A0, [A4 - 0x10]
0000124C  2650                     movea.l    A3, [A0]
0000124E  7032                     moveq.l    D0, 0x32
00001250  D7C0                     add.l      A3, D0
00001252  206C FFF0                movea.l    A0, [A4 - 0x10]
00001256  2050                     movea.l    A0, [A0]
00001258  3D68 0024 FFF8           move.w     [A6 - 0x8], [A0 + 0x24]
0000125E  7E01                     moveq.l    D7, 0x01
00001260  6030                     bra        +0x32 /* 00001292 */
label00001262:
00001262  7002                     moveq.l    D0, 0x02
00001264  B02B 0004                cmp.b      D0, [A3 + 0x4]
00001268  661E                     bne        +0x20 /* 00001288 */
0000126A  42A7                     clr.l      -[A7]
0000126C  2F2C FFF0                move.l     -[A7], [A4 - 0x10]
00001270  302B 0002                move.w     D0, [A3 + 0x2]
00001274  4440                     neg.w      D0
00001276  3F00                     move.w     -[A7], D0
00001278  4EAD 1C32                jsr        [A5 + 0x1C32 /* export_898, CODE:17 @ 00000A32 */]
0000127C  295F FFA8                move.l     [A4 - 0x58], [A7]+
00001280  2F2E 0008                move.l     -[A7], [A6 + 0x8]
00001284  4EBA FE80                jsr        [PC - 0x180 /* 00001106 */]
label00001288:
00001288  3013                     move.w     D0, [A3]
0000128A  48C0                     ext.l      D0
0000128C  D7C0                     add.l      A3, D0
0000128E  5247                     addq.w     D7, 1
00001290  6906                     bvs        +0x8 /* 00001298 */
label00001292:
00001292  BE6E FFF8                cmp.w      D7, [A6 - 0x8]
00001296  6FCA                     ble        -0x34 /* 00001262 */
label00001298:
00001298  4CDF 1880                movem.l    D7,A3,A4, [A7]+
0000129C  4E5E                     unlink     A6
0000129E  2E9F                     move.l     [A7], [A7]+
000012A0  4E75                     rts
fn000012A2:
000012A2  4E56 FFA2                link       A6, -0x005E
000012A6  48E7 0318                movem.l    -[A7], D6,D7,A3,A4
000012AA  206E 0012                movea.l    A0, [A6 + 0x12]
000012AE  43EE FFF8                lea.l      A1, [A6 - 0x8]
000012B2  22D8                     move.l     [A1]+, [A0]+
000012B4  22D8                     move.l     [A1]+, [A0]+
000012B6  286E 000E                movea.l    A4, [A6 + 0xE]
000012BA  486E FFF4                pea.l      [A6 - 0xC]
000012BE  A874                     syscall    GetPort
000012C0  2F0C                     move.l     -[A7], A4
000012C2  A873                     syscall    SetPort
000012C4  42A7                     clr.l      -[A7]
000012C6  4EAD 0672                jsr        [A5 + 0x672 /* export_202, CODE:4 @ 0000164A */]
000012CA  A887                     syscall    TextFont
000012CC  4267                     clr.w      -[A7]
000012CE  1F3C 0003                move.b     -[A7], 0x3
000012D2  4EAD 067A                jsr        [A5 + 0x67A /* export_203, CODE:4 @ 000016BA */]
000012D6  A88A                     syscall    TextSize
000012D8  102D F2B3                move.b     D0, [A5 - 0xD4D]
000012DC  6708                     beq        +0xA /* 000012E6 */
000012DE  3F2D F2BC                move.w     -[A7], [A5 - 0xD44]
000012E2  4EAD 21D2                jsr        [A5 + 0x21D2 /* export_1078, CODE:20 @ 00004516 */]
label000012E6:
000012E6  3F3A 0146                move.w     -[A7], [PC + 0x146 /* 0000142E, value 0x0, cstring "" */]
000012EA  A888                     syscall    TextFace
000012EC  42A7                     clr.l      -[A7]
000012EE  2F2D F62A                move.l     -[A7], [A5 - 0x9D6]
000012F2  4EAD 1F7A                jsr        [A5 + 0x1F7A /* export_1003, CODE:19 @ 00001744 */]
000012F6  2D5F FFF0                move.l     [A6 - 0x10], [A7]+
000012FA  6608                     bne        +0xA /* 00001304 */
000012FC  4EAD 0752                jsr        [A5 + 0x752 /* export_230, CODE:4 @ 00002702 */]
00001300  6000 0114                bra        +0x116 /* 00001416 */
label00001304:
00001304  42A7                     clr.l      -[A7]
00001306  206E FFF0                movea.l    A0, [A6 - 0x10]
0000130A  2050                     movea.l    A0, [A0]
0000130C  2F28 0020                move.l     -[A7], [A0 + 0x20]
00001310  4EAD 1F6A                jsr        [A5 + 0x1F6A /* export_1001, CODE:19 @ 000016EC */]
00001314  265F                     movea.l    A3, [A7]+
00001316  200B                     move.l     D0, A3
00001318  6608                     bne        +0xA /* 00001322 */
0000131A  4EAD 0752                jsr        [A5 + 0x752 /* export_230, CODE:4 @ 00002702 */]
0000131E  6000 00EC                bra        +0xEE /* 0000140C */
label00001322:
00001322  2F0B                     move.l     -[A7], A3
00001324  4EAD 01DA                jsr        [A5 + 0x1DA /* export_55, CODE:1 @ 000043FE */]
00001328  2F2E FFF0                move.l     -[A7], [A6 - 0x10]
0000132C  4EAD 01DA                jsr        [A5 + 0x1DA /* export_55, CODE:1 @ 000043FE */]
00001330  2F0B                     move.l     -[A7], A3
00001332  486E FFA3                pea.l      [A6 - 0x5D]
00001336  4EAD 1922                jsr        [A5 + 0x1922 /* export_800, CODE:16 @ 00000C02 */]
0000133A  2F2E FFF0                move.l     -[A7], [A6 - 0x10]
0000133E  486E FFA2                pea.l      [A6 - 0x5E]
00001342  4EAD 1922                jsr        [A5 + 0x1922 /* export_800, CODE:16 @ 00000C02 */]
00001346  2E2C 0068                move.l     D7, [A4 + 0x68]
0000134A  660E                     bne        +0x10 /* 0000135A */
0000134C  486E FFB0                pea.l      [A6 - 0x50]
00001350  A8EA                     syscall    SetStdProcs
00001352  41EE FFB0                lea.l      A0, [A6 - 0x50]
00001356  2948 0068                move.l     [A4 + 0x68], A0
label0000135A:
0000135A  206C 0068                movea.l    A0, [A4 + 0x68]
0000135E  2C28 0008                move.l     D6, [A0 + 0x8]
00001362  41ED 06B2                lea.l      A0, [A5 + 0x6B2 /* export_210, CODE:4 @ 00001C94 */]
00001366  226C 0068                movea.l    A1, [A4 + 0x68]
0000136A  2348 0008                move.l     [A1 + 0x8], A0
0000136E  206D DBF8                movea.l    A0, [A5 - 0x2408]
00001372  2050                     movea.l    A0, [A0]
00001374  214C 0052                move.l     [A0 + 0x52], A4
00001378  422E 0016                clr.b      [A6 + 0x16]
0000137C  102D D9F3                move.b     D0, [A5 - 0x260D]
00001380  4880                     ext.w      D0
00001382  4A40                     tst.w      D0
00001384  6B18                     bmi        +0x1A /* 0000139E */
00001386  B07C 0007                cmp.w      D0, 0x7
0000138A  6E12                     bgt        +0x14 /* 0000139E */
0000138C  41FA 00A0                lea.l      A0, [PC + 0xA0 /* 0000142E, value 0x4E56 'NV', cstring "" */]
00001390  3200                     move.w     D1, D0
00001392  E649                     lsr        D1.w, 3
00001394  4441                     neg.w      D1
00001396  0130 10FF                btst       [A0 + D1.w - 0x1], D0
0000139A  0A3C 0004                xori.b     ccr, 4
label0000139E:
0000139E  6610                     bne        +0x12 /* 000013B0 */
000013A0  102D D9F2                move.b     D0, [A5 - 0x260E]
000013A4  0A00 0001                xori.b     D0, 0x1
000013A8  1F00                     move.b     -[A7], D0
000013AA  2F0E                     move.l     -[A7], A6
000013AC  4EBA FE10                jsr        [PC - 0x1F0 /* 000011BE */]
label000013B0:
000013B0  102D D9F3                move.b     D0, [A5 - 0x260D]
000013B4  4880                     ext.w      D0
000013B6  4A40                     tst.w      D0
000013B8  6B18                     bmi        +0x1A /* 000013D2 */
000013BA  B07C 0007                cmp.w      D0, 0x7
000013BE  6E12                     bgt        +0x14 /* 000013D2 */
000013C0  41FA 006A                lea.l      A0, [PC + 0x6A /* 0000142C, value 0xC0000, cstring "" */]
000013C4  3200                     move.w     D1, D0
000013C6  E649                     lsr        D1.w, 3
000013C8  4441                     neg.w      D1
000013CA  0130 10FF                btst       [A0 + D1.w - 0x1], D0
000013CE  0A3C 0004                xori.b     ccr, 4
label000013D2:
000013D2  6606                     bne        +0x8 /* 000013DA */
000013D4  2F0E                     move.l     -[A7], A6
000013D6  4EBA FE64                jsr        [PC - 0x19C /* 0000123C */]
label000013DA:
000013DA  206C 0068                movea.l    A0, [A4 + 0x68]
000013DE  2146 0008                move.l     [A0 + 0x8], D6
000013E2  2947 0068                move.l     [A4 + 0x68], D7
000013E6  2F0B                     move.l     -[A7], A3
000013E8  1F2E FFA3                move.b     -[A7], [A6 - 0x5D]
000013EC  4EAD 03F2                jsr        [A5 + 0x3F2 /* export_122, CODE:1 @ 00004D00 */]
000013F0  2F2E FFF0                move.l     -[A7], [A6 - 0x10]
000013F4  1F2E FFA2                move.b     -[A7], [A6 - 0x5E]
000013F8  4EAD 03F2                jsr        [A5 + 0x3F2 /* export_122, CODE:1 @ 00004D00 */]
000013FC  206E FFF0                movea.l    A0, [A6 - 0x10]
00001400  2050                     movea.l    A0, [A0]
00001402  2F28 0020                move.l     -[A7], [A0 + 0x20]
00001406  4267                     clr.w      -[A7]
00001408  4EAD 1EE2                jsr        [A5 + 0x1EE2 /* export_984, CODE:19 @ 00000414 */]
label0000140C:
0000140C  2F2D F62A                move.l     -[A7], [A5 - 0x9D6]
00001410  4267                     clr.w      -[A7]
00001412  4EAD 1EF2                jsr        [A5 + 0x1EF2 /* export_986, CODE:19 @ 00000450 */]
label00001416:
00001416  2F2E FFF4                move.l     -[A7], [A6 - 0xC]
0000141A  A873                     syscall    SetPort
0000141C  4CDF 18C0                movem.l    D6,D7,A3,A4, [A7]+
00001420  4E5E                     unlink     A6
00001422  205F                     movea.l    A0, [A7]+
00001424  DEFC 000E                add.w      A7, 0xE
00001428  4ED0                     jmp        [A0]
0000142A  000A 000C                ori.b      A2, 0xC
0000142E  0000 4E56                ori.b      D0, 0x56 /* 'V' */
// begin alternate branch 00001430-00001434
fn00001430:
00001430  4E56 FFF8                link       A6, -0x0008
// end alternate branch 00001430-00001434
fn00001430: // (misaligned)
00001432  FFF8                     .invalid   <<F/7/7>>
00001434  2F0C                     move.l     -[A7], A4
00001436  206E 0012                movea.l    A0, [A6 + 0x12]
0000143A  43EE FFF8                lea.l      A1, [A6 - 0x8]
0000143E  22D8                     move.l     [A1]+, [A0]+
00001440  22D8                     move.l     [A1]+, [A0]+
00001442  206E 000E                movea.l    A0, [A6 + 0xE]
00001446  2F08                     move.l     -[A7], A0
00001448  4267                     clr.w      -[A7]
0000144A  3F2E FFF8                move.w     -[A7], [A6 - 0x8]
0000144E  486D D9D8                pea.l      [A5 - 0x2628]
00001452  4EAD 062A                jsr        [A5 + 0x62A /* export_193, CODE:4 @ 0000107A */]
00001456  301F                     move.w     D0, [A7]+
00001458  205F                     movea.l    A0, [A7]+
0000145A  3080                     move.w     [A0], D0
0000145C  206E 000E                movea.l    A0, [A6 + 0xE]
00001460  2F08                     move.l     -[A7], A0
00001462  4267                     clr.w      -[A7]
00001464  3F2E FFFA                move.w     -[A7], [A6 - 0x6]
00001468  486D D9D8                pea.l      [A5 - 0x2628]
0000146C  4EAD 062A                jsr        [A5 + 0x62A /* export_193, CODE:4 @ 0000107A */]
00001470  301F                     move.w     D0, [A7]+
00001472  205F                     movea.l    A0, [A7]+
00001474  3140 0002                move.w     [A0 + 0x2], D0
00001478  206E 000E                movea.l    A0, [A6 + 0xE]
0000147C  2F08                     move.l     -[A7], A0
0000147E  4267                     clr.w      -[A7]
00001480  3F2E FFFC                move.w     -[A7], [A6 - 0x4]
00001484  486D D9D8                pea.l      [A5 - 0x2628]
00001488  4EAD 062A                jsr        [A5 + 0x62A /* export_193, CODE:4 @ 0000107A */]
0000148C  301F                     move.w     D0, [A7]+
0000148E  205F                     movea.l    A0, [A7]+
00001490  3140 0004                move.w     [A0 + 0x4], D0
00001494  206E 000E                movea.l    A0, [A6 + 0xE]
00001498  2F08                     move.l     -[A7], A0
0000149A  4267                     clr.w      -[A7]
0000149C  3F2E FFFE                move.w     -[A7], [A6 - 0x2]
000014A0  486D D9D8                pea.l      [A5 - 0x2628]
000014A4  4EAD 062A                jsr        [A5 + 0x62A /* export_193, CODE:4 @ 0000107A */]
000014A8  301F                     move.w     D0, [A7]+
000014AA  205F                     movea.l    A0, [A7]+
000014AC  3140 0006                move.w     [A0 + 0x6], D0
000014B0  206E 0008                movea.l    A0, [A6 + 0x8]
000014B4  49E8 FE2C                lea.l      A4, [A0 - 0x1D4]
000014B8  102E 000C                move.b     D0, [A6 + 0xC]
000014BC  670E                     beq        +0x10 /* 000014CC */
000014BE  2F2E 000E                move.l     -[A7], [A6 + 0xE]
000014C2  3F14                     move.w     -[A7], [A4]
000014C4  3F2C 0002                move.w     -[A7], [A4 + 0x2]
000014C8  A8A8                     syscall    OffsetRect
000014CA  600C                     bra        +0xE /* 000014D8 */
label000014CC:
000014CC  2F2E 000E                move.l     -[A7], [A6 + 0xE]
000014D0  3F2C 0002                move.w     -[A7], [A4 + 0x2]
000014D4  3F14                     move.w     -[A7], [A4]
000014D6  A8A8                     syscall    OffsetRect
label000014D8:
000014D8  285F                     movea.l    A4, [A7]+
000014DA  4E5E                     unlink     A6
000014DC  205F                     movea.l    A0, [A7]+
000014DE  DEFC 000E                add.w      A7, 0xE
000014E2  4ED0                     jmp        [A0]
fn000014E4:
000014E4  4E56 FFBE                link       A6, -0x0042
000014E8  48E7 0F18                movem.l    -[A7], D4,D5,D6,D7,A3,A4
000014EC  286E 0008                movea.l    A4, [A6 + 0x8]
000014F0  47ED D9D8                lea.l      A3, [A5 - 0x2628]
000014F4  3E2B 0006                move.w     D7, [A3 + 0x6]
000014F8  3D6B 0008 FFF8           move.w     [A6 - 0x8], [A3 + 0x8]
000014FE  4267                     clr.w      -[A7]
00001500  4EAD 081A                jsr        [A5 + 0x81A /* export_255, CODE:4 @ 00004AF6 */]
00001504  4267                     clr.w      -[A7]
00001506  4EAD 0812                jsr        [A5 + 0x812 /* export_254, CODE:4 @ 00004AD4 */]
0000150A  101F                     move.b     D0, [A7]+
0000150C  0A00 0001                xori.b     D0, 0x1
00001510  C01F                     and.b      D0, [A7]+
00001512  1C00                     move.b     D6, D0
00001514  47EC FE2C                lea.l      A3, [A4 - 0x1D4]
00001518  1006                     move.b     D0, D6
0000151A  670E                     beq        +0x10 /* 0000152A */
0000151C  3A2B 0006                move.w     D5, [A3 + 0x6]
00001520  9A6B 0002                sub.w      D5, [A3 + 0x2]
00001524  382B 0004                move.w     D4, [A3 + 0x4]
00001528  600A                     bra        +0xC /* 00001534 */
label0000152A:
0000152A  3A2B 0004                move.w     D5, [A3 + 0x4]
0000152E  9A53                     sub.w      D5, [A3]
00001530  382B 0006                move.w     D4, [A3 + 0x6]
label00001534:
00001534  5045                     addq.w     D5, 8
00001536  5044                     addq.w     D4, 8
label00001538:
00001538  486E FFEC                pea.l      [A6 - 0x14]
0000153C  3F2E FFF8                move.w     -[A7], [A6 - 0x8]
00001540  3F07                     move.w     -[A7], D7
00001542  302D D9E4                move.w     D0, [A5 - 0x261C]
00001546  D06E FFF8                add.w      D0, [A6 - 0x8]
0000154A  3F00                     move.w     -[A7], D0
0000154C  302D D9E2                move.w     D0, [A5 - 0x261E]
00001550  D047                     add.w      D0, D7
00001552  3F00                     move.w     -[A7], D0
00001554  A8A7                     syscall    SetRect
00001556  486E FFEC                pea.l      [A6 - 0x14]
0000155A  486E FFE4                pea.l      [A6 - 0x1C]
0000155E  1F06                     move.b     -[A7], D6
00001560  2F2E 0008                move.l     -[A7], [A6 + 0x8]
00001564  4EBA FECA                jsr        [PC - 0x136 /* 00001430 */]
label00001568:
00001568  42A7                     clr.l      -[A7]
0000156A  2F2D F62A                move.l     -[A7], [A5 - 0x9D6]
0000156E  4EAD 1F7A                jsr        [A5 + 0x1F7A /* export_1003, CODE:19 @ 00001744 */]
00001572  2D5F FFC4                move.l     [A6 - 0x3C], [A7]+
00001576  6608                     bne        +0xA /* 00001580 */
00001578  4EAD 0752                jsr        [A5 + 0x752 /* export_230, CODE:4 @ 00002702 */]
0000157C  6000 01AC                bra        +0x1AE /* 0000172A */
label00001580:
00001580  206E FFC4                movea.l    A0, [A6 - 0x3C]
00001584  2050                     movea.l    A0, [A0]
00001586  2D68 0020 FFC0           move.l     [A6 - 0x40], [A0 + 0x20]
0000158C  2F2D F62A                move.l     -[A7], [A5 - 0x9D6]
00001590  4267                     clr.w      -[A7]
00001592  4EAD 1EF2                jsr        [A5 + 0x1EF2 /* export_986, CODE:19 @ 00000450 */]
00001596  202E FFC0                move.l     D0, [A6 - 0x40]
0000159A  B0AC FFCC                cmp.l      D0, [A4 - 0x34]
0000159E  56C0                     sne        D0
000015A0  C02D D9F2                and.b      D0, [A5 - 0x260E]
000015A4  6732                     beq        +0x34 /* 000015D8 */
000015A6  4267                     clr.w      -[A7]
000015A8  2F2E 0008                move.l     -[A7], [A6 + 0x8]
000015AC  4EBA EACA                jsr        [PC - 0x1536 /* 00000078 */]
000015B0  101F                     move.b     D0, [A7]+
000015B2  0A00 0001                xori.b     D0, 0x1
000015B6  1940 FFDD                move.b     [A4 - 0x23], D0
000015BA  4EAD 0802                jsr        [A5 + 0x802 /* export_252, CODE:4 @ 00004A48 */]
000015BE  4267                     clr.w      -[A7]
000015C0  4EAD 0722                jsr        [A5 + 0x722 /* export_224, CODE:4 @ 00002452 */]
000015C4  4A5F                     tst.w      [A7]+
000015C6  56C0                     sne        D0
000015C8  802C FFDD                or.b       D0, [A4 - 0x23]
000015CC  0240 0001                andi.w     D0, 0x1
000015D0  1940 FFDD                move.b     [A4 - 0x23], D0
000015D4  6000 011C                bra        +0x11E /* 000016F2 */
label000015D8:
000015D8  2F2C FEC4                move.l     -[A7], [A4 - 0x13C]
000015DC  4EAD 0222                jsr        [A5 + 0x222 /* export_64, CODE:1 @ 00004678 */]
000015E0  206C FEC4                movea.l    A0, [A4 - 0x13C]
000015E4  226C FE42                movea.l    A1, [A4 - 0x1BE]
000015E8  2350 0002                move.l     [A1 + 0x2], [A0]
000015EC  206C FEC4                movea.l    A0, [A4 - 0x13C]
000015F0  2F10                     move.l     -[A7], [A0]
000015F2  2F2C FEC0                move.l     -[A7], [A4 - 0x140]
000015F6  4EAD 0822                jsr        [A5 + 0x822 /* export_256, CODE:4 @ 00005152 */]
000015FA  41EE FFDC                lea.l      A0, [A6 - 0x24]
000015FE  43EE FFE4                lea.l      A1, [A6 - 0x1C]
00001602  20D9                     move.l     [A0]+, [A1]+
00001604  20D9                     move.l     [A0]+, [A1]+
00001606  486E FFDC                pea.l      [A6 - 0x24]
0000160A  486E FFE4                pea.l      [A6 - 0x1C]
0000160E  2F2E 0008                move.l     -[A7], [A6 + 0x8]
00001612  4EBA FA30                jsr        [PC - 0x5D0 /* 00001044 */]
00001616  486E FFCC                pea.l      [A6 - 0x34]
0000161A  42A7                     clr.l      -[A7]
0000161C  302E FFE2                move.w     D0, [A6 - 0x1E]
00001620  906E FFDE                sub.w      D0, [A6 - 0x22]
00001624  3F00                     move.w     -[A7], D0
00001626  302E FFE0                move.w     D0, [A6 - 0x20]
0000162A  906E FFDC                sub.w      D0, [A6 - 0x24]
0000162E  3F00                     move.w     -[A7], D0
00001630  A8A7                     syscall    SetRect
00001632  4267                     clr.w      -[A7]
00001634  486E FFCC                pea.l      [A6 - 0x34]
00001638  2F2C FE42                move.l     -[A7], [A4 - 0x1BE]
0000163C  1F3C 0001                move.b     -[A7], 0x1
00001640  2F2E 0008                move.l     -[A7], [A6 + 0x8]
00001644  4EBA FC5C                jsr        [PC - 0x3A4 /* 000012A2 */]
00001648  101F                     move.b     D0, [A7]+
0000164A  6602                     bne        +0x4 /* 0000164E */
0000164C  607A                     bra        +0x7C /* 000016C8 */
label0000164E:
0000164E  2F2C FE42                move.l     -[A7], [A4 - 0x1BE]
00001652  486E FFC8                pea.l      [A6 - 0x38]
00001656  2F2E 0008                move.l     -[A7], [A6 + 0x8]
0000165A  4EBA F8FC                jsr        [PC - 0x704 /* 00000F58 */]
0000165E  41EE FFDC                lea.l      A0, [A6 - 0x24]
00001662  43EE FFE4                lea.l      A1, [A6 - 0x1C]
00001666  20D9                     move.l     [A0]+, [A1]+
00001668  20D9                     move.l     [A0]+, [A1]+
0000166A  486E FFDC                pea.l      [A6 - 0x24]
0000166E  2F2E FFC8                move.l     -[A7], [A6 - 0x38]
00001672  A8A9                     syscall    InsetRect
00001674  486E FFDC                pea.l      [A6 - 0x24]
00001678  486E FFE4                pea.l      [A6 - 0x1C]
0000167C  2F2E 0008                move.l     -[A7], [A6 + 0x8]
00001680  4EBA F9C2                jsr        [PC - 0x63E /* 00001044 */]
00001684  2F2C FEC4                move.l     -[A7], [A4 - 0x13C]
00001688  4EAD 022A                jsr        [A5 + 0x22A /* export_65, CODE:1 @ 00004682 */]
0000168C  3D6E FFEA FFE2           move.w     [A6 - 0x1E], [A6 - 0x16]
00001692  4267                     clr.w      -[A7]
00001694  486E FFDC                pea.l      [A6 - 0x24]
00001698  2F2D D736                move.l     -[A7], [A5 - 0x28CA]
0000169C  4267                     clr.w      -[A7]
0000169E  2F2E 0008                move.l     -[A7], [A6 + 0x8]
000016A2  4EBA FBFE                jsr        [PC - 0x402 /* 000012A2 */]
000016A6  1D5F FFBE                move.b     [A6 - 0x42], [A7]+
000016AA  486E FFEC                pea.l      [A6 - 0x14]
000016AE  3F2D D9E8                move.w     -[A7], [A5 - 0x2618]
000016B2  4267                     clr.w      -[A7]
000016B4  A8A8                     syscall    OffsetRect
000016B6  486E FFEC                pea.l      [A6 - 0x14]
000016BA  486E FFE4                pea.l      [A6 - 0x1C]
000016BE  1F06                     move.b     -[A7], D6
000016C0  2F2E 0008                move.l     -[A7], [A6 + 0x8]
000016C4  4EBA FD6A                jsr        [PC - 0x296 /* 00001430 */]
label000016C8:
000016C8  4EAD 0802                jsr        [A5 + 0x802 /* export_252, CODE:4 @ 00004A48 */]
000016CC  4267                     clr.w      -[A7]
000016CE  4EAD 0722                jsr        [A5 + 0x722 /* export_224, CODE:4 @ 00002452 */]
000016D2  4A5F                     tst.w      [A7]+
000016D4  6616                     bne        +0x18 /* 000016EC */
000016D6  4267                     clr.w      -[A7]
000016D8  2F2E 0008                move.l     -[A7], [A6 + 0x8]
000016DC  4EBA E99A                jsr        [PC - 0x1666 /* 00000078 */]
000016E0  101F                     move.b     D0, [A7]+
000016E2  0A00 0001                xori.b     D0, 0x1
000016E6  1940 FFDD                move.b     [A4 - 0x23], D0
000016EA  6006                     bra        +0x8 /* 000016F2 */
label000016EC:
000016EC  197C 0001 FFDD           move.b     [A4 - 0x23], 0x1
label000016F2:
000016F2  B86E FFEA                cmp.w      D4, [A6 - 0x16]
000016F6  5DC0                     slt        D0
000016F8  802C FFDD                or.b       D0, [A4 - 0x23]
000016FC  0240 0001                andi.w     D0, 0x1
00001700  6700 FE66                beq        -0x198 /* 00001568 */
00001704  DE6D D9E6                add.w      D7, [A5 - 0x261A]
00001708  4267                     clr.w      -[A7]
0000170A  302D D9E2                move.w     D0, [A5 - 0x261E]
0000170E  D047                     add.w      D0, D7
00001710  3F00                     move.w     -[A7], D0
00001712  486D D9D8                pea.l      [A5 - 0x2628]
00001716  4EAD 062A                jsr        [A5 + 0x62A /* export_193, CODE:4 @ 0000107A */]
0000171A  BA5F                     cmp.w      D5, [A7]+
0000171C  5DC0                     slt        D0
0000171E  802C FFDD                or.b       D0, [A4 - 0x23]
00001722  0240 0001                andi.w     D0, 0x1
00001726  6700 FE10                beq        -0x1EE /* 00001538 */
label0000172A:
0000172A  4CDF 18F0                movem.l    D4,D5,D6,D7,A3,A4, [A7]+
0000172E  4E5E                     unlink     A6
00001730  2E9F                     move.l     [A7], [A7]+
00001732  4E75                     rts
fn00001734:
00001734  4E56 FCCC                link       A6, -0x0334
00001738  48E7 0F18                movem.l    -[A7], D4,D5,D6,D7,A3,A4
0000173C  286E 0008                movea.l    A4, [A6 + 0x8]
00001740  286C 0008                movea.l    A4, [A4 + 0x8]
00001744  4EAD 181A                jsr        [A5 + 0x181A /* export_767, CODE:16 @ 00000216 */]
00001748  42A7                     clr.l      -[A7]
0000174A  4EAD 0672                jsr        [A5 + 0x672 /* export_202, CODE:4 @ 0000164A */]
0000174E  A887                     syscall    TextFont
00001750  4267                     clr.w      -[A7]
00001752  1F3C 0001                move.b     -[A7], 0x1
00001756  4EAD 067A                jsr        [A5 + 0x67A /* export_203, CODE:4 @ 000016BA */]
0000175A  A88A                     syscall    TextSize
0000175C  102D F2B3                move.b     D0, [A5 - 0xD4D]
00001760  6710                     beq        +0x12 /* 00001772 */
00001762  3F2D F2BC                move.w     -[A7], [A5 - 0xD44]
00001766  4EAD 21D2                jsr        [A5 + 0x21D2 /* export_1078, CODE:20 @ 00004516 */]
0000176A  3F3A 01EA                move.w     -[A7], [PC + 0x1EA /* 00001956, value 0x0, cstring "" */]
0000176E  A888                     syscall    TextFace
00001770  6006                     bra        +0x8 /* 00001778 */
label00001772:
00001772  3F3A 01E4                move.w     -[A7], [PC + 0x1E4 /* 00001958, value 0x4, cstring "" */]
00001776  A888                     syscall    TextFace
label00001778:
00001778  3C2D DC04                move.w     D6, [A5 - 0x23FC]
0000177C  DC7C 000E                add.w      D6, 0xE
00001780  3D6D DC04 FFF0           move.w     [A6 - 0x10], [A5 - 0x23FC]
00001786  4267                     clr.w      -[A7]
00001788  1F3C 0001                move.b     -[A7], 0x1
0000178C  4EAD 067A                jsr        [A5 + 0x67A /* export_203, CODE:4 @ 000016BA */]
00001790  301F                     move.w     D0, [A7]+
00001792  D07C 000E                add.w      D0, 0xE
00001796  D06D DC04                add.w      D0, [A5 - 0x23FC]
0000179A  3D40 FFF4                move.w     [A6 - 0xC], D0
0000179E  42A7                     clr.l      -[A7]
000017A0  2F2C FFCC                move.l     -[A7], [A4 - 0x34]
000017A4  4EAD 1F6A                jsr        [A5 + 0x1F6A /* export_1001, CODE:19 @ 000016EC */]
000017A8  265F                     movea.l    A3, [A7]+
000017AA  200B                     move.l     D0, A3
000017AC  6608                     bne        +0xA /* 000017B6 */
000017AE  4EAD 0752                jsr        [A5 + 0x752 /* export_230, CODE:4 @ 00002702 */]
000017B2  6000 0192                bra        +0x194 /* 00001946 */
label000017B6:
000017B6  2F0B                     move.l     -[A7], A3
000017B8  486E FEE7                pea.l      [A6 - 0x119]
000017BC  4EAD 1922                jsr        [A5 + 0x1922 /* export_800, CODE:16 @ 00000C02 */]
000017C0  102D D9EF                move.b     D0, [A5 - 0x2611]
000017C4  6740                     beq        +0x42 /* 00001806 */
000017C6  3D6D DC06 FFF2           move.w     [A6 - 0xE], [A5 - 0x23FA]
000017CC  4267                     clr.w      -[A7]
000017CE  1F3C 0004                move.b     -[A7], 0x4
000017D2  4EAD 067A                jsr        [A5 + 0x67A /* export_203, CODE:4 @ 000016BA */]
000017D6  302D D7DA                move.w     D0, [A5 - 0x2826]
000017DA  905F                     sub.w      D0, [A7]+
000017DC  3D40 FFF6                move.w     [A6 - 0xA], D0
000017E0  486E FFF0                pea.l      [A6 - 0x10]
000017E4  A87B                     syscall    ClipRect
000017E6  3F2E FFF2                move.w     -[A7], [A6 - 0xE]
000017EA  3F06                     move.w     -[A7], D6
000017EC  A893                     syscall    MoveTo
000017EE  486E FCE2                pea.l      [A6 - 0x31E]
000017F2  3F3C 0007                move.w     -[A7], 0x7
000017F6  4EAD 070A                jsr        [A5 + 0x70A /* export_221, CODE:4 @ 00002328 */]
000017FA  206E 0008                movea.l    A0, [A6 + 0x8]
000017FE  2F28 0008                move.l     -[A7], [A0 + 0x8]
00001802  4EBA E7FC                jsr        [PC - 0x1804 /* 00000000 */]
label00001806:
00001806  7002                     moveq.l    D0, 0x02
00001808  B02D D9F3                cmp.b      D0, [A5 - 0x260D]
0000180C  6600 0114                bne        +0x116 /* 00001922 */
00001810  3D6D D7D6 FCE0           move.w     [A6 - 0x320], [A5 - 0x282A]
00001816  7E01                     moveq.l    D7, 0x01
00001818  6000 0100                bra        +0x102 /* 0000191A */
label0000181C:
0000181C  3007                     move.w     D0, D7
0000181E  5340                     subq.w     D0, 1
00001820  41ED D7D8                lea.l      A0, [A5 - 0x2828]
00001824  E540                     asl        D0.w, 2
00001826  3D70 0002 FFF2           move.w     [A6 - 0xE], [A0 + D0.w + 0x2]
0000182C  BE6D D7D6                cmp.w      D7, [A5 - 0x282A]
00001830  6608                     bne        +0xA /* 0000183A */
00001832  3D6D DC0A FFF6           move.w     [A6 - 0xA], [A5 - 0x23F6]
00001838  602A                     bra        +0x2C /* 00001864 */
label0000183A:
0000183A  3007                     move.w     D0, D7
0000183C  5240                     addq.w     D0, 1
0000183E  5340                     subq.w     D0, 1
00001840  41ED D7D8                lea.l      A0, [A5 - 0x2828]
00001844  E540                     asl        D0.w, 2
00001846  48E7 8080                movem.l    -[A7], D0,A0
0000184A  4267                     clr.w      -[A7]
0000184C  1F3C 0004                move.b     -[A7], 0x4
00001850  4EAD 067A                jsr        [A5 + 0x67A /* export_203, CODE:4 @ 000016BA */]
00001854  321F                     move.w     D1, [A7]+
00001856  4CDF 0101                movem.l    D0,A0, [A7]+
0000185A  3430 0002                move.w     D2, [A0 + D0.w + 0x2]
0000185E  9441                     sub.w      D2, D1
00001860  3D42 FFF6                move.w     [A6 - 0xA], D2
label00001864:
00001864  486E FFF0                pea.l      [A6 - 0x10]
00001868  A87B                     syscall    ClipRect
0000186A  3007                     move.w     D0, D7
0000186C  5340                     subq.w     D0, 1
0000186E  41ED D7D8                lea.l      A0, [A5 - 0x2828]
00001872  E540                     asl        D0.w, 2
00001874  3A30 0000                move.w     D5, [A0 + D0.w]
00001878  4267                     clr.w      -[A7]
0000187A  2F2C FFCC                move.l     -[A7], [A4 - 0x34]
0000187E  3F05                     move.w     -[A7], D5
00001880  3F3C 0002                move.w     -[A7], 0x2
00001884  4EAD 1DBA                jsr        [A5 + 0x1DBA /* export_947, CODE:18 @ 00000D64 */]
00001888  381F                     move.w     D4, [A7]+
0000188A  486E FCE2                pea.l      [A6 - 0x31E]
0000188E  2F2C FFCC                move.l     -[A7], [A4 - 0x34]
00001892  3F04                     move.w     -[A7], D4
00001894  4EAD 1DC2                jsr        [A5 + 0x1DC2 /* export_948, CODE:18 @ 00000E24 */]
00001898  205F                     movea.l    A0, [A7]+
0000189A  43EE FEEC                lea.l      A1, [A6 - 0x114]
0000189E  703F                     moveq.l    D0, 0x3F
label000018A0:
000018A0  22D8                     move.l     [A1]+, [A0]+
000018A2  51C8 FFFC                dbf        D0, -0x6 /* 000018A0 */
000018A6  4240                     clr.w      D0
000018A8  102E FEEC                move.b     D0, [A6 - 0x114]
000018AC  4A40                     tst.w      D0
000018AE  6648                     bne        +0x4A /* 000018F8 */
000018B0  486E FCE2                pea.l      [A6 - 0x31E]
000018B4  3F3C 0004                move.w     -[A7], 0x4
000018B8  4EAD 070A                jsr        [A5 + 0x70A /* export_221, CODE:4 @ 00002328 */]
000018BC  486E FCCC                pea.l      [A6 - 0x334]
000018C0  3007                     move.w     D0, D7
000018C2  5340                     subq.w     D0, 1
000018C4  41ED D7D8                lea.l      A0, [A5 - 0x2828]
000018C8  E540                     asl        D0.w, 2
000018CA  3230 0000                move.w     D1, [A0 + D0.w]
000018CE  48C1                     ext.l      D1
000018D0  2F01                     move.l     -[A7], D1
000018D2  4EAD 1902                jsr        [A5 + 0x1902 /* export_796, CODE:16 @ 000009D4 */]
000018D6  486E FDE2                pea.l      [A6 - 0x21E]
000018DA  3F3C 0002                move.w     -[A7], 0x2
000018DE  4EAD 050A                jsr        [A5 + 0x50A /* export_157, CODE:1 @ 0000531E */]
000018E2  41EE FEEC                lea.l      A0, [A6 - 0x114]
000018E6  43EE FDE2                lea.l      A1, [A6 - 0x21E]
000018EA  703F                     moveq.l    D0, 0x3F
label000018EC:
000018EC  20D9                     move.l     [A0]+, [A1]+
000018EE  51C8 FFFC                dbf        D0, -0x6 /* 000018EC */
000018F2  3F3A 0066                move.w     -[A7], [PC + 0x66 /* 0000195A, value 0x6, cstring "" */]
000018F6  A888                     syscall    TextFace
label000018F8:
000018F8  3F2E FFF2                move.w     -[A7], [A6 - 0xE]
000018FC  3F06                     move.w     -[A7], D6
000018FE  A893                     syscall    MoveTo
00001900  486E FEEC                pea.l      [A6 - 0x114]
00001904  206E 0008                movea.l    A0, [A6 + 0x8]
00001908  2F28 0008                move.l     -[A7], [A0 + 0x8]
0000190C  4EBA E6F2                jsr        [PC - 0x190E /* 00000000 */]
00001910  3F3A 0046                move.w     -[A7], [PC + 0x46 /* 00001958, value 0x4, cstring "" */]
00001914  A888                     syscall    TextFace
00001916  5247                     addq.w     D7, 1
00001918  6908                     bvs        +0xA /* 00001922 */
label0000191A:
0000191A  BE6E FCE0                cmp.w      D7, [A6 - 0x320]
0000191E  6F00 FEFC                ble        -0x102 /* 0000181C */
label00001922:
00001922  2F0B                     move.l     -[A7], A3
00001924  1F2E FEE7                move.b     -[A7], [A6 - 0x119]
00001928  4EAD 03F2                jsr        [A5 + 0x3F2 /* export_122, CODE:1 @ 00004D00 */]
0000192C  2F2C FFCC                move.l     -[A7], [A4 - 0x34]
00001930  4267                     clr.w      -[A7]
00001932  4EAD 1EE2                jsr        [A5 + 0x1EE2 /* export_984, CODE:19 @ 00000414 */]
00001936  486E FEE2                pea.l      [A6 - 0x11E]
0000193A  A874                     syscall    GetPort
0000193C  206E FEE2                movea.l    A0, [A6 - 0x11E]
00001940  4868 0010                pea.l      [A0 + 0x10]
00001944  A87B                     syscall    ClipRect
label00001946:
00001946  3F3A 000E                move.w     -[A7], [PC + 0xE /* 00001956, value 0x0, cstring "" */]
0000194A  A888                     syscall    TextFace
0000194C  4CDF 18F0                movem.l    D4,D5,D6,D7,A3,A4, [A7]+
00001950  4E5E                     unlink     A6
00001952  2E9F                     move.l     [A7], [A7]+
00001954  4E75                     rts
00001956  0000 0004                ori.b      D0, 0x4
0000195A  0006 4E56                ori.b      D6, 0x56 /* 'V' */
// begin alternate branch 0000195C-00001964
fn0000195C:
0000195C  4E56 FC5C                link       A6, -0x03A4
00001960  48E7 0F18                movem.l    -[A7], D4,D5,D6,D7,A3,A4
// end alternate branch 0000195C-00001964
fn0000195C: // (misaligned)
0000195E  FC5C 48E7                .extension 0xC5C <<F/1/6>>, 0x48E7 // unimplemented
00001962  0F18                     btst       [A0]+, D7
00001964  2E2E 000C                move.l     D7, [A6 + 0xC]
00001968  286E 0008                movea.l    A4, [A6 + 0x8]
0000196C  286C 0008                movea.l    A4, [A4 + 0x8]
00001970  286C 0008                movea.l    A4, [A4 + 0x8]
00001974  422E 0010                clr.b      [A6 + 0x10]
00001978  2047                     movea.l    A0, D7
0000197A  3D50 FE84                move.w     [A6 - 0x17C], [A0]
0000197E  2047                     movea.l    A0, D7
00001980  226D DBF8                movea.l    A1, [A5 - 0x2408]
00001984  2251                     movea.l    A1, [A1]
00001986  3029 0018                move.w     D0, [A1 + 0x18]
0000198A  D150                     add.w      [A0], D0
0000198C  2047                     movea.l    A0, D7
0000198E  3010                     move.w     D0, [A0]
00001990  B06D DC08                cmp.w      D0, [A5 - 0x23F8]
00001994  6D04                     blt        +0x6 /* 0000199A */
00001996  6000 0422                bra        +0x424 /* 00001DBA */
label0000199A:
0000199A  2047                     movea.l    A0, D7
0000199C  3D50 FE88                move.w     [A6 - 0x178], [A0]
000019A0  2047                     movea.l    A0, D7
000019A2  3D50 FE82                move.w     [A6 - 0x17E], [A0]
000019A6  42A7                     clr.l      -[A7]
000019A8  2F2D F622                move.l     -[A7], [A5 - 0x9DE]
000019AC  4EAD 1F6A                jsr        [A5 + 0x1F6A /* export_1001, CODE:19 @ 000016EC */]
000019B0  281F                     move.l     D4, [A7]+
000019B2  6608                     bne        +0xA /* 000019BC */
000019B4  4EAD 0752                jsr        [A5 + 0x752 /* export_230, CODE:4 @ 00002702 */]
000019B8  6000 0400                bra        +0x402 /* 00001DBA */
label000019BC:
000019BC  42A7                     clr.l      -[A7]
000019BE  2F2D F62A                move.l     -[A7], [A5 - 0x9D6]
000019C2  4EAD 1F7A                jsr        [A5 + 0x1F7A /* export_1003, CODE:19 @ 00001744 */]
000019C6  2A1F                     move.l     D5, [A7]+
000019C8  6608                     bne        +0xA /* 000019D2 */
000019CA  4EAD 0752                jsr        [A5 + 0x752 /* export_230, CODE:4 @ 00002702 */]
000019CE  6000 03E0                bra        +0x3E2 /* 00001DB0 */
label000019D2:
000019D2  2F04                     move.l     -[A7], D4
000019D4  4EAD 01DA                jsr        [A5 + 0x1DA /* export_55, CODE:1 @ 000043FE */]
000019D8  2F05                     move.l     -[A7], D5
000019DA  4EAD 01DA                jsr        [A5 + 0x1DA /* export_55, CODE:1 @ 000043FE */]
000019DE  2F04                     move.l     -[A7], D4
000019E0  486E FE77                pea.l      [A6 - 0x189]
000019E4  4EAD 1922                jsr        [A5 + 0x1922 /* export_800, CODE:16 @ 00000C02 */]
000019E8  2F05                     move.l     -[A7], D5
000019EA  486E FE76                pea.l      [A6 - 0x18A]
000019EE  4EAD 1922                jsr        [A5 + 0x1922 /* export_800, CODE:16 @ 00000C02 */]
000019F2  486E FE72                pea.l      [A6 - 0x18E]
000019F6  A874                     syscall    GetPort
000019F8  206E FE72                movea.l    A0, [A6 - 0x18E]
000019FC  2D68 0068 FFF0           move.l     [A6 - 0x10], [A0 + 0x68]
00001A02  6612                     bne        +0x14 /* 00001A16 */
00001A04  486E FFB8                pea.l      [A6 - 0x48]
00001A08  A8EA                     syscall    SetStdProcs
00001A0A  41EE FFB8                lea.l      A0, [A6 - 0x48]
00001A0E  226E FE72                movea.l    A1, [A6 - 0x18E]
00001A12  2348 0068                move.l     [A1 + 0x68], A0
label00001A16:
00001A16  206E FE72                movea.l    A0, [A6 - 0x18E]
00001A1A  2068 0068                movea.l    A0, [A0 + 0x68]
00001A1E  2D68 0008 FFEC           move.l     [A6 - 0x14], [A0 + 0x8]
00001A24  41ED 06B2                lea.l      A0, [A5 + 0x6B2 /* export_210, CODE:4 @ 00001C94 */]
00001A28  226E FE72                movea.l    A1, [A6 - 0x18E]
00001A2C  2269 0068                movea.l    A1, [A1 + 0x68]
00001A30  2348 0008                move.l     [A1 + 0x8], A0
00001A34  206D DBF8                movea.l    A0, [A5 - 0x2408]
00001A38  2650                     movea.l    A3, [A0]
00001A3A  276E FE72 0052           move.l     [A3 + 0x52], [A6 - 0x18E]
00001A40  2047                     movea.l    A0, D7
00001A42  3010                     move.w     D0, [A0]
00001A44  906B 001A                sub.w      D0, [A3 + 0x1A]
00001A48  3D40 FE7E                move.w     [A6 - 0x182], D0
00001A4C  302D DC08                move.w     D0, [A5 - 0x23F8]
00001A50  906E FE7E                sub.w      D0, [A6 - 0x182]
00001A54  3D40 FE7C                move.w     [A6 - 0x184], D0
00001A58  48C0                     ext.l      D0
00001A5A  81EB 0018                divs.w     D0, [A3 + 0x18]
00001A5E  4840                     swap.w     D0
00001A60  4A40                     tst.w      D0
00001A62  916E FE7C                sub.w      [A6 - 0x184], D0
00001A66  302E FE7C                move.w     D0, [A6 - 0x184]
00001A6A  48C0                     ext.l      D0
00001A6C  81EB 0018                divs.w     D0, [A3 + 0x18]
00001A70  3D40 FE7A                move.w     [A6 - 0x186], D0
00001A74  4A6C FE26                tst.w      [A4 - 0x1DA]
00001A78  57C0                     seq        D0
00001A7A  4400                     neg.b      D0
00001A7C  1D40 FE80                move.b     [A6 - 0x180], D0
00001A80  7002                     moveq.l    D0, 0x02
00001A82  B02D D9F3                cmp.b      D0, [A5 - 0x260D]
00001A86  6600 0130                bne        +0x132 /* 00001BB8 */
00001A8A  3D6D D7D6 FD70           move.w     [A6 - 0x290], [A5 - 0x282A]
00001A90  7C01                     moveq.l    D6, 0x01
00001A92  6000 011C                bra        +0x11E /* 00001BB0 */
label00001A96:
00001A96  3006                     move.w     D0, D6
00001A98  5340                     subq.w     D0, 1
00001A9A  41ED D7D8                lea.l      A0, [A5 - 0x2828]
00001A9E  E540                     asl        D0.w, 2
00001AA0  3D70 0000 FFAC           move.w     [A6 - 0x54], [A0 + D0.w]
00001AA6  4267                     clr.w      -[A7]
00001AA8  2F2D F622                move.l     -[A7], [A5 - 0x9DE]
00001AAC  3F2E FFAC                move.w     -[A7], [A6 - 0x54]
00001AB0  3F3C 0002                move.w     -[A7], 0x2
00001AB4  4EAD 1DBA                jsr        [A5 + 0x1DBA /* export_947, CODE:18 @ 00000D64 */]
00001AB8  3D5F FFAA                move.w     [A6 - 0x56], [A7]+
00001ABC  42A7                     clr.l      -[A7]
00001ABE  2F05                     move.l     -[A7], D5
00001AC0  3F2E FFAA                move.w     -[A7], [A6 - 0x56]
00001AC4  4EAD 1C32                jsr        [A5 + 0x1C32 /* export_898, CODE:17 @ 00000A32 */]
00001AC8  2D5F FFB4                move.l     [A6 - 0x4C], [A7]+
00001ACC  6700 00DE                beq        +0xE0 /* 00001BAC */
00001AD0  42A7                     clr.l      -[A7]
00001AD2  2F2E FFB4                move.l     -[A7], [A6 - 0x4C]
00001AD6  4EAD 1ADA                jsr        [A5 + 0x1ADA /* export_855, CODE:16 @ 00001C66 */]
00001ADA  2D5F FFB0                move.l     [A6 - 0x50], [A7]+
00001ADE  6E04                     bgt        +0x6 /* 00001AE4 */
00001AE0  6000 00CA                bra        +0xCC /* 00001BAC */
label00001AE4:
00001AE4  4EAD 181A                jsr        [A5 + 0x181A /* export_767, CODE:16 @ 00000216 */]
00001AE8  47ED D7D6                lea.l      A3, [A5 - 0x282A]
00001AEC  BC53                     cmp.w      D6, [A3]
00001AEE  6608                     bne        +0xA /* 00001AF8 */
00001AF0  3D6D DC0A FE86           move.w     [A6 - 0x17A], [A5 - 0x23F6]
00001AF6  6020                     bra        +0x22 /* 00001B18 */
label00001AF8:
00001AF8  3006                     move.w     D0, D6
00001AFA  5240                     addq.w     D0, 1
00001AFC  E540                     asl        D0.w, 2
00001AFE  2F00                     move.l     -[A7], D0
00001B00  4267                     clr.w      -[A7]
00001B02  1F3C 0004                move.b     -[A7], 0x4
00001B06  4EAD 067A                jsr        [A5 + 0x67A /* export_203, CODE:4 @ 000016BA */]
00001B0A  321F                     move.w     D1, [A7]+
00001B0C  201F                     move.l     D0, [A7]+
00001B0E  3433 0000                move.w     D2, [A3 + D0.w]
00001B12  9441                     sub.w      D2, D1
00001B14  3D42 FE86                move.w     [A6 - 0x17A], D2
label00001B18:
00001B18  486E FE9A                pea.l      [A6 - 0x166]
00001B1C  3006                     move.w     D0, D6
00001B1E  E540                     asl        D0.w, 2
00001B20  3F33 0000                move.w     -[A7], [A3 + D0.w]
00001B24  3F2E FE7E                move.w     -[A7], [A6 - 0x182]
00001B28  3F2E FE86                move.w     -[A7], [A6 - 0x17A]
00001B2C  302E FE7C                move.w     D0, [A6 - 0x184]
00001B30  D06E FE7E                add.w      D0, [A6 - 0x182]
00001B34  3F00                     move.w     -[A7], D0
00001B36  A8A7                     syscall    SetRect
00001B38  41EE FEA2                lea.l      A0, [A6 - 0x15E]
00001B3C  43EE FE9A                lea.l      A1, [A6 - 0x166]
00001B40  20D9                     move.l     [A0]+, [A1]+
00001B42  20D9                     move.l     [A0]+, [A1]+
00001B44  206D DBF8                movea.l    A0, [A5 - 0x2408]
00001B48  2050                     movea.l    A0, [A0]
00001B4A  3028 0018                move.w     D0, [A0 + 0x18]
00001B4E  C1EC FE26                muls.w     D0, [A4 - 0x1DA]
00001B52  322E FEA2                move.w     D1, [A6 - 0x15E]
00001B56  9240                     sub.w      D1, D0
00001B58  3D41 FEA2                move.w     [A6 - 0x15E], D1
00001B5C  2F2E FFB4                move.l     -[A7], [A6 - 0x4C]
00001B60  2F2E FFB0                move.l     -[A7], [A6 - 0x50]
00001B64  486E FEA2                pea.l      [A6 - 0x15E]
00001B68  486E FE9A                pea.l      [A6 - 0x166]
00001B6C  206E 0008                movea.l    A0, [A6 + 0x8]
00001B70  2068 0008                movea.l    A0, [A0 + 0x8]
00001B74  2F28 0008                move.l     -[A7], [A0 + 0x8]
00001B78  4EBA E566                jsr        [PC - 0x1A9A /* 000000E0 */]
00001B7C  486E FFF4                pea.l      [A6 - 0xC]
00001B80  A89A                     syscall    GetPen
00001B82  4267                     clr.w      -[A7]
00001B84  3F2E FE88                move.w     -[A7], [A6 - 0x178]
00001B88  3F2E FFF4                move.w     -[A7], [A6 - 0xC]
00001B8C  4EAD 18BA                jsr        [A5 + 0x18BA /* export_787, CODE:16 @ 000007C6 */]
00001B90  3D5F FE88                move.w     [A6 - 0x178], [A7]+
00001B94  4267                     clr.w      -[A7]
00001B96  3F2C FE28                move.w     -[A7], [A4 - 0x1D8]
00001B9A  206D DBF8                movea.l    A0, [A5 - 0x2408]
00001B9E  2050                     movea.l    A0, [A0]
00001BA0  3F28 005E                move.w     -[A7], [A0 + 0x5E]
00001BA4  4EAD 18BA                jsr        [A5 + 0x18BA /* export_787, CODE:16 @ 000007C6 */]
00001BA8  395F FE28                move.w     [A4 - 0x1D8], [A7]+
label00001BAC:
00001BAC  5246                     addq.w     D6, 1
00001BAE  6908                     bvs        +0xA /* 00001BB8 */
label00001BB0:
00001BB0  BC6E FD70                cmp.w      D6, [A6 - 0x290]
00001BB4  6F00 FEE0                ble        -0x11E /* 00001A96 */
label00001BB8:
00001BB8  302C FE28                move.w     D0, [A4 - 0x1D8]
00001BBC  906C FE26                sub.w      D0, [A4 - 0x1DA]
00001BC0  3D40 FE78                move.w     [A6 - 0x188], D0
00001BC4  B06E FE7A                cmp.w      D0, [A6 - 0x186]
00001BC8  6E08                     bgt        +0xA /* 00001BD2 */
00001BCA  1D7C 0001 0010           move.b     [A6 + 0x10], 0x1
00001BD0  607C                     bra        +0x7E /* 00001C4E */
label00001BD2:
00001BD2  206E 0008                movea.l    A0, [A6 + 0x8]
00001BD6  117C 0001 FFF7           move.b     [A0 - 0x9], 0x1
00001BDC  7009                     moveq.l    D0, 0x09
00001BDE  B06E FE7A                cmp.w      D0, [A6 - 0x186]
00001BE2  5DC0                     slt        D0
00001BE4  322E FE7A                move.w     D1, [A6 - 0x186]
00001BE8  D27C 0009                add.w      D1, 0x9 /* '\t' */
00001BEC  B26E FE78                cmp.w      D1, [A6 - 0x188]
00001BF0  5DC1                     slt        D1
00001BF2  C001                     and.b      D0, D1
00001BF4  206E 0008                movea.l    A0, [A6 + 0x8]
00001BF8  8028 FFF6                or.b       D0, [A0 - 0xA]
00001BFC  0240 0001                andi.w     D0, 0x1
00001C00  670A                     beq        +0xC /* 00001C0C */
00001C02  302E FE7A                move.w     D0, [A6 - 0x186]
00001C06  D16C FE26                add.w      [A4 - 0x1DA], D0
00001C0A  6042                     bra        +0x44 /* 00001C4E */
label00001C0C:
00001C0C  47ED DC0C                lea.l      A3, [A5 - 0x23F4]
00001C10  486E FE92                pea.l      [A6 - 0x16E]
00001C14  302B 0002                move.w     D0, [A3 + 0x2]
00001C18  5340                     subq.w     D0, 1
00001C1A  3F00                     move.w     -[A7], D0
00001C1C  3F2E FE9A                move.w     -[A7], [A6 - 0x166]
00001C20  2F2B 0004                move.l     -[A7], [A3 + 0x4]
00001C24  A8A7                     syscall    SetRect
00001C26  206E FE72                movea.l    A0, [A6 - 0x18E]
00001C2A  2068 0068                movea.l    A0, [A0 + 0x68]
00001C2E  216E FFEC 0008           move.l     [A0 + 0x8], [A6 - 0x14]
00001C34  486E FE92                pea.l      [A6 - 0x16E]
00001C38  A8A3                     syscall    EraseRect
00001C3A  41ED 06B2                lea.l      A0, [A5 + 0x6B2 /* export_210, CODE:4 @ 00001C94 */]
00001C3E  226E FE72                movea.l    A1, [A6 - 0x18E]
00001C42  2269 0068                movea.l    A1, [A1 + 0x68]
00001C46  2348 0008                move.l     [A1 + 0x8], A0
00001C4A  6000 012E                bra        +0x130 /* 00001D7A */
label00001C4E:
00001C4E  4A6E FE78                tst.w      [A6 - 0x188]
00001C52  5EC0                     sgt        D0
00001C54  4400                     neg.b      D0
00001C56  1D40 FE81                move.b     [A6 - 0x17F], D0
00001C5A  102E FE80                move.b     D0, [A6 - 0x180]
00001C5E  C02D D9EF                and.b      D0, [A5 - 0x2611]
00001C62  6700 00EA                beq        +0xEC /* 00001D4E */
00001C66  486E FC70                pea.l      [A6 - 0x390]
00001C6A  2F2D F62A                move.l     -[A7], [A5 - 0x9D6]
00001C6E  4EAD 1D8A                jsr        [A5 + 0x1D8A /* export_941, CODE:18 @ 00000AA4 */]
00001C72  205F                     movea.l    A0, [A7]+
00001C74  43EE FEAA                lea.l      A1, [A6 - 0x156]
00001C78  703F                     moveq.l    D0, 0x3F
label00001C7A:
00001C7A  22D8                     move.l     [A1]+, [A0]+
00001C7C  51C8 FFFC                dbf        D0, -0x6 /* 00001C7A */
00001C80  4240                     clr.w      D0
00001C82  102E FEAA                move.b     D0, [A6 - 0x156]
00001C86  4A40                     tst.w      D0
00001C88  56C0                     sne        D0
00001C8A  802E FE81                or.b       D0, [A6 - 0x17F]
00001C8E  0240 0001                andi.w     D0, 0x1
00001C92  6700 00BA                beq        +0xBC /* 00001D4E */
00001C96  4EAD 181A                jsr        [A5 + 0x181A /* export_767, CODE:16 @ 00000216 */]
00001C9A  2F2C FE3E                move.l     -[A7], [A4 - 0x1C2]
00001C9E  A87A                     syscall    GetClip
00001CA0  47ED DC04                lea.l      A3, [A5 - 0x23FC]
00001CA4  486E FE8A                pea.l      [A6 - 0x176]
00001CA8  3F2B 0002                move.w     -[A7], [A3 + 0x2]
00001CAC  3F13                     move.w     -[A7], [A3]
00001CAE  4267                     clr.w      -[A7]
00001CB0  1F3C 0004                move.b     -[A7], 0x4
00001CB4  4EAD 067A                jsr        [A5 + 0x67A /* export_203, CODE:4 @ 000016BA */]
00001CB8  302D D7DA                move.w     D0, [A5 - 0x2826]
00001CBC  905F                     sub.w      D0, [A7]+
00001CBE  3F00                     move.w     -[A7], D0
00001CC0  3F2B 0004                move.w     -[A7], [A3 + 0x4]
00001CC4  A8A7                     syscall    SetRect
00001CC6  486E FE8A                pea.l      [A6 - 0x176]
00001CCA  A87B                     syscall    ClipRect
00001CCC  3F2D DC06                move.w     -[A7], [A5 - 0x23FA]
00001CD0  3F2E FE82                move.w     -[A7], [A6 - 0x17E]
00001CD4  A893                     syscall    MoveTo
00001CD6  4240                     clr.w      D0
00001CD8  102E FEAA                move.b     D0, [A6 - 0x156]
00001CDC  4A40                     tst.w      D0
00001CDE  6648                     bne        +0x4A /* 00001D28 */
00001CE0  3F3A 00E6                move.w     -[A7], [PC + 0xE6 /* 00001DC8, value 0x2, cstring "" */]
00001CE4  A888                     syscall    TextFace
00001CE6  486E FC70                pea.l      [A6 - 0x390]
00001CEA  3F3C 0002                move.w     -[A7], 0x2
00001CEE  4EAD 070A                jsr        [A5 + 0x70A /* export_221, CODE:4 @ 00002328 */]
00001CF2  486E FC5C                pea.l      [A6 - 0x3A4]
00001CF6  42A7                     clr.l      -[A7]
00001CF8  4EAD 1DF2                jsr        [A5 + 0x1DF2 /* export_954, CODE:18 @ 000010BC */]
00001CFC  4EAD 18B2                jsr        [A5 + 0x18B2 /* export_786, CODE:16 @ 00000738 */]
00001D00  486E FD72                pea.l      [A6 - 0x28E]
00001D04  3F3C 0002                move.w     -[A7], 0x2
00001D08  4EAD 050A                jsr        [A5 + 0x50A /* export_157, CODE:1 @ 0000531E */]
00001D0C  486E FD72                pea.l      [A6 - 0x28E]
00001D10  206E 0008                movea.l    A0, [A6 + 0x8]
00001D14  2068 0008                movea.l    A0, [A0 + 0x8]
00001D18  2F28 0008                move.l     -[A7], [A0 + 0x8]
00001D1C  4EBA E2E2                jsr        [PC - 0x1D1E /* 00000000 */]
00001D20  3F3A 00A4                move.w     -[A7], [PC + 0xA4 /* 00001DC6, value 0x0, cstring "" */]
00001D24  A888                     syscall    TextFace
00001D26  601A                     bra        +0x1C /* 00001D42 */
label00001D28:
00001D28  3F3A 009C                move.w     -[A7], [PC + 0x9C /* 00001DC6, value 0x0, cstring "" */]
00001D2C  A888                     syscall    TextFace
00001D2E  486E FEAA                pea.l      [A6 - 0x156]
00001D32  206E 0008                movea.l    A0, [A6 + 0x8]
00001D36  2068 0008                movea.l    A0, [A0 + 0x8]
00001D3A  2F28 0008                move.l     -[A7], [A0 + 0x8]
00001D3E  4EBA E2C0                jsr        [PC - 0x1D40 /* 00000000 */]
label00001D42:
00001D42  2F2C FE3E                move.l     -[A7], [A4 - 0x1C2]
00001D46  A879                     syscall    SetClip
00001D48  1D7C 0001 FE81           move.b     [A6 - 0x17F], 0x1
label00001D4E:
00001D4E  102E FE81                move.b     D0, [A6 - 0x17F]
00001D52  670C                     beq        +0xE /* 00001D60 */
00001D54  302E FE88                move.w     D0, [A6 - 0x178]
00001D58  5540                     subq.w     D0, 2
00001D5A  2047                     movea.l    A0, D7
00001D5C  3080                     move.w     [A0], D0
00001D5E  6006                     bra        +0x8 /* 00001D66 */
label00001D60:
00001D60  2047                     movea.l    A0, D7
00001D62  30AE FE84                move.w     [A0], [A6 - 0x17C]
label00001D66:
00001D66  2047                     movea.l    A0, D7
00001D68  3010                     move.w     D0, [A0]
00001D6A  B06D DC08                cmp.w      D0, [A5 - 0x23F8]
00001D6E  6F0A                     ble        +0xC /* 00001D7A */
00001D70  206E 0008                movea.l    A0, [A6 + 0x8]
00001D74  117C 0001 FFF7           move.b     [A0 - 0x9], 0x1
label00001D7A:
00001D7A  206E FE72                movea.l    A0, [A6 - 0x18E]
00001D7E  2068 0068                movea.l    A0, [A0 + 0x68]
00001D82  216E FFEC 0008           move.l     [A0 + 0x8], [A6 - 0x14]
00001D88  206E FE72                movea.l    A0, [A6 - 0x18E]
00001D8C  216E FFF0 0068           move.l     [A0 + 0x68], [A6 - 0x10]
00001D92  2F04                     move.l     -[A7], D4
00001D94  1F2E FE77                move.b     -[A7], [A6 - 0x189]
00001D98  4EAD 03F2                jsr        [A5 + 0x3F2 /* export_122, CODE:1 @ 00004D00 */]
00001D9C  2F05                     move.l     -[A7], D5
00001D9E  1F2E FE76                move.b     -[A7], [A6 - 0x18A]
00001DA2  4EAD 03F2                jsr        [A5 + 0x3F2 /* export_122, CODE:1 @ 00004D00 */]
00001DA6  2F2D F62A                move.l     -[A7], [A5 - 0x9D6]
00001DAA  4267                     clr.w      -[A7]
00001DAC  4EAD 1EF2                jsr        [A5 + 0x1EF2 /* export_986, CODE:19 @ 00000450 */]
label00001DB0:
00001DB0  2F2D F622                move.l     -[A7], [A5 - 0x9DE]
00001DB4  4267                     clr.w      -[A7]
00001DB6  4EAD 1EE2                jsr        [A5 + 0x1EE2 /* export_984, CODE:19 @ 00000414 */]
label00001DBA:
00001DBA  4CDF 18F0                movem.l    D4,D5,D6,D7,A3,A4, [A7]+
00001DBE  4E5E                     unlink     A6
00001DC0  205F                     movea.l    A0, [A7]+
00001DC2  504F                     addq.w     A7, 8
00001DC4  4ED0                     jmp        [A0]
00001DC6  0000 0002                ori.b      D0, 0x2
fn00001DCA:
00001DCA  4E56 FFF2                link       A6, -0x000E
00001DCE  48E7 0018                movem.l    -[A7], A3,A4
00001DD2  266E 0008                movea.l    A3, [A6 + 0x8]
00001DD6  286B 0008                movea.l    A4, [A3 + 0x8]
00001DDA  4267                     clr.w      -[A7]
00001DDC  1F3C 0004                move.b     -[A7], 0x4
00001DE0  4EAD 067A                jsr        [A5 + 0x67A /* export_203, CODE:4 @ 000016BA */]
00001DE4  A88A                     syscall    TextSize
00001DE6  1D7C 0001 FFF6           move.b     [A6 - 0xA], 0x1
00001DEC  422E FFF7                clr.b      [A6 - 0x9]
label00001DF0:
00001DF0  42A7                     clr.l      -[A7]
00001DF2  2F2D F62A                move.l     -[A7], [A5 - 0x9D6]
00001DF6  4EAD 1F7A                jsr        [A5 + 0x1F7A /* export_1003, CODE:19 @ 00001744 */]
00001DFA  275F FFF6                move.l     [A3 - 0xA], [A7]+
00001DFE  6608                     bne        +0xA /* 00001E08 */
00001E00  4EAD 0752                jsr        [A5 + 0x752 /* export_230, CODE:4 @ 00002702 */]
00001E04  6000 0092                bra        +0x94 /* 00001E98 */
label00001E08:
00001E08  206B FFF6                movea.l    A0, [A3 - 0xA]
00001E0C  2050                     movea.l    A0, [A0]
00001E0E  2768 0020 FFF2           move.l     [A3 - 0xE], [A0 + 0x20]
00001E14  2F2D F62A                move.l     -[A7], [A5 - 0x9D6]
00001E18  4267                     clr.w      -[A7]
00001E1A  4EAD 1EF2                jsr        [A5 + 0x1EF2 /* export_986, CODE:19 @ 00000450 */]
00001E1E  202B FFF2                move.l     D0, [A3 - 0xE]
00001E22  B0AC FFCC                cmp.l      D0, [A4 - 0x34]
00001E26  6734                     beq        +0x36 /* 00001E5C */
00001E28  4267                     clr.w      -[A7]
00001E2A  206E 0008                movea.l    A0, [A6 + 0x8]
00001E2E  2F28 0008                move.l     -[A7], [A0 + 0x8]
00001E32  4EBA E244                jsr        [PC - 0x1DBC /* 00000078 */]
00001E36  101F                     move.b     D0, [A7]+
00001E38  0A00 0001                xori.b     D0, 0x1
00001E3C  1940 FFDD                move.b     [A4 - 0x23], D0
00001E40  4EAD 0802                jsr        [A5 + 0x802 /* export_252, CODE:4 @ 00004A48 */]
00001E44  4267                     clr.w      -[A7]
00001E46  4EAD 0722                jsr        [A5 + 0x722 /* export_224, CODE:4 @ 00002452 */]
00001E4A  4A5F                     tst.w      [A7]+
00001E4C  56C0                     sne        D0
00001E4E  802C FFDD                or.b       D0, [A4 - 0x23]
00001E52  0240 0001                andi.w     D0, 0x1
00001E56  1940 FFDD                move.b     [A4 - 0x23], D0
00001E5A  604C                     bra        +0x4E /* 00001EA8 */
label00001E5C:
00001E5C  426C FE28                clr.w      [A4 - 0x1D8]
00001E60  4267                     clr.w      -[A7]
00001E62  486E 000C                pea.l      [A6 + 0xC]
00001E66  2F0E                     move.l     -[A7], A6
00001E68  4EBA FAF2                jsr        [PC - 0x50E /* 0000195C */]
00001E6C  101F                     move.b     D0, [A7]+
00001E6E  671E                     beq        +0x20 /* 00001E8E */
00001E70  422E FFF6                clr.b      [A6 - 0xA]
00001E74  4267                     clr.w      -[A7]
00001E76  206E 0008                movea.l    A0, [A6 + 0x8]
00001E7A  2F28 0008                move.l     -[A7], [A0 + 0x8]
00001E7E  4EBA E1F8                jsr        [PC - 0x1E08 /* 00000078 */]
00001E82  101F                     move.b     D0, [A7]+
00001E84  0A00 0001                xori.b     D0, 0x1
00001E88  1940 FFDD                move.b     [A4 - 0x23], D0
00001E8C  6006                     bra        +0x8 /* 00001E94 */
label00001E8E:
00001E8E  1D7C 0001 FFF7           move.b     [A6 - 0x9], 0x1
label00001E94:
00001E94  4EAD 0802                jsr        [A5 + 0x802 /* export_252, CODE:4 @ 00004A48 */]
label00001E98:
00001E98  4267                     clr.w      -[A7]
00001E9A  4EAD 0722                jsr        [A5 + 0x722 /* export_224, CODE:4 @ 00002452 */]
00001E9E  4A5F                     tst.w      [A7]+
00001EA0  6706                     beq        +0x8 /* 00001EA8 */
00001EA2  197C 0001 FFDD           move.b     [A4 - 0x23], 0x1
label00001EA8:
00001EA8  102C FFDD                move.b     D0, [A4 - 0x23]
00001EAC  802E FFF7                or.b       D0, [A6 - 0x9]
00001EB0  6700 FF3E                beq        -0xC0 /* 00001DF0 */
00001EB4  4CDF 1800                movem.l    A3,A4, [A7]+
00001EB8  4E5E                     unlink     A6
00001EBA  205F                     movea.l    A0, [A7]+
00001EBC  5C4F                     addq.w     A7, 6
00001EBE  4ED0                     jmp        [A0]
fn00001EC0:
00001EC0  4E56 FFF2                link       A6, -0x000E
00001EC4  2F07                     move.l     -[A7], D7
00001EC6  486E FFFC                pea.l      [A6 - 0x4]
00001ECA  A874                     syscall    GetPort
00001ECC  42A7                     clr.l      -[A7]
00001ECE  4EAD 0672                jsr        [A5 + 0x672 /* export_202, CODE:4 @ 0000164A */]
00001ED2  A887                     syscall    TextFont
00001ED4  3E2D DC04                move.w     D7, [A5 - 0x23FC]
00001ED8  102D D9F0                move.b     D0, [A5 - 0x2610]
00001EDC  6712                     beq        +0x14 /* 00001EF0 */
00001EDE  4267                     clr.w      -[A7]
00001EE0  1F3C 0001                move.b     -[A7], 0x1
00001EE4  4EAD 067A                jsr        [A5 + 0x67A /* export_203, CODE:4 @ 000016BA */]
00001EE8  301F                     move.w     D0, [A7]+
00001EEA  D07C 000E                add.w      D0, 0xE
00001EEE  DE40                     add.w      D7, D0
label00001EF0:
00001EF0  3F07                     move.w     -[A7], D7
00001EF2  2F0E                     move.l     -[A7], A6
00001EF4  4EBA FED4                jsr        [PC - 0x12C /* 00001DCA */]
00001EF8  206E 0008                movea.l    A0, [A6 + 0x8]
00001EFC  1028 FE21                move.b     D0, [A0 - 0x1DF]
00001F00  C02D D9F0                and.b      D0, [A5 - 0x2610]
00001F04  6706                     beq        +0x8 /* 00001F0C */
00001F06  2F0E                     move.l     -[A7], A6
00001F08  4EBA F82A                jsr        [PC - 0x7D6 /* 00001734 */]
label00001F0C:
00001F0C  2F2E FFFC                move.l     -[A7], [A6 - 0x4]
00001F10  A873                     syscall    SetPort
00001F12  2E1F                     move.l     D7, [A7]+
00001F14  4E5E                     unlink     A6
00001F16  2E9F                     move.l     [A7], [A7]+
00001F18  4E75                     rts
fn00001F1A:
00001F1A  4E56 FFF8                link       A6, -0x0008
00001F1E  2F0C                     move.l     -[A7], A4
00001F20  42A7                     clr.l      -[A7]
00001F22  4EAD 0672                jsr        [A5 + 0x672 /* export_202, CODE:4 @ 0000164A */]
00001F26  A887                     syscall    TextFont
00001F28  4A2D D9F4                tst.b      [A5 - 0x260C]
00001F2C  660E                     bne        +0x10 /* 00001F3C */
00001F2E  4267                     clr.w      -[A7]
00001F30  1F3C 0003                move.b     -[A7], 0x3
00001F34  4EAD 067A                jsr        [A5 + 0x67A /* export_203, CODE:4 @ 000016BA */]
00001F38  A88A                     syscall    TextSize
00001F3A  600C                     bra        +0xE /* 00001F48 */
label00001F3C:
00001F3C  4267                     clr.w      -[A7]
00001F3E  1F3C 0004                move.b     -[A7], 0x4
00001F42  4EAD 067A                jsr        [A5 + 0x67A /* export_203, CODE:4 @ 000016BA */]
00001F46  A88A                     syscall    TextSize
label00001F48:
00001F48  102D F2B3                move.b     D0, [A5 - 0xD4D]
00001F4C  6708                     beq        +0xA /* 00001F56 */
00001F4E  3F2D F2BC                move.w     -[A7], [A5 - 0xD44]
00001F52  4EAD 21D2                jsr        [A5 + 0x21D2 /* export_1078, CODE:20 @ 00004516 */]
label00001F56:
00001F56  486E FFF8                pea.l      [A6 - 0x8]
00001F5A  A88B                     syscall    GetFontInfo
00001F5C  206D DBF8                movea.l    A0, [A5 - 0x2408]
00001F60  2850                     movea.l    A4, [A0]
00001F62  302E FFFA                move.w     D0, [A6 - 0x6]
00001F66  D06E FFF8                add.w      D0, [A6 - 0x8]
00001F6A  3940 0018                move.w     [A4 + 0x18], D0
00001F6E  396E FFF8 001A           move.w     [A4 + 0x1A], [A6 - 0x8]
00001F74  207C 0000 0BAC           movea.l    A0, 0xBAC
00001F7A  4A50                     tst.w      [A0]
00001F7C  6C08                     bge        +0xA /* 00001F86 */
00001F7E  3978 0BAC 003A           move.w     [A4 + 0x3A], [0x00000BAC /* TESysJust */]
00001F84  6004                     bra        +0x6 /* 00001F8A */
label00001F86:
00001F86  426C 003A                clr.w      [A4 + 0x3A]
label00001F8A:
00001F8A  422C 004C                clr.b      [A4 + 0x4C]
00001F8E  397C 0001 004E           move.w     [A4 + 0x4E], 0x1
00001F94  42A7                     clr.l      -[A7]
00001F96  4EAD 0672                jsr        [A5 + 0x672 /* export_202, CODE:4 @ 0000164A */]
00001F9A  395F 004A                move.w     [A4 + 0x4A], [A7]+
00001F9E  4A2D D9F4                tst.b      [A5 - 0x260C]
00001FA2  6620                     bne        +0x22 /* 00001FC4 */
00001FA4  4267                     clr.w      -[A7]
00001FA6  1F3C 0003                move.b     -[A7], 0x3
00001FAA  4EAD 067A                jsr        [A5 + 0x67A /* export_203, CODE:4 @ 000016BA */]
00001FAE  395F 0050                move.w     [A4 + 0x50], [A7]+
00001FB2  102D F2B3                move.b     D0, [A5 - 0xD4D]
00001FB6  660A                     bne        +0xC /* 00001FC2 */
00001FB8  302C 0018                move.w     D0, [A4 + 0x18]
00001FBC  5340                     subq.w     D0, 1
00001FBE  3940 0018                move.w     [A4 + 0x18], D0
label00001FC2:
00001FC2  600E                     bra        +0x10 /* 00001FD2 */
label00001FC4:
00001FC4  4267                     clr.w      -[A7]
00001FC6  1F3C 0004                move.b     -[A7], 0x4
00001FCA  4EAD 067A                jsr        [A5 + 0x67A /* export_203, CODE:4 @ 000016BA */]
00001FCE  395F 0050                move.w     [A4 + 0x50], [A7]+
label00001FD2:
00001FD2  285F                     movea.l    A4, [A7]+
00001FD4  4E5E                     unlink     A6
00001FD6  2E9F                     move.l     [A7], [A7]+
00001FD8  4E75                     rts
fn00001FDA:
00001FDA  4E56 0000                link       A6, 0
00001FDE  42A7                     clr.l      -[A7]
00001FE0  A975                     syscall    TickCount
00001FE2  2B5F DC24                move.l     [A5 - 0x23DC], [A7]+
00001FE6  42A7                     clr.l      -[A7]
00001FE8  2F2D DBFC                move.l     -[A7], [A5 - 0x2404]
00001FEC  42A7                     clr.l      -[A7]
00001FEE  42A7                     clr.l      -[A7]
00001FF0  4EAD 012A                jsr        [A5 + 0x12A /* export_33, CODE:1 @ 00003DAC */]
00001FF4  2B5F D736                move.l     [A5 - 0x28CA], [A7]+
00001FF8  4EAD 071A                jsr        [A5 + 0x71A /* export_223, CODE:4 @ 000023D4 */]
00001FFC  3D6D DC30 000C           move.w     [A6 + 0xC], [A5 - 0x23D0]
00002002  206E 0008                movea.l    A0, [A6 + 0x8]
00002006  117C 0001 FE2B           move.b     [A0 - 0x1D5], 0x1
0000200C  4E5E                     unlink     A6
0000200E  2E9F                     move.l     [A7], [A7]+
00002010  4E75                     rts
fn00002012:
00002012  4E56 FEE0                link       A6, -0x0120
00002016  206E 000C                movea.l    A0, [A6 + 0xC]
0000201A  43EE FF00                lea.l      A1, [A6 - 0x100]
0000201E  703F                     moveq.l    D0, 0x3F
label00002020:
00002020  22D8                     move.l     [A1]+, [A0]+
00002022  51C8 FFFC                dbf        D0, -0x6 /* 00002020 */
00002026  486E FF00                pea.l      [A6 - 0x100]
0000202A  3F2D D7C2                move.w     -[A7], [A5 - 0x283E]
0000202E  4EAD 063A                jsr        [A5 + 0x63A /* export_195, CODE:4 @ 00001254 */]
00002032  2F2D D736                move.l     -[A7], [A5 - 0x28CA]
00002036  4EAD 0142                jsr        [A5 + 0x142 /* export_36, CODE:1 @ 00003DD6 */]
0000203A  422D D7BF                clr.b      [A5 - 0x2841]
0000203E  526D D7C2                addq.w     [A5 - 0x283E], 1
00002042  4E5E                     unlink     A6
00002044  205F                     movea.l    A0, [A7]+
00002046  504F                     addq.w     A7, 8
00002048  4ED0                     jmp        [A0]
export_261:
0000204A  4E56 FE20                link       A6, -0x01E0
0000204E  48E7 0F18                movem.l    -[A7], D4,D5,D6,D7,A3,A4
00002052  4267                     clr.w      -[A7]
00002054  4EAD 05E2                jsr        [A5 + 0x5E2 /* export_184, CODE:4 @ 00000096 */]
00002058  101F                     move.b     D0, [A7]+
0000205A  670C                     beq        +0xE /* 00002068 */
0000205C  4267                     clr.w      -[A7]
0000205E  2F2D DBFC                move.l     -[A7], [A5 - 0x2404]
00002062  4EAD 07EA                jsr        [A5 + 0x7EA /* export_249, CODE:4 @ 000044A4 */]
00002066  600C                     bra        +0xE /* 00002074 */
label00002068:
00002068  3F3C 0048                move.w     -[A7], 0x48 /* 'H' */
0000206C  2F2D DBFC                move.l     -[A7], [A5 - 0x2404]
00002070  4EAD 07EA                jsr        [A5 + 0x7EA /* export_249, CODE:4 @ 000044A4 */]
label00002074:
00002074  4267                     clr.w      -[A7]
00002076  486D DBFC                pea.l      [A5 - 0x2404]
0000207A  486D D9D8                pea.l      [A5 - 0x2628]
0000207E  486D D7D6                pea.l      [A5 - 0x282A]
00002082  4EAD 083A                jsr        [A5 + 0x83A /* export_259, CODE:5 @ 0000386A */]
00002086  101F                     move.b     D0, [A7]+
00002088  6700 05D4                beq        +0x5D6 /* 0000265E */
0000208C  486D 083A                pea.l      [A5 + 0x83A /* export_259, CODE:5 @ 0000386A */]
00002090  A9F1                     syscall    UnloadSeg
00002092  4EAD 061A                jsr        [A5 + 0x61A /* export_191, CODE:4 @ 00000FF8 */]
00002096  42A7                     clr.l      -[A7]
00002098  A8D8                     syscall    NewRgn
0000209A  2D5F FE3E                move.l     [A6 - 0x1C2], [A7]+
0000209E  4EAD 181A                jsr        [A5 + 0x181A /* export_767, CODE:16 @ 00000216 */]
000020A2  2D6D F622 FFCC           move.l     [A6 - 0x34], [A5 - 0x9DE]
000020A8  4EAD 07B2                jsr        [A5 + 0x7B2 /* export_242, CODE:4 @ 0000417C */]
000020AC  3B7C 0001 D7C2           move.w     [A5 - 0x283E], 0x1
000020B2  2F0E                     move.l     -[A7], A6
000020B4  4EBA FE64                jsr        [PC - 0x19C /* 00001F1A */]
000020B8  4A2D D9F4                tst.b      [A5 - 0x260C]
000020BC  666C                     bne        +0x6E /* 0000212A */
000020BE  486D DC0C                pea.l      [A5 - 0x23F4]
000020C2  4267                     clr.w      -[A7]
000020C4  4EAD 06DA                jsr        [A5 + 0x6DA /* export_215, CODE:4 @ 00001E26 */]
000020C8  49ED D9D8                lea.l      A4, [A5 - 0x2628]
000020CC  486E FEB8                pea.l      [A6 - 0x148]
000020D0  42A7                     clr.l      -[A7]
000020D2  4267                     clr.w      -[A7]
000020D4  3F2C 000C                move.w     -[A7], [A4 + 0xC]
000020D8  486D D9D8                pea.l      [A5 - 0x2628]
000020DC  4EAD 062A                jsr        [A5 + 0x62A /* export_193, CODE:4 @ 0000107A */]
000020E0  4267                     clr.w      -[A7]
000020E2  3F2C 000A                move.w     -[A7], [A4 + 0xA]
000020E6  486D D9D8                pea.l      [A5 - 0x2628]
000020EA  4EAD 062A                jsr        [A5 + 0x62A /* export_193, CODE:4 @ 0000107A */]
000020EE  A8A7                     syscall    SetRect
000020F0  42A7                     clr.l      -[A7]
000020F2  486E FEB2                pea.l      [A6 - 0x14E]
000020F6  486E FEC4                pea.l      [A6 - 0x13C]
000020FA  486E FEB8                pea.l      [A6 - 0x148]
000020FE  4EAD 06CA                jsr        [A5 + 0x6CA /* export_213, CODE:4 @ 00001D1E */]
00002102  2D5F FEC0                move.l     [A6 - 0x140], [A7]+
00002106  660C                     bne        +0xE /* 00002114 */
00002108  3F3C FF94                move.w     -[A7], 0xFF94
0000210C  4EAD 072A                jsr        [A5 + 0x72A /* export_225, CODE:4 @ 00002474 */]
00002110  6000 0528                bra        +0x52A /* 0000263A */
label00002114:
00002114  41EE FE46                lea.l      A0, [A6 - 0x1BA]
00002118  2D48 FE42                move.l     [A6 - 0x1BE], A0
0000211C  486E FE42                pea.l      [A6 - 0x1BE]
00002120  486E FEB2                pea.l      [A6 - 0x14E]
00002124  4EAD 06D2                jsr        [A5 + 0x6D2 /* export_214, CODE:4 @ 00001DC8 */]
00002128  6030                     bra        +0x32 /* 0000215A */
label0000212A:
0000212A  49ED DC0C                lea.l      A4, [A5 - 0x23F4]
0000212E  302C 0006                move.w     D0, [A4 + 0x6]
00002132  D06C 0002                add.w      D0, [A4 + 0x2]
00002136  2F00                     move.l     -[A7], D0
00002138  4267                     clr.w      -[A7]
0000213A  4EAD 068A                jsr        [A5 + 0x68A /* export_205, CODE:4 @ 0000184A */]
0000213E  321F                     move.w     D1, [A7]+
00002140  201F                     move.l     D0, [A7]+
00002142  9041                     sub.w      D0, D1
00002144  48C0                     ext.l      D0
00002146  81FC 0002                divs.w     D0, 0x2
0000214A  3D40 FEC8                move.w     [A6 - 0x138], D0
0000214E  486D D9F8                pea.l      [A5 - 0x2608]
00002152  486E FECA                pea.l      [A6 - 0x136]
00002156  4EAD 06AA                jsr        [A5 + 0x6AA /* export_209, CODE:4 @ 00001906 */]
label0000215A:
0000215A  4267                     clr.w      -[A7]
0000215C  4EAD 069A                jsr        [A5 + 0x69A /* export_207, CODE:4 @ 000018BE */]
00002160  101F                     move.b     D0, [A7]+
00002162  677E                     beq        +0x80 /* 000021E2 */
00002164  422D D7C1                clr.b      [A5 - 0x283F]
00002168  4267                     clr.w      -[A7]
0000216A  4EAD 07BA                jsr        [A5 + 0x7BA /* export_243, CODE:4 @ 000041E2 */]
0000216E  4267                     clr.w      -[A7]
00002170  4EAD 069A                jsr        [A5 + 0x69A /* export_207, CODE:4 @ 000018BE */]
00002174  101F                     move.b     D0, [A7]+
00002176  C02D D9EC                and.b      D0, [A5 - 0x2614]
0000217A  6720                     beq        +0x22 /* 0000219C */
0000217C  206D DBFC                movea.l    A0, [A5 - 0x2404]
00002180  2050                     movea.l    A0, [A0]
00002182  41E8 0018                lea.l      A0, [A0 + 0x18]
00002186  0250 FFFE                andi.w     [A0], 0xFFFE
0000218A  0050 0001                ori.w      [A0], 0x1
0000218E  206D DBFC                movea.l    A0, [A5 - 0x2404]
00002192  2050                     movea.l    A0, [A0]
00002194  0268 FFDF 0018           andi.w     [A0 + 0x18], 0xFFDF
0000219A  600C                     bra        +0xE /* 000021A8 */
label0000219C:
0000219C  206D DBFC                movea.l    A0, [A5 - 0x2404]
000021A0  2050                     movea.l    A0, [A0]
000021A2  0268 FFFE 0018           andi.w     [A0 + 0x18], 0xFFFE
label000021A8:
000021A8  1F2D DC2C                move.b     -[A7], [A5 - 0x23D4]
000021AC  4EAD 07E2                jsr        [A5 + 0x7E2 /* export_248, CODE:4 @ 00004440 */]
000021B0  4267                     clr.w      -[A7]
000021B2  2F2D DBFC                move.l     -[A7], [A5 - 0x2404]
000021B6  4EAD 015A                jsr        [A5 + 0x15A /* export_39, CODE:1 @ 00003E00 */]
000021BA  1D5F FE35                move.b     [A6 - 0x1CB], [A7]+
000021BE  102D DC2C                move.b     D0, [A5 - 0x23D4]
000021C2  671E                     beq        +0x20 /* 000021E2 */
000021C4  4A2D D9F4                tst.b      [A5 - 0x260C]
000021C8  660C                     bne        +0xE /* 000021D6 */
000021CA  486D DC0C                pea.l      [A5 - 0x23F4]
000021CE  4267                     clr.w      -[A7]
000021D0  4EAD 06DA                jsr        [A5 + 0x6DA /* export_215, CODE:4 @ 00001E26 */]
000021D4  600C                     bra        +0xE /* 000021E2 */
label000021D6:
000021D6  1F3C 0001                move.b     -[A7], 0x1
000021DA  486D D9F8                pea.l      [A5 - 0x2608]
000021DE  4EAD 05FA                jsr        [A5 + 0x5FA /* export_187, CODE:4 @ 000004AC */]
label000021E2:
000021E2  206D DBFC                movea.l    A0, [A5 - 0x2404]
000021E6  2050                     movea.l    A0, [A0]
000021E8  43EE FE2C                lea.l      A1, [A6 - 0x1D4]
000021EC  41E8 0010                lea.l      A0, [A0 + 0x10]
000021F0  22D8                     move.l     [A1]+, [A0]+
000021F2  22D8                     move.l     [A1]+, [A0]+
000021F4  4EAD 064A                jsr        [A5 + 0x64A /* export_197, CODE:4 @ 00001410 */]
000021F8  422E FFDD                clr.b      [A6 - 0x23]
000021FC  206D DBFC                movea.l    A0, [A5 - 0x2404]
00002200  2050                     movea.l    A0, [A0]
00002202  49E8 003E                lea.l      A4, [A0 + 0x3E]
00002206  38BC 0001                move.w     [A4], 0x1
0000220A  397C 0080 0002           move.w     [A4 + 0x2], 0x80
00002210  4267                     clr.w      -[A7]
00002212  4EAD 072A                jsr        [A5 + 0x72A /* export_225, CODE:4 @ 00002474 */]
00002216  4EAD 181A                jsr        [A5 + 0x181A /* export_767, CODE:16 @ 00000216 */]
0000221A  102D D9F2                move.b     D0, [A5 - 0x260E]
0000221E  6716                     beq        +0x18 /* 00002236 */
00002220  42A7                     clr.l      -[A7]
00002222  2F2E FFCC                move.l     -[A7], [A6 - 0x34]
00002226  4EAD 1F6A                jsr        [A5 + 0x1F6A /* export_1001, CODE:19 @ 000016EC */]
0000222A  2C1F                     move.l     D6, [A7]+
0000222C  6608                     bne        +0xA /* 00002236 */
0000222E  4EAD 0752                jsr        [A5 + 0x752 /* export_230, CODE:4 @ 00002702 */]
00002232  6000 0374                bra        +0x376 /* 000025A8 */
label00002236:
00002236  102D DC29                move.b     D0, [A5 - 0x23D7]
0000223A  671E                     beq        +0x20 /* 0000225A */
0000223C  42A7                     clr.l      -[A7]
0000223E  2F3C 0000 0400           move.l     -[A7], 0x400
00002244  4EAD 18DA                jsr        [A5 + 0x18DA /* export_791, CODE:16 @ 00000896 */]
00002248  265F                     movea.l    A3, [A7]+
0000224A  200B                     move.l     D0, A3
0000224C  6708                     beq        +0xA /* 00002256 */
0000224E  2053                     movea.l    A0, [A3]
00002250  7000                     moveq.l    D0, 0x00
00002252  2080                     move.l     [A0], D0
00002254  6004                     bra        +0x6 /* 0000225A */
label00002256:
00002256  422D DC29                clr.b      [A5 - 0x23D7]
label0000225A:
0000225A  2F0E                     move.l     -[A7], A6
0000225C  4EBA DDD8                jsr        [PC - 0x2228 /* 00000036 */]
00002260  4267                     clr.w      -[A7]
00002262  4EAD 0722                jsr        [A5 + 0x722 /* export_224, CODE:4 @ 00002452 */]
00002266  4A5F                     tst.w      [A7]+
00002268  670A                     beq        +0xC /* 00002274 */
0000226A  2F0B                     move.l     -[A7], A3
0000226C  4EAD 18D2                jsr        [A5 + 0x18D2 /* export_790, CODE:16 @ 0000083E */]
00002270  6000 0326                bra        +0x328 /* 00002598 */
label00002274:
00002274  102D DC29                move.b     D0, [A5 - 0x23D7]
00002278  6700 0226                beq        +0x228 /* 000024A0 */
0000227C  4EAD 181A                jsr        [A5 + 0x181A /* export_767, CODE:16 @ 00000216 */]
00002280  422E FE2B                clr.b      [A6 - 0x1D5]
00002284  486D D736                pea.l      [A5 - 0x28CA]
00002288  A874                     syscall    GetPort
label0000228A:
0000228A  2053                     movea.l    A0, [A3]
0000228C  2010                     move.l     D0, [A0]
0000228E  5280                     addq.l     D0, 1
00002290  2053                     movea.l    A0, [A3]
00002292  2080                     move.l     [A0], D0
00002294  2053                     movea.l    A0, [A3]
00002296  2F10                     move.l     -[A7], [A0]
00002298  2F3C 0000 0080           move.l     -[A7], 0x80
0000229E  4EAD 04FA                jsr        [A5 + 0x4FA /* export_155, CODE:1 @ 0000524A */]
000022A2  4A9F                     tst.l      [A7]+
000022A4  662E                     bne        +0x30 /* 000022D4 */
000022A6  2F0B                     move.l     -[A7], A3
000022A8  42A7                     clr.l      -[A7]
000022AA  2F0B                     move.l     -[A7], A3
000022AC  4EAD 0202                jsr        [A5 + 0x202 /* export_60, CODE:1 @ 00004640 */]
000022B0  201F                     move.l     D0, [A7]+
000022B2  D0BC 0000 0400           add.l      D0, 0x400
000022B8  2F00                     move.l     -[A7], D0
000022BA  4EAD 1982                jsr        [A5 + 0x1982 /* export_812, CODE:16 @ 00000EAC */]
000022BE  4267                     clr.w      -[A7]
000022C0  3EB8 0220                move.w     [A7], [0x00000220 /* MemErr */]
000022C4  4A5F                     tst.w      [A7]+
000022C6  670C                     beq        +0xE /* 000022D4 */
000022C8  2F0B                     move.l     -[A7], A3
000022CA  4EAD 18D2                jsr        [A5 + 0x18D2 /* export_790, CODE:16 @ 0000083E */]
000022CE  422D DC29                clr.b      [A5 - 0x23D7]
000022D2  6086                     bra        -0x78 /* 0000225A */
label000022D4:
000022D4  2853                     movea.l    A4, [A3]
000022D6  302C 0002                move.w     D0, [A4 + 0x2]
000022DA  E740                     asl        D0.w, 3
000022DC  2F00                     move.l     -[A7], D0
000022DE  42A7                     clr.l      -[A7]
000022E0  4EAD 1DF2                jsr        [A5 + 0x1DF2 /* export_954, CODE:18 @ 000010BC */]
000022E4  221F                     move.l     D1, [A7]+
000022E6  201F                     move.l     D0, [A7]+
000022E8  2981 0000                move.l     [A4 + D0.w], D1
000022EC  302E FE26                move.w     D0, [A6 - 0x1DA]
000022F0  48C0                     ext.l      D0
000022F2  322C 0002                move.w     D1, [A4 + 0x2]
000022F6  E741                     asl        D1.w, 3
000022F8  2980 1004                move.l     [A4 + D1.w + 0x4], D0
000022FC  3B6C 0002 D7C2           move.w     [A5 - 0x283E], [A4 + 0x2]
00002302  3F2D D7C2                move.w     -[A7], [A5 - 0x283E]
00002306  4EAD 07CA                jsr        [A5 + 0x7CA /* export_245, CODE:4 @ 000042FE */]
0000230A  422E FE21                clr.b      [A6 - 0x1DF]
0000230E  102D D9F4                move.b     D0, [A5 - 0x260C]
00002312  4880                     ext.w      D0
00002314  671A                     beq        +0x1C /* 00002330 */
00002316  5340                     subq.w     D0, 1
00002318  6706                     beq        +0x8 /* 00002320 */
0000231A  5340                     subq.w     D0, 1
0000231C  670A                     beq        +0xC /* 00002328 */
0000231E  6016                     bra        +0x18 /* 00002336 */
label00002320:
00002320  2F0E                     move.l     -[A7], A6
00002322  4EBA FB9C                jsr        [PC - 0x464 /* 00001EC0 */]
00002326  600E                     bra        +0x10 /* 00002336 */
label00002328:
00002328  2F0E                     move.l     -[A7], A6
0000232A  4EBA EBEC                jsr        [PC - 0x1414 /* 00000F18 */]
0000232E  6006                     bra        +0x8 /* 00002336 */
label00002330:
00002330  2F0E                     move.l     -[A7], A6
00002332  4EBA F1B0                jsr        [PC - 0xE50 /* 000014E4 */]
label00002336:
00002336  4EAD 181A                jsr        [A5 + 0x181A /* export_767, CODE:16 @ 00000216 */]
0000233A  4EAD 0802                jsr        [A5 + 0x802 /* export_252, CODE:4 @ 00004A48 */]
0000233E  4267                     clr.w      -[A7]
00002340  4EAD 0722                jsr        [A5 + 0x722 /* export_224, CODE:4 @ 00002452 */]
00002344  4A5F                     tst.w      [A7]+
00002346  56C0                     sne        D0
00002348  802E FFDD                or.b       D0, [A6 - 0x23]
0000234C  0240 0001                andi.w     D0, 0x1
00002350  6700 FF38                beq        -0xC6 /* 0000228A */
00002354  4267                     clr.w      -[A7]
00002356  4EAD 0722                jsr        [A5 + 0x722 /* export_224, CODE:4 @ 00002452 */]
0000235A  4A5F                     tst.w      [A7]+
0000235C  670A                     beq        +0xC /* 00002368 */
0000235E  2F0B                     move.l     -[A7], A3
00002360  4EAD 18D2                jsr        [A5 + 0x18D2 /* export_790, CODE:16 @ 0000083E */]
00002364  6000 0232                bra        +0x234 /* 00002598 */
label00002368:
00002368  2853                     movea.l    A4, [A3]
0000236A  102E FE21                move.b     D0, [A6 - 0x1DF]
0000236E  6606                     bne        +0x8 /* 00002376 */
00002370  2014                     move.l     D0, [A4]
00002372  5380                     subq.l     D0, 1
00002374  2880                     move.l     [A4], D0
label00002376:
00002376  4A94                     tst.l      [A4]
00002378  6E06                     bgt        +0x8 /* 00002380 */
0000237A  3B7C 0080 DC30           move.w     [A5 - 0x23D0], 0x80
label00002380:
00002380  4267                     clr.w      -[A7]
00002382  2F0E                     move.l     -[A7], A6
00002384  4EBA FC54                jsr        [PC - 0x3AC /* 00001FDA */]
00002388  4A5F                     tst.w      [A7]+
0000238A  670A                     beq        +0xC /* 00002396 */
0000238C  2F0B                     move.l     -[A7], A3
0000238E  4EAD 18D2                jsr        [A5 + 0x18D2 /* export_790, CODE:16 @ 0000083E */]
00002392  6000 01BA                bra        +0x1BC /* 0000254E */
label00002396:
00002396  2F2D D736                move.l     -[A7], [A5 - 0x28CA]
0000239A  42A7                     clr.l      -[A7]
0000239C  4EAD 013A                jsr        [A5 + 0x13A /* export_35, CODE:1 @ 00003DC8 */]
000023A0  1B7C 0001 D7BF           move.b     [A5 - 0x2841], 0x1
000023A6  4267                     clr.w      -[A7]
000023A8  4EAD 0722                jsr        [A5 + 0x722 /* export_224, CODE:4 @ 00002452 */]
000023AC  4A5F                     tst.w      [A7]+
000023AE  6600 00E6                bne        +0xE8 /* 00002496 */
000023B2  2053                     movea.l    A0, [A3]
000023B4  2E10                     move.l     D7, [A0]
000023B6  6000 00D6                bra        +0xD8 /* 0000248E */
label000023BA:
000023BA  422E FFDD                clr.b      [A6 - 0x23]
000023BE  3B47 D7C2                move.w     [A5 - 0x283E], D7
000023C2  2053                     movea.l    A0, [A3]
000023C4  BE90                     cmp.l      D7, [A0]
000023C6  56C0                     sne        D0
000023C8  2F00                     move.l     -[A7], D0
000023CA  4267                     clr.w      -[A7]
000023CC  4EAD 0722                jsr        [A5 + 0x722 /* export_224, CODE:4 @ 00002452 */]
000023D0  321F                     move.w     D1, [A7]+
000023D2  201F                     move.l     D0, [A7]+
000023D4  4A41                     tst.w      D1
000023D6  57C1                     seq        D1
000023D8  C001                     and.b      D0, D1
000023DA  6710                     beq        +0x12 /* 000023EC */
000023DC  2F2D D736                move.l     -[A7], [A5 - 0x28CA]
000023E0  42A7                     clr.l      -[A7]
000023E2  4EAD 013A                jsr        [A5 + 0x13A /* export_35, CODE:1 @ 00003DC8 */]
000023E6  1B7C 0001 D7BF           move.b     [A5 - 0x2841], 0x1
label000023EC:
000023EC  2053                     movea.l    A0, [A3]
000023EE  3007                     move.w     D0, D7
000023F0  E740                     asl        D0.w, 3
000023F2  49F0 0000                lea.l      A4, [A0 + D0.w]
000023F6  3D6C 0006 FE26           move.w     [A6 - 0x1DA], [A4 + 0x6]
000023FC  2814                     move.l     D4, [A4]
000023FE  42A7                     clr.l      -[A7]
00002400  2F2D F670                move.l     -[A7], [A5 - 0x990]
00002404  2F04                     move.l     -[A7], D4
00002406  4EAD 1E22                jsr        [A5 + 0x1E22 /* export_960, CODE:18 @ 00001CCC */]
0000240A  2F04                     move.l     -[A7], D4
0000240C  4EAD 0642                jsr        [A5 + 0x642 /* export_196, CODE:4 @ 0000138A */]
00002410  4267                     clr.w      -[A7]
00002412  4EAD 0722                jsr        [A5 + 0x722 /* export_224, CODE:4 @ 00002452 */]
00002416  4A5F                     tst.w      [A7]+
00002418  6652                     bne        +0x54 /* 0000246C */
0000241A  3F2D D7C2                move.w     -[A7], [A5 - 0x283E]
0000241E  4EAD 07D2                jsr        [A5 + 0x7D2 /* export_246, CODE:4 @ 0000434E */]
00002422  422E FE21                clr.b      [A6 - 0x1DF]
00002426  102D D9F4                move.b     D0, [A5 - 0x260C]
0000242A  4880                     ext.w      D0
0000242C  671A                     beq        +0x1C /* 00002448 */
0000242E  5340                     subq.w     D0, 1
00002430  6706                     beq        +0x8 /* 00002438 */
00002432  5340                     subq.w     D0, 1
00002434  670A                     beq        +0xC /* 00002440 */
00002436  6016                     bra        +0x18 /* 0000244E */
label00002438:
00002438  2F0E                     move.l     -[A7], A6
0000243A  4EBA FA84                jsr        [PC - 0x57C /* 00001EC0 */]
0000243E  600E                     bra        +0x10 /* 0000244E */
label00002440:
00002440  2F0E                     move.l     -[A7], A6
00002442  4EBA EAD4                jsr        [PC - 0x152C /* 00000F18 */]
00002446  6006                     bra        +0x8 /* 0000244E */
label00002448:
00002448  2F0E                     move.l     -[A7], A6
0000244A  4EBA F098                jsr        [PC - 0xF68 /* 000014E4 */]
label0000244E:
0000244E  4A2D D9F4                tst.b      [A5 - 0x260C]
00002452  660C                     bne        +0xE /* 00002460 */
00002454  487A 0216                pea.l      [PC + 0x216 /* 0000266C, value 0x4E56 'NV', cstring "" */]
00002458  2F0E                     move.l     -[A7], A6
0000245A  4EBA FBB6                jsr        [PC - 0x44A /* 00002012 */]
0000245E  6018                     bra        +0x1A /* 00002478 */
label00002460:
00002460  486E FECA                pea.l      [A6 - 0x136]
00002464  2F0E                     move.l     -[A7], A6
00002466  4EBA FBAA                jsr        [PC - 0x456 /* 00002012 */]
0000246A  600C                     bra        +0xE /* 00002478 */
label0000246C:
0000246C  2F2D D736                move.l     -[A7], [A5 - 0x28CA]
00002470  4EAD 0142                jsr        [A5 + 0x142 /* export_36, CODE:1 @ 00003DD6 */]
00002474  422D D7BF                clr.b      [A5 - 0x2841]
label00002478:
00002478  4EAD 181A                jsr        [A5 + 0x181A /* export_767, CODE:16 @ 00000216 */]
0000247C  4EAD 0802                jsr        [A5 + 0x802 /* export_252, CODE:4 @ 00004A48 */]
00002480  4267                     clr.w      -[A7]
00002482  4EAD 0722                jsr        [A5 + 0x722 /* export_224, CODE:4 @ 00002452 */]
00002486  4A5F                     tst.w      [A7]+
00002488  6702                     beq        +0x4 /* 0000248C */
0000248A  600A                     bra        +0xC /* 00002496 */
label0000248C:
0000248C  5387                     subq.l     D7, 1
label0000248E:
0000248E  7001                     moveq.l    D0, 0x01
00002490  B087                     cmp.l      D0, D7
00002492  6F00 FF26                ble        -0xD8 /* 000023BA */
label00002496:
00002496  2F0B                     move.l     -[A7], A3
00002498  4EAD 18D2                jsr        [A5 + 0x18D2 /* export_790, CODE:16 @ 0000083E */]
0000249C  6000 00B0                bra        +0xB2 /* 0000254E */
label000024A0:
000024A0  4267                     clr.w      -[A7]
000024A2  2F0E                     move.l     -[A7], A6
000024A4  4EBA FB34                jsr        [PC - 0x4CC /* 00001FDA */]
000024A8  4A5F                     tst.w      [A7]+
000024AA  6600 00A2                bne        +0xA4 /* 0000254E */
label000024AE:
000024AE  4267                     clr.w      -[A7]
000024B0  4EAD 0722                jsr        [A5 + 0x722 /* export_224, CODE:4 @ 00002452 */]
000024B4  4A5F                     tst.w      [A7]+
000024B6  6600 0088                bne        +0x8A /* 00002540 */
000024BA  4EAD 181A                jsr        [A5 + 0x181A /* export_767, CODE:16 @ 00000216 */]
000024BE  2F2D D736                move.l     -[A7], [A5 - 0x28CA]
000024C2  42A7                     clr.l      -[A7]
000024C4  4EAD 013A                jsr        [A5 + 0x13A /* export_35, CODE:1 @ 00003DC8 */]
000024C8  1B7C 0001 D7BF           move.b     [A5 - 0x2841], 0x1
000024CE  4267                     clr.w      -[A7]
000024D0  4EAD 0722                jsr        [A5 + 0x722 /* export_224, CODE:4 @ 00002452 */]
000024D4  4A5F                     tst.w      [A7]+
000024D6  6652                     bne        +0x54 /* 0000252A */
000024D8  3F2D D7C2                move.w     -[A7], [A5 - 0x283E]
000024DC  4EAD 07D2                jsr        [A5 + 0x7D2 /* export_246, CODE:4 @ 0000434E */]
000024E0  422E FE21                clr.b      [A6 - 0x1DF]
000024E4  102D D9F4                move.b     D0, [A5 - 0x260C]
000024E8  4880                     ext.w      D0
000024EA  671A                     beq        +0x1C /* 00002506 */
000024EC  5340                     subq.w     D0, 1
000024EE  6706                     beq        +0x8 /* 000024F6 */
000024F0  5340                     subq.w     D0, 1
000024F2  670A                     beq        +0xC /* 000024FE */
000024F4  6016                     bra        +0x18 /* 0000250C */
label000024F6:
000024F6  2F0E                     move.l     -[A7], A6
000024F8  4EBA F9C6                jsr        [PC - 0x63A /* 00001EC0 */]
000024FC  600E                     bra        +0x10 /* 0000250C */
label000024FE:
000024FE  2F0E                     move.l     -[A7], A6
00002500  4EBA EA16                jsr        [PC - 0x15EA /* 00000F18 */]
00002504  6006                     bra        +0x8 /* 0000250C */
label00002506:
00002506  2F0E                     move.l     -[A7], A6
00002508  4EBA EFDA                jsr        [PC - 0x1026 /* 000014E4 */]
label0000250C:
0000250C  4A2D D9F4                tst.b      [A5 - 0x260C]
00002510  660C                     bne        +0xE /* 0000251E */
00002512  487A 0158                pea.l      [PC + 0x158 /* 0000266C, value 0x4E56 'NV', cstring "" */]
00002516  2F0E                     move.l     -[A7], A6
00002518  4EBA FAF8                jsr        [PC - 0x508 /* 00002012 */]
0000251C  6018                     bra        +0x1A /* 00002536 */
label0000251E:
0000251E  486E FECA                pea.l      [A6 - 0x136]
00002522  2F0E                     move.l     -[A7], A6
00002524  4EBA FAEC                jsr        [PC - 0x514 /* 00002012 */]
00002528  600C                     bra        +0xE /* 00002536 */
label0000252A:
0000252A  2F2D D736                move.l     -[A7], [A5 - 0x28CA]
0000252E  4EAD 0142                jsr        [A5 + 0x142 /* export_36, CODE:1 @ 00003DD6 */]
00002532  422D D7BF                clr.b      [A5 - 0x2841]
label00002536:
00002536  4EAD 181A                jsr        [A5 + 0x181A /* export_767, CODE:16 @ 00000216 */]
0000253A  4EAD 0802                jsr        [A5 + 0x802 /* export_252, CODE:4 @ 00004A48 */]
0000253E  6006                     bra        +0x8 /* 00002546 */
label00002540:
00002540  1D7C 0001 FFDD           move.b     [A6 - 0x23], 0x1
label00002546:
00002546  102E FFDD                move.b     D0, [A6 - 0x23]
0000254A  6700 FF62                beq        -0x9C /* 000024AE */
label0000254E:
0000254E  2F2D D736                move.l     -[A7], [A5 - 0x28CA]
00002552  4EAD 0132                jsr        [A5 + 0x132 /* export_34, CODE:1 @ 00003DBA */]
00002556  206D DBFC                movea.l    A0, [A5 - 0x2404]
0000255A  2050                     movea.l    A0, [A0]
0000255C  7001                     moveq.l    D0, 0x01
0000255E  B028 0044                cmp.b      D0, [A0 + 0x44]
00002562  57C0                     seq        D0
00002564  2F00                     move.l     -[A7], D0
00002566  4267                     clr.w      -[A7]
00002568  4EAD 0722                jsr        [A5 + 0x722 /* export_224, CODE:4 @ 00002452 */]
0000256C  321F                     move.w     D1, [A7]+
0000256E  201F                     move.l     D0, [A7]+
00002570  4A41                     tst.w      D1
00002572  57C1                     seq        D1
00002574  C001                     and.b      D0, D1
00002576  6720                     beq        +0x22 /* 00002598 */
00002578  3F3C 0003                move.w     -[A7], 0x3
0000257C  4EAD 0652                jsr        [A5 + 0x652 /* export_198, CODE:4 @ 00001462 */]
00002580  2F2D D732                move.l     -[A7], [A5 - 0x28CE]
00002584  A981                     syscall    DrawDialog
00002586  2F2D DBFC                move.l     -[A7], [A5 - 0x2404]
0000258A  42A7                     clr.l      -[A7]
0000258C  42A7                     clr.l      -[A7]
0000258E  42A7                     clr.l      -[A7]
00002590  486E FFE6                pea.l      [A6 - 0x1A]
00002594  4EAD 0162                jsr        [A5 + 0x162 /* export_40, CODE:1 @ 00003E0E */]
label00002598:
00002598  102D D9F2                move.b     D0, [A5 - 0x260E]
0000259C  670A                     beq        +0xC /* 000025A8 */
0000259E  2F2E FFCC                move.l     -[A7], [A6 - 0x34]
000025A2  4267                     clr.w      -[A7]
000025A4  4EAD 1EE2                jsr        [A5 + 0x1EE2 /* export_984, CODE:19 @ 00000414 */]
label000025A8:
000025A8  2F2E FFD4                move.l     -[A7], [A6 - 0x2C]
000025AC  2F2E FFD0                move.l     -[A7], [A6 - 0x30]
000025B0  4EAD 21FA                jsr        [A5 + 0x21FA /* export_1083, CODE:20 @ 000046E4 */]
000025B4  42A7                     clr.l      -[A7]
000025B6  2F2D F62A                move.l     -[A7], [A5 - 0x9D6]
000025BA  4EAD 1F7A                jsr        [A5 + 0x1F7A /* export_1003, CODE:19 @ 00001744 */]
000025BE  2A1F                     move.l     D5, [A7]+
000025C0  673A                     beq        +0x3C /* 000025FC */
000025C2  42A7                     clr.l      -[A7]
000025C4  2045                     movea.l    A0, D5
000025C6  2050                     movea.l    A0, [A0]
000025C8  2F28 0020                move.l     -[A7], [A0 + 0x20]
000025CC  4EAD 1F6A                jsr        [A5 + 0x1F6A /* export_1001, CODE:19 @ 000016EC */]
000025D0  2C1F                     move.l     D6, [A7]+
000025D2  671E                     beq        +0x20 /* 000025F2 */
000025D4  4EAD 0702                jsr        [A5 + 0x702 /* export_220, CODE:4 @ 0000230A */]
000025D8  2F2D ECE4                move.l     -[A7], [A5 - 0x131C]
000025DC  486D ED82                pea.l      [A5 - 0x127E]
000025E0  4EAD 158A                jsr        [A5 + 0x158A /* export_685, CODE:15 @ 000006FE */]
000025E4  2045                     movea.l    A0, D5
000025E6  2050                     movea.l    A0, [A0]
000025E8  2F28 0020                move.l     -[A7], [A0 + 0x20]
000025EC  4267                     clr.w      -[A7]
000025EE  4EAD 1EE2                jsr        [A5 + 0x1EE2 /* export_984, CODE:19 @ 00000414 */]
label000025F2:
000025F2  2F2D F62A                move.l     -[A7], [A5 - 0x9D6]
000025F6  4267                     clr.w      -[A7]
000025F8  4EAD 1EF2                jsr        [A5 + 0x1EF2 /* export_986, CODE:19 @ 00000450 */]
label000025FC:
000025FC  4EAD 181A                jsr        [A5 + 0x181A /* export_767, CODE:16 @ 00000216 */]
00002600  4EAD 06BA                jsr        [A5 + 0x6BA /* export_211, CODE:4 @ 00001CBE */]
00002604  4267                     clr.w      -[A7]
00002606  4EAD 069A                jsr        [A5 + 0x69A /* export_207, CODE:4 @ 000018BE */]
0000260A  102D DC2C                move.b     D0, [A5 - 0x23D4]
0000260E  C01F                     and.b      D0, [A7]+
00002610  6714                     beq        +0x16 /* 00002626 */
00002612  4267                     clr.w      -[A7]
00002614  4EAD 07E2                jsr        [A5 + 0x7E2 /* export_248, CODE:4 @ 00004440 */]
00002618  4267                     clr.w      -[A7]
0000261A  2F2D DBFC                move.l     -[A7], [A5 - 0x2404]
0000261E  4EAD 015A                jsr        [A5 + 0x15A /* export_39, CODE:1 @ 00003E00 */]
00002622  1D5F FE35                move.b     [A6 - 0x1CB], [A7]+
label00002626:
00002626  4A2D D9F4                tst.b      [A5 - 0x260C]
0000262A  660E                     bne        +0x10 /* 0000263A */
0000262C  2F2E FE42                move.l     -[A7], [A6 - 0x1BE]
00002630  A87D                     syscall    ClosePort
00002632  2F2E FEC4                move.l     -[A7], [A6 - 0x13C]
00002636  4EAD 18D2                jsr        [A5 + 0x18D2 /* export_790, CODE:16 @ 0000083E */]
label0000263A:
0000263A  4EAD 0792                jsr        [A5 + 0x792 /* export_238, CODE:4 @ 00003EEE */]
0000263E  4EAD 1862                jsr        [A5 + 0x1862 /* export_776, CODE:16 @ 00000474 */]
00002642  4EAD 0612                jsr        [A5 + 0x612 /* export_190, CODE:4 @ 00000FDE */]
00002646  41ED E2F2                lea.l      A0, [A5 - 0x1D0E]
0000264A  43ED ED82                lea.l      A1, [A5 - 0x127E]
0000264E  20D9                     move.l     [A0]+, [A1]+
00002650  20D9                     move.l     [A0]+, [A1]+
00002652  4EAD 0732                jsr        [A5 + 0x732 /* export_226, CODE:4 @ 0000248E */]
00002656  2F2E FE3E                move.l     -[A7], [A6 - 0x1C2]
0000265A  A8D9                     syscall    DisposRgn/DisposeRgn
0000265C  6006                     bra        +0x8 /* 00002664 */
label0000265E:
0000265E  486D 083A                pea.l      [A5 + 0x83A /* export_259, CODE:5 @ 0000386A */]
00002662  A9F1                     syscall    UnloadSeg
label00002664:
00002664  4CDF 18F0                movem.l    D4,D5,D6,D7,A3,A4, [A7]+
00002668  4E5E                     unlink     A6
0000266A  4E75                     rts
0000266C  0000 4E56                ori.b      D0, 0x56 /* 'V' */
// begin alternate branch 0000266E-00002672
fn0000266E:
0000266E  4E56 FFF8                link       A6, -0x0008
// end alternate branch 0000266E-00002672
fn0000266E: // (misaligned)
00002670  FFF8                     .invalid   <<F/7/7>>
00002672  48E7 0300                movem.l    -[A7], D6,D7
00002676  4EAD 181A                jsr        [A5 + 0x181A /* export_767, CODE:16 @ 00000216 */]
0000267A  42A7                     clr.l      -[A7]
0000267C  4EAD 1DF2                jsr        [A5 + 0x1DF2 /* export_954, CODE:18 @ 000010BC */]
00002680  2E1F                     move.l     D7, [A7]+
00002682  5287                     addq.l     D7, 1
00002684  BEAD F668                cmp.l      D7, [A5 - 0x998]
00002688  6F02                     ble        +0x4 /* 0000268C */
0000268A  7E01                     moveq.l    D7, 0x01
label0000268C:
0000268C  42A7                     clr.l      -[A7]
0000268E  2F2D F670                move.l     -[A7], [A5 - 0x990]
00002692  2F07                     move.l     -[A7], D7
00002694  4EAD 1E22                jsr        [A5 + 0x1E22 /* export_960, CODE:18 @ 00001CCC */]
00002698  2C1F                     move.l     D6, [A7]+
0000269A  BCAD F66C                cmp.l      D6, [A5 - 0x994]
0000269E  660C                     bne        +0xE /* 000026AC */
000026A0  206E 0008                movea.l    A0, [A6 + 0x8]
000026A4  117C 0001 FFF7           move.b     [A0 - 0x9], 0x1
000026AA  6008                     bra        +0xA /* 000026B4 */
label000026AC:
000026AC  2F06                     move.l     -[A7], D6
000026AE  2F07                     move.l     -[A7], D7
000026B0  4EAD 0642                jsr        [A5 + 0x642 /* export_196, CODE:4 @ 0000138A */]
label000026B4:
000026B4  4CDF 00C0                movem.l    D6,D7, [A7]+
000026B8  4E5E                     unlink     A6
000026BA  2E9F                     move.l     [A7], [A7]+
000026BC  4E75                     rts
fn000026BE:
000026BE  4E56 0000                link       A6, 0
000026C2  102D D7BF                move.b     D0, [A5 - 0x2841]
000026C6  6724                     beq        +0x26 /* 000026EC */
000026C8  4267                     clr.w      -[A7]
000026CA  4EAD 0722                jsr        [A5 + 0x722 /* export_224, CODE:4 @ 00002452 */]
000026CE  4A5F                     tst.w      [A7]+
000026D0  660E                     bne        +0x10 /* 000026E0 */
000026D2  486D DAF8                pea.l      [A5 - 0x2508]
000026D6  4EAD 077A                jsr        [A5 + 0x77A /* export_235, CODE:4 @ 00003178 */]
000026DA  4EAD 181A                jsr        [A5 + 0x181A /* export_767, CODE:16 @ 00000216 */]
000026DE  6008                     bra        +0xA /* 000026E8 */
label000026E0:
000026E0  2F2D D736                move.l     -[A7], [A5 - 0x28CA]
000026E4  4EAD 0142                jsr        [A5 + 0x142 /* export_36, CODE:1 @ 00003DD6 */]
label000026E8:
000026E8  422D D7BF                clr.b      [A5 - 0x2841]
label000026EC:
000026EC  4E5E                     unlink     A6
000026EE  2E9F                     move.l     [A7], [A7]+
000026F0  4E75                     rts
export_262:
000026F2  4E56 FFC8                link       A6, -0x0038
000026F6  48E7 0F08                movem.l    -[A7], D4,D5,D6,D7,A4
000026FA  102E 0008                move.b     D0, [A6 + 0x8]
000026FE  6714                     beq        +0x16 /* 00002714 */
00002700  4267                     clr.w      -[A7]
00002702  2F2D DBFC                move.l     -[A7], [A5 - 0x2404]
00002706  486D D9D8                pea.l      [A5 - 0x2628]
0000270A  4EAD 0842                jsr        [A5 + 0x842 /* export_260, CODE:5 @ 000048EA */]
0000270E  1D5F FFF6                move.b     [A6 - 0xA], [A7]+
00002712  6006                     bra        +0x8 /* 0000271A */
label00002714:
00002714  1D7C 0001 FFF6           move.b     [A6 - 0xA], 0x1
label0000271A:
0000271A  102E FFF6                move.b     D0, [A6 - 0xA]
0000271E  6700 020A                beq        +0x20C /* 0000292A */
00002722  486D 0842                pea.l      [A5 + 0x842 /* export_260, CODE:5 @ 000048EA */]
00002726  A9F1                     syscall    UnloadSeg
00002728  4EAD 061A                jsr        [A5 + 0x61A /* export_191, CODE:4 @ 00000FF8 */]
0000272C  4EAD 07F2                jsr        [A5 + 0x7F2 /* export_250, CODE:4 @ 00004606 */]
00002730  422E FFF7                clr.b      [A6 - 0x9]
00002734  4EAD 071A                jsr        [A5 + 0x71A /* export_223, CODE:4 @ 000023D4 */]
00002738  4A6D DC30                tst.w      [A5 - 0x23D0]
0000273C  6600 0182                bne        +0x184 /* 000028C0 */
00002740  2D6D F62A FFF2           move.l     [A6 - 0xE], [A5 - 0x9D6]
00002746  2D6D F626 FFEE           move.l     [A6 - 0x12], [A5 - 0x9DA]
0000274C  102D DC29                move.b     D0, [A5 - 0x23D7]
00002750  6700 00DC                beq        +0xDE /* 0000282E */
00002754  302D DC4C                move.w     D0, [A5 - 0x23B4]
00002758  C1ED DC4A                muls.w     D0, [A5 - 0x23B6]
0000275C  3E00                     move.w     D7, D0
0000275E  2F2D F668                move.l     -[A7], [A5 - 0x998]
00002762  3007                     move.w     D0, D7
00002764  48C0                     ext.l      D0
00002766  2F00                     move.l     -[A7], D0
00002768  4EAD 04F2                jsr        [A5 + 0x4F2 /* export_154, CODE:1 @ 00005224 */]
0000276C  201F                     move.l     D0, [A7]+
0000276E  3D40 FFCA                move.w     [A6 - 0x36], D0
00002772  2F2D F668                move.l     -[A7], [A5 - 0x998]
00002776  3007                     move.w     D0, D7
00002778  48C0                     ext.l      D0
0000277A  2F00                     move.l     -[A7], D0
0000277C  4EAD 04FA                jsr        [A5 + 0x4FA /* export_155, CODE:1 @ 0000524A */]
00002780  201F                     move.l     D0, [A7]+
00002782  3C00                     move.w     D6, D0
00002784  4A46                     tst.w      D6
00002786  6604                     bne        +0x6 /* 0000278C */
00002788  3C07                     move.w     D6, D7
0000278A  6004                     bra        +0x6 /* 00002790 */
label0000278C:
0000278C  526E FFCA                addq.w     [A6 - 0x36], 1
label00002790:
00002790  202D F668                move.l     D0, [A5 - 0x998]
00002794  5280                     addq.l     D0, 1
00002796  3206                     move.w     D1, D6
00002798  48C1                     ext.l      D1
0000279A  2A00                     move.l     D5, D0
0000279C  9A81                     sub.l      D5, D1
0000279E  382E FFCA                move.w     D4, [A6 - 0x36]
label000027A2:
000027A2  7001                     moveq.l    D0, 0x01
000027A4  B044                     cmp.w      D0, D4
000027A6  6E00 0084                bgt        +0x86 /* 0000282C */
000027AA  3B44 D7C2                move.w     [A5 - 0x283E], D4
000027AE  422E FFF7                clr.b      [A6 - 0x9]
000027B2  42A7                     clr.l      -[A7]
000027B4  2F2D F670                move.l     -[A7], [A5 - 0x990]
000027B8  2F05                     move.l     -[A7], D5
000027BA  4EAD 1E22                jsr        [A5 + 0x1E22 /* export_960, CODE:18 @ 00001CCC */]
000027BE  2F05                     move.l     -[A7], D5
000027C0  4EAD 0642                jsr        [A5 + 0x642 /* export_196, CODE:4 @ 0000138A */]
000027C4  4267                     clr.w      -[A7]
000027C6  4EAD 0722                jsr        [A5 + 0x722 /* export_224, CODE:4 @ 00002452 */]
000027CA  4A5F                     tst.w      [A7]+
000027CC  6702                     beq        +0x4 /* 000027D0 */
000027CE  605C                     bra        +0x5E /* 0000282C */
label000027D0:
000027D0  4EAD 0772                jsr        [A5 + 0x772 /* export_234, CODE:4 @ 00002DAC */]
000027D4  4267                     clr.w      -[A7]
000027D6  4EAD 0722                jsr        [A5 + 0x722 /* export_224, CODE:4 @ 00002452 */]
000027DA  4A5F                     tst.w      [A7]+
000027DC  57C0                     seq        D0
000027DE  C02D D7BF                and.b      D0, [A5 - 0x2841]
000027E2  6706                     beq        +0x8 /* 000027EA */
000027E4  2F0E                     move.l     -[A7], A6
000027E6  4EBA FE86                jsr        [PC - 0x17A /* 0000266E */]
label000027EA:
000027EA  102D D7BF                move.b     D0, [A5 - 0x2841]
000027EE  0A00 0001                xori.b     D0, 0x1
000027F2  802E FFF7                or.b       D0, [A6 - 0x9]
000027F6  6708                     beq        +0xA /* 00002800 */
000027F8  3007                     move.w     D0, D7
000027FA  48C0                     ext.l      D0
000027FC  9A80                     sub.l      D5, D0
000027FE  6006                     bra        +0x8 /* 00002806 */
label00002800:
00002800  4A6D DC30                tst.w      [A5 - 0x23D0]
00002804  67CA                     beq        -0x34 /* 000027D0 */
label00002806:
00002806  102E FFF7                move.b     D0, [A6 - 0x9]
0000280A  670E                     beq        +0x10 /* 0000281A */
0000280C  2F0E                     move.l     -[A7], A6
0000280E  4EBA FEAE                jsr        [PC - 0x152 /* 000026BE */]
00002812  426D D7C4                clr.w      [A5 - 0x283C]
00002816  426D D7C6                clr.w      [A5 - 0x283A]
label0000281A:
0000281A  5344                     subq.w     D4, 1
0000281C  4267                     clr.w      -[A7]
0000281E  4EAD 0722                jsr        [A5 + 0x722 /* export_224, CODE:4 @ 00002452 */]
00002822  4A5F                     tst.w      [A7]+
00002824  6702                     beq        +0x4 /* 00002828 */
00002826  603E                     bra        +0x40 /* 00002866 */
label00002828:
00002828  6000 FF78                bra        -0x86 /* 000027A2 */
label0000282C:
0000282C  6038                     bra        +0x3A /* 00002866 */
label0000282E:
0000282E  2F2D F66C                move.l     -[A7], [A5 - 0x994]
00002832  7001                     moveq.l    D0, 0x01
00002834  2F00                     move.l     -[A7], D0
00002836  4EAD 0642                jsr        [A5 + 0x642 /* export_196, CODE:4 @ 0000138A */]
label0000283A:
0000283A  4A6D DC30                tst.w      [A5 - 0x23D0]
0000283E  56C0                     sne        D0
00002840  802E FFF7                or.b       D0, [A6 - 0x9]
00002844  0240 0001                andi.w     D0, 0x1
00002848  6616                     bne        +0x18 /* 00002860 */
0000284A  4EAD 0772                jsr        [A5 + 0x772 /* export_234, CODE:4 @ 00002DAC */]
0000284E  4267                     clr.w      -[A7]
00002850  4EAD 0722                jsr        [A5 + 0x722 /* export_224, CODE:4 @ 00002452 */]
00002854  4A5F                     tst.w      [A7]+
00002856  6606                     bne        +0x8 /* 0000285E */
00002858  2F0E                     move.l     -[A7], A6
0000285A  4EBA FE12                jsr        [PC - 0x1EE /* 0000266E */]
label0000285E:
0000285E  60DA                     bra        -0x24 /* 0000283A */
label00002860:
00002860  2F0E                     move.l     -[A7], A6
00002862  4EBA FE5A                jsr        [PC - 0x1A6 /* 000026BE */]
label00002866:
00002866  2F2E FFF2                move.l     -[A7], [A6 - 0xE]
0000286A  2F2E FFEE                move.l     -[A7], [A6 - 0x12]
0000286E  4EAD 21FA                jsr        [A5 + 0x21FA /* export_1083, CODE:20 @ 000046E4 */]
00002872  1B7C 0001 EFE2           move.b     [A5 - 0x101E], 0x1
00002878  42A7                     clr.l      -[A7]
0000287A  2F2D F62A                move.l     -[A7], [A5 - 0x9D6]
0000287E  4EAD 1F7A                jsr        [A5 + 0x1F7A /* export_1003, CODE:19 @ 00001744 */]
00002882  285F                     movea.l    A4, [A7]+
00002884  200C                     move.l     D0, A4
00002886  6738                     beq        +0x3A /* 000028C0 */
00002888  42A7                     clr.l      -[A7]
0000288A  2054                     movea.l    A0, [A4]
0000288C  2F28 0020                move.l     -[A7], [A0 + 0x20]
00002890  4EAD 1F6A                jsr        [A5 + 0x1F6A /* export_1001, CODE:19 @ 000016EC */]
00002894  2D5F FFF8                move.l     [A6 - 0x8], [A7]+
00002898  671C                     beq        +0x1E /* 000028B6 */
0000289A  4EAD 0702                jsr        [A5 + 0x702 /* export_220, CODE:4 @ 0000230A */]
0000289E  2F2D ECE4                move.l     -[A7], [A5 - 0x131C]
000028A2  486D ED82                pea.l      [A5 - 0x127E]
000028A6  4EAD 158A                jsr        [A5 + 0x158A /* export_685, CODE:15 @ 000006FE */]
000028AA  2054                     movea.l    A0, [A4]
000028AC  2F28 0020                move.l     -[A7], [A0 + 0x20]
000028B0  4267                     clr.w      -[A7]
000028B2  4EAD 1EE2                jsr        [A5 + 0x1EE2 /* export_984, CODE:19 @ 00000414 */]
label000028B6:
000028B6  2F2D F62A                move.l     -[A7], [A5 - 0x9D6]
000028BA  4267                     clr.w      -[A7]
000028BC  4EAD 1EF2                jsr        [A5 + 0x1EF2 /* export_986, CODE:19 @ 00000450 */]
label000028C0:
000028C0  2F2D D736                move.l     -[A7], [A5 - 0x28CA]
000028C4  4EAD 0132                jsr        [A5 + 0x132 /* export_34, CODE:1 @ 00003DBA */]
000028C8  206D DBFC                movea.l    A0, [A5 - 0x2404]
000028CC  2050                     movea.l    A0, [A0]
000028CE  7001                     moveq.l    D0, 0x01
000028D0  B028 0044                cmp.b      D0, [A0 + 0x44]
000028D4  57C0                     seq        D0
000028D6  2F00                     move.l     -[A7], D0
000028D8  4267                     clr.w      -[A7]
000028DA  4EAD 0722                jsr        [A5 + 0x722 /* export_224, CODE:4 @ 00002452 */]
000028DE  321F                     move.w     D1, [A7]+
000028E0  201F                     move.l     D0, [A7]+
000028E2  4A41                     tst.w      D1
000028E4  57C1                     seq        D1
000028E6  C001                     and.b      D0, D1
000028E8  6712                     beq        +0x14 /* 000028FC */
000028EA  2F2D DBFC                move.l     -[A7], [A5 - 0x2404]
000028EE  42A7                     clr.l      -[A7]
000028F0  42A7                     clr.l      -[A7]
000028F2  42A7                     clr.l      -[A7]
000028F4  486E FFD4                pea.l      [A6 - 0x2C]
000028F8  4EAD 0162                jsr        [A5 + 0x162 /* export_40, CODE:1 @ 00003E0E */]
label000028FC:
000028FC  4EAD 06BA                jsr        [A5 + 0x6BA /* export_211, CODE:4 @ 00001CBE */]
00002900  4EAD 0792                jsr        [A5 + 0x792 /* export_238, CODE:4 @ 00003EEE */]
00002904  41ED E2F2                lea.l      A0, [A5 - 0x1D0E]
00002908  43ED ED82                lea.l      A1, [A5 - 0x127E]
0000290C  20D9                     move.l     [A0]+, [A1]+
0000290E  20D9                     move.l     [A0]+, [A1]+
00002910  4EAD 0732                jsr        [A5 + 0x732 /* export_226, CODE:4 @ 0000248E */]
00002914  4EAD 1862                jsr        [A5 + 0x1862 /* export_776, CODE:16 @ 00000474 */]
00002918  486D D72E                pea.l      [A5 - 0x28D2]
0000291C  486D D73A                pea.l      [A5 - 0x28C6]
00002920  4EAD 0632                jsr        [A5 + 0x632 /* export_194, CODE:4 @ 0000120C */]
00002924  4EAD 0612                jsr        [A5 + 0x612 /* export_190, CODE:4 @ 00000FDE */]
00002928  6006                     bra        +0x8 /* 00002930 */
label0000292A:
0000292A  486D 0842                pea.l      [A5 + 0x842 /* export_260, CODE:5 @ 000048EA */]
0000292E  A9F1                     syscall    UnloadSeg
label00002930:
00002930  4CDF 10F0                movem.l    D4,D5,D6,D7,A4, [A7]+
00002934  4E5E                     unlink     A6
00002936  205F                     movea.l    A0, [A7]+
00002938  544F                     addq.w     A7, 2
0000293A  4ED0                     jmp        [A0]
