# near model CODE resource
# jump table entries: 7848-7886 (39 of them)
fn00000000:
00000000  4E56 FFDE                link       A6, -0x0022
00000004  48E7 0F18                movem.l    -[A7], D4,D5,D6,D7,A3,A4
00000008  2C2E 0008                move.l     D6, [A6 + 0x8]
0000000C  4244                     clr.w      D4
0000000E  7000                     moveq.l    D0, 0x00
00000010  2D40 000C                move.l     [A6 + 0xC], D0
00000014  102D F4CD                move.b     D0, [A5 - 0xB33]
00000018  6600 00D8                bne        +0xDA /* 000000F2 */
label0000001C:
0000001C  7000                     moveq.l    D0, 0x00
0000001E  2840                     movea.l    A4, D0
00000020  7000                     moveq.l    D0, 0x00
00000022  2840                     movea.l    A4, D0
00000024  2D7C 7FFF FFFF FFEE      move.l     [A6 - 0x12], 0x7FFFFFFF
0000002C  47ED FA3C                lea.l      A3, [A5 - 0x5C4]
00000030  3D6D F676 FFDE           move.w     [A6 - 0x22], [A5 - 0x98A]
00000036  3D7C 0001 FFFE           move.w     [A6 - 0x2], 0x1
0000003C  603C                     bra        +0x3E /* 0000007A */
label0000003E:
0000003E  BCAB 0004                cmp.l      D6, [A3 + 0x4]
00000042  6E2E                     bgt        +0x30 /* 00000072 */
00000044  202B 0004                move.l     D0, [A3 + 0x4]
00000048  9086                     sub.l      D0, D6
0000004A  2D40 FFF2                move.l     [A6 - 0xE], D0
0000004E  4A2D F479                tst.b      [A5 - 0xB87]
00000052  56C0                     sne        D0
00000054  222E FFF2                move.l     D1, [A6 - 0xE]
00000058  B2AE FFEE                cmp.l      D1, [A6 - 0x12]
0000005C  5DC1                     slt        D1
0000005E  8001                     or.b       D0, D1
00000060  6710                     beq        +0x12 /* 00000072 */
00000062  284B                     movea.l    A4, A3
00000064  2D6E FFF2 FFEE           move.l     [A6 - 0x12], [A6 - 0xE]
0000006A  7001                     moveq.l    D0, 0x01
0000006C  B02D F479                cmp.b      D0, [A5 - 0xB87]
00000070  673E                     beq        +0x40 /* 000000B0 */
label00000072:
00000072  508B                     addq.l     A3, 8
00000074  526E FFFE                addq.w     [A6 - 0x2], 1
00000078  690A                     bvs        +0xC /* 00000084 */
label0000007A:
0000007A  302E FFFE                move.w     D0, [A6 - 0x2]
0000007E  B06E FFDE                cmp.w      D0, [A6 - 0x22]
00000082  6FBA                     ble        -0x44 /* 0000003E */
label00000084:
00000084  200C                     move.l     D0, A4
00000086  6628                     bne        +0x2A /* 000000B0 */
00000088  4267                     clr.w      -[A7]
0000008A  2F06                     move.l     -[A7], D6
0000008C  4EBA 0F30                jsr        [PC + 0xF30 /* 00000FBE */]
00000090  101F                     move.b     D0, [A7]+
00000092  6688                     bne        -0x76 /* 0000001C */
00000094  7008                     moveq.l    D0, 0x08
00000096  B044                     cmp.w      D0, D4
00000098  5EC0                     sgt        D0
0000009A  BCAD F678                cmp.l      D6, [A5 - 0x988]
0000009E  5DC1                     slt        D1
000000A0  C001                     and.b      D0, D1
000000A2  670A                     beq        +0xC /* 000000AE */
000000A4  4EBA 064C                jsr        [PC + 0x64C /* 000006F2 */]
000000A8  5244                     addq.w     D4, 1
000000AA  6000 FF70                bra        -0x8E /* 0000001C */
label000000AE:
000000AE  6042                     bra        +0x44 /* 000000F2 */
label000000B0:
000000B0  2E14                     move.l     D7, [A4]
000000B2  2A2C 0004                move.l     D5, [A4 + 0x4]
000000B6  9A86                     sub.l      D5, D6
000000B8  7002                     moveq.l    D0, 0x02
000000BA  B02D F479                cmp.b      D0, [A5 - 0xB87]
000000BE  660E                     bne        +0x10 /* 000000CE */
000000C0  2007                     move.l     D0, D7
000000C2  D085                     add.l      D0, D5
000000C4  2D40 000C                move.l     [A6 + 0xC], D0
000000C8  2D47 FFE6                move.l     [A6 - 0x1A], D7
000000CC  600C                     bra        +0xE /* 000000DA */
label000000CE:
000000CE  2D47 000C                move.l     [A6 + 0xC], D7
000000D2  2007                     move.l     D0, D7
000000D4  D086                     add.l      D0, D6
000000D6  2D40 FFE6                move.l     [A6 - 0x1A], D0
label000000DA:
000000DA  2F0C                     move.l     -[A7], A4
000000DC  4EBA 0884                jsr        [PC + 0x884 /* 00000962 */]
000000E0  4A85                     tst.l      D5
000000E2  6F0E                     ble        +0x10 /* 000000F2 */
000000E4  2F2E FFE6                move.l     -[A7], [A6 - 0x1A]
000000E8  2F05                     move.l     -[A7], D5
000000EA  1F3C 0001                move.b     -[A7], 0x1
000000EE  4EBA 0AE0                jsr        [PC + 0xAE0 /* 00000BD0 */]
label000000F2:
000000F2  4CDF 18F0                movem.l    D4,D5,D6,D7,A3,A4, [A7]+
000000F6  4E5E                     unlink     A6
000000F8  2E9F                     move.l     [A7], [A7]+
000000FA  4E75                     rts
export_981:
000000FC  4E56 FFC6                link       A6, -0x003A
00000100  48E7 0318                movem.l    -[A7], D6,D7,A3,A4
00000104  2C2E 0008                move.l     D6, [A6 + 0x8]
00000108  42A7                     clr.l      -[A7]
0000010A  2F06                     move.l     -[A7], D6
0000010C  4EBA 09F8                jsr        [PC + 0x9F8 /* 00000B06 */]
00000110  265F                     movea.l    A3, [A7]+
00000112  284B                     movea.l    A4, A3
00000114  BCAC 0002                cmp.l      D6, [A4 + 0x2]
00000118  57C0                     seq        D0
0000011A  2F00                     move.l     -[A7], D0
0000011C  4267                     clr.w      -[A7]
0000011E  2F2C 0006                move.l     -[A7], [A4 + 0x6]
00000122  4EAD 1912                jsr        [A5 + 0x1912 /* export_798, CODE:16 @ 00000BA6 */]
00000126  121F                     move.b     D1, [A7]+
00000128  201F                     move.l     D0, [A7]+
0000012A  0A01 0001                xori.b     D1, 0x1
0000012E  C001                     and.b      D0, D1
00000130  670E                     beq        +0x10 /* 00000140 */
00000132  206C 0006                movea.l    A0, [A4 + 0x6]
00000136  2050                     movea.l    A0, [A0]
00000138  2D68 0020 000C           move.l     [A6 + 0xC], [A0 + 0x20]
0000013E  6028                     bra        +0x2A /* 00000168 */
label00000140:
00000140  42A7                     clr.l      -[A7]
00000142  2F06                     move.l     -[A7], D6
00000144  4EBA 1CC2                jsr        [PC + 0x1CC2 /* 00001E08 */]
00000148  2E1F                     move.l     D7, [A7]+
0000014A  6608                     bne        +0xA /* 00000154 */
0000014C  7000                     moveq.l    D0, 0x00
0000014E  2D40 000C                move.l     [A6 + 0xC], D0
00000152  6014                     bra        +0x16 /* 00000168 */
label00000154:
00000154  2F07                     move.l     -[A7], D7
00000156  7032                     moveq.l    D0, 0x32
00000158  2F00                     move.l     -[A7], D0
0000015A  486E FFC6                pea.l      [A6 - 0x3A]
0000015E  4EBA 1C40                jsr        [PC + 0x1C40 /* 00001DA0 */]
00000162  2D6E FFE6 000C           move.l     [A6 + 0xC], [A6 - 0x1A]
label00000168:
00000168  4CDF 18C0                movem.l    D6,D7,A3,A4, [A7]+
0000016C  4E5E                     unlink     A6
0000016E  2E9F                     move.l     [A7], [A7]+
00000170  4E75                     rts
export_982:
fn00000172:
00000172  4E56 0000                link       A6, 0
00000176  102D F63B                move.b     D0, [A5 - 0x9C5]
0000017A  6704                     beq        +0x6 /* 00000180 */
0000017C  4EBA 2360                jsr        [PC + 0x2360 /* 000024DE */]
label00000180:
00000180  102D F4CF                move.b     D0, [A5 - 0xB31]
00000184  670E                     beq        +0x10 /* 00000194 */
label00000186:
00000186  4267                     clr.w      -[A7]
00000188  4EBA 0038                jsr        [PC + 0x38 /* 000001C2 */]
0000018C  101F                     move.b     D0, [A7]+
0000018E  0A00 0001                xori.b     D0, 0x1
00000192  67F2                     beq        -0xC /* 00000186 */
label00000194:
00000194  4EBA 0A18                jsr        [PC + 0xA18 /* 00000BAE */]
00000198  4E5E                     unlink     A6
0000019A  4E75                     rts
fn0000019C:
0000019C  4E56 FFFC                link       A6, -0x0004
000001A0  2F0C                     move.l     -[A7], A4
000001A2  42A7                     clr.l      -[A7]
000001A4  2F2E 0008                move.l     -[A7], [A6 + 0x8]
000001A8  4EBA 095C                jsr        [PC + 0x95C /* 00000B06 */]
000001AC  285F                     movea.l    A4, [A7]+
000001AE  4A2C 000A                tst.b      [A4 + 0xA]
000001B2  6C06                     bge        +0x8 /* 000001BA */
000001B4  2F0C                     move.l     -[A7], A4
000001B6  4EBA 00AC                jsr        [PC + 0xAC /* 00000264 */]
label000001BA:
000001BA  285F                     movea.l    A4, [A7]+
000001BC  4E5E                     unlink     A6
000001BE  2E9F                     move.l     [A7], [A7]+
000001C0  4E75                     rts
fn000001C2:
000001C2  4E56 FFF4                link       A6, -0x000C
000001C6  48E7 0718                movem.l    -[A7], D5,D6,D7,A3,A4
000001CA  7E00                     moveq.l    D7, 0x00
000001CC  3C3C 7FFF                move.w     D6, 0x7FFF
000001D0  266D F4AC                movea.l    A3, [A5 - 0xB54]
000001D4  102D F4CD                move.b     D0, [A5 - 0xB33]
000001D8  0A00 0001                xori.b     D0, 0x1
000001DC  802D F4C3                or.b       D0, [A5 - 0xB3D]
000001E0  1A00                     move.b     D5, D0
label000001E2:
000001E2  284B                     movea.l    A4, A3
000001E4  4A2C 000A                tst.b      [A4 + 0xA]
000001E8  6C2E                     bge        +0x30 /* 00000218 */
000001EA  BC54                     cmp.w      D6, [A4]
000001EC  6D2A                     blt        +0x2C /* 00000218 */
000001EE  1005                     move.b     D0, D5
000001F0  6622                     bne        +0x24 /* 00000214 */
000001F2  222C 0002                move.l     D1, [A4 + 0x2]
000001F6  B2AD F62A                cmp.l      D1, [A5 - 0x9D6]
000001FA  56C1                     sne        D1
000001FC  4A01                     tst.b      D1
000001FE  6718                     beq        +0x1A /* 00000218 */
00000200  242C 0002                move.l     D2, [A4 + 0x2]
00000204  B4AD F622                cmp.l      D2, [A5 - 0x9DE]
00000208  56C2                     sne        D2
0000020A  C202                     and.b      D1, D2
0000020C  8001                     or.b       D0, D1
0000020E  0240 0001                andi.w     D0, 0x1
00000212  6704                     beq        +0x6 /* 00000218 */
label00000214:
00000214  3C14                     move.w     D6, [A4]
00000216  2E0B                     move.l     D7, A3
label00000218:
00000218  700C                     moveq.l    D0, 0x0C
0000021A  D7C0                     add.l      A3, D0
0000021C  B7ED F4A8                cmpa.l     A3, [A5 - 0xB58]
00000220  66C0                     bne        -0x3E /* 000001E2 */
00000222  4A87                     tst.l      D7
00000224  670E                     beq        +0x10 /* 00000234 */
00000226  1D7C 0001 0008           move.b     [A6 + 0x8], 0x1
0000022C  2F07                     move.l     -[A7], D7
0000022E  4EBA 0034                jsr        [PC + 0x34 /* 00000264 */]
00000232  6028                     bra        +0x2A /* 0000025C */
label00000234:
00000234  422E 0008                clr.b      [A6 + 0x8]
00000238  4267                     clr.w      -[A7]
0000023A  2F2D F62A                move.l     -[A7], [A5 - 0x9D6]
0000023E  4EBA 147C                jsr        [PC + 0x147C /* 000016BC */]
00000242  4267                     clr.w      -[A7]
00000244  2F2D F622                move.l     -[A7], [A5 - 0x9DE]
00000248  4EBA 1472                jsr        [PC + 0x1472 /* 000016BC */]
0000024C  101F                     move.b     D0, [A7]+
0000024E  801F                     or.b       D0, [A7]+
00000250  660A                     bne        +0xC /* 0000025C */
00000252  422D F4CF                clr.b      [A5 - 0xB31]
00000256  7000                     moveq.l    D0, 0x00
00000258  2B40 F4D4                move.l     [A5 - 0xB2C], D0
label0000025C:
0000025C  4CDF 18E0                movem.l    D5,D6,D7,A3,A4, [A7]+
00000260  4E5E                     unlink     A6
00000262  4E75                     rts
fn00000264:
00000264  4E56 FFD2                link       A6, -0x002E
00000268  48E7 0708                movem.l    -[A7], D5,D6,D7,A4
0000026C  286E 0008                movea.l    A4, [A6 + 0x8]
00000270  4A2C 000A                tst.b      [A4 + 0xA]
00000274  6D0A                     blt        +0xC /* 00000280 */
00000276  2F3C 0000 0DFE           move.l     -[A7], 0xDFE
0000027C  4EAD 185A                jsr        [A5 + 0x185A /* export_775, CODE:16 @ 0000042E */]
label00000280:
00000280  4AAC 0006                tst.l      [A4 + 0x6]
00000284  660A                     bne        +0xC /* 00000290 */
00000286  2F3C 0000 0DFF           move.l     -[A7], 0xDFF
0000028C  4EAD 185A                jsr        [A5 + 0x185A /* export_775, CODE:16 @ 0000042E */]
label00000290:
00000290  4267                     clr.w      -[A7]
00000292  2F2C 0006                move.l     -[A7], [A4 + 0x6]
00000296  4EAD 1912                jsr        [A5 + 0x1912 /* export_798, CODE:16 @ 00000BA6 */]
0000029A  101F                     move.b     D0, [A7]+
0000029C  670A                     beq        +0xC /* 000002A8 */
0000029E  2F3C 0000 0E00           move.l     -[A7], 0xE00
000002A4  4EAD 185A                jsr        [A5 + 0x185A /* export_775, CODE:16 @ 0000042E */]
label000002A8:
000002A8  42A7                     clr.l      -[A7]
000002AA  2F2C 0006                move.l     -[A7], [A4 + 0x6]
000002AE  4EAD 0202                jsr        [A5 + 0x202 /* export_60, CODE:1 @ 00004640 */]
000002B2  2C1F                     move.l     D6, [A7]+
000002B4  4AAC 0002                tst.l      [A4 + 0x2]
000002B8  6C68                     bge        +0x6A /* 00000322 */
000002BA  202C 0002                move.l     D0, [A4 + 0x2]
000002BE  C0BC 7FFF FFFF           and.l      D0, 0x7FFFFFFF
000002C4  2A00                     move.l     D5, D0
000002C6  BAAD F65C                cmp.l      D5, [A5 - 0x9A4]
000002CA  6F0A                     ble        +0xC /* 000002D6 */
000002CC  2F3C 0000 094E           move.l     -[A7], 0x94E /* '\tN' */
000002D2  4EAD 185A                jsr        [A5 + 0x185A /* export_775, CODE:16 @ 0000042E */]
label000002D6:
000002D6  0C86 0000 0200           cmpi.l     D6, 0x200
000002DC  670A                     beq        +0xC /* 000002E8 */
000002DE  2F3C 0000 0948           move.l     -[A7], 0x948 /* '\tH' */
000002E4  4EAD 185A                jsr        [A5 + 0x185A /* export_775, CODE:16 @ 0000042E */]
label000002E8:
000002E8  2F3C 0000 0200           move.l     -[A7], 0x200
000002EE  2F05                     move.l     -[A7], D5
000002F0  4EAD 04EA                jsr        [A5 + 0x4EA /* export_153, CODE:1 @ 000051F0 */]
000002F4  2E1F                     move.l     D7, [A7]+
000002F6  DEAD F654                add.l      D7, [A5 - 0x9AC]
000002FA  2F2C 0006                move.l     -[A7], [A4 + 0x6]
000002FE  486E FFD3                pea.l      [A6 - 0x2D]
00000302  4EAD 1922                jsr        [A5 + 0x1922 /* export_800, CODE:16 @ 00000C02 */]
00000306  2F07                     move.l     -[A7], D7
00000308  2F06                     move.l     -[A7], D6
0000030A  206C 0006                movea.l    A0, [A4 + 0x6]
0000030E  2F10                     move.l     -[A7], [A0]
00000310  4EBA 2152                jsr        [PC + 0x2152 /* 00002464 */]
00000314  2F2C 0006                move.l     -[A7], [A4 + 0x6]
00000318  1F2E FFD3                move.b     -[A7], [A6 - 0x2D]
0000031C  4EAD 03F2                jsr        [A5 + 0x3F2 /* export_122, CODE:1 @ 00004D00 */]
00000320  606E                     bra        +0x70 /* 00000390 */
label00000322:
00000322  102D F4CD                move.b     D0, [A5 - 0xB33]
00000326  670C                     beq        +0xE /* 00000334 */
00000328  2F2E 0008                move.l     -[A7], [A6 + 0x8]
0000032C  4EBA 06C0                jsr        [PC + 0x6C0 /* 000009EE */]
00000330  6000 008C                bra        +0x8E /* 000003BE */
label00000334:
00000334  42A7                     clr.l      -[A7]
00000336  2F2C 0002                move.l     -[A7], [A4 + 0x2]
0000033A  4EBA 1ACC                jsr        [PC + 0x1ACC /* 00001E08 */]
0000033E  2E1F                     move.l     D7, [A7]+
00000340  6E0A                     bgt        +0xC /* 0000034C */
00000342  2F3C 0000 0729           move.l     -[A7], 0x729
00000348  4EAD 185A                jsr        [A5 + 0x185A /* export_775, CODE:16 @ 0000042E */]
label0000034C:
0000034C  2F07                     move.l     -[A7], D7
0000034E  7020                     moveq.l    D0, 0x20
00000350  2F00                     move.l     -[A7], D0
00000352  486E FFE0                pea.l      [A6 - 0x20]
00000356  4EBA 1A48                jsr        [PC + 0x1A48 /* 00001DA0 */]
0000035A  BCAE FFE0                cmp.l      D6, [A6 - 0x20]
0000035E  670A                     beq        +0xC /* 0000036A */
00000360  2F3C 0000 072D           move.l     -[A7], 0x72D
00000366  4EAD 185A                jsr        [A5 + 0x185A /* export_775, CODE:16 @ 0000042E */]
label0000036A:
0000036A  2F2C 0006                move.l     -[A7], [A4 + 0x6]
0000036E  486E FFD3                pea.l      [A6 - 0x2D]
00000372  4EAD 1922                jsr        [A5 + 0x1922 /* export_800, CODE:16 @ 00000C02 */]
00000376  2F07                     move.l     -[A7], D7
00000378  2F06                     move.l     -[A7], D6
0000037A  206C 0006                movea.l    A0, [A4 + 0x6]
0000037E  2F10                     move.l     -[A7], [A0]
00000380  4EBA 20E2                jsr        [PC + 0x20E2 /* 00002464 */]
00000384  2F2C 0006                move.l     -[A7], [A4 + 0x6]
00000388  1F2E FFD3                move.b     -[A7], [A6 - 0x2D]
0000038C  4EAD 03F2                jsr        [A5 + 0x3F2 /* export_122, CODE:1 @ 00004D00 */]
label00000390:
00000390  7000                     moveq.l    D0, 0x00
00000392  102C 000A                move.b     D0, [A4 + 0xA]
00000396  C0BC 0000 007F           and.l      D0, 0x7F
0000039C  1940 000A                move.b     [A4 + 0xA], D0
000003A0  53AD F4D4                subq.l     [A5 - 0xB2C], 1
000003A4  4AAD F4D4                tst.l      [A5 - 0xB2C]
000003A8  6C06                     bge        +0x8 /* 000003B0 */
000003AA  7000                     moveq.l    D0, 0x00
000003AC  2B40 F4D4                move.l     [A5 - 0xB2C], D0
label000003B0:
000003B0  4A2C 000B                tst.b      [A4 + 0xB]
000003B4  6608                     bne        +0xA /* 000003BE */
000003B6  2F2C 0006                move.l     -[A7], [A4 + 0x6]
000003BA  4EAD 0232                jsr        [A5 + 0x232 /* export_66, CODE:1 @ 0000468C */]
label000003BE:
000003BE  4CDF 10E0                movem.l    D5,D6,D7,A4, [A7]+
000003C2  4E5E                     unlink     A6
000003C4  2E9F                     move.l     [A7], [A7]+
000003C6  4E75                     rts
export_983:
000003C8  4E56 FFFC                link       A6, -0x0004
000003CC  48E7 0018                movem.l    -[A7], A3,A4
000003D0  266D F4AC                movea.l    A3, [A5 - 0xB54]
label000003D4:
000003D4  4AAB 0002                tst.l      [A3 + 0x2]
000003D8  56C0                     sne        D0
000003DA  4A00                     tst.b      D0
000003DC  671E                     beq        +0x20 /* 000003FC */
000003DE  4A2B 000B                tst.b      [A3 + 0xB]
000003E2  5EC1                     sgt        D1
000003E4  C001                     and.b      D0, D1
000003E6  6714                     beq        +0x16 /* 000003FC */
000003E8  284B                     movea.l    A4, A3
000003EA  422C 000B                clr.b      [A4 + 0xB]
000003EE  4A2C 000A                tst.b      [A4 + 0xA]
000003F2  6D08                     blt        +0xA /* 000003FC */
000003F4  2F2C 0006                move.l     -[A7], [A4 + 0x6]
000003F8  4EAD 0232                jsr        [A5 + 0x232 /* export_66, CODE:1 @ 0000468C */]
label000003FC:
000003FC  700C                     moveq.l    D0, 0x0C
000003FE  D7C0                     add.l      A3, D0
00000400  B7ED F4A8                cmpa.l     A3, [A5 - 0xB58]
00000404  66CE                     bne        -0x30 /* 000003D4 */
00000406  7000                     moveq.l    D0, 0x00
00000408  2B40 F4D0                move.l     [A5 - 0xB30], D0
0000040C  4CDF 1800                movem.l    A3,A4, [A7]+
00000410  4E5E                     unlink     A6
00000412  4E75                     rts
export_984:
00000414  4E56 0000                link       A6, 0
00000418  2B6D F48C F49C           move.l     [A5 - 0xB64], [A5 - 0xB74]
0000041E  2F2E 000A                move.l     -[A7], [A6 + 0xA]
00000422  1F2E 0008                move.b     -[A7], [A6 + 0x8]
00000426  4EBA 00AE                jsr        [PC + 0xAE /* 000004D6 */]
0000042A  4E5E                     unlink     A6
0000042C  205F                     movea.l    A0, [A7]+
0000042E  5C4F                     addq.w     A7, 6
00000430  4ED0                     jmp        [A0]
export_985:
00000432  4E56 0000                link       A6, 0
00000436  2B6D F488 F49C           move.l     [A5 - 0xB64], [A5 - 0xB78]
0000043C  2F2E 000A                move.l     -[A7], [A6 + 0xA]
00000440  1F2E 0008                move.b     -[A7], [A6 + 0x8]
00000444  4EBA 0090                jsr        [PC + 0x90 /* 000004D6 */]
00000448  4E5E                     unlink     A6
0000044A  205F                     movea.l    A0, [A7]+
0000044C  5C4F                     addq.w     A7, 6
0000044E  4ED0                     jmp        [A0]
export_986:
00000450  4E56 0000                link       A6, 0
00000454  2B6D F490 F49C           move.l     [A5 - 0xB64], [A5 - 0xB70]
0000045A  2F2E 000A                move.l     -[A7], [A6 + 0xA]
0000045E  1F2E 0008                move.b     -[A7], [A6 + 0x8]
00000462  4EBA 0072                jsr        [PC + 0x72 /* 000004D6 */]
00000466  4E5E                     unlink     A6
00000468  205F                     movea.l    A0, [A7]+
0000046A  5C4F                     addq.w     A7, 6
0000046C  4ED0                     jmp        [A0]
export_987:
0000046E  4E56 0000                link       A6, 0
00000472  2B6D F484 F49C           move.l     [A5 - 0xB64], [A5 - 0xB7C]
00000478  2F2E 000A                move.l     -[A7], [A6 + 0xA]
0000047C  1F2E 0008                move.b     -[A7], [A6 + 0x8]
00000480  4EBA 0054                jsr        [PC + 0x54 /* 000004D6 */]
00000484  4E5E                     unlink     A6
00000486  205F                     movea.l    A0, [A7]+
00000488  5C4F                     addq.w     A7, 6
0000048A  4ED0                     jmp        [A0]
fn0000048C:
0000048C  4E56 FFFC                link       A6, -0x0004
00000490  4AAE 000A                tst.l      [A6 + 0xA]
00000494  5DC0                     slt        D0
00000496  222E 000A                move.l     D1, [A6 + 0xA]
0000049A  B2AD F65C                cmp.l      D1, [A5 - 0x9A4]
0000049E  5EC1                     sgt        D1
000004A0  8001                     or.b       D0, D1
000004A2  670A                     beq        +0xC /* 000004AE */
000004A4  2F3C 0000 0660           move.l     -[A7], 0x660
000004AA  4EAD 185A                jsr        [A5 + 0x185A /* export_775, CODE:16 @ 0000042E */]
label000004AE:
000004AE  202E 000A                move.l     D0, [A6 + 0xA]
000004B2  80BC 8000 0000           or.l       D0, 0x80000000
000004B8  2D40 FFFC                move.l     [A6 - 0x4], D0
000004BC  2B6D F498 F49C           move.l     [A5 - 0xB64], [A5 - 0xB68]
000004C2  2F2E FFFC                move.l     -[A7], [A6 - 0x4]
000004C6  1F2E 0008                move.b     -[A7], [A6 + 0x8]
000004CA  4EBA 000A                jsr        [PC + 0xA /* 000004D6 */]
000004CE  4E5E                     unlink     A6
000004D0  205F                     movea.l    A0, [A7]+
000004D2  5C4F                     addq.w     A7, 6
000004D4  4ED0                     jmp        [A0]
export_988:
fn000004D6:
000004D6  4E56 FFDC                link       A6, -0x0024
000004DA  48E7 0018                movem.l    -[A7], A3,A4
000004DE  42A7                     clr.l      -[A7]
000004E0  2F2E 000A                move.l     -[A7], [A6 + 0xA]
000004E4  4EBA 0620                jsr        [PC + 0x620 /* 00000B06 */]
000004E8  265F                     movea.l    A3, [A7]+
000004EA  284B                     movea.l    A4, A3
000004EC  4AAC 0002                tst.l      [A4 + 0x2]
000004F0  660A                     bne        +0xC /* 000004FC */
000004F2  2F3C 0000 04E2           move.l     -[A7], 0x4E2
000004F8  4EAD 185A                jsr        [A5 + 0x185A /* export_775, CODE:16 @ 0000042E */]
label000004FC:
000004FC  4A2C 000B                tst.b      [A4 + 0xB]
00000500  6E0A                     bgt        +0xC /* 0000050C */
00000502  2F3C 0000 04EC           move.l     -[A7], 0x4EC
00000508  4EAD 185A                jsr        [A5 + 0x185A /* export_775, CODE:16 @ 0000042E */]
label0000050C:
0000050C  4AAC 0006                tst.l      [A4 + 0x6]
00000510  660A                     bne        +0xC /* 0000051C */
00000512  2F3C 0000 11EB           move.l     -[A7], 0x11EB
00000518  4EAD 185A                jsr        [A5 + 0x185A /* export_775, CODE:16 @ 0000042E */]
label0000051C:
0000051C  4267                     clr.w      -[A7]
0000051E  2F2C 0006                move.l     -[A7], [A4 + 0x6]
00000522  4EAD 1912                jsr        [A5 + 0x1912 /* export_798, CODE:16 @ 00000BA6 */]
00000526  101F                     move.b     D0, [A7]+
00000528  670A                     beq        +0xC /* 00000534 */
0000052A  2F3C 0000 04ED           move.l     -[A7], 0x4ED
00000530  4EAD 185A                jsr        [A5 + 0x185A /* export_775, CODE:16 @ 0000042E */]
label00000534:
00000534  4A2C 000A                tst.b      [A4 + 0xA]
00000538  5CC0                     sge        D0
0000053A  C02E 0008                and.b      D0, [A6 + 0x8]
0000053E  671A                     beq        +0x1C /* 0000055A */
00000540  7000                     moveq.l    D0, 0x00
00000542  102C 000A                move.b     D0, [A4 + 0xA]
00000546  80BC 0000 0080           or.l       D0, 0x80
0000054C  1940 000A                move.b     [A4 + 0xA], D0
00000550  52AD F4D4                addq.l     [A5 - 0xB2C], 1
00000554  1B7C 0001 F4CF           move.b     [A5 - 0xB31], 0x1
label0000055A:
0000055A  102C 000B                move.b     D0, [A4 + 0xB]
0000055E  4880                     ext.w      D0
00000560  5340                     subq.w     D0, 1
00000562  1940 000B                move.b     [A4 + 0xB], D0
00000566  6612                     bne        +0x14 /* 0000057A */
00000568  53AD F4D0                subq.l     [A5 - 0xB30], 1
0000056C  4A2C 000A                tst.b      [A4 + 0xA]
00000570  6D08                     blt        +0xA /* 0000057A */
00000572  2F2C 0006                move.l     -[A7], [A4 + 0x6]
00000576  4EAD 0232                jsr        [A5 + 0x232 /* export_66, CODE:1 @ 0000468C */]
label0000057A:
0000057A  4CDF 1800                movem.l    A3,A4, [A7]+
0000057E  4E5E                     unlink     A6
00000580  205F                     movea.l    A0, [A7]+
00000582  5C4F                     addq.w     A7, 6
00000584  4ED0                     jmp        [A0]
export_989:
00000586  4E56 0000                link       A6, 0
0000058A  2B6D F480 F49C           move.l     [A5 - 0xB64], [A5 - 0xB80]
00000590  2F2E 000A                move.l     -[A7], [A6 + 0xA]
00000594  1F2E 0008                move.b     -[A7], [A6 + 0x8]
00000598  4EBA FF3C                jsr        [PC - 0xC4 /* 000004D6 */]
0000059C  4E5E                     unlink     A6
0000059E  205F                     movea.l    A0, [A7]+
000005A0  5C4F                     addq.w     A7, 6
000005A2  4ED0                     jmp        [A0]
export_990:
000005A4  4E56 FEA4                link       A6, -0x015C
000005A8  48E7 0708                movem.l    -[A7], D5,D6,D7,A4
000005AC  4A6D FD68                tst.w      [A5 - 0x298]
000005B0  6604                     bne        +0x6 /* 000005B6 */
000005B2  6000 0114                bra        +0x116 /* 000006C8 */
label000005B6:
000005B6  4EBA FBBA                jsr        [PC - 0x446 /* 00000172 */]
000005BA  202D F6A8                move.l     D0, [A5 - 0x958]
000005BE  B0AD F4BE                cmp.l      D0, [A5 - 0xB42]
000005C2  56C0                     sne        D0
000005C4  C02D F3C0                and.b      D0, [A5 - 0xC40]
000005C8  6704                     beq        +0x6 /* 000005CE */
000005CA  4EBA 1F12                jsr        [PC + 0x1F12 /* 000024DE */]
label000005CE:
000005CE  4267                     clr.w      -[A7]
000005D0  3F2D FD68                move.w     -[A7], [A5 - 0x298]
000005D4  4EAD 02F2                jsr        [A5 + 0x2F2 /* export_90, CODE:1 @ 0000486A */]
000005D8  3A1F                     move.w     D5, [A7]+
000005DA  4EBA 05D2                jsr        [PC + 0x5D2 /* 00000BAE */]
000005DE  422D F3C0                clr.b      [A5 - 0xC40]
000005E2  486E FFB0                pea.l      [A6 - 0x50]
000005E6  7050                     moveq.l    D0, 0x50
000005E8  2F00                     move.l     -[A7], D0
000005EA  4EAD 1B42                jsr        [A5 + 0x1B42 /* export_868, CODE:16 @ 00001E7C */]
000005EE  41EE FEB0                lea.l      A0, [A6 - 0x150]
000005F2  43ED FD48                lea.l      A1, [A5 - 0x2B8]
000005F6  7007                     moveq.l    D0, 0x07
label000005F8:
000005F8  20D9                     move.l     [A0]+, [A1]+
000005FA  51C8 FFFC                dbf        D0, -0x6 /* 000005F8 */
000005FE  3D6D FC46 FFC6           move.w     [A6 - 0x3A], [A5 - 0x3BA]
00000604  41EE FEB0                lea.l      A0, [A6 - 0x150]
00000608  2D48 FFC2                move.l     [A6 - 0x3E], A0
0000060C  4267                     clr.w      -[A7]
0000060E  486E FFB0                pea.l      [A6 - 0x50]
00000612  4267                     clr.w      -[A7]
00000614  4EAD 02DA                jsr        [A5 + 0x2DA /* export_87, CODE:1 @ 0000480E */]
00000618  4A5F                     tst.w      [A7]+
0000061A  6706                     beq        +0x8 /* 00000622 */
0000061C  7000                     moveq.l    D0, 0x00
0000061E  2D40 FFFC                move.l     [A6 - 0x4], D0
label00000622:
00000622  302D F3C2                move.w     D0, [A5 - 0xC3E]
00000626  5340                     subq.w     D0, 1
00000628  41ED F3C4                lea.l      A0, [A5 - 0xC3C]
0000062C  C1FC 000C                muls.w     D0, 0xC
00000630  21AE FFFC 0008           move.l     [A0 + D0.w + 0x8], [A6 - 0x4]
00000636  302D FC42                move.w     D0, [A5 - 0x3BE]
0000063A  B06D F4F8                cmp.w      D0, [A5 - 0xB08]
0000063E  6700 0088                beq        +0x8A /* 000006C8 */
00000642  70FF                     moveq.l    D0, 0xFFFFFFFF
00000644  B06D FC42                cmp.w      D0, [A5 - 0x3BE]
00000648  6776                     beq        +0x78 /* 000006C0 */
0000064A  4267                     clr.w      -[A7]
0000064C  A994                     syscall    CurResFile
0000064E  3C1F                     move.w     D6, [A7]+
00000650  3F2D FC42                move.w     -[A7], [A5 - 0x3BE]
00000654  A998                     syscall    UseResFile
00000656  4267                     clr.w      -[A7]
00000658  A99B                     syscall    SetResLoad
0000065A  4267                     clr.w      -[A7]
0000065C  2F3A 0072                move.l     -[A7], [PC + 0x72 /* 000006D0, value 0x736E6420 'snd ', cstring "snd NV" */]
00000660  A80D                     syscall    Count1Resources
00000662  3D5F FEA4                move.w     [A6 - 0x15C], [A7]+
00000666  7E01                     moveq.l    D7, 0x01
00000668  6046                     bra        +0x48 /* 000006B0 */
label0000066A:
0000066A  42A7                     clr.l      -[A7]
0000066C  2F3A 0062                move.l     -[A7], [PC + 0x62 /* 000006D0, value 0x736E6420 'snd ', cstring "snd NV" */]
00000670  3F07                     move.w     -[A7], D7
00000672  A80E                     syscall    Get1IndResource/Get1IxResource
00000674  285F                     movea.l    A4, [A7]+
00000676  200C                     move.l     D0, A4
00000678  56C0                     sne        D0
0000067A  4A00                     tst.b      D0
0000067C  672E                     beq        +0x30 /* 000006AC */
0000067E  2F00                     move.l     -[A7], D0
00000680  4267                     clr.w      -[A7]
00000682  2F0C                     move.l     -[A7], A4
00000684  4EAD 1912                jsr        [A5 + 0x1912 /* export_798, CODE:16 @ 00000BA6 */]
00000688  121F                     move.b     D1, [A7]+
0000068A  201F                     move.l     D0, [A7]+
0000068C  0A01 0001                xori.b     D1, 0x1
00000690  C001                     and.b      D0, D1
00000692  4A00                     tst.b      D0
00000694  6716                     beq        +0x18 /* 000006AC */
00000696  2F00                     move.l     -[A7], D0
00000698  4267                     clr.w      -[A7]
0000069A  2F0C                     move.l     -[A7], A4
0000069C  4EAD 18AA                jsr        [A5 + 0x18AA /* export_785, CODE:16 @ 0000071A */]
000006A0  121F                     move.b     D1, [A7]+
000006A2  201F                     move.l     D0, [A7]+
000006A4  C001                     and.b      D0, D1
000006A6  6704                     beq        +0x6 /* 000006AC */
000006A8  2F0C                     move.l     -[A7], A4
000006AA  A992                     syscall    DetachResource
label000006AC:
000006AC  5247                     addq.w     D7, 1
000006AE  6906                     bvs        +0x8 /* 000006B6 */
label000006B0:
000006B0  BE6E FEA4                cmp.w      D7, [A6 - 0x15C]
000006B4  6FB4                     ble        -0x4A /* 0000066A */
label000006B6:
000006B6  1F3C 0001                move.b     -[A7], 0x1
000006BA  A99B                     syscall    SetResLoad
000006BC  3F06                     move.w     -[A7], D6
000006BE  A998                     syscall    UseResFile
label000006C0:
000006C0  3F2D FC42                move.w     -[A7], [A5 - 0x3BE]
000006C4  4EAD 18CA                jsr        [A5 + 0x18CA /* export_789, CODE:16 @ 00000806 */]
label000006C8:
000006C8  4CDF 10E0                movem.l    D5,D6,D7,A4, [A7]+
000006CC  4E5E                     unlink     A6
000006CE  4E75                     rts
000006D0  736E                     moveq.l    D1, 0x6E
000006D2  6420                     bcc        +0x22 /* 000006F4 */
export_991:
fn000006D4:
000006D4  4E56 0000                link       A6, 0
000006D8  2B6D F494 F49C           move.l     [A5 - 0xB64], [A5 - 0xB6C]
000006DE  2F2E 000A                move.l     -[A7], [A6 + 0xA]
000006E2  1F2E 0008                move.b     -[A7], [A6 + 0x8]
000006E6  4EBA FDEE                jsr        [PC - 0x212 /* 000004D6 */]
000006EA  4E5E                     unlink     A6
000006EC  205F                     movea.l    A0, [A7]+
000006EE  5C4F                     addq.w     A7, 6
000006F0  4ED0                     jmp        [A0]
fn000006F2:
000006F2  4E56 FFCE                link       A6, -0x0032
// begin alternate branch 000006F4-000006F6
label000006F4:
000006F4  FFCE                     .invalid   <<F/7/7>>
// end alternate branch 000006F4-000006F6
label000006F4: // (misaligned)
000006F6  48E7 0F18                movem.l    -[A7], D4,D5,D6,D7,A3,A4
000006FA  7000                     moveq.l    D0, 0x00
000006FC  2840                     movea.l    A4, D0
000006FE  2E3C 7FFF FFFF           move.l     D7, 0x7FFFFFFF
00000704  47ED FA3C                lea.l      A3, [A5 - 0x5C4]
00000708  202D F674                move.l     D0, [A5 - 0x98C]
0000070C  5380                     subq.l     D0, 1
0000070E  3D40 FFCE                move.w     [A6 - 0x32], D0
00000712  3D7C 0001 FFEA           move.w     [A6 - 0x16], 0x1
00000718  6030                     bra        +0x32 /* 0000074A */
label0000071A:
0000071A  200B                     move.l     D0, A3
0000071C  5080                     addq.l     D0, 8
0000071E  2D40 FFF8                move.l     [A6 - 0x8], D0
00000722  206E FFF8                movea.l    A0, [A6 - 0x8]
00000726  202B 0004                move.l     D0, [A3 + 0x4]
0000072A  D093                     add.l      D0, [A3]
0000072C  2210                     move.l     D1, [A0]
0000072E  9280                     sub.l      D1, D0
00000730  2D41 FFF0                move.l     [A6 - 0x10], D1
00000734  BEAE FFF0                cmp.l      D7, [A6 - 0x10]
00000738  6F06                     ble        +0x8 /* 00000740 */
0000073A  284B                     movea.l    A4, A3
0000073C  2E2E FFF0                move.l     D7, [A6 - 0x10]
label00000740:
00000740  266E FFF8                movea.l    A3, [A6 - 0x8]
00000744  526E FFEA                addq.w     [A6 - 0x16], 1
00000748  690A                     bvs        +0xC /* 00000754 */
label0000074A:
0000074A  302E FFEA                move.w     D0, [A6 - 0x16]
0000074E  B06E FFCE                cmp.w      D0, [A6 - 0x32]
00000752  6FC6                     ble        -0x38 /* 0000071A */
label00000754:
00000754  0C87 7FFF FFFF           cmpi.l     D7, 0x7FFFFFFF
0000075A  57C0                     seq        D0
0000075C  4A87                     tst.l      D7
0000075E  5FC1                     sle        D1
00000760  8001                     or.b       D0, D1
00000762  670A                     beq        +0xC /* 0000076E */
00000764  2F3C 0000 072A           move.l     -[A7], 0x72A
0000076A  4EAD 185A                jsr        [A5 + 0x185A /* export_775, CODE:16 @ 0000042E */]
label0000076E:
0000076E  2D6C 0004 FFE6           move.l     [A6 - 0x1A], [A4 + 0x4]
00000774  202E FFE6                move.l     D0, [A6 - 0x1A]
00000778  D094                     add.l      D0, [A4]
0000077A  2D40 FFD6                move.l     [A6 - 0x2A], D0
0000077E  2A14                     move.l     D5, [A4]
00000780  42A7                     clr.l      -[A7]
00000782  2F2E FFD6                move.l     -[A7], [A6 - 0x2A]
00000786  4EBA 0E66                jsr        [PC + 0xE66 /* 000015EE */]
0000078A  281F                     move.l     D4, [A7]+
0000078C  42A7                     clr.l      -[A7]
0000078E  2F04                     move.l     -[A7], D4
00000790  4EBA 13D8                jsr        [PC + 0x13D8 /* 00001B6A */]
00000794  2C1F                     move.l     D6, [A7]+
00000796  2046                     movea.l    A0, D6
00000798  2050                     movea.l    A0, [A0]
0000079A  2D50 FFDA                move.l     [A6 - 0x26], [A0]
0000079E  2F06                     move.l     -[A7], D6
000007A0  486E FFD1                pea.l      [A6 - 0x2F]
000007A4  4EAD 1922                jsr        [A5 + 0x1922 /* export_800, CODE:16 @ 00000C02 */]
000007A8  2F05                     move.l     -[A7], D5
000007AA  2F2E FFDA                move.l     -[A7], [A6 - 0x26]
000007AE  2046                     movea.l    A0, D6
000007B0  2F10                     move.l     -[A7], [A0]
000007B2  4EBA 1CB0                jsr        [PC + 0x1CB0 /* 00002464 */]
000007B6  2F06                     move.l     -[A7], D6
000007B8  1F2E FFD1                move.b     -[A7], [A6 - 0x2F]
000007BC  4EAD 03F2                jsr        [A5 + 0x3F2 /* export_122, CODE:1 @ 00004D00 */]
000007C0  2F04                     move.l     -[A7], D4
000007C2  2F05                     move.l     -[A7], D5
000007C4  4EBA 1BE6                jsr        [PC + 0x1BE6 /* 000023AC */]
000007C8  2F04                     move.l     -[A7], D4
000007CA  4267                     clr.w      -[A7]
000007CC  4EBA FF06                jsr        [PC - 0xFA /* 000006D4 */]
000007D0  2F0C                     move.l     -[A7], A4
000007D2  4EBA 018E                jsr        [PC + 0x18E /* 00000962 */]
000007D6  202E FFDA                move.l     D0, [A6 - 0x26]
000007DA  D085                     add.l      D0, D5
000007DC  2F00                     move.l     -[A7], D0
000007DE  2F2E FFE6                move.l     -[A7], [A6 - 0x1A]
000007E2  4267                     clr.w      -[A7]
000007E4  4EBA 03EA                jsr        [PC + 0x3EA /* 00000BD0 */]
000007E8  4CDF 18F0                movem.l    D4,D5,D6,D7,A3,A4, [A7]+
000007EC  4E5E                     unlink     A6
000007EE  4E75                     rts
export_992:
000007F0  4E56 FFD8                link       A6, -0x0028
000007F4  48E7 0700                movem.l    -[A7], D5,D6,D7
000007F8  2A2E 000C                move.l     D5, [A6 + 0xC]
000007FC  7000                     moveq.l    D0, 0x00
000007FE  2D40 0010                move.l     [A6 + 0x10], D0
00000802  4A85                     tst.l      D5
00000804  5FC0                     sle        D0
00000806  802D F4CD                or.b       D0, [A5 - 0xB33]
0000080A  0240 0001                andi.w     D0, 0x1
0000080E  6660                     bne        +0x62 /* 00000870 */
00000810  42A7                     clr.l      -[A7]
00000812  4EBA 05A2                jsr        [PC + 0x5A2 /* 00000DB6 */]
00000816  2E1F                     move.l     D7, [A7]+
00000818  42A7                     clr.l      -[A7]
0000081A  2F05                     move.l     -[A7], D5
0000081C  4EAD 18EA                jsr        [A5 + 0x18EA /* export_793, CODE:16 @ 000008E4 */]
00000820  2A1F                     move.l     D5, [A7]+
00000822  42A7                     clr.l      -[A7]
00000824  2F05                     move.l     -[A7], D5
00000826  4EBA F7D8                jsr        [PC - 0x828 /* 00000000 */]
0000082A  2C1F                     move.l     D6, [A7]+
0000082C  660A                     bne        +0xC /* 00000838 */
0000082E  2F07                     move.l     -[A7], D7
00000830  42A7                     clr.l      -[A7]
00000832  4EBA 1B78                jsr        [PC + 0x1B78 /* 000023AC */]
00000836  6038                     bra        +0x3A /* 00000870 */
label00000838:
00000838  2D45 FFE0                move.l     [A6 - 0x20], D5
0000083C  2D6E 0008 FFE4           move.l     [A6 - 0x1C], [A6 + 0x8]
00000842  2D47 FFE8                move.l     [A6 - 0x18], D7
00000846  41EE FFEC                lea.l      A0, [A6 - 0x14]
0000084A  43FA 0030                lea.l      A1, [PC + 0x30 /* 0000087C, value 0x13467265, pstring "Fresh Bits         " */]
0000084E  7004                     moveq.l    D0, 0x04
label00000850:
00000850  20D9                     move.l     [A0]+, [A1]+
00000852  51C8 FFFC                dbf        D0, -0x6 /* 00000850 */
00000856  2F06                     move.l     -[A7], D6
00000858  7020                     moveq.l    D0, 0x20
0000085A  2F00                     move.l     -[A7], D0
0000085C  486E FFE0                pea.l      [A6 - 0x20]
00000860  4EBA 1C02                jsr        [PC + 0x1C02 /* 00002464 */]
00000864  2F07                     move.l     -[A7], D7
00000866  2F06                     move.l     -[A7], D6
00000868  4EBA 1B42                jsr        [PC + 0x1B42 /* 000023AC */]
0000086C  2D47 0010                move.l     [A6 + 0x10], D7
label00000870:
00000870  4CDF 00E0                movem.l    D5,D6,D7, [A7]+
00000874  4E5E                     unlink     A6
00000876  205F                     movea.l    A0, [A7]+
00000878  504F                     addq.w     A7, 8
0000087A  4ED0                     jmp        [A0]
0000087C  1346 7265                move.b     [A1 + 0x7265], D6
00000880  7368                     moveq.l    D1, 0x68
00000882  2042                     movea.l    A0, D2
00000884  6974                     bvs        +0x76 /* 000008FA */
00000886  7320                     moveq.l    D1, 0x20
00000888  2020                     move.l     D0, -[A0]
0000088A  2020                     move.l     D0, -[A0]
0000088C  2020                     move.l     D0, -[A0]
0000088E  2020                     move.l     D0, -[A0]
export_993:
00000890  4E56 FFD4                link       A6, -0x002C
00000894  48E7 0718                movem.l    -[A7], D5,D6,D7,A3,A4
00000898  2C2E 000C                move.l     D6, [A6 + 0xC]
0000089C  422E 0010                clr.b      [A6 + 0x10]
000008A0  102D F4CD                move.b     D0, [A5 - 0xB33]
000008A4  6600 00B0                bne        +0xB2 /* 00000956 */
000008A8  42A7                     clr.l      -[A7]
000008AA  2F06                     move.l     -[A7], D6
000008AC  4EBA 155A                jsr        [PC + 0x155A /* 00001E08 */]
000008B0  2E1F                     move.l     D7, [A7]+
000008B2  6F00 00A2                ble        +0xA4 /* 00000956 */
000008B6  2F07                     move.l     -[A7], D7
000008B8  7020                     moveq.l    D0, 0x20
000008BA  2F00                     move.l     -[A7], D0
000008BC  486E FFD8                pea.l      [A6 - 0x28]
000008C0  4EBA 14DE                jsr        [PC + 0x14DE /* 00001DA0 */]
000008C4  2F06                     move.l     -[A7], D6
000008C6  2F2E 0008                move.l     -[A7], [A6 + 0x8]
000008CA  2F2E FFDC                move.l     -[A7], [A6 - 0x24]
000008CE  2F3C 0000 0513           move.l     -[A7], 0x513
000008D4  4EAD 1842                jsr        [A5 + 0x1842 /* export_772, CODE:16 @ 0000038E */]
000008D8  42A7                     clr.l      -[A7]
000008DA  2F06                     move.l     -[A7], D6
000008DC  4EBA 0228                jsr        [PC + 0x228 /* 00000B06 */]
000008E0  265F                     movea.l    A3, [A7]+
000008E2  284B                     movea.l    A4, A3
000008E4  4AAC 0002                tst.l      [A4 + 0x2]
000008E8  6750                     beq        +0x52 /* 0000093A */
000008EA  4A2C 000B                tst.b      [A4 + 0xB]
000008EE  670A                     beq        +0xC /* 000008FA */
000008F0  2F3C 0000 04BA           move.l     -[A7], 0x4BA
000008F6  4EAD 185A                jsr        [A5 + 0x185A /* export_775, CODE:16 @ 0000042E */]
label000008FA:
000008FA  4AAC 0006                tst.l      [A4 + 0x6]
000008FE  660A                     bne        +0xC /* 0000090A */
00000900  2F3C 0000 11C1           move.l     -[A7], 0x11C1
00000906  4EAD 185A                jsr        [A5 + 0x185A /* export_775, CODE:16 @ 0000042E */]
label0000090A:
0000090A  4267                     clr.w      -[A7]
0000090C  2F2C 0006                move.l     -[A7], [A4 + 0x6]
00000910  4EAD 1912                jsr        [A5 + 0x1912 /* export_798, CODE:16 @ 00000BA6 */]
00000914  101F                     move.b     D0, [A7]+
00000916  661C                     bne        +0x1E /* 00000934 */
00000918  42A7                     clr.l      -[A7]
0000091A  2F2C 0006                move.l     -[A7], [A4 + 0x6]
0000091E  4EAD 0202                jsr        [A5 + 0x202 /* export_60, CODE:1 @ 00004640 */]
00000922  2A1F                     move.l     D5, [A7]+
00000924  BAAE FFD8                cmp.l      D5, [A6 - 0x28]
00000928  670A                     beq        +0xC /* 00000934 */
0000092A  2F3C 0000 04C4           move.l     -[A7], 0x4C4
00000930  4EAD 185A                jsr        [A5 + 0x185A /* export_775, CODE:16 @ 0000042E */]
label00000934:
00000934  2F0B                     move.l     -[A7], A3
00000936  4EBA 00B6                jsr        [PC + 0xB6 /* 000009EE */]
label0000093A:
0000093A  2F06                     move.l     -[A7], D6
0000093C  42A7                     clr.l      -[A7]
0000093E  4EBA 1A6C                jsr        [PC + 0x1A6C /* 000023AC */]
00000942  2F07                     move.l     -[A7], D7
00000944  2F2E FFD8                move.l     -[A7], [A6 - 0x28]
00000948  1F3C 0001                move.b     -[A7], 0x1
0000094C  4EBA 0282                jsr        [PC + 0x282 /* 00000BD0 */]
00000950  1D7C 0001 0010           move.b     [A6 + 0x10], 0x1
label00000956:
00000956  4CDF 18E0                movem.l    D5,D6,D7,A3,A4, [A7]+
0000095A  4E5E                     unlink     A6
0000095C  205F                     movea.l    A0, [A7]+
0000095E  504F                     addq.w     A7, 8
00000960  4ED0                     jmp        [A0]
fn00000962:
00000962  4E56 FFF4                link       A6, -0x000C
00000966  48E7 0118                movem.l    -[A7], D7,A3,A4
0000096A  202D F674                move.l     D0, [A5 - 0x98C]
0000096E  5380                     subq.l     D0, 1
00000970  2B40 F674                move.l     [A5 - 0x98C], D0
00000974  206E 0008                movea.l    A0, [A6 + 0x8]
00000978  202D F678                move.l     D0, [A5 - 0x988]
0000097C  90A8 0004                sub.l      D0, [A0 + 0x4]
00000980  2B40 F678                move.l     [A5 - 0x988], D0
00000984  1B7C 0001 F63B           move.b     [A5 - 0x9C5], 0x1
0000098A  4AAD F674                tst.l      [A5 - 0x98C]
0000098E  6C0A                     bge        +0xC /* 0000099A */
00000990  2F3C 0000 04FC           move.l     -[A7], 0x4FC
00000996  4EAD 185A                jsr        [A5 + 0x185A /* export_775, CODE:16 @ 0000042E */]
label0000099A:
0000099A  4AAD F678                tst.l      [A5 - 0x988]
0000099E  6C0A                     bge        +0xC /* 000009AA */
000009A0  2F3C 0000 04FD           move.l     -[A7], 0x4FD
000009A6  4EAD 185A                jsr        [A5 + 0x185A /* export_775, CODE:16 @ 0000042E */]
label000009AA:
000009AA  202D F678                move.l     D0, [A5 - 0x988]
000009AE  C0BC 0000 001F           and.l      D0, 0x1F
000009B4  4A80                     tst.l      D0
000009B6  670A                     beq        +0xC /* 000009C2 */
000009B8  2F3C 0000 04FE           move.l     -[A7], 0x4FE
000009BE  4EAD 185A                jsr        [A5 + 0x185A /* export_775, CODE:16 @ 0000042E */]
label000009C2:
000009C2  286E 0008                movea.l    A4, [A6 + 0x8]
000009C6  264C                     movea.l    A3, A4
000009C8  508B                     addq.l     A3, 8
000009CA  41ED FA3C                lea.l      A0, [A5 - 0x5C4]
000009CE  2008                     move.l     D0, A0
000009D0  D0BC 0000 0200           add.l      D0, 0x200
000009D6  2E00                     move.l     D7, D0
000009D8  9E8B                     sub.l      D7, A3
000009DA  2F0B                     move.l     -[A7], A3
000009DC  2F0C                     move.l     -[A7], A4
000009DE  2F07                     move.l     -[A7], D7
000009E0  4EAD 024A                jsr        [A5 + 0x24A /* export_69, CODE:1 @ 000046A6 */]
000009E4  4CDF 1880                movem.l    D7,A3,A4, [A7]+
000009E8  4E5E                     unlink     A6
000009EA  2E9F                     move.l     [A7], [A7]+
000009EC  4E75                     rts
fn000009EE:
000009EE  4E56 FFF0                link       A6, -0x0010
000009F2  48E7 0718                movem.l    -[A7], D5,D6,D7,A3,A4
000009F6  2A2E 0008                move.l     D5, [A6 + 0x8]
000009FA  2045                     movea.l    A0, D5
000009FC  2F28 0006                move.l     -[A7], [A0 + 0x6]
00000A00  4EAD 18D2                jsr        [A5 + 0x18D2 /* export_790, CODE:16 @ 0000083E */]
00000A04  53AD F4D8                subq.l     [A5 - 0xB28], 1
00000A08  4AAD F4D8                tst.l      [A5 - 0xB28]
00000A0C  6C0A                     bge        +0xC /* 00000A18 */
00000A0E  2F3C 0000 047E           move.l     -[A7], 0x47E
00000A14  4EAD 185A                jsr        [A5 + 0x185A /* export_775, CODE:16 @ 0000042E */]
label00000A18:
00000A18  2045                     movea.l    A0, D5
00000A1A  4A28 000A                tst.b      [A0 + 0xA]
00000A1E  6C04                     bge        +0x6 /* 00000A24 */
00000A20  53AD F4D4                subq.l     [A5 - 0xB2C], 1
label00000A24:
00000A24  2845                     movea.l    A4, D5
label00000A26:
00000A26  264C                     movea.l    A3, A4
00000A28  4253                     clr.w      [A3]
00000A2A  7000                     moveq.l    D0, 0x00
00000A2C  2740 0002                move.l     [A3 + 0x2], D0
00000A30  7000                     moveq.l    D0, 0x00
00000A32  2740 0006                move.l     [A3 + 0x6], D0
00000A36  422B 000A                clr.b      [A3 + 0xA]
00000A3A  422B 000B                clr.b      [A3 + 0xB]
label00000A3E:
00000A3E  700C                     moveq.l    D0, 0x0C
00000A40  D9C0                     add.l      A4, D0
00000A42  B9ED F4A8                cmpa.l     A4, [A5 - 0xB58]
00000A46  6604                     bne        +0x6 /* 00000A4C */
00000A48  286D F4AC                movea.l    A4, [A5 - 0xB54]
label00000A4C:
00000A4C  2C2C 0002                move.l     D6, [A4 + 0x2]
00000A50  6602                     bne        +0x4 /* 00000A54 */
00000A52  6060                     bra        +0x62 /* 00000AB4 */
label00000A54:
00000A54  42A7                     clr.l      -[A7]
00000A56  2F2D F4AC                move.l     -[A7], [A5 - 0xB54]
00000A5A  3F2D F4BA                move.w     -[A7], [A5 - 0xB46]
00000A5E  7000                     moveq.l    D0, 0x00
00000A60  102C 000A                move.b     D0, [A4 + 0xA]
00000A64  C0BC 0000 000F           and.l      D0, 0xF
00000A6A  2206                     move.l     D1, D6
00000A6C  B181                     xor.l      D1, D0
00000A6E  2F01                     move.l     -[A7], D1
00000A70  4EAD 1A42                jsr        [A5 + 0x1A42 /* export_836, CODE:16 @ 00001552 */]
00000A74  2E1F                     move.l     D7, [A7]+
00000A76  B7C7                     cmpa.l     A3, D7
00000A78  5DC0                     slt        D0
00000A7A  4A00                     tst.b      D0
00000A7C  6708                     beq        +0xA /* 00000A86 */
00000A7E  B9C7                     cmpa.l     A4, D7
00000A80  5CC1                     sge        D1
00000A82  C001                     and.b      D0, D1
00000A84  66B8                     bne        -0x46 /* 00000A3E */
label00000A86:
00000A86  B9CB                     cmpa.l     A4, A3
00000A88  5DC0                     slt        D0
00000A8A  4A00                     tst.b      D0
00000A8C  6708                     beq        +0xA /* 00000A96 */
00000A8E  B7C7                     cmpa.l     A3, D7
00000A90  5DC1                     slt        D1
00000A92  C001                     and.b      D0, D1
00000A94  66A8                     bne        -0x56 /* 00000A3E */
label00000A96:
00000A96  B9CB                     cmpa.l     A4, A3
00000A98  5DC0                     slt        D0
00000A9A  4A00                     tst.b      D0
00000A9C  6708                     beq        +0xA /* 00000AA6 */
00000A9E  B9C7                     cmpa.l     A4, D7
00000AA0  5CC1                     sge        D1
00000AA2  C001                     and.b      D0, D1
00000AA4  6698                     bne        -0x66 /* 00000A3E */
label00000AA6:
00000AA6  204B                     movea.l    A0, A3
00000AA8  224C                     movea.l    A1, A4
00000AAA  20D9                     move.l     [A0]+, [A1]+
00000AAC  20D9                     move.l     [A0]+, [A1]+
00000AAE  20D9                     move.l     [A0]+, [A1]+
00000AB0  6000 FF74                bra        -0x8A /* 00000A26 */
label00000AB4:
00000AB4  4CDF 18E0                movem.l    D5,D6,D7,A3,A4, [A7]+
00000AB8  4E5E                     unlink     A6
00000ABA  2E9F                     move.l     [A7], [A7]+
00000ABC  4E75                     rts
fn00000ABE:
00000ABE  4E56 FFF4                link       A6, -0x000C
00000AC2  48E7 0108                movem.l    -[A7], D7,A4
00000AC6  49ED FA3C                lea.l      A4, [A5 - 0x5C4]
00000ACA  2D6D F674 FFF4           move.l     [A6 - 0xC], [A5 - 0x98C]
00000AD0  7E01                     moveq.l    D7, 0x01
00000AD2  601C                     bra        +0x1E /* 00000AF0 */
label00000AD4:
00000AD4  2014                     move.l     D0, [A4]
00000AD6  B0AE 0008                cmp.l      D0, [A6 + 0x8]
00000ADA  6E1A                     bgt        +0x1C /* 00000AF6 */
00000ADC  2014                     move.l     D0, [A4]
00000ADE  B0AE 0008                cmp.l      D0, [A6 + 0x8]
00000AE2  6606                     bne        +0x8 /* 00000AEA */
00000AE4  2D4C 000C                move.l     [A6 + 0xC], A4
00000AE8  6012                     bra        +0x14 /* 00000AFC */
label00000AEA:
00000AEA  508C                     addq.l     A4, 8
00000AEC  5287                     addq.l     D7, 1
00000AEE  6906                     bvs        +0x8 /* 00000AF6 */
label00000AF0:
00000AF0  BEAE FFF4                cmp.l      D7, [A6 - 0xC]
00000AF4  6FDE                     ble        -0x20 /* 00000AD4 */
label00000AF6:
00000AF6  7000                     moveq.l    D0, 0x00
00000AF8  2D40 000C                move.l     [A6 + 0xC], D0
label00000AFC:
00000AFC  4CDF 1080                movem.l    D7,A4, [A7]+
00000B00  4E5E                     unlink     A6
00000B02  2E9F                     move.l     [A7], [A7]+
00000B04  4E75                     rts
fn00000B06:
00000B06  4E56 FFFC                link       A6, -0x0004
00000B0A  48E7 0108                movem.l    -[A7], D7,A4
00000B0E  2E2E 0008                move.l     D7, [A6 + 0x8]
00000B12  206D F49C                movea.l    A0, [A5 - 0xB64]
00000B16  BEA8 0002                cmp.l      D7, [A0 + 0x2]
00000B1A  57C0                     seq        D0
00000B1C  4A00                     tst.b      D0
00000B1E  6726                     beq        +0x28 /* 00000B46 */
00000B20  7200                     moveq.l    D1, 0x00
00000B22  206D F49C                movea.l    A0, [A5 - 0xB64]
00000B26  1228 000A                move.b     D1, [A0 + 0xA]
00000B2A  C2BC 0000 000F           and.l      D1, 0xF
00000B30  342D F3C2                move.w     D2, [A5 - 0xC3E]
00000B34  48C2                     ext.l      D2
00000B36  B481                     cmp.l      D2, D1
00000B38  57C1                     seq        D1
00000B3A  C001                     and.b      D0, D1
00000B3C  6708                     beq        +0xA /* 00000B46 */
00000B3E  2D6D F49C 000C           move.l     [A6 + 0xC], [A5 - 0xB64]
00000B44  605E                     bra        +0x60 /* 00000BA4 */
label00000B46:
00000B46  42A7                     clr.l      -[A7]
00000B48  2F2D F4AC                move.l     -[A7], [A5 - 0xB54]
00000B4C  3F2D F4BA                move.w     -[A7], [A5 - 0xB46]
00000B50  7000                     moveq.l    D0, 0x00
00000B52  302D F3C2                move.w     D0, [A5 - 0xC3E]
00000B56  2207                     move.l     D1, D7
00000B58  B181                     xor.l      D1, D0
00000B5A  2F01                     move.l     -[A7], D1
00000B5C  4EAD 1A42                jsr        [A5 + 0x1A42 /* export_836, CODE:16 @ 00001552 */]
00000B60  285F                     movea.l    A4, [A7]+
label00000B62:
00000B62  4AAC 0002                tst.l      [A4 + 0x2]
00000B66  6734                     beq        +0x36 /* 00000B9C */
00000B68  BEAC 0002                cmp.l      D7, [A4 + 0x2]
00000B6C  57C0                     seq        D0
00000B6E  4A00                     tst.b      D0
00000B70  671A                     beq        +0x1C /* 00000B8C */
00000B72  7200                     moveq.l    D1, 0x00
00000B74  122C 000A                move.b     D1, [A4 + 0xA]
00000B78  C2BC 0000 000F           and.l      D1, 0xF
00000B7E  342D F3C2                move.w     D2, [A5 - 0xC3E]
00000B82  48C2                     ext.l      D2
00000B84  B481                     cmp.l      D2, D1
00000B86  57C1                     seq        D1
00000B88  C001                     and.b      D0, D1
00000B8A  6610                     bne        +0x12 /* 00000B9C */
label00000B8C:
00000B8C  700C                     moveq.l    D0, 0x0C
00000B8E  D9C0                     add.l      A4, D0
00000B90  B9ED F4A8                cmpa.l     A4, [A5 - 0xB58]
00000B94  6604                     bne        +0x6 /* 00000B9A */
00000B96  286D F4AC                movea.l    A4, [A5 - 0xB54]
label00000B9A:
00000B9A  60C6                     bra        -0x38 /* 00000B62 */
label00000B9C:
00000B9C  2B4C F49C                move.l     [A5 - 0xB64], A4
00000BA0  2D4C 000C                move.l     [A6 + 0xC], A4
label00000BA4:
00000BA4  4CDF 1080                movem.l    D7,A4, [A7]+
00000BA8  4E5E                     unlink     A6
00000BAA  2E9F                     move.l     [A7], [A7]+
00000BAC  4E75                     rts
fn00000BAE:
00000BAE  4E56 FFFE                link       A6, -0x0002
00000BB2  102D F3C1                move.b     D0, [A5 - 0xC3F]
00000BB6  6714                     beq        +0x16 /* 00000BCC */
00000BB8  4267                     clr.w      -[A7]
00000BBA  42A7                     clr.l      -[A7]
00000BBC  3F2D FC44                move.w     -[A7], [A5 - 0x3BC]
00000BC0  4EAD 032A                jsr        [A5 + 0x32A /* export_97, CODE:1 @ 00004986 */]
00000BC4  3D5F FFFE                move.w     [A6 - 0x2], [A7]+
00000BC8  422D F3C1                clr.b      [A5 - 0xC3F]
label00000BCC:
00000BCC  4E5E                     unlink     A6
00000BCE  4E75                     rts
fn00000BD0:
00000BD0  4E56 FFAC                link       A6, -0x0054
00000BD4  48E7 0F18                movem.l    -[A7], D4,D5,D6,D7,A3,A4
00000BD8  2C2E 000A                move.l     D6, [A6 + 0xA]
00000BDC  5FC0                     sle        D0
00000BDE  2206                     move.l     D1, D6
00000BE0  C2BC 0000 001F           and.l      D1, 0x1F
00000BE6  4A81                     tst.l      D1
00000BE8  56C1                     sne        D1
00000BEA  8001                     or.b       D0, D1
00000BEC  670A                     beq        +0xC /* 00000BF8 */
00000BEE  2F3C 0000 0438           move.l     -[A7], 0x438
00000BF4  4EAD 185A                jsr        [A5 + 0x185A /* export_775, CODE:16 @ 0000042E */]
label00000BF8:
00000BF8  7040                     moveq.l    D0, 0x40
00000BFA  B0AD F674                cmp.l      D0, [A5 - 0x98C]
00000BFE  6E0A                     bgt        +0xC /* 00000C0A */
00000C00  2F3C 0000 0439           move.l     -[A7], 0x439
00000C06  4EAD 185A                jsr        [A5 + 0x185A /* export_775, CODE:16 @ 0000042E */]
label00000C0A:
00000C0A  202D F674                move.l     D0, [A5 - 0x98C]
00000C0E  5280                     addq.l     D0, 1
00000C10  5340                     subq.w     D0, 1
00000C12  41ED FA3C                lea.l      A0, [A5 - 0x5C4]
00000C16  E740                     asl        D0.w, 3
00000C18  41F0 0000                lea.l      A0, [A0 + D0.w]
00000C1C  2D48 FFAC                move.l     [A6 - 0x54], A0
00000C20  20BC 7FFF FFFF           move.l     [A0], 0x7FFFFFFF
00000C26  206E FFAC                movea.l    A0, [A6 - 0x54]
00000C2A  2146 0004                move.l     [A0 + 0x4], D6
00000C2E  7000                     moveq.l    D0, 0x00
00000C30  2840                     movea.l    A4, D0
00000C32  7E00                     moveq.l    D7, 0x00
00000C34  47ED FA3C                lea.l      A3, [A5 - 0x5C4]
00000C38  202D F674                move.l     D0, [A5 - 0x98C]
00000C3C  E780                     asl        D0, 3
00000C3E  D08B                     add.l      D0, A3
00000C40  2D40 FFB0                move.l     [A6 - 0x50], D0
00000C44  2006                     move.l     D0, D6
00000C46  D0AE 000E                add.l      D0, [A6 + 0xE]
00000C4A  2D40 FFC0                move.l     [A6 - 0x40], D0
label00000C4E:
00000C4E  2013                     move.l     D0, [A3]
00000C50  B0AE FFC0                cmp.l      D0, [A6 - 0x40]
00000C54  6E28                     bgt        +0x2A /* 00000C7E */
00000C56  202B 0004                move.l     D0, [A3 + 0x4]
00000C5A  D093                     add.l      D0, [A3]
00000C5C  B0AE 000E                cmp.l      D0, [A6 + 0xE]
00000C60  6608                     bne        +0xA /* 00000C6A */
00000C62  284B                     movea.l    A4, A3
00000C64  2D6B 0004 FFC8           move.l     [A6 - 0x38], [A3 + 0x4]
label00000C6A:
00000C6A  2013                     move.l     D0, [A3]
00000C6C  B0AE FFC0                cmp.l      D0, [A6 - 0x40]
00000C70  6608                     bne        +0xA /* 00000C7A */
00000C72  2E0B                     move.l     D7, A3
00000C74  2D6B 0004 FFCC           move.l     [A6 - 0x34], [A3 + 0x4]
label00000C7A:
00000C7A  508B                     addq.l     A3, 8
00000C7C  60D0                     bra        -0x2E /* 00000C4E */
label00000C7E:
00000C7E  4A87                     tst.l      D7
00000C80  57C0                     seq        D0
00000C82  220C                     move.l     D1, A4
00000C84  57C1                     seq        D1
00000C86  C001                     and.b      D0, D1
00000C88  673C                     beq        +0x3E /* 00000CC6 */
00000C8A  280B                     move.l     D4, A3
00000C8C  2004                     move.l     D0, D4
00000C8E  5080                     addq.l     D0, 8
00000C90  2D40 FFBC                move.l     [A6 - 0x44], D0
00000C94  202E FFB0                move.l     D0, [A6 - 0x50]
00000C98  9084                     sub.l      D0, D4
00000C9A  2D40 FFB4                move.l     [A6 - 0x4C], D0
00000C9E  2F04                     move.l     -[A7], D4
00000CA0  2F2E FFBC                move.l     -[A7], [A6 - 0x44]
00000CA4  2F2E FFB4                move.l     -[A7], [A6 - 0x4C]
00000CA8  4EAD 024A                jsr        [A5 + 0x24A /* export_69, CODE:1 @ 000046A6 */]
00000CAC  202D F674                move.l     D0, [A5 - 0x98C]
00000CB0  5280                     addq.l     D0, 1
00000CB2  2B40 F674                move.l     [A5 - 0x98C], D0
00000CB6  26AE 000E                move.l     [A3], [A6 + 0xE]
00000CBA  2746 0004                move.l     [A3 + 0x4], D6
00000CBE  2A2E 000E                move.l     D5, [A6 + 0xE]
00000CC2  2D46 FFE0                move.l     [A6 - 0x20], D6
label00000CC6:
00000CC6  4A87                     tst.l      D7
00000CC8  56C0                     sne        D0
00000CCA  220C                     move.l     D1, A4
00000CCC  57C1                     seq        D1
00000CCE  C001                     and.b      D0, D1
00000CD0  6720                     beq        +0x22 /* 00000CF2 */
00000CD2  2047                     movea.l    A0, D7
00000CD4  20AE 000E                move.l     [A0], [A6 + 0xE]
00000CD8  2047                     movea.l    A0, D7
00000CDA  2006                     move.l     D0, D6
00000CDC  D0A8 0004                add.l      D0, [A0 + 0x4]
00000CE0  2047                     movea.l    A0, D7
00000CE2  2140 0004                move.l     [A0 + 0x4], D0
00000CE6  2047                     movea.l    A0, D7
00000CE8  2A10                     move.l     D5, [A0]
00000CEA  2047                     movea.l    A0, D7
00000CEC  2D68 0004 FFE0           move.l     [A6 - 0x20], [A0 + 0x4]
label00000CF2:
00000CF2  4A87                     tst.l      D7
00000CF4  57C0                     seq        D0
00000CF6  220C                     move.l     D1, A4
00000CF8  56C1                     sne        D1
00000CFA  C001                     and.b      D0, D1
00000CFC  6712                     beq        +0x14 /* 00000D10 */
00000CFE  2006                     move.l     D0, D6
00000D00  D0AC 0004                add.l      D0, [A4 + 0x4]
00000D04  2940 0004                move.l     [A4 + 0x4], D0
00000D08  2A14                     move.l     D5, [A4]
00000D0A  2D6C 0004 FFE0           move.l     [A6 - 0x20], [A4 + 0x4]
label00000D10:
00000D10  4A87                     tst.l      D7
00000D12  56C0                     sne        D0
00000D14  220C                     move.l     D1, A4
00000D16  56C1                     sne        D1
00000D18  C001                     and.b      D0, D1
00000D1A  6728                     beq        +0x2A /* 00000D44 */
00000D1C  2F07                     move.l     -[A7], D7
00000D1E  4EBA FC42                jsr        [PC - 0x3BE /* 00000962 */]
00000D22  202E FFCC                move.l     D0, [A6 - 0x34]
00000D26  D0AD F678                add.l      D0, [A5 - 0x988]
00000D2A  2B40 F678                move.l     [A5 - 0x988], D0
00000D2E  202E FFCC                move.l     D0, [A6 - 0x34]
00000D32  D0AC 0004                add.l      D0, [A4 + 0x4]
00000D36  D086                     add.l      D0, D6
00000D38  2940 0004                move.l     [A4 + 0x4], D0
00000D3C  2A14                     move.l     D5, [A4]
00000D3E  2D6C 0004 FFE0           move.l     [A6 - 0x20], [A4 + 0x4]
label00000D44:
00000D44  2D7C 4652 4545 FFE4      move.l     [A6 - 0x1C], 0x46524545 /* 'FREE' */
00000D4C  7000                     moveq.l    D0, 0x00
00000D4E  2D40 FFE8                move.l     [A6 - 0x18], D0
00000D52  41EE FFEC                lea.l      A0, [A6 - 0x14]
00000D56  43FA 004A                lea.l      A1, [PC + 0x4A /* 00000DA2, value 0x13467265, pstring "Free Object        " */]
00000D5A  7004                     moveq.l    D0, 0x04
label00000D5C:
00000D5C  20D9                     move.l     [A0]+, [A1]+
00000D5E  51C8 FFFC                dbf        D0, -0x6 /* 00000D5C */
00000D62  2F05                     move.l     -[A7], D5
00000D64  7020                     moveq.l    D0, 0x20
00000D66  2F00                     move.l     -[A7], D0
00000D68  486E FFE0                pea.l      [A6 - 0x20]
00000D6C  4EBA 16F6                jsr        [PC + 0x16F6 /* 00002464 */]
00000D70  2006                     move.l     D0, D6
00000D72  D0AD F678                add.l      D0, [A5 - 0x988]
00000D76  2B40 F678                move.l     [A5 - 0x988], D0
00000D7A  1B7C 0001 F63B           move.b     [A5 - 0x9C5], 0x1
00000D80  102E 0008                move.b     D0, [A6 + 0x8]
00000D84  670E                     beq        +0x10 /* 00000D94 */
label00000D86:
00000D86  703C                     moveq.l    D0, 0x3C
00000D88  B0AD F674                cmp.l      D0, [A5 - 0x98C]
00000D8C  6C06                     bge        +0x8 /* 00000D94 */
00000D8E  4EBA F962                jsr        [PC - 0x69E /* 000006F2 */]
00000D92  60F2                     bra        -0xC /* 00000D86 */
label00000D94:
00000D94  4CDF 18F0                movem.l    D4,D5,D6,D7,A3,A4, [A7]+
00000D98  4E5E                     unlink     A6
00000D9A  205F                     movea.l    A0, [A7]+
00000D9C  DEFC 000A                add.w      A7, 0xA /* '\n' */
00000DA0  4ED0                     jmp        [A0]
00000DA2  1346 7265                move.b     [A1 + 0x7265], D6
00000DA6  6520                     bcs        +0x22 /* 00000DC8 */
00000DA8  4F62                     chk.w      D7, -[A2]
00000DAA  6A65                     bpl        +0x67 /* 00000E11 */
00000DAC  6374                     bls        +0x76 /* 00000E22 */
00000DAE  2020                     move.l     D0, -[A0]
00000DB0  2020                     move.l     D0, -[A0]
00000DB2  2020                     move.l     D0, -[A0]
00000DB4  2020                     move.l     D0, -[A0]
fn00000DB6:
00000DB6  4E56 FFE6                link       A6, -0x001A
00000DBA  48E7 0F08                movem.l    -[A7], D4,D5,D6,D7,A4
00000DBE  4AAD F4C8                tst.l      [A5 - 0xB38]
00000DC2  6774                     beq        +0x76 /* 00000E38 */
00000DC4  282D F4C8                move.l     D4, [A5 - 0xB38]
label00000DC8:
00000DC8  E08C                     lsr        D4, 8
00000DCA  202D F4C8                move.l     D0, [A5 - 0xB38]
00000DCE  C0BC 0000 00FF           and.l      D0, 0xFF
00000DD4  2A00                     move.l     D5, D0
00000DD6  2E04                     move.l     D7, D4
00000DD8  EE8F                     lsr        D7, 7
00000DDA  2004                     move.l     D0, D4
00000DDC  C0BC 0000 007F           and.l      D0, 0x7F
00000DE2  3C00                     move.w     D6, D0
00000DE4  7008                     moveq.l    D0, 0x08
00000DE6  B084                     cmp.l      D0, D4
00000DE8  5FC0                     sle        D0
00000DEA  BEAD F65C                cmp.l      D7, [A5 - 0x9A4]
00000DEE  5FC1                     sle        D1
00000DF0  C001                     and.b      D0, D1
00000DF2  6744                     beq        +0x46 /* 00000E38 */
00000DF4  42A7                     clr.l      -[A7]
00000DF6  2F07                     move.l     -[A7], D7
00000DF8  4EBA 09A2                jsr        [PC + 0x9A2 /* 0000179C */]
00000DFC  285F                     movea.l    A4, [A7]+
00000DFE  2054                     movea.l    A0, [A4]
00000E00  3006                     move.w     D0, D6
00000E02  E540                     asl        D0.w, 2
00000E04  2230 0000                move.l     D1, [A0 + D0.w]
00000E08  C2BC FFFF FF00           and.l      D1, 0xFFFFFF00
00000E0E  4A81                     tst.l      D1
00000E10  661E                     bne        +0x20 /* 00000E30 */
00000E12  2054                     movea.l    A0, [A4]
00000E14  3006                     move.w     D0, D6
00000E16  E540                     asl        D0.w, 2
00000E18  2185 0000                move.l     [A0 + D0.w], D5
00000E1C  2F07                     move.l     -[A7], D7
00000E1E  1F3C 0001                move.b     -[A7], 0x1
label00000E22:
00000E22  4EBA F668                jsr        [PC - 0x998 /* 0000048C */]
00000E26  2D6D F4C8 0008           move.l     [A6 + 0x8], [A5 - 0xB38]
00000E2C  6000 00F8                bra        +0xFA /* 00000F26 */
label00000E30:
00000E30  2F07                     move.l     -[A7], D7
00000E32  4267                     clr.w      -[A7]
00000E34  4EBA F656                jsr        [PC - 0x9AA /* 0000048C */]
label00000E38:
00000E38  202D F65C                move.l     D0, [A5 - 0x9A4]
00000E3C  5280                     addq.l     D0, 1
00000E3E  2D40 FFE6                move.l     [A6 - 0x1A], D0
00000E42  2E2D F658                move.l     D7, [A5 - 0x9A8]
00000E46  6060                     bra        +0x62 /* 00000EA8 */
label00000E48:
00000E48  BEAD F65C                cmp.l      D7, [A5 - 0x9A4]
00000E4C  6F14                     ble        +0x16 /* 00000E62 */
00000E4E  4267                     clr.w      -[A7]
00000E50  4EBA 0436                jsr        [PC + 0x436 /* 00001288 */]
00000E54  101F                     move.b     D0, [A7]+
00000E56  660A                     bne        +0xC /* 00000E62 */
00000E58  2F3C 0000 06F1           move.l     -[A7], 0x6F1
00000E5E  4EAD 185A                jsr        [A5 + 0x185A /* export_775, CODE:16 @ 0000042E */]
label00000E62:
00000E62  42A7                     clr.l      -[A7]
00000E64  2F07                     move.l     -[A7], D7
00000E66  4EBA 0934                jsr        [PC + 0x934 /* 0000179C */]
00000E6A  285F                     movea.l    A4, [A7]+
00000E6C  426E FFF4                clr.w      [A6 - 0xC]
00000E70  4A87                     tst.l      D7
00000E72  6606                     bne        +0x8 /* 00000E7A */
00000E74  3D7C 0008 FFF4           move.w     [A6 - 0xC], 0x8
label00000E7A:
00000E7A  3C2E FFF4                move.w     D6, [A6 - 0xC]
00000E7E  6016                     bra        +0x18 /* 00000E96 */
label00000E80:
00000E80  2054                     movea.l    A0, [A4]
00000E82  3006                     move.w     D0, D6
00000E84  E540                     asl        D0.w, 2
00000E86  2230 0000                move.l     D1, [A0 + D0.w]
00000E8A  C2BC FFFF FF00           and.l      D1, 0xFFFFFF00
00000E90  4A81                     tst.l      D1
00000E92  6724                     beq        +0x26 /* 00000EB8 */
00000E94  5246                     addq.w     D6, 1
label00000E96:
00000E96  707F                     moveq.l    D0, 0x7F
00000E98  B046                     cmp.w      D0, D6
00000E9A  6CE4                     bge        -0x1A /* 00000E80 */
00000E9C  2F07                     move.l     -[A7], D7
00000E9E  4267                     clr.w      -[A7]
00000EA0  4EBA F5EA                jsr        [PC - 0xA16 /* 0000048C */]
00000EA4  5287                     addq.l     D7, 1
00000EA6  6906                     bvs        +0x8 /* 00000EAE */
label00000EA8:
00000EA8  BEAE FFE6                cmp.l      D7, [A6 - 0x1A]
00000EAC  6F9A                     ble        -0x64 /* 00000E48 */
label00000EAE:
00000EAE  2F3C 0000 0536           move.l     -[A7], 0x536
00000EB4  4EAD 185A                jsr        [A5 + 0x185A /* export_775, CODE:16 @ 0000042E */]
label00000EB8:
00000EB8  2007                     move.l     D0, D7
00000EBA  EF80                     asl        D0, 7
00000EBC  3206                     move.w     D1, D6
00000EBE  48C1                     ext.l      D1
00000EC0  2801                     move.l     D4, D1
00000EC2  D880                     add.l      D4, D0
00000EC4  422E FFEB                clr.b      [A6 - 0x15]
00000EC8  2054                     movea.l    A0, [A4]
00000ECA  3006                     move.w     D0, D6
00000ECC  E540                     asl        D0.w, 2
00000ECE  2230 0000                move.l     D1, [A0 + D0.w]
00000ED2  C2BC 0000 00FF           and.l      D1, 0xFF
00000ED8  2A01                     move.l     D5, D1
00000EDA  6626                     bne        +0x28 /* 00000F02 */
00000EDC  7000                     moveq.l    D0, 0x00
00000EDE  2F00                     move.l     -[A7], D0
00000EE0  4267                     clr.w      -[A7]
00000EE2  A861                     syscall    Random
00000EE4  321F                     move.w     D1, [A7]+
00000EE6  201F                     move.l     D0, [A7]+
00000EE8  3001                     move.w     D0, D1
00000EEA  C0BC 0000 00FF           and.l      D0, 0xFF
00000EF0  2A00                     move.l     D5, D0
00000EF2  2054                     movea.l    A0, [A4]
00000EF4  3006                     move.w     D0, D6
00000EF6  E540                     asl        D0.w, 2
00000EF8  2185 0000                move.l     [A0 + D0.w], D5
00000EFC  1D7C 0001 FFEB           move.b     [A6 - 0x15], 0x1
label00000F02:
00000F02  2004                     move.l     D0, D4
00000F04  E188                     lsl        D0, 8
00000F06  D085                     add.l      D0, D5
00000F08  2D40 0008                move.l     [A6 + 0x8], D0
00000F0C  2F07                     move.l     -[A7], D7
00000F0E  1F2E FFEB                move.b     -[A7], [A6 - 0x15]
00000F12  4EBA F578                jsr        [PC - 0xA88 /* 0000048C */]
00000F16  BEAD F658                cmp.l      D7, [A5 - 0x9A8]
00000F1A  6F0A                     ble        +0xC /* 00000F26 */
00000F1C  2B47 F658                move.l     [A5 - 0x9A8], D7
00000F20  1B7C 0001 F63B           move.b     [A5 - 0x9C5], 0x1
label00000F26:
00000F26  4CDF 10F0                movem.l    D4,D5,D6,D7,A4, [A7]+
00000F2A  4E5E                     unlink     A6
00000F2C  4E75                     rts
export_994:
00000F2E  4E56 FFFC                link       A6, -0x0004
00000F32  2F0C                     move.l     -[A7], A4
00000F34  2D7C 3F3F 3F3F 000C      move.l     [A6 + 0xC], 0x3F3F3F3F /* '????' */
00000F3C  42A7                     clr.l      -[A7]
00000F3E  2F2E 0008                move.l     -[A7], [A6 + 0x8]
00000F42  4EBA 0C26                jsr        [PC + 0xC26 /* 00001B6A */]
00000F46  285F                     movea.l    A4, [A7]+
00000F48  200C                     move.l     D0, A4
00000F4A  6712                     beq        +0x14 /* 00000F5E */
00000F4C  2054                     movea.l    A0, [A4]
00000F4E  2D68 0004 000C           move.l     [A6 + 0xC], [A0 + 0x4]
00000F54  2F2E 0008                move.l     -[A7], [A6 + 0x8]
00000F58  4267                     clr.w      -[A7]
00000F5A  4EBA F778                jsr        [PC - 0x888 /* 000006D4 */]
label00000F5E:
00000F5E  285F                     movea.l    A4, [A7]+
00000F60  4E5E                     unlink     A6
00000F62  2E9F                     move.l     [A7], [A7]+
00000F64  4E75                     rts
fn00000F66:
00000F66  4E56 0000                link       A6, 0
00000F6A  2F0C                     move.l     -[A7], A4
00000F6C  286E 0008                movea.l    A4, [A6 + 0x8]
00000F70  202E 000C                move.l     D0, [A6 + 0xC]
00000F74  4480                     neg.l      D0
00000F76  222C 0008                move.l     D1, [A4 + 0x8]
00000F7A  D2AC FFFC                add.l      D1, [A4 - 0x4]
00000F7E  242E 000C                move.l     D2, [A6 + 0xC]
00000F82  D481                     add.l      D2, D1
00000F84  5382                     subq.l     D2, 1
00000F86  C082                     and.l      D0, D2
00000F88  2940 FFF8                move.l     [A4 - 0x8], D0
00000F8C  7220                     moveq.l    D1, 0x20
00000F8E  9081                     sub.l      D0, D1
00000F90  2940 FFD0                move.l     [A4 - 0x30], D0
00000F94  2B6C FFD0 F47C           move.l     [A5 - 0xB84], [A4 - 0x30]
00000F9A  4267                     clr.w      -[A7]
00000F9C  3F2D FD68                move.w     -[A7], [A5 - 0x298]
00000FA0  486D F47C                pea.l      [A5 - 0xB84]
00000FA4  7020                     moveq.l    D0, 0x20
00000FA6  2F00                     move.l     -[A7], D0
00000FA8  486C FFD8                pea.l      [A4 - 0x28]
00000FAC  4EAD 1B2A                jsr        [A5 + 0x1B2A /* export_865, CODE:16 @ 00001E1C */]
00000FB0  3B5F F47A                move.w     [A5 - 0xB86], [A7]+
00000FB4  285F                     movea.l    A4, [A7]+
00000FB6  4E5E                     unlink     A6
00000FB8  205F                     movea.l    A0, [A7]+
00000FBA  504F                     addq.w     A7, 8
00000FBC  4ED0                     jmp        [A0]
fn00000FBE:
00000FBE  4E56 FFCE                link       A6, -0x0032
00000FC2  422E 000C                clr.b      [A6 + 0xC]
00000FC6  102D F4CD                move.b     D0, [A5 - 0xB33]
00000FCA  6600 00B0                bne        +0xB2 /* 0000107C */
00000FCE  2D6D F650 FFFC           move.l     [A6 - 0x4], [A5 - 0x9B0]
00000FD4  7020                     moveq.l    D0, 0x20
00000FD6  2D40 FFD8                move.l     [A6 - 0x28], D0
00000FDA  2D7C 5441 494C FFDC      move.l     [A6 - 0x24], 0x5441494C /* 'TAIL' */
00000FE2  70FF                     moveq.l    D0, 0xFFFFFFFF
00000FE4  2D40 FFE0                move.l     [A6 - 0x20], D0
00000FE8  41EE FFE4                lea.l      A0, [A6 - 0x1C]
00000FEC  43FA 0094                lea.l      A1, [PC + 0x94 /* 00001082, value 0x13546861, pstring "That\'s all folks..." */]
00000FF0  7004                     moveq.l    D0, 0x04
label00000FF2:
00000FF2  20D9                     move.l     [A0]+, [A1]+
00000FF4  51C8 FFFC                dbf        D0, -0x6 /* 00000FF2 */
00000FF8  3B7C FFFF F47A           move.w     [A5 - 0xB86], 0xFFFF
00000FFE  42A7                     clr.l      -[A7]
00001000  3F2D FC44                move.w     -[A7], [A5 - 0x3BC]
00001004  4EAD 19F2                jsr        [A5 + 0x19F2 /* export_826, CODE:16 @ 000013B8 */]
00001008  0C9F 0000 FA00           cmpi.l     [A7]+, 0xFA00
0000100E  6F0C                     ble        +0xE /* 0000101C */
00001010  2F3C 0000 2000           move.l     -[A7], 0x2000 /* ' \0' */
00001016  2F0E                     move.l     -[A7], A6
00001018  4EBA FF4C                jsr        [PC - 0xB4 /* 00000F66 */]
label0000101C:
0000101C  4A6D F47A                tst.w      [A5 - 0xB86]
00001020  670C                     beq        +0xE /* 0000102E */
00001022  2F3C 0000 0400           move.l     -[A7], 0x400
00001028  2F0E                     move.l     -[A7], A6
0000102A  4EBA FF3A                jsr        [PC - 0xC6 /* 00000F66 */]
label0000102E:
0000102E  4A6D F47A                tst.w      [A5 - 0xB86]
00001032  6648                     bne        +0x4A /* 0000107C */
00001034  202E FFFC                move.l     D0, [A6 - 0x4]
00001038  7220                     moveq.l    D1, 0x20
0000103A  9081                     sub.l      D0, D1
0000103C  2D40 FFD4                move.l     [A6 - 0x2C], D0
00001040  2F2E FFD4                move.l     -[A7], [A6 - 0x2C]
00001044  202E FFD0                move.l     D0, [A6 - 0x30]
00001048  90AE FFD4                sub.l      D0, [A6 - 0x2C]
0000104C  2F00                     move.l     -[A7], D0
0000104E  1F3C 0001                move.b     -[A7], 0x1
00001052  4EBA FB7C                jsr        [PC - 0x484 /* 00000BD0 */]
00001056  2B6E FFF8 F650           move.l     [A5 - 0x9B0], [A6 - 0x8]
0000105C  4EBA 1480                jsr        [PC + 0x1480 /* 000024DE */]
00001060  4267                     clr.w      -[A7]
00001062  3F2D FD68                move.w     -[A7], [A5 - 0x298]
00001066  2F2E FFF8                move.l     -[A7], [A6 - 0x8]
0000106A  4EAD 035A                jsr        [A5 + 0x35A /* export_103, CODE:1 @ 00004AAA */]
0000106E  3D5F FFCE                move.w     [A6 - 0x32], [A7]+
00001072  4EBA FB3A                jsr        [PC - 0x4C6 /* 00000BAE */]
00001076  1D7C 0001 000C           move.b     [A6 + 0xC], 0x1
label0000107C:
0000107C  4E5E                     unlink     A6
0000107E  2E9F                     move.l     [A7], [A7]+
00001080  4E75                     rts
00001082  1354 6861                move.b     [A1 + 0x6861], [A4]
00001086  7427                     moveq.l    D2, 0x27
00001088  7320                     moveq.l    D1, 0x20
0000108A  616C                     bsr        +0x6E /* 000010F8 */
0000108C  6C20                     bge        +0x22 /* 000010AE */
0000108E  666F                     bne        +0x71 /* 000010FF */
00001090  6C6B                     bge        +0x6D /* 000010FD */
00001092  732E                     moveq.l    D1, 0x2E
00001094  2E2E 4E56                move.l     D7, [A6 + 0x4E56]
// begin alternate branch 00001096-0000109A
export_995:
00001096  4E56 FDE4                link       A6, -0x021C
// end alternate branch 00001096-0000109A
export_995: // at 00001096 (misaligned)
00001098  FDE4                     .invalid   <<F/7/6>>
0000109A  48E7 0F08                movem.l    -[A7], D4,D5,D6,D7,A4
0000109E  282E 0008                move.l     D4, [A6 + 0x8]
000010A2  422E 000C                clr.b      [A6 + 0xC]
000010A6  4A84                     tst.l      D4
000010A8  6F00 0124                ble        +0x126 /* 000011CE */
000010AC  102D F4CD                move.b     D0, [A5 - 0xB33]
// begin alternate branch 000010AE-000010B0
label000010AE:
000010AE  F4CD                     cinvl      DATA+INST, [A5]
// end alternate branch 000010AE-000010B0
label000010AE: // (misaligned)
000010B0  6600 0122                bne        +0x124 /* 000011D4 */
000010B4  2004                     move.l     D0, D4
000010B6  D0BC 0000 01FF           add.l      D0, 0x1FF
000010BC  C0BC FFFF FE00           and.l      D0, 0xFFFFFE00
000010C2  2800                     move.l     D4, D0
000010C4  202D F65C                move.l     D0, [A5 - 0x9A4]
000010C8  5280                     addq.l     D0, 1
000010CA  2F3C 0000 0200           move.l     -[A7], 0x200
000010D0  2F00                     move.l     -[A7], D0
000010D2  4EAD 04EA                jsr        [A5 + 0x4EA /* export_153, CODE:1 @ 000051F0 */]
000010D6  2D5F FFF8                move.l     [A6 - 0x8], [A7]+
000010DA  2E2E FFF8                move.l     D7, [A6 - 0x8]
000010DE  DEAD F654                add.l      D7, [A5 - 0x9AC]
000010E2  2C07                     move.l     D6, D7
000010E4  DC84                     add.l      D6, D4
label000010E6:
000010E6  42A7                     clr.l      -[A7]
000010E8  2F07                     move.l     -[A7], D7
000010EA  4EBA F9D2                jsr        [PC - 0x62E /* 00000ABE */]
000010EE  285F                     movea.l    A4, [A7]+
000010F0  200C                     move.l     D0, A4
000010F2  670C                     beq        +0xE /* 00001100 */
000010F4  DEAC 0004                add.l      D7, [A4 + 0x4]
fn000010F8:
000010F8  2F0C                     move.l     -[A7], A4
000010FA  4EBA F866                jsr        [PC - 0x79A /* 00000962 */]
000010FE  601E                     bra        +0x20 /* 0000111E */
label00001100:
00001100  4267                     clr.w      -[A7]
00001102  42A7                     clr.l      -[A7]
00001104  2F07                     move.l     -[A7], D7
00001106  4EBA 04E6                jsr        [PC + 0x4E6 /* 000015EE */]
0000110A  2F3A 00D2                move.l     -[A7], [PC + 0xD2 /* 000011DE, value 0x57494C44 'WILD' */]
0000110E  1F3C 0002                move.b     -[A7], 0x2
00001112  4EBA 04FA                jsr        [PC + 0x4FA /* 0000160E */]
00001116  101F                     move.b     D0, [A7]+
00001118  6604                     bne        +0x6 /* 0000111E */
0000111A  6000 00B8                bra        +0xBA /* 000011D4 */
label0000111E:
0000111E  BC87                     cmp.l      D6, D7
00001120  6EC4                     bgt        -0x3A /* 000010E6 */
00001122  BC87                     cmp.l      D6, D7
00001124  6C10                     bge        +0x12 /* 00001136 */
00001126  2F06                     move.l     -[A7], D6
00001128  2007                     move.l     D0, D7
0000112A  9086                     sub.l      D0, D6
0000112C  2F00                     move.l     -[A7], D0
0000112E  1F3C 0001                move.b     -[A7], 0x1
00001132  4EBA FA9C                jsr        [PC - 0x564 /* 00000BD0 */]
label00001136:
00001136  2A06                     move.l     D5, D6
00001138  202E FFF8                move.l     D0, [A6 - 0x8]
0000113C  D0AD F654                add.l      D0, [A5 - 0x9AC]
00001140  2D40 FFEC                move.l     [A6 - 0x14], D0
00001144  2D6D F65C FDE4           move.l     [A6 - 0x21C], [A5 - 0x9A4]
0000114A  603A                     bra        +0x3C /* 00001186 */
label0000114C:
0000114C  04AE 0000 0200 FFEC      subi.l     [A6 - 0x14], 0x200
00001154  9ABC 0000 0200           sub.l      D5, 0x200
0000115A  2F2E FFEC                move.l     -[A7], [A6 - 0x14]
0000115E  2F3C 0000 0200           move.l     -[A7], 0x200
00001164  486E FDE8                pea.l      [A6 - 0x218]
00001168  4EBA 0C36                jsr        [PC + 0xC36 /* 00001DA0 */]
0000116C  2F05                     move.l     -[A7], D5
0000116E  2F3C 0000 0200           move.l     -[A7], 0x200
00001174  486E FDE8                pea.l      [A6 - 0x218]
00001178  4EBA 12EA                jsr        [PC + 0x12EA /* 00002464 */]
0000117C  9EBC 0000 0200           sub.l      D7, 0x200
00001182  53AE FDE4                subq.l     [A6 - 0x21C], 1
label00001186:
00001186  4AAE FDE4                tst.l      [A6 - 0x21C]
0000118A  6CC0                     bge        -0x3E /* 0000114C */
0000118C  486E FDE8                pea.l      [A6 - 0x218]
00001190  2F3C 0000 0080           move.l     -[A7], 0x80
00001196  4EAD 1B4A                jsr        [A5 + 0x1B4A /* export_869, CODE:16 @ 00001E9C */]
label0000119A:
0000119A  9ABC 0000 0200           sub.l      D5, 0x200
000011A0  2F05                     move.l     -[A7], D5
000011A2  2F3C 0000 0200           move.l     -[A7], 0x200
000011A8  486E FDE8                pea.l      [A6 - 0x218]
000011AC  4EBA 12B6                jsr        [PC + 0x12B6 /* 00002464 */]
000011B0  BAAD F63C                cmp.l      D5, [A5 - 0x9C4]
000011B4  66E4                     bne        -0x1A /* 0000119A */
000011B6  2004                     move.l     D0, D4
000011B8  D0AD F63C                add.l      D0, [A5 - 0x9C4]
000011BC  2B40 F63C                move.l     [A5 - 0x9C4], D0
000011C0  2004                     move.l     D0, D4
000011C2  D0AD F654                add.l      D0, [A5 - 0x9AC]
000011C6  2B40 F654                move.l     [A5 - 0x9AC], D0
000011CA  4EBA 1312                jsr        [PC + 0x1312 /* 000024DE */]
label000011CE:
000011CE  1D7C 0001 000C           move.b     [A6 + 0xC], 0x1
label000011D4:
000011D4  4CDF 10F0                movem.l    D4,D5,D6,D7,A4, [A7]+
000011D8  4E5E                     unlink     A6
000011DA  2E9F                     move.l     [A7], [A7]+
000011DC  4E75                     rts
000011DE  5749                     subq.w     A1, 3
000011E0  4C44 4E56                divsl.l    D6:D4, D4
// begin alternate branch 000011E2-000011E6
export_996:
000011E2  4E56 FFF8                link       A6, -0x0008
// end alternate branch 000011E2-000011E6
export_996: // at 000011E2 (misaligned)
000011E4  FFF8                     .invalid   <<F/7/7>>
000011E6  48E7 0700                movem.l    -[A7], D5,D6,D7
000011EA  2F0D                     move.l     -[A7], A5
000011EC  2A78 0904                movea.l    A5, [0x00000904 /* CurrentA5 */]
000011F0  4207                     clr.b      D7
000011F2  102D FD88                move.b     D0, [A5 - 0x278]
000011F6  6672                     bne        +0x74 /* 0000126A */
000011F8  1B7C 0001 FD88           move.b     [A5 - 0x278], 0x1
000011FE  102D F63B                move.b     D0, [A5 - 0x9C5]
00001202  6704                     beq        +0x6 /* 00001208 */
00001204  4EBA 12D8                jsr        [PC + 0x12D8 /* 000024DE */]
label00001208:
00001208  102D F4CF                move.b     D0, [A5 - 0xB31]
0000120C  670E                     beq        +0x10 /* 0000121C */
label0000120E:
0000120E  4267                     clr.w      -[A7]
00001210  4EBA EFB0                jsr        [PC - 0x1050 /* 000001C2 */]
00001214  101F                     move.b     D0, [A7]+
00001216  6704                     beq        +0x6 /* 0000121C */
00001218  7E01                     moveq.l    D7, 0x01
0000121A  60F2                     bra        -0xC /* 0000120E */
label0000121C:
0000121C  4EBA F990                jsr        [PC - 0x670 /* 00000BAE */]
00001220  1007                     move.b     D0, D7
00001222  0A00 0001                xori.b     D0, 0x1
00001226  122D F4BD                move.b     D1, [A5 - 0xB43]
0000122A  0A01 0001                xori.b     D1, 0x1
0000122E  C001                     and.b      D0, D1
00001230  671C                     beq        +0x1E /* 0000124E */
00001232  42A7                     clr.l      -[A7]
00001234  4EAD 01C2                jsr        [A5 + 0x1C2 /* export_52, CODE:1 @ 00004394 */]
00001238  2C1F                     move.l     D6, [A7]+
0000123A  42A7                     clr.l      -[A7]
0000123C  A9FA                     syscall    UnloadScrap/UnlodeScrap
0000123E  201F                     move.l     D0, [A7]+
00001240  3A00                     move.w     D5, D0
00001242  42A7                     clr.l      -[A7]
00001244  4EAD 01C2                jsr        [A5 + 0x1C2 /* export_52, CODE:1 @ 00004394 */]
00001248  BC9F                     cmp.l      D6, [A7]+
0000124A  5DC7                     slt        D7
0000124C  4407                     neg.b      D7
label0000124E:
0000124E  4A07                     tst.b      D7
00001250  6614                     bne        +0x16 /* 00001266 */
00001252  2F2E 0008                move.l     -[A7], [A6 + 0x8]
00001256  4EAD 01BA                jsr        [A5 + 0x1BA /* export_51, CODE:1 @ 0000438A */]
0000125A  4267                     clr.w      -[A7]
0000125C  3EB8 0220                move.w     [A7], [0x00000220 /* MemErr */]
00001260  4A5F                     tst.w      [A7]+
00001262  57C7                     seq        D7
00001264  4407                     neg.b      D7
label00001266:
00001266  422D FD88                clr.b      [A5 - 0x278]
label0000126A:
0000126A  1007                     move.b     D0, D7
0000126C  6708                     beq        +0xA /* 00001276 */
0000126E  7064                     moveq.l    D0, 0x64
00001270  2D40 000C                move.l     [A6 + 0xC], D0
00001274  6006                     bra        +0x8 /* 0000127C */
label00001276:
00001276  7000                     moveq.l    D0, 0x00
00001278  2D40 000C                move.l     [A6 + 0xC], D0
label0000127C:
0000127C  2A5F                     movea.l    A5, [A7]+
0000127E  4CDF 00E0                movem.l    D5,D6,D7, [A7]+
00001282  4E5E                     unlink     A6
00001284  2E9F                     move.l     [A7], [A7]+
00001286  4E75                     rts
fn00001288:
00001288  4E56 FDEC                link       A6, -0x0214
0000128C  48E7 0718                movem.l    -[A7], D5,D6,D7,A3,A4
00001290  422E 0008                clr.b      [A6 + 0x8]
00001294  102D F4CD                move.b     D0, [A5 - 0xB33]
00001298  6600 00D2                bne        +0xD4 /* 0000136C */
0000129C  202D F65C                move.l     D0, [A5 - 0x9A4]
000012A0  5280                     addq.l     D0, 1
000012A2  2F3C 0000 0200           move.l     -[A7], 0x200
000012A8  2F00                     move.l     -[A7], D0
000012AA  4EAD 04EA                jsr        [A5 + 0x4EA /* export_153, CODE:1 @ 000051F0 */]
000012AE  2C1F                     move.l     D6, [A7]+
000012B0  2E06                     move.l     D7, D6
000012B2  DEAD F654                add.l      D7, [A5 - 0x9AC]
000012B6  2A07                     move.l     D5, D7
000012B8  DABC 0000 0200           add.l      D5, 0x200
label000012BE:
000012BE  42A7                     clr.l      -[A7]
000012C0  2F07                     move.l     -[A7], D7
000012C2  4EBA F7FA                jsr        [PC - 0x806 /* 00000ABE */]
000012C6  285F                     movea.l    A4, [A7]+
000012C8  200C                     move.l     D0, A4
000012CA  670C                     beq        +0xE /* 000012D8 */
000012CC  DEAC 0004                add.l      D7, [A4 + 0x4]
000012D0  2F0C                     move.l     -[A7], A4
000012D2  4EBA F68E                jsr        [PC - 0x972 /* 00000962 */]
000012D6  601C                     bra        +0x1E /* 000012F4 */
label000012D8:
000012D8  4267                     clr.w      -[A7]
000012DA  42A7                     clr.l      -[A7]
000012DC  2F07                     move.l     -[A7], D7
000012DE  4EBA 030E                jsr        [PC + 0x30E /* 000015EE */]
000012E2  2F3A 0090                move.l     -[A7], [PC + 0x90 /* 00001374, value 0x57494C44 'WILD' */]
000012E6  1F3C 0002                move.b     -[A7], 0x2
000012EA  4EBA 0322                jsr        [PC + 0x322 /* 0000160E */]
000012EE  101F                     move.b     D0, [A7]+
000012F0  6602                     bne        +0x4 /* 000012F4 */
000012F2  6074                     bra        +0x76 /* 00001368 */
label000012F4:
000012F4  BA87                     cmp.l      D5, D7
000012F6  6EC6                     bgt        -0x38 /* 000012BE */
000012F8  BA87                     cmp.l      D5, D7
000012FA  6C10                     bge        +0x12 /* 0000130C */
000012FC  2F05                     move.l     -[A7], D5
000012FE  2007                     move.l     D0, D7
00001300  9085                     sub.l      D0, D5
00001302  2F00                     move.l     -[A7], D0
00001304  1F3C 0001                move.b     -[A7], 0x1
00001308  4EBA F8C6                jsr        [PC - 0x73A /* 00000BD0 */]
label0000130C:
0000130C  486E FDF0                pea.l      [A6 - 0x210]
00001310  2F3C 0000 0080           move.l     -[A7], 0x80
00001316  4EAD 1B4A                jsr        [A5 + 0x1B4A /* export_869, CODE:16 @ 00001E9C */]
0000131A  2006                     move.l     D0, D6
0000131C  D0AD F654                add.l      D0, [A5 - 0x9AC]
00001320  2F00                     move.l     -[A7], D0
00001322  2F3C 0000 0200           move.l     -[A7], 0x200
00001328  486E FDF0                pea.l      [A6 - 0x210]
0000132C  4EBA 1136                jsr        [PC + 0x1136 /* 00002464 */]
00001330  DCBC 0000 0200           add.l      D6, 0x200
00001336  42A7                     clr.l      -[A7]
00001338  42A7                     clr.l      -[A7]
0000133A  4EBA 0460                jsr        [PC + 0x460 /* 0000179C */]
0000133E  265F                     movea.l    A3, [A7]+
00001340  2053                     movea.l    A0, [A3]
00001342  2086                     move.l     [A0], D6
00001344  42A7                     clr.l      -[A7]
00001346  1F3C 0001                move.b     -[A7], 0x1
0000134A  4EBA F140                jsr        [PC - 0xEC0 /* 0000048C */]
0000134E  2F3C 8000 0000           move.l     -[A7], 0x80000000
00001354  4EBA EE46                jsr        [PC - 0x11BA /* 0000019C */]
00001358  202D F65C                move.l     D0, [A5 - 0x9A4]
0000135C  5280                     addq.l     D0, 1
0000135E  2B40 F65C                move.l     [A5 - 0x9A4], D0
00001362  1D7C 0001 0008           move.b     [A6 + 0x8], 0x1
label00001368:
00001368  4EBA 1174                jsr        [PC + 0x1174 /* 000024DE */]
label0000136C:
0000136C  4CDF 18E0                movem.l    D5,D6,D7,A3,A4, [A7]+
00001370  4E5E                     unlink     A6
00001372  4E75                     rts
00001374  5749                     subq.w     A1, 3
00001376  4C44 4E56                divsl.l    D6:D4, D4
// begin alternate branch 00001378-0000137C
export_997:
00001378  4E56 FFF8                link       A6, -0x0008
// end alternate branch 00001378-0000137C
export_997: // at 00001378 (misaligned)
0000137A  FFF8                     .invalid   <<F/7/7>>
0000137C  486E FFF8                pea.l      [A6 - 0x8]
00001380  486E FFFC                pea.l      [A6 - 0x4]
00001384  4EAD 03D2                jsr        [A5 + 0x3D2 /* export_118, CODE:1 @ 00004CD2 */]
00001388  2D6E FFFC 0008           move.l     [A6 + 0x8], [A6 - 0x4]
0000138E  4E5E                     unlink     A6
00001390  4E75                     rts
export_998:
00001392  4E56 FF9C                link       A6, -0x0064
00001396  4AAD F4D0                tst.l      [A5 - 0xB30]
0000139A  670A                     beq        +0xC /* 000013A6 */
0000139C  2F3C 0000 198F           move.l     -[A7], 0x198F
000013A2  4EAD 185A                jsr        [A5 + 0x185A /* export_775, CODE:16 @ 0000042E */]
label000013A6:
000013A6  102D F4CF                move.b     D0, [A5 - 0xB31]
000013AA  802D F63B                or.b       D0, [A5 - 0x9C5]
000013AE  1D40 FFFD                move.b     [A6 - 0x3], D0
000013B2  102D F63B                move.b     D0, [A5 - 0x9C5]
000013B6  6704                     beq        +0x6 /* 000013BC */
000013B8  4EBA 1124                jsr        [PC + 0x1124 /* 000024DE */]
label000013BC:
000013BC  102D F4CD                move.b     D0, [A5 - 0xB33]
000013C0  664E                     bne        +0x50 /* 00001410 */
label000013C2:
000013C2  7032                     moveq.l    D0, 0x32
000013C4  B0AD F674                cmp.l      D0, [A5 - 0x98C]
000013C8  5DC0                     slt        D0
000013CA  4A00                     tst.b      D0
000013CC  6720                     beq        +0x22 /* 000013EE */
000013CE  2F00                     move.l     -[A7], D0
000013D0  2F3C FFFF 0000           move.l     -[A7], 0xFFFF0000
000013D6  486E FF9C                pea.l      [A6 - 0x64]
000013DA  A971                     syscall    EventAvail
000013DC  121F                     move.b     D1, [A7]+
000013DE  201F                     move.l     D0, [A7]+
000013E0  0A01 0001                xori.b     D1, 0x1
000013E4  C001                     and.b      D0, D1
000013E6  6706                     beq        +0x8 /* 000013EE */
000013E8  4EBA F308                jsr        [PC - 0xCF8 /* 000006F2 */]
000013EC  60D4                     bra        -0x2A /* 000013C2 */
label000013EE:
000013EE  102D F4CF                move.b     D0, [A5 - 0xB31]
000013F2  671C                     beq        +0x1E /* 00001410 */
label000013F4:
000013F4  2F3C FFFF 0000           move.l     -[A7], 0xFFFF0000
000013FA  486E FF9C                pea.l      [A6 - 0x64]
000013FE  A971                     syscall    EventAvail
00001400  4267                     clr.w      -[A7]
00001402  4EBA EDBE                jsr        [PC - 0x1242 /* 000001C2 */]
00001406  101F                     move.b     D0, [A7]+
00001408  0A00 0001                xori.b     D0, 0x1
0000140C  801F                     or.b       D0, [A7]+
0000140E  67E4                     beq        -0x1A /* 000013F4 */
label00001410:
00001410  102D F4CF                move.b     D0, [A5 - 0xB31]
00001414  802D F63B                or.b       D0, [A5 - 0x9C5]
00001418  0A00 0001                xori.b     D0, 0x1
0000141C  C02E FFFD                and.b      D0, [A6 - 0x3]
00001420  122D F4CE                move.b     D1, [A5 - 0xB32]
00001424  0A01 0001                xori.b     D1, 0x1
00001428  C001                     and.b      D0, D1
0000142A  6722                     beq        +0x24 /* 0000144E */
0000142C  486E FFAC                pea.l      [A6 - 0x54]
00001430  7050                     moveq.l    D0, 0x50
00001432  2F00                     move.l     -[A7], D0
00001434  4EAD 1B42                jsr        [A5 + 0x1B42 /* export_868, CODE:16 @ 00001E7C */]
00001438  3D6D FD68 FFC4           move.w     [A6 - 0x3C], [A5 - 0x298]
0000143E  4267                     clr.w      -[A7]
00001440  486E FFAC                pea.l      [A6 - 0x54]
00001444  4267                     clr.w      -[A7]
00001446  4EAD 02E2                jsr        [A5 + 0x2E2 /* export_88, CODE:1 @ 00004820 */]
0000144A  3D5F FFFE                move.w     [A6 - 0x2], [A7]+
label0000144E:
0000144E  4E5E                     unlink     A6
00001450  4E75                     rts
export_999:
00001452  4E56 FEDC                link       A6, -0x0124
00001456  48E7 0708                movem.l    -[A7], D5,D6,D7,A4
0000145A  422E 000E                clr.b      [A6 + 0xE]
0000145E  102D F4CF                move.b     D0, [A5 - 0xB31]
00001462  670A                     beq        +0xC /* 0000146E */
00001464  2F3C 0000 7326           move.l     -[A7], 0x7326 /* 's&' */
0000146A  4EAD 185A                jsr        [A5 + 0x185A /* export_775, CODE:16 @ 0000042E */]
label0000146E:
0000146E  7000                     moveq.l    D0, 0x00
00001470  2D40 FEE0                move.l     [A6 - 0x120], D0
00001474  4267                     clr.w      -[A7]
00001476  3F2E 000C                move.w     -[A7], [A6 + 0xC]
0000147A  486E FEE0                pea.l      [A6 - 0x120]
0000147E  2F3C 0000 0600           move.l     -[A7], 0x600
00001484  2F2E 0008                move.l     -[A7], [A6 + 0x8]
00001488  4EAD 1B32                jsr        [A5 + 0x1B32 /* export_866, CODE:16 @ 00001E20 */]
0000148C  3A1F                     move.w     D5, [A7]+
0000148E  4A45                     tst.w      D5
00001490  670C                     beq        +0xE /* 0000149E */
00001492  3F3C 0032                move.w     -[A7], 0x32 /* '2' */
00001496  4EAD 187A                jsr        [A5 + 0x187A /* export_779, CODE:16 @ 00000500 */]
0000149A  6000 0146                bra        +0x148 /* 000015E2 */
label0000149E:
0000149E  206E 0008                movea.l    A0, [A6 + 0x8]
000014A2  7008                     moveq.l    D0, 0x08
000014A4  B0A8 0010                cmp.l      D0, [A0 + 0x10]
000014A8  6C0C                     bge        +0xE /* 000014B6 */
000014AA  3F3C 0033                move.w     -[A7], 0x33 /* '3' */
000014AE  4EAD 187A                jsr        [A5 + 0x187A /* export_779, CODE:16 @ 00000500 */]
000014B2  6000 012E                bra        +0x130 /* 000015E2 */
label000014B6:
000014B6  206E 0008                movea.l    A0, [A6 + 0x8]
000014BA  7008                     moveq.l    D0, 0x08
000014BC  B0A8 0010                cmp.l      D0, [A0 + 0x10]
000014C0  6F0C                     ble        +0xE /* 000014CE */
000014C2  3F3C 0034                move.w     -[A7], 0x34 /* '4' */
000014C6  4EAD 187A                jsr        [A5 + 0x187A /* export_779, CODE:16 @ 00000500 */]
000014CA  6000 0116                bra        +0x118 /* 000015E2 */
label000014CE:
000014CE  2E2D F632                move.l     D7, [A5 - 0x9CE]
000014D2  206E 0008                movea.l    A0, [A6 + 0x8]
000014D6  0828 0005 004C           btst.b     [A0 + 0x4C], 0x5
000014DC  56C6                     sne        D6
000014DE  4406                     neg.b      D6
000014E0  1006                     move.b     D0, D6
000014E2  6700 00C0                beq        +0xC2 /* 000015A4 */
000014E6  206E 0008                movea.l    A0, [A6 + 0x8]
000014EA  4868 0018                pea.l      [A0 + 0x18]
000014EE  2F07                     move.l     -[A7], D7
000014F0  4EBA 09D6                jsr        [PC + 0x9D6 /* 00001EC8 */]
000014F4  42A7                     clr.l      -[A7]
000014F6  2F2E 0008                move.l     -[A7], [A6 + 0x8]
000014FA  2F3C 0000 0180           move.l     -[A7], 0x180
00001500  4EAD 1AFA                jsr        [A5 + 0x1AFA /* export_859, CODE:16 @ 00001D2A */]
00001504  4A9F                     tst.l      [A7]+
00001506  6700 009C                beq        +0x9E /* 000015A4 */
0000150A  206E 0008                movea.l    A0, [A6 + 0x8]
0000150E  4868 0018                pea.l      [A0 + 0x18]
00001512  2F07                     move.l     -[A7], D7
00001514  4EBA 09B2                jsr        [PC + 0x9B2 /* 00001EC8 */]
00001518  4EAD 1862                jsr        [A5 + 0x1862 /* export_776, CODE:16 @ 00000474 */]
0000151C  486E FEDC                pea.l      [A6 - 0x124]
00001520  A874                     syscall    GetPort
00001522  42A7                     clr.l      -[A7]
00001524  3F3C 0836                move.w     -[A7], 0x836
00001528  42A7                     clr.l      -[A7]
0000152A  70FF                     moveq.l    D0, 0xFFFFFFFF
0000152C  2F00                     move.l     -[A7], D0
0000152E  A97C                     syscall    GetNewDialog
00001530  285F                     movea.l    A4, [A7]+
00001532  2F0C                     move.l     -[A7], A4
00001534  4EAD 182A                jsr        [A5 + 0x182A /* export_769, CODE:16 @ 000002AC */]
00001538  2F0C                     move.l     -[A7], A4
0000153A  A915                     syscall    ShowWindow
label0000153C:
0000153C  42A7                     clr.l      -[A7]
0000153E  486E FFFA                pea.l      [A6 - 0x6]
00001542  A991                     syscall    ModalDialog
00001544  7001                     moveq.l    D0, 0x01
00001546  B06E FFFA                cmp.w      D0, [A6 - 0x6]
0000154A  66F0                     bne        -0xE /* 0000153C */
0000154C  2F0C                     move.l     -[A7], A4
0000154E  3F3C 0003                move.w     -[A7], 0x3
00001552  486E FFF8                pea.l      [A6 - 0x8]
00001556  486E FFF4                pea.l      [A6 - 0xC]
0000155A  486E FFEC                pea.l      [A6 - 0x14]
0000155E  A98D                     syscall    GetDialogItem/GetDItem
00001560  2F2E FFF4                move.l     -[A7], [A6 - 0xC]
00001564  486E FEEC                pea.l      [A6 - 0x114]
00001568  A990                     syscall    GetDialogItemText/GetIText
0000156A  486E FEEC                pea.l      [A6 - 0x114]
0000156E  4EAD 1A52                jsr        [A5 + 0x1A52 /* export_838, CODE:16 @ 0000157C */]
00001572  42A7                     clr.l      -[A7]
00001574  41EE FEEC                lea.l      A0, [A6 - 0x114]
00001578  2008                     move.l     D0, A0
0000157A  5280                     addq.l     D0, 1
0000157C  2F00                     move.l     -[A7], D0
0000157E  4240                     clr.w      D0
00001580  102E FEEC                move.b     D0, [A6 - 0x114]
00001584  3F00                     move.w     -[A7], D0
00001586  4EAD 1972                jsr        [A5 + 0x1972 /* export_810, CODE:16 @ 00000DF0 */]
0000158A  2E1F                     move.l     D7, [A7]+
0000158C  2F0C                     move.l     -[A7], A4
0000158E  A983                     syscall    DisposeDialog
00001590  2F2E FEDC                move.l     -[A7], [A6 - 0x124]
00001594  A873                     syscall    SetPort
00001596  206E 0008                movea.l    A0, [A6 + 0x8]
0000159A  4868 0018                pea.l      [A0 + 0x18]
0000159E  2F07                     move.l     -[A7], D7
000015A0  4EBA 0926                jsr        [PC + 0x926 /* 00001EC8 */]
label000015A4:
000015A4  42A7                     clr.l      -[A7]
000015A6  2F2E 0008                move.l     -[A7], [A6 + 0x8]
000015AA  2F3C 0000 0180           move.l     -[A7], 0x180
000015B0  4EAD 1AFA                jsr        [A5 + 0x1AFA /* export_859, CODE:16 @ 00001D2A */]
000015B4  4A9F                     tst.l      [A7]+
000015B6  662A                     bne        +0x2C /* 000015E2 */
000015B8  1006                     move.b     D0, D6
000015BA  670C                     beq        +0xE /* 000015C8 */
000015BC  2B47 F632                move.l     [A5 - 0x9CE], D7
000015C0  206E 0008                movea.l    A0, [A6 + 0x8]
000015C4  2147 000C                move.l     [A0 + 0xC], D7
label000015C8:
000015C8  206E 0008                movea.l    A0, [A6 + 0x8]
000015CC  4A68 0048                tst.w      [A0 + 0x48]
000015D0  660A                     bne        +0xC /* 000015DC */
000015D2  206E 0008                movea.l    A0, [A6 + 0x8]
000015D6  317C 0005 0048           move.w     [A0 + 0x48], 0x5
label000015DC:
000015DC  1D7C 0001 000E           move.b     [A6 + 0xE], 0x1
label000015E2:
000015E2  4CDF 10E0                movem.l    D5,D6,D7,A4, [A7]+
000015E6  4E5E                     unlink     A6
000015E8  205F                     movea.l    A0, [A7]+
000015EA  5C4F                     addq.w     A7, 6
000015EC  4ED0                     jmp        [A0]
fn000015EE:
000015EE  4E56 FFE0                link       A6, -0x0020
000015F2  2F2E 0008                move.l     -[A7], [A6 + 0x8]
000015F6  7020                     moveq.l    D0, 0x20
000015F8  2F00                     move.l     -[A7], D0
000015FA  486E FFE0                pea.l      [A6 - 0x20]
000015FE  4EBA 07A0                jsr        [PC + 0x7A0 /* 00001DA0 */]
00001602  2D6E FFE8 000C           move.l     [A6 + 0xC], [A6 - 0x18]
00001608  4E5E                     unlink     A6
0000160A  2E9F                     move.l     [A7], [A7]+
0000160C  4E75                     rts
fn0000160E:
0000160E  4E56 FFEE                link       A6, -0x0012
00001612  48E7 0F08                movem.l    -[A7], D4,D5,D6,D7,A4
00001616  422E 0012                clr.b      [A6 + 0x12]
0000161A  102D F4CD                move.b     D0, [A5 - 0xB33]
0000161E  6704                     beq        +0x6 /* 00001624 */
00001620  6000 008C                bra        +0x8E /* 000016AE */
label00001624:
00001624  42A7                     clr.l      -[A7]
00001626  2F2E 000E                move.l     -[A7], [A6 + 0xE]
0000162A  4EBA 07DC                jsr        [PC + 0x7DC /* 00001E08 */]
0000162E  2A1F                     move.l     D5, [A7]+
00001630  6E02                     bgt        +0x4 /* 00001634 */
00001632  607A                     bra        +0x7C /* 000016AE */
label00001634:
00001634  42A7                     clr.l      -[A7]
00001636  2F2E 000E                move.l     -[A7], [A6 + 0xE]
0000163A  2F2E 000A                move.l     -[A7], [A6 + 0xA]
0000163E  4EBA 02E6                jsr        [PC + 0x2E6 /* 00001926 */]
00001642  285F                     movea.l    A4, [A7]+
00001644  200C                     move.l     D0, A4
00001646  6602                     bne        +0x4 /* 0000164A */
00001648  6064                     bra        +0x66 /* 000016AE */
label0000164A:
0000164A  2054                     movea.l    A0, [A4]
0000164C  2E10                     move.l     D7, [A0]
0000164E  182D F479                move.b     D4, [A5 - 0xB87]
00001652  1B6E 0008 F479           move.b     [A5 - 0xB87], [A6 + 0x8]
00001658  42A7                     clr.l      -[A7]
0000165A  2F07                     move.l     -[A7], D7
0000165C  4EBA E9A2                jsr        [PC - 0x165E /* 00000000 */]
00001660  2C1F                     move.l     D6, [A7]+
00001662  1B44 F479                move.b     [A5 - 0xB87], D4
00001666  4A86                     tst.l      D6
00001668  673A                     beq        +0x3C /* 000016A4 */
0000166A  2F0C                     move.l     -[A7], A4
0000166C  486E FFEE                pea.l      [A6 - 0x12]
00001670  4EAD 1922                jsr        [A5 + 0x1922 /* export_800, CODE:16 @ 00000C02 */]
00001674  2F06                     move.l     -[A7], D6
00001676  2F07                     move.l     -[A7], D7
00001678  2F14                     move.l     -[A7], [A4]
0000167A  4EBA 0DE8                jsr        [PC + 0xDE8 /* 00002464 */]
0000167E  2F0C                     move.l     -[A7], A4
00001680  1F2E FFEE                move.b     -[A7], [A6 - 0x12]
00001684  4EAD 03F2                jsr        [A5 + 0x3F2 /* export_122, CODE:1 @ 00004D00 */]
00001688  2F2E 000E                move.l     -[A7], [A6 + 0xE]
0000168C  2F06                     move.l     -[A7], D6
0000168E  4EBA 0D1C                jsr        [PC + 0xD1C /* 000023AC */]
00001692  2F05                     move.l     -[A7], D5
00001694  2F07                     move.l     -[A7], D7
00001696  1F3C 0001                move.b     -[A7], 0x1
0000169A  4EBA F534                jsr        [PC - 0xACC /* 00000BD0 */]
0000169E  1D7C 0001 0012           move.b     [A6 + 0x12], 0x1
label000016A4:
000016A4  2F2E 000E                move.l     -[A7], [A6 + 0xE]
000016A8  4267                     clr.w      -[A7]
000016AA  4EBA EE2A                jsr        [PC - 0x11D6 /* 000004D6 */]
label000016AE:
000016AE  4CDF 10F0                movem.l    D4,D5,D6,D7,A4, [A7]+
000016B2  4E5E                     unlink     A6
000016B4  205F                     movea.l    A0, [A7]+
000016B6  DEFC 000A                add.w      A7, 0xA /* '\n' */
000016BA  4ED0                     jmp        [A0]
export_1000:
fn000016BC:
000016BC  4E56 FFFC                link       A6, -0x0004
000016C0  2F0C                     move.l     -[A7], A4
000016C2  422E 000C                clr.b      [A6 + 0xC]
000016C6  42A7                     clr.l      -[A7]
000016C8  2F2E 0008                move.l     -[A7], [A6 + 0x8]
000016CC  4EBA F438                jsr        [PC - 0xBC8 /* 00000B06 */]
000016D0  285F                     movea.l    A4, [A7]+
000016D2  4AAC 0002                tst.l      [A4 + 0x2]
000016D6  670C                     beq        +0xE /* 000016E4 */
000016D8  4A2C 000A                tst.b      [A4 + 0xA]
000016DC  5DC0                     slt        D0
000016DE  4400                     neg.b      D0
000016E0  1D40 000C                move.b     [A6 + 0xC], D0
label000016E4:
000016E4  285F                     movea.l    A4, [A7]+
000016E6  4E5E                     unlink     A6
000016E8  2E9F                     move.l     [A7], [A7]+
000016EA  4E75                     rts
export_1001:
000016EC  4E56 0000                link       A6, 0
000016F0  2B6D F48C F49C           move.l     [A5 - 0xB64], [A5 - 0xB74]
000016F6  42A7                     clr.l      -[A7]
000016F8  2F2E 0008                move.l     -[A7], [A6 + 0x8]
000016FC  2F3A 0016                move.l     -[A7], [PC + 0x16 /* 00001714, value 0x424B4744 'BKGD', cstring "BKGDNV" */]
00001700  4EBA 0224                jsr        [PC + 0x224 /* 00001926 */]
00001704  2D5F 000C                move.l     [A6 + 0xC], [A7]+
00001708  2B6D F49C F48C           move.l     [A5 - 0xB74], [A5 - 0xB64]
0000170E  4E5E                     unlink     A6
00001710  2E9F                     move.l     [A7], [A7]+
00001712  4E75                     rts
00001714  424B                     clr.w      A3
00001716  4744                     chk.w      D3, D4
export_1002:
00001718  4E56 0000                link       A6, 0
0000171C  2B6D F488 F49C           move.l     [A5 - 0xB64], [A5 - 0xB78]
00001722  42A7                     clr.l      -[A7]
00001724  2F2E 0008                move.l     -[A7], [A6 + 0x8]
00001728  2F3A 0016                move.l     -[A7], [PC + 0x16 /* 00001740, value 0x424D4150 'BMAP', cstring "BMAPNV" */]
0000172C  4EBA 01F8                jsr        [PC + 0x1F8 /* 00001926 */]
00001730  2D5F 000C                move.l     [A6 + 0xC], [A7]+
00001734  2B6D F49C F488           move.l     [A5 - 0xB78], [A5 - 0xB64]
0000173A  4E5E                     unlink     A6
0000173C  2E9F                     move.l     [A7], [A7]+
0000173E  4E75                     rts
00001740  424D                     clr.w      A5
00001742  4150                     chk.w      D0, [A0]
export_1003:
00001744  4E56 0000                link       A6, 0
00001748  2B6D F490 F49C           move.l     [A5 - 0xB64], [A5 - 0xB70]
0000174E  42A7                     clr.l      -[A7]
00001750  2F2E 0008                move.l     -[A7], [A6 + 0x8]
00001754  2F3A 0016                move.l     -[A7], [PC + 0x16 /* 0000176C, value 0x43415244 'CARD', cstring "CARDNV" */]
00001758  4EBA 01CC                jsr        [PC + 0x1CC /* 00001926 */]
0000175C  2D5F 000C                move.l     [A6 + 0xC], [A7]+
00001760  2B6D F49C F490           move.l     [A5 - 0xB70], [A5 - 0xB64]
00001766  4E5E                     unlink     A6
00001768  2E9F                     move.l     [A7], [A7]+
0000176A  4E75                     rts
0000176C  4341                     chk.w      D1, D1
0000176E  5244                     addq.w     D4, 1
export_1004:
00001770  4E56 0000                link       A6, 0
00001774  2B6D F484 F49C           move.l     [A5 - 0xB64], [A5 - 0xB7C]
0000177A  42A7                     clr.l      -[A7]
0000177C  2F2E 0008                move.l     -[A7], [A6 + 0x8]
00001780  2F3A 0016                move.l     -[A7], [PC + 0x16 /* 00001798, value 0x4C495354 'LIST' */]
00001784  4EBA 01A0                jsr        [PC + 0x1A0 /* 00001926 */]
00001788  2D5F 000C                move.l     [A6 + 0xC], [A7]+
0000178C  2B6D F49C F484           move.l     [A5 - 0xB7C], [A5 - 0xB64]
00001792  4E5E                     unlink     A6
00001794  2E9F                     move.l     [A7], [A7]+
00001796  4E75                     rts
00001798  4C49 5354                divu.l     D4:D5, A1
fn0000179C:
0000179C  4E56 FFEE                link       A6, -0x0012
000017A0  48E7 0F18                movem.l    -[A7], D4,D5,D6,D7,A3,A4
000017A4  282E 0008                move.l     D4, [A6 + 0x8]
000017A8  5DC0                     slt        D0
000017AA  B8AD F65C                cmp.l      D4, [A5 - 0x9A4]
000017AE  5EC1                     sgt        D1
000017B0  8001                     or.b       D0, D1
000017B2  670A                     beq        +0xC /* 000017BE */
000017B4  2F3C 0000 0467           move.l     -[A7], 0x467
000017BA  4EAD 185A                jsr        [A5 + 0x185A /* export_775, CODE:16 @ 0000042E */]
label000017BE:
000017BE  2004                     move.l     D0, D4
000017C0  80BC 8000 0000           or.l       D0, 0x80000000
000017C6  2A00                     move.l     D5, D0
000017C8  2B6D F498 F49C           move.l     [A5 - 0xB64], [A5 - 0xB68]
000017CE  42A7                     clr.l      -[A7]
000017D0  2F05                     move.l     -[A7], D5
000017D2  4EBA F332                jsr        [PC - 0xCCE /* 00000B06 */]
000017D6  2E1F                     move.l     D7, [A7]+
000017D8  2B47 F498                move.l     [A5 - 0xB68], D7
000017DC  2047                     movea.l    A0, D7
000017DE  4AA8 0002                tst.l      [A0 + 0x2]
000017E2  6700 00C8                beq        +0xCA /* 000018AC */
000017E6  2847                     movea.l    A4, D7
000017E8  4AAC 0006                tst.l      [A4 + 0x6]
000017EC  660A                     bne        +0xC /* 000017F8 */
000017EE  2F3C 0000 0CC9           move.l     -[A7], 0xCC9
000017F4  4EAD 185A                jsr        [A5 + 0x185A /* export_775, CODE:16 @ 0000042E */]
label000017F8:
000017F8  4267                     clr.w      -[A7]
000017FA  2F2C 0006                move.l     -[A7], [A4 + 0x6]
000017FE  4EAD 1912                jsr        [A5 + 0x1912 /* export_798, CODE:16 @ 00000BA6 */]
00001802  101F                     move.b     D0, [A7]+
00001804  676E                     beq        +0x70 /* 00001874 */
00001806  4A2C 000B                tst.b      [A4 + 0xB]
0000180A  6F0A                     ble        +0xC /* 00001816 */
0000180C  2F3C 0000 0F24           move.l     -[A7], 0xF24
00001812  4EAD 185A                jsr        [A5 + 0x185A /* export_775, CODE:16 @ 0000042E */]
label00001816:
00001816  2F2C 0006                move.l     -[A7], [A4 + 0x6]
0000181A  2F3C 0000 0200           move.l     -[A7], 0x200
00001820  4EAD 197A                jsr        [A5 + 0x197A /* export_811, CODE:16 @ 00000E5A */]
00001824  4267                     clr.w      -[A7]
00001826  3EB8 0220                move.w     [A7], [0x00000220 /* MemErr */]
0000182A  4A5F                     tst.w      [A7]+
0000182C  670A                     beq        +0xC /* 00001838 */
0000182E  2F3C 0000 0F75           move.l     -[A7], 0xF75
00001834  4EAD 185A                jsr        [A5 + 0x185A /* export_775, CODE:16 @ 0000042E */]
label00001838:
00001838  2F3C 0000 0200           move.l     -[A7], 0x200
0000183E  2F04                     move.l     -[A7], D4
00001840  4EAD 04EA                jsr        [A5 + 0x4EA /* export_153, CODE:1 @ 000051F0 */]
00001844  2C1F                     move.l     D6, [A7]+
00001846  DCAD F654                add.l      D6, [A5 - 0x9AC]
0000184A  2F2C 0006                move.l     -[A7], [A4 + 0x6]
0000184E  486E FFEF                pea.l      [A6 - 0x11]
00001852  4EAD 1922                jsr        [A5 + 0x1922 /* export_800, CODE:16 @ 00000C02 */]
00001856  2F06                     move.l     -[A7], D6
00001858  2F3C 0000 0200           move.l     -[A7], 0x200
0000185E  206C 0006                movea.l    A0, [A4 + 0x6]
00001862  2F10                     move.l     -[A7], [A0]
00001864  4EBA 053A                jsr        [PC + 0x53A /* 00001DA0 */]
00001868  2F2C 0006                move.l     -[A7], [A4 + 0x6]
0000186C  1F2E FFEF                move.b     -[A7], [A6 - 0x11]
00001870  4EAD 03F2                jsr        [A5 + 0x3F2 /* export_122, CODE:1 @ 00004D00 */]
label00001874:
00001874  4A2C 000B                tst.b      [A4 + 0xB]
00001878  660C                     bne        +0xE /* 00001886 */
0000187A  52AD F4D0                addq.l     [A5 - 0xB30], 1
0000187E  2F2C 0006                move.l     -[A7], [A4 + 0x6]
00001882  4EAD 023A                jsr        [A5 + 0x23A /* export_67, CODE:1 @ 00004696 */]
label00001886:
00001886  102C 000B                move.b     D0, [A4 + 0xB]
0000188A  4880                     ext.w      D0
0000188C  5240                     addq.w     D0, 1
0000188E  1940 000B                move.b     [A4 + 0xB], D0
00001892  7010                     moveq.l    D0, 0x10
00001894  B02C 000B                cmp.b      D0, [A4 + 0xB]
00001898  6C0A                     bge        +0xC /* 000018A4 */
0000189A  2F3C 0000 04CE           move.l     -[A7], 0x4CE
000018A0  4EAD 185A                jsr        [A5 + 0x185A /* export_775, CODE:16 @ 0000042E */]
label000018A4:
000018A4  2D6C 0006 000C           move.l     [A6 + 0xC], [A4 + 0x6]
000018AA  6070                     bra        +0x72 /* 0000191C */
label000018AC:
000018AC  2F3C 0000 0200           move.l     -[A7], 0x200
000018B2  2F04                     move.l     -[A7], D4
000018B4  4EAD 04EA                jsr        [A5 + 0x4EA /* export_153, CODE:1 @ 000051F0 */]
000018B8  2C1F                     move.l     D6, [A7]+
000018BA  DCAD F654                add.l      D6, [A5 - 0x9AC]
000018BE  42A7                     clr.l      -[A7]
000018C0  2F3C 0000 0200           move.l     -[A7], 0x200
000018C6  4EAD 18DA                jsr        [A5 + 0x18DA /* export_791, CODE:16 @ 00000896 */]
000018CA  265F                     movea.l    A3, [A7]+
000018CC  200B                     move.l     D0, A3
000018CE  660A                     bne        +0xC /* 000018DA */
000018D0  2F3C 0000 2D17           move.l     -[A7], 0x2D17
000018D6  4EAD 185A                jsr        [A5 + 0x185A /* export_775, CODE:16 @ 0000042E */]
label000018DA:
000018DA  2F0B                     move.l     -[A7], A3
000018DC  4EAD 0222                jsr        [A5 + 0x222 /* export_64, CODE:1 @ 00004678 */]
000018E0  2F06                     move.l     -[A7], D6
000018E2  2F3C 0000 0200           move.l     -[A7], 0x200
000018E8  2F13                     move.l     -[A7], [A3]
000018EA  4EBA 04B4                jsr        [PC + 0x4B4 /* 00001DA0 */]
000018EE  2F0B                     move.l     -[A7], A3
000018F0  4EAD 022A                jsr        [A5 + 0x22A /* export_65, CODE:1 @ 00004682 */]
000018F4  2847                     movea.l    A4, D7
000018F6  2006                     move.l     D0, D6
000018F8  E088                     lsr        D0, 8
000018FA  3880                     move.w     [A4], D0
000018FC  2945 0002                move.l     [A4 + 0x2], D5
00001900  294B 0006                move.l     [A4 + 0x6], A3
00001904  197C 0001 000B           move.b     [A4 + 0xB], 0x1
0000190A  196D F3C3 000A           move.b     [A4 + 0xA], [A5 - 0xC3D]
00001910  52AD F4D8                addq.l     [A5 - 0xB28], 1
00001914  52AD F4D0                addq.l     [A5 - 0xB30], 1
00001918  2D4B 000C                move.l     [A6 + 0xC], A3
label0000191C:
0000191C  4CDF 18F0                movem.l    D4,D5,D6,D7,A3,A4, [A7]+
00001920  4E5E                     unlink     A6
00001922  2E9F                     move.l     [A7], [A7]+
00001924  4E75                     rts
export_1005:
fn00001926:
00001926  4E56 FFC2                link       A6, -0x003E
0000192A  48E7 0F18                movem.l    -[A7], D4,D5,D6,D7,A3,A4
0000192E  2A2E 000C                move.l     D5, [A6 + 0xC]
00001932  7000                     moveq.l    D0, 0x00
00001934  2D40 0010                move.l     [A6 + 0x10], D0
00001938  42A7                     clr.l      -[A7]
0000193A  2F05                     move.l     -[A7], D5
0000193C  4EBA F1C8                jsr        [PC - 0xE38 /* 00000B06 */]
00001940  2C1F                     move.l     D6, [A7]+
00001942  2046                     movea.l    A0, D6
00001944  4AA8 0002                tst.l      [A0 + 0x2]
00001948  661E                     bne        +0x20 /* 00001968 */
0000194A  2046                     movea.l    A0, D6
0000194C  7001                     moveq.l    D0, 0x01
0000194E  2140 0002                move.l     [A0 + 0x2], D0
00001952  42A7                     clr.l      -[A7]
00001954  2F05                     move.l     -[A7], D5
00001956  4EBA 04B0                jsr        [PC + 0x4B0 /* 00001E08 */]
0000195A  281F                     move.l     D4, [A7]+
0000195C  2046                     movea.l    A0, D6
0000195E  7000                     moveq.l    D0, 0x00
00001960  2140 0002                move.l     [A0 + 0x2], D0
00001964  6000 00A0                bra        +0xA2 /* 00001A06 */
label00001968:
00001968  2846                     movea.l    A4, D6
0000196A  4AAC 0006                tst.l      [A4 + 0x6]
0000196E  660A                     bne        +0xC /* 0000197A */
00001970  2F3C 0000 0D9F           move.l     -[A7], 0xD9F
00001976  4EAD 185A                jsr        [A5 + 0x185A /* export_775, CODE:16 @ 0000042E */]
label0000197A:
0000197A  4267                     clr.w      -[A7]
0000197C  2F2C 0006                move.l     -[A7], [A4 + 0x6]
00001980  4EAD 1912                jsr        [A5 + 0x1912 /* export_798, CODE:16 @ 00000BA6 */]
00001984  101F                     move.b     D0, [A7]+
00001986  6714                     beq        +0x16 /* 0000199C */
00001988  2F2C 0006                move.l     -[A7], [A4 + 0x6]
0000198C  4EAD 023A                jsr        [A5 + 0x23A /* export_67, CODE:1 @ 00004696 */]
00001990  42A7                     clr.l      -[A7]
00001992  2F05                     move.l     -[A7], D5
00001994  4EBA 0472                jsr        [PC + 0x472 /* 00001E08 */]
00001998  281F                     move.l     D4, [A7]+
0000199A  606A                     bra        +0x6C /* 00001A06 */
label0000199C:
0000199C  206C 0006                movea.l    A0, [A4 + 0x6]
000019A0  2050                     movea.l    A0, [A0]
000019A2  5888                     addq.l     A0, 4
000019A4  43EE 0008                lea.l      A1, [A6 + 0x8]
000019A8  7003                     moveq.l    D0, 0x03
label000019AA:
000019AA  B109                     cmpm.b     [A0]+, [A1]+
000019AC  56C8 FFFC                dbne       D0, -0x6 /* 000019AA */
000019B0  57C0                     seq        D0
000019B2  4A00                     tst.b      D0
000019B4  6616                     bne        +0x18 /* 000019CC */
000019B6  41EE 0008                lea.l      A0, [A6 + 0x8]
000019BA  43FA 0172                lea.l      A1, [PC + 0x172 /* 00001B2E, value 0x57494C44 'WILD', cstring "WILDNV" */]
000019BE  7203                     moveq.l    D1, 0x03
label000019C0:
000019C0  B109                     cmpm.b     [A0]+, [A1]+
000019C2  56C9 FFFC                dbne       D1, -0x6 /* 000019C0 */
000019C6  57C1                     seq        D1
000019C8  8001                     or.b       D0, D1
000019CA  6736                     beq        +0x38 /* 00001A02 */
label000019CC:
000019CC  4A2C 000B                tst.b      [A4 + 0xB]
000019D0  660C                     bne        +0xE /* 000019DE */
000019D2  52AD F4D0                addq.l     [A5 - 0xB30], 1
000019D6  2F2C 0006                move.l     -[A7], [A4 + 0x6]
000019DA  4EAD 023A                jsr        [A5 + 0x23A /* export_67, CODE:1 @ 00004696 */]
label000019DE:
000019DE  102C 000B                move.b     D0, [A4 + 0xB]
000019E2  4880                     ext.w      D0
000019E4  5240                     addq.w     D0, 1
000019E6  1940 000B                move.b     [A4 + 0xB], D0
000019EA  7010                     moveq.l    D0, 0x10
000019EC  B02C 000B                cmp.b      D0, [A4 + 0xB]
000019F0  6C0A                     bge        +0xC /* 000019FC */
000019F2  2F3C 0000 04CE           move.l     -[A7], 0x4CE
000019F8  4EAD 185A                jsr        [A5 + 0x185A /* export_775, CODE:16 @ 0000042E */]
label000019FC:
000019FC  2D6C 0006 0010           move.l     [A6 + 0x10], [A4 + 0x6]
label00001A02:
00001A02  6000 011A                bra        +0x11C /* 00001B1E */
label00001A06:
00001A06  4A84                     tst.l      D4
00001A08  6E04                     bgt        +0x6 /* 00001A0E */
00001A0A  6000 0112                bra        +0x114 /* 00001B1E */
label00001A0E:
00001A0E  2F04                     move.l     -[A7], D4
00001A10  7020                     moveq.l    D0, 0x20
00001A12  2F00                     move.l     -[A7], D0
00001A14  486E FFC4                pea.l      [A6 - 0x3C]
00001A18  4EBA 0386                jsr        [PC + 0x386 /* 00001DA0 */]
00001A1C  2E2E FFC4                move.l     D7, [A6 - 0x3C]
00001A20  2F07                     move.l     -[A7], D7
00001A22  2F05                     move.l     -[A7], D5
00001A24  2F3C 0000 154E           move.l     -[A7], 0x154E
00001A2A  4EAD 183A                jsr        [A5 + 0x183A /* export_771, CODE:16 @ 00000336 */]
00001A2E  2F05                     move.l     -[A7], D5
00001A30  2F2E 0008                move.l     -[A7], [A6 + 0x8]
00001A34  2F2E FFC8                move.l     -[A7], [A6 - 0x38]
00001A38  2F3C 0000 13F8           move.l     -[A7], 0x13F8
00001A3E  4EAD 1842                jsr        [A5 + 0x1842 /* export_772, CODE:16 @ 0000038E */]
00001A42  BAAE FFCC                cmp.l      D5, [A6 - 0x34]
00001A46  670A                     beq        +0xC /* 00001A52 */
00001A48  2F3C 0000 154F           move.l     -[A7], 0x154F
00001A4E  4EAD 185A                jsr        [A5 + 0x185A /* export_775, CODE:16 @ 0000042E */]
label00001A52:
00001A52  7010                     moveq.l    D0, 0x10
00001A54  B0AD F4D4                cmp.l      D0, [A5 - 0xB2C]
00001A58  6C04                     bge        +0x6 /* 00001A5E */
00001A5A  4EBA E716                jsr        [PC - 0x18EA /* 00000172 */]
label00001A5E:
00001A5E  2046                     movea.l    A0, D6
00001A60  BAA8 0002                cmp.l      D5, [A0 + 0x2]
00001A64  661E                     bne        +0x20 /* 00001A84 */
00001A66  2046                     movea.l    A0, D6
00001A68  2668 0006                movea.l    A3, [A0 + 0x6]
00001A6C  2F0B                     move.l     -[A7], A3
00001A6E  2F07                     move.l     -[A7], D7
00001A70  4EAD 197A                jsr        [A5 + 0x197A /* export_811, CODE:16 @ 00000E5A */]
00001A74  4267                     clr.w      -[A7]
00001A76  3EB8 0220                move.w     [A7], [0x00000220 /* MemErr */]
00001A7A  4A5F                     tst.w      [A7]+
00001A7C  6704                     beq        +0x6 /* 00001A82 */
00001A7E  6000 009E                bra        +0xA0 /* 00001B1E */
label00001A82:
00001A82  6016                     bra        +0x18 /* 00001A9A */
label00001A84:
00001A84  42A7                     clr.l      -[A7]
00001A86  2F07                     move.l     -[A7], D7
00001A88  4EAD 18DA                jsr        [A5 + 0x18DA /* export_791, CODE:16 @ 00000896 */]
00001A8C  265F                     movea.l    A3, [A7]+
00001A8E  200B                     move.l     D0, A3
00001A90  6604                     bne        +0x6 /* 00001A96 */
00001A92  6000 008A                bra        +0x8C /* 00001B1E */
label00001A96:
00001A96  52AD F4D8                addq.l     [A5 - 0xB28], 1
label00001A9A:
00001A9A  41EE FFC8                lea.l      A0, [A6 - 0x38]
00001A9E  43FA 008A                lea.l      A1, [PC + 0x8A /* 00001B2A, value 0x46524545 'FREE', cstring "FREEWILDNV" */]
00001AA2  7003                     moveq.l    D0, 0x03
label00001AA4:
00001AA4  B109                     cmpm.b     [A0]+, [A1]+
00001AA6  56C8 FFFC                dbne       D0, -0x6 /* 00001AA4 */
00001AAA  57C0                     seq        D0
00001AAC  802D F4C2                or.b       D0, [A5 - 0xB3E]
00001AB0  0240 0001                andi.w     D0, 0x1
00001AB4  6702                     beq        +0x4 /* 00001AB8 */
00001AB6  7E20                     moveq.l    D7, 0x20
label00001AB8:
00001AB8  7020                     moveq.l    D0, 0x20
00001ABA  B087                     cmp.l      D0, D7
00001ABC  6D0E                     blt        +0x10 /* 00001ACC */
00001ABE  486E FFC4                pea.l      [A6 - 0x3C]
00001AC2  2F13                     move.l     -[A7], [A3]
00001AC4  2F07                     move.l     -[A7], D7
00001AC6  4EAD 024A                jsr        [A5 + 0x24A /* export_69, CODE:1 @ 000046A6 */]
00001ACA  601E                     bra        +0x20 /* 00001AEA */
label00001ACC:
00001ACC  2F0B                     move.l     -[A7], A3
00001ACE  486E FFC3                pea.l      [A6 - 0x3D]
00001AD2  4EAD 1922                jsr        [A5 + 0x1922 /* export_800, CODE:16 @ 00000C02 */]
00001AD6  2F04                     move.l     -[A7], D4
00001AD8  2F07                     move.l     -[A7], D7
00001ADA  2F13                     move.l     -[A7], [A3]
00001ADC  4EBA 02C2                jsr        [PC + 0x2C2 /* 00001DA0 */]
00001AE0  2F0B                     move.l     -[A7], A3
00001AE2  1F2E FFC3                move.b     -[A7], [A6 - 0x3D]
00001AE6  4EAD 03F2                jsr        [A5 + 0x3F2 /* export_122, CODE:1 @ 00004D00 */]
label00001AEA:
00001AEA  2846                     movea.l    A4, D6
00001AEC  2004                     move.l     D0, D4
00001AEE  E088                     lsr        D0, 8
00001AF0  3880                     move.w     [A4], D0
00001AF2  2945 0002                move.l     [A4 + 0x2], D5
00001AF6  294B 0006                move.l     [A4 + 0x6], A3
00001AFA  197C 0001 000B           move.b     [A4 + 0xB], 0x1
00001B00  196D F3C3 000A           move.b     [A4 + 0xA], [A5 - 0xC3D]
00001B06  52AD F4D0                addq.l     [A5 - 0xB30], 1
00001B0A  2D4B 0010                move.l     [A6 + 0x10], A3
label00001B0E:
00001B0E  202D F4D8                move.l     D0, [A5 - 0xB28]
00001B12  B0AD F4B0                cmp.l      D0, [A5 - 0xB50]
00001B16  6F06                     ble        +0x8 /* 00001B1E */
00001B18  4EBA 012A                jsr        [PC + 0x12A /* 00001C44 */]
00001B1C  60F0                     bra        -0xE /* 00001B0E */
label00001B1E:
00001B1E  4CDF 18F0                movem.l    D4,D5,D6,D7,A3,A4, [A7]+
00001B22  4E5E                     unlink     A6
00001B24  205F                     movea.l    A0, [A7]+
00001B26  504F                     addq.w     A7, 8
00001B28  4ED0                     jmp        [A0]
00001B2A  4652 4545 5749 4C44      dc.b       "FREEWILD"
export_1006:
00001B32  4E56 0000                link       A6, 0
00001B36  2B6D F480 F49C           move.l     [A5 - 0xB64], [A5 - 0xB80]
00001B3C  42A7                     clr.l      -[A7]
00001B3E  2F2E 0008                move.l     -[A7], [A6 + 0x8]
00001B42  2F3A 0022                move.l     -[A7], [PC + 0x22 /* 00001B66, value 0x50414745 'PAGE', cstring "PAGENV" */]
00001B46  4EBA FDDE                jsr        [PC - 0x222 /* 00001926 */]
00001B4A  2D5F 000C                move.l     [A6 + 0xC], [A7]+
00001B4E  2B6D F49C F480           move.l     [A5 - 0xB80], [A5 - 0xB64]
00001B54  4AAE 0008                tst.l      [A6 + 0x8]
00001B58  6706                     beq        +0x8 /* 00001B60 */
00001B5A  2B6E 0008 F4C4           move.l     [A5 - 0xB3C], [A6 + 0x8]
label00001B60:
00001B60  4E5E                     unlink     A6
00001B62  2E9F                     move.l     [A7], [A7]+
00001B64  4E75                     rts
00001B66  5041                     addq.w     D1, 8
00001B68  4745                     chk.w      D3, D5
export_1007:
fn00001B6A:
00001B6A  4E56 0000                link       A6, 0
00001B6E  2B6D F494 F49C           move.l     [A5 - 0xB64], [A5 - 0xB6C]
00001B74  42A7                     clr.l      -[A7]
00001B76  2F2E 0008                move.l     -[A7], [A6 + 0x8]
00001B7A  2F3A 0016                move.l     -[A7], [PC + 0x16 /* 00001B92, value 0x57494C44 'WILD' */]
00001B7E  4EBA FDA6                jsr        [PC - 0x25A /* 00001926 */]
00001B82  2D5F 000C                move.l     [A6 + 0xC], [A7]+
00001B86  2B6D F49C F494           move.l     [A5 - 0xB6C], [A5 - 0xB64]
00001B8C  4E5E                     unlink     A6
00001B8E  2E9F                     move.l     [A7], [A7]+
00001B90  4E75                     rts
00001B92  5749                     subq.w     A1, 3
00001B94  4C44 4E56                divsl.l    D6:D4, D4
// begin alternate branch 00001B96-00001B9A
export_1008:
00001B96  4E56 FFFC                link       A6, -0x0004
// end alternate branch 00001B96-00001B9A
export_1008: // at 00001B96 (misaligned)
00001B98  FFFC                     .invalid   <<F/7/7>>
00001B9A  2F0C                     move.l     -[A7], A4
00001B9C  4EBA E5D4                jsr        [PC - 0x1A2C /* 00000172 */]
00001BA0  286D F4AC                movea.l    A4, [A5 - 0xB54]
label00001BA4:
00001BA4  4AAC 0002                tst.l      [A4 + 0x2]
00001BA8  56C0                     sne        D0
00001BAA  4A00                     tst.b      D0
00001BAC  6724                     beq        +0x26 /* 00001BD2 */
00001BAE  4A2C 000B                tst.b      [A4 + 0xB]
00001BB2  57C1                     seq        D1
00001BB4  C001                     and.b      D0, D1
00001BB6  671A                     beq        +0x1C /* 00001BD2 */
00001BB8  4A2C 000A                tst.b      [A4 + 0xA]
00001BBC  6C0A                     bge        +0xC /* 00001BC8 */
00001BBE  2F3C 0000 04B0           move.l     -[A7], 0x4B0
00001BC4  4EAD 185A                jsr        [A5 + 0x185A /* export_775, CODE:16 @ 0000042E */]
label00001BC8:
00001BC8  2F0C                     move.l     -[A7], A4
00001BCA  4EBA EE22                jsr        [PC - 0x11DE /* 000009EE */]
00001BCE  700C                     moveq.l    D0, 0x0C
00001BD0  99C0                     sub.l      A4, D0
label00001BD2:
00001BD2  700C                     moveq.l    D0, 0x0C
00001BD4  D9C0                     add.l      A4, D0
00001BD6  B9ED F4A8                cmpa.l     A4, [A5 - 0xB58]
00001BDA  66C8                     bne        -0x36 /* 00001BA4 */
00001BDC  2B6D F4AC F4A4           move.l     [A5 - 0xB5C], [A5 - 0xB54]
00001BE2  285F                     movea.l    A4, [A7]+
00001BE4  4E5E                     unlink     A6
00001BE6  4E75                     rts
export_1009:
00001BE8  4E56 FFFC                link       A6, -0x0004
00001BEC  48E7 0018                movem.l    -[A7], A3,A4
00001BF0  4AAE 0008                tst.l      [A6 + 0x8]
00001BF4  6602                     bne        +0x4 /* 00001BF8 */
00001BF6  6042                     bra        +0x44 /* 00001C3A */
label00001BF8:
00001BF8  42A7                     clr.l      -[A7]
00001BFA  2F2E 0008                move.l     -[A7], [A6 + 0x8]
00001BFE  4EBA EF06                jsr        [PC - 0x10FA /* 00000B06 */]
00001C02  265F                     movea.l    A3, [A7]+
00001C04  284B                     movea.l    A4, A3
00001C06  4AAC 0002                tst.l      [A4 + 0x2]
00001C0A  6602                     bne        +0x4 /* 00001C0E */
00001C0C  602C                     bra        +0x2E /* 00001C3A */
label00001C0E:
00001C0E  4A2C 000B                tst.b      [A4 + 0xB]
00001C12  670A                     beq        +0xC /* 00001C1E */
00001C14  2F3C 0000 0492           move.l     -[A7], 0x492
00001C1A  4EAD 185A                jsr        [A5 + 0x185A /* export_775, CODE:16 @ 0000042E */]
label00001C1E:
00001C1E  4A2C 000A                tst.b      [A4 + 0xA]
00001C22  6C06                     bge        +0x8 /* 00001C2A */
00001C24  2F0B                     move.l     -[A7], A3
00001C26  4EBA E63C                jsr        [PC - 0x19C4 /* 00000264 */]
label00001C2A:
00001C2A  102D F4CD                move.b     D0, [A5 - 0xB33]
00001C2E  6606                     bne        +0x8 /* 00001C36 */
00001C30  2F0B                     move.l     -[A7], A3
00001C32  4EBA EDBA                jsr        [PC - 0x1246 /* 000009EE */]
label00001C36:
00001C36  2B4B F4A4                move.l     [A5 - 0xB5C], A3
label00001C3A:
00001C3A  4CDF 1800                movem.l    A3,A4, [A7]+
00001C3E  4E5E                     unlink     A6
00001C40  2E9F                     move.l     [A7], [A7]+
00001C42  4E75                     rts
fn00001C44:
00001C44  4E56 FFFC                link       A6, -0x0004
00001C48  2F0C                     move.l     -[A7], A4
00001C4A  286D F4A4                movea.l    A4, [A5 - 0xB5C]
label00001C4E:
00001C4E  4AAC 0002                tst.l      [A4 + 0x2]
00001C52  56C0                     sne        D0
00001C54  4A00                     tst.b      D0
00001C56  6750                     beq        +0x52 /* 00001CA8 */
00001C58  2F00                     move.l     -[A7], D0
00001C5A  4267                     clr.w      -[A7]
00001C5C  2F2C 0006                move.l     -[A7], [A4 + 0x6]
00001C60  4EAD 1912                jsr        [A5 + 0x1912 /* export_798, CODE:16 @ 00000BA6 */]
00001C64  121F                     move.b     D1, [A7]+
00001C66  201F                     move.l     D0, [A7]+
00001C68  C001                     and.b      D0, D1
00001C6A  673C                     beq        +0x3E /* 00001CA8 */
00001C6C  4AAC 0006                tst.l      [A4 + 0x6]
00001C70  660A                     bne        +0xC /* 00001C7C */
00001C72  2F3C 0000 1115           move.l     -[A7], 0x1115
00001C78  4EAD 185A                jsr        [A5 + 0x185A /* export_775, CODE:16 @ 0000042E */]
label00001C7C:
00001C7C  4A2C 000B                tst.b      [A4 + 0xB]
00001C80  670A                     beq        +0xC /* 00001C8C */
00001C82  2F3C 0000 094A           move.l     -[A7], 0x94A /* '\tJ' */
00001C88  4EAD 185A                jsr        [A5 + 0x185A /* export_775, CODE:16 @ 0000042E */]
label00001C8C:
00001C8C  4A2C 000A                tst.b      [A4 + 0xA]
00001C90  6C0A                     bge        +0xC /* 00001C9C */
00001C92  2F3C 0000 094B           move.l     -[A7], 0x94B /* '\tK' */
00001C98  4EAD 185A                jsr        [A5 + 0x185A /* export_775, CODE:16 @ 0000042E */]
label00001C9C:
00001C9C  2F0C                     move.l     -[A7], A4
00001C9E  4EBA ED4E                jsr        [PC - 0x12B2 /* 000009EE */]
00001CA2  2B4C F4A4                move.l     [A5 - 0xB5C], A4
00001CA6  606C                     bra        +0x6E /* 00001D14 */
label00001CA8:
00001CA8  700C                     moveq.l    D0, 0x0C
00001CAA  D9C0                     add.l      A4, D0
00001CAC  B9ED F4A8                cmpa.l     A4, [A5 - 0xB58]
00001CB0  6604                     bne        +0x6 /* 00001CB6 */
00001CB2  286D F4AC                movea.l    A4, [A5 - 0xB54]
label00001CB6:
00001CB6  B9ED F4A4                cmpa.l     A4, [A5 - 0xB5C]
00001CBA  6692                     bne        -0x6C /* 00001C4E */
label00001CBC:
00001CBC  286D F4A4                movea.l    A4, [A5 - 0xB5C]
label00001CC0:
00001CC0  4AAC 0002                tst.l      [A4 + 0x2]
00001CC4  56C0                     sne        D0
00001CC6  4A00                     tst.b      D0
00001CC8  6720                     beq        +0x22 /* 00001CEA */
00001CCA  4A2C 000A                tst.b      [A4 + 0xA]
00001CCE  5CC1                     sge        D1
00001CD0  C001                     and.b      D0, D1
00001CD2  6716                     beq        +0x18 /* 00001CEA */
00001CD4  4A2C 000B                tst.b      [A4 + 0xB]
00001CD8  57C1                     seq        D1
00001CDA  C001                     and.b      D0, D1
00001CDC  670C                     beq        +0xE /* 00001CEA */
00001CDE  2F0C                     move.l     -[A7], A4
00001CE0  4EBA ED0C                jsr        [PC - 0x12F4 /* 000009EE */]
00001CE4  2B4C F4A4                move.l     [A5 - 0xB5C], A4
00001CE8  602A                     bra        +0x2C /* 00001D14 */
label00001CEA:
00001CEA  700C                     moveq.l    D0, 0x0C
00001CEC  D9C0                     add.l      A4, D0
00001CEE  B9ED F4A8                cmpa.l     A4, [A5 - 0xB58]
00001CF2  6604                     bne        +0x6 /* 00001CF8 */
00001CF4  286D F4AC                movea.l    A4, [A5 - 0xB54]
label00001CF8:
00001CF8  B9ED F4A4                cmpa.l     A4, [A5 - 0xB5C]
00001CFC  66C2                     bne        -0x3C /* 00001CC0 */
00001CFE  102D F4CF                move.b     D0, [A5 - 0xB31]
00001D02  6710                     beq        +0x12 /* 00001D14 */
00001D04  2F00                     move.l     -[A7], D0
00001D06  4267                     clr.w      -[A7]
00001D08  4EBA E4B8                jsr        [PC - 0x1B48 /* 000001C2 */]
00001D0C  121F                     move.b     D1, [A7]+
00001D0E  201F                     move.l     D0, [A7]+
00001D10  C001                     and.b      D0, D1
00001D12  66A8                     bne        -0x56 /* 00001CBC */
label00001D14:
00001D14  285F                     movea.l    A4, [A7]+
00001D16  4E5E                     unlink     A6
00001D18  4E75                     rts
fn00001D1A:
00001D1A  4E56 FFFC                link       A6, -0x0004
00001D1E  2F0C                     move.l     -[A7], A4
00001D20  302E 0008                move.w     D0, [A6 + 0x8]
00001D24  5340                     subq.w     D0, 1
00001D26  41ED F3C4                lea.l      A0, [A5 - 0xC3C]
00001D2A  C1FC 000C                muls.w     D0, 0xC
00001D2E  2F30 0000                move.l     -[A7], [A0 + D0.w]
00001D32  1F3C 0001                move.b     -[A7], 0x1
00001D36  4EAD 108A                jsr        [A5 + 0x108A /* export_525, CODE:9 @ 000045EC */]
00001D3A  286D F4AC                movea.l    A4, [A5 - 0xB54]
label00001D3E:
00001D3E  4AAC 0002                tst.l      [A4 + 0x2]
00001D42  56C0                     sne        D0
00001D44  4A00                     tst.b      D0
00001D46  6744                     beq        +0x46 /* 00001D8C */
00001D48  7200                     moveq.l    D1, 0x00
00001D4A  122C 000A                move.b     D1, [A4 + 0xA]
00001D4E  C2BC 0000 000F           and.l      D1, 0xF
00001D54  342E 0008                move.w     D2, [A6 + 0x8]
00001D58  48C2                     ext.l      D2
00001D5A  B481                     cmp.l      D2, D1
00001D5C  57C1                     seq        D1
00001D5E  C001                     and.b      D0, D1
00001D60  672A                     beq        +0x2C /* 00001D8C */
00001D62  4A2C 000B                tst.b      [A4 + 0xB]
00001D66  670A                     beq        +0xC /* 00001D72 */
00001D68  2F3C 0000 A8F9           move.l     -[A7], 0xA8F9
00001D6E  4EAD 185A                jsr        [A5 + 0x185A /* export_775, CODE:16 @ 0000042E */]
label00001D72:
00001D72  4A2C 000A                tst.b      [A4 + 0xA]
00001D76  6C0A                     bge        +0xC /* 00001D82 */
00001D78  2F3C 0000 04B0           move.l     -[A7], 0x4B0
00001D7E  4EAD 185A                jsr        [A5 + 0x185A /* export_775, CODE:16 @ 0000042E */]
label00001D82:
00001D82  2F0C                     move.l     -[A7], A4
00001D84  4EBA EC68                jsr        [PC - 0x1398 /* 000009EE */]
00001D88  700C                     moveq.l    D0, 0x0C
00001D8A  99C0                     sub.l      A4, D0
label00001D8C:
00001D8C  700C                     moveq.l    D0, 0x0C
00001D8E  D9C0                     add.l      A4, D0
00001D90  B9ED F4A8                cmpa.l     A4, [A5 - 0xB58]
00001D94  66A8                     bne        -0x56 /* 00001D3E */
00001D96  285F                     movea.l    A4, [A7]+
00001D98  4E5E                     unlink     A6
00001D9A  205F                     movea.l    A0, [A7]+
00001D9C  544F                     addq.w     A7, 2
00001D9E  4ED0                     jmp        [A0]
export_1010:
fn00001DA0:
00001DA0  4E56 FEEC                link       A6, -0x0114
00001DA4  2B6E 0010 F47C           move.l     [A5 - 0xB84], [A6 + 0x10]
00001DAA  4267                     clr.w      -[A7]
00001DAC  3F2D FD68                move.w     -[A7], [A5 - 0x298]
00001DB0  486D F47C                pea.l      [A5 - 0xB84]
00001DB4  2F2E 000C                move.l     -[A7], [A6 + 0xC]
00001DB8  2F2E 0008                move.l     -[A7], [A6 + 0x8]
00001DBC  4EAD 1B32                jsr        [A5 + 0x1B32 /* export_866, CODE:16 @ 00001E20 */]
00001DC0  3B5F F47A                move.w     [A5 - 0xB86], [A7]+
00001DC4  4A6D F47A                tst.w      [A5 - 0xB86]
00001DC8  6732                     beq        +0x34 /* 00001DFC */
00001DCA  486E FFEC                pea.l      [A6 - 0x14]
00001DCE  302D F47A                move.w     D0, [A5 - 0xB86]
00001DD2  48C0                     ext.l      D0
00001DD4  2F00                     move.l     -[A7], D0
00001DD6  4EAD 1902                jsr        [A5 + 0x1902 /* export_796, CODE:16 @ 000009D4 */]
00001DDA  486E FEEC                pea.l      [A6 - 0x114]
00001DDE  3F3C 0026                move.w     -[A7], 0x26 /* '&' */
00001DE2  4EAD 1882                jsr        [A5 + 0x1882 /* export_780, CODE:16 @ 00000526 */]
00001DE6  487A 001E                pea.l      [PC + 0x1E /* 00001E06, value 0x4E56 'NV', cstring "" */]
00001DEA  487A 001A                pea.l      [PC + 0x1A /* 00001E06, value 0x4E56 'NV', cstring "" */]
00001DEE  A98B                     syscall    ParamText
00001DF0  3F3C 0025                move.w     -[A7], 0x25 /* '%' */
00001DF4  4EAD 187A                jsr        [A5 + 0x187A /* export_779, CODE:16 @ 00000500 */]
00001DF8  4EAD 17F2                jsr        [A5 + 0x17F2 /* export_762, CODE:16 @ 00000080 */]
label00001DFC:
00001DFC  4E5E                     unlink     A6
00001DFE  205F                     movea.l    A0, [A7]+
00001E00  DEFC 000C                add.w      A7, 0xC
00001E04  4ED0                     jmp        [A0]
00001E06  0000 4E56                ori.b      D0, 0x56 /* 'V' */
// begin alternate branch 00001E08-00001E0C
export_1011:
fn00001E08:
00001E08  4E56 FDE6                link       A6, -0x021A
// end alternate branch 00001E08-00001E0C
export_1011: // at 00001E08 (misaligned)
fn00001E08: // (misaligned)
00001E0A  FDE6                     .invalid   <<F/7/6>>
00001E0C  48E7 0F08                movem.l    -[A7], D4,D5,D6,D7,A4
00001E10  286D F49C                movea.l    A4, [A5 - 0xB64]
00001E14  70FF                     moveq.l    D0, 0xFFFFFFFF
00001E16  2D40 000C                move.l     [A6 + 0xC], D0
00001E1A  2C2E 0008                move.l     D6, [A6 + 0x8]
00001E1E  E08E                     lsr        D6, 8
00001E20  2E06                     move.l     D7, D6
00001E22  EE8F                     lsr        D7, 7
00001E24  7008                     moveq.l    D0, 0x08
00001E26  B086                     cmp.l      D0, D6
00001E28  5EC0                     sgt        D0
00001E2A  BEAD F65C                cmp.l      D7, [A5 - 0x9A4]
00001E2E  5EC1                     sgt        D1
00001E30  8001                     or.b       D0, D1
00001E32  6600 0086                bne        +0x88 /* 00001EBA */
00001E36  2006                     move.l     D0, D6
00001E38  C0BC 0000 007F           and.l      D0, 0x7F
00001E3E  3800                     move.w     D4, D0
00001E40  102D FD88                move.b     D0, [A5 - 0x278]
00001E44  6736                     beq        +0x38 /* 00001E7C */
00001E46  2F3C 0000 0200           move.l     -[A7], 0x200
00001E4C  2F07                     move.l     -[A7], D7
00001E4E  4EAD 04EA                jsr        [A5 + 0x4EA /* export_153, CODE:1 @ 000051F0 */]
00001E52  201F                     move.l     D0, [A7]+
00001E54  D0AD F654                add.l      D0, [A5 - 0x9AC]
00001E58  2D40 FFE6                move.l     [A6 - 0x1A], D0
00001E5C  2F2E FFE6                move.l     -[A7], [A6 - 0x1A]
00001E60  2F3C 0000 0200           move.l     -[A7], 0x200
00001E66  486E FDE6                pea.l      [A6 - 0x21A]
00001E6A  4EBA FF34                jsr        [PC - 0xCC /* 00001DA0 */]
00001E6E  3004                     move.w     D0, D4
00001E70  E540                     asl        D0.w, 2
00001E72  41EE FDE6                lea.l      A0, [A6 - 0x21A]
00001E76  2A30 0000                move.l     D5, [A0 + D0.w]
00001E7A  6022                     bra        +0x24 /* 00001E9E */
label00001E7C:
00001E7C  42A7                     clr.l      -[A7]
00001E7E  2F07                     move.l     -[A7], D7
00001E80  4EBA F91A                jsr        [PC - 0x6E6 /* 0000179C */]
00001E84  2D5F FFF4                move.l     [A6 - 0xC], [A7]+
00001E88  206E FFF4                movea.l    A0, [A6 - 0xC]
00001E8C  2050                     movea.l    A0, [A0]
00001E8E  3004                     move.w     D0, D4
00001E90  E540                     asl        D0.w, 2
00001E92  2A30 0000                move.l     D5, [A0 + D0.w]
00001E96  2F07                     move.l     -[A7], D7
00001E98  4267                     clr.w      -[A7]
00001E9A  4EBA E5F0                jsr        [PC - 0x1A10 /* 0000048C */]
label00001E9E:
00001E9E  2005                     move.l     D0, D5
00001EA0  222E 0008                move.l     D1, [A6 + 0x8]
00001EA4  B380                     xor.l      D0, D1
00001EA6  C0BC 0000 00FF           and.l      D0, 0xFF
00001EAC  4A80                     tst.l      D0
00001EAE  660A                     bne        +0xC /* 00001EBA */
00001EB0  2005                     move.l     D0, D5
00001EB2  E088                     lsr        D0, 8
00001EB4  EB80                     asl        D0, 5
00001EB6  2D40 000C                move.l     [A6 + 0xC], D0
label00001EBA:
00001EBA  2B4C F49C                move.l     [A5 - 0xB64], A4
00001EBE  4CDF 10F0                movem.l    D4,D5,D6,D7,A4, [A7]+
00001EC2  4E5E                     unlink     A6
00001EC4  2E9F                     move.l     [A7], [A7]+
00001EC6  4E75                     rts
export_1012:
fn00001EC8:
00001EC8  4E56 FFF8                link       A6, -0x0008
00001ECC  48E7 0708                movem.l    -[A7], D5,D6,D7,A4
00001ED0  286E 000C                movea.l    A4, [A6 + 0xC]
00001ED4  2C2D FE2A                move.l     D6, [A5 - 0x1D6]
00001ED8  2B6E 0008 FE2A           move.l     [A5 - 0x1D6], [A6 + 0x8]
00001EDE  7E01                     moveq.l    D7, 0x01
00001EE0  6008                     bra        +0xA /* 00001EEA */
label00001EE2:
00001EE2  4267                     clr.w      -[A7]
00001EE4  A861                     syscall    Random
00001EE6  3A1F                     move.w     D5, [A7]+
00001EE8  5247                     addq.w     D7, 1
label00001EEA:
00001EEA  700A                     moveq.l    D0, 0x0A
00001EEC  B047                     cmp.w      D0, D7
00001EEE  6CF2                     bge        -0xC /* 00001EE2 */
00001EF0  7E01                     moveq.l    D7, 0x01
00001EF2  6014                     bra        +0x16 /* 00001F08 */
label00001EF4:
00001EF4  4267                     clr.w      -[A7]
00001EF6  A861                     syscall    Random
00001EF8  3A1F                     move.w     D5, [A7]+
00001EFA  202D FE2A                move.l     D0, [A5 - 0x1D6]
00001EFE  2214                     move.l     D1, [A4]
00001F00  B380                     xor.l      D0, D1
00001F02  2880                     move.l     [A4], D0
00001F04  548C                     addq.l     A4, 2
00001F06  5247                     addq.w     D7, 1
label00001F08:
00001F08  7018                     moveq.l    D0, 0x18
00001F0A  B047                     cmp.w      D0, D7
00001F0C  6CE6                     bge        -0x18 /* 00001EF4 */
00001F0E  2B46 FE2A                move.l     [A5 - 0x1D6], D6
00001F12  4CDF 10E0                movem.l    D5,D6,D7,A4, [A7]+
00001F16  4E5E                     unlink     A6
00001F18  205F                     movea.l    A0, [A7]+
00001F1A  504F                     addq.w     A7, 8
00001F1C  4ED0                     jmp        [A0]
export_1013:
00001F1E  4E56 FFE2                link       A6, -0x001E
00001F22  48E7 0F18                movem.l    -[A7], D4,D5,D6,D7,A3,A4
00001F26  422E 0014                clr.b      [A6 + 0x14]
00001F2A  42A7                     clr.l      -[A7]
00001F2C  2F2E 0010                move.l     -[A7], [A6 + 0x10]
00001F30  2F2E 000C                move.l     -[A7], [A6 + 0xC]
00001F34  4EBA F9F0                jsr        [PC - 0x610 /* 00001926 */]
00001F38  285F                     movea.l    A4, [A7]+
00001F3A  200C                     move.l     D0, A4
00001F3C  6700 01BC                beq        +0x1BE /* 000020FA */
00001F40  42A7                     clr.l      -[A7]
00001F42  2F2E 0008                move.l     -[A7], [A6 + 0x8]
00001F46  4EAD 18EA                jsr        [A5 + 0x18EA /* export_793, CODE:16 @ 000008E4 */]
00001F4A  2D5F 0008                move.l     [A6 + 0x8], [A7]+
00001F4E  2054                     movea.l    A0, [A4]
00001F50  2A10                     move.l     D5, [A0]
00001F52  2E2E 0008                move.l     D7, [A6 + 0x8]
00001F56  9E85                     sub.l      D7, D5
00001F58  4A87                     tst.l      D7
00001F5A  6700 018E                beq        +0x190 /* 000020EA */
00001F5E  102D F4CD                move.b     D0, [A5 - 0xB33]
00001F62  6720                     beq        +0x22 /* 00001F84 */
00001F64  2F0C                     move.l     -[A7], A4
00001F66  2F2E 0008                move.l     -[A7], [A6 + 0x8]
00001F6A  4EAD 1982                jsr        [A5 + 0x1982 /* export_812, CODE:16 @ 00000EAC */]
00001F6E  4267                     clr.w      -[A7]
00001F70  3EB8 0220                move.w     [A7], [0x00000220 /* MemErr */]
00001F74  4A5F                     tst.w      [A7]+
00001F76  6600 0178                bne        +0x17A /* 000020F0 */
00001F7A  2054                     movea.l    A0, [A4]
00001F7C  20AE 0008                move.l     [A0], [A6 + 0x8]
00001F80  6000 0168                bra        +0x16A /* 000020EA */
label00001F84:
00001F84  42A7                     clr.l      -[A7]
00001F86  2F2E 0010                move.l     -[A7], [A6 + 0x10]
00001F8A  4EBA FE7C                jsr        [PC - 0x184 /* 00001E08 */]
00001F8E  2C1F                     move.l     D6, [A7]+
00001F90  6E0A                     bgt        +0xC /* 00001F9C */
00001F92  2F3C 0000 072F           move.l     -[A7], 0x72F
00001F98  4EAD 185A                jsr        [A5 + 0x185A /* export_775, CODE:16 @ 0000042E */]
label00001F9C:
00001F9C  4A87                     tst.l      D7
00001F9E  6C58                     bge        +0x5A /* 00001FF8 */
00001FA0  2F0C                     move.l     -[A7], A4
00001FA2  2F2E 0008                move.l     -[A7], [A6 + 0x8]
00001FA6  4EAD 020A                jsr        [A5 + 0x20A /* export_61, CODE:1 @ 00004654 */]
00001FAA  4267                     clr.w      -[A7]
00001FAC  3EB8 0220                move.w     [A7], [0x00000220 /* MemErr */]
00001FB0  4A5F                     tst.w      [A7]+
00001FB2  6600 013C                bne        +0x13E /* 000020F0 */
00001FB6  2054                     movea.l    A0, [A4]
00001FB8  20AE 0008                move.l     [A0], [A6 + 0x8]
00001FBC  2F0C                     move.l     -[A7], A4
00001FBE  486E FFE3                pea.l      [A6 - 0x1D]
00001FC2  4EAD 1922                jsr        [A5 + 0x1922 /* export_800, CODE:16 @ 00000C02 */]
00001FC6  2F06                     move.l     -[A7], D6
00001FC8  7004                     moveq.l    D0, 0x04
00001FCA  2F00                     move.l     -[A7], D0
00001FCC  486E 0008                pea.l      [A6 + 0x8]
00001FD0  4EBA 0492                jsr        [PC + 0x492 /* 00002464 */]
00001FD4  2F0C                     move.l     -[A7], A4
00001FD6  1F2E FFE3                move.b     -[A7], [A6 - 0x1D]
00001FDA  4EAD 03F2                jsr        [A5 + 0x3F2 /* export_122, CODE:1 @ 00004D00 */]
00001FDE  202E 0008                move.l     D0, [A6 + 0x8]
00001FE2  D086                     add.l      D0, D6
00001FE4  2F00                     move.l     -[A7], D0
00001FE6  2007                     move.l     D0, D7
00001FE8  4480                     neg.l      D0
00001FEA  2F00                     move.l     -[A7], D0
00001FEC  1F3C 0001                move.b     -[A7], 0x1
00001FF0  4EBA EBDE                jsr        [PC - 0x1422 /* 00000BD0 */]
00001FF4  6000 00F4                bra        +0xF6 /* 000020EA */
label00001FF8:
00001FF8  BEAD F678                cmp.l      D7, [A5 - 0x988]
00001FFC  5EC0                     sgt        D0
00001FFE  4A00                     tst.b      D0
00002000  6718                     beq        +0x1A /* 0000201A */
00002002  2F00                     move.l     -[A7], D0
00002004  4267                     clr.w      -[A7]
00002006  2F07                     move.l     -[A7], D7
00002008  4EBA EFB4                jsr        [PC - 0x104C /* 00000FBE */]
0000200C  121F                     move.b     D1, [A7]+
0000200E  201F                     move.l     D0, [A7]+
00002010  0A01 0001                xori.b     D1, 0x1
00002014  C001                     and.b      D0, D1
00002016  6600 00D8                bne        +0xDA /* 000020F0 */
label0000201A:
0000201A  42A7                     clr.l      -[A7]
0000201C  2006                     move.l     D0, D6
0000201E  D085                     add.l      D0, D5
00002020  2F00                     move.l     -[A7], D0
00002022  4EBA EA9A                jsr        [PC - 0x1566 /* 00000ABE */]
00002026  265F                     movea.l    A3, [A7]+
00002028  200B                     move.l     D0, A3
0000202A  56C0                     sne        D0
0000202C  4A00                     tst.b      D0
0000202E  675E                     beq        +0x60 /* 0000208E */
00002030  BEAB 0004                cmp.l      D7, [A3 + 0x4]
00002034  5FC1                     sle        D1
00002036  C001                     and.b      D0, D1
00002038  6754                     beq        +0x56 /* 0000208E */
0000203A  202B 0004                move.l     D0, [A3 + 0x4]
0000203E  9087                     sub.l      D0, D7
00002040  2D40 FFE8                move.l     [A6 - 0x18], D0
00002044  2F0B                     move.l     -[A7], A3
00002046  4EBA E91A                jsr        [PC - 0x16E6 /* 00000962 */]
0000204A  4AAE FFE8                tst.l      [A6 - 0x18]
0000204E  6F14                     ble        +0x16 /* 00002064 */
00002050  202E 0008                move.l     D0, [A6 + 0x8]
00002054  D086                     add.l      D0, D6
00002056  2F00                     move.l     -[A7], D0
00002058  2F2E FFE8                move.l     -[A7], [A6 - 0x18]
0000205C  1F3C 0001                move.b     -[A7], 0x1
00002060  4EBA EB6E                jsr        [PC - 0x1492 /* 00000BD0 */]
label00002064:
00002064  2F0C                     move.l     -[A7], A4
00002066  2F2E 0008                move.l     -[A7], [A6 + 0x8]
0000206A  4EAD 1982                jsr        [A5 + 0x1982 /* export_812, CODE:16 @ 00000EAC */]
0000206E  4267                     clr.w      -[A7]
00002070  3EB8 0220                move.w     [A7], [0x00000220 /* MemErr */]
00002074  4A5F                     tst.w      [A7]+
00002076  6678                     bne        +0x7A /* 000020F0 */
00002078  2054                     movea.l    A0, [A4]
0000207A  20AE 0008                move.l     [A0], [A6 + 0x8]
0000207E  2F06                     move.l     -[A7], D6
00002080  7004                     moveq.l    D0, 0x04
00002082  2F00                     move.l     -[A7], D0
00002084  486E 0008                pea.l      [A6 + 0x8]
00002088  4EBA 03DA                jsr        [PC + 0x3DA /* 00002464 */]
0000208C  605C                     bra        +0x5E /* 000020EA */
label0000208E:
0000208E  42A7                     clr.l      -[A7]
00002090  2F2E 0008                move.l     -[A7], [A6 + 0x8]
00002094  4EBA DF6A                jsr        [PC - 0x2096 /* 00000000 */]
00002098  281F                     move.l     D4, [A7]+
0000209A  6754                     beq        +0x56 /* 000020F0 */
0000209C  2F0C                     move.l     -[A7], A4
0000209E  2F2E 0008                move.l     -[A7], [A6 + 0x8]
000020A2  4EAD 1982                jsr        [A5 + 0x1982 /* export_812, CODE:16 @ 00000EAC */]
000020A6  4267                     clr.w      -[A7]
000020A8  3EB8 0220                move.w     [A7], [0x00000220 /* MemErr */]
000020AC  4A5F                     tst.w      [A7]+
000020AE  6640                     bne        +0x42 /* 000020F0 */
000020B0  2054                     movea.l    A0, [A4]
000020B2  20AE 0008                move.l     [A0], [A6 + 0x8]
000020B6  2F0C                     move.l     -[A7], A4
000020B8  486E FFE3                pea.l      [A6 - 0x1D]
000020BC  4EAD 1922                jsr        [A5 + 0x1922 /* export_800, CODE:16 @ 00000C02 */]
000020C0  2F04                     move.l     -[A7], D4
000020C2  2F05                     move.l     -[A7], D5
000020C4  2F14                     move.l     -[A7], [A4]
000020C6  4EBA 039C                jsr        [PC + 0x39C /* 00002464 */]
000020CA  2F0C                     move.l     -[A7], A4
000020CC  1F2E FFE3                move.b     -[A7], [A6 - 0x1D]
000020D0  4EAD 03F2                jsr        [A5 + 0x3F2 /* export_122, CODE:1 @ 00004D00 */]
000020D4  2F2E 0010                move.l     -[A7], [A6 + 0x10]
000020D8  2F04                     move.l     -[A7], D4
000020DA  4EBA 02D0                jsr        [PC + 0x2D0 /* 000023AC */]
000020DE  2F06                     move.l     -[A7], D6
000020E0  2F05                     move.l     -[A7], D5
000020E2  1F3C 0001                move.b     -[A7], 0x1
000020E6  4EBA EAE8                jsr        [PC - 0x1518 /* 00000BD0 */]
label000020EA:
000020EA  1D7C 0001 0014           move.b     [A6 + 0x14], 0x1
label000020F0:
000020F0  2F2E 0010                move.l     -[A7], [A6 + 0x10]
000020F4  4267                     clr.w      -[A7]
000020F6  4EBA E3DE                jsr        [PC - 0x1C22 /* 000004D6 */]
label000020FA:
000020FA  4CDF 18F0                movem.l    D4,D5,D6,D7,A3,A4, [A7]+
000020FE  4E5E                     unlink     A6
00002100  205F                     movea.l    A0, [A7]+
00002102  DEFC 000C                add.w      A7, 0xC
00002106  4ED0                     jmp        [A0]
export_1014:
00002108  4E56 FFF4                link       A6, -0x000C
0000210C  48E7 0718                movem.l    -[A7], D5,D6,D7,A3,A4
00002110  7A01                     moveq.l    D5, 0x01
00002112  2C3C 7FFF FFFF           move.l     D6, 0x7FFFFFFF
00002118  47ED F3C4                lea.l      A3, [A5 - 0xC3C]
0000211C  7E01                     moveq.l    D7, 0x01
0000211E  6040                     bra        +0x42 /* 00002160 */
label00002120:
00002120  2013                     move.l     D0, [A3]
00002122  B0AD F4E0                cmp.l      D0, [A5 - 0xB20]
00002126  6626                     bne        +0x28 /* 0000214E */
00002128  202E 0008                move.l     D0, [A6 + 0x8]
0000212C  B0AB 0008                cmp.l      D0, [A3 + 0x8]
00002130  56C0                     sne        D0
00002132  222E 0008                move.l     D1, [A6 + 0x8]
00002136  6A02                     bpl        +0x4 /* 0000213A */
00002138  4481                     neg.l      D1
label0000213A:
0000213A  0C81 0001 5180           cmpi.l     D1, 0x15180
00002140  5DC1                     slt        D1
00002142  8001                     or.b       D0, D1
00002144  6706                     beq        +0x8 /* 0000214C */
00002146  3F07                     move.w     -[A7], D7
00002148  4EBA FBD0                jsr        [PC - 0x430 /* 00001D1A */]
label0000214C:
0000214C  6032                     bra        +0x34 /* 00002180 */
label0000214E:
0000214E  BCAB 0004                cmp.l      D6, [A3 + 0x4]
00002152  6F06                     ble        +0x8 /* 0000215A */
00002154  2C2B 0004                move.l     D6, [A3 + 0x4]
00002158  3A07                     move.w     D5, D7
label0000215A:
0000215A  700C                     moveq.l    D0, 0x0C
0000215C  D7C0                     add.l      A3, D0
0000215E  5247                     addq.w     D7, 1
label00002160:
00002160  700F                     moveq.l    D0, 0x0F
00002162  B047                     cmp.w      D0, D7
00002164  6CBA                     bge        -0x44 /* 00002120 */
00002166  3E05                     move.w     D7, D5
00002168  3007                     move.w     D0, D7
0000216A  5340                     subq.w     D0, 1
0000216C  41ED F3C4                lea.l      A0, [A5 - 0xC3C]
00002170  C1FC 000C                muls.w     D0, 0xC
00002174  4AB0 0000                tst.l      [A0 + D0.w]
00002178  6706                     beq        +0x8 /* 00002180 */
0000217A  3F07                     move.w     -[A7], D7
0000217C  4EBA FB9C                jsr        [PC - 0x464 /* 00001D1A */]
label00002180:
00002180  3B47 F3C2                move.w     [A5 - 0xC3E], D7
00002184  3007                     move.w     D0, D7
00002186  5340                     subq.w     D0, 1
00002188  41ED F3C4                lea.l      A0, [A5 - 0xC3C]
0000218C  C1FC 000C                muls.w     D0, 0xC
00002190  49F0 0000                lea.l      A4, [A0 + D0.w]
00002194  28AD F4E0                move.l     [A4], [A5 - 0xB20]
00002198  42A7                     clr.l      -[A7]
0000219A  A975                     syscall    TickCount
0000219C  295F 0004                move.l     [A4 + 0x4], [A7]+
000021A0  7000                     moveq.l    D0, 0x00
000021A2  2940 0008                move.l     [A4 + 0x8], D0
000021A6  4CDF 18E0                movem.l    D5,D6,D7,A3,A4, [A7]+
000021AA  4E5E                     unlink     A6
000021AC  2E9F                     move.l     [A7], [A7]+
000021AE  4E75                     rts
export_1015:
fn000021B0:
000021B0  4E56 FDF6                link       A6, -0x020A
000021B4  48E7 0308                movem.l    -[A7], D6,D7,A4
000021B8  206E 0010                movea.l    A0, [A6 + 0x10]
000021BC  43EE FF00                lea.l      A1, [A6 - 0x100]
000021C0  703F                     moveq.l    D0, 0x3F
label000021C2:
000021C2  22D8                     move.l     [A1]+, [A0]+
000021C4  51C8 FFFC                dbf        D0, -0x6 /* 000021C2 */
000021C8  4247                     clr.w      D7
000021CA  49EE FF00                lea.l      A4, [A6 - 0x100]
000021CE  4240                     clr.w      D0
000021D0  102E FF00                move.b     D0, [A6 - 0x100]
000021D4  3D40 FDF6                move.w     [A6 - 0x20A], D0
000021D8  7C01                     moveq.l    D6, 0x01
000021DA  601A                     bra        +0x1C /* 000021F6 */
label000021DC:
000021DC  528C                     addq.l     A4, 1
000021DE  1014                     move.b     D0, [A4]
000021E0  4880                     ext.w      D0
000021E2  723A                     moveq.l    D1, 0x3A
000021E4  B240                     cmp.w      D1, D0
000021E6  660A                     bne        +0xC /* 000021F2 */
000021E8  41EE FF00                lea.l      A0, [A6 - 0x100]
000021EC  200C                     move.l     D0, A4
000021EE  9088                     sub.l      D0, A0
000021F0  3E00                     move.w     D7, D0
label000021F2:
000021F2  5246                     addq.w     D6, 1
000021F4  6906                     bvs        +0x8 /* 000021FC */
label000021F6:
000021F6  BC6E FDF6                cmp.w      D6, [A6 - 0x20A]
000021FA  6FE0                     ble        -0x1E /* 000021DC */
label000021FC:
000021FC  4A47                     tst.w      D7
000021FE  6758                     beq        +0x5A /* 00002258 */
00002200  206E 000C                movea.l    A0, [A6 + 0xC]
00002204  2F08                     move.l     -[A7], A0
00002206  486E FF00                pea.l      [A6 - 0x100]
0000220A  3F3C 0001                move.w     -[A7], 0x1
0000220E  3F07                     move.w     -[A7], D7
00002210  486E FDF8                pea.l      [A6 - 0x208]
00002214  4EAD 0512                jsr        [A5 + 0x512 /* export_158, CODE:1 @ 00005378 */]
00002218  205F                     movea.l    A0, [A7]+
0000221A  43EE FDF8                lea.l      A1, [A6 - 0x208]
0000221E  703F                     moveq.l    D0, 0x3F
label00002220:
00002220  20D9                     move.l     [A0]+, [A1]+
00002222  51C8 FFFC                dbf        D0, -0x6 /* 00002220 */
00002226  206E 0008                movea.l    A0, [A6 + 0x8]
0000222A  2F08                     move.l     -[A7], A0
0000222C  486E FF00                pea.l      [A6 - 0x100]
00002230  3007                     move.w     D0, D7
00002232  5240                     addq.w     D0, 1
00002234  3F00                     move.w     -[A7], D0
00002236  4240                     clr.w      D0
00002238  102E FF00                move.b     D0, [A6 - 0x100]
0000223C  9047                     sub.w      D0, D7
0000223E  3F00                     move.w     -[A7], D0
00002240  486E FDF8                pea.l      [A6 - 0x208]
00002244  4EAD 0512                jsr        [A5 + 0x512 /* export_158, CODE:1 @ 00005378 */]
00002248  205F                     movea.l    A0, [A7]+
0000224A  43EE FDF8                lea.l      A1, [A6 - 0x208]
0000224E  703F                     moveq.l    D0, 0x3F
label00002250:
00002250  20D9                     move.l     [A0]+, [A1]+
00002252  51C8 FFFC                dbf        D0, -0x6 /* 00002250 */
00002256  6016                     bra        +0x18 /* 0000226E */
label00002258:
00002258  206E 000C                movea.l    A0, [A6 + 0xC]
0000225C  4210                     clr.b      [A0]
0000225E  206E 0008                movea.l    A0, [A6 + 0x8]
00002262  43EE FF00                lea.l      A1, [A6 - 0x100]
00002266  703F                     moveq.l    D0, 0x3F
label00002268:
00002268  20D9                     move.l     [A0]+, [A1]+
0000226A  51C8 FFFC                dbf        D0, -0x6 /* 00002268 */
label0000226E:
0000226E  4CDF 10C0                movem.l    D6,D7,A4, [A7]+
00002272  4E5E                     unlink     A6
00002274  205F                     movea.l    A0, [A7]+
00002276  DEFC 000C                add.w      A7, 0xC
0000227A  4ED0                     jmp        [A0]
export_1016:
0000227C  4E56 FCFC                link       A6, -0x0304
00002280  48E7 0300                movem.l    -[A7], D6,D7
00002284  206E 0008                movea.l    A0, [A6 + 0x8]
00002288  43EE FF00                lea.l      A1, [A6 - 0x100]
0000228C  703F                     moveq.l    D0, 0x3F
label0000228E:
0000228E  22D8                     move.l     [A1]+, [A0]+
00002290  51C8 FFFC                dbf        D0, -0x6 /* 0000228E */
00002294  4267                     clr.w      -[A7]
00002296  486E FF00                pea.l      [A6 - 0x100]
0000229A  487A 00B8                pea.l      [PC + 0xB8 /* 00002354, value 0x4486F6D, pstring "Home" */]
0000229E  4EAD 1AC2                jsr        [A5 + 0x1AC2 /* export_852, CODE:16 @ 00001B82 */]
000022A2  101F                     move.b     D0, [A7]+
000022A4  6722                     beq        +0x24 /* 000022C8 */
000022A6  41EE FE00                lea.l      A0, [A6 - 0x200]
000022AA  43ED F5FE                lea.l      A1, [A5 - 0xA02]
000022AE  7007                     moveq.l    D0, 0x07
label000022B0:
000022B0  20D9                     move.l     [A0]+, [A1]+
000022B2  51C8 FFFC                dbf        D0, -0x6 /* 000022B0 */
000022B6  41EE FD00                lea.l      A0, [A6 - 0x300]
000022BA  43ED F4FE                lea.l      A1, [A5 - 0xB02]
000022BE  703F                     moveq.l    D0, 0x3F
label000022C0:
000022C0  20D9                     move.l     [A0]+, [A1]+
000022C2  51C8 FFFC                dbf        D0, -0x6 /* 000022C0 */
000022C6  6010                     bra        +0x12 /* 000022D8 */
label000022C8:
000022C8  486E FF00                pea.l      [A6 - 0x100]
000022CC  486E FD00                pea.l      [A6 - 0x300]
000022D0  486E FE00                pea.l      [A6 - 0x200]
000022D4  4EBA FEDA                jsr        [PC - 0x126 /* 000021B0 */]
label000022D8:
000022D8  4267                     clr.w      -[A7]
000022DA  486E FD00                pea.l      [A6 - 0x300]
000022DE  2F2D F4E8                move.l     -[A7], [A5 - 0xB18]
000022E2  4EAD 1AD2                jsr        [A5 + 0x1AD2 /* export_854, CODE:16 @ 00001BF0 */]
000022E6  3E1F                     move.w     D7, [A7]+
000022E8  4A47                     tst.w      D7
000022EA  661C                     bne        +0x1E /* 00002308 */
000022EC  486E FD00                pea.l      [A6 - 0x300]
000022F0  2F2D F4E8                move.l     -[A7], [A5 - 0xB18]
000022F4  4EAD 1992                jsr        [A5 + 0x1992 /* export_814, CODE:16 @ 00001036 */]
000022F8  4267                     clr.w      -[A7]
000022FA  486E FD00                pea.l      [A6 - 0x300]
000022FE  2F2D F4E8                move.l     -[A7], [A5 - 0xB18]
00002302  4EAD 1AD2                jsr        [A5 + 0x1AD2 /* export_854, CODE:16 @ 00001BF0 */]
00002306  3E1F                     move.w     D7, [A7]+
label00002308:
00002308  4267                     clr.w      -[A7]
0000230A  486E FE00                pea.l      [A6 - 0x200]
0000230E  2F2D F4E4                move.l     -[A7], [A5 - 0xB1C]
00002312  4EAD 1AD2                jsr        [A5 + 0x1AD2 /* export_854, CODE:16 @ 00001BF0 */]
00002316  3C1F                     move.w     D6, [A7]+
00002318  4A46                     tst.w      D6
0000231A  661C                     bne        +0x1E /* 00002338 */
0000231C  486E FE00                pea.l      [A6 - 0x200]
00002320  2F2D F4E4                move.l     -[A7], [A5 - 0xB1C]
00002324  4EAD 1992                jsr        [A5 + 0x1992 /* export_814, CODE:16 @ 00001036 */]
00002328  4267                     clr.w      -[A7]
0000232A  486E FE00                pea.l      [A6 - 0x200]
0000232E  2F2D F4E4                move.l     -[A7], [A5 - 0xB1C]
00002332  4EAD 1AD2                jsr        [A5 + 0x1AD2 /* export_854, CODE:16 @ 00001BF0 */]
00002336  3C1F                     move.w     D6, [A7]+
label00002338:
00002338  7000                     moveq.l    D0, 0x00
0000233A  3007                     move.w     D0, D7
0000233C  7210                     moveq.l    D1, 0x10
0000233E  E3A8                     lsl        D0, D1
00002340  3206                     move.w     D1, D6
00002342  48C1                     ext.l      D1
00002344  D280                     add.l      D1, D0
00002346  2D41 000C                move.l     [A6 + 0xC], D1
0000234A  4CDF 00C0                movem.l    D6,D7, [A7]+
0000234E  4E5E                     unlink     A6
00002350  2E9F                     move.l     [A7], [A7]+
00002352  4E75                     rts
00002354  0448 6F6D                subi.w     A0, 0x6F6D /* 'om' */
00002358  6500 4E56                bcs        +0x4E58 /* 000071B0 */
// begin alternate branch 0000235A-0000235E
export_1017:
0000235A  4E56 FD00                link       A6, -0x0300
// end alternate branch 0000235A-0000235E
export_1017: // at 0000235A (misaligned)
0000235C  FD00                     .extension 0xD00 <<F/4-5/6>> // unimplemented
0000235E  2F2D F4E8                move.l     -[A7], [A5 - 0xB18]
00002362  3F2E 0008                move.w     -[A7], [A6 + 0x8]
00002366  486E FE00                pea.l      [A6 - 0x200]
0000236A  4EAD 1A1A                jsr        [A5 + 0x1A1A /* export_831, CODE:16 @ 0000146C */]
0000236E  2F2D F4E4                move.l     -[A7], [A5 - 0xB1C]
00002372  3F2E 000A                move.w     -[A7], [A6 + 0xA]
00002376  486E FF00                pea.l      [A6 - 0x100]
0000237A  4EAD 1A1A                jsr        [A5 + 0x1A1A /* export_831, CODE:16 @ 0000146C */]
0000237E  206E 000C                movea.l    A0, [A6 + 0xC]
00002382  2F08                     move.l     -[A7], A0
00002384  486E FE00                pea.l      [A6 - 0x200]
00002388  486E FF00                pea.l      [A6 - 0x100]
0000238C  486E FD00                pea.l      [A6 - 0x300]
00002390  3F3C 0002                move.w     -[A7], 0x2
00002394  4EAD 050A                jsr        [A5 + 0x50A /* export_157, CODE:1 @ 0000531E */]
00002398  205F                     movea.l    A0, [A7]+
0000239A  43EE FD00                lea.l      A1, [A6 - 0x300]
0000239E  703F                     moveq.l    D0, 0x3F
label000023A0:
000023A0  20D9                     move.l     [A0]+, [A1]+
000023A2  51C8 FFFC                dbf        D0, -0x6 /* 000023A0 */
000023A6  4E5E                     unlink     A6
000023A8  2E9F                     move.l     [A7], [A7]+
000023AA  4E75                     rts
fn000023AC:
000023AC  4E56 FFEE                link       A6, -0x0012
000023B0  48E7 0F08                movem.l    -[A7], D4,D5,D6,D7,A4
000023B4  202E 0008                move.l     D0, [A6 + 0x8]
000023B8  C0BC 0000 001F           and.l      D0, 0x1F
000023BE  4A80                     tst.l      D0
000023C0  670A                     beq        +0xC /* 000023CC */
000023C2  2F3C 0000 06FB           move.l     -[A7], 0x6FB
000023C8  4EAD 185A                jsr        [A5 + 0x185A /* export_775, CODE:16 @ 0000042E */]
label000023CC:
000023CC  42A7                     clr.l      -[A7]
000023CE  2F2E 000C                move.l     -[A7], [A6 + 0xC]
000023D2  4EBA FA34                jsr        [PC - 0x5CC /* 00001E08 */]
000023D6  4A9F                     tst.l      [A7]+
000023D8  6C0A                     bge        +0xC /* 000023E4 */
000023DA  2F3C 0000 06FC           move.l     -[A7], 0x6FC
000023E0  4EAD 185A                jsr        [A5 + 0x185A /* export_775, CODE:16 @ 0000042E */]
label000023E4:
000023E4  2A2E 000C                move.l     D5, [A6 + 0xC]
000023E8  E08D                     lsr        D5, 8
000023EA  2C05                     move.l     D6, D5
000023EC  EE8E                     lsr        D6, 7
000023EE  2005                     move.l     D0, D5
000023F0  C0BC 0000 007F           and.l      D0, 0x7F
000023F6  3800                     move.w     D4, D0
000023F8  42A7                     clr.l      -[A7]
000023FA  2F06                     move.l     -[A7], D6
000023FC  4EBA F39E                jsr        [PC - 0xC62 /* 0000179C */]
00002400  285F                     movea.l    A4, [A7]+
00002402  2054                     movea.l    A0, [A4]
00002404  3004                     move.w     D0, D4
00002406  E540                     asl        D0.w, 2
00002408  2E30 0000                move.l     D7, [A0 + D0.w]
0000240C  4AAE 0008                tst.l      [A6 + 0x8]
00002410  661E                     bne        +0x20 /* 00002430 */
00002412  2007                     move.l     D0, D7
00002414  5280                     addq.l     D0, 1
00002416  C0BC 0000 00FF           and.l      D0, 0xFF
0000241C  2E00                     move.l     D7, D0
0000241E  BCAD F658                cmp.l      D6, [A5 - 0x9A8]
00002422  6C0A                     bge        +0xC /* 0000242E */
00002424  2B46 F658                move.l     [A5 - 0x9A8], D6
00002428  1B7C 0001 F63B           move.b     [A5 - 0x9C5], 0x1
label0000242E:
0000242E  6014                     bra        +0x16 /* 00002444 */
label00002430:
00002430  2007                     move.l     D0, D7
00002432  C0BC 0000 00FF           and.l      D0, 0xFF
00002438  222E 0008                move.l     D1, [A6 + 0x8]
0000243C  EA89                     lsr        D1, 5
0000243E  E181                     asl        D1, 8
00002440  2E01                     move.l     D7, D1
00002442  DE80                     add.l      D7, D0
label00002444:
00002444  2054                     movea.l    A0, [A4]
00002446  3004                     move.w     D0, D4
00002448  E540                     asl        D0.w, 2
0000244A  2187 0000                move.l     [A0 + D0.w], D7
0000244E  2F06                     move.l     -[A7], D6
00002450  1F3C 0001                move.b     -[A7], 0x1
00002454  4EBA E036                jsr        [PC - 0x1FCA /* 0000048C */]
00002458  4CDF 10F0                movem.l    D4,D5,D6,D7,A4, [A7]+
0000245C  4E5E                     unlink     A6
0000245E  205F                     movea.l    A0, [A7]+
00002460  504F                     addq.w     A7, 8
00002462  4ED0                     jmp        [A0]
export_1018:
fn00002464:
00002464  4E56 FEEC                link       A6, -0x0114
00002468  102D F4CE                move.b     D0, [A5 - 0xB32]
0000246C  6664                     bne        +0x66 /* 000024D2 */
0000246E  2B6E 0010 F47C           move.l     [A5 - 0xB84], [A6 + 0x10]
00002474  4267                     clr.w      -[A7]
00002476  3F2D FD68                move.w     -[A7], [A5 - 0x298]
0000247A  486D F47C                pea.l      [A5 - 0xB84]
0000247E  2F2E 000C                move.l     -[A7], [A6 + 0xC]
00002482  2F2E 0008                move.l     -[A7], [A6 + 0x8]
00002486  4EAD 1B2A                jsr        [A5 + 0x1B2A /* export_865, CODE:16 @ 00001E1C */]
0000248A  3B5F F47A                move.w     [A5 - 0xB86], [A7]+
0000248E  1B7C 0001 F3C0           move.b     [A5 - 0xC40], 0x1
00002494  1B7C 0001 F3C1           move.b     [A5 - 0xC3F], 0x1
0000249A  4A6D F47A                tst.w      [A5 - 0xB86]
0000249E  6732                     beq        +0x34 /* 000024D2 */
000024A0  486E FFEC                pea.l      [A6 - 0x14]
000024A4  302D F47A                move.w     D0, [A5 - 0xB86]
000024A8  48C0                     ext.l      D0
000024AA  2F00                     move.l     -[A7], D0
000024AC  4EAD 1902                jsr        [A5 + 0x1902 /* export_796, CODE:16 @ 000009D4 */]
000024B0  486E FEEC                pea.l      [A6 - 0x114]
000024B4  3F3C 0027                move.w     -[A7], 0x27 /* '\'' */
000024B8  4EAD 1882                jsr        [A5 + 0x1882 /* export_780, CODE:16 @ 00000526 */]
000024BC  487A 001E                pea.l      [PC + 0x1E /* 000024DC, value 0x4E56 'NV', cstring "" */]
000024C0  487A 001A                pea.l      [PC + 0x1A /* 000024DC, value 0x4E56 'NV', cstring "" */]
000024C4  A98B                     syscall    ParamText
000024C6  3F3C 0025                move.w     -[A7], 0x25 /* '%' */
000024CA  4EAD 187A                jsr        [A5 + 0x187A /* export_779, CODE:16 @ 00000500 */]
000024CE  4EAD 17F2                jsr        [A5 + 0x17F2 /* export_762, CODE:16 @ 00000080 */]
label000024D2:
000024D2  4E5E                     unlink     A6
000024D4  205F                     movea.l    A0, [A7]+
000024D6  DEFC 000C                add.w      A7, 0xC
000024DA  4ED0                     jmp        [A0]
000024DC  0000 4E56                ori.b      D0, 0x56 /* 'V' */
// begin alternate branch 000024DE-000024E2
export_1019:
fn000024DE:
000024DE  4E56 FFFA                link       A6, -0x0006
// end alternate branch 000024DE-000024E2
export_1019: // at 000024DE (misaligned)
fn000024DE: // (misaligned)
000024E0  FFFA                     .invalid   <<F/7/7>>
000024E2  48E7 0300                movem.l    -[A7], D6,D7
000024E6  102D F4CE                move.b     D0, [A5 - 0xB32]
000024EA  666E                     bne        +0x70 /* 0000255A */
000024EC  082D 0005 F688           btst.b     [A5 - 0x978], 0x5
000024F2  56C6                     sne        D6
000024F4  4406                     neg.b      D6
000024F6  2E2D F648                move.l     D7, [A5 - 0x9B8]
000024FA  2B6D F4BE F6A8           move.l     [A5 - 0x958], [A5 - 0xB42]
00002500  202D F4BE                move.l     D0, [A5 - 0xB42]
00002504  B0AD F6A4                cmp.l      D0, [A5 - 0x95C]
00002508  6C06                     bge        +0x8 /* 00002510 */
0000250A  2B6D F4BE F6A4           move.l     [A5 - 0x95C], [A5 - 0xB42]
label00002510:
00002510  42A7                     clr.l      -[A7]
00002512  486D F63C                pea.l      [A5 - 0x9C4]
00002516  2F3C 0000 0180           move.l     -[A7], 0x180
0000251C  4EAD 1AFA                jsr        [A5 + 0x1AFA /* export_859, CODE:16 @ 00001D2A */]
00002520  202D F648                move.l     D0, [A5 - 0x9B8]
00002524  909F                     sub.l      D0, [A7]+
00002526  2B40 F648                move.l     [A5 - 0x9B8], D0
0000252A  1006                     move.b     D0, D6
0000252C  670A                     beq        +0xC /* 00002538 */
0000252E  486D F654                pea.l      [A5 - 0x9AC]
00002532  2F07                     move.l     -[A7], D7
00002534  4EBA F992                jsr        [PC - 0x66E /* 00001EC8 */]
label00002538:
00002538  42A7                     clr.l      -[A7]
0000253A  2F3C 0000 0600           move.l     -[A7], 0x600
00002540  486D F63C                pea.l      [A5 - 0x9C4]
00002544  4EBA FF1E                jsr        [PC - 0xE2 /* 00002464 */]
00002548  1006                     move.b     D0, D6
0000254A  670A                     beq        +0xC /* 00002556 */
0000254C  486D F654                pea.l      [A5 - 0x9AC]
00002550  2F07                     move.l     -[A7], D7
00002552  4EBA F974                jsr        [PC - 0x68C /* 00001EC8 */]
label00002556:
00002556  2B47 F648                move.l     [A5 - 0x9B8], D7
label0000255A:
0000255A  422D F63B                clr.b      [A5 - 0x9C5]
0000255E  4CDF 00C0                movem.l    D6,D7, [A7]+
00002562  4E5E                     unlink     A6
00002564  4E75                     rts
