# near model CODE resource
# jump table entries: 0-162 (163 of them)
fn00000000:
00000000  4E56 FFFA                link       A6, -0x0006
00000004  2F0C                     move.l     -[A7], A4
00000006  206E 000C                movea.l    A0, [A6 + 0xC]
0000000A  43EE FFFA                lea.l      A1, [A6 - 0x6]
0000000E  22D8                     move.l     [A1]+, [A0]+
00000010  3290                     move.w     [A1], [A0]
00000012  286E 0008                movea.l    A4, [A6 + 0x8]
00000016  4A2E FFFE                tst.b      [A6 - 0x2]
0000001A  6608                     bne        +0xA /* 00000024 */
0000001C  296D ECE4 FFF6           move.l     [A4 - 0xA], [A5 - 0x131C]
00000022  6066                     bra        +0x68 /* 0000008A */
label00000024:
00000024  7004                     moveq.l    D0, 0x04
00000026  B02E FFFE                cmp.b      D0, [A6 - 0x2]
0000002A  661C                     bne        +0x1E /* 00000048 */
0000002C  2F2D ECE4                move.l     -[A7], [A5 - 0x131C]
00000030  2F2D ECDC                move.l     -[A7], [A5 - 0x1324]
00000034  2F3C 0000 5580           move.l     -[A7], 0x5580
0000003A  4EBA 466A                jsr        [PC + 0x466A /* 000046A6 */]
0000003E  2F2D ECDC                move.l     -[A7], [A5 - 0x1324]
00000042  4EAD 1C52                jsr        [A5 + 0x1C52 /* export_902, CODE:17 @ 000011DA */]
00000046  603C                     bra        +0x3E /* 00000084 */
label00000048:
00000048  7001                     moveq.l    D0, 0x01
0000004A  B02E FFFE                cmp.b      D0, [A6 - 0x2]
0000004E  6606                     bne        +0x8 /* 00000056 */
00000050  70FF                     moveq.l    D0, 0xFFFFFFFF
00000052  2940 FFFA                move.l     [A4 - 0x6], D0
label00000056:
00000056  7002                     moveq.l    D0, 0x02
00000058  B02E FFFE                cmp.b      D0, [A6 - 0x2]
0000005C  6606                     bne        +0x8 /* 00000064 */
0000005E  7000                     moveq.l    D0, 0x00
00000060  2940 FFFA                move.l     [A4 - 0x6], D0
label00000064:
00000064  7003                     moveq.l    D0, 0x03
00000066  B02E FFFE                cmp.b      D0, [A6 - 0x2]
0000006A  6608                     bne        +0xA /* 00000074 */
0000006C  297C AAAA AAAA FFFA      move.l     [A4 - 0x6], 0xAAAAAAAA
label00000074:
00000074  2F2D ECDC                move.l     -[A7], [A5 - 0x1324]
00000078  2F2C FFFA                move.l     -[A7], [A4 - 0x6]
0000007C  486D ED82                pea.l      [A5 - 0x127E]
00000080  4EAD 1722                jsr        [A5 + 0x1722 /* export_736, CODE:15 @ 00004B16 */]
label00000084:
00000084  296D ECDC FFF6           move.l     [A4 - 0xA], [A5 - 0x1324]
label0000008A:
0000008A  2F2C FFF6                move.l     -[A7], [A4 - 0xA]
0000008E  2F2D ED76                move.l     -[A7], [A5 - 0x128A]
00000092  2F2D ECEC                move.l     -[A7], [A5 - 0x1314]
00000096  3F2E FFFA                move.w     -[A7], [A6 - 0x6]
0000009A  3F2E FFFC                move.w     -[A7], [A6 - 0x4]
0000009E  2F2C FFF2                move.l     -[A7], [A4 - 0xE]
000000A2  4EAD 1D02                jsr        [A5 + 0x1D02 /* export_924, CODE:17 @ 00002046 */]
000000A6  285F                     movea.l    A4, [A7]+
000000A8  4E5E                     unlink     A6
000000AA  205F                     movea.l    A0, [A7]+
000000AC  504F                     addq.w     A7, 8
000000AE  4ED0                     jmp        [A0]
export_1:
000000B0  4E56 FFF0                link       A6, -0x0010
000000B4  2F07                     move.l     -[A7], D7
000000B6  4A6D FD8A                tst.w      [A5 - 0x276]
000000BA  6600 00CA                bne        +0xCC /* 00000186 */
000000BE  4267                     clr.w      -[A7]
000000C0  486D E2F2                pea.l      [A5 - 0x1D0E]
000000C4  A8AE                     syscall    EmptyRect
000000C6  101F                     move.b     D0, [A7]+
000000C8  6608                     bne        +0xA /* 000000D2 */
000000CA  486D E2F2                pea.l      [A5 - 0x1D0E]
000000CE  4EAD 16D2                jsr        [A5 + 0x16D2 /* export_726, CODE:15 @ 0000402E */]
label000000D2:
000000D2  2F2D EDC8                move.l     -[A7], [A5 - 0x1238]
000000D6  A873                     syscall    SetPort
000000D8  102D E0DE                move.b     D0, [A5 - 0x1F22]
000000DC  671E                     beq        +0x20 /* 000000FC */
000000DE  486D ED44                pea.l      [A5 - 0x12BC]
000000E2  206D EDC8                movea.l    A0, [A5 - 0x1238]
000000E6  4868 0002                pea.l      [A0 + 0x2]
000000EA  486D ED82                pea.l      [A5 - 0x127E]
000000EE  486D ED82                pea.l      [A5 - 0x127E]
000000F2  4267                     clr.w      -[A7]
000000F4  42A7                     clr.l      -[A7]
000000F6  A8EC                     syscall    CopyBits
000000F8  6000 008C                bra        +0x8E /* 00000186 */
label000000FC:
000000FC  7000                     moveq.l    D0, 0x00
000000FE  2D40 FFF6                move.l     [A6 - 0xA], D0
00000102  4A6D E09E                tst.w      [A5 - 0x1F62]
00000106  5EC0                     sgt        D0
00000108  802D E097                or.b       D0, [A5 - 0x1F69]
0000010C  0240 0001                andi.w     D0, 0x1
00000110  675C                     beq        +0x5E /* 0000016E */
00000112  4EAD 22DA                jsr        [A5 + 0x22DA /* export_1111, CODE:20 @ 00006304 */]
00000116  486D ED82                pea.l      [A5 - 0x127E]
0000011A  206D EDC8                movea.l    A0, [A5 - 0x1238]
0000011E  2F28 0008                move.l     -[A7], [A0 + 0x8]
00000122  A855                     syscall    ShieldCursor
00000124  2D6D EFF0 FFF2           move.l     [A6 - 0xE], [A5 - 0x1010]
0000012A  486E FFF2                pea.l      [A6 - 0xE]
0000012E  A871                     syscall    GlobalToLocal
00000130  102D E097                move.b     D0, [A5 - 0x1F69]
00000134  670C                     beq        +0xE /* 00000142 */
00000136  486D E098                pea.l      [A5 - 0x1F68]
0000013A  2F0E                     move.l     -[A7], A6
0000013C  4EBA FEC2                jsr        [PC - 0x13E /* 00000000 */]
00000140  602A                     bra        +0x2C /* 0000016C */
label00000142:
00000142  3D6D E09E FFF0           move.w     [A6 - 0x10], [A5 - 0x1F62]
00000148  7E01                     moveq.l    D7, 0x01
0000014A  601A                     bra        +0x1C /* 00000166 */
label0000014C:
0000014C  3007                     move.w     D0, D7
0000014E  5340                     subq.w     D0, 1
00000150  41ED E0A0                lea.l      A0, [A5 - 0x1F60]
00000154  C1FC 0006                muls.w     D0, 0x6
00000158  4870 0000                pea.l      [A0 + D0.w]
0000015C  2F0E                     move.l     -[A7], A6
0000015E  4EBA FEA0                jsr        [PC - 0x160 /* 00000000 */]
00000162  5247                     addq.w     D7, 1
00000164  6906                     bvs        +0x8 /* 0000016C */
label00000166:
00000166  BE6E FFF0                cmp.w      D7, [A6 - 0x10]
0000016A  6FE0                     ble        -0x1E /* 0000014C */
label0000016C:
0000016C  A853                     syscall    ShowCursor
label0000016E:
0000016E  202E FFF6                move.l     D0, [A6 - 0xA]
00000172  B0AD ECE4                cmp.l      D0, [A5 - 0x131C]
00000176  6708                     beq        +0xA /* 00000180 */
00000178  486D ED82                pea.l      [A5 - 0x127E]
0000017C  4EBA 37F2                jsr        [PC + 0x37F2 /* 00003970 */]
label00000180:
00000180  486D ED82                pea.l      [A5 - 0x127E]
00000184  A92A                     syscall    ValidRect
label00000186:
00000186  102D E097                move.b     D0, [A5 - 0x1F69]
0000018A  6604                     bne        +0x6 /* 00000190 */
0000018C  426D E09E                clr.w      [A5 - 0x1F62]
label00000190:
00000190  2E1F                     move.l     D7, [A7]+
00000192  4E5E                     unlink     A6
00000194  4E75                     rts
export_2:
00000196  4E56 0000                link       A6, 0
0000019A  4EBA 23AC                jsr        [PC + 0x23AC /* 00002548 */]
0000019E  2F2D ECE4                move.l     -[A7], [A5 - 0x131C]
000001A2  2F2D ECD8                move.l     -[A7], [A5 - 0x1328]
000001A6  2F3C 0000 5580           move.l     -[A7], 0x5580
000001AC  4EBA 44F8                jsr        [PC + 0x44F8 /* 000046A6 */]
000001B0  4E5E                     unlink     A6
000001B2  4E75                     rts
fn000001B4:
000001B4  4E56 0000                link       A6, 0
000001B8  2F0C                     move.l     -[A7], A4
000001BA  286E 0008                movea.l    A4, [A6 + 0x8]
000001BE  536D FDD8                subq.w     [A5 - 0x228], 1
000001C2  202D F4E0                move.l     D0, [A5 - 0xB20]
000001C6  B0AC FFCE                cmp.l      D0, [A4 - 0x32]
000001CA  6624                     bne        +0x26 /* 000001F0 */
000001CC  41ED E0E8                lea.l      A0, [A5 - 0x1F18]
000001D0  43FA 002A                lea.l      A1, [PC + 0x2A /* 000001FC, value 0xE6D6F75, pstring "mouseStillDown" */]
000001D4  20D9                     move.l     [A0]+, [A1]+
000001D6  20D9                     move.l     [A0]+, [A1]+
000001D8  20D9                     move.l     [A0]+, [A1]+
000001DA  20D9                     move.l     [A0]+, [A1]+
000001DC  2F2C FFDA                move.l     -[A7], [A4 - 0x26]
000001E0  3F2C FFE0                move.w     -[A7], [A4 - 0x20]
000001E4  2F2C FFD6                move.l     -[A7], [A4 - 0x2A]
000001E8  2F2C FFD2                move.l     -[A7], [A4 - 0x2E]
000001EC  4EAD 0B9A                jsr        [A5 + 0xB9A /* export_367, CODE:8 @ 00004010 */]
label000001F0:
000001F0  526D FDD8                addq.w     [A5 - 0x228], 1
000001F4  285F                     movea.l    A4, [A7]+
000001F6  4E5E                     unlink     A6
000001F8  2E9F                     move.l     [A7], [A7]+
000001FA  4E75                     rts
000001FC  0E6D 6F75 7365           .invalid.w [A5 + 0x7365], 0x6F75 /* 'ou' */ // invalid immediate operation
00000202  5374 696C                subq.w     <<invalid full ext with I/IS == 4>>, 1
00000206  6C44                     bge        +0x46 /* 0000024C */
00000208  6F77                     ble        +0x79 /* 00000281 */
0000020A  6E00 4E56                bgt        +0x4E58 /* 00005062 */
// begin alternate branch 0000020C-00000212
fn0000020C:
0000020C  4E56 0000                link       A6, 0
00000210  2F0C                     move.l     -[A7], A4
// end alternate branch 0000020C-00000212
fn0000020C: // (misaligned)
0000020E  0000 2F0C                ori.b      D0, 0xC
00000212  286E 0008                movea.l    A4, [A6 + 0x8]
00000216  202D F4E0                move.l     D0, [A5 - 0xB20]
0000021A  B0AC FFCE                cmp.l      D0, [A4 - 0x32]
0000021E  6620                     bne        +0x22 /* 00000240 */
00000220  41ED E0E8                lea.l      A0, [A5 - 0x1F18]
00000224  43FA 0022                lea.l      A1, [PC + 0x22 /* 00000248, value 0x76D6F75, pstring "mouseUp" */]
00000228  20D9                     move.l     [A0]+, [A1]+
0000022A  20D9                     move.l     [A0]+, [A1]+
0000022C  2F2C FFDA                move.l     -[A7], [A4 - 0x26]
00000230  3F2C FFE0                move.w     -[A7], [A4 - 0x20]
00000234  2F2C FFD6                move.l     -[A7], [A4 - 0x2A]
00000238  2F2C FFD2                move.l     -[A7], [A4 - 0x2E]
0000023C  4EAD 0B9A                jsr        [A5 + 0xB9A /* export_367, CODE:8 @ 00004010 */]
label00000240:
00000240  285F                     movea.l    A4, [A7]+
00000242  4E5E                     unlink     A6
00000244  2E9F                     move.l     [A7], [A7]+
00000246  4E75                     rts
00000248  076D 6F75                bchg       [A5 + 0x6F75], D3
label0000024C:
0000024C  7365                     moveq.l    D1, 0x65
0000024E  5570 4E56                subq.w     [A0 + D4 * 8 + 0x56], 2
// begin alternate branch 00000250-00000256
fn00000250:
00000250  4E56 0000                link       A6, 0
00000254  2F0C                     move.l     -[A7], A4
// end alternate branch 00000250-00000256
fn00000250: // (misaligned)
00000252  0000 2F0C                ori.b      D0, 0xC
00000256  286E 0008                movea.l    A4, [A6 + 0x8]
0000025A  4267                     clr.w      -[A7]
0000025C  2F2C FFDA                move.l     -[A7], [A4 - 0x26]
00000260  3F2C FFE0                move.w     -[A7], [A4 - 0x20]
00000264  486C FFAE                pea.l      [A4 - 0x52]
00000268  4EAD 1DB2                jsr        [A5 + 0x1DB2 /* export_946, CODE:18 @ 00000D08 */]
0000026C  101F                     move.b     D0, [A7]+
0000026E  6734                     beq        +0x36 /* 000002A4 */
00000270  7000                     moveq.l    D0, 0x00
00000272  302C FFBC                move.w     D0, [A4 - 0x44]
00000276  223C 0000 4000           move.l     D1, 0x4000 /* '@\0' */
0000027C  B380                     xor.l      D0, D1
0000027E  3940 FFBC                move.w     [A4 - 0x44], D0
00000282  4267                     clr.w      -[A7]
00000284  2F2C FFDA                move.l     -[A7], [A4 - 0x26]
00000288  486C FFAE                pea.l      [A4 - 0x52]
0000028C  4EAD 1E6A                jsr        [A5 + 0x1E6A /* export_969, CODE:18 @ 00002E96 */]
00000290  101F                     move.b     D0, [A7]+
00000292  6710                     beq        +0x12 /* 000002A4 */
00000294  2F2C FFDA                move.l     -[A7], [A4 - 0x26]
00000298  3F2C FFE0                move.w     -[A7], [A4 - 0x20]
0000029C  1F2C FFCD                move.b     -[A7], [A4 - 0x33]
000002A0  4EAD 22C2                jsr        [A5 + 0x22C2 /* export_1108, CODE:20 @ 00005FC0 */]
label000002A4:
000002A4  285F                     movea.l    A4, [A7]+
000002A6  4E5E                     unlink     A6
000002A8  2E9F                     move.l     [A7], [A7]+
000002AA  4E75                     rts
fn000002AC:
000002AC  4E56 0000                link       A6, 0
000002B0  2F0C                     move.l     -[A7], A4
000002B2  286E 0008                movea.l    A4, [A6 + 0x8]
000002B6  4267                     clr.w      -[A7]
000002B8  2F2C FFDA                move.l     -[A7], [A4 - 0x26]
000002BC  3F2C FFE0                move.w     -[A7], [A4 - 0x20]
000002C0  486C FFAE                pea.l      [A4 - 0x52]
000002C4  4EAD 1DB2                jsr        [A5 + 0x1DB2 /* export_946, CODE:18 @ 00000D08 */]
000002C8  101F                     move.b     D0, [A7]+
000002CA  674A                     beq        +0x4C /* 00000316 */
000002CC  102E 000C                move.b     D0, [A6 + 0xC]
000002D0  6712                     beq        +0x14 /* 000002E4 */
000002D2  7000                     moveq.l    D0, 0x00
000002D4  302C FFBC                move.w     D0, [A4 - 0x44]
000002D8  80BC 0000 4000           or.l       D0, 0x4000 /* '@\0' */
000002DE  3940 FFBC                move.w     [A4 - 0x44], D0
000002E2  6010                     bra        +0x12 /* 000002F4 */
label000002E4:
000002E4  7000                     moveq.l    D0, 0x00
000002E6  302C FFBC                move.w     D0, [A4 - 0x44]
000002EA  C0BC FFFF BFFF           and.l      D0, 0xFFFFBFFF
000002F0  3940 FFBC                move.w     [A4 - 0x44], D0
label000002F4:
000002F4  4267                     clr.w      -[A7]
000002F6  2F2C FFDA                move.l     -[A7], [A4 - 0x26]
000002FA  486C FFAE                pea.l      [A4 - 0x52]
000002FE  4EAD 1E6A                jsr        [A5 + 0x1E6A /* export_969, CODE:18 @ 00002E96 */]
00000302  101F                     move.b     D0, [A7]+
00000304  6710                     beq        +0x12 /* 00000316 */
00000306  2F2C FFDA                move.l     -[A7], [A4 - 0x26]
0000030A  3F2C FFE0                move.w     -[A7], [A4 - 0x20]
0000030E  1F2C FFCD                move.b     -[A7], [A4 - 0x33]
00000312  4EAD 22C2                jsr        [A5 + 0x22C2 /* export_1108, CODE:20 @ 00005FC0 */]
label00000316:
00000316  285F                     movea.l    A4, [A7]+
00000318  4E5E                     unlink     A6
0000031A  205F                     movea.l    A0, [A7]+
0000031C  5C4F                     addq.w     A7, 6
0000031E  4ED0                     jmp        [A0]
fn00000320:
00000320  4E56 FFF8                link       A6, -0x0008
00000324  48E7 0F08                movem.l    -[A7], D4,D5,D6,D7,A4
00000328  286E 0008                movea.l    A4, [A6 + 0x8]
0000032C  202C FFDA                move.l     D0, [A4 - 0x26]
00000330  B0AD F62A                cmp.l      D0, [A5 - 0x9D6]
00000334  6606                     bne        +0x8 /* 0000033C */
00000336  1B7C 0001 EFEF           move.b     [A5 - 0x1011], 0x1
label0000033C:
0000033C  7000                     moveq.l    D0, 0x00
0000033E  302C FFEC                move.w     D0, [A4 - 0x14]
00000342  C0BC 0000 2000           and.l      D0, 0x2000 /* ' \0' */
00000348  4A80                     tst.l      D0
0000034A  56C6                     sne        D6
0000034C  4406                     neg.b      D6
0000034E  7000                     moveq.l    D0, 0x00
00000350  302C FFEC                move.w     D0, [A4 - 0x14]
00000354  C0BC 0000 000F           and.l      D0, 0xF
0000035A  3800                     move.w     D4, D0
0000035C  7005                     moveq.l    D0, 0x05
0000035E  B044                     cmp.w      D0, D4
00000360  57C0                     seq        D0
00000362  7206                     moveq.l    D1, 0x06
00000364  B244                     cmp.w      D1, D4
00000366  57C1                     seq        D1
00000368  8001                     or.b       D0, D1
0000036A  4400                     neg.b      D0
0000036C  1A00                     move.b     D5, D0
0000036E  7000                     moveq.l    D0, 0x00
00000370  302C FFEC                move.w     D0, [A4 - 0x14]
00000374  C0BC 0000 000F           and.l      D0, 0xF
0000037A  4A80                     tst.l      D0
0000037C  56C0                     sne        D0
0000037E  222C FFEE                move.l     D1, [A4 - 0x12]
00000382  4A41                     tst.w      D1
00000384  56C1                     sne        D1
00000386  8001                     or.b       D0, D1
00000388  4400                     neg.b      D0
0000038A  1940 FFCD                move.b     [A4 - 0x33], D0
0000038E  7E01                     moveq.l    D7, 0x01
00000390  1D7C 0001 FFFE           move.b     [A6 - 0x2], 0x1
00000396  1006                     move.b     D0, D6
00000398  671A                     beq        +0x1C /* 000003B4 */
0000039A  1005                     move.b     D0, D5
0000039C  670A                     beq        +0xC /* 000003A8 */
0000039E  2F2E 0008                move.l     -[A7], [A6 + 0x8]
000003A2  4EBA FEAC                jsr        [PC - 0x154 /* 00000250 */]
000003A6  600C                     bra        +0xE /* 000003B4 */
label000003A8:
000003A8  1F3C 0001                move.b     -[A7], 0x1
000003AC  2F2E 0008                move.l     -[A7], [A6 + 0x8]
000003B0  4EBA FEFA                jsr        [PC - 0x106 /* 000002AC */]
label000003B4:
000003B4  41ED E0E8                lea.l      A0, [A5 - 0x1F18]
000003B8  43FA 00CE                lea.l      A1, [PC + 0xCE /* 00000488, value 0x96D6F75 '\tmou', pstring "mouseDown" */]
000003BC  20D9                     move.l     [A0]+, [A1]+
000003BE  20D9                     move.l     [A0]+, [A1]+
000003C0  3091                     move.w     [A0], [A1]
000003C2  2F2C FFDA                move.l     -[A7], [A4 - 0x26]
000003C6  3F2C FFE0                move.w     -[A7], [A4 - 0x20]
000003CA  2F2C FFD6                move.l     -[A7], [A4 - 0x2A]
000003CE  2F2C FFD2                move.l     -[A7], [A4 - 0x2E]
000003D2  4EAD 0B9A                jsr        [A5 + 0xB9A /* export_367, CODE:8 @ 00004010 */]
000003D6  536D FDD8                subq.w     [A5 - 0x228], 1
label000003DA:
000003DA  4267                     clr.w      -[A7]
000003DC  4EAD 210A                jsr        [A5 + 0x210A /* export_1053, CODE:20 @ 000016F6 */]
000003E0  101F                     move.b     D0, [A7]+
000003E2  6760                     beq        +0x62 /* 00000444 */
000003E4  202D F4E0                move.l     D0, [A5 - 0xB20]
000003E8  B0AC FFCE                cmp.l      D0, [A4 - 0x32]
000003EC  6654                     bne        +0x56 /* 00000442 */
000003EE  2F2E 0008                move.l     -[A7], [A6 + 0x8]
000003F2  4EBA FDC0                jsr        [PC - 0x240 /* 000001B4 */]
000003F6  486C FFFC                pea.l      [A4 - 0x4]
000003FA  4EAD 20DA                jsr        [A5 + 0x20DA /* export_1047, CODE:20 @ 0000147C */]
000003FE  4267                     clr.w      -[A7]
00000400  2F2C FFDA                move.l     -[A7], [A4 - 0x26]
00000404  3F2C FFE0                move.w     -[A7], [A4 - 0x20]
00000408  486C FFAE                pea.l      [A4 - 0x52]
0000040C  4EAD 1DB2                jsr        [A5 + 0x1DB2 /* export_946, CODE:18 @ 00000D08 */]
00000410  101F                     move.b     D0, [A7]+
00000412  6714                     beq        +0x16 /* 00000428 */
00000414  2F00                     move.l     -[A7], D0
00000416  4267                     clr.w      -[A7]
00000418  2F2C FFFC                move.l     -[A7], [A4 - 0x4]
0000041C  486C FFB4                pea.l      [A4 - 0x4C]
00000420  A8AD                     syscall    PtInRect
00000422  121F                     move.b     D1, [A7]+
00000424  201F                     move.l     D0, [A7]+
00000426  C001                     and.b      D0, D1
label00000428:
00000428  1E00                     move.b     D7, D0
0000042A  BE2E FFFE                cmp.b      D7, [A6 - 0x2]
0000042E  56C0                     sne        D0
00000430  2206                     move.l     D1, D6
00000432  C200                     and.b      D1, D0
00000434  6708                     beq        +0xA /* 0000043E */
00000436  2F2E 0008                move.l     -[A7], [A6 + 0x8]
0000043A  4EBA FE14                jsr        [PC - 0x1EC /* 00000250 */]
label0000043E:
0000043E  1D47 FFFE                move.b     [A6 - 0x2], D7
label00000442:
00000442  6096                     bra        -0x68 /* 000003DA */
label00000444:
00000444  526D FDD8                addq.w     [A5 - 0x228], 1
00000448  2F3C 0002 0004           move.l     -[A7], 0x20004
0000044E  201F                     move.l     D0, [A7]+
00000450  A032                     syscall    FlushEvents
00000452  202D F4E0                move.l     D0, [A5 - 0xB20]
00000456  B0AC FFCE                cmp.l      D0, [A4 - 0x32]
0000045A  6622                     bne        +0x24 /* 0000047E */
0000045C  1005                     move.b     D0, D5
0000045E  0A00 0001                xori.b     D0, 0x1
00000462  2206                     move.l     D1, D6
00000464  C200                     and.b      D1, D0
00000466  670A                     beq        +0xC /* 00000472 */
00000468  4267                     clr.w      -[A7]
0000046A  2F2E 0008                move.l     -[A7], [A6 + 0x8]
0000046E  4EBA FE3C                jsr        [PC - 0x1C4 /* 000002AC */]
label00000472:
00000472  1007                     move.b     D0, D7
00000474  6708                     beq        +0xA /* 0000047E */
00000476  2F2E 0008                move.l     -[A7], [A6 + 0x8]
0000047A  4EBA FD90                jsr        [PC - 0x270 /* 0000020C */]
label0000047E:
0000047E  4CDF 10F0                movem.l    D4,D5,D6,D7,A4, [A7]+
00000482  4E5E                     unlink     A6
00000484  2E9F                     move.l     [A7], [A7]+
00000486  4E75                     rts
00000488  096D 6F75                bchg       [A5 + 0x6F75], D4
0000048C  7365                     moveq.l    D1, 0x65
0000048E  446F 776E                neg.w      [A7 + 0x776E]
fn00000492:
00000492  4E56 FCD4                link       A6, -0x032C
00000496  48E7 1F18                movem.l    -[A7], D3,D4,D5,D6,D7,A3,A4
0000049A  266E 0008                movea.l    A3, [A6 + 0x8]
0000049E  4EBA 20A8                jsr        [PC + 0x20A8 /* 00002548 */]
000004A2  2F2B FFDA                move.l     -[A7], [A3 - 0x26]
000004A6  3F2B FFE0                move.w     -[A7], [A3 - 0x20]
000004AA  4267                     clr.w      -[A7]
000004AC  4EAD 212A                jsr        [A5 + 0x212A /* export_1057, CODE:20 @ 00001A5A */]
000004B0  206D E246                movea.l    A0, [A5 - 0x1DBA]
000004B4  2850                     movea.l    A4, [A0]
000004B6  41EE FED8                lea.l      A0, [A6 - 0x128]
000004BA  224C                     movea.l    A1, A4
000004BC  20D9                     move.l     [A0]+, [A1]+
000004BE  20D9                     move.l     [A0]+, [A1]+
000004C0  302D F022                move.w     D0, [A5 - 0xFDE]
000004C4  906E FED8                sub.w      D0, [A6 - 0x128]
000004C8  48C0                     ext.l      D0
000004CA  81EC 0018                divs.w     D0, [A4 + 0x18]
000004CE  3D40 FFFE                move.w     [A6 - 0x2], D0
000004D2  B06C 005E                cmp.w      D0, [A4 + 0x5E]
000004D6  6C00 0302                bge        +0x304 /* 000007DA */
000004DA  302E FFFE                move.w     D0, [A6 - 0x2]
000004DE  D040                     add.w      D0, D0
000004E0  3D74 0060 FFFC           move.w     [A6 - 0x4], [A4 + D0.w + 0x60]
000004E6  302E FFFE                move.w     D0, [A6 - 0x2]
000004EA  5240                     addq.w     D0, 1
000004EC  D040                     add.w      D0, D0
000004EE  3E34 0060                move.w     D7, [A4 + D0.w + 0x60]
000004F2  9E6E FFFC                sub.w      D7, [A6 - 0x4]
000004F6  0C47 00FF                cmpi.w     D7, 0xFF
000004FA  6F04                     ble        +0x6 /* 00000500 */
000004FC  3E3C 00FF                move.w     D7, 0xFF
label00000500:
00000500  206C 003E                movea.l    A0, [A4 + 0x3E]
00000504  302E FFFC                move.w     D0, [A6 - 0x4]
00000508  48C0                     ext.l      D0
0000050A  D090                     add.l      D0, [A0]
0000050C  2F00                     move.l     -[A7], D0
0000050E  41EE FEFC                lea.l      A0, [A6 - 0x104]
00000512  2008                     move.l     D0, A0
00000514  5280                     addq.l     D0, 1
00000516  2F00                     move.l     -[A7], D0
00000518  3007                     move.w     D0, D7
0000051A  48C0                     ext.l      D0
0000051C  2F00                     move.l     -[A7], D0
0000051E  4EAD 19B2                jsr        [A5 + 0x19B2 /* export_818, CODE:16 @ 000010BE */]
label00000522:
00000522  4A47                     tst.w      D7
00000524  5EC0                     sgt        D0
00000526  4241                     clr.w      D1
00000528  41EE FEFC                lea.l      A0, [A6 - 0x104]
0000052C  1230 7000                move.b     D1, [A0 + D7.w]
00000530  740D                     moveq.l    D2, 0x0D
00000532  B441                     cmp.w      D2, D1
00000534  57C1                     seq        D1
00000536  4242                     clr.w      D2
00000538  1430 7000                move.b     D2, [A0 + D7.w]
0000053C  7620                     moveq.l    D3, 0x20
0000053E  B642                     cmp.w      D3, D2
00000540  57C2                     seq        D2
00000542  8202                     or.b       D1, D2
00000544  C001                     and.b      D0, D1
00000546  6704                     beq        +0x6 /* 0000054C */
00000548  5347                     subq.w     D7, 1
0000054A  60D6                     bra        -0x28 /* 00000522 */
label0000054C:
0000054C  1D47 FEFC                move.b     [A6 - 0x104], D7
00000550  302C 0018                move.w     D0, [A4 + 0x18]
00000554  C1EE FFFE                muls.w     D0, [A6 - 0x2]
00000558  D06E FED8                add.w      D0, [A6 - 0x128]
0000055C  3D40 FEE0                move.w     [A6 - 0x120], D0
00000560  302C 0018                move.w     D0, [A4 + 0x18]
00000564  D06E FEE0                add.w      D0, [A6 - 0x120]
00000568  3D40 FEE4                move.w     [A6 - 0x11C], D0
0000056C  426E FEE2                clr.w      [A6 - 0x11E]
00000570  426E FEE6                clr.w      [A6 - 0x11A]
00000574  2F2D EDC8                move.l     -[A7], [A5 - 0x1238]
00000578  A873                     syscall    SetPort
0000057A  3F2B FFF4                move.w     -[A7], [A3 - 0xC]
0000057E  A887                     syscall    TextFont
00000580  3F2B FFF6                move.w     -[A7], [A3 - 0xA]
00000584  A88A                     syscall    TextSize
00000586  4240                     clr.w      D0
00000588  102B FFF8                move.b     D0, [A3 - 0x8]
0000058C  3F00                     move.w     -[A7], D0
0000058E  A888                     syscall    TextFace
00000590  4267                     clr.w      -[A7]
00000592  486E FEFC                pea.l      [A6 - 0x104]
00000596  A88C                     syscall    StringWidth
00000598  3D5F FEE8                move.w     [A6 - 0x118], [A7]+
0000059C  302B FFF2                move.w     D0, [A3 - 0xE]
000005A0  5240                     addq.w     D0, 1
000005A2  673A                     beq        +0x3C /* 000005DE */
000005A4  5340                     subq.w     D0, 1
000005A6  6706                     beq        +0x8 /* 000005AE */
000005A8  5340                     subq.w     D0, 1
000005AA  6712                     beq        +0x14 /* 000005BE */
000005AC  603E                     bra        +0x40 /* 000005EC */
label000005AE:
000005AE  3C2E FEDA                move.w     D6, [A6 - 0x126]
000005B2  302E FEE8                move.w     D0, [A6 - 0x118]
000005B6  D046                     add.w      D0, D6
000005B8  3D40 FEEC                move.w     [A6 - 0x114], D0
000005BC  602E                     bra        +0x30 /* 000005EC */
label000005BE:
000005BE  302E FEDE                move.w     D0, [A6 - 0x122]
000005C2  D06E FEDA                add.w      D0, [A6 - 0x126]
000005C6  906E FEE8                sub.w      D0, [A6 - 0x118]
000005CA  48C0                     ext.l      D0
000005CC  81FC 0002                divs.w     D0, 0x2
000005D0  3C00                     move.w     D6, D0
000005D2  302E FEE8                move.w     D0, [A6 - 0x118]
000005D6  D046                     add.w      D0, D6
000005D8  3D40 FEEC                move.w     [A6 - 0x114], D0
000005DC  600E                     bra        +0x10 /* 000005EC */
label000005DE:
000005DE  3D6E FEDE FEEC           move.w     [A6 - 0x114], [A6 - 0x122]
000005E4  3C2E FEEC                move.w     D6, [A6 - 0x114]
000005E8  9C6E FEE8                sub.w      D6, [A6 - 0x118]
label000005EC:
000005EC  3006                     move.w     D0, D6
000005EE  907C 000A                sub.w      D0, 0xA /* '\n' */
000005F2  B06D F024                cmp.w      D0, [A5 - 0xFDC]
000005F6  5EC0                     sgt        D0
000005F8  322D F024                move.w     D1, [A5 - 0xFDC]
000005FC  B26E FEEC                cmp.w      D1, [A6 - 0x114]
00000600  5EC1                     sgt        D1
00000602  8001                     or.b       D0, D1
00000604  6600 01D4                bne        +0x1D6 /* 000007DA */
00000608  4267                     clr.w      -[A7]
0000060A  486E FEFC                pea.l      [A6 - 0x104]
0000060E  302D F024                move.w     D0, [A5 - 0xFDC]
00000612  9046                     sub.w      D0, D6
00000614  3F00                     move.w     -[A7], D0
00000616  4EBA 2BCC                jsr        [PC + 0x2BCC /* 000031E4 */]
0000061A  3D5F FEF6                move.w     [A6 - 0x10A], [A7]+
0000061E  426E FEEE                clr.w      [A6 - 0x112]
label00000622:
00000622  486B FFFC                pea.l      [A3 - 0x4]
00000626  4EAD 20DA                jsr        [A5 + 0x20DA /* export_1047, CODE:20 @ 0000147C */]
0000062A  4267                     clr.w      -[A7]
0000062C  486E FEFC                pea.l      [A6 - 0x104]
00000630  302B FFFE                move.w     D0, [A3 - 0x2]
00000634  9046                     sub.w      D0, D6
00000636  3F00                     move.w     -[A7], D0
00000638  4EBA 2BAA                jsr        [PC + 0x2BAA /* 000031E4 */]
0000063C  3D5F FEF8                move.w     [A6 - 0x108], [A7]+
00000640  4267                     clr.w      -[A7]
00000642  3F2E FEF6                move.w     -[A7], [A6 - 0x10A]
00000646  3F2E FEF8                move.w     -[A7], [A6 - 0x108]
0000064A  4EAD 18C2                jsr        [A5 + 0x18C2 /* export_788, CODE:16 @ 000007E6 */]
0000064E  3A1F                     move.w     D5, [A7]+
00000650  4267                     clr.w      -[A7]
00000652  3F2E FEF6                move.w     -[A7], [A6 - 0x10A]
00000656  3F2E FEF8                move.w     -[A7], [A6 - 0x108]
0000065A  4EAD 18BA                jsr        [A5 + 0x18BA /* export_787, CODE:16 @ 000007C6 */]
0000065E  381F                     move.w     D4, [A7]+
00000660  4267                     clr.w      -[A7]
00000662  486E FEFC                pea.l      [A6 - 0x104]
00000666  3F05                     move.w     -[A7], D5
00000668  4EAD 19E2                jsr        [A5 + 0x19E2 /* export_824, CODE:16 @ 00001232 */]
0000066C  101F                     move.b     D0, [A7]+
0000066E  6628                     bne        +0x2A /* 00000698 */
label00000670:
00000670  7001                     moveq.l    D0, 0x01
00000672  B045                     cmp.w      D0, D5
00000674  5DC0                     slt        D0
00000676  2F00                     move.l     -[A7], D0
00000678  4267                     clr.w      -[A7]
0000067A  486E FEFC                pea.l      [A6 - 0x104]
0000067E  3205                     move.w     D1, D5
00000680  5341                     subq.w     D1, 1
00000682  3F01                     move.w     -[A7], D1
00000684  4EAD 19E2                jsr        [A5 + 0x19E2 /* export_824, CODE:16 @ 00001232 */]
00000688  121F                     move.b     D1, [A7]+
0000068A  201F                     move.l     D0, [A7]+
0000068C  0A01 0001                xori.b     D1, 0x1
00000690  C001                     and.b      D0, D1
00000692  6704                     beq        +0x6 /* 00000698 */
00000694  5345                     subq.w     D5, 1
00000696  60D8                     bra        -0x26 /* 00000670 */
label00000698:
00000698  4267                     clr.w      -[A7]
0000069A  486E FEFC                pea.l      [A6 - 0x104]
0000069E  3F04                     move.w     -[A7], D4
000006A0  4EAD 19E2                jsr        [A5 + 0x19E2 /* export_824, CODE:16 @ 00001232 */]
000006A4  101F                     move.b     D0, [A7]+
000006A6  6626                     bne        +0x28 /* 000006CE */
label000006A8:
000006A8  BE44                     cmp.w      D7, D4
000006AA  5EC0                     sgt        D0
000006AC  2F00                     move.l     -[A7], D0
000006AE  4267                     clr.w      -[A7]
000006B0  486E FEFC                pea.l      [A6 - 0x104]
000006B4  3204                     move.w     D1, D4
000006B6  5241                     addq.w     D1, 1
000006B8  3F01                     move.w     -[A7], D1
000006BA  4EAD 19E2                jsr        [A5 + 0x19E2 /* export_824, CODE:16 @ 00001232 */]
000006BE  121F                     move.b     D1, [A7]+
000006C0  201F                     move.l     D0, [A7]+
000006C2  0A01 0001                xori.b     D1, 0x1
000006C6  C001                     and.b      D0, D1
000006C8  6704                     beq        +0x6 /* 000006CE */
000006CA  5244                     addq.w     D4, 1
000006CC  60DA                     bra        -0x24 /* 000006A8 */
label000006CE:
000006CE  3004                     move.w     D0, D4
000006D0  9045                     sub.w      D0, D5
000006D2  5240                     addq.w     D0, 1
000006D4  3D40 FEF0                move.w     [A6 - 0x110], D0
000006D8  B06E FEEE                cmp.w      D0, [A6 - 0x112]
000006DC  6700 00DC                beq        +0xDE /* 000007BA */
000006E0  A89E                     syscall    PenNormal
000006E2  3F3C 000A                move.w     -[A7], 0xA /* '\n' */
000006E6  A89C                     syscall    PenMode
000006E8  486E FEE0                pea.l      [A6 - 0x120]
000006EC  A8A1                     syscall    FrameRect
000006EE  4267                     clr.w      -[A7]
000006F0  486E FEFC                pea.l      [A6 - 0x104]
000006F4  3F3C 0001                move.w     -[A7], 0x1
000006F8  3005                     move.w     D0, D5
000006FA  5340                     subq.w     D0, 1
000006FC  3F00                     move.w     -[A7], D0
000006FE  A886                     syscall    TextWidth
00000700  301F                     move.w     D0, [A7]+
00000702  D046                     add.w      D0, D6
00000704  5340                     subq.w     D0, 1
00000706  3D40 FEE2                move.w     [A6 - 0x11E], D0
0000070A  4267                     clr.w      -[A7]
0000070C  486E FEFC                pea.l      [A6 - 0x104]
00000710  3F3C 0001                move.w     -[A7], 0x1
00000714  3F04                     move.w     -[A7], D4
00000716  A886                     syscall    TextWidth
00000718  301F                     move.w     D0, [A7]+
0000071A  D046                     add.w      D0, D6
0000071C  5440                     addq.w     D0, 2
0000071E  3D40 FEE6                move.w     [A6 - 0x11A], D0
00000722  486E FEE0                pea.l      [A6 - 0x120]
00000726  A8A1                     syscall    FrameRect
00000728  486E FEFC                pea.l      [A6 - 0x104]
0000072C  3F05                     move.w     -[A7], D5
0000072E  3F2E FEF0                move.w     -[A7], [A6 - 0x110]
00000732  486E FCD4                pea.l      [A6 - 0x32C]
00000736  4EBA 4C40                jsr        [PC + 0x4C40 /* 00005378 */]
0000073A  41EE FDD8                lea.l      A0, [A6 - 0x228]
0000073E  43EE FCD4                lea.l      A1, [A6 - 0x32C]
00000742  703F                     moveq.l    D0, 0x3F
label00000744:
00000744  20D9                     move.l     [A0]+, [A1]+
00000746  51C8 FFFC                dbf        D0, -0x6 /* 00000744 */
0000074A  102B FFCC                move.b     D0, [A3 - 0x34]
0000074E  675C                     beq        +0x5E /* 000007AC */
00000750  206D EDAC                movea.l    A0, [A5 - 0x1254]
00000754  2050                     movea.l    A0, [A0]
00000756  3028 0020                move.w     D0, [A0 + 0x20]
0000075A  48C0                     ext.l      D0
0000075C  2D40 FDD4                move.l     [A6 - 0x22C], D0
00000760  2F2D EDAC                move.l     -[A7], [A5 - 0x1254]
00000764  A9D7                     syscall    TEDelete
00000766  41EE FDD8                lea.l      A0, [A6 - 0x228]
0000076A  2008                     move.l     D0, A0
0000076C  5280                     addq.l     D0, 1
0000076E  2F00                     move.l     -[A7], D0
00000770  4240                     clr.w      D0
00000772  102E FDD8                move.b     D0, [A6 - 0x228]
00000776  48C0                     ext.l      D0
00000778  2F00                     move.l     -[A7], D0
0000077A  2F2D EDAC                move.l     -[A7], [A5 - 0x1254]
0000077E  A9DE                     syscall    TEInsert
00000780  2F2E FDD4                move.l     -[A7], [A6 - 0x22C]
00000784  4240                     clr.w      D0
00000786  102E FDD8                move.b     D0, [A6 - 0x228]
0000078A  48C0                     ext.l      D0
0000078C  D0AE FDD4                add.l      D0, [A6 - 0x22C]
00000790  2F00                     move.l     -[A7], D0
00000792  2F2D EDAC                move.l     -[A7], [A5 - 0x1254]
00000796  A9D1                     syscall    TESetSelect
00000798  206D ED9A                movea.l    A0, [A5 - 0x1266]
0000079C  1028 006E                move.b     D0, [A0 + 0x6E]
000007A0  6608                     bne        +0xA /* 000007AA */
000007A2  2F2D EDB8                move.l     -[A7], [A5 - 0x1248]
000007A6  4EAD 227A                jsr        [A5 + 0x227A /* export_1099, CODE:20 @ 000053BE */]
label000007AA:
000007AA  6008                     bra        +0xA /* 000007B4 */
label000007AC:
000007AC  486E FDD8                pea.l      [A6 - 0x228]
000007B0  4EAD 217A                jsr        [A5 + 0x217A /* export_1067, CODE:20 @ 000038A2 */]
label000007B4:
000007B4  3D6E FEF0 FEEE           move.w     [A6 - 0x112], [A6 - 0x110]
label000007BA:
000007BA  2F2E 0008                move.l     -[A7], [A6 + 0x8]
000007BE  4EBA F9F4                jsr        [PC - 0x60C /* 000001B4 */]
000007C2  4267                     clr.w      -[A7]
000007C4  4EAD 210A                jsr        [A5 + 0x210A /* export_1053, CODE:20 @ 000016F6 */]
000007C8  101F                     move.b     D0, [A7]+
000007CA  0A00 0001                xori.b     D0, 0x1
000007CE  6700 FE52                beq        -0x1AC /* 00000622 */
000007D2  486E FEE0                pea.l      [A6 - 0x120]
000007D6  A8A1                     syscall    FrameRect
000007D8  A89E                     syscall    PenNormal
label000007DA:
000007DA  4267                     clr.w      -[A7]
000007DC  4EAD 1602                jsr        [A5 + 0x1602 /* export_700, CODE:15 @ 0000114C */]
000007E0  4EAD 2262                jsr        [A5 + 0x2262 /* export_1096, CODE:20 @ 0000535A */]
000007E4  4CDF 18F8                movem.l    D3,D4,D5,D6,D7,A3,A4, [A7]+
000007E8  4E5E                     unlink     A6
000007EA  2E9F                     move.l     [A7], [A7]+
000007EC  4E75                     rts
fn000007EE:
000007EE  4E56 0000                link       A6, 0
000007F2  2F0C                     move.l     -[A7], A4
000007F4  286E 0008                movea.l    A4, [A6 + 0x8]
000007F8  196D EDAB FFCC           move.b     [A4 - 0x34], [A5 - 0x1255]
000007FE  41ED E0E8                lea.l      A0, [A5 - 0x1F18]
00000802  43FA 0096                lea.l      A1, [PC + 0x96 /* 0000089A, value 0x96D6F75 '\tmou', pstring "mouseDown" */]
00000806  20D9                     move.l     [A0]+, [A1]+
00000808  20D9                     move.l     [A0]+, [A1]+
0000080A  3091                     move.w     [A0], [A1]
0000080C  2F2C FFDA                move.l     -[A7], [A4 - 0x26]
00000810  3F2C FFE0                move.w     -[A7], [A4 - 0x20]
00000814  2F2C FFD6                move.l     -[A7], [A4 - 0x2A]
00000818  2F2C FFD2                move.l     -[A7], [A4 - 0x2E]
0000081C  4EAD 0B9A                jsr        [A5 + 0xB9A /* export_367, CODE:8 @ 00004010 */]
00000820  102D F004                move.b     D0, [A5 - 0xFFC]
00000824  670A                     beq        +0xC /* 00000830 */
00000826  2F2E 0008                move.l     -[A7], [A6 + 0x8]
0000082A  4EBA FC66                jsr        [PC - 0x39A /* 00000492 */]
0000082E  601C                     bra        +0x1E /* 0000084C */
label00000830:
00000830  4267                     clr.w      -[A7]
00000832  4EAD 210A                jsr        [A5 + 0x210A /* export_1053, CODE:20 @ 000016F6 */]
00000836  101F                     move.b     D0, [A7]+
00000838  6712                     beq        +0x14 /* 0000084C */
0000083A  486C FFFC                pea.l      [A4 - 0x4]
0000083E  4EAD 20DA                jsr        [A5 + 0x20DA /* export_1047, CODE:20 @ 0000147C */]
00000842  2F2E 0008                move.l     -[A7], [A6 + 0x8]
00000846  4EBA F96C                jsr        [PC - 0x694 /* 000001B4 */]
0000084A  60E4                     bra        -0x1A /* 00000830 */
label0000084C:
0000084C  2F3C 0002 0004           move.l     -[A7], 0x20004
00000852  201F                     move.l     D0, [A7]+
00000854  A032                     syscall    FlushEvents
00000856  486C FFFC                pea.l      [A4 - 0x4]
0000085A  4EAD 20DA                jsr        [A5 + 0x20DA /* export_1047, CODE:20 @ 0000147C */]
0000085E  4267                     clr.w      -[A7]
00000860  2F2C FFDA                move.l     -[A7], [A4 - 0x26]
00000864  3F2C FFE0                move.w     -[A7], [A4 - 0x20]
00000868  486C FFAE                pea.l      [A4 - 0x52]
0000086C  4EAD 1DB2                jsr        [A5 + 0x1DB2 /* export_946, CODE:18 @ 00000D08 */]
00000870  101F                     move.b     D0, [A7]+
00000872  671E                     beq        +0x20 /* 00000892 */
00000874  2F00                     move.l     -[A7], D0
00000876  4267                     clr.w      -[A7]
00000878  2F2C FFFC                move.l     -[A7], [A4 - 0x4]
0000087C  486C FFB4                pea.l      [A4 - 0x4C]
00000880  A8AD                     syscall    PtInRect
00000882  121F                     move.b     D1, [A7]+
00000884  201F                     move.l     D0, [A7]+
00000886  C001                     and.b      D0, D1
00000888  6708                     beq        +0xA /* 00000892 */
0000088A  2F2E 0008                move.l     -[A7], [A6 + 0x8]
0000088E  4EBA F97C                jsr        [PC - 0x684 /* 0000020C */]
label00000892:
00000892  285F                     movea.l    A4, [A7]+
00000894  4E5E                     unlink     A6
00000896  2E9F                     move.l     [A7], [A7]+
00000898  4E75                     rts
0000089A  096D 6F75                bchg       [A5 + 0x6F75], D4
0000089E  7365                     moveq.l    D1, 0x65
000008A0  446F 776E                neg.w      [A7 + 0x776E]
fn000008A4:
000008A4  4E56 FFAE                link       A6, -0x0052
000008A8  4267                     clr.w      -[A7]
000008AA  2F2D F022                move.l     -[A7], [A5 - 0xFDE]
000008AE  4267                     clr.w      -[A7]
000008B0  486E FFDA                pea.l      [A6 - 0x26]
000008B4  486E FFDE                pea.l      [A6 - 0x22]
000008B8  4EBA 0C7C                jsr        [PC + 0xC7C /* 00001536 */]
000008BC  101F                     move.b     D0, [A7]+
000008BE  6730                     beq        +0x32 /* 000008F0 */
000008C0  2D6D F62A FFD6           move.l     [A6 - 0x2A], [A5 - 0x9D6]
000008C6  2D6D F622 FFD2           move.l     [A6 - 0x2E], [A5 - 0x9DE]
000008CC  2D6D F4E0 FFCE           move.l     [A6 - 0x32], [A5 - 0xB20]
000008D2  7001                     moveq.l    D0, 0x01
000008D4  B02E FFE2                cmp.b      D0, [A6 - 0x1E]
000008D8  6606                     bne        +0x8 /* 000008E0 */
000008DA  2F0E                     move.l     -[A7], A6
000008DC  4EBA FA42                jsr        [PC - 0x5BE /* 00000320 */]
label000008E0:
000008E0  7002                     moveq.l    D0, 0x02
000008E2  B02E FFE2                cmp.b      D0, [A6 - 0x1E]
000008E6  6606                     bne        +0x8 /* 000008EE */
000008E8  2F0E                     move.l     -[A7], A6
000008EA  4EBA FF02                jsr        [PC - 0xFE /* 000007EE */]
label000008EE:
000008EE  6062                     bra        +0x64 /* 00000952 */
label000008F0:
000008F0  4EBA 1C56                jsr        [PC + 0x1C56 /* 00002548 */]
000008F4  41ED E0E8                lea.l      A0, [A5 - 0x1F18]
000008F8  43FA 0074                lea.l      A1, [PC + 0x74 /* 0000096E, value 0x96D6F75 '\tmou', pstring "mouseDown" */]
000008FC  20D9                     move.l     [A0]+, [A1]+
000008FE  20D9                     move.l     [A0]+, [A1]+
00000900  3091                     move.w     [A0], [A1]
00000902  4EAD 0B8A                jsr        [A5 + 0xB8A /* export_365, CODE:8 @ 00003F30 */]
00000906  536D FDD8                subq.w     [A5 - 0x228], 1
label0000090A:
0000090A  41ED E0E8                lea.l      A0, [A5 - 0x1F18]
0000090E  43FA 004E                lea.l      A1, [PC + 0x4E /* 0000095E, value 0xE6D6F75, pstring "mouseStillDown" */]
00000912  20D9                     move.l     [A0]+, [A1]+
00000914  20D9                     move.l     [A0]+, [A1]+
00000916  20D9                     move.l     [A0]+, [A1]+
00000918  20D9                     move.l     [A0]+, [A1]+
0000091A  4EAD 0B8A                jsr        [A5 + 0xB8A /* export_365, CODE:8 @ 00003F30 */]
0000091E  486E FFFC                pea.l      [A6 - 0x4]
00000922  4EAD 20DA                jsr        [A5 + 0x20DA /* export_1047, CODE:20 @ 0000147C */]
00000926  4267                     clr.w      -[A7]
00000928  4EAD 210A                jsr        [A5 + 0x210A /* export_1053, CODE:20 @ 000016F6 */]
0000092C  101F                     move.b     D0, [A7]+
0000092E  0A00 0001                xori.b     D0, 0x1
00000932  67D6                     beq        -0x28 /* 0000090A */
00000934  2F3C 0002 0004           move.l     -[A7], 0x20004
0000093A  201F                     move.l     D0, [A7]+
0000093C  A032                     syscall    FlushEvents
0000093E  526D FDD8                addq.w     [A5 - 0x228], 1
00000942  41ED E0E8                lea.l      A0, [A5 - 0x1F18]
00000946  43FA 000E                lea.l      A1, [PC + 0xE /* 00000956, value 0x76D6F75, pstring "mouseUp" */]
0000094A  20D9                     move.l     [A0]+, [A1]+
0000094C  20D9                     move.l     [A0]+, [A1]+
0000094E  4EAD 0B8A                jsr        [A5 + 0xB8A /* export_365, CODE:8 @ 00003F30 */]
label00000952:
00000952  4E5E                     unlink     A6
00000954  4E75                     rts
00000956  076D 6F75                bchg       [A5 + 0x6F75], D3
0000095A  7365                     moveq.l    D1, 0x65
0000095C  5570 0E6D                subq.w     [A0 + D0 * 8 + 0x6D], 2
00000960  6F75                     ble        +0x77 /* 000009D7 */
00000962  7365                     moveq.l    D1, 0x65
00000964  5374 696C                subq.w     <<invalid full ext with I/IS == 4>>, 1
00000968  6C44                     bge        +0x46 /* 000009AE */
0000096A  6F77                     ble        +0x79 /* 000009E3 */
0000096C  6E00 096D                bgt        +0x96F /* 000012DB */
00000970  6F75                     ble        +0x77 /* 000009E7 */
00000972  7365                     moveq.l    D1, 0x65
00000974  446F 776E                neg.w      [A7 + 0x776E]
export_3:
fn00000978:
00000978  4E56 0000                link       A6, 0
0000097C  4A6D E276                tst.w      [A5 - 0x1D8A]
00000980  56C0                     sne        D0
00000982  7202                     moveq.l    D1, 0x02
00000984  B22D E278                cmp.b      D1, [A5 - 0x1D88]
00000988  57C1                     seq        D1
0000098A  C001                     and.b      D0, D1
0000098C  6732                     beq        +0x34 /* 000009C0 */
0000098E  4267                     clr.w      -[A7]
00000990  486D E274                pea.l      [A5 - 0x1D8C]
00000994  4EAD 1792                jsr        [A5 + 0x1792 /* export_750, CODE:15 @ 00005DF0 */]
00000998  101F                     move.b     D0, [A7]+
0000099A  6722                     beq        +0x24 /* 000009BE */
0000099C  4267                     clr.w      -[A7]
0000099E  2F2D E270                move.l     -[A7], [A5 - 0x1D90]
000009A2  486D E274                pea.l      [A5 - 0x1D8C]
000009A6  4EAD 1E6A                jsr        [A5 + 0x1E6A /* export_969, CODE:18 @ 00002E96 */]
000009AA  101F                     move.b     D0, [A7]+
000009AC  6604                     bne        +0x6 /* 000009B2 */
label000009AE:
000009AE  4EAD 1812                jsr        [A5 + 0x1812 /* export_766, CODE:16 @ 00000208 */]
label000009B2:
000009B2  4EBA 2FA4                jsr        [PC + 0x2FA4 /* 00003958 */]
000009B6  3F2D E28A                move.w     -[A7], [A5 - 0x1D76]
000009BA  4EAD 21D2                jsr        [A5 + 0x21D2 /* export_1078, CODE:20 @ 00004516 */]
label000009BE:
000009BE  6026                     bra        +0x28 /* 000009E6 */
label000009C0:
000009C0  102D E245                move.b     D0, [A5 - 0x1DBB]
000009C4  671C                     beq        +0x1E /* 000009E2 */
000009C6  4267                     clr.w      -[A7]
000009C8  486D E252                pea.l      [A5 - 0x1DAE]
000009CC  4EAD 1792                jsr        [A5 + 0x1792 /* export_750, CODE:15 @ 00005DF0 */]
000009D0  101F                     move.b     D0, [A7]+
000009D2  6704                     beq        +0x6 /* 000009D8 */
000009D4  4EBA 2EF0                jsr        [PC + 0x2EF0 /* 000038C6 */]
label000009D8:
000009D8  3F2D E268                move.w     -[A7], [A5 - 0x1D98]
000009DC  4EAD 21D2                jsr        [A5 + 0x21D2 /* export_1078, CODE:20 @ 00004516 */]
000009E0  6004                     bra        +0x6 /* 000009E6 */
label000009E2:
000009E2  4EAD 1812                jsr        [A5 + 0x1812 /* export_766, CODE:16 @ 00000208 */]
label000009E6:
000009E6  4E5E                     unlink     A6
000009E8  4E75                     rts
fn000009EA:
000009EA  4E56 FDEC                link       A6, -0x0214
000009EE  2F0C                     move.l     -[A7], A4
000009F0  286E 0008                movea.l    A4, [A6 + 0x8]
000009F4  4A6C FEAE                tst.w      [A4 - 0x152]
000009F8  661C                     bne        +0x1E /* 00000A16 */
000009FA  486E FE00                pea.l      [A6 - 0x200]
000009FE  3F3C 0016                move.w     -[A7], 0x16
00000A02  4EAD 209A                jsr        [A5 + 0x209A /* export_1039, CODE:20 @ 00000F60 */]
00000A06  205F                     movea.l    A0, [A7]+
00000A08  43EC FEB2                lea.l      A1, [A4 - 0x14E]
00000A0C  703F                     moveq.l    D0, 0x3F
label00000A0E:
00000A0E  22D8                     move.l     [A1]+, [A0]+
00000A10  51C8 FFFC                dbf        D0, -0x6 /* 00000A0E */
00000A14  6050                     bra        +0x52 /* 00000A66 */
label00000A16:
00000A16  42A7                     clr.l      -[A7]
00000A18  3F2C FEAE                move.w     -[A7], [A4 - 0x152]
00000A1C  A9BB                     syscall    GetIcon
00000A1E  295F FFB8                move.l     [A4 - 0x48], [A7]+
00000A22  2F2C FFB8                move.l     -[A7], [A4 - 0x48]
00000A26  486C FFB6                pea.l      [A4 - 0x4A]
00000A2A  486C FFB2                pea.l      [A4 - 0x4E]
00000A2E  486C FEB2                pea.l      [A4 - 0x14E]
00000A32  A9A8                     syscall    GetResInfo
00000A34  4240                     clr.w      D0
00000A36  102C FEB2                move.b     D0, [A4 - 0x14E]
00000A3A  4A40                     tst.w      D0
00000A3C  6F28                     ble        +0x2A /* 00000A66 */
00000A3E  487A 007C                pea.l      [PC + 0x7C /* 00000ABC, value 0x3202022, pstring "  \"" */]
00000A42  486C FEB2                pea.l      [A4 - 0x14E]
00000A46  487A 0072                pea.l      [PC + 0x72 /* 00000ABA, value 0x1220320 */]
00000A4A  486E FF00                pea.l      [A6 - 0x100]
00000A4E  3F3C 0003                move.w     -[A7], 0x3
00000A52  4EBA 48CA                jsr        [PC + 0x48CA /* 0000531E */]
00000A56  41EC FEB2                lea.l      A0, [A4 - 0x14E]
00000A5A  43EE FF00                lea.l      A1, [A6 - 0x100]
00000A5E  703F                     moveq.l    D0, 0x3F
label00000A60:
00000A60  20D9                     move.l     [A0]+, [A1]+
00000A62  51C8 FFFC                dbf        D0, -0x6 /* 00000A60 */
label00000A66:
00000A66  2F2C FFFC                move.l     -[A7], [A4 - 0x4]
00000A6A  3F3C 0004                move.w     -[A7], 0x4
00000A6E  486C FFFA                pea.l      [A4 - 0x6]
00000A72  486C FFF6                pea.l      [A4 - 0xA]
00000A76  486C FFEE                pea.l      [A4 - 0x12]
00000A7A  A98D                     syscall    GetDialogItem/GetDItem
00000A7C  2F2C FFF6                move.l     -[A7], [A4 - 0xA]
00000A80  486E FE00                pea.l      [A6 - 0x200]
00000A84  3F3C 0015                move.w     -[A7], 0x15
00000A88  4EAD 209A                jsr        [A5 + 0x209A /* export_1039, CODE:20 @ 00000F60 */]
00000A8C  486E FDEC                pea.l      [A6 - 0x214]
00000A90  302C FEAE                move.w     D0, [A4 - 0x152]
00000A94  48C0                     ext.l      D0
00000A96  2F00                     move.l     -[A7], D0
00000A98  4EAD 1902                jsr        [A5 + 0x1902 /* export_796, CODE:16 @ 000009D4 */]
00000A9C  486C FEB2                pea.l      [A4 - 0x14E]
00000AA0  486E FF00                pea.l      [A6 - 0x100]
00000AA4  3F3C 0003                move.w     -[A7], 0x3
00000AA8  4EBA 4874                jsr        [PC + 0x4874 /* 0000531E */]
00000AAC  486E FF00                pea.l      [A6 - 0x100]
00000AB0  A98F                     syscall    SetDialogItemText/SetIText
00000AB2  285F                     movea.l    A4, [A7]+
00000AB4  4E5E                     unlink     A6
00000AB6  2E9F                     move.l     [A7], [A7]+
00000AB8  4E75                     rts
00000ABA  0122                     btst       -[A2], D0
00000ABC  0320                     btst       -[A0], D1
00000ABE  2022                     move.l     D0, -[A2]
fn00000AC0:
00000AC0  4E56 0000                link       A6, 0
00000AC4  2F0C                     move.l     -[A7], A4
00000AC6  286E 0008                movea.l    A4, [A6 + 0x8]
00000ACA  42A7                     clr.l      -[A7]
00000ACC  2F3A 0084                move.l     -[A7], [PC + 0x84 /* 00000B52, value 0x49434F4E 'ICON' */]
00000AD0  3F2C FFBC                move.w     -[A7], [A4 - 0x44]
00000AD4  A99D                     syscall    GetIndResource
00000AD6  295F FFB8                move.l     [A4 - 0x48], [A7]+
00000ADA  2F2C FFB8                move.l     -[A7], [A4 - 0x48]
00000ADE  486C FFB6                pea.l      [A4 - 0x4A]
00000AE2  486C FFB2                pea.l      [A4 - 0x4E]
00000AE6  486C FEB2                pea.l      [A4 - 0x14E]
00000AEA  A9A8                     syscall    GetResInfo
00000AEC  4A6C FFB6                tst.w      [A4 - 0x4A]
00000AF0  6758                     beq        +0x5A /* 00000B4A */
00000AF2  486C FFB6                pea.l      [A4 - 0x4A]
00000AF6  3F3C 0002                move.w     -[A7], 0x2
00000AFA  2F2C FFCE                move.l     -[A7], [A4 - 0x32]
00000AFE  2F2C FFE2                move.l     -[A7], [A4 - 0x1E]
00000B02  4EBA 328C                jsr        [PC + 0x328C /* 00003D90 */]
00000B06  206C 0008                movea.l    A0, [A4 + 0x8]
00000B0A  302C FFB6                move.w     D0, [A4 - 0x4A]
00000B0E  B050                     cmp.w      D0, [A0]
00000B10  6618                     bne        +0x1A /* 00000B2A */
00000B12  1F3C 0001                move.b     -[A7], 0x1
00000B16  2F2C FFCE                move.l     -[A7], [A4 - 0x32]
00000B1A  2F2C FFE2                move.l     -[A7], [A4 - 0x1E]
00000B1E  4EBA 3272                jsr        [PC + 0x3272 /* 00003D92 */]
00000B22  2F2C FFE2                move.l     -[A7], [A4 - 0x1E]
00000B26  4EBA 3244                jsr        [PC + 0x3244 /* 00003D6C */]
label00000B2A:
00000B2A  302C FFD0                move.w     D0, [A4 - 0x30]
00000B2E  5240                     addq.w     D0, 1
00000B30  3940 FFD0                move.w     [A4 - 0x30], D0
00000B34  7007                     moveq.l    D0, 0x07
00000B36  B06C FFD0                cmp.w      D0, [A4 - 0x30]
00000B3A  660E                     bne        +0x10 /* 00000B4A */
00000B3C  426C FFD0                clr.w      [A4 - 0x30]
00000B40  302C FFCE                move.w     D0, [A4 - 0x32]
00000B44  5240                     addq.w     D0, 1
00000B46  3940 FFCE                move.w     [A4 - 0x32], D0
label00000B4A:
00000B4A  285F                     movea.l    A4, [A7]+
00000B4C  4E5E                     unlink     A6
00000B4E  2E9F                     move.l     [A7], [A7]+
00000B50  4E75                     rts
00000B52  4943                     chk.w      D4, D3
00000B54  4F4E                     chk.w      D7, A6
export_4:
00000B56  4E56 FEA8                link       A6, -0x0158
00000B5A  48E7 0300                movem.l    -[A7], D6,D7
00000B5E  4EAD 1862                jsr        [A5 + 0x1862 /* export_776, CODE:16 @ 00000474 */]
00000B62  42A7                     clr.l      -[A7]
00000B64  3F3C 07DC                move.w     -[A7], 0x7DC
00000B68  42A7                     clr.l      -[A7]
00000B6A  70FF                     moveq.l    D0, 0xFFFFFFFF
00000B6C  2F00                     move.l     -[A7], D0
00000B6E  A97C                     syscall    GetNewDialog
00000B70  2D5F FFFC                move.l     [A6 - 0x4], [A7]+
00000B74  2F2E FFFC                move.l     -[A7], [A6 - 0x4]
00000B78  4EAD 182A                jsr        [A5 + 0x182A /* export_769, CODE:16 @ 000002AC */]
00000B7C  2F2E FFFC                move.l     -[A7], [A6 - 0x4]
00000B80  A873                     syscall    SetPort
00000B82  206E 0008                movea.l    A0, [A6 + 0x8]
00000B86  3D50 FEAE                move.w     [A6 - 0x152], [A0]
00000B8A  2F2E FFFC                move.l     -[A7], [A6 - 0x4]
00000B8E  3F3C 0005                move.w     -[A7], 0x5
00000B92  486E FFFA                pea.l      [A6 - 0x6]
00000B96  486E FFF6                pea.l      [A6 - 0xA]
00000B9A  486E FFE6                pea.l      [A6 - 0x1A]
00000B9E  A98D                     syscall    GetDialogItem/GetDItem
00000BA0  302E FFE6                move.w     D0, [A6 - 0x1A]
00000BA4  5240                     addq.w     D0, 1
00000BA6  3D40 FFDA                move.w     [A6 - 0x26], D0
00000BAA  302E FFE8                move.w     D0, [A6 - 0x18]
00000BAE  5240                     addq.w     D0, 1
00000BB0  3D40 FFDC                move.w     [A6 - 0x24], D0
00000BB4  302E FFEA                move.w     D0, [A6 - 0x16]
00000BB8  5340                     subq.w     D0, 1
00000BBA  3D40 FFDE                move.w     [A6 - 0x22], D0
00000BBE  302E FFEC                move.w     D0, [A6 - 0x14]
00000BC2  907C 0010                sub.w      D0, 0x10
00000BC6  3D40 FFE0                move.w     [A6 - 0x20], D0
00000BCA  4267                     clr.w      -[A7]
00000BCC  2F3A 01AC                move.l     -[A7], [PC + 0x1AC /* 00000D7A, value 0x49434F4E 'ICON', cstring "ICONNV" */]
00000BD0  A99C                     syscall    CountResources
00000BD2  3E1F                     move.w     D7, [A7]+
00000BD4  3D7C 0032 FFC4           move.w     [A6 - 0x3C], 0x32 /* '2' */
00000BDA  3D7C 0028 FFC2           move.w     [A6 - 0x3E], 0x28 /* '(' */
00000BE0  426E FFD4                clr.w      [A6 - 0x2C]
00000BE4  426E FFD2                clr.w      [A6 - 0x2E]
00000BE8  3D7C 0007 FFD8           move.w     [A6 - 0x28], 0x7
00000BEE  3007                     move.w     D0, D7
00000BF0  48C0                     ext.l      D0
00000BF2  81FC 0007                divs.w     D0, 0x7
00000BF6  5240                     addq.w     D0, 1
00000BF8  3D40 FFD6                move.w     [A6 - 0x2A], D0
00000BFC  42A7                     clr.l      -[A7]
00000BFE  486E FFDA                pea.l      [A6 - 0x26]
00000C02  486E FFD2                pea.l      [A6 - 0x2E]
00000C06  2F2E FFC2                move.l     -[A7], [A6 - 0x3E]
00000C0A  4267                     clr.w      -[A7]
00000C0C  2F2E FFFC                move.l     -[A7], [A6 - 0x4]
00000C10  42A7                     clr.l      -[A7]
00000C12  4267                     clr.w      -[A7]
00000C14  1F3C 0001                move.b     -[A7], 0x1
00000C18  4EBA 316C                jsr        [PC + 0x316C /* 00003D86 */]
00000C1C  2D5F FFE2                move.l     [A6 - 0x1E], [A7]+
00000C20  41FA 0B72                lea.l      A0, [PC + 0xB72 /* 00001794, value 0x4E56FFE6 */]
00000C24  2D48 FFBE                move.l     [A6 - 0x42], A0
00000C28  41EE FFBE                lea.l      A0, [A6 - 0x42]
00000C2C  226E FFE2                movea.l    A1, [A6 - 0x1E]
00000C30  2251                     movea.l    A1, [A1]
00000C32  2348 0040                move.l     [A1 + 0x40], A0
00000C36  206E FFE2                movea.l    A0, [A6 - 0x1E]
00000C3A  2050                     movea.l    A0, [A0]
00000C3C  117C FF82 0024           move.b     [A0 + 0x24], 0x82
00000C42  426E FFD0                clr.w      [A6 - 0x30]
00000C46  426E FFCE                clr.w      [A6 - 0x32]
00000C4A  3D47 FEA8                move.w     [A6 - 0x158], D7
00000C4E  3D7C 0001 FFBC           move.w     [A6 - 0x44], 0x1
00000C54  600C                     bra        +0xE /* 00000C62 */
label00000C56:
00000C56  2F0E                     move.l     -[A7], A6
00000C58  4EBA FE66                jsr        [PC - 0x19A /* 00000AC0 */]
00000C5C  526E FFBC                addq.w     [A6 - 0x44], 1
00000C60  690A                     bvs        +0xC /* 00000C6C */
label00000C62:
00000C62  302E FFBC                move.w     D0, [A6 - 0x44]
00000C66  B06E FEA8                cmp.w      D0, [A6 - 0x158]
00000C6A  6FEA                     ble        -0x14 /* 00000C56 */
label00000C6C:
00000C6C  2F2E FFFC                move.l     -[A7], [A6 - 0x4]
00000C70  A915                     syscall    ShowWindow
00000C72  2F0E                     move.l     -[A7], A6
00000C74  4EBA FD74                jsr        [PC - 0x28C /* 000009EA */]
00000C78  486E FFE6                pea.l      [A6 - 0x1A]
00000C7C  A8A1                     syscall    FrameRect
00000C7E  1F3C 0001                move.b     -[A7], 0x1
00000C82  2F2E FFE2                move.l     -[A7], [A6 - 0x1E]
00000C86  4EBA 30F2                jsr        [PC + 0x30F2 /* 00003D7A */]
00000C8A  206E FFFC                movea.l    A0, [A6 - 0x4]
00000C8E  2F28 0018                move.l     -[A7], [A0 + 0x18]
00000C92  2F2E FFE2                move.l     -[A7], [A6 - 0x1E]
00000C96  4EBA 30FE                jsr        [PC + 0x30FE /* 00003D96 */]
00000C9A  2F2E FFFC                move.l     -[A7], [A6 - 0x4]
00000C9E  A981                     syscall    DrawDialog
00000CA0  2F2E FFFC                move.l     -[A7], [A6 - 0x4]
00000CA4  4EAD 186A                jsr        [A5 + 0x186A /* export_777, CODE:16 @ 00000490 */]
00000CA8  206E FFFC                movea.l    A0, [A6 - 0x4]
00000CAC  4868 0010                pea.l      [A0 + 0x10]
00000CB0  A92A                     syscall    ValidRect
label00000CB2:
00000CB2  42A7                     clr.l      -[A7]
00000CB4  486E FFCC                pea.l      [A6 - 0x34]
00000CB8  A991                     syscall    ModalDialog
00000CBA  7005                     moveq.l    D0, 0x05
00000CBC  B06E FFCC                cmp.w      D0, [A6 - 0x34]
00000CC0  6660                     bne        +0x62 /* 00000D22 */
00000CC2  486E FFC8                pea.l      [A6 - 0x38]
00000CC6  A972                     syscall    GetMouse
00000CC8  4267                     clr.w      -[A7]
00000CCA  2F2E FFC8                move.l     -[A7], [A6 - 0x38]
00000CCE  4267                     clr.w      -[A7]
00000CD0  2F2E FFE2                move.l     -[A7], [A6 - 0x1E]
00000CD4  4EBA 309A                jsr        [PC + 0x309A /* 00003D70 */]
00000CD8  1C1F                     move.b     D6, [A7]+
00000CDA  426E FFD0                clr.w      [A6 - 0x30]
00000CDE  426E FFCE                clr.w      [A6 - 0x32]
00000CE2  4267                     clr.w      -[A7]
00000CE4  1F3C 0001                move.b     -[A7], 0x1
00000CE8  486E FFCE                pea.l      [A6 - 0x32]
00000CEC  2F2E FFE2                move.l     -[A7], [A6 - 0x1E]
00000CF0  4EBA 3090                jsr        [PC + 0x3090 /* 00003D82 */]
00000CF4  101F                     move.b     D0, [A7]+
00000CF6  6720                     beq        +0x22 /* 00000D18 */
00000CF8  3D7C 0002 FEB0           move.w     [A6 - 0x150], 0x2
00000CFE  486E FEAE                pea.l      [A6 - 0x152]
00000D02  486E FEB0                pea.l      [A6 - 0x150]
00000D06  2F2E FFCE                move.l     -[A7], [A6 - 0x32]
00000D0A  2F2E FFE2                move.l     -[A7], [A6 - 0x1E]
00000D0E  4EBA 3070                jsr        [PC + 0x3070 /* 00003D80 */]
00000D12  2F0E                     move.l     -[A7], A6
00000D14  4EBA FCD4                jsr        [PC - 0x32C /* 000009EA */]
label00000D18:
00000D18  1006                     move.b     D0, D6
00000D1A  6706                     beq        +0x8 /* 00000D22 */
00000D1C  3D7C 0001 FFCC           move.w     [A6 - 0x34], 0x1
label00000D22:
00000D22  7001                     moveq.l    D0, 0x01
00000D24  B06E FFCC                cmp.w      D0, [A6 - 0x34]
00000D28  6608                     bne        +0xA /* 00000D32 */
00000D2A  206E 0008                movea.l    A0, [A6 + 0x8]
00000D2E  30AE FEAE                move.w     [A0], [A6 - 0x152]
label00000D32:
00000D32  7003                     moveq.l    D0, 0x03
00000D34  B06E FFCC                cmp.w      D0, [A6 - 0x34]
00000D38  6606                     bne        +0x8 /* 00000D40 */
00000D3A  206E 0008                movea.l    A0, [A6 + 0x8]
00000D3E  4250                     clr.w      [A0]
label00000D40:
00000D40  7001                     moveq.l    D0, 0x01
00000D42  B06E FFCC                cmp.w      D0, [A6 - 0x34]
00000D46  57C0                     seq        D0
00000D48  7202                     moveq.l    D1, 0x02
00000D4A  B26E FFCC                cmp.w      D1, [A6 - 0x34]
00000D4E  57C1                     seq        D1
00000D50  8001                     or.b       D0, D1
00000D52  7203                     moveq.l    D1, 0x03
00000D54  B26E FFCC                cmp.w      D1, [A6 - 0x34]
00000D58  57C1                     seq        D1
00000D5A  8001                     or.b       D0, D1
00000D5C  6700 FF54                beq        -0xAA /* 00000CB2 */
00000D60  2F2E FFE2                move.l     -[A7], [A6 - 0x1E]
00000D64  4EBA 3012                jsr        [PC + 0x3012 /* 00003D78 */]
00000D68  2F2E FFFC                move.l     -[A7], [A6 - 0x4]
00000D6C  4EAD 201A                jsr        [A5 + 0x201A /* export_1023, CODE:20 @ 000002FA */]
00000D70  4CDF 00C0                movem.l    D6,D7, [A7]+
00000D74  4E5E                     unlink     A6
00000D76  2E9F                     move.l     [A7], [A7]+
00000D78  4E75                     rts
00000D7A  4943                     chk.w      D4, D3
00000D7C  4F4E                     chk.w      D7, A6
fn00000D7E:
00000D7E  4E56 0000                link       A6, 0
00000D82  102D F4CD                move.b     D0, [A5 - 0xB33]
00000D86  C02D F016                and.b      D0, [A5 - 0xFEA]
00000D8A  6710                     beq        +0x12 /* 00000D9C */
00000D8C  4EAD 15BA                jsr        [A5 + 0x15BA /* export_691, CODE:15 @ 00000AE6 */]
00000D90  206E 0008                movea.l    A0, [A6 + 0x8]
00000D94  2C48                     movea.l    A6, A0
00000D96  4EFA 0192                jmp        [PC + 0x192 /* 00000F2A */]
00000D9A  0000 4E5E                ori.b      D0, 0x5E /* '^' */
// begin alternate branch 00000D9C-00000D9E
label00000D9C:
00000D9C  4E5E                     unlink     A6
// end alternate branch 00000D9C-00000D9E
label00000D9C: // (misaligned)
00000D9E  2E9F                     move.l     [A7], [A7]+
00000DA0  4E75                     rts
fn00000DA2:
00000DA2  4E56 FFDC                link       A6, -0x0024
00000DA6  48E7 1F38                movem.l    -[A7], D3,D4,D5,D6,D7,A2,A3,A4
00000DAA  4A6D E276                tst.w      [A5 - 0x1D8A]
00000DAE  6700 0110                beq        +0x112 /* 00000EC0 */
00000DB2  2F0E                     move.l     -[A7], A6
00000DB4  4EBA FFC8                jsr        [PC - 0x38 /* 00000D7E */]
00000DB8  41ED E0E8                lea.l      A0, [A5 - 0x1F18]
00000DBC  43FA 0186                lea.l      A1, [PC + 0x186 /* 00000F44, value 0xC64656C, pstring "deleteButton" */]
00000DC0  20D9                     move.l     [A0]+, [A1]+
00000DC2  20D9                     move.l     [A0]+, [A1]+
00000DC4  20D9                     move.l     [A0]+, [A1]+
00000DC6  3091                     move.w     [A0], [A1]
00000DC8  7002                     moveq.l    D0, 0x02
00000DCA  B02D E278                cmp.b      D0, [A5 - 0x1D88]
00000DCE  6600 00B0                bne        +0xB2 /* 00000E80 */
00000DD2  41ED E0E8                lea.l      A0, [A5 - 0x1F18]
00000DD6  43FA 0160                lea.l      A1, [PC + 0x160 /* 00000F38, value 0xB64656C, pstring "deleteField" */]
00000DDA  20D9                     move.l     [A0]+, [A1]+
00000DDC  20D9                     move.l     [A0]+, [A1]+
00000DDE  20D9                     move.l     [A0]+, [A1]+
00000DE0  202D E270                move.l     D0, [A5 - 0x1D90]
00000DE4  B0AD F622                cmp.l      D0, [A5 - 0x9DE]
00000DE8  6600 0096                bne        +0x98 /* 00000E80 */
00000DEC  42A7                     clr.l      -[A7]
00000DEE  2F2D F622                move.l     -[A7], [A5 - 0x9DE]
00000DF2  4EAD 1F6A                jsr        [A5 + 0x1F6A /* export_1001, CODE:19 @ 000016EC */]
00000DF6  2D5F FFF4                move.l     [A6 - 0xC], [A7]+
00000DFA  206E FFF4                movea.l    A0, [A6 - 0xC]
00000DFE  2050                     movea.l    A0, [A0]
00000E00  2D68 0014 FFF0           move.l     [A6 - 0x10], [A0 + 0x14]
00000E06  2F2D F622                move.l     -[A7], [A5 - 0x9DE]
00000E0A  4267                     clr.w      -[A7]
00000E0C  4EAD 1EE2                jsr        [A5 + 0x1EE2 /* export_984, CODE:19 @ 00000414 */]
00000E10  7001                     moveq.l    D0, 0x01
00000E12  B0AE FFF0                cmp.l      D0, [A6 - 0x10]
00000E16  6C68                     bge        +0x6A /* 00000E80 */
00000E18  486E FFDC                pea.l      [A6 - 0x24]
00000E1C  2F2E FFF0                move.l     -[A7], [A6 - 0x10]
00000E20  4EAD 1902                jsr        [A5 + 0x1902 /* export_796, CODE:16 @ 000009D4 */]
00000E24  487A 0110                pea.l      [PC + 0x110 /* 00000F36, value 0xB64, cstring "" */]
00000E28  487A 010C                pea.l      [PC + 0x10C /* 00000F36, value 0xB64, cstring "" */]
00000E2C  487A 0108                pea.l      [PC + 0x108 /* 00000F36, value 0xB64, cstring "" */]
00000E30  A98B                     syscall    ParamText
00000E32  4EAD 1862                jsr        [A5 + 0x1862 /* export_776, CODE:16 @ 00000474 */]
00000E36  42A7                     clr.l      -[A7]
00000E38  3F3C 07D5                move.w     -[A7], 0x7D5
00000E3C  42A7                     clr.l      -[A7]
00000E3E  70FF                     moveq.l    D0, 0xFFFFFFFF
00000E40  2F00                     move.l     -[A7], D0
00000E42  A97C                     syscall    GetNewDialog
00000E44  2D5F FFFC                move.l     [A6 - 0x4], [A7]+
00000E48  2F2E FFFC                move.l     -[A7], [A6 - 0x4]
00000E4C  4EAD 186A                jsr        [A5 + 0x186A /* export_777, CODE:16 @ 00000490 */]
label00000E50:
00000E50  42A7                     clr.l      -[A7]
00000E52  486E FFFA                pea.l      [A6 - 0x6]
00000E56  A991                     syscall    ModalDialog
00000E58  7002                     moveq.l    D0, 0x02
00000E5A  B06E FFFA                cmp.w      D0, [A6 - 0x6]
00000E5E  57C0                     seq        D0
00000E60  7201                     moveq.l    D1, 0x01
00000E62  B26E FFFA                cmp.w      D1, [A6 - 0x6]
00000E66  57C1                     seq        D1
00000E68  8001                     or.b       D0, D1
00000E6A  67E4                     beq        -0x1A /* 00000E50 */
00000E6C  2F2E FFFC                move.l     -[A7], [A6 - 0x4]
00000E70  4EAD 201A                jsr        [A5 + 0x201A /* export_1023, CODE:20 @ 000002FA */]
00000E74  7001                     moveq.l    D0, 0x01
00000E76  B06E FFFA                cmp.w      D0, [A6 - 0x6]
00000E7A  6604                     bne        +0x6 /* 00000E80 */
00000E7C  6000 00AC                bra        +0xAE /* 00000F2A */
label00000E80:
00000E80  2F2D E270                move.l     -[A7], [A5 - 0x1D90]
00000E84  3F2D E276                move.w     -[A7], [A5 - 0x1D8A]
00000E88  2F2D F62A                move.l     -[A7], [A5 - 0x9D6]
00000E8C  2F2D F622                move.l     -[A7], [A5 - 0x9DE]
00000E90  4EAD 0B9A                jsr        [A5 + 0xB9A /* export_367, CODE:8 @ 00004010 */]
00000E94  2F2D E270                move.l     -[A7], [A5 - 0x1D90]
00000E98  3F2D E276                move.w     -[A7], [A5 - 0x1D8A]
00000E9C  4EAD 10A2                jsr        [A5 + 0x10A2 /* export_528, CODE:9 @ 00004722 */]
00000EA0  4267                     clr.w      -[A7]
00000EA2  2F2D E270                move.l     -[A7], [A5 - 0x1D90]
00000EA6  3F2D E276                move.w     -[A7], [A5 - 0x1D8A]
00000EAA  4EAD 1D6A                jsr        [A5 + 0x1D6A /* export_937, CODE:18 @ 000008C0 */]
00000EAE  101F                     move.b     D0, [A7]+
00000EB0  6604                     bne        +0x6 /* 00000EB6 */
00000EB2  4EAD 1812                jsr        [A5 + 0x1812 /* export_766, CODE:16 @ 00000208 */]
label00000EB6:
00000EB6  486D ED82                pea.l      [A5 - 0x127E]
00000EBA  4EAD 207A                jsr        [A5 + 0x207A /* export_1035, CODE:20 @ 00000CEE */]
00000EBE  6066                     bra        +0x68 /* 00000F26 */
label00000EC0:
00000EC0  102D E245                move.b     D0, [A5 - 0x1DBB]
00000EC4  671C                     beq        +0x1E /* 00000EE2 */
00000EC6  2F0E                     move.l     -[A7], A6
00000EC8  4EBA FEB4                jsr        [PC - 0x14C /* 00000D7E */]
00000ECC  102D E257                move.b     D0, [A5 - 0x1DA9]
00000ED0  0240 0001                andi.w     D0, 0x1
00000ED4  6650                     bne        +0x52 /* 00000F26 */
00000ED6  2F2D E246                move.l     -[A7], [A5 - 0x1DBA]
00000EDA  A9D7                     syscall    TEDelete
00000EDC  4EAD 22CA                jsr        [A5 + 0x22CA /* export_1109, CODE:20 @ 000060CC */]
00000EE0  6044                     bra        +0x46 /* 00000F26 */
label00000EE2:
00000EE2  102D EDAB                move.b     D0, [A5 - 0x1255]
00000EE6  6734                     beq        +0x36 /* 00000F1C */
00000EE8  206D EDAC                movea.l    A0, [A5 - 0x1254]
00000EEC  2050                     movea.l    A0, [A0]
00000EEE  226D EDAC                movea.l    A1, [A5 - 0x1254]
00000EF2  2251                     movea.l    A1, [A1]
00000EF4  3028 0020                move.w     D0, [A0 + 0x20]
00000EF8  B069 0022                cmp.w      D0, [A1 + 0x22]
00000EFC  6708                     beq        +0xA /* 00000F06 */
00000EFE  2F2D EDAC                move.l     -[A7], [A5 - 0x1254]
00000F02  A9D7                     syscall    TEDelete
00000F04  6020                     bra        +0x22 /* 00000F26 */
label00000F06:
00000F06  486D ED8A                pea.l      [A5 - 0x1276]
00000F0A  42A7                     clr.l      -[A7]
00000F0C  2F2D EDAC                move.l     -[A7], [A5 - 0x1254]
00000F10  A9CF                     syscall    TESetText
00000F12  4EAD 22BA                jsr        [A5 + 0x22BA /* export_1107, CODE:20 @ 00005F96 */]
00000F16  4EAD 213A                jsr        [A5 + 0x213A /* export_1059, CODE:20 @ 000023E2 */]
00000F1A  600A                     bra        +0xC /* 00000F26 */
label00000F1C:
00000F1C  4267                     clr.w      -[A7]
00000F1E  4EAD 208A                jsr        [A5 + 0x208A /* export_1037, CODE:20 @ 00000DD0 */]
00000F22  1D5F FFF9                move.b     [A6 - 0x7], [A7]+
label00000F26:
00000F26  4EBA 1620                jsr        [PC + 0x1620 /* 00002548 */]
label00000F2A:
00000F2A  4FEE FFBC                lea.l      A7, [A6 - 0x44]
00000F2E  4CDF 1CF8                movem.l    D3,D4,D5,D6,D7,A2,A3,A4, [A7]+
00000F32  4E5E                     unlink     A6
00000F34  4E75                     rts
00000F36  0000 0B64                ori.b      D0, 0x64 /* 'd' */
00000F3A  656C                     bcs        +0x6E /* 00000FA8 */
00000F3C  6574                     bcs        +0x76 /* 00000FB2 */
00000F3E  6546                     bcs        +0x48 /* 00000F86 */
00000F40  6965                     bvs        +0x67 /* 00000FA7 */
00000F42  6C64                     bge        +0x66 /* 00000FA8 */
00000F44  0C64 656C                cmpi.w     -[A4], 0x656C /* 'el' */
00000F48  6574                     bcs        +0x76 /* 00000FBE */
00000F4A  6542                     bcs        +0x44 /* 00000F8E */
00000F4C  7574                     moveq.l    D2, 0x74
00000F4E  746F                     moveq.l    D2, 0x6F
00000F50  6E00 4E56                bgt        +0x4E58 /* 00005DA8 */
// begin alternate branch 00000F52-00000F5A
fn00000F52:
00000F52  4E56 FEE8                link       A6, -0x0118
00000F56  48E7 0F08                movem.l    -[A7], D4,D5,D6,D7,A4
// end alternate branch 00000F52-00000F5A
fn00000F52: // (misaligned)
00000F54  FEE8 48E7                .extension 0xEE8 <<F/2-3/7>> // unimplemented
00000F58  0F08                     btst       A0, D7
00000F5A  4EAD 160A                jsr        [A5 + 0x160A /* export_701, CODE:15 @ 00001282 */]
00000F5E  2D6D E24E FEEA           move.l     [A6 - 0x116], [A5 - 0x1DB2]
00000F64  382D E254                move.w     D4, [A5 - 0x1DAC]
00000F68  2E2D FFD4                move.l     D7, [A5 - 0x2C]
00000F6C  3C2D FFDA                move.w     D6, [A5 - 0x26]
00000F70  2F07                     move.l     -[A7], D7
00000F72  3F06                     move.w     -[A7], D6
00000F74  102D FFC7                move.b     D0, [A5 - 0x39]
00000F78  0A00 0001                xori.b     D0, 0x1
00000F7C  1F00                     move.b     -[A7], D0
00000F7E  4EAD 212A                jsr        [A5 + 0x212A /* export_1057, CODE:20 @ 00001A5A */]
00000F82  BEAE FEEA                cmp.l      D7, [A6 - 0x116]
label00000F86:
00000F86  56C0                     sne        D0
00000F88  B846                     cmp.w      D4, D6
00000F8A  56C1                     sne        D1
00000F8C  8001                     or.b       D0, D1
label00000F8E:
00000F8E  6726                     beq        +0x28 /* 00000FB6 */
00000F90  2F07                     move.l     -[A7], D7
00000F92  3F06                     move.w     -[A7], D6
00000F94  4EAD 1682                jsr        [A5 + 0x1682 /* export_716, CODE:15 @ 00003082 */]
00000F98  2F07                     move.l     -[A7], D7
00000F9A  3F06                     move.w     -[A7], D6
00000F9C  4EAD 169A                jsr        [A5 + 0x169A /* export_719, CODE:15 @ 0000371E */]
00000FA0  2F07                     move.l     -[A7], D7
00000FA2  3F06                     move.w     -[A7], D6
00000FA4  4EAD 16A2                jsr        [A5 + 0x16A2 /* export_720, CODE:15 @ 00003A22 */]
label00000FA8:
00000FA8  1B7C 0001 E244           move.b     [A5 - 0x1DBC], 0x1
00000FAE  486D FFDE                pea.l      [A5 - 0x22]
label00000FB2:
00000FB2  4EAD 16D2                jsr        [A5 + 0x16D2 /* export_726, CODE:15 @ 0000402E */]
label00000FB6:
00000FB6  102D FFC7                move.b     D0, [A5 - 0x39]
00000FBA  6708                     beq        +0xA /* 00000FC4 */
00000FBC  4EBA 2312                jsr        [PC + 0x2312 /* 000032D0 */]
// begin alternate branch 00000FBE-00000FC0
label00000FBE:
00000FBE  2312                     move.l     -[A1], [A2]
// end alternate branch 00000FBE-00000FC0
label00000FBE: // (misaligned)
00000FC0  6000 00B6                bra        +0xB8 /* 00001078 */
label00000FC4:
00000FC4  102D F005                move.b     D0, [A5 - 0xFFB]
00000FC8  667A                     bne        +0x7C /* 00001044 */
00000FCA  206D E246                movea.l    A0, [A5 - 0x1DBA]
00000FCE  2850                     movea.l    A4, [A0]
00000FD0  302D F022                move.w     D0, [A5 - 0xFDE]
00000FD4  9054                     sub.w      D0, [A4]
00000FD6  48C0                     ext.l      D0
00000FD8  81EC 0018                divs.w     D0, [A4 + 0x18]
00000FDC  3A00                     move.w     D5, D0
00000FDE  9A6C 005E                sub.w      D5, [A4 + 0x5E]
00000FE2  4A6C 003C                tst.w      [A4 + 0x3C]
00000FE6  6F1E                     ble        +0x20 /* 00001006 */
00000FE8  206C 003E                movea.l    A0, [A4 + 0x3E]
00000FEC  302C 003C                move.w     D0, [A4 + 0x3C]
00000FF0  48C0                     ext.l      D0
00000FF2  D090                     add.l      D0, [A0]
00000FF4  5380                     subq.l     D0, 1
00000FF6  2D40 FEFA                move.l     [A6 - 0x106], D0
00000FFA  206E FEFA                movea.l    A0, [A6 - 0x106]
00000FFE  700D                     moveq.l    D0, 0x0D
00001000  B010                     cmp.b      D0, [A0]
00001002  6702                     beq        +0x4 /* 00001006 */
00001004  5245                     addq.w     D5, 1
label00001006:
00001006  4A45                     tst.w      D5
00001008  5EC0                     sgt        D0
0000100A  0C45 00FF                cmpi.w     D5, 0xFF
0000100E  5FC1                     sle        D1
00001010  C001                     and.b      D0, D1
00001012  6730                     beq        +0x32 /* 00001044 */
00001014  486E FEFE                pea.l      [A6 - 0x102]
00001018  3F3C 000D                move.w     -[A7], 0xD /* '\r' */
0000101C  3F05                     move.w     -[A7], D5
0000101E  4EAD 1A0A                jsr        [A5 + 0x1A0A /* export_829, CODE:16 @ 00001448 */]
00001022  2F3C 0000 7FFF           move.l     -[A7], 0x7FFF
00001028  2F3C 0000 7FFF           move.l     -[A7], 0x7FFF
0000102E  2F2D E246                move.l     -[A7], [A5 - 0x1DBA]
00001032  A9D1                     syscall    TESetSelect
00001034  486E FEFE                pea.l      [A6 - 0x102]
00001038  3005                     move.w     D0, D5
0000103A  48C0                     ext.l      D0
0000103C  2F00                     move.l     -[A7], D0
0000103E  2F2D E246                move.l     -[A7], [A5 - 0x1DBA]
00001042  A9DE                     syscall    TEInsert
label00001044:
00001044  2F2D F022                move.l     -[A7], [A5 - 0xFDE]
00001048  1F2D F005                move.b     -[A7], [A5 - 0xFFB]
0000104C  2F2D E246                move.l     -[A7], [A5 - 0x1DBA]
00001050  A9D4                     syscall    TEClick
00001052  4EAD 22CA                jsr        [A5 + 0x22CA /* export_1109, CODE:20 @ 000060CC */]
00001056  41ED E0E8                lea.l      A0, [A5 - 0x1F18]
0000105A  43FA 0024                lea.l      A1, [PC + 0x24 /* 00001080, value 0x96F7065 '\tope', pstring "openField" */]
0000105E  20D9                     move.l     [A0]+, [A1]+
00001060  20D9                     move.l     [A0]+, [A1]+
00001062  3091                     move.w     [A0], [A1]
00001064  2F2D E24E                move.l     -[A7], [A5 - 0x1DB2]
00001068  3F2D E254                move.w     -[A7], [A5 - 0x1DAC]
0000106C  2F2D F62A                move.l     -[A7], [A5 - 0x9D6]
00001070  2F2D F622                move.l     -[A7], [A5 - 0x9DE]
00001074  4EAD 0B9A                jsr        [A5 + 0xB9A /* export_367, CODE:8 @ 00004010 */]
label00001078:
00001078  4CDF 10F0                movem.l    D4,D5,D6,D7,A4, [A7]+
0000107C  4E5E                     unlink     A6
0000107E  4E75                     rts
00001080  096F 7065                bchg       [A7 + 0x7065], D4
00001084  6E46                     bgt        +0x48 /* 000010CC */
00001086  6965                     bvs        +0x67 /* 000010ED */
00001088  6C64                     bge        +0x66 /* 000010EE */
fn0000108A:
0000108A  4E56 FFFC                link       A6, -0x0004
0000108E  1F3C 0001                move.b     -[A7], 0x1
00001092  4EAD 1602                jsr        [A5 + 0x1602 /* export_700, CODE:15 @ 0000114C */]
00001096  2D6D F022 FFFC           move.l     [A6 - 0x4], [A5 - 0xFDE]
0000109C  486E FFFC                pea.l      [A6 - 0x4]
000010A0  A871                     syscall    GlobalToLocal
000010A2  4267                     clr.w      -[A7]
000010A4  2F2E FFFC                move.l     -[A7], [A6 - 0x4]
000010A8  486D EDB0                pea.l      [A5 - 0x1250]
000010AC  A8AD                     syscall    PtInRect
000010AE  101F                     move.b     D0, [A7]+
000010B0  6726                     beq        +0x28 /* 000010D8 */
000010B2  7001                     moveq.l    D0, 0x01
000010B4  B06D EFDC                cmp.w      D0, [A5 - 0x1024]
000010B8  6708                     beq        +0xA /* 000010C2 */
000010BA  3F3C 0001                move.w     -[A7], 0x1
000010BE  4EAD 15F2                jsr        [A5 + 0x15F2 /* export_698, CODE:15 @ 00000E4A */]
label000010C2:
000010C2  4EBA 1484                jsr        [PC + 0x1484 /* 00002548 */]
000010C6  4EAD 213A                jsr        [A5 + 0x213A /* export_1059, CODE:20 @ 000023E2 */]
000010CA  2F2E FFFC                move.l     -[A7], [A6 - 0x4]
// begin alternate branch 000010CC-000010CE
label000010CC:
000010CC  FFFC                     .invalid   <<F/7/7>>
// end alternate branch 000010CC-000010CE
label000010CC: // (misaligned)
000010CE  1F2D F005                move.b     -[A7], [A5 - 0xFFB]
000010D2  2F2D EDAC                move.l     -[A7], [A5 - 0x1254]
000010D6  A9D4                     syscall    TEClick
label000010D8:
000010D8  2F2D EDB8                move.l     -[A7], [A5 - 0x1248]
000010DC  A91F                     syscall    SelectWindow
000010DE  2F2D EDB8                move.l     -[A7], [A5 - 0x1248]
000010E2  4EAD 22E2                jsr        [A5 + 0x22E2 /* export_1112, CODE:20 @ 0000633A */]
000010E6  4E5E                     unlink     A6
000010E8  4E75                     rts
export_5:
000010EA  4E56 0000                link       A6, 0
label000010EE:
000010EE  4EBA 075E                jsr        [PC + 0x75E /* 0000184E */]
000010F2  3B7C FFFF EFDA           move.w     [A5 - 0x1026], 0xFFFF
000010F8  4E5E                     unlink     A6
000010FA  4E75                     rts
fn000010FC:
000010FC  4E56 FFFC                link       A6, -0x0004
00001100  2F07                     move.l     -[A7], D7
00001102  7005                     moveq.l    D0, 0x05
00001104  B06D F018                cmp.w      D0, [A5 - 0xFE8]
00001108  662C                     bne        +0x2E /* 00001136 */
0000110A  7032                     moveq.l    D0, 0x32
0000110C  B06D F00C                cmp.w      D0, [A5 - 0xFF4]
00001110  56C0                     sne        D0
00001112  7233                     moveq.l    D1, 0x33
00001114  B26D F00C                cmp.w      D1, [A5 - 0xFF4]
00001118  56C1                     sne        D1
0000111A  C001                     and.b      D0, D1
0000111C  720D                     moveq.l    D1, 0x0D
0000111E  B26D F008                cmp.w      D1, [A5 - 0xFF8]
00001122  56C1                     sne        D1
00001124  C001                     and.b      D0, D1
00001126  720E                     moveq.l    D1, 0x0E
00001128  B26D F008                cmp.w      D1, [A5 - 0xFF8]
0000112C  56C1                     sne        D1
0000112E  C001                     and.b      D0, D1
00001130  6704                     beq        +0x6 /* 00001136 */
00001132  6000 0180                bra        +0x182 /* 000012B4 */
label00001136:
00001136  4EAD 17B2                jsr        [A5 + 0x17B2 /* export_754, CODE:15 @ 000064EE */]
0000113A  4EAD 15CA                jsr        [A5 + 0x15CA /* export_693, CODE:15 @ 00000B34 */]
0000113E  4267                     clr.w      -[A7]
00001140  4EAD 21B2                jsr        [A5 + 0x21B2 /* export_1074, CODE:20 @ 000040B8 */]
00001144  101F                     move.b     D0, [A7]+
00001146  6600 016C                bne        +0x16E /* 000012B4 */
0000114A  302D F008                move.w     D0, [A5 - 0xFF8]
0000114E  5540                     subq.w     D0, 2
00001150  672A                     beq        +0x2C /* 0000117C */
00001152  5340                     subq.w     D0, 1
00001154  6742                     beq        +0x44 /* 00001198 */
00001156  5340                     subq.w     D0, 1
00001158  673E                     beq        +0x40 /* 00001198 */
0000115A  5F40                     subq.w     D0, 7
0000115C  675C                     beq        +0x5E /* 000011BA */
0000115E  5340                     subq.w     D0, 1
00001160  671A                     beq        +0x1C /* 0000117C */
00001162  5740                     subq.w     D0, 3
00001164  6700 0090                beq        +0x92 /* 000011F6 */
00001168  5340                     subq.w     D0, 1
0000116A  671E                     beq        +0x20 /* 0000118A */
0000116C  5340                     subq.w     D0, 1
0000116E  6700 00B4                beq        +0xB6 /* 00001224 */
00001172  5340                     subq.w     D0, 1
00001174  6700 00BA                beq        +0xBC /* 00001230 */
00001178  6000 00C6                bra        +0xC8 /* 00001240 */
label0000117C:
0000117C  2F3C 0001 0004           move.l     -[A7], 0x10004
00001182  4EAD 21BA                jsr        [A5 + 0x21BA /* export_1075, CODE:20 @ 00004336 */]
00001186  6000 012C                bra        +0x12E /* 000012B4 */
label0000118A:
0000118A  2F3C 0003 0004           move.l     -[A7], 0x30004
00001190  4EAD 21BA                jsr        [A5 + 0x21BA /* export_1075, CODE:20 @ 00004336 */]
00001194  6000 011E                bra        +0x120 /* 000012B4 */
label00001198:
00001198  7002                     moveq.l    D0, 0x02
0000119A  B06D F02C                cmp.w      D0, [A5 - 0xFD4]
0000119E  6C0C                     bge        +0xE /* 000011AC */
000011A0  2F3C 0009 0003           move.l     -[A7], 0x90003
000011A6  4EAD 21BA                jsr        [A5 + 0x21BA /* export_1075, CODE:20 @ 00004336 */]
000011AA  600A                     bra        +0xC /* 000011B6 */
label000011AC:
000011AC  2F3C 0009 000B           move.l     -[A7], 0x9000B
000011B2  4EAD 21BA                jsr        [A5 + 0x21BA /* export_1075, CODE:20 @ 00004336 */]
label000011B6:
000011B6  6000 00FC                bra        +0xFE /* 000012B4 */
label000011BA:
000011BA  7E01                     moveq.l    D7, 0x01
000011BC  7004                     moveq.l    D0, 0x04
000011BE  B06D F02C                cmp.w      D0, [A5 - 0xFD4]
000011C2  5FC0                     sle        D0
000011C4  222D F01E                move.l     D1, [A5 - 0xFE2]
000011C8  92AD EFFE                sub.l      D1, [A5 - 0x1002]
000011CC  741E                     moveq.l    D2, 0x1E
000011CE  B481                     cmp.l      D2, D1
000011D0  5EC1                     sgt        D1
000011D2  C001                     and.b      D0, D1
000011D4  670E                     beq        +0x10 /* 000011E4 */
000011D6  3E2D EFDC                move.w     D7, [A5 - 0x1024]
000011DA  5247                     addq.w     D7, 1
000011DC  7003                     moveq.l    D0, 0x03
000011DE  B047                     cmp.w      D0, D7
000011E0  6C02                     bge        +0x4 /* 000011E4 */
000011E2  7E01                     moveq.l    D7, 0x01
label000011E4:
000011E4  2B6D F01E EFFE           move.l     [A5 - 0x1002], [A5 - 0xFE2]
000011EA  3F3C 0005                move.w     -[A7], 0x5
000011EE  3F07                     move.w     -[A7], D7
000011F0  4EAD 21BA                jsr        [A5 + 0x21BA /* export_1075, CODE:20 @ 00004336 */]
000011F4  6048                     bra        +0x4A /* 0000123E */
label000011F6:
000011F6  102D E0E7                move.b     D0, [A5 - 0x1F19]
000011FA  6712                     beq        +0x14 /* 0000120E */
000011FC  41ED E0E8                lea.l      A0, [A5 - 0x1F18]
00001200  43FA 00C6                lea.l      A1, [PC + 0xC6 /* 000012C8, value 0xC686964, pstring "hide menuBar" */]
00001204  20D9                     move.l     [A0]+, [A1]+
00001206  20D9                     move.l     [A0]+, [A1]+
00001208  20D9                     move.l     [A0]+, [A1]+
0000120A  3091                     move.w     [A0], [A1]
0000120C  6010                     bra        +0x12 /* 0000121E */
label0000120E:
0000120E  41ED E0E8                lea.l      A0, [A5 - 0x1F18]
00001212  43FA 00A6                lea.l      A1, [PC + 0xA6 /* 000012BA, value 0xC73686F, pstring "show menuBar" */]
00001216  20D9                     move.l     [A0]+, [A1]+
00001218  20D9                     move.l     [A0]+, [A1]+
0000121A  20D9                     move.l     [A0]+, [A1]+
0000121C  3091                     move.w     [A0], [A1]
label0000121E:
0000121E  4EAD 0B8A                jsr        [A5 + 0xB8A /* export_365, CODE:8 @ 00003F30 */]
00001222  601A                     bra        +0x1C /* 0000123E */
label00001224:
00001224  2F3C 0008 0006           move.l     -[A7], 0x80006
0000122A  4EAD 21BA                jsr        [A5 + 0x21BA /* export_1075, CODE:20 @ 00004336 */]
0000122E  600E                     bra        +0x10 /* 0000123E */
label00001230:
00001230  2F3C 0007 0006           move.l     -[A7], 0x70006
00001236  4EAD 21BA                jsr        [A5 + 0x21BA /* export_1075, CODE:20 @ 00004336 */]
0000123A  6078                     bra        +0x7A /* 000012B4 */
0000123C  6002                     bra        +0x4 /* 00001240 */
label0000123E:
0000123E  6074                     bra        +0x76 /* 000012B4 */
label00001240:
00001240  4A6D E276                tst.w      [A5 - 0x1D8A]
00001244  56C0                     sne        D0
00001246  7202                     moveq.l    D1, 0x02
00001248  B22D E278                cmp.b      D1, [A5 - 0x1D88]
0000124C  57C1                     seq        D1
0000124E  C001                     and.b      D0, D1
00001250  6734                     beq        +0x36 /* 00001286 */
00001252  4267                     clr.w      -[A7]
00001254  486D E274                pea.l      [A5 - 0x1D8C]
00001258  486E FFFF                pea.l      [A6 - 0x1]
0000125C  4EAD 225A                jsr        [A5 + 0x225A /* export_1095, CODE:20 @ 000050F4 */]
00001260  101F                     move.b     D0, [A7]+
00001262  6722                     beq        +0x24 /* 00001286 */
00001264  102E FFFF                move.b     D0, [A6 - 0x1]
00001268  671A                     beq        +0x1C /* 00001284 */
0000126A  4267                     clr.w      -[A7]
0000126C  2F2D E270                move.l     -[A7], [A5 - 0x1D90]
00001270  486D E274                pea.l      [A5 - 0x1D8C]
00001274  4EAD 1E6A                jsr        [A5 + 0x1E6A /* export_969, CODE:18 @ 00002E96 */]
00001278  101F                     move.b     D0, [A7]+
0000127A  6604                     bne        +0x6 /* 00001280 */
0000127C  4EAD 1812                jsr        [A5 + 0x1812 /* export_766, CODE:16 @ 00000208 */]
label00001280:
00001280  4EBA 26D6                jsr        [PC + 0x26D6 /* 00003958 */]
label00001284:
00001284  602E                     bra        +0x30 /* 000012B4 */
label00001286:
00001286  102D E245                move.b     D0, [A5 - 0x1DBB]
0000128A  6724                     beq        +0x26 /* 000012B0 */
0000128C  2F00                     move.l     -[A7], D0
0000128E  4267                     clr.w      -[A7]
00001290  486D E252                pea.l      [A5 - 0x1DAE]
00001294  486E FFFF                pea.l      [A6 - 0x1]
00001298  4EAD 225A                jsr        [A5 + 0x225A /* export_1095, CODE:20 @ 000050F4 */]
0000129C  121F                     move.b     D1, [A7]+
0000129E  201F                     move.l     D0, [A7]+
000012A0  C001                     and.b      D0, D1
000012A2  670C                     beq        +0xE /* 000012B0 */
000012A4  102E FFFF                move.b     D0, [A6 - 0x1]
000012A8  6704                     beq        +0x6 /* 000012AE */
000012AA  4EBA 261A                jsr        [PC + 0x261A /* 000038C6 */]
label000012AE:
000012AE  6004                     bra        +0x6 /* 000012B4 */
label000012B0:
000012B0  4EAD 164A                jsr        [A5 + 0x164A /* export_709, CODE:15 @ 000029F2 */]
label000012B4:
000012B4  2E1F                     move.l     D7, [A7]+
000012B6  4E5E                     unlink     A6
000012B8  4E75                     rts
000012BA  0C73 686F 7720 6D65      cmpi.w     [A3 + 0x6D65 + D7 * 8], 0x686F /* 'ho' */
000012C2  6E75                     bgt        +0x77 /* 00001339 */
000012C4  4261                     clr.w      -[A1]
000012C6  7200                     moveq.l    D1, 0x00
000012C8  0C68 6964 6520           cmpi.w     [A0 + 0x6520], 0x6964 /* 'id' */
000012CE  6D65                     blt        +0x67 /* 00001335 */
000012D0  6E75                     bgt        +0x77 /* 00001347 */
000012D2  4261                     clr.w      -[A1]
000012D4  7200                     moveq.l    D1, 0x00
fn000012D6:
000012D6  4E56 FEE4                link       A6, -0x011C
000012DA  48E7 0F18                movem.l    -[A7], D4,D5,D6,D7,A3,A4
000012DE  102D EDAB                move.b     D0, [A5 - 0x1255]
000012E2  6748                     beq        +0x4A /* 0000132C */
000012E4  206D EDAC                movea.l    A0, [A5 - 0x1254]
000012E8  2050                     movea.l    A0, [A0]
000012EA  226D EDAC                movea.l    A1, [A5 - 0x1254]
000012EE  2251                     movea.l    A1, [A1]
000012F0  3028 0020                move.w     D0, [A0 + 0x20]
000012F4  B069 0022                cmp.w      D0, [A1 + 0x22]
000012F8  6C00 01FC                bge        +0x1FE /* 000014F6 */
000012FC  102E 0008                move.b     D0, [A6 + 0x8]
00001300  6708                     beq        +0xA /* 0000130A */
00001302  2F2D EDAC                move.l     -[A7], [A5 - 0x1254]
00001306  A9D6                     syscall    TECut
00001308  6006                     bra        +0x8 /* 00001310 */
label0000130A:
0000130A  2F2D EDAC                move.l     -[A7], [A5 - 0x1254]
0000130E  A9D5                     syscall    TECopy
label00001310:
00001310  42A7                     clr.l      -[A7]
00001312  A9FC                     syscall    ZeroScrap
00001314  201F                     move.l     D0, [A7]+
00001316  3E00                     move.w     D7, D0
00001318  42A7                     clr.l      -[A7]
0000131A  A9FB                     syscall    LoadScrap/LodeScrap
0000131C  201F                     move.l     D0, [A7]+
0000131E  3E00                     move.w     D7, D0
00001320  4267                     clr.w      -[A7]
00001322  4EBA 3AF8                jsr        [PC + 0x3AF8 /* 00004E1C */]
00001326  3E1F                     move.w     D7, [A7]+
00001328  6000 01D0                bra        +0x1D2 /* 000014FA */
label0000132C:
0000132C  102D E245                move.b     D0, [A5 - 0x1DBB]
00001330  6770                     beq        +0x72 /* 000013A2 */
00001332  206D E246                movea.l    A0, [A5 - 0x1DBA]
00001336  2050                     movea.l    A0, [A0]
00001338  226D E246                movea.l    A1, [A5 - 0x1DBA]
0000133C  2251                     movea.l    A1, [A1]
0000133E  3028 0020                move.w     D0, [A0 + 0x20]
00001342  B069 0022                cmp.w      D0, [A1 + 0x22]
00001346  6C00 01AE                bge        +0x1B0 /* 000014F6 */
0000134A  102E 0008                move.b     D0, [A6 + 0x8]
0000134E  6730                     beq        +0x32 /* 00001380 */
00001350  102D F4CD                move.b     D0, [A5 - 0xB33]
00001354  C02D F016                and.b      D0, [A5 - 0xFEA]
00001358  6708                     beq        +0xA /* 00001362 */
0000135A  4EAD 15BA                jsr        [A5 + 0x15BA /* export_691, CODE:15 @ 00000AE6 */]
0000135E  6000 019A                bra        +0x19C /* 000014FA */
label00001362:
00001362  102D E257                move.b     D0, [A5 - 0x1DA9]
00001366  0240 0001                andi.w     D0, 0x1
0000136A  6708                     beq        +0xA /* 00001374 */
0000136C  4EBA 11DA                jsr        [PC + 0x11DA /* 00002548 */]
00001370  6000 0188                bra        +0x18A /* 000014FA */
label00001374:
00001374  2F2D E246                move.l     -[A7], [A5 - 0x1DBA]
00001378  A9D6                     syscall    TECut
0000137A  4EAD 22CA                jsr        [A5 + 0x22CA /* export_1109, CODE:20 @ 000060CC */]
0000137E  6006                     bra        +0x8 /* 00001386 */
label00001380:
00001380  2F2D E246                move.l     -[A7], [A5 - 0x1DBA]
00001384  A9D5                     syscall    TECopy
label00001386:
00001386  42A7                     clr.l      -[A7]
00001388  A9FC                     syscall    ZeroScrap
0000138A  201F                     move.l     D0, [A7]+
0000138C  3E00                     move.w     D7, D0
0000138E  42A7                     clr.l      -[A7]
00001390  A9FB                     syscall    LoadScrap/LodeScrap
00001392  201F                     move.l     D0, [A7]+
00001394  3E00                     move.w     D7, D0
00001396  4267                     clr.w      -[A7]
00001398  4EBA 3A82                jsr        [PC + 0x3A82 /* 00004E1C */]
0000139C  3E1F                     move.w     D7, [A7]+
0000139E  6000 015A                bra        +0x15C /* 000014FA */
label000013A2:
000013A2  4A6D E276                tst.w      [A5 - 0x1D8A]
000013A6  6700 014E                beq        +0x150 /* 000014F6 */
000013AA  7001                     moveq.l    D0, 0x01
000013AC  B02D E278                cmp.b      D0, [A5 - 0x1D88]
000013B0  660A                     bne        +0xC /* 000013BC */
000013B2  2D7C 5742 544E FFF6      move.l     [A6 - 0xA], 0x5742544E /* 'WBTN' */
000013BA  6016                     bra        +0x18 /* 000013D2 */
label000013BC:
000013BC  7002                     moveq.l    D0, 0x02
000013BE  B02D E278                cmp.b      D0, [A5 - 0x1D88]
000013C2  660A                     bne        +0xC /* 000013CE */
000013C4  2D7C 5746 4C44 FFF6      move.l     [A6 - 0xA], 0x57464C44 /* 'WFLD' */
000013CC  6004                     bra        +0x6 /* 000013D2 */
label000013CE:
000013CE  6000 0126                bra        +0x128 /* 000014F6 */
label000013D2:
000013D2  42A7                     clr.l      -[A7]
000013D4  2F2D E270                move.l     -[A7], [A5 - 0x1D90]
000013D8  3F2D E276                move.w     -[A7], [A5 - 0x1D8A]
000013DC  4EAD 1DFA                jsr        [A5 + 0x1DFA /* export_955, CODE:18 @ 000010EC */]
000013E0  285F                     movea.l    A4, [A7]+
000013E2  200C                     move.l     D0, A4
000013E4  6700 0110                beq        +0x112 /* 000014F6 */
000013E8  42A7                     clr.l      -[A7]
000013EA  A9FC                     syscall    ZeroScrap
000013EC  201F                     move.l     D0, [A7]+
000013EE  3E00                     move.w     D7, D0
000013F0  42A7                     clr.l      -[A7]
000013F2  A9FB                     syscall    LoadScrap/LodeScrap
000013F4  201F                     move.l     D0, [A7]+
000013F6  3E00                     move.w     D7, D0
000013F8  2F0C                     move.l     -[A7], A4
000013FA  4EBA 327C                jsr        [PC + 0x327C /* 00004678 */]
000013FE  42A7                     clr.l      -[A7]
00001400  2054                     movea.l    A0, [A4]
00001402  3010                     move.w     D0, [A0]
00001404  48C0                     ext.l      D0
00001406  2F00                     move.l     -[A7], D0
00001408  2F2E FFF6                move.l     -[A7], [A6 - 0xA]
0000140C  2F14                     move.l     -[A7], [A4]
0000140E  4EAD 20EA                jsr        [A5 + 0x20EA /* export_1049, CODE:20 @ 0000151C */]
00001412  201F                     move.l     D0, [A7]+
00001414  3E00                     move.w     D7, D0
00001416  2F0C                     move.l     -[A7], A4
00001418  4EBA 3268                jsr        [PC + 0x3268 /* 00004682 */]
0000141C  2F0C                     move.l     -[A7], A4
0000141E  4EAD 18D2                jsr        [A5 + 0x18D2 /* export_790, CODE:16 @ 0000083E */]
00001422  7002                     moveq.l    D0, 0x02
00001424  B02D E278                cmp.b      D0, [A5 - 0x1D88]
00001428  6650                     bne        +0x52 /* 0000147A */
0000142A  3A2D E276                move.w     D5, [A5 - 0x1D8A]
0000142E  202D E270                move.l     D0, [A5 - 0x1D90]
00001432  B0AD F62A                cmp.l      D0, [A5 - 0x9D6]
00001436  6606                     bne        +0x8 /* 0000143E */
00001438  3005                     move.w     D0, D5
0000143A  4440                     neg.w      D0
0000143C  3A00                     move.w     D5, D0
label0000143E:
0000143E  42A7                     clr.l      -[A7]
00001440  2F2D F62A                move.l     -[A7], [A5 - 0x9D6]
00001444  3F05                     move.w     -[A7], D5
00001446  4EAD 1DEA                jsr        [A5 + 0x1DEA /* export_953, CODE:18 @ 00001012 */]
0000144A  265F                     movea.l    A3, [A7]+
0000144C  200B                     move.l     D0, A3
0000144E  672A                     beq        +0x2C /* 0000147A */
00001450  2F0B                     move.l     -[A7], A3
00001452  4EBA 3224                jsr        [PC + 0x3224 /* 00004678 */]
00001456  42A7                     clr.l      -[A7]
00001458  42A7                     clr.l      -[A7]
0000145A  2F13                     move.l     -[A7], [A3]
0000145C  4EAD 1ADA                jsr        [A5 + 0x1ADA /* export_855, CODE:16 @ 00001C66 */]
00001460  2F3A 00AC                move.l     -[A7], [PC + 0xAC /* 0000150E, value 0x54455854 'TEXT', cstring "TEXTNV" */]
00001464  2F13                     move.l     -[A7], [A3]
00001466  4EAD 20EA                jsr        [A5 + 0x20EA /* export_1049, CODE:20 @ 0000151C */]
0000146A  201F                     move.l     D0, [A7]+
0000146C  3E00                     move.w     D7, D0
0000146E  2F0B                     move.l     -[A7], A3
00001470  4EBA 3210                jsr        [PC + 0x3210 /* 00004682 */]
00001474  2F0B                     move.l     -[A7], A3
00001476  4EAD 18D2                jsr        [A5 + 0x18D2 /* export_790, CODE:16 @ 0000083E */]
label0000147A:
0000147A  7001                     moveq.l    D0, 0x01
0000147C  B02D E278                cmp.b      D0, [A5 - 0x1D88]
00001480  6668                     bne        +0x6A /* 000014EA */
00001482  382D E286                move.w     D4, [A5 - 0x1D7A]
00001486  4A44                     tst.w      D4
00001488  6760                     beq        +0x62 /* 000014EA */
0000148A  42A7                     clr.l      -[A7]
0000148C  3F04                     move.w     -[A7], D4
0000148E  A9BB                     syscall    GetIcon
00001490  2C1F                     move.l     D6, [A7]+
00001492  6756                     beq        +0x58 /* 000014EA */
00001494  2F06                     move.l     -[A7], D6
00001496  4EBA 31E0                jsr        [PC + 0x31E0 /* 00004678 */]
0000149A  42A7                     clr.l      -[A7]
0000149C  2F3C 0000 0080           move.l     -[A7], 0x80
000014A2  2F3A 0066                move.l     -[A7], [PC + 0x66 /* 0000150A, value 0x49434F4E 'ICON', cstring "ICONTEXTNV" */]
000014A6  2046                     movea.l    A0, D6
000014A8  2F10                     move.l     -[A7], [A0]
000014AA  4EAD 20EA                jsr        [A5 + 0x20EA /* export_1049, CODE:20 @ 0000151C */]
000014AE  201F                     move.l     D0, [A7]+
000014B0  3E00                     move.w     D7, D0
000014B2  2F06                     move.l     -[A7], D6
000014B4  4EBA 31CC                jsr        [PC + 0x31CC /* 00004682 */]
000014B8  2F06                     move.l     -[A7], D6
000014BA  486E FFEE                pea.l      [A6 - 0x12]
000014BE  486E FFEA                pea.l      [A6 - 0x16]
000014C2  486E FEEA                pea.l      [A6 - 0x116]
000014C6  A9A8                     syscall    GetResInfo
000014C8  4240                     clr.w      D0
000014CA  102E FEEA                move.b     D0, [A6 - 0x116]
000014CE  4A40                     tst.w      D0
000014D0  6718                     beq        +0x1A /* 000014EA */
000014D2  42A7                     clr.l      -[A7]
000014D4  2F3C 0000 0100           move.l     -[A7], 0x100
000014DA  2F3A 002A                move.l     -[A7], [PC + 0x2A /* 00001506, value 0x4E414D45 'NAME', cstring "NAMEICONTEXTNV" */]
000014DE  486E FEEA                pea.l      [A6 - 0x116]
000014E2  4EAD 20EA                jsr        [A5 + 0x20EA /* export_1049, CODE:20 @ 0000151C */]
000014E6  201F                     move.l     D0, [A7]+
000014E8  3E00                     move.w     D7, D0
label000014EA:
000014EA  102E 0008                move.b     D0, [A6 + 0x8]
000014EE  6704                     beq        +0x6 /* 000014F4 */
000014F0  4EBA F8B0                jsr        [PC - 0x750 /* 00000DA2 */]
label000014F4:
000014F4  6004                     bra        +0x6 /* 000014FA */
label000014F6:
000014F6  4EAD 1812                jsr        [A5 + 0x1812 /* export_766, CODE:16 @ 00000208 */]
label000014FA:
000014FA  4CDF 18F0                movem.l    D4,D5,D6,D7,A3,A4, [A7]+
000014FE  4E5E                     unlink     A6
00001500  205F                     movea.l    A0, [A7]+
00001502  544F                     addq.w     A7, 2
00001504  4ED0                     jmp        [A0]
00001506  4E41 4D45 4943 4F4E      dc.b       "NAMEICON"
0000150E  5445                     addq.w     D5, 2
00001510  5854                     addq.w     [A4], 4
export_6:
fn00001512:
00001512  4E56 0000                link       A6, 0
00001516  4EAD 156A                jsr        [A5 + 0x156A /* export_681, CODE:15 @ 000003C8 */]
0000151A  4EAD 0742                jsr        [A5 + 0x742 /* export_228, CODE:4 @ 00002584 */]
0000151E  3F2E 0008                move.w     -[A7], [A6 + 0x8]
00001522  4EAD 076A                jsr        [A5 + 0x76A /* export_233, CODE:4 @ 00002A1A */]
00001526  4EAD 0602                jsr        [A5 + 0x602 /* export_188, CODE:4 @ 0000051C */]
0000152A  4EAD 155A                jsr        [A5 + 0x155A /* export_679, CODE:15 @ 00000242 */]
0000152E  4E5E                     unlink     A6
00001530  205F                     movea.l    A0, [A7]+
00001532  544F                     addq.w     A7, 2
00001534  4ED0                     jmp        [A0]
export_7:
fn00001536:
00001536  4E56 0000                link       A6, 0
0000153A  1D7C 0001 0016           move.b     [A6 + 0x16], 0x1
00001540  102D EFDF                move.b     D0, [A5 - 0x1021]
00001544  6624                     bne        +0x26 /* 0000156A */
00001546  206E 000C                movea.l    A0, [A6 + 0xC]
0000154A  20AD F62A                move.l     [A0], [A5 - 0x9D6]
0000154E  4267                     clr.w      -[A7]
00001550  2F2D F62A                move.l     -[A7], [A5 - 0x9D6]
00001554  2F2E 0012                move.l     -[A7], [A6 + 0x12]
00001558  3F2E 0010                move.w     -[A7], [A6 + 0x10]
0000155C  2F2E 0008                move.l     -[A7], [A6 + 0x8]
00001560  4EAD 1E0A                jsr        [A5 + 0x1E0A /* export_957, CODE:18 @ 0000120A */]
00001564  101F                     move.b     D0, [A7]+
00001566  6702                     beq        +0x4 /* 0000156A */
00001568  603C                     bra        +0x3E /* 000015A6 */
label0000156A:
0000156A  206E 000C                movea.l    A0, [A6 + 0xC]
0000156E  20AD F622                move.l     [A0], [A5 - 0x9DE]
00001572  4267                     clr.w      -[A7]
00001574  2F2D F622                move.l     -[A7], [A5 - 0x9DE]
00001578  2F2E 0012                move.l     -[A7], [A6 + 0x12]
0000157C  3F2E 0010                move.w     -[A7], [A6 + 0x10]
00001580  2F2E 0008                move.l     -[A7], [A6 + 0x8]
00001584  4EAD 1E02                jsr        [A5 + 0x1E02 /* export_956, CODE:18 @ 0000116A */]
00001588  101F                     move.b     D0, [A7]+
0000158A  6702                     beq        +0x4 /* 0000158E */
0000158C  6018                     bra        +0x1A /* 000015A6 */
label0000158E:
0000158E  206E 000C                movea.l    A0, [A6 + 0xC]
00001592  7000                     moveq.l    D0, 0x00
00001594  2080                     move.l     [A0], D0
00001596  2F2E 0008                move.l     -[A7], [A6 + 0x8]
0000159A  701E                     moveq.l    D0, 0x1E
0000159C  2F00                     move.l     -[A7], D0
0000159E  4EAD 1B42                jsr        [A5 + 0x1B42 /* export_868, CODE:16 @ 00001E7C */]
000015A2  422E 0016                clr.b      [A6 + 0x16]
label000015A6:
000015A6  4E5E                     unlink     A6
000015A8  205F                     movea.l    A0, [A7]+
000015AA  DEFC 000E                add.w      A7, 0xE
000015AE  4ED0                     jmp        [A0]
fn000015B0:
000015B0  4E56 FFD2                link       A6, -0x002E
000015B4  48E7 0F00                movem.l    -[A7], D4,D5,D6,D7
000015B8  202D F4E0                move.l     D0, [A5 - 0xB20]
000015BC  B0AD FFC8                cmp.l      D0, [A5 - 0x38]
000015C0  6724                     beq        +0x26 /* 000015E6 */
000015C2  486D FFD8                pea.l      [A5 - 0x28]
000015C6  701E                     moveq.l    D0, 0x1E
000015C8  2F00                     move.l     -[A7], D0
000015CA  4EAD 1B42                jsr        [A5 + 0x1B42 /* export_868, CODE:16 @ 00001E7C */]
000015CE  7000                     moveq.l    D0, 0x00
000015D0  2B40 FFD4                move.l     [A5 - 0x2C], D0
000015D4  7000                     moveq.l    D0, 0x00
000015D6  2B40 FFD0                move.l     [A5 - 0x30], D0
000015DA  7000                     moveq.l    D0, 0x00
000015DC  2B40 FFCC                move.l     [A5 - 0x34], D0
000015E0  2B6D F4E0 FFC8           move.l     [A5 - 0x38], [A5 - 0xB20]
label000015E6:
000015E6  41EE FFE2                lea.l      A0, [A6 - 0x1E]
000015EA  43ED FFD8                lea.l      A1, [A5 - 0x28]
000015EE  7006                     moveq.l    D0, 0x06
label000015F0:
000015F0  20D9                     move.l     [A0]+, [A1]+
000015F2  51C8 FFFC                dbf        D0, -0x6 /* 000015F0 */
000015F6  3091                     move.w     [A0], [A1]
000015F8  2E2D FFD4                move.l     D7, [A5 - 0x2C]
000015FC  2C2D FFD0                move.l     D6, [A5 - 0x30]
00001600  2A2D FFCC                move.l     D5, [A5 - 0x34]
00001604  4267                     clr.w      -[A7]
00001606  2F2D FFF6                move.l     -[A7], [A5 - 0xA]
0000160A  4267                     clr.w      -[A7]
0000160C  486D FFD4                pea.l      [A5 - 0x2C]
00001610  486D FFD8                pea.l      [A5 - 0x28]
00001614  4EBA FF20                jsr        [PC - 0xE0 /* 00001536 */]
00001618  1D5F FFD5                move.b     [A6 - 0x2B], [A7]+
0000161C  2B6D F62A FFD0           move.l     [A5 - 0x30], [A5 - 0x9D6]
00001622  2B6D F622 FFCC           move.l     [A5 - 0x34], [A5 - 0x9DE]
00001628  422D EFE8                clr.b      [A5 - 0x1018]
0000162C  422D FFC7                clr.b      [A5 - 0x39]
00001630  7002                     moveq.l    D0, 0x02
00001632  B02D FFDC                cmp.b      D0, [A5 - 0x24]
00001636  57C0                     seq        D0
00001638  122D EFDF                move.b     D1, [A5 - 0x1021]
0000163C  0A01 0001                xori.b     D1, 0x1
00001640  C001                     and.b      D0, D1
00001642  6764                     beq        +0x66 /* 000016A8 */
00001644  7000                     moveq.l    D0, 0x00
00001646  302D FFE6                move.w     D0, [A5 - 0x1A]
0000164A  C0BC 0000 000F           and.l      D0, 0xF
00001650  3800                     move.w     D4, D0
00001652  7007                     moveq.l    D0, 0x07
00001654  B044                     cmp.w      D0, D4
00001656  57C0                     seq        D0
00001658  322D FFE4                move.w     D1, [A5 - 0x1C]
0000165C  927C 0012                sub.w      D1, 0x12
00001660  B26D FFF8                cmp.w      D1, [A5 - 0x8]
00001664  5DC1                     slt        D1
00001666  C001                     and.b      D0, D1
00001668  6708                     beq        +0xA /* 00001672 */
0000166A  1B7C 0001 FFC7           move.b     [A5 - 0x39], 0x1
00001670  6036                     bra        +0x38 /* 000016A8 */
label00001672:
00001672  7001                     moveq.l    D0, 0x01
00001674  B06D EFDC                cmp.w      D0, [A5 - 0x1024]
00001678  57C0                     seq        D0
0000167A  7201                     moveq.l    D1, 0x01
0000167C  B26D F02C                cmp.w      D1, [A5 - 0xFD4]
00001680  5DC1                     slt        D1
00001682  C001                     and.b      D0, D1
00001684  2F00                     move.l     -[A7], D0
00001686  4267                     clr.w      -[A7]
00001688  4EAD 1612                jsr        [A5 + 0x1612 /* export_702, CODE:15 @ 00001296 */]
0000168C  121F                     move.b     D1, [A7]+
0000168E  201F                     move.l     D0, [A7]+
00001690  0A01 0001                xori.b     D1, 0x1
00001694  C001                     and.b      D0, D1
00001696  122D FFDD                move.b     D1, [A5 - 0x23]
0000169A  0241 0001                andi.w     D1, 0x1
0000169E  0A01 0001                xori.b     D1, 0x1
000016A2  C001                     and.b      D0, D1
000016A4  1B40 EFE8                move.b     [A5 - 0x1018], D0
label000016A8:
000016A8  102E 0008                move.b     D0, [A6 + 0x8]
000016AC  0A00 0001                xori.b     D0, 0x1
000016B0  802D EFDF                or.b       D0, [A5 - 0x1021]
000016B4  6704                     beq        +0x6 /* 000016BA */
000016B6  6000 00A6                bra        +0xA8 /* 0000175E */
label000016BA:
000016BA  42A7                     clr.l      -[A7]
000016BC  A975                     syscall    TickCount
000016BE  202D FD8E                move.l     D0, [A5 - 0x272]
000016C2  D0BC 0000 012C           add.l      D0, 0x12C
000016C8  B09F                     cmp.l      D0, [A7]+
000016CA  6F04                     ble        +0x6 /* 000016D0 */
000016CC  6000 0090                bra        +0x92 /* 0000175E */
label000016D0:
000016D0  536D FDD8                subq.w     [A5 - 0x228], 1
000016D4  BEAD FFD4                cmp.l      D7, [A5 - 0x2C]
000016D8  57C0                     seq        D0
000016DA  322D FFDA                move.w     D1, [A5 - 0x26]
000016DE  B26E FFE4                cmp.w      D1, [A6 - 0x1C]
000016E2  57C1                     seq        D1
000016E4  C001                     and.b      D0, D1
000016E6  6724                     beq        +0x26 /* 0000170C */
000016E8  41ED E0E8                lea.l      A0, [A5 - 0x1F18]
000016EC  43FA 009A                lea.l      A1, [PC + 0x9A /* 00001788, value 0xB6D6F75, pstring "mouseWithin" */]
000016F0  20D9                     move.l     [A0]+, [A1]+
000016F2  20D9                     move.l     [A0]+, [A1]+
000016F4  20D9                     move.l     [A0]+, [A1]+
000016F6  2F2D FFD4                move.l     -[A7], [A5 - 0x2C]
000016FA  3F2D FFDA                move.w     -[A7], [A5 - 0x26]
000016FE  2F2D FFD0                move.l     -[A7], [A5 - 0x30]
00001702  2F2D FFCC                move.l     -[A7], [A5 - 0x34]
00001706  4EAD 0B9A                jsr        [A5 + 0xB9A /* export_367, CODE:8 @ 00004010 */]
0000170A  603E                     bra        +0x40 /* 0000174A */
label0000170C:
0000170C  41ED E0E8                lea.l      A0, [A5 - 0x1F18]
00001710  43FA 006A                lea.l      A1, [PC + 0x6A /* 0000177C, value 0xA6D6F75 '\nmou', pstring "mouseLeave" */]
00001714  20D9                     move.l     [A0]+, [A1]+
00001716  20D9                     move.l     [A0]+, [A1]+
00001718  20D9                     move.l     [A0]+, [A1]+
0000171A  2F07                     move.l     -[A7], D7
0000171C  3F2E FFE4                move.w     -[A7], [A6 - 0x1C]
00001720  2F06                     move.l     -[A7], D6
00001722  2F05                     move.l     -[A7], D5
00001724  4EAD 0B9A                jsr        [A5 + 0xB9A /* export_367, CODE:8 @ 00004010 */]
00001728  41ED E0E8                lea.l      A0, [A5 - 0x1F18]
0000172C  43FA 0042                lea.l      A1, [PC + 0x42 /* 00001770, value 0xA6D6F75 '\nmou', pstring "mouseEnter" */]
00001730  20D9                     move.l     [A0]+, [A1]+
00001732  20D9                     move.l     [A0]+, [A1]+
00001734  20D9                     move.l     [A0]+, [A1]+
00001736  2F2D FFD4                move.l     -[A7], [A5 - 0x2C]
0000173A  3F2D FFDA                move.w     -[A7], [A5 - 0x26]
0000173E  2F2D FFD0                move.l     -[A7], [A5 - 0x30]
00001742  2F2D FFCC                move.l     -[A7], [A5 - 0x34]
00001746  4EAD 0B9A                jsr        [A5 + 0xB9A /* export_367, CODE:8 @ 00004010 */]
label0000174A:
0000174A  41ED E0E8                lea.l      A0, [A5 - 0x1F18]
0000174E  43FA 001A                lea.l      A1, [PC + 0x1A /* 0000176A, value 0x469646C, pstring "idle" */]
00001752  20D9                     move.l     [A0]+, [A1]+
00001754  3091                     move.w     [A0], [A1]
00001756  4EAD 0B8A                jsr        [A5 + 0xB8A /* export_365, CODE:8 @ 00003F30 */]
0000175A  526D FDD8                addq.w     [A5 - 0x228], 1
label0000175E:
0000175E  4CDF 00F0                movem.l    D4,D5,D6,D7, [A7]+
00001762  4E5E                     unlink     A6
00001764  205F                     movea.l    A0, [A7]+
00001766  544F                     addq.w     A7, 2
00001768  4ED0                     jmp        [A0]
0000176A  0469 646C 6500           subi.w     [A1 + 0x6500], 0x646C /* 'dl' */
00001770  0A6D 6F75 7365           xori.w     [A5 + 0x7365], 0x6F75 /* 'ou' */
00001776  456E 7465                chk.w      D2, [A6 + 0x7465]
0000177A  7200                     moveq.l    D1, 0x00
0000177C  0A6D 6F75 7365           xori.w     [A5 + 0x7365], 0x6F75 /* 'ou' */
00001782  4C65 6176                divu.l     D6:D6, -[A5]
00001786  6500 0B6D                bcs        +0xB6F /* 000022F5 */
0000178A  6F75                     ble        +0x77 /* 00001801 */
0000178C  7365                     moveq.l    D1, 0x65
0000178E  5769 7468                subq.w     [A1 + 0x7468], 3
00001792  696E                     bvs        +0x70 /* 00001802 */
00001794  4E56 FFE6                link       A6, -0x001A
00001798  48E7 0318                movem.l    -[A7], D6,D7,A3,A4
0000179C  206E 0014                movea.l    A0, [A6 + 0x14]
000017A0  43EE FFF8                lea.l      A1, [A6 - 0x8]
000017A4  22D8                     move.l     [A1]+, [A0]+
000017A6  22D8                     move.l     [A1]+, [A0]+
000017A8  3C2E 001A                move.w     D6, [A6 + 0x1A]
000017AC  7001                     moveq.l    D0, 0x01
000017AE  B046                     cmp.w      D0, D6
000017B0  57C0                     seq        D0
000017B2  7202                     moveq.l    D1, 0x02
000017B4  B26E 000C                cmp.w      D1, [A6 + 0xC]
000017B8  57C1                     seq        D1
000017BA  C001                     and.b      D0, D1
000017BC  6776                     beq        +0x78 /* 00001834 */
000017BE  206E 0008                movea.l    A0, [A6 + 0x8]
000017C2  2050                     movea.l    A0, [A0]
000017C4  2068 0050                movea.l    A0, [A0 + 0x50]
000017C8  302E 000E                move.w     D0, [A6 + 0xE]
000017CC  48C0                     ext.l      D0
000017CE  2640                     movea.l    A3, D0
000017D0  D7D0                     add.l      A3, [A0]
000017D2  3E13                     move.w     D7, [A3]
000017D4  42A7                     clr.l      -[A7]
000017D6  3F07                     move.w     -[A7], D7
000017D8  A9BB                     syscall    GetIcon
000017DA  285F                     movea.l    A4, [A7]+
000017DC  200C                     move.l     D0, A4
000017DE  6754                     beq        +0x56 /* 00001834 */
000017E0  302E FFFE                move.w     D0, [A6 - 0x2]
000017E4  D06E FFFA                add.w      D0, [A6 - 0x6]
000017E8  48C0                     ext.l      D0
000017EA  81FC 0002                divs.w     D0, 0x2
000017EE  907C 0010                sub.w      D0, 0x10
000017F2  3D40 FFEE                move.w     [A6 - 0x12], D0
000017F6  302E FFFC                move.w     D0, [A6 - 0x4]
000017FA  D06E FFF8                add.w      D0, [A6 - 0x8]
000017FE  48C0                     ext.l      D0
00001800  81FC 0002                divs.w     D0, 0x2
// begin alternate branch 00001802-0000180C
label00001802:
00001802  0002 907C                ori.b      D2, 0x7C /* '|' */
00001806  0010 3D40                ori.b      [A0], 0x40 /* '@' */
0000180A  FFEC                     .invalid   <<F/7/7>>
// end alternate branch 00001802-0000180C
label00001802: // (misaligned)
00001804  907C 0010                sub.w      D0, 0x10
00001808  3D40 FFEC                move.w     [A6 - 0x14], D0
0000180C  302E FFEE                move.w     D0, [A6 - 0x12]
00001810  D07C 0020                add.w      D0, 0x20 /* ' ' */
00001814  3D40 FFF2                move.w     [A6 - 0xE], D0
00001818  302E FFEC                move.w     D0, [A6 - 0x14]
0000181C  D07C 0020                add.w      D0, 0x20 /* ' ' */
00001820  3D40 FFF0                move.w     [A6 - 0x10], D0
00001824  486E FFEC                pea.l      [A6 - 0x14]
00001828  2F0C                     move.l     -[A7], A4
0000182A  A94B                     syscall    PlotIcon
0000182C  102E 0018                move.b     D0, [A6 + 0x18]
00001830  6702                     beq        +0x4 /* 00001834 */
00001832  7C02                     moveq.l    D6, 0x02
label00001834:
00001834  7002                     moveq.l    D0, 0x02
00001836  B046                     cmp.w      D0, D6
00001838  6606                     bne        +0x8 /* 00001840 */
0000183A  486E FFF8                pea.l      [A6 - 0x8]
0000183E  A8A4                     syscall    InvertRect
label00001840:
00001840  4CDF 18C0                movem.l    D6,D7,A3,A4, [A7]+
00001844  4E5E                     unlink     A6
00001846  205F                     movea.l    A0, [A7]+
00001848  DEFC 0014                add.w      A7, 0x14
0000184C  4ED0                     jmp        [A0]
export_8:
fn0000184E:
0000184E  4E56 0000                link       A6, 0
00001852  486D FFA8                pea.l      [A5 - 0x58]
00001856  701E                     moveq.l    D0, 0x1E
00001858  2F00                     move.l     -[A7], D0
0000185A  4EAD 1B42                jsr        [A5 + 0x1B42 /* export_868, CODE:16 @ 00001E7C */]
0000185E  7000                     moveq.l    D0, 0x00
00001860  2B40 FFA4                move.l     [A5 - 0x5C], D0
00001864  7000                     moveq.l    D0, 0x00
00001866  2B40 FFA0                move.l     [A5 - 0x60], D0
0000186A  7000                     moveq.l    D0, 0x00
0000186C  2B40 FF9C                move.l     [A5 - 0x64], D0
00001870  4AAD FF98                tst.l      [A5 - 0x68]
00001874  670E                     beq        +0x10 /* 00001884 */
00001876  2F2D FF98                move.l     -[A7], [A5 - 0x68]
0000187A  4EAD 201A                jsr        [A5 + 0x201A /* export_1023, CODE:20 @ 000002FA */]
0000187E  7000                     moveq.l    D0, 0x00
00001880  2B40 FF98                move.l     [A5 - 0x68], D0
label00001884:
00001884  4E5E                     unlink     A6
00001886  4E75                     rts
export_9:
00001888  4E56 FDCA                link       A6, -0x0236
0000188C  48E7 0F18                movem.l    -[A7], D4,D5,D6,D7,A3,A4
00001890  7001                     moveq.l    D0, 0x01
00001892  B06D F02C                cmp.w      D0, [A5 - 0xFD4]
00001896  5DC0                     slt        D0
00001898  122D F4CD                move.b     D1, [A5 - 0xB33]
0000189C  0A01 0001                xori.b     D1, 0x1
000018A0  C001                     and.b      D0, D1
000018A2  1E00                     move.b     D7, D0
000018A4  7001                     moveq.l    D0, 0x01
000018A6  B06D F02C                cmp.w      D0, [A5 - 0xFD4]
000018AA  5DC0                     slt        D0
000018AC  2207                     move.l     D1, D7
000018AE  822D F015                or.b       D1, [A5 - 0xFEB]
000018B2  C001                     and.b      D0, D1
000018B4  1C00                     move.b     D6, D0
000018B6  102D EFED                move.b     D0, [A5 - 0x1013]
000018BA  0A00 0001                xori.b     D0, 0x1
000018BE  2206                     move.l     D1, D6
000018C0  8200                     or.b       D1, D0
000018C2  1801                     move.b     D4, D1
000018C4  4EAD 1772                jsr        [A5 + 0x1772 /* export_746, CODE:15 @ 000055D6 */]
000018C8  7002                     moveq.l    D0, 0x02
000018CA  B06D F02C                cmp.w      D0, [A5 - 0xFD4]
000018CE  6C16                     bge        +0x18 /* 000018E6 */
000018D0  286D EEAC                movea.l    A4, [A5 - 0x1154]
000018D4  266D EEDC                movea.l    A3, [A5 - 0x1124]
000018D8  2F0C                     move.l     -[A7], A4
000018DA  3F3C 0005                move.w     -[A7], 0x5
000018DE  1F04                     move.b     -[A7], D4
000018E0  4EAD 170A                jsr        [A5 + 0x170A /* export_733, CODE:15 @ 000046EC */]
000018E4  6028                     bra        +0x2A /* 0000190E */
label000018E6:
000018E6  286D EECC                movea.l    A4, [A5 - 0x1134]
000018EA  266D EEFC                movea.l    A3, [A5 - 0x1104]
000018EE  2F0C                     move.l     -[A7], A4
000018F0  3F3C 0005                move.w     -[A7], 0x5
000018F4  7001                     moveq.l    D0, 0x01
000018F6  B02D E2BB                cmp.b      D0, [A5 - 0x1D45]
000018FA  57C0                     seq        D0
000018FC  4A2D E2BB                tst.b      [A5 - 0x1D45]
00001900  57C1                     seq        D1
00001902  8001                     or.b       D0, D1
00001904  2204                     move.l     D1, D4
00001906  C200                     and.b      D1, D0
00001908  1F01                     move.b     -[A7], D1
0000190A  4EAD 170A                jsr        [A5 + 0x170A /* export_733, CODE:15 @ 000046EC */]
label0000190E:
0000190E  2F0C                     move.l     -[A7], A4
00001910  3F3C 0005                move.w     -[A7], 0x5
00001914  486E FDCA                pea.l      [A6 - 0x236]
00001918  3F3C 0007                move.w     -[A7], 0x7
0000191C  4EAD 209A                jsr        [A5 + 0x209A /* export_1039, CODE:20 @ 00000F60 */]
00001920  486D E2A6                pea.l      [A5 - 0x1D5A]
00001924  486E FECA                pea.l      [A6 - 0x136]
00001928  3F3C 0002                move.w     -[A7], 0x2
0000192C  4EBA 39F0                jsr        [PC + 0x39F0 /* 0000531E */]
00001930  486E FECA                pea.l      [A6 - 0x136]
00001934  A947                     syscall    SetMenuItemText/SetItem
00001936  2F0B                     move.l     -[A7], A3
00001938  3F3C 0005                move.w     -[A7], 0x5
0000193C  487A 033C                pea.l      [PC + 0x33C /* 00001C7A, value 0x6506173, pstring "Paste " */]
00001940  486D E292                pea.l      [A5 - 0x1D6E]
00001944  486E FFB0                pea.l      [A6 - 0x50]
00001948  3F3C 0002                move.w     -[A7], 0x2
0000194C  4EBA 39D0                jsr        [PC + 0x39D0 /* 0000531E */]
00001950  486E FFB0                pea.l      [A6 - 0x50]
00001954  A947                     syscall    SetMenuItemText/SetItem
00001956  1A2D EFED                move.b     D5, [A5 - 0x1013]
0000195A  0A05 0001                xori.b     D5, 0x1
0000195E  422E FFE4                clr.b      [A6 - 0x1C]
00001962  422E FFD0                clr.b      [A6 - 0x30]
00001966  102D EFED                move.b     D0, [A5 - 0x1013]
0000196A  6700 00E8                beq        +0xEA /* 00001A54 */
0000196E  206D EDAC                movea.l    A0, [A5 - 0x1254]
00001972  2050                     movea.l    A0, [A0]
00001974  226D EDAC                movea.l    A1, [A5 - 0x1254]
00001978  2251                     movea.l    A1, [A1]
0000197A  3028 0020                move.w     D0, [A0 + 0x20]
0000197E  B069 0022                cmp.w      D0, [A1 + 0x22]
00001982  6C28                     bge        +0x2A /* 000019AC */
00001984  7A01                     moveq.l    D5, 0x01
00001986  486E FDCA                pea.l      [A6 - 0x236]
0000198A  3F3C 0009                move.w     -[A7], 0x9 /* '\t' */
0000198E  4EAD 209A                jsr        [A5 + 0x209A /* export_1039, CODE:20 @ 00000F60 */]
00001992  205F                     movea.l    A0, [A7]+
00001994  43EE FFE4                lea.l      A1, [A6 - 0x1C]
00001998  7004                     moveq.l    D0, 0x04
label0000199A:
0000199A  22D8                     move.l     [A1]+, [A0]+
0000199C  51C8 FFFC                dbf        D0, -0x6 /* 0000199A */
000019A0  41EE FFD0                lea.l      A0, [A6 - 0x30]
000019A4  43FA 02CE                lea.l      A1, [PC + 0x2CE /* 00001C74, value 0x4546578, pstring "Text" */]
000019A8  20D9                     move.l     [A0]+, [A1]+
000019AA  3091                     move.w     [A0], [A1]
label000019AC:
000019AC  206D E246                movea.l    A0, [A5 - 0x1DBA]
000019B0  2050                     movea.l    A0, [A0]
000019B2  226D E246                movea.l    A1, [A5 - 0x1DBA]
000019B6  2251                     movea.l    A1, [A1]
000019B8  3028 0020                move.w     D0, [A0 + 0x20]
000019BC  B069 0022                cmp.w      D0, [A1 + 0x22]
000019C0  5DC0                     slt        D0
000019C2  C02D E245                and.b      D0, [A5 - 0x1DBB]
000019C6  6728                     beq        +0x2A /* 000019F0 */
000019C8  7A01                     moveq.l    D5, 0x01
000019CA  486E FDCA                pea.l      [A6 - 0x236]
000019CE  3F3C 0009                move.w     -[A7], 0x9 /* '\t' */
000019D2  4EAD 209A                jsr        [A5 + 0x209A /* export_1039, CODE:20 @ 00000F60 */]
000019D6  205F                     movea.l    A0, [A7]+
000019D8  43EE FFE4                lea.l      A1, [A6 - 0x1C]
000019DC  7004                     moveq.l    D0, 0x04
label000019DE:
000019DE  22D8                     move.l     [A1]+, [A0]+
000019E0  51C8 FFFC                dbf        D0, -0x6 /* 000019DE */
000019E4  41EE FFD0                lea.l      A0, [A6 - 0x30]
000019E8  43FA 028A                lea.l      A1, [PC + 0x28A /* 00001C74, value 0x4546578, pstring "Text" */]
000019EC  20D9                     move.l     [A0]+, [A1]+
000019EE  3091                     move.w     [A0], [A1]
label000019F0:
000019F0  4A6D E276                tst.w      [A5 - 0x1D8A]
000019F4  675E                     beq        +0x60 /* 00001A54 */
000019F6  7A01                     moveq.l    D5, 0x01
000019F8  7001                     moveq.l    D0, 0x01
000019FA  B02D E278                cmp.b      D0, [A5 - 0x1D88]
000019FE  6626                     bne        +0x28 /* 00001A26 */
00001A00  486E FDCA                pea.l      [A6 - 0x236]
00001A04  3F3C 000A                move.w     -[A7], 0xA /* '\n' */
00001A08  4EAD 209A                jsr        [A5 + 0x209A /* export_1039, CODE:20 @ 00000F60 */]
00001A0C  205F                     movea.l    A0, [A7]+
00001A0E  43EE FFE4                lea.l      A1, [A6 - 0x1C]
00001A12  7004                     moveq.l    D0, 0x04
label00001A14:
00001A14  22D8                     move.l     [A1]+, [A0]+
00001A16  51C8 FFFC                dbf        D0, -0x6 /* 00001A14 */
00001A1A  41EE FFD0                lea.l      A0, [A6 - 0x30]
00001A1E  43FA 024C                lea.l      A1, [PC + 0x24C /* 00001C6C, value 0x6427574, pstring "Button" */]
00001A22  20D9                     move.l     [A0]+, [A1]+
00001A24  20D9                     move.l     [A0]+, [A1]+
label00001A26:
00001A26  7002                     moveq.l    D0, 0x02
00001A28  B02D E278                cmp.b      D0, [A5 - 0x1D88]
00001A2C  6626                     bne        +0x28 /* 00001A54 */
00001A2E  486E FDCA                pea.l      [A6 - 0x236]
00001A32  3F3C 000B                move.w     -[A7], 0xB
00001A36  4EAD 209A                jsr        [A5 + 0x209A /* export_1039, CODE:20 @ 00000F60 */]
00001A3A  205F                     movea.l    A0, [A7]+
00001A3C  43EE FFE4                lea.l      A1, [A6 - 0x1C]
00001A40  7004                     moveq.l    D0, 0x04
label00001A42:
00001A42  22D8                     move.l     [A1]+, [A0]+
00001A44  51C8 FFFC                dbf        D0, -0x6 /* 00001A42 */
00001A48  41EE FFD0                lea.l      A0, [A6 - 0x30]
00001A4C  43FA 0218                lea.l      A1, [PC + 0x218 /* 00001C66, value 0x5466965, pstring "Field" */]
00001A50  20D9                     move.l     [A0]+, [A1]+
00001A52  3091                     move.w     [A0], [A1]
label00001A54:
00001A54  2F0C                     move.l     -[A7], A4
00001A56  3F3C 0003                move.w     -[A7], 0x3
00001A5A  486E FDCA                pea.l      [A6 - 0x236]
00001A5E  3F3C 0004                move.w     -[A7], 0x4
00001A62  4EAD 209A                jsr        [A5 + 0x209A /* export_1039, CODE:20 @ 00000F60 */]
00001A66  486E FFE4                pea.l      [A6 - 0x1C]
00001A6A  486E FECA                pea.l      [A6 - 0x136]
00001A6E  3F3C 0002                move.w     -[A7], 0x2
00001A72  4EBA 38AA                jsr        [PC + 0x38AA /* 0000531E */]
00001A76  486E FECA                pea.l      [A6 - 0x136]
00001A7A  A947                     syscall    SetMenuItemText/SetItem
00001A7C  2F0B                     move.l     -[A7], A3
00001A7E  3F3C 0003                move.w     -[A7], 0x3
00001A82  487A 01DC                pea.l      [PC + 0x1DC /* 00001C60, value 0x4437574, pstring "Cut " */]
00001A86  486E FFD0                pea.l      [A6 - 0x30]
00001A8A  486E FFB2                pea.l      [A6 - 0x4E]
00001A8E  3F3C 0002                move.w     -[A7], 0x2
00001A92  4EBA 388A                jsr        [PC + 0x388A /* 0000531E */]
00001A96  486E FFB2                pea.l      [A6 - 0x4E]
00001A9A  A947                     syscall    SetMenuItemText/SetItem
00001A9C  2F0C                     move.l     -[A7], A4
00001A9E  3F3C 0004                move.w     -[A7], 0x4
00001AA2  486E FDCA                pea.l      [A6 - 0x236]
00001AA6  3F3C 0005                move.w     -[A7], 0x5
00001AAA  4EAD 209A                jsr        [A5 + 0x209A /* export_1039, CODE:20 @ 00000F60 */]
00001AAE  486E FFE4                pea.l      [A6 - 0x1C]
00001AB2  486E FECA                pea.l      [A6 - 0x136]
00001AB6  3F3C 0002                move.w     -[A7], 0x2
00001ABA  4EBA 3862                jsr        [PC + 0x3862 /* 0000531E */]
00001ABE  486E FECA                pea.l      [A6 - 0x136]
00001AC2  A947                     syscall    SetMenuItemText/SetItem
00001AC4  2F0B                     move.l     -[A7], A3
00001AC6  3F3C 0004                move.w     -[A7], 0x4
00001ACA  487A 018E                pea.l      [PC + 0x18E /* 00001C5A, value 0x5436F70, pstring "Copy " */]
00001ACE  486E FFD0                pea.l      [A6 - 0x30]
00001AD2  486E FFB0                pea.l      [A6 - 0x50]
00001AD6  3F3C 0002                move.w     -[A7], 0x2
00001ADA  4EBA 3842                jsr        [PC + 0x3842 /* 0000531E */]
00001ADE  486E FFB0                pea.l      [A6 - 0x50]
00001AE2  A947                     syscall    SetMenuItemText/SetItem
00001AE4  2F0C                     move.l     -[A7], A4
00001AE6  3F3C 0006                move.w     -[A7], 0x6
00001AEA  486E FDCA                pea.l      [A6 - 0x236]
00001AEE  3F3C 0006                move.w     -[A7], 0x6
00001AF2  4EAD 209A                jsr        [A5 + 0x209A /* export_1039, CODE:20 @ 00000F60 */]
00001AF6  486E FFE4                pea.l      [A6 - 0x1C]
00001AFA  486E FECA                pea.l      [A6 - 0x136]
00001AFE  3F3C 0002                move.w     -[A7], 0x2
00001B02  4EBA 381A                jsr        [PC + 0x381A /* 0000531E */]
00001B06  486E FECA                pea.l      [A6 - 0x136]
00001B0A  A947                     syscall    SetMenuItemText/SetItem
00001B0C  2F0B                     move.l     -[A7], A3
00001B0E  3F3C 0006                move.w     -[A7], 0x6
00001B12  487A 013E                pea.l      [PC + 0x13E /* 00001C52, value 0x6436C65, pstring "Clear " */]
00001B16  486E FFD0                pea.l      [A6 - 0x30]
00001B1A  486E FFB0                pea.l      [A6 - 0x50]
00001B1E  3F3C 0002                move.w     -[A7], 0x2
00001B22  4EBA 37FA                jsr        [PC + 0x37FA /* 0000531E */]
00001B26  486E FFB0                pea.l      [A6 - 0x50]
00001B2A  A947                     syscall    SetMenuItemText/SetItem
00001B2C  2F0C                     move.l     -[A7], A4
00001B2E  3F3C 0003                move.w     -[A7], 0x3
00001B32  2005                     move.l     D0, D5
00001B34  C004                     and.b      D0, D4
00001B36  1F00                     move.b     -[A7], D0
00001B38  4EAD 170A                jsr        [A5 + 0x170A /* export_733, CODE:15 @ 000046EC */]
00001B3C  2F0C                     move.l     -[A7], A4
00001B3E  3F3C 0004                move.w     -[A7], 0x4
00001B42  1F05                     move.b     -[A7], D5
00001B44  4EAD 170A                jsr        [A5 + 0x170A /* export_733, CODE:15 @ 000046EC */]
00001B48  2F0C                     move.l     -[A7], A4
00001B4A  3F3C 0006                move.w     -[A7], 0x6
00001B4E  2005                     move.l     D0, D5
00001B50  C004                     and.b      D0, D4
00001B52  1F00                     move.b     -[A7], D0
00001B54  4EAD 170A                jsr        [A5 + 0x170A /* export_733, CODE:15 @ 000046EC */]
00001B58  2F0C                     move.l     -[A7], A4
00001B5A  3F3C 0008                move.w     -[A7], 0x8
00001B5E  1F07                     move.b     -[A7], D7
00001B60  4EAD 170A                jsr        [A5 + 0x170A /* export_733, CODE:15 @ 000046EC */]
00001B64  2F0C                     move.l     -[A7], A4
00001B66  3F3C 0009                move.w     -[A7], 0x9 /* '\t' */
00001B6A  1F07                     move.b     -[A7], D7
00001B6C  4EAD 170A                jsr        [A5 + 0x170A /* export_733, CODE:15 @ 000046EC */]
00001B70  7002                     moveq.l    D0, 0x02
00001B72  B02D E278                cmp.b      D0, [A5 - 0x1D88]
00001B76  57C0                     seq        D0
00001B78  802D E245                or.b       D0, [A5 - 0x1DBB]
00001B7C  0240 0001                andi.w     D0, 0x1
00001B80  1D40 FFCF                move.b     [A6 - 0x31], D0
00001B84  7002                     moveq.l    D0, 0x02
00001B86  B06D F02C                cmp.w      D0, [A5 - 0xFD4]
00001B8A  6C2A                     bge        +0x2C /* 00001BB6 */
00001B8C  2F0C                     move.l     -[A7], A4
00001B8E  3F3C 000A                move.w     -[A7], 0xA /* '\n' */
00001B92  1F07                     move.b     -[A7], D7
00001B94  4EAD 170A                jsr        [A5 + 0x170A /* export_733, CODE:15 @ 000046EC */]
00001B98  2F0C                     move.l     -[A7], A4
00001B9A  3F3C 000D                move.w     -[A7], 0xD /* '\r' */
00001B9E  1006                     move.b     D0, D6
00001BA0  C02E FFCF                and.b      D0, [A6 - 0x31]
00001BA4  1F00                     move.b     -[A7], D0
00001BA6  4EAD 170A                jsr        [A5 + 0x170A /* export_733, CODE:15 @ 000046EC */]
00001BAA  2F0C                     move.l     -[A7], A4
00001BAC  3F3C 000E                move.w     -[A7], 0xE
00001BB0  1F2D EFDF                move.b     -[A7], [A5 - 0x1021]
00001BB4  A945                     syscall    CheckItem
label00001BB6:
00001BB6  286D EEB8                movea.l    A4, [A5 - 0x1148]
00001BBA  2F0C                     move.l     -[A7], A4
00001BBC  3F3C 0007                move.w     -[A7], 0x7
00001BC0  4A6D E276                tst.w      [A5 - 0x1D8A]
00001BC4  56C0                     sne        D0
00001BC6  2206                     move.l     D1, D6
00001BC8  C200                     and.b      D1, D0
00001BCA  1F01                     move.b     -[A7], D1
00001BCC  4EAD 170A                jsr        [A5 + 0x170A /* export_733, CODE:15 @ 000046EC */]
00001BD0  2F0C                     move.l     -[A7], A4
00001BD2  3F3C 0008                move.w     -[A7], 0x8
00001BD6  4A6D E276                tst.w      [A5 - 0x1D8A]
00001BDA  56C0                     sne        D0
00001BDC  2206                     move.l     D1, D6
00001BDE  C200                     and.b      D1, D0
00001BE0  1F01                     move.b     -[A7], D1
00001BE2  4EAD 170A                jsr        [A5 + 0x170A /* export_733, CODE:15 @ 000046EC */]
00001BE6  2F0C                     move.l     -[A7], A4
00001BE8  3F3C 0001                move.w     -[A7], 0x1
00001BEC  7001                     moveq.l    D0, 0x01
00001BEE  B02D E278                cmp.b      D0, [A5 - 0x1D88]
00001BF2  57C0                     seq        D0
00001BF4  4400                     neg.b      D0
00001BF6  1F00                     move.b     -[A7], D0
00001BF8  4EAD 170A                jsr        [A5 + 0x170A /* export_733, CODE:15 @ 000046EC */]
00001BFC  2F0C                     move.l     -[A7], A4
00001BFE  3F3C 0002                move.w     -[A7], 0x2
00001C02  1F2E FFCF                move.b     -[A7], [A6 - 0x31]
00001C06  4EAD 170A                jsr        [A5 + 0x170A /* export_733, CODE:15 @ 000046EC */]
00001C0A  2F0C                     move.l     -[A7], A4
00001C0C  3F3C 000A                move.w     -[A7], 0xA /* '\n' */
00001C10  1F06                     move.b     -[A7], D6
00001C12  4EAD 170A                jsr        [A5 + 0x170A /* export_733, CODE:15 @ 000046EC */]
00001C16  2F0C                     move.l     -[A7], A4
00001C18  3F3C 000B                move.w     -[A7], 0xB
00001C1C  1F06                     move.b     -[A7], D6
00001C1E  4EAD 170A                jsr        [A5 + 0x170A /* export_733, CODE:15 @ 000046EC */]
00001C22  2F0C                     move.l     -[A7], A4
00001C24  3F3C 000C                move.w     -[A7], 0xC
00001C28  1F07                     move.b     -[A7], D7
00001C2A  4EAD 170A                jsr        [A5 + 0x170A /* export_733, CODE:15 @ 000046EC */]
00001C2E  286D EEA8                movea.l    A4, [A5 - 0x1158]
00001C32  2F0C                     move.l     -[A7], A4
00001C34  3F3C 0005                move.w     -[A7], 0x5
00001C38  1F07                     move.b     -[A7], D7
00001C3A  4EAD 170A                jsr        [A5 + 0x170A /* export_733, CODE:15 @ 000046EC */]
00001C3E  2F0C                     move.l     -[A7], A4
00001C40  3F3C 0007                move.w     -[A7], 0x7
00001C44  1F07                     move.b     -[A7], D7
00001C46  4EAD 170A                jsr        [A5 + 0x170A /* export_733, CODE:15 @ 000046EC */]
00001C4A  4CDF 18F0                movem.l    D4,D5,D6,D7,A3,A4, [A7]+
00001C4E  4E5E                     unlink     A6
00001C50  4E75                     rts
00001C52  0643 6C65                addi.w     D3, 0x6C65 /* 'le' */
00001C56  6172                     bsr        +0x74 /* 00001CCA */
00001C58  2000                     move.l     D0, D0
00001C5A  0543                     bchg       D3, D2
00001C5C  6F70                     ble        +0x72 /* 00001CCE */
00001C5E  7920                     moveq.l    D4, 0x20
00001C60  0443 7574                subi.w     D3, 0x7574 /* 'ut' */
00001C64  2000                     move.l     D0, D0
00001C66  0546                     bchg       D6, D2
00001C68  6965                     bvs        +0x67 /* 00001CCF */
00001C6A  6C64                     bge        +0x66 /* 00001CD0 */
00001C6C  0642 7574                addi.w     D2, 0x7574 /* 'ut' */
00001C70  746F                     moveq.l    D2, 0x6F
00001C72  6E00 0454                bgt        +0x456 /* 000020C8 */
00001C76  6578                     bcs        +0x7A /* 00001CF0 */
00001C78  7400                     moveq.l    D2, 0x00
00001C7A  0650 6173                addi.w     [A0], 0x6173 /* 'as' */
00001C7E  7465                     moveq.l    D2, 0x65
00001C80  2000                     move.l     D0, D0
export_10:
00001C82  4E56 0000                link       A6, 0
00001C86  4EAD 17B2                jsr        [A5 + 0x17B2 /* export_754, CODE:15 @ 000064EE */]
00001C8A  4EBA 08BC                jsr        [PC + 0x8BC /* 00002548 */]
00001C8E  3F2E 0008                move.w     -[A7], [A6 + 0x8]
00001C92  4EBA 191C                jsr        [PC + 0x191C /* 000035B0 */]
00001C96  7001                     moveq.l    D0, 0x01
00001C98  B06E 0008                cmp.w      D0, [A6 + 0x8]
00001C9C  57C0                     seq        D0
00001C9E  C02D EFDF                and.b      D0, [A5 - 0x1021]
00001CA2  6704                     beq        +0x6 /* 00001CA8 */
00001CA4  4EAD 08BA                jsr        [A5 + 0x8BA /* export_275, CODE:7 @ 000037D8 */]
label00001CA8:
00001CA8  4E5E                     unlink     A6
00001CAA  205F                     movea.l    A0, [A7]+
00001CAC  544F                     addq.w     A7, 2
00001CAE  4ED0                     jmp        [A0]
fn00001CB0:
00001CB0  4E56 0000                link       A6, 0
00001CB4  102D EFED                move.b     D0, [A5 - 0x1013]
00001CB8  6608                     bne        +0xA /* 00001CC2 */
00001CBA  4EAD 1812                jsr        [A5 + 0x1812 /* export_766, CODE:16 @ 00000208 */]
00001CBE  6000 008E                bra        +0x90 /* 00001D4E */
label00001CC2:
00001CC2  7001                     moveq.l    D0, 0x01
00001CC4  B06D EFDC                cmp.w      D0, [A5 - 0x1024]
00001CC8  6704                     beq        +0x6 /* 00001CCE */
fn00001CCA:
00001CCA  4EAD 160A                jsr        [A5 + 0x160A /* export_701, CODE:15 @ 00001282 */]
label00001CCE:
00001CCE  486D F022                pea.l      [A5 - 0xFDE]
// begin alternate branch 00001CD0-00001CD4
label00001CD0:
00001CD0  F022 A871                pflushr    -[A2]
// end alternate branch 00001CD0-00001CD4
label00001CD0: // (misaligned)
00001CD2  A871                     syscall    GlobalToLocal
00001CD4  4EAD 173A                jsr        [A5 + 0x173A /* export_739, CODE:15 @ 00004FD6 */]
00001CD8  4267                     clr.w      -[A7]
00001CDA  4EAD 1612                jsr        [A5 + 0x1612 /* export_702, CODE:15 @ 00001296 */]
00001CDE  4267                     clr.w      -[A7]
00001CE0  4EAD 2142                jsr        [A5 + 0x2142 /* export_1060, CODE:20 @ 000023F6 */]
00001CE4  101F                     move.b     D0, [A7]+
00001CE6  C01F                     and.b      D0, [A7]+
00001CE8  6702                     beq        +0x4 /* 00001CEC */
00001CEA  6062                     bra        +0x64 /* 00001D4E */
label00001CEC:
00001CEC  302D EFDC                move.w     D0, [A5 - 0x1024]
label00001CF0:
00001CF0  5340                     subq.w     D0, 1
00001CF2  670A                     beq        +0xC /* 00001CFE */
00001CF4  5340                     subq.w     D0, 1
00001CF6  671C                     beq        +0x1E /* 00001D14 */
00001CF8  5340                     subq.w     D0, 1
00001CFA  6736                     beq        +0x38 /* 00001D32 */
00001CFC  6050                     bra        +0x52 /* 00001D4E */
label00001CFE:
00001CFE  102D EFE8                move.b     D0, [A5 - 0x1018]
00001D02  802D FFC7                or.b       D0, [A5 - 0x39]
00001D06  6706                     beq        +0x8 /* 00001D0E */
00001D08  4EBA F248                jsr        [PC - 0xDB8 /* 00000F52 */]
00001D0C  6040                     bra        +0x42 /* 00001D4E */
label00001D0E:
00001D0E  4EBA EB94                jsr        [PC - 0x146C /* 000008A4 */]
00001D12  603A                     bra        +0x3C /* 00001D4E */
label00001D14:
00001D14  102D F004                move.b     D0, [A5 - 0xFFC]
00001D18  670E                     beq        +0x10 /* 00001D28 */
00001D1A  3F3C 0001                move.w     -[A7], 0x1
00001D1E  1F3C 0001                move.b     -[A7], 0x1
00001D22  4EAD 0862                jsr        [A5 + 0x862 /* export_264, CODE:7 @ 0000008C */]
00001D26  6026                     bra        +0x28 /* 00001D4E */
label00001D28:
00001D28  3F3C 0001                move.w     -[A7], 0x1
00001D2C  4EAD 086A                jsr        [A5 + 0x86A /* export_265, CODE:7 @ 000003B8 */]
00001D30  601C                     bra        +0x1E /* 00001D4E */
label00001D32:
00001D32  102D F004                move.b     D0, [A5 - 0xFFC]
00001D36  670E                     beq        +0x10 /* 00001D46 */
00001D38  3F3C 0002                move.w     -[A7], 0x2
00001D3C  1F3C 0001                move.b     -[A7], 0x1
00001D40  4EAD 0862                jsr        [A5 + 0x862 /* export_264, CODE:7 @ 0000008C */]
00001D44  6008                     bra        +0xA /* 00001D4E */
label00001D46:
00001D46  3F3C 0002                move.w     -[A7], 0x2
00001D4A  4EAD 086A                jsr        [A5 + 0x86A /* export_265, CODE:7 @ 000003B8 */]
label00001D4E:
00001D4E  4E5E                     unlink     A6
00001D50  4E75                     rts
export_11:
fn00001D52:
00001D52  4E56 FFE4                link       A6, -0x001C
00001D56  48E7 0F00                movem.l    -[A7], D4,D5,D6,D7
00001D5A  102D FD8D                move.b     D0, [A5 - 0x273]
00001D5E  671E                     beq        +0x20 /* 00001D7E */
00001D60  2F3C 0000 000A           move.l     -[A7], 0xA /* '\n' */
00001D66  201F                     move.l     D0, [A7]+
00001D68  A032                     syscall    FlushEvents
00001D6A  4EAD 0C1A                jsr        [A5 + 0xC1A /* export_383, CODE:8 @ 00004674 */]
00001D6E  422D FD8D                clr.b      [A5 - 0x273]
00001D72  42A7                     clr.l      -[A7]
00001D74  A975                     syscall    TickCount
00001D76  2B5F FD8E                move.l     [A5 - 0x272], [A7]+
00001D7A  6000 03BE                bra        +0x3C0 /* 0000213A */
label00001D7E:
00001D7E  102D EFED                move.b     D0, [A5 - 0x1013]
00001D82  670A                     beq        +0xC /* 00001D8E */
00001D84  2F2D F022                move.l     -[A7], [A5 - 0xFDE]
00001D88  4267                     clr.w      -[A7]
00001D8A  4EBA 18C8                jsr        [PC + 0x18C8 /* 00003654 */]
label00001D8E:
00001D8E  4267                     clr.w      -[A7]
00001D90  486D F018                pea.l      [A5 - 0xFE8]
00001D94  A97F                     syscall    IsDialogEvent
00001D96  7003                     moveq.l    D0, 0x03
00001D98  B06D F018                cmp.w      D0, [A5 - 0xFE8]
00001D9C  56C0                     sne        D0
00001D9E  C01F                     and.b      D0, [A7]+
00001DA0  7205                     moveq.l    D1, 0x05
00001DA2  B26D F018                cmp.w      D1, [A5 - 0xFE8]
00001DA6  56C1                     sne        D1
00001DA8  C001                     and.b      D0, D1
00001DAA  7208                     moveq.l    D1, 0x08
00001DAC  B26D F018                cmp.w      D1, [A5 - 0xFE8]
00001DB0  56C1                     sne        D1
00001DB2  C001                     and.b      D0, D1
00001DB4  672A                     beq        +0x2C /* 00001DE0 */
00001DB6  4267                     clr.w      -[A7]
00001DB8  486D F018                pea.l      [A5 - 0xFE8]
00001DBC  486E FFF0                pea.l      [A6 - 0x10]
00001DC0  486E FFEE                pea.l      [A6 - 0x12]
00001DC4  A980                     syscall    DialogSelect
00001DC6  101F                     move.b     D0, [A7]+
00001DC8  6712                     beq        +0x14 /* 00001DDC */
00001DCA  202E FFF0                move.l     D0, [A6 - 0x10]
00001DCE  B0AD FF98                cmp.l      D0, [A5 - 0x68]
00001DD2  6608                     bne        +0xA /* 00001DDC */
00001DD4  3F2E FFEE                move.w     -[A7], [A6 - 0x12]
00001DD8  4EAD 087A                jsr        [A5 + 0x87A /* export_267, CODE:7 @ 00002020 */]
label00001DDC:
00001DDC  6000 035C                bra        +0x35E /* 0000213A */
label00001DE0:
00001DE0  7000                     moveq.l    D0, 0x00
00001DE2  302D F026                move.w     D0, [A5 - 0xFDA]
00001DE6  C0BC 0000 0200           and.l      D0, 0x200
00001DEC  4A80                     tst.l      D0
00001DEE  56C0                     sne        D0
00001DF0  4400                     neg.b      D0
00001DF2  1B40 F005                move.b     [A5 - 0xFFB], D0
00001DF6  7000                     moveq.l    D0, 0x00
00001DF8  302D F026                move.w     D0, [A5 - 0xFDA]
00001DFC  C0BC 0000 0100           and.l      D0, 0x100
00001E02  4A80                     tst.l      D0
00001E04  56C0                     sne        D0
00001E06  4400                     neg.b      D0
00001E08  1B40 F004                move.b     [A5 - 0xFFC], D0
00001E0C  7000                     moveq.l    D0, 0x00
00001E0E  302D F026                move.w     D0, [A5 - 0xFDA]
00001E12  C0BC 0000 0800           and.l      D0, 0x800
00001E18  4A80                     tst.l      D0
00001E1A  56C0                     sne        D0
00001E1C  4400                     neg.b      D0
00001E1E  1B40 F003                move.b     [A5 - 0xFFD], D0
00001E22  4A6D E276                tst.w      [A5 - 0x1D8A]
00001E26  56C0                     sne        D0
00001E28  7202                     moveq.l    D1, 0x02
00001E2A  B26D F018                cmp.w      D1, [A5 - 0xFE8]
00001E2E  56C1                     sne        D1
00001E30  C001                     and.b      D0, D1
00001E32  670C                     beq        +0xE /* 00001E40 */
00001E34  486D E27A                pea.l      [A5 - 0x1D86]
00001E38  486D E2F2                pea.l      [A5 - 0x1D0E]
00001E3C  4EAD 1CEA                jsr        [A5 + 0x1CEA /* export_921, CODE:17 @ 00001DBA */]
label00001E40:
00001E40  302D F018                move.w     D0, [A5 - 0xFE8]
00001E44  5340                     subq.w     D0, 1
00001E46  6730                     beq        +0x32 /* 00001E78 */
00001E48  5340                     subq.w     D0, 1
00001E4A  6728                     beq        +0x2A /* 00001E74 */
00001E4C  5340                     subq.w     D0, 1
00001E4E  6700 0232                beq        +0x234 /* 00002082 */
00001E52  5540                     subq.w     D0, 2
00001E54  6700 022C                beq        +0x22E /* 00002082 */
00001E58  5340                     subq.w     D0, 1
00001E5A  6700 02A0                beq        +0x2A2 /* 000020FC */
00001E5E  5340                     subq.w     D0, 1
00001E60  6700 02AE                beq        +0x2B0 /* 00002110 */
00001E64  5340                     subq.w     D0, 1
00001E66  6700 0268                beq        +0x26A /* 000020D0 */
00001E6A  5F40                     subq.w     D0, 7
00001E6C  6700 02C8                beq        +0x2CA /* 00002136 */
00001E70  6000 02C8                bra        +0x2CA /* 0000213A */
label00001E74:
00001E74  6000 02C4                bra        +0x2C6 /* 0000213A */
label00001E78:
00001E78  4EAD 17B2                jsr        [A5 + 0x17B2 /* export_754, CODE:15 @ 000064EE */]
00001E7C  102D F017                move.b     D0, [A5 - 0xFE9]
00001E80  0A00 0001                xori.b     D0, 0x1
00001E84  122D F015                move.b     D1, [A5 - 0xFEB]
00001E88  0A01 0001                xori.b     D1, 0x1
00001E8C  C001                     and.b      D0, D1
00001E8E  1B40 F016                move.b     [A5 - 0xFEA], D0
00001E92  102D F017                move.b     D0, [A5 - 0xFE9]
00001E96  6712                     beq        +0x14 /* 00001EAA */
00001E98  7E03                     moveq.l    D7, 0x03
00001E9A  2D6D EDC8 FFFA           move.l     [A6 - 0x6], [A5 - 0x1238]
00001EA0  422D EFEE                clr.b      [A5 - 0x1012]
00001EA4  422D EFEF                clr.b      [A5 - 0x1011]
00001EA8  600E                     bra        +0x10 /* 00001EB8 */
label00001EAA:
00001EAA  4267                     clr.w      -[A7]
00001EAC  2F2D F022                move.l     -[A7], [A5 - 0xFDE]
00001EB0  486E FFFA                pea.l      [A6 - 0x6]
00001EB4  A92C                     syscall    FindWindow
00001EB6  3E1F                     move.w     D7, [A7]+
label00001EB8:
00001EB8  202D EFF6                move.l     D0, [A5 - 0x100A]
00001EBC  721E                     moveq.l    D1, 0x1E
00001EBE  D081                     add.l      D0, D1
00001EC0  B0AD F01E                cmp.l      D0, [A5 - 0xFE2]
00001EC4  5EC0                     sgt        D0
00001EC6  2F00                     move.l     -[A7], D0
00001EC8  4267                     clr.w      -[A7]
00001ECA  2F2D F022                move.l     -[A7], [A5 - 0xFDE]
00001ECE  2F2D EFF0                move.l     -[A7], [A5 - 0x1010]
00001ED2  3F3C 0004                move.w     -[A7], 0x4
00001ED6  4EAD 1A72                jsr        [A5 + 0x1A72 /* export_842, CODE:16 @ 000019A8 */]
00001EDA  121F                     move.b     D1, [A7]+
00001EDC  201F                     move.l     D0, [A7]+
00001EDE  C001                     and.b      D0, D1
00001EE0  6706                     beq        +0x8 /* 00001EE8 */
00001EE2  526D EFF4                addq.w     [A5 - 0x100C], 1
00001EE6  6006                     bra        +0x8 /* 00001EEE */
label00001EE8:
00001EE8  3B7C 0001 EFF4           move.w     [A5 - 0x100C], 0x1
label00001EEE:
00001EEE  2B6D F01E EFF6           move.l     [A5 - 0x100A], [A5 - 0xFE2]
00001EF4  2B6D F022 EFF0           move.l     [A5 - 0x1010], [A5 - 0xFDE]
00001EFA  102D EFEF                move.b     D0, [A5 - 0x1011]
00001EFE  670E                     beq        +0x10 /* 00001F0E */
00001F00  7001                     moveq.l    D0, 0x01
00001F02  B06D EFF4                cmp.w      D0, [A5 - 0x100C]
00001F06  6C02                     bge        +0x4 /* 00001F0A */
00001F08  7EFF                     moveq.l    D7, 0xFFFFFFFF
label00001F0A:
00001F0A  422D EFEF                clr.b      [A5 - 0x1011]
label00001F0E:
00001F0E  3007                     move.w     D0, D7
00001F10  5340                     subq.w     D0, 1
00001F12  671C                     beq        +0x1E /* 00001F30 */
00001F14  5340                     subq.w     D0, 1
00001F16  6700 008E                beq        +0x90 /* 00001FA6 */
00001F1A  5340                     subq.w     D0, 1
00001F1C  6700 00F2                beq        +0xF4 /* 00002010 */
00001F20  5340                     subq.w     D0, 1
00001F22  6700 00CC                beq        +0xCE /* 00001FF0 */
00001F26  5540                     subq.w     D0, 2
00001F28  6700 008A                beq        +0x8C /* 00001FB4 */
00001F2C  6000 014C                bra        +0x14E /* 0000207A */
label00001F30:
00001F30  4EAD 1862                jsr        [A5 + 0x1862 /* export_776, CODE:16 @ 00000474 */]
00001F34  4EAD 15CA                jsr        [A5 + 0x15CA /* export_693, CODE:15 @ 00000B34 */]
00001F38  7004                     moveq.l    D0, 0x04
00001F3A  B06D F02C                cmp.w      D0, [A5 - 0xFD4]
00001F3E  5EC0                     sgt        D0
00001F40  2F00                     move.l     -[A7], D0
00001F42  4267                     clr.w      -[A7]
00001F44  4EAD 1612                jsr        [A5 + 0x1612 /* export_702, CODE:15 @ 00001296 */]
00001F48  121F                     move.b     D1, [A7]+
00001F4A  201F                     move.l     D0, [A7]+
00001F4C  C001                     and.b      D0, D1
00001F4E  1C00                     move.b     D6, D0
00001F50  6710                     beq        +0x12 /* 00001F62 */
00001F52  2F2D EEA8                move.l     -[A7], [A5 - 0x1158]
00001F56  3F3C 000A                move.w     -[A7], 0xA /* '\n' */
00001F5A  A935                     syscall    InsertMenu
00001F5C  3F3C 000A                move.w     -[A7], 0xA /* '\n' */
00001F60  A936                     syscall    DeleteMenu
label00001F62:
00001F62  42A7                     clr.l      -[A7]
00001F64  2F2D F022                move.l     -[A7], [A5 - 0xFDE]
00001F68  A93D                     syscall    MenuSelect
00001F6A  2A1F                     move.l     D5, [A7]+
00001F6C  2805                     move.l     D4, D5
00001F6E  4844                     swap.w     D4
00001F70  2005                     move.l     D0, D5
00001F72  3D40 FFE8                move.w     [A6 - 0x18], D0
00001F76  3F04                     move.w     -[A7], D4
00001F78  3F2E FFE8                move.w     -[A7], [A6 - 0x18]
00001F7C  4EAD 15DA                jsr        [A5 + 0x15DA /* export_695, CODE:15 @ 00000D18 */]
00001F80  3F04                     move.w     -[A7], D4
00001F82  3F2E FFE8                move.w     -[A7], [A6 - 0x18]
00001F86  4EAD 21BA                jsr        [A5 + 0x21BA /* export_1075, CODE:20 @ 00004336 */]
00001F8A  4A6D FD8A                tst.w      [A5 - 0x276]
00001F8E  5CC0                     sge        D0
00001F90  C02D E0E7                and.b      D0, [A5 - 0x1F19]
00001F94  6704                     beq        +0x6 /* 00001F9A */
00001F96  4267                     clr.w      -[A7]
00001F98  A938                     syscall    HiliteMenu
label00001F9A:
00001F9A  1006                     move.b     D0, D6
00001F9C  6704                     beq        +0x6 /* 00001FA2 */
00001F9E  4EAD 22B2                jsr        [A5 + 0x22B2 /* export_1106, CODE:20 @ 00005E80 */]
label00001FA2:
00001FA2  6000 00D6                bra        +0xD8 /* 0000207A */
label00001FA6:
00001FA6  486D F018                pea.l      [A5 - 0xFE8]
00001FAA  2F2E FFFA                move.l     -[A7], [A6 - 0x6]
00001FAE  A9B3                     syscall    SystemClick
00001FB0  6000 00C8                bra        +0xCA /* 0000207A */
label00001FB4:
00001FB4  4267                     clr.w      -[A7]
00001FB6  2F2E FFFA                move.l     -[A7], [A6 - 0x6]
00001FBA  2F2D F022                move.l     -[A7], [A5 - 0xFDE]
00001FBE  A91E                     syscall    TrackGoAway
00001FC0  101F                     move.b     D0, [A7]+
00001FC2  6728                     beq        +0x2A /* 00001FEC */
00001FC4  202E FFFA                move.l     D0, [A6 - 0x6]
00001FC8  B0AD FF98                cmp.l      D0, [A5 - 0x68]
00001FCC  6606                     bne        +0x8 /* 00001FD4 */
00001FCE  4EBA F87E                jsr        [PC - 0x782 /* 0000184E */]
00001FD2  6018                     bra        +0x1A /* 00001FEC */
label00001FD4:
00001FD4  202E FFFA                move.l     D0, [A6 - 0x6]
00001FD8  B0AD EDB8                cmp.l      D0, [A5 - 0x1248]
00001FDC  6604                     bne        +0x6 /* 00001FE2 */
00001FDE  4EAD 160A                jsr        [A5 + 0x160A /* export_701, CODE:15 @ 00001282 */]
label00001FE2:
00001FE2  2F2E FFFA                move.l     -[A7], [A6 - 0x6]
00001FE6  A916                     syscall    HideWindow
00001FE8  4EAD 22A2                jsr        [A5 + 0x22A2 /* export_1104, CODE:20 @ 00005D82 */]
label00001FEC:
00001FEC  6000 008C                bra        +0x8E /* 0000207A */
label00001FF0:
00001FF0  202E FFFA                move.l     D0, [A6 - 0x6]
00001FF4  B0AD EDC8                cmp.l      D0, [A5 - 0x1238]
00001FF8  6606                     bne        +0x8 /* 00002000 */
00001FFA  4EAD 167A                jsr        [A5 + 0x167A /* export_715, CODE:15 @ 0000300A */]
00001FFE  607A                     bra        +0x7C /* 0000207A */
label00002000:
00002000  2F2E FFFA                move.l     -[A7], [A6 - 0x6]
00002004  2F2D F022                move.l     -[A7], [A5 - 0xFDE]
00002008  486D FE34                pea.l      [A5 - 0x1CC]
0000200C  A925                     syscall    DragWindow
0000200E  606A                     bra        +0x6C /* 0000207A */
label00002010:
00002010  2F2E FFFA                move.l     -[A7], [A6 - 0x6]
00002014  A873                     syscall    SetPort
00002016  202E FFFA                move.l     D0, [A6 - 0x6]
0000201A  B0AD EDC8                cmp.l      D0, [A5 - 0x1238]
0000201E  6604                     bne        +0x6 /* 00002024 */
00002020  4EBA FC8E                jsr        [PC - 0x372 /* 00001CB0 */]
label00002024:
00002024  202E FFFA                move.l     D0, [A6 - 0x6]
00002028  B0AD EDB8                cmp.l      D0, [A5 - 0x1248]
0000202C  6604                     bne        +0x6 /* 00002032 */
0000202E  4EBA F05A                jsr        [PC - 0xFA6 /* 0000108A */]
label00002032:
00002032  202E FFFA                move.l     D0, [A6 - 0x6]
00002036  B0AD EDC4                cmp.l      D0, [A5 - 0x123C]
0000203A  6604                     bne        +0x6 /* 00002040 */
0000203C  4EAD 08B2                jsr        [A5 + 0x8B2 /* export_274, CODE:7 @ 00003782 */]
label00002040:
00002040  202E FFFA                move.l     D0, [A6 - 0x6]
00002044  B0AD EDC0                cmp.l      D0, [A5 - 0x1240]
00002048  6604                     bne        +0x6 /* 0000204E */
0000204A  4EAD 15FA                jsr        [A5 + 0x15FA /* export_699, CODE:15 @ 0000110A */]
label0000204E:
0000204E  202E FFFA                move.l     D0, [A6 - 0x6]
00002052  B0AD FF98                cmp.l      D0, [A5 - 0x68]
00002056  6622                     bne        +0x24 /* 0000207A */
00002058  2F2D FF98                move.l     -[A7], [A5 - 0x68]
0000205C  A91F                     syscall    SelectWindow
0000205E  4267                     clr.w      -[A7]
00002060  486D F018                pea.l      [A5 - 0xFE8]
00002064  486E FFF0                pea.l      [A6 - 0x10]
00002068  486E FFEE                pea.l      [A6 - 0x12]
0000206C  A980                     syscall    DialogSelect
0000206E  101F                     move.b     D0, [A7]+
00002070  6708                     beq        +0xA /* 0000207A */
00002072  3F2E FFEE                move.w     -[A7], [A6 - 0x12]
00002076  4EAD 087A                jsr        [A5 + 0x87A /* export_267, CODE:7 @ 00002020 */]
label0000207A:
0000207A  422D F016                clr.b      [A5 - 0xFEA]
0000207E  6000 00BA                bra        +0xBC /* 0000213A */
label00002082:
00002082  102D EFED                move.b     D0, [A5 - 0x1013]
00002086  6746                     beq        +0x48 /* 000020CE */
00002088  4267                     clr.w      -[A7]
0000208A  3F2D F01C                move.w     -[A7], [A5 - 0xFE4]
0000208E  4EAD 200A                jsr        [A5 + 0x200A /* export_1021, CODE:20 @ 0000008A */]
00002092  3B5F F008                move.w     [A5 - 0xFF8], [A7]+
00002096  202D F01A                move.l     D0, [A5 - 0xFE6]
0000209A  C0BC 0000 00FF           and.l      D0, 0xFF
000020A0  3B40 F00C                move.w     [A5 - 0xFF4], D0
000020A4  102D F017                move.b     D0, [A5 - 0xFE9]
000020A8  0A00 0001                xori.b     D0, 0x1
000020AC  122D F015                move.b     D1, [A5 - 0xFEB]
000020B0  0A01 0001                xori.b     D1, 0x1
000020B4  C001                     and.b      D0, D1
000020B6  1B40 F016                move.b     [A5 - 0xFEA], D0
000020BA  102D F004                move.b     D0, [A5 - 0xFFC]
000020BE  6706                     beq        +0x8 /* 000020C6 */
000020C0  4EBA F03A                jsr        [PC - 0xFC6 /* 000010FC */]
000020C4  6004                     bra        +0x6 /* 000020CA */
label000020C6:
000020C6  4EBA 0A9E                jsr        [PC + 0xA9E /* 00002B66 */]
// begin alternate branch 000020C8-000020CE
label000020C8:
000020C8  0A9E 422D F016           xori.l     [A6]+, 0x422DF016
// end alternate branch 000020C8-000020CE
label000020C8: // (misaligned)
label000020CA:
000020CA  422D F016                clr.b      [A5 - 0xFEA]
label000020CE:
000020CE  606A                     bra        +0x6C /* 0000213A */
label000020D0:
000020D0  102D F027                move.b     D0, [A5 - 0xFD9]
000020D4  0240 0001                andi.w     D0, 0x1
000020D8  1B40 EFED                move.b     [A5 - 0x1013], D0
000020DC  7000                     moveq.l    D0, 0x00
000020DE  302D F026                move.w     D0, [A5 - 0xFDA]
000020E2  C0BC 0000 0002           and.l      D0, 0x2
000020E8  4A80                     tst.l      D0
000020EA  670E                     beq        +0x10 /* 000020FA */
000020EC  4EAD 15D2                jsr        [A5 + 0x15D2 /* export_694, CODE:15 @ 00000B4E */]
000020F0  102D EFED                move.b     D0, [A5 - 0x1013]
000020F4  6604                     bne        +0x6 /* 000020FA */
000020F6  4EBA 0450                jsr        [PC + 0x450 /* 00002548 */]
label000020FA:
000020FA  603E                     bra        +0x40 /* 0000213A */
label000020FC:
000020FC  2D6D F01A FFFA           move.l     [A6 - 0x6], [A5 - 0xFE6]
00002102  4EAD 15D2                jsr        [A5 + 0x15D2 /* export_694, CODE:15 @ 00000B4E */]
00002106  2F2E FFFA                move.l     -[A7], [A6 - 0x6]
0000210A  4EAD 22E2                jsr        [A5 + 0x22E2 /* export_1112, CODE:20 @ 0000633A */]
0000210E  602A                     bra        +0x2C /* 0000213A */
label00002110:
00002110  4A6D F01A                tst.w      [A5 - 0xFE6]
00002114  6C1E                     bge        +0x20 /* 00002134 */
00002116  3D7C 0082 FFF6           move.w     [A6 - 0xA], 0x82
0000211C  3D7C 0064 FFF4           move.w     [A6 - 0xC], 0x64 /* 'd' */
00002122  4267                     clr.w      -[A7]
00002124  2F2E FFF4                move.l     -[A7], [A6 - 0xC]
00002128  2F2D F01A                move.l     -[A7], [A5 - 0xFE6]
0000212C  4EBA 2C02                jsr        [PC + 0x2C02 /* 00004D30 */]
00002130  3D5F FFF8                move.w     [A6 - 0x8], [A7]+
label00002134:
00002134  6004                     bra        +0x6 /* 0000213A */
label00002136:
00002136  4EAD 166A                jsr        [A5 + 0x166A /* export_713, CODE:15 @ 00002D7C */]
label0000213A:
0000213A  42A7                     clr.l      -[A7]
0000213C  A975                     syscall    TickCount
0000213E  2B5F EFFA                move.l     [A5 - 0x1006], [A7]+
00002142  4CDF 00F0                movem.l    D4,D5,D6,D7, [A7]+
00002146  4E5E                     unlink     A6
00002148  4E75                     rts
export_12:
0000214A  4E56 FDFE                link       A6, -0x0202
0000214E  48E7 0300                movem.l    -[A7], D6,D7
00002152  3E2E 0008                move.w     D7, [A6 + 0x8]
00002156  3C2E 000A                move.w     D6, [A6 + 0xA]
0000215A  4A46                     tst.w      D6
0000215C  57C0                     seq        D0
0000215E  4A47                     tst.w      D7
00002160  57C1                     seq        D1
00002162  8001                     or.b       D0, D1
00002164  6704                     beq        +0x6 /* 0000216A */
00002166  6000 0370                bra        +0x372 /* 000024D8 */
label0000216A:
0000216A  422D EDAA                clr.b      [A5 - 0x1256]
0000216E  1B7C 0001 F014           move.b     [A5 - 0xFEC], 0x1
00002174  7003                     moveq.l    D0, 0x03
00002176  B046                     cmp.w      D0, D6
00002178  56C0                     sne        D0
0000217A  720B                     moveq.l    D1, 0x0B
0000217C  B246                     cmp.w      D1, D6
0000217E  56C1                     sne        D1
00002180  C001                     and.b      D0, D1
00002182  7201                     moveq.l    D1, 0x01
00002184  B247                     cmp.w      D1, D7
00002186  56C1                     sne        D1
00002188  8001                     or.b       D0, D1
0000218A  6708                     beq        +0xA /* 00002194 */
0000218C  426D FF7C                clr.w      [A5 - 0x84]
00002190  4EAD 173A                jsr        [A5 + 0x173A /* export_739, CODE:15 @ 00004FD6 */]
label00002194:
00002194  7003                     moveq.l    D0, 0x03
00002196  B046                     cmp.w      D0, D6
00002198  56C0                     sne        D0
0000219A  720B                     moveq.l    D1, 0x0B
0000219C  B246                     cmp.w      D1, D6
0000219E  56C1                     sne        D1
000021A0  C001                     and.b      D0, D1
000021A2  7206                     moveq.l    D1, 0x06
000021A4  B247                     cmp.w      D1, D7
000021A6  5DC1                     slt        D1
000021A8  740D                     moveq.l    D2, 0x0D
000021AA  B447                     cmp.w      D2, D7
000021AC  56C2                     sne        D2
000021AE  C202                     and.b      D1, D2
000021B0  8001                     or.b       D0, D1
000021B2  671C                     beq        +0x1E /* 000021D0 */
000021B4  4EAD 160A                jsr        [A5 + 0x160A /* export_701, CODE:15 @ 00001282 */]
000021B8  7006                     moveq.l    D0, 0x06
000021BA  B046                     cmp.w      D0, D6
000021BC  57C0                     seq        D0
000021BE  7202                     moveq.l    D1, 0x02
000021C0  B247                     cmp.w      D1, D7
000021C2  57C1                     seq        D1
000021C4  C001                     and.b      D0, D1
000021C6  6608                     bne        +0xA /* 000021D0 */
000021C8  1F3C 0001                move.b     -[A7], 0x1
000021CC  4EAD 1602                jsr        [A5 + 0x1602 /* export_700, CODE:15 @ 0000114C */]
label000021D0:
000021D0  3006                     move.w     D0, D6
000021D2  5340                     subq.w     D0, 1
000021D4  6B00 02FE                bmi        +0x300 /* 000024D4 */
000021D8  0C40 000A                cmpi.w     D0, 0xA /* '\n' */
000021DC  6E00 02F6                bgt        +0x2F8 /* 000024D4 */
000021E0  D040                     add.w      D0, D0
000021E2  303B 0006                move.w     D0, [PC + D0.w + 0x6]
000021E6  4EFB 0000                jmp        [PC + D0.w]
000021EA  0018 0022                ori.b      [A0]+, 0x22 /* '\"' */
000021EE  0148                     bchg       A0, D0
000021F0  0260 026A                andi.w     -[A0], 0x26A
000021F4  0272 02EC 02EC           andi.w     [A2 + D0.w * 2 - 0x14], 0x2EC
000021FA  02EC                     .incomplete
000021FC  00C4                     .incomplete
000021FE  01E8                     .incomplete
00002200  3F07                     move.w     -[A7], D7
00002202  4EAD 163A                jsr        [A5 + 0x163A /* export_707, CODE:15 @ 000026F4 */]
00002206  6000 02CC                bra        +0x2CE /* 000024D4 */
0000220A  3007                     move.w     D0, D7
0000220C  5340                     subq.w     D0, 1
0000220E  6B00 0098                bmi        +0x9A /* 000022A8 */
00002212  0C40 000D                cmpi.w     D0, 0xD /* '\r' */
00002216  6E00 0090                bgt        +0x92 /* 000022A8 */
0000221A  D040                     add.w      D0, D0
0000221C  303B 0006                move.w     D0, [PC + D0.w + 0x6]
00002220  4EFB 0000                jmp        [PC + D0.w]
00002224  001E 0024                ori.b      [A6]+, 0x24 /* '$' */
00002228  0040 0086                ori.w      D0, 0x86
0000222C  0046 004C                ori.w      D6, 0x4C /* 'L' */
00002230  0052 0086                ori.w      [A2], 0x86
00002234  0058 0062                ori.w      [A0]+, 0x62 /* 'b' */
00002238  006C 0076 0086           ori.w      [A4 + 0x86], 0x76 /* 'v' */
0000223E  0080 4EAD 162A           ori.l      D0, 0x4EAD162A
00002244  6062                     bra        +0x64 /* 000022A8 */
00002246  4267                     clr.w      -[A7]
00002248  486E FDFE                pea.l      [A6 - 0x202]
0000224C  4EAD 15EA                jsr        [A5 + 0x15EA /* export_697, CODE:15 @ 00000DD2 */]
00002250  101F                     move.b     D0, [A7]+
00002252  670C                     beq        +0xE /* 00002260 */
00002254  7001                     moveq.l    D0, 0x01
00002256  2F00                     move.l     -[A7], D0
00002258  486E FDFE                pea.l      [A6 - 0x202]
0000225C  4EAD 20C2                jsr        [A5 + 0x20C2 /* export_1044, CODE:20 @ 0000133E */]
label00002260:
00002260  6046                     bra        +0x48 /* 000022A8 */
00002262  4EAD 2192                jsr        [A5 + 0x2192 /* export_1070, CODE:20 @ 00003AC6 */]
00002266  6040                     bra        +0x42 /* 000022A8 */
00002268  4EAD 0872                jsr        [A5 + 0x872 /* export_266, CODE:7 @ 0000134C */]
0000226C  603A                     bra        +0x3C /* 000022A8 */
0000226E  4EAD 08C2                jsr        [A5 + 0x8C2 /* export_276, CODE:7 @ 00003A14 */]
00002272  6034                     bra        +0x36 /* 000022A8 */
00002274  4EAD 0882                jsr        [A5 + 0x882 /* export_268, CODE:7 @ 00002440 */]
00002278  602E                     bra        +0x30 /* 000022A8 */
0000227A  3F3C 0001                move.w     -[A7], 0x1
0000227E  4EBA F292                jsr        [PC - 0xD6E /* 00001512 */]
00002282  6024                     bra        +0x26 /* 000022A8 */
00002284  3F3C 0002                move.w     -[A7], 0x2
00002288  4EBA F288                jsr        [PC - 0xD78 /* 00001512 */]
0000228C  601A                     bra        +0x1C /* 000022A8 */
0000228E  3F3C 0003                move.w     -[A7], 0x3
00002292  4EBA F27E                jsr        [PC - 0xD82 /* 00001512 */]
00002296  6010                     bra        +0x12 /* 000022A8 */
00002298  3F3C 0004                move.w     -[A7], 0x4
0000229C  4EBA F274                jsr        [PC - 0xD8C /* 00001512 */]
000022A0  6006                     bra        +0x8 /* 000022A8 */
000022A2  1B7C 0001 F030           move.b     [A5 - 0xFD0], 0x1
label000022A8:
000022A8  6000 022A                bra        +0x22C /* 000024D4 */
000022AC  3007                     move.w     D0, D7
000022AE  5340                     subq.w     D0, 1
000022B0  6B7A                     bmi        +0x7C /* 0000232C */
000022B2  0C40 0009                cmpi.w     D0, 0x9 /* '\t' */
000022B6  6E74                     bgt        +0x76 /* 0000232C */
000022B8  D040                     add.w      D0, D0
000022BA  303B 0006                move.w     D0, [PC + D0.w + 0x6]
000022BE  4EFB 0000                jmp        [PC + D0.w]
000022C2  0016 001C                ori.b      [A6], 0x1C
000022C6  0038 006C 003E           ori.b      [0x0000003E], 0x6C /* 'l' */
000022CC  0048 0052                ori.w      A0, 0x52 /* 'R' */
000022D0  005C 006C                ori.w      [A4]+, 0x6C /* 'l' */
000022D4  0066 4EAD                ori.w      -[A6], 0x4EAD
000022D8  162A 6050                move.b     D3, [A2 + 0x6050]
000022DC  4267                     clr.w      -[A7]
000022DE  486E FDFE                pea.l      [A6 - 0x202]
000022E2  4EAD 15EA                jsr        [A5 + 0x15EA /* export_697, CODE:15 @ 00000DD2 */]
000022E6  101F                     move.b     D0, [A7]+
000022E8  670C                     beq        +0xE /* 000022F6 */
000022EA  7001                     moveq.l    D0, 0x01
000022EC  2F00                     move.l     -[A7], D0
000022EE  486E FDFE                pea.l      [A6 - 0x202]
000022F2  4EAD 20C2                jsr        [A5 + 0x20C2 /* export_1044, CODE:20 @ 0000133E */]
label000022F6:
000022F6  6034                     bra        +0x36 /* 0000232C */
000022F8  4EAD 2192                jsr        [A5 + 0x2192 /* export_1070, CODE:20 @ 00003AC6 */]
000022FC  602E                     bra        +0x30 /* 0000232C */
000022FE  3F3C 0001                move.w     -[A7], 0x1
00002302  4EBA F20E                jsr        [PC - 0xDF2 /* 00001512 */]
00002306  6024                     bra        +0x26 /* 0000232C */
00002308  3F3C 0002                move.w     -[A7], 0x2
0000230C  4EBA F204                jsr        [PC - 0xDFC /* 00001512 */]
00002310  601A                     bra        +0x1C /* 0000232C */
00002312  3F3C 0003                move.w     -[A7], 0x3
00002316  4EBA F1FA                jsr        [PC - 0xE06 /* 00001512 */]
0000231A  6010                     bra        +0x12 /* 0000232C */
0000231C  3F3C 0004                move.w     -[A7], 0x4
00002320  4EBA F1F0                jsr        [PC - 0xE10 /* 00001512 */]
00002324  6006                     bra        +0x8 /* 0000232C */
00002326  1B7C 0001 F030           move.b     [A5 - 0xFD0], 0x1
label0000232C:
0000232C  6000 01A6                bra        +0x1A8 /* 000024D4 */
00002330  7006                     moveq.l    D0, 0x06
00002332  B047                     cmp.w      D0, D7
00002334  5CC0                     sge        D0
00002336  4A00                     tst.b      D0
00002338  6714                     beq        +0x16 /* 0000234E */
0000233A  2F00                     move.l     -[A7], D0
0000233C  4267                     clr.w      -[A7]
0000233E  3207                     move.w     D1, D7
00002340  5341                     subq.w     D1, 1
00002342  3F01                     move.w     -[A7], D1
00002344  A9C2                     syscall    SysEdit
00002346  121F                     move.b     D1, [A7]+
00002348  201F                     move.l     D0, [A7]+
0000234A  C001                     and.b      D0, D1
0000234C  667E                     bne        +0x80 /* 000023CC */
label0000234E:
0000234E  3007                     move.w     D0, D7
00002350  5340                     subq.w     D0, 1
00002352  6B78                     bmi        +0x7A /* 000023CC */
00002354  0C40 000D                cmpi.w     D0, 0xD /* '\r' */
00002358  6E72                     bgt        +0x74 /* 000023CC */
0000235A  D040                     add.w      D0, D0
0000235C  303B 0006                move.w     D0, [PC + D0.w + 0x6]
00002360  4EFB 0000                jmp        [PC + D0.w]
00002364  001E 006A                ori.b      [A6]+, 0x6A /* 'j' */
00002368  0024 002E                ori.b      -[A4], 0x2E /* '.' */
0000236C  0036 003C 006A           ori.b      [A6 + D0.w + 0x6A], 0x3C /* '<' */
00002372  0042 0048                ori.w      D2, 0x48 /* 'H' */
00002376  004E 0058                ori.w      A6, 0x58 /* 'X' */
0000237A  006A 0060 0066           ori.w      [A2 + 0x66], 0x60 /* '`' */
00002380  4EBA 146C                jsr        [PC + 0x146C /* 000037EE */]
00002384  6046                     bra        +0x48 /* 000023CC */
00002386  1F3C 0001                move.b     -[A7], 0x1
0000238A  4EBA EF4A                jsr        [PC - 0x10B6 /* 000012D6 */]
0000238E  603C                     bra        +0x3E /* 000023CC */
00002390  4267                     clr.w      -[A7]
00002392  4EBA EF42                jsr        [PC - 0x10BE /* 000012D6 */]
00002396  6034                     bra        +0x36 /* 000023CC */
00002398  4EBA 0308                jsr        [PC + 0x308 /* 000026A2 */]
0000239C  602E                     bra        +0x30 /* 000023CC */
0000239E  4EBA EA02                jsr        [PC - 0x15FE /* 00000DA2 */]
000023A2  6028                     bra        +0x2A /* 000023CC */
000023A4  4EAD 154A                jsr        [A5 + 0x154A /* export_677, CODE:15 @ 000000EC */]
000023A8  6022                     bra        +0x24 /* 000023CC */
000023AA  4EAD 1632                jsr        [A5 + 0x1632 /* export_706, CODE:15 @ 00002416 */]
000023AE  601C                     bra        +0x1E /* 000023CC */
000023B0  1F3C 0001                move.b     -[A7], 0x1
000023B4  4EAD 161A                jsr        [A5 + 0x161A /* export_703, CODE:15 @ 00001338 */]
000023B8  6012                     bra        +0x14 /* 000023CC */
000023BA  4267                     clr.w      -[A7]
000023BC  4EAD 161A                jsr        [A5 + 0x161A /* export_703, CODE:15 @ 00001338 */]
000023C0  600A                     bra        +0xC /* 000023CC */
000023C2  4EBA E5B4                jsr        [PC - 0x1A4C /* 00000978 */]
000023C6  6004                     bra        +0x6 /* 000023CC */
000023C8  4EAD 08BA                jsr        [A5 + 0x8BA /* export_275, CODE:7 @ 000037D8 */]
label000023CC:
000023CC  6000 0106                bra        +0x108 /* 000024D4 */
000023D0  7006                     moveq.l    D0, 0x06
000023D2  B047                     cmp.w      D0, D7
000023D4  5CC0                     sge        D0
000023D6  4A00                     tst.b      D0
000023D8  6714                     beq        +0x16 /* 000023EE */
000023DA  2F00                     move.l     -[A7], D0
000023DC  4267                     clr.w      -[A7]
000023DE  3207                     move.w     D1, D7
000023E0  5341                     subq.w     D1, 1
000023E2  3F01                     move.w     -[A7], D1
000023E4  A9C2                     syscall    SysEdit
000023E6  121F                     move.b     D1, [A7]+
000023E8  201F                     move.l     D0, [A7]+
000023EA  C001                     and.b      D0, D1
000023EC  6656                     bne        +0x58 /* 00002444 */
label000023EE:
000023EE  3007                     move.w     D0, D7
000023F0  5340                     subq.w     D0, 1
000023F2  6B50                     bmi        +0x52 /* 00002444 */
000023F4  0C40 0008                cmpi.w     D0, 0x8
000023F8  6E4A                     bgt        +0x4C /* 00002444 */
000023FA  D040                     add.w      D0, D0
000023FC  303B 0006                move.w     D0, [PC + D0.w + 0x6]
00002400  4EFB 0000                jmp        [PC + D0.w]
00002404  0014 0042                ori.b      [A4], 0x42 /* 'B' */
00002408  001A 0024                ori.b      [A2]+, 0x24 /* '$' */
0000240C  002C 0032 0042           ori.b      [A4 + 0x42], 0x32 /* '2' */
00002412  0038 003E 4EBA           ori.b      [0x00004EBA], 0x3E /* '>' */
00002418  13D6 6028 1F3C           move.b     [0x60281F3C], [A6]
0000241E  0001 4EBA                ori.b      D1, 0xBA
00002422  EEB4                     roxr       D4, D7
00002424  601E                     bra        +0x20 /* 00002444 */
00002426  4267                     clr.w      -[A7]
00002428  4EBA EEAC                jsr        [PC - 0x1154 /* 000012D6 */]
0000242C  6016                     bra        +0x18 /* 00002444 */
0000242E  4EBA 0272                jsr        [PC + 0x272 /* 000026A2 */]
00002432  6010                     bra        +0x12 /* 00002444 */
00002434  4EBA E96C                jsr        [PC - 0x1694 /* 00000DA2 */]
00002438  600A                     bra        +0xC /* 00002444 */
0000243A  4EAD 154A                jsr        [A5 + 0x154A /* export_677, CODE:15 @ 000000EC */]
0000243E  6004                     bra        +0x6 /* 00002444 */
00002440  4EAD 1632                jsr        [A5 + 0x1632 /* export_706, CODE:15 @ 00002416 */]
label00002444:
00002444  6000 008E                bra        +0x90 /* 000024D4 */
00002448  3F07                     move.w     -[A7], D7
0000244A  4EAD 165A                jsr        [A5 + 0x165A /* export_711, CODE:15 @ 00002C52 */]
0000244E  6000 0084                bra        +0x86 /* 000024D4 */
00002452  3F07                     move.w     -[A7], D7
00002454  4EAD 15F2                jsr        [A5 + 0x15F2 /* export_698, CODE:15 @ 00000E4A */]
00002458  607A                     bra        +0x7C /* 000024D4 */
0000245A  3007                     move.w     D0, D7
0000245C  5340                     subq.w     D0, 1
0000245E  6B74                     bmi        +0x76 /* 000024D4 */
00002460  0C40 000B                cmpi.w     D0, 0xB
00002464  6E6E                     bgt        +0x70 /* 000024D4 */
00002466  D040                     add.w      D0, D0
00002468  303B 0006                move.w     D0, [PC + D0.w + 0x6]
0000246C  4EFB 0000                jmp        [PC + D0.w]
00002470  001A 0020                ori.b      [A2]+, 0x20 /* ' ' */
00002474  0026 002C                ori.b      -[A6], 0x2C /* ',' */
00002478  0032 0066 0038           ori.b      [A2 + D0.w + 0x38], 0x66 /* 'f' */
0000247E  0040 0066                ori.w      D0, 0x66 /* 'f' */
00002482  004A 0056                ori.w      A2, 0x56 /* 'V' */
00002486  0062 4EAD                ori.w      -[A2], 0x4EAD
0000248A  0892 6046                bclr.b     [A2], 0x46 /* 'F' */
0000248E  4EAD 08A2                jsr        [A5 + 0x8A2 /* export_272, CODE:7 @ 0000318A */]
00002492  6040                     bra        +0x42 /* 000024D4 */
00002494  4EAD 089A                jsr        [A5 + 0x89A /* export_271, CODE:7 @ 00002E04 */]
00002498  603A                     bra        +0x3C /* 000024D4 */
0000249A  4EAD 088A                jsr        [A5 + 0x88A /* export_269, CODE:7 @ 000025C0 */]
0000249E  6034                     bra        +0x36 /* 000024D4 */
000024A0  4EAD 08AA                jsr        [A5 + 0x8AA /* export_273, CODE:7 @ 000035EA */]
000024A4  602E                     bra        +0x30 /* 000024D4 */
000024A6  4267                     clr.w      -[A7]
000024A8  4EBA 0C06                jsr        [PC + 0xC06 /* 000030B0 */]
000024AC  6026                     bra        +0x28 /* 000024D4 */
000024AE  1F3C 0001                move.b     -[A7], 0x1
000024B2  4EBA 0BFC                jsr        [PC + 0xBFC /* 000030B0 */]
000024B6  601C                     bra        +0x1E /* 000024D4 */
000024B8  2F3C 0000 0001           move.l     -[A7], 0x1
000024BE  4EAD 0862                jsr        [A5 + 0x862 /* export_264, CODE:7 @ 0000008C */]
000024C2  6010                     bra        +0x12 /* 000024D4 */
000024C4  2F3C 0000 0002           move.l     -[A7], 0x2
000024CA  4EAD 0862                jsr        [A5 + 0x862 /* export_264, CODE:7 @ 0000008C */]
000024CE  6004                     bra        +0x6 /* 000024D4 */
000024D0  4EAD 085A                jsr        [A5 + 0x85A /* export_263, CODE:7 @ 00000000 */]
label000024D4:
000024D4  422D F014                clr.b      [A5 - 0xFEC]
label000024D8:
000024D8  4CDF 00C0                movem.l    D6,D7, [A7]+
000024DC  4E5E                     unlink     A6
000024DE  2E9F                     move.l     [A7], [A7]+
000024E0  4E75                     rts
export_13:
fn000024E2:
000024E2  4E56 0000                link       A6, 0
000024E6  2F2D EDC8                move.l     -[A7], [A5 - 0x1238]
000024EA  A873                     syscall    SetPort
000024EC  4EBA 1136                jsr        [PC + 0x1136 /* 00003624 */]
000024F0  4EAD 2222                jsr        [A5 + 0x2222 /* export_1088, CODE:20 @ 00004B76 */]
000024F4  4E5E                     unlink     A6
000024F6  4E75                     rts
export_14:
000024F8  4E56 0000                link       A6, 0
000024FC  2F0C                     move.l     -[A7], A4
000024FE  286E 0008                movea.l    A4, [A6 + 0x8]
00002502  2F0C                     move.l     -[A7], A4
00002504  A873                     syscall    SetPort
00002506  B9ED EDC4                cmpa.l     A4, [A5 - 0x123C]
0000250A  6608                     bne        +0xA /* 00002514 */
0000250C  486D EF2A                pea.l      [A5 - 0x10D6]
00002510  4EAD 16DA                jsr        [A5 + 0x16DA /* export_727, CODE:15 @ 00004190 */]
label00002514:
00002514  B9ED EDC0                cmpa.l     A4, [A5 - 0x1240]
00002518  6608                     bne        +0xA /* 00002522 */
0000251A  486D EF38                pea.l      [A5 - 0x10C8]
0000251E  4EAD 16C2                jsr        [A5 + 0x16C2 /* export_724, CODE:15 @ 00003DD2 */]
label00002522:
00002522  B9ED EDB8                cmpa.l     A4, [A5 - 0x1248]
00002526  6604                     bne        +0x6 /* 0000252C */
00002528  4EAD 16B2                jsr        [A5 + 0x16B2 /* export_722, CODE:15 @ 00003B86 */]
label0000252C:
0000252C  B9ED EDC8                cmpa.l     A4, [A5 - 0x1238]
00002530  6604                     bne        +0x6 /* 00002536 */
00002532  4EBA FFAE                jsr        [PC - 0x52 /* 000024E2 */]
label00002536:
00002536  2F0C                     move.l     -[A7], A4
00002538  A873                     syscall    SetPort
0000253A  486C 0010                pea.l      [A4 + 0x10]
0000253E  A92A                     syscall    ValidRect
00002540  285F                     movea.l    A4, [A7]+
00002542  4E5E                     unlink     A6
00002544  2E9F                     move.l     [A7], [A7]+
00002546  4E75                     rts
export_15:
fn00002548:
00002548  4E56 0000                link       A6, 0
0000254C  1F3C 0001                move.b     -[A7], 0x1
00002550  4EAD 1602                jsr        [A5 + 0x1602 /* export_700, CODE:15 @ 0000114C */]
00002554  4EAD 160A                jsr        [A5 + 0x160A /* export_701, CODE:15 @ 00001282 */]
00002558  4A6D E276                tst.w      [A5 - 0x1D8A]
0000255C  671E                     beq        +0x20 /* 0000257C */
0000255E  486D E27A                pea.l      [A5 - 0x1D86]
00002562  486D E2F2                pea.l      [A5 - 0x1D0E]
00002566  4EAD 1CEA                jsr        [A5 + 0x1CEA /* export_921, CODE:17 @ 00001DBA */]
0000256A  486D E274                pea.l      [A5 - 0x1D8C]
0000256E  701E                     moveq.l    D0, 0x1E
00002570  2F00                     move.l     -[A7], D0
00002572  4EAD 1B42                jsr        [A5 + 0x1B42 /* export_868, CODE:16 @ 00001E7C */]
00002576  7000                     moveq.l    D0, 0x00
00002578  2B40 E270                move.l     [A5 - 0x1D90], D0
label0000257C:
0000257C  4E5E                     unlink     A6
0000257E  4E75                     rts
fn00002580:
00002580  4E56 FFFC                link       A6, -0x0004
00002584  A9B4                     syscall    SystemTask
00002586  4267                     clr.w      -[A7]
00002588  4EAD 17FA                jsr        [A5 + 0x17FA /* export_763, CODE:16 @ 0000009E */]
0000258C  7002                     moveq.l    D0, 0x02
0000258E  B02D E278                cmp.b      D0, [A5 - 0x1D88]
00002592  56C0                     sne        D0
00002594  C01F                     and.b      D0, [A7]+
00002596  122D E245                move.b     D1, [A5 - 0x1DBB]
0000259A  0A01 0001                xori.b     D1, 0x1
0000259E  C001                     and.b      D0, D1
000025A0  6706                     beq        +0x8 /* 000025A8 */
000025A2  1B7C 0001 FD8D           move.b     [A5 - 0x273], 0x1
label000025A8:
000025A8  2F3C FFFF 0000           move.l     -[A7], 0xFFFF0000
000025AE  486D F018                pea.l      [A5 - 0xFE8]
000025B2  4EAD 20E2                jsr        [A5 + 0x20E2 /* export_1048, CODE:20 @ 000014FC */]
000025B6  101F                     move.b     D0, [A7]+
000025B8  6708                     beq        +0xA /* 000025C2 */
000025BA  4EBA F796                jsr        [PC - 0x86A /* 00001D52 */]
000025BE  6000 008E                bra        +0x90 /* 0000264E */
label000025C2:
000025C2  102D EFED                move.b     D0, [A5 - 0x1013]
000025C6  6752                     beq        +0x54 /* 0000261A */
000025C8  2F2D EDC8                move.l     -[A7], [A5 - 0x1238]
000025CC  A873                     syscall    SetPort
000025CE  486E FFFC                pea.l      [A6 - 0x4]
000025D2  4EAD 20DA                jsr        [A5 + 0x20DA /* export_1047, CODE:20 @ 0000147C */]
000025D6  486E FFFC                pea.l      [A6 - 0x4]
000025DA  A870                     syscall    LocalToGlobal
000025DC  2F2E FFFC                move.l     -[A7], [A6 - 0x4]
000025E0  7001                     moveq.l    D0, 0x01
000025E2  B06D EFDC                cmp.w      D0, [A5 - 0x1024]
000025E6  57C0                     seq        D0
000025E8  4400                     neg.b      D0
000025EA  1F00                     move.b     -[A7], D0
000025EC  4EBA 1066                jsr        [PC + 0x1066 /* 00003654 */]
000025F0  102D EFEA                move.b     D0, [A5 - 0x1016]
000025F4  C02D EFEB                and.b      D0, [A5 - 0x1015]
000025F8  6704                     beq        +0x6 /* 000025FE */
000025FA  4EBA 08C4                jsr        [PC + 0x8C4 /* 00002EC0 */]
label000025FE:
000025FE  4A6D E276                tst.w      [A5 - 0x1D8A]
00002602  6704                     beq        +0x6 /* 00002608 */
00002604  4EBA 0512                jsr        [PC + 0x512 /* 00002B18 */]
label00002608:
00002608  2F2D EDAC                move.l     -[A7], [A5 - 0x1254]
0000260C  A9DA                     syscall    TEIdle
0000260E  102D E245                move.b     D0, [A5 - 0x1DBB]
00002612  6706                     beq        +0x8 /* 0000261A */
00002614  2F2D E246                move.l     -[A7], [A5 - 0x1DBA]
00002618  A9DA                     syscall    TEIdle
label0000261A:
0000261A  4EAD 0A42                jsr        [A5 + 0xA42 /* export_324, CODE:8 @ 00002CEC */]
0000261E  4EAD 17DA                jsr        [A5 + 0x17DA /* export_759, CODE:15 @ 00006AC8 */]
00002622  4EAD 1F52                jsr        [A5 + 0x1F52 /* export_998, CODE:19 @ 00001392 */]
00002626  4267                     clr.w      -[A7]
00002628  486D E2F2                pea.l      [A5 - 0x1D0E]
0000262C  A8AE                     syscall    EmptyRect
0000262E  101F                     move.b     D0, [A7]+
00002630  6604                     bne        +0x6 /* 00002636 */
00002632  4EBA FEAE                jsr        [PC - 0x152 /* 000024E2 */]
label00002636:
00002636  4267                     clr.w      -[A7]
00002638  4EAD 17D2                jsr        [A5 + 0x17D2 /* export_758, CODE:15 @ 00006A0A */]
0000263C  101F                     move.b     D0, [A7]+
0000263E  660E                     bne        +0x10 /* 0000264E */
00002640  3F3C 000E                move.w     -[A7], 0xE
00002644  4EAD 187A                jsr        [A5 + 0x187A /* export_779, CODE:16 @ 00000500 */]
00002648  1B7C 0001 F030           move.b     [A5 - 0xFD0], 0x1
label0000264E:
0000264E  4E5E                     unlink     A6
00002650  4E75                     rts
fn00002652:
00002652  4E56 0000                link       A6, 0
00002656  206E 000C                movea.l    A0, [A6 + 0xC]
0000265A  2050                     movea.l    A0, [A0]
0000265C  3028 003C                move.w     D0, [A0 + 0x3C]
00002660  48C0                     ext.l      D0
00002662  206E 0008                movea.l    A0, [A6 + 0x8]
00002666  D0A8 FFF6                add.l      D0, [A0 - 0xA]
0000266A  0C80 0000 7530           cmpi.l     D0, 0x7530 /* 'u0' */
00002670  6F14                     ble        +0x16 /* 00002686 */
00002672  3F3C 0023                move.w     -[A7], 0x23 /* '#' */
00002676  4EAD 187A                jsr        [A5 + 0x187A /* export_779, CODE:16 @ 00000500 */]
0000267A  206E 0008                movea.l    A0, [A6 + 0x8]
0000267E  2C48                     movea.l    A6, A0
00002680  4EFA 0460                jmp        [PC + 0x460 /* 00002AE2 */]
00002684  0000 4267                ori.b      D0, 0x67 /* 'g' */
// begin alternate branch 00002686-00002688
label00002686:
00002686  4267                     clr.w      -[A7]
// end alternate branch 00002686-00002688
label00002686: // (misaligned)
00002688  4EBA 2764                jsr        [PC + 0x2764 /* 00004DEE */]
0000268C  206E 0008                movea.l    A0, [A6 + 0x8]
00002690  315F FFFE                move.w     [A0 - 0x2], [A7]+
00002694  2F2E 000C                move.l     -[A7], [A6 + 0xC]
00002698  A9DB                     syscall    TEPaste
0000269A  4E5E                     unlink     A6
0000269C  205F                     movea.l    A0, [A7]+
0000269E  504F                     addq.w     A7, 8
000026A0  4ED0                     jmp        [A0]
export_16:
fn000026A2:
000026A2  4E56 FD92                link       A6, -0x026E
000026A6  48E7 1F38                movem.l    -[A7], D3,D4,D5,D6,D7,A2,A3,A4
000026AA  7001                     moveq.l    D0, 0x01
000026AC  B02D E2BB                cmp.b      D0, [A5 - 0x1D45]
000026B0  666E                     bne        +0x70 /* 00002720 */
000026B2  42A7                     clr.l      -[A7]
000026B4  42A7                     clr.l      -[A7]
000026B6  2F3A 0440                move.l     -[A7], [PC + 0x440 /* 00002AF8, value 0x54455854 'TEXT', cstring "TEXTWFLD\	newButtonNAME" */]
000026BA  486E FFF2                pea.l      [A6 - 0xE]
000026BE  A9FD                     syscall    GetScrap
000026C0  2D5F FFF6                move.l     [A6 - 0xA], [A7]+
000026C4  102D E245                move.b     D0, [A5 - 0x1DBB]
000026C8  673E                     beq        +0x40 /* 00002708 */
000026CA  102D F4CD                move.b     D0, [A5 - 0xB33]
000026CE  C02D F016                and.b      D0, [A5 - 0xFEA]
000026D2  6708                     beq        +0xA /* 000026DC */
000026D4  4EAD 15BA                jsr        [A5 + 0x15BA /* export_691, CODE:15 @ 00000AE6 */]
000026D8  6000 0408                bra        +0x40A /* 00002AE2 */
label000026DC:
000026DC  102D E257                move.b     D0, [A5 - 0x1DA9]
000026E0  0240 0001                andi.w     D0, 0x1
000026E4  6708                     beq        +0xA /* 000026EE */
000026E6  4EBA FE60                jsr        [PC - 0x1A0 /* 00002548 */]
000026EA  6000 03F6                bra        +0x3F8 /* 00002AE2 */
label000026EE:
000026EE  2F2D E246                move.l     -[A7], [A5 - 0x1DBA]
000026F2  2F0E                     move.l     -[A7], A6
000026F4  4EBA FF5C                jsr        [PC - 0xA4 /* 00002652 */]
000026F8  4EAD 22CA                jsr        [A5 + 0x22CA /* export_1109, CODE:20 @ 000060CC */]
000026FC  486D E258                pea.l      [A5 - 0x1DA8]
00002700  4EAD 207A                jsr        [A5 + 0x207A /* export_1035, CODE:20 @ 00000CEE */]
00002704  6000 03DC                bra        +0x3DE /* 00002AE2 */
label00002708:
00002708  102D EDAB                move.b     D0, [A5 - 0x1255]
0000270C  670E                     beq        +0x10 /* 0000271C */
0000270E  2F2D EDAC                move.l     -[A7], [A5 - 0x1254]
00002712  2F0E                     move.l     -[A7], A6
00002714  4EBA FF3C                jsr        [PC - 0xC4 /* 00002652 */]
00002718  6000 03C8                bra        +0x3CA /* 00002AE2 */
label0000271C:
0000271C  6000 03C0                bra        +0x3C2 /* 00002ADE */
label00002720:
00002720  4EBA FE26                jsr        [PC - 0x1DA /* 00002548 */]
00002724  102D F4CD                move.b     D0, [A5 - 0xB33]
00002728  C02D F016                and.b      D0, [A5 - 0xFEA]
0000272C  6708                     beq        +0xA /* 00002736 */
0000272E  4EAD 15BA                jsr        [A5 + 0x15BA /* export_691, CODE:15 @ 00000AE6 */]
00002732  6000 03AE                bra        +0x3B0 /* 00002AE2 */
label00002736:
00002736  7003                     moveq.l    D0, 0x03
00002738  B06D F02C                cmp.w      D0, [A5 - 0xFD4]
0000273C  6E00 03A0                bgt        +0x3A2 /* 00002ADE */
00002740  7005                     moveq.l    D0, 0x05
00002742  B02D E2BB                cmp.b      D0, [A5 - 0x1D45]
00002746  6618                     bne        +0x1A /* 00002760 */
00002748  3F3C 0004                move.w     -[A7], 0x4
0000274C  4EAD 15F2                jsr        [A5 + 0x15F2 /* export_698, CODE:15 @ 00000E4A */]
00002750  7001                     moveq.l    D0, 0x01
00002752  B06D EFDA                cmp.w      D0, [A5 - 0x1026]
00002756  6604                     bne        +0x6 /* 0000275C */
00002758  4EAD 13A2                jsr        [A5 + 0x13A2 /* export_624, CODE:12 @ 00004E60 */]
label0000275C:
0000275C  6000 0384                bra        +0x386 /* 00002AE2 */
label00002760:
00002760  7004                     moveq.l    D0, 0x04
00002762  B02D E2BB                cmp.b      D0, [A5 - 0x1D45]
00002766  6608                     bne        +0xA /* 00002770 */
00002768  4EAD 2152                jsr        [A5 + 0x2152 /* export_1062, CODE:20 @ 00002DFE */]
0000276C  6000 0374                bra        +0x376 /* 00002AE2 */
label00002770:
00002770  7004                     moveq.l    D0, 0x04
00002772  B06D F02C                cmp.w      D0, [A5 - 0xFD4]
00002776  6E00 0366                bgt        +0x368 /* 00002ADE */
0000277A  7002                     moveq.l    D0, 0x02
0000277C  B02D E2BB                cmp.b      D0, [A5 - 0x1D45]
00002780  6600 01F4                bne        +0x1F6 /* 00002976 */
00002784  4EBA F0C8                jsr        [PC - 0xF38 /* 0000184E */]
00002788  2D6D F62A FFEE           move.l     [A6 - 0x12], [A5 - 0x9D6]
0000278E  102D EFDF                move.b     D0, [A5 - 0x1021]
00002792  6706                     beq        +0x8 /* 0000279A */
00002794  2D6D F622 FFEE           move.l     [A6 - 0x12], [A5 - 0x9DE]
label0000279A:
0000279A  4267                     clr.w      -[A7]
0000279C  2F2E FFEE                move.l     -[A7], [A6 - 0x12]
000027A0  3F3C 0001                move.w     -[A7], 0x1
000027A4  486E FFD0                pea.l      [A6 - 0x30]
000027A8  4EAD 1D52                jsr        [A5 + 0x1D52 /* export_934, CODE:18 @ 000004B2 */]
000027AC  101F                     move.b     D0, [A7]+
000027AE  6700 01C2                beq        +0x1C4 /* 00002972 */
000027B2  42A7                     clr.l      -[A7]
000027B4  700A                     moveq.l    D0, 0x0A
000027B6  2F00                     move.l     -[A7], D0
000027B8  4EAD 18DA                jsr        [A5 + 0x18DA /* export_791, CODE:16 @ 00000896 */]
000027BC  2D5F FFFA                move.l     [A6 - 0x6], [A7]+
000027C0  42A7                     clr.l      -[A7]
000027C2  2F2E FFFA                move.l     -[A7], [A6 - 0x6]
000027C6  2F3A 034C                move.l     -[A7], [PC + 0x34C /* 00002B14, value 0x5742544E 'WBTN' */]
000027CA  486E FFF2                pea.l      [A6 - 0xE]
000027CE  A9FD                     syscall    GetScrap
000027D0  2D5F FFF6                move.l     [A6 - 0xA], [A7]+
000027D4  2D6E FFFA FFCC           move.l     [A6 - 0x34], [A6 - 0x6]
000027DA  206E FFCC                movea.l    A0, [A6 - 0x34]
000027DE  2050                     movea.l    A0, [A0]
000027E0  316E FFD2 0002           move.w     [A0 + 0x2], [A6 - 0x2E]
000027E6  4267                     clr.w      -[A7]
000027E8  206E FFCC                movea.l    A0, [A6 - 0x34]
000027EC  2050                     movea.l    A0, [A0]
000027EE  2F28 0010                move.l     -[A7], [A0 + 0x10]
000027F2  A86B                     syscall    LoWord
000027F4  3D5F FFA8                move.w     [A6 - 0x58], [A7]+
000027F8  4A6E FFA8                tst.w      [A6 - 0x58]
000027FC  6700 00E4                beq        +0xE6 /* 000028E2 */
00002800  42A7                     clr.l      -[A7]
00002802  3F2E FFA8                move.w     -[A7], [A6 - 0x58]
00002806  A9BB                     syscall    GetIcon
00002808  2D5F FFA4                move.l     [A6 - 0x5C], [A7]+
0000280C  6600 00D4                bne        +0xD6 /* 000028E2 */
00002810  42A7                     clr.l      -[A7]
00002812  2F3C 0000 0080           move.l     -[A7], 0x80
00002818  4EAD 18DA                jsr        [A5 + 0x18DA /* export_791, CODE:16 @ 00000896 */]
0000281C  2D5F FFA4                move.l     [A6 - 0x5C], [A7]+
00002820  42A7                     clr.l      -[A7]
00002822  2F2E FFA4                move.l     -[A7], [A6 - 0x5C]
00002826  2F3A 02E8                move.l     -[A7], [PC + 0x2E8 /* 00002B10, value 0x49434F4E 'ICON' */]
0000282A  486E FFF2                pea.l      [A6 - 0xE]
0000282E  A9FD                     syscall    GetScrap
00002830  4A9F                     tst.l      [A7]+
00002832  6F00 00AE                ble        +0xB0 /* 000028E2 */
00002836  70FF                     moveq.l    D0, 0xFFFFFFFF
00002838  B06D FC42                cmp.w      D0, [A5 - 0x3BE]
0000283C  663C                     bne        +0x3E /* 0000287A */
0000283E  486D FC48                pea.l      [A5 - 0x3B8]
00002842  486D FD48                pea.l      [A5 - 0x2B8]
00002846  486E FD92                pea.l      [A6 - 0x26E]
0000284A  3F3C 0002                move.w     -[A7], 0x2
0000284E  4EBA 2ACE                jsr        [PC + 0x2ACE /* 0000531E */]
00002852  41EE FEA4                lea.l      A0, [A6 - 0x15C]
00002856  43EE FD92                lea.l      A1, [A6 - 0x26E]
0000285A  703F                     moveq.l    D0, 0x3F
label0000285C:
0000285C  20D9                     move.l     [A0]+, [A1]+
0000285E  51C8 FFFC                dbf        D0, -0x6 /* 0000285C */
00002862  486E FEA4                pea.l      [A6 - 0x15C]
00002866  A9B1                     syscall    CreateResFile
00002868  4267                     clr.w      -[A7]
0000286A  486E FEA4                pea.l      [A6 - 0x15C]
0000286E  4267                     clr.w      -[A7]
00002870  1F3C 0003                move.b     -[A7], 0x3
00002874  A9C4                     syscall    OpenRFPerm
00002876  3B5F FC42                move.w     [A5 - 0x3BE], [A7]+
label0000287A:
0000287A  2F2E FFA4                move.l     -[A7], [A6 - 0x5C]
0000287E  2F3A 0290                move.l     -[A7], [PC + 0x290 /* 00002B10, value 0x49434F4E 'ICON' */]
00002882  3F2E FFA8                move.w     -[A7], [A6 - 0x58]
00002886  487A 0286                pea.l      [PC + 0x286 /* 00002B0E, value 0x4943 'IC', cstring "" */]
0000288A  A9AB                     syscall    AddResource
0000288C  42A7                     clr.l      -[A7]
0000288E  2F3C 0000 0100           move.l     -[A7], 0x100
00002894  4EAD 18DA                jsr        [A5 + 0x18DA /* export_791, CODE:16 @ 00000896 */]
00002898  2D5F FEA0                move.l     [A6 - 0x160], [A7]+
0000289C  42A7                     clr.l      -[A7]
0000289E  2F2E FEA0                move.l     -[A7], [A6 - 0x160]
000028A2  2F3A 0266                move.l     -[A7], [PC + 0x266 /* 00002B0A, value 0x4E414D45 'NAME', cstring "NAME" */]
000028A6  486E FFF2                pea.l      [A6 - 0xE]
000028AA  A9FD                     syscall    GetScrap
000028AC  4A9F                     tst.l      [A7]+
000028AE  6F1E                     ble        +0x20 /* 000028CE */
000028B0  2F2E FEA0                move.l     -[A7], [A6 - 0x160]
000028B4  4EBA 1DC2                jsr        [PC + 0x1DC2 /* 00004678 */]
000028B8  206E FEA0                movea.l    A0, [A6 - 0x160]
000028BC  2D50 FE9C                move.l     [A6 - 0x164], [A0]
000028C0  2F2E FFA4                move.l     -[A7], [A6 - 0x5C]
000028C4  3F2E FFA8                move.w     -[A7], [A6 - 0x58]
000028C8  2F2E FE9C                move.l     -[A7], [A6 - 0x164]
000028CC  A9A9                     syscall    SetResInfo
label000028CE:
000028CE  2F2E FEA0                move.l     -[A7], [A6 - 0x160]
000028D2  4EBA 1D62                jsr        [PC + 0x1D62 /* 00004636 */]
000028D6  2F2E FFA4                move.l     -[A7], [A6 - 0x5C]
000028DA  A9B0                     syscall    WriteResource
000028DC  3F2D FC42                move.w     -[A7], [A5 - 0x3BE]
000028E0  A999                     syscall    UpdateResFile
label000028E2:
000028E2  4267                     clr.w      -[A7]
000028E4  2F2E FFEE                move.l     -[A7], [A6 - 0x12]
000028E8  2F2E FFCC                move.l     -[A7], [A6 - 0x34]
000028EC  4EAD 1E9A                jsr        [A5 + 0x1E9A /* export_975, CODE:18 @ 0000353A */]
000028F0  101F                     move.b     D0, [A7]+
000028F2  671C                     beq        +0x1E /* 00002910 */
000028F4  206E FFCC                movea.l    A0, [A6 - 0x34]
000028F8  2050                     movea.l    A0, [A0]
000028FA  43ED E274                lea.l      A1, [A5 - 0x1D8C]
000028FE  7006                     moveq.l    D0, 0x06
label00002900:
00002900  22D8                     move.l     [A1]+, [A0]+
00002902  51C8 FFFC                dbf        D0, -0x6 /* 00002900 */
00002906  3290                     move.w     [A1], [A0]
00002908  2B6E FFEE E270           move.l     [A5 - 0x1D90], [A6 - 0x12]
0000290E  6004                     bra        +0x6 /* 00002914 */
label00002910:
00002910  4EAD 1812                jsr        [A5 + 0x1812 /* export_766, CODE:16 @ 00000208 */]
label00002914:
00002914  2F2E FFFA                move.l     -[A7], [A6 - 0x6]
00002918  4EAD 18D2                jsr        [A5 + 0x18D2 /* export_790, CODE:16 @ 0000083E */]
0000291C  3F3C 0002                move.w     -[A7], 0x2
00002920  4EBA 0C8E                jsr        [PC + 0xC8E /* 000035B0 */]
00002924  2F2D E270                move.l     -[A7], [A5 - 0x1D90]
00002928  3F2D E276                move.w     -[A7], [A5 - 0x1D8A]
0000292C  4EAD 1682                jsr        [A5 + 0x1682 /* export_716, CODE:15 @ 00003082 */]
00002930  2F2D E270                move.l     -[A7], [A5 - 0x1D90]
00002934  3F2D E276                move.w     -[A7], [A5 - 0x1D8A]
00002938  4EAD 16A2                jsr        [A5 + 0x16A2 /* export_720, CODE:15 @ 00003A22 */]
0000293C  41ED E2F2                lea.l      A0, [A5 - 0x1D0E]
00002940  43ED ED82                lea.l      A1, [A5 - 0x127E]
00002944  20D9                     move.l     [A0]+, [A1]+
00002946  20D9                     move.l     [A0]+, [A1]+
00002948  4EAD 1742                jsr        [A5 + 0x1742 /* export_740, CODE:15 @ 000050EE */]
0000294C  41ED E0E8                lea.l      A0, [A5 - 0x1F18]
00002950  43FA 01AE                lea.l      A1, [PC + 0x1AE /* 00002B00, value 0x96E6577 '\tnew', pstring "newButton" */]
00002954  20D9                     move.l     [A0]+, [A1]+
00002956  20D9                     move.l     [A0]+, [A1]+
00002958  3091                     move.w     [A0], [A1]
0000295A  2F2D E270                move.l     -[A7], [A5 - 0x1D90]
0000295E  3F2D E276                move.w     -[A7], [A5 - 0x1D8A]
00002962  2F2D F62A                move.l     -[A7], [A5 - 0x9D6]
00002966  2F2D F622                move.l     -[A7], [A5 - 0x9DE]
0000296A  4EAD 0B9A                jsr        [A5 + 0xB9A /* export_367, CODE:8 @ 00004010 */]
0000296E  6000 0172                bra        +0x174 /* 00002AE2 */
label00002972:
00002972  6000 016A                bra        +0x16C /* 00002ADE */
label00002976:
00002976  7003                     moveq.l    D0, 0x03
00002978  B02D E2BB                cmp.b      D0, [A5 - 0x1D45]
0000297C  6600 0160                bne        +0x162 /* 00002ADE */
00002980  2D6D F62A FFEE           move.l     [A6 - 0x12], [A5 - 0x9D6]
00002986  102D EFDF                move.b     D0, [A5 - 0x1021]
0000298A  6706                     beq        +0x8 /* 00002992 */
0000298C  2D6D F622 FFEE           move.l     [A6 - 0x12], [A5 - 0x9DE]
label00002992:
00002992  4267                     clr.w      -[A7]
00002994  2F2E FFEE                move.l     -[A7], [A6 - 0x12]
00002998  3F3C 0002                move.w     -[A7], 0x2
0000299C  486E FFAE                pea.l      [A6 - 0x52]
000029A0  4EAD 1D52                jsr        [A5 + 0x1D52 /* export_934, CODE:18 @ 000004B2 */]
000029A4  101F                     move.b     D0, [A7]+
000029A6  6700 0136                beq        +0x138 /* 00002ADE */
000029AA  42A7                     clr.l      -[A7]
000029AC  700A                     moveq.l    D0, 0x0A
000029AE  2F00                     move.l     -[A7], D0
000029B0  4EAD 18DA                jsr        [A5 + 0x18DA /* export_791, CODE:16 @ 00000896 */]
000029B4  2D5F FFFA                move.l     [A6 - 0x6], [A7]+
000029B8  42A7                     clr.l      -[A7]
000029BA  2F2E FFFA                move.l     -[A7], [A6 - 0x6]
000029BE  2F3A 013C                move.l     -[A7], [PC + 0x13C /* 00002AFC, value 0x57464C44 'WFLD', cstring "WFLD\	newButtonNAME" */]
000029C2  486E FFF2                pea.l      [A6 - 0xE]
000029C6  A9FD                     syscall    GetScrap
000029C8  2D5F FFF6                move.l     [A6 - 0xA], [A7]+
000029CC  2D6E FFFA FFAA           move.l     [A6 - 0x56], [A6 - 0x6]
000029D2  206E FFAA                movea.l    A0, [A6 - 0x56]
000029D6  2050                     movea.l    A0, [A0]
000029D8  316E FFB0 0002           move.w     [A0 + 0x2], [A6 - 0x50]
000029DE  4267                     clr.w      -[A7]
000029E0  2F2E FFEE                move.l     -[A7], [A6 - 0x12]
000029E4  2F2E FFAA                move.l     -[A7], [A6 - 0x56]
000029E8  4EAD 1E9A                jsr        [A5 + 0x1E9A /* export_975, CODE:18 @ 0000353A */]
000029EC  101F                     move.b     D0, [A7]+
000029EE  671A                     beq        +0x1C /* 00002A0A */
000029F0  206E FFAA                movea.l    A0, [A6 - 0x56]
000029F4  2050                     movea.l    A0, [A0]
000029F6  43ED E274                lea.l      A1, [A5 - 0x1D8C]
000029FA  7006                     moveq.l    D0, 0x06
label000029FC:
000029FC  22D8                     move.l     [A1]+, [A0]+
000029FE  51C8 FFFC                dbf        D0, -0x6 /* 000029FC */
00002A02  3290                     move.w     [A1], [A0]
00002A04  2B6E FFEE E270           move.l     [A5 - 0x1D90], [A6 - 0x12]
label00002A0A:
00002A0A  4267                     clr.w      -[A7]
00002A0C  4EAD 221A                jsr        [A5 + 0x221A /* export_1087, CODE:20 @ 00004B46 */]
00002A10  101F                     move.b     D0, [A7]+
00002A12  676E                     beq        +0x70 /* 00002A82 */
00002A14  42A7                     clr.l      -[A7]
00002A16  2F2E FFFA                move.l     -[A7], [A6 - 0x6]
00002A1A  2F3A 00DC                move.l     -[A7], [PC + 0xDC /* 00002AF8, value 0x54455854 'TEXT', cstring "TEXTWFLD\	newButtonNAME" */]
00002A1E  486E FFF2                pea.l      [A6 - 0xE]
00002A22  A9FD                     syscall    GetScrap
00002A24  2D5F FFF6                move.l     [A6 - 0xA], [A7]+
00002A28  6F58                     ble        +0x5A /* 00002A82 */
00002A2A  2F2E FFFA                move.l     -[A7], [A6 - 0x6]
00002A2E  202E FFF6                move.l     D0, [A6 - 0xA]
00002A32  5280                     addq.l     D0, 1
00002A34  2F00                     move.l     -[A7], D0
00002A36  4EBA 1C1C                jsr        [PC + 0x1C1C /* 00004654 */]
00002A3A  206E FFFA                movea.l    A0, [A6 - 0x6]
00002A3E  202E FFF6                move.l     D0, [A6 - 0xA]
00002A42  D090                     add.l      D0, [A0]
00002A44  2D40 FE98                move.l     [A6 - 0x168], D0
00002A48  206E FE98                movea.l    A0, [A6 - 0x168]
00002A4C  4210                     clr.b      [A0]
00002A4E  3D6E FFB0 FE94           move.w     [A6 - 0x16C], [A6 - 0x50]
00002A54  202E FFEE                move.l     D0, [A6 - 0x12]
00002A58  B0AD F62A                cmp.l      D0, [A5 - 0x9D6]
00002A5C  660A                     bne        +0xC /* 00002A68 */
00002A5E  302E FE94                move.w     D0, [A6 - 0x16C]
00002A62  4440                     neg.w      D0
00002A64  3D40 FE94                move.w     [A6 - 0x16C], D0
label00002A68:
00002A68  4267                     clr.w      -[A7]
00002A6A  2F2D F62A                move.l     -[A7], [A5 - 0x9D6]
00002A6E  3F2E FE94                move.w     -[A7], [A6 - 0x16C]
00002A72  2F2E FFFA                move.l     -[A7], [A6 - 0x6]
00002A76  486E FE93                pea.l      [A6 - 0x16D]
00002A7A  4EAD 1E92                jsr        [A5 + 0x1E92 /* export_974, CODE:18 @ 000032E0 */]
00002A7E  1D5F FE97                move.b     [A6 - 0x169], [A7]+
label00002A82:
00002A82  2F2E FFFA                move.l     -[A7], [A6 - 0x6]
00002A86  4EAD 18D2                jsr        [A5 + 0x18D2 /* export_790, CODE:16 @ 0000083E */]
00002A8A  3F3C 0003                move.w     -[A7], 0x3
00002A8E  4EBA 0B20                jsr        [PC + 0xB20 /* 000035B0 */]
00002A92  2F2D E270                move.l     -[A7], [A5 - 0x1D90]
00002A96  3F2D E276                move.w     -[A7], [A5 - 0x1D8A]
00002A9A  4EAD 1682                jsr        [A5 + 0x1682 /* export_716, CODE:15 @ 00003082 */]
00002A9E  2F2D E270                move.l     -[A7], [A5 - 0x1D90]
00002AA2  3F2D E276                move.w     -[A7], [A5 - 0x1D8A]
00002AA6  4EAD 16A2                jsr        [A5 + 0x16A2 /* export_720, CODE:15 @ 00003A22 */]
00002AAA  41ED E2F2                lea.l      A0, [A5 - 0x1D0E]
00002AAE  43ED ED82                lea.l      A1, [A5 - 0x127E]
00002AB2  20D9                     move.l     [A0]+, [A1]+
00002AB4  20D9                     move.l     [A0]+, [A1]+
00002AB6  4EAD 1742                jsr        [A5 + 0x1742 /* export_740, CODE:15 @ 000050EE */]
00002ABA  41ED E0E8                lea.l      A0, [A5 - 0x1F18]
00002ABE  43FA 002E                lea.l      A1, [PC + 0x2E /* 00002AEE, value 0x86E6577, pstring "newField" */]
00002AC2  20D9                     move.l     [A0]+, [A1]+
00002AC4  20D9                     move.l     [A0]+, [A1]+
00002AC6  3091                     move.w     [A0], [A1]
00002AC8  2F2E FFEE                move.l     -[A7], [A6 - 0x12]
00002ACC  3F2D E276                move.w     -[A7], [A5 - 0x1D8A]
00002AD0  2F2D F62A                move.l     -[A7], [A5 - 0x9D6]
00002AD4  2F2D F622                move.l     -[A7], [A5 - 0x9DE]
00002AD8  4EAD 0B9A                jsr        [A5 + 0xB9A /* export_367, CODE:8 @ 00004010 */]
00002ADC  6004                     bra        +0x6 /* 00002AE2 */
label00002ADE:
00002ADE  4EAD 1812                jsr        [A5 + 0x1812 /* export_766, CODE:16 @ 00000208 */]
label00002AE2:
00002AE2  4FEE FD72                lea.l      A7, [A6 - 0x28E]
00002AE6  4CDF 1CF8                movem.l    D3,D4,D5,D6,D7,A2,A3,A4, [A7]+
00002AEA  4E5E                     unlink     A6
00002AEC  4E75                     rts
00002AEE  086E 6577 4669           bchg.b     [A6 + 0x4669], 0x77 /* 'w' */
00002AF4  656C                     bcs        +0x6E /* 00002B62 */
00002AF6  6400 5445                bcc        +0x5447 /* 00007F3D */
00002AFA  5854                     addq.w     [A4], 4
00002AFC  5746                     subq.w     D6, 3
00002AFE  4C44 096E                divs.l     D6:D0, D4
00002B02  6577                     bcs        +0x79 /* 00002B7B */
00002B04  4275 7474                clr.w      [A5 + D7.w * 4 + 0x74]
00002B08  6F6E                     ble        +0x70 /* 00002B78 */
00002B0A  4E41                     trap       1
00002B0C  4D45                     chk.w      D6, D5
00002B0E  0000 4943                ori.b      D0, 0x43 /* 'C' */
00002B12  4F4E                     chk.w      D7, A6
00002B14  5742                     subq.w     D2, 3
00002B16  544E                     addq.w     A6, 2
fn00002B18:
00002B18  4E56 FFFE                link       A6, -0x0002
00002B1C  3D6D E2C8 FFFE           move.w     [A6 - 0x2], [A5 - 0x1D38]
00002B22  42A7                     clr.l      -[A7]
00002B24  A975                     syscall    TickCount
00002B26  201F                     move.l     D0, [A7]+
00002B28  E288                     lsr        D0, 1
00002B2A  C0BC 0000 0007           and.l      D0, 0x7
00002B30  3B40 E2C8                move.w     [A5 - 0x1D38], D0
00002B34  B06E FFFE                cmp.w      D0, [A6 - 0x2]
00002B38  6728                     beq        +0x2A /* 00002B62 */
00002B3A  486D EE38                pea.l      [A5 - 0x11C8]
00002B3E  A873                     syscall    SetPort
00002B40  A89E                     syscall    PenNormal
00002B42  3F3C 00CC                move.w     -[A7], 0xCC
00002B46  3F2D E2C8                move.w     -[A7], [A5 - 0x1D38]
00002B4A  486D EE72                pea.l      [A5 - 0x118E]
00002B4E  4EAD 1C2A                jsr        [A5 + 0x1C2A /* export_897, CODE:17 @ 00000A16 */]
00002B52  486D E27A                pea.l      [A5 - 0x1D86]
00002B56  A8A1                     syscall    FrameRect
00002B58  A89E                     syscall    PenNormal
00002B5A  486D E27A                pea.l      [A5 - 0x1D86]
00002B5E  4EAD 174A                jsr        [A5 + 0x174A /* export_741, CODE:15 @ 0000516C */]
label00002B62:
00002B62  4E5E                     unlink     A6
00002B64  4E75                     rts
fn00002B66:
00002B66  4E56 FE9A                link       A6, -0x0166
00002B6A  48E7 0300                movem.l    -[A7], D6,D7
00002B6E  4267                     clr.w      -[A7]
00002B70  4EAD 21B2                jsr        [A5 + 0x21B2 /* export_1074, CODE:20 @ 000040B8 */]
00002B74  101F                     move.b     D0, [A7]+
00002B76  6600 0202                bne        +0x204 /* 00002D7A */
// begin alternate branch 00002B78-00002B7C
label00002B78:
00002B78  0202 7002                andi.b     D2, 0x2
// end alternate branch 00002B78-00002B7C
label00002B78: // (misaligned)
00002B7A  7002                     moveq.l    D0, 0x02
00002B7C  B06D F008                cmp.w      D0, [A5 - 0xFF8]
00002B80  57C0                     seq        D0
00002B82  720C                     moveq.l    D1, 0x0C
00002B84  B26D F008                cmp.w      D1, [A5 - 0xFF8]
00002B88  57C1                     seq        D1
00002B8A  8001                     or.b       D0, D1
00002B8C  670E                     beq        +0x10 /* 00002B9C */
00002B8E  2F3C 0001 0004           move.l     -[A7], 0x10004
00002B94  4EAD 21BA                jsr        [A5 + 0x21BA /* export_1075, CODE:20 @ 00004336 */]
00002B98  6000 01E0                bra        +0x1E2 /* 00002D7A */
label00002B9C:
00002B9C  7003                     moveq.l    D0, 0x03
00002B9E  B06D F008                cmp.w      D0, [A5 - 0xFF8]
00002BA2  6608                     bne        +0xA /* 00002BAC */
00002BA4  4EBA E1FC                jsr        [PC - 0x1E04 /* 00000DA2 */]
00002BA8  6000 01D0                bra        +0x1D2 /* 00002D7A */
label00002BAC:
00002BAC  7004                     moveq.l    D0, 0x04
00002BAE  B06D F008                cmp.w      D0, [A5 - 0xFF8]
00002BB2  57C0                     seq        D0
00002BB4  4A6D E276                tst.w      [A5 - 0x1D8A]
00002BB8  56C1                     sne        D1
00002BBA  C001                     and.b      D0, D1
00002BBC  6708                     beq        +0xA /* 00002BC6 */
00002BBE  4EBA E1E2                jsr        [PC - 0x1E1E /* 00000DA2 */]
00002BC2  6000 01B6                bra        +0x1B8 /* 00002D7A */
label00002BC6:
00002BC6  4EAD 17B2                jsr        [A5 + 0x17B2 /* export_754, CODE:15 @ 000064EE */]
00002BCA  3E2D F00C                move.w     D7, [A5 - 0xFF4]
00002BCE  7009                     moveq.l    D0, 0x09
00002BD0  B047                     cmp.w      D0, D7
00002BD2  57C0                     seq        D0
00002BD4  122D F00B                move.b     D1, [A5 - 0xFF5]
00002BD8  0A01 0001                xori.b     D1, 0x1
00002BDC  C001                     and.b      D0, D1
00002BDE  6748                     beq        +0x4A /* 00002C28 */
00002BE0  102D F003                move.b     D0, [A5 - 0xFFD]
00002BE4  670A                     beq        +0xC /* 00002BF0 */
00002BE6  2F2D EDC4                move.l     -[A7], [A5 - 0x123C]
00002BEA  4EAD 227A                jsr        [A5 + 0x227A /* export_1099, CODE:20 @ 000053BE */]
00002BEE  6034                     bra        +0x36 /* 00002C24 */
label00002BF0:
00002BF0  7005                     moveq.l    D0, 0x05
00002BF2  B06D F018                cmp.w      D0, [A5 - 0xFE8]
00002BF6  672C                     beq        +0x2E /* 00002C24 */
00002BF8  41ED E0E8                lea.l      A0, [A5 - 0x1F18]
00002BFC  43FA 018A                lea.l      A1, [PC + 0x18A /* 00002D88, value 0x6746162, pstring "tabKey" */]
00002C00  20D9                     move.l     [A0]+, [A1]+
00002C02  20D9                     move.l     [A0]+, [A1]+
00002C04  102D E245                move.b     D0, [A5 - 0x1DBB]
00002C08  6716                     beq        +0x18 /* 00002C20 */
00002C0A  2F2D E24E                move.l     -[A7], [A5 - 0x1DB2]
00002C0E  3F2D E254                move.w     -[A7], [A5 - 0x1DAC]
00002C12  2F2D F62A                move.l     -[A7], [A5 - 0x9D6]
00002C16  2F2D F622                move.l     -[A7], [A5 - 0x9DE]
00002C1A  4EAD 0B9A                jsr        [A5 + 0xB9A /* export_367, CODE:8 @ 00004010 */]
00002C1E  6004                     bra        +0x6 /* 00002C24 */
label00002C20:
00002C20  4EAD 0B8A                jsr        [A5 + 0xB8A /* export_365, CODE:8 @ 00003F30 */]
label00002C24:
00002C24  6000 0154                bra        +0x156 /* 00002D7A */
label00002C28:
00002C28  4A6D E276                tst.w      [A5 - 0x1D8A]
00002C2C  6730                     beq        +0x32 /* 00002C5E */
00002C2E  7011                     moveq.l    D0, 0x11
00002C30  B06D F008                cmp.w      D0, [A5 - 0xFF8]
00002C34  660E                     bne        +0x10 /* 00002C44 */
00002C36  2F3C 0008 0006           move.l     -[A7], 0x80006
00002C3C  4EAD 21BA                jsr        [A5 + 0x21BA /* export_1075, CODE:20 @ 00004336 */]
00002C40  6000 0138                bra        +0x13A /* 00002D7A */
label00002C44:
00002C44  7012                     moveq.l    D0, 0x12
00002C46  B06D F008                cmp.w      D0, [A5 - 0xFF8]
00002C4A  660E                     bne        +0x10 /* 00002C5A */
00002C4C  2F3C 0007 0006           move.l     -[A7], 0x70006
00002C52  4EAD 21BA                jsr        [A5 + 0x21BA /* export_1075, CODE:20 @ 00004336 */]
00002C56  6000 0122                bra        +0x124 /* 00002D7A */
label00002C5A:
00002C5A  4EBA F8EC                jsr        [PC - 0x714 /* 00002548 */]
label00002C5E:
00002C5E  7001                     moveq.l    D0, 0x01
00002C60  B06D F008                cmp.w      D0, [A5 - 0xFF8]
00002C64  57C0                     seq        D0
00002C66  7220                     moveq.l    D1, 0x20
00002C68  B247                     cmp.w      D1, D7
00002C6A  5EC1                     sgt        D1
00002C6C  7408                     moveq.l    D2, 0x08
00002C6E  B447                     cmp.w      D2, D7
00002C70  56C2                     sne        D2
00002C72  C202                     and.b      D1, D2
00002C74  142D F00B                move.b     D2, [A5 - 0xFF5]
00002C78  0A02 0001                xori.b     D2, 0x1
00002C7C  C202                     and.b      D1, D2
00002C7E  8001                     or.b       D0, D1
00002C80  0240 0001                andi.w     D0, 0x1
00002C84  6708                     beq        +0xA /* 00002C8E */
00002C86  4EAD 1812                jsr        [A5 + 0x1812 /* export_766, CODE:16 @ 00000208 */]
00002C8A  6000 00EE                bra        +0xF0 /* 00002D7A */
label00002C8E:
00002C8E  102D E245                move.b     D0, [A5 - 0x1DBB]
00002C92  674C                     beq        +0x4E /* 00002CE0 */
00002C94  102D F4CD                move.b     D0, [A5 - 0xB33]
00002C98  C02D F016                and.b      D0, [A5 - 0xFEA]
00002C9C  6708                     beq        +0xA /* 00002CA6 */
00002C9E  4EAD 15BA                jsr        [A5 + 0x15BA /* export_691, CODE:15 @ 00000AE6 */]
00002CA2  6000 00D6                bra        +0xD8 /* 00002D7A */
label00002CA6:
00002CA6  102D E257                move.b     D0, [A5 - 0x1DA9]
00002CAA  0240 0001                andi.w     D0, 0x1
00002CAE  6706                     beq        +0x8 /* 00002CB6 */
00002CB0  4EBA F896                jsr        [PC - 0x76A /* 00002548 */]
00002CB4  6040                     bra        +0x42 /* 00002CF6 */
label00002CB6:
00002CB6  206D E246                movea.l    A0, [A5 - 0x1DBA]
00002CBA  2050                     movea.l    A0, [A0]
00002CBC  3C28 005E                move.w     D6, [A0 + 0x5E]
00002CC0  3F2D F00C                move.w     -[A7], [A5 - 0xFF4]
00002CC4  2F2D E246                move.l     -[A7], [A5 - 0x1DBA]
00002CC8  4EAD 2112                jsr        [A5 + 0x2112 /* export_1054, CODE:20 @ 0000172C */]
00002CCC  206D E246                movea.l    A0, [A5 - 0x1DBA]
00002CD0  2050                     movea.l    A0, [A0]
00002CD2  BC68 005E                cmp.w      D6, [A0 + 0x5E]
00002CD6  6704                     beq        +0x6 /* 00002CDC */
00002CD8  4EAD 22CA                jsr        [A5 + 0x22CA /* export_1109, CODE:20 @ 000060CC */]
label00002CDC:
00002CDC  6000 009C                bra        +0x9E /* 00002D7A */
label00002CE0:
00002CE0  102D EDAB                move.b     D0, [A5 - 0x1255]
00002CE4  6710                     beq        +0x12 /* 00002CF6 */
00002CE6  3F2D F00C                move.w     -[A7], [A5 - 0xFF4]
00002CEA  2F2D EDAC                move.l     -[A7], [A5 - 0x1254]
00002CEE  4EAD 2112                jsr        [A5 + 0x2112 /* export_1054, CODE:20 @ 0000172C */]
00002CF2  6000 0086                bra        +0x88 /* 00002D7A */
label00002CF6:
00002CF6  302D F00C                move.w     D0, [A5 - 0xFF4]
00002CFA  6B18                     bmi        +0x1A /* 00002D14 */
00002CFC  B07C 002F                cmp.w      D0, 0x2F /* '/' */
00002D00  6E12                     bgt        +0x14 /* 00002D14 */
00002D02  41FA 0084                lea.l      A0, [PC + 0x84 /* 00002D88, value 0x6746162, pstring "tabKey" */]
00002D06  3200                     move.w     D1, D0
00002D08  E649                     lsr        D1.w, 3
00002D0A  4441                     neg.w      D1
00002D0C  0130 10FF                btst       [A0 + D1.w - 0x1], D0
00002D10  0A3C 0004                xori.b     ccr, 4
label00002D14:
00002D14  57C0                     seq        D0
00002D16  122D F00B                move.b     D1, [A5 - 0xFF5]
00002D1A  0A01 0001                xori.b     D1, 0x1
00002D1E  C001                     and.b      D0, D1
00002D20  673C                     beq        +0x3E /* 00002D5E */
00002D22  2F3C 0000 7FFF           move.l     -[A7], 0x7FFF
00002D28  2F3C 0000 7FFF           move.l     -[A7], 0x7FFF
00002D2E  2F2D EDAC                move.l     -[A7], [A5 - 0x1254]
00002D32  A9D1                     syscall    TESetSelect
00002D34  4EAD 213A                jsr        [A5 + 0x213A /* export_1059, CODE:20 @ 000023E2 */]
00002D38  3F3C 0020                move.w     -[A7], 0x20 /* ' ' */
00002D3C  2F2D EDAC                move.l     -[A7], [A5 - 0x1254]
00002D40  4EAD 2112                jsr        [A5 + 0x2112 /* export_1054, CODE:20 @ 0000172C */]
00002D44  3F2D F00C                move.w     -[A7], [A5 - 0xFF4]
00002D48  2F2D EDAC                move.l     -[A7], [A5 - 0x1254]
00002D4C  4EAD 2112                jsr        [A5 + 0x2112 /* export_1054, CODE:20 @ 0000172C */]
00002D50  3F3C 0020                move.w     -[A7], 0x20 /* ' ' */
00002D54  2F2D EDAC                move.l     -[A7], [A5 - 0x1254]
00002D58  4EAD 2112                jsr        [A5 + 0x2112 /* export_1054, CODE:20 @ 0000172C */]
00002D5C  601C                     bra        +0x1E /* 00002D7A */
label00002D5E:
00002D5E  4267                     clr.w      -[A7]
00002D60  4EAD 208A                jsr        [A5 + 0x208A /* export_1037, CODE:20 @ 00000DD0 */]
00002D64  101F                     move.b     D0, [A7]+
00002D66  670E                     beq        +0x10 /* 00002D76 */
00002D68  3F2D F00C                move.w     -[A7], [A5 - 0xFF4]
00002D6C  2F2D EDAC                move.l     -[A7], [A5 - 0x1254]
00002D70  4EAD 2112                jsr        [A5 + 0x2112 /* export_1054, CODE:20 @ 0000172C */]
00002D74  6004                     bra        +0x6 /* 00002D7A */
label00002D76:
00002D76  4EAD 1812                jsr        [A5 + 0x1812 /* export_766, CODE:16 @ 00000208 */]
label00002D7A:
00002D7A  4CDF 00C0                movem.l    D6,D7, [A7]+
00002D7E  4E5E                     unlink     A6
00002D80  4E75                     rts
00002D82  AC00                     syscall    SoundDispatch, auto_pop
00002D84  0000 0000                ori.b      D0, 0x0
00002D88  0674 6162 4B65           addi.w     <<invalid full ext with IS == 1 and I/IS == 5>>, 0x6162 /* 'ab' */
00002D8E  7900                     moveq.l    D4, 0x00
export_17:
fn00002D90:
00002D90  4E56 FFFE                link       A6, -0x0002
00002D94  426D EFDA                clr.w      [A5 - 0x1026]
00002D98  422D EFE4                clr.b      [A5 - 0x101C]
00002D9C  422D EFE3                clr.b      [A5 - 0x101D]
00002DA0  1B7C 0001 EFE2           move.b     [A5 - 0x101E], 0x1
00002DA6  3F2D EFDC                move.w     -[A7], [A5 - 0x1024]
00002DAA  4EAD 15F2                jsr        [A5 + 0x15F2 /* export_698, CODE:15 @ 00000E4A */]
00002DAE  4EBA 0874                jsr        [PC + 0x874 /* 00003624 */]
00002DB2  4E5E                     unlink     A6
00002DB4  4E75                     rts
fn00002DB6:
00002DB6  4E56 FFF6                link       A6, -0x000A
00002DBA  48E7 0318                movem.l    -[A7], D6,D7,A3,A4
00002DBE  286E 0008                movea.l    A4, [A6 + 0x8]
00002DC2  A89E                     syscall    PenNormal
00002DC4  486D FE90                pea.l      [A5 - 0x170]
00002DC8  A89D                     syscall    PenPat
00002DCA  3F3C 000E                move.w     -[A7], 0xE
00002DCE  A89C                     syscall    PenMode
00002DD0  41EC FFF0                lea.l      A0, [A4 - 0x10]
00002DD4  43ED ED8A                lea.l      A1, [A5 - 0x1276]
00002DD8  20D9                     move.l     [A0]+, [A1]+
00002DDA  20D9                     move.l     [A0]+, [A1]+
00002DDC  2F3C 0002 0002           move.l     -[A7], 0x20002
00002DE2  A89B                     syscall    PenSize
00002DE4  206C FFF8                movea.l    A0, [A4 - 0x8]
00002DE8  2E10                     move.l     D7, [A0]
00002DEA  702E                     moveq.l    D0, 0x2E
00002DEC  DE80                     add.l      D7, D0
00002DEE  206C FFF8                movea.l    A0, [A4 - 0x8]
00002DF2  2050                     movea.l    A0, [A0]
00002DF4  3D68 0020 FFF8           move.w     [A6 - 0x8], [A0 + 0x20]
00002DFA  7C01                     moveq.l    D6, 0x01
00002DFC  6044                     bra        +0x46 /* 00002E42 */
label00002DFE:
00002DFE  2647                     movea.l    A3, D7
00002E00  4A6C FFDE                tst.w      [A4 - 0x22]
00002E04  57C0                     seq        D0
00002E06  122B 0004                move.b     D1, [A3 + 0x4]
00002E0A  4881                     ext.w      D1
00002E0C  B26C FFDE                cmp.w      D1, [A4 - 0x22]
00002E10  57C1                     seq        D1
00002E12  8001                     or.b       D0, D1
00002E14  6722                     beq        +0x24 /* 00002E38 */
00002E16  4A2B 0005                tst.b      [A3 + 0x5]
00002E1A  5CC0                     sge        D0
00002E1C  802C FFDD                or.b       D0, [A4 - 0x23]
00002E20  0240 0001                andi.w     D0, 0x1
00002E24  6712                     beq        +0x14 /* 00002E38 */
00002E26  486B 0006                pea.l      [A3 + 0x6]
00002E2A  A8A1                     syscall    FrameRect
00002E2C  486B 0006                pea.l      [A3 + 0x6]
00002E30  486C FFF0                pea.l      [A4 - 0x10]
00002E34  4EAD 1CEA                jsr        [A5 + 0x1CEA /* export_921, CODE:17 @ 00001DBA */]
label00002E38:
00002E38  3013                     move.w     D0, [A3]
00002E3A  48C0                     ext.l      D0
00002E3C  DE80                     add.l      D7, D0
00002E3E  5246                     addq.w     D6, 1
00002E40  6906                     bvs        +0x8 /* 00002E48 */
label00002E42:
00002E42  BC6E FFF8                cmp.w      D6, [A6 - 0x8]
00002E46  6FB6                     ble        -0x48 /* 00002DFE */
label00002E48:
00002E48  2F3C 0001 0001           move.l     -[A7], 0x10001
00002E4E  A89B                     syscall    PenSize
00002E50  206C FFFC                movea.l    A0, [A4 - 0x4]
00002E54  2E10                     move.l     D7, [A0]
00002E56  7032                     moveq.l    D0, 0x32
00002E58  DE80                     add.l      D7, D0
00002E5A  206C FFFC                movea.l    A0, [A4 - 0x4]
00002E5E  2050                     movea.l    A0, [A0]
00002E60  3D68 0024 FFF6           move.w     [A6 - 0xA], [A0 + 0x24]
00002E66  7C01                     moveq.l    D6, 0x01
00002E68  6044                     bra        +0x46 /* 00002EAE */
label00002E6A:
00002E6A  2647                     movea.l    A3, D7
00002E6C  4A6C FFDE                tst.w      [A4 - 0x22]
00002E70  57C0                     seq        D0
00002E72  122B 0004                move.b     D1, [A3 + 0x4]
00002E76  4881                     ext.w      D1
00002E78  B26C FFDE                cmp.w      D1, [A4 - 0x22]
00002E7C  57C1                     seq        D1
00002E7E  8001                     or.b       D0, D1
00002E80  6722                     beq        +0x24 /* 00002EA4 */
00002E82  4A2B 0005                tst.b      [A3 + 0x5]
00002E86  5CC0                     sge        D0
00002E88  802C FFDD                or.b       D0, [A4 - 0x23]
00002E8C  0240 0001                andi.w     D0, 0x1
00002E90  6712                     beq        +0x14 /* 00002EA4 */
00002E92  486B 0006                pea.l      [A3 + 0x6]
00002E96  A8A1                     syscall    FrameRect
00002E98  486B 0006                pea.l      [A3 + 0x6]
00002E9C  486C FFF0                pea.l      [A4 - 0x10]
00002EA0  4EAD 1CEA                jsr        [A5 + 0x1CEA /* export_921, CODE:17 @ 00001DBA */]
label00002EA4:
00002EA4  3013                     move.w     D0, [A3]
00002EA6  48C0                     ext.l      D0
00002EA8  DE80                     add.l      D7, D0
00002EAA  5246                     addq.w     D6, 1
00002EAC  6906                     bvs        +0x8 /* 00002EB4 */
label00002EAE:
00002EAE  BC6E FFF6                cmp.w      D6, [A6 - 0xA]
00002EB2  6FB6                     ble        -0x48 /* 00002E6A */
label00002EB4:
00002EB4  A89E                     syscall    PenNormal
00002EB6  4CDF 18C0                movem.l    D6,D7,A3,A4, [A7]+
00002EBA  4E5E                     unlink     A6
00002EBC  2E9F                     move.l     [A7], [A7]+
00002EBE  4E75                     rts
fn00002EC0:
00002EC0  4E56 FDB4                link       A6, -0x024C
00002EC4  48E7 0F00                movem.l    -[A7], D4,D5,D6,D7
00002EC8  486E FDB4                pea.l      [A6 - 0x24C]
00002ECC  3F3C 0020                move.w     -[A7], 0x20 /* ' ' */
00002ED0  4EAD 209A                jsr        [A5 + 0x209A /* export_1039, CODE:20 @ 00000F60 */]
00002ED4  205F                     movea.l    A0, [A7]+
00002ED6  43EE FEB4                lea.l      A1, [A6 - 0x14C]
00002EDA  703F                     moveq.l    D0, 0x3F
label00002EDC:
00002EDC  22D8                     move.l     [A1]+, [A0]+
00002EDE  51C8 FFFC                dbf        D0, -0x6 /* 00002EDC */
00002EE2  7001                     moveq.l    D0, 0x01
00002EE4  B06D EFDC                cmp.w      D0, [A5 - 0x1024]
00002EE8  56C0                     sne        D0
00002EEA  4400                     neg.b      D0
00002EEC  1D40 FFDD                move.b     [A6 - 0x23], D0
00002EF0  4267                     clr.w      -[A7]
00002EF2  4EAD 221A                jsr        [A5 + 0x221A /* export_1087, CODE:20 @ 00004B46 */]
00002EF6  1E1F                     move.b     D7, [A7]+
label00002EF8:
00002EF8  1D47 FFB6                move.b     [A6 - 0x4A], D7
00002EFC  3D7C 0001 FFDE           move.w     [A6 - 0x22], 0x1
00002F02  7001                     moveq.l    D0, 0x01
00002F04  B06D EFDC                cmp.w      D0, [A5 - 0x1024]
00002F08  57C0                     seq        D0
00002F0A  2207                     move.l     D1, D7
00002F0C  C200                     and.b      D1, D0
00002F0E  6704                     beq        +0x6 /* 00002F14 */
00002F10  426E FFDE                clr.w      [A6 - 0x22]
label00002F14:
00002F14  7003                     moveq.l    D0, 0x03
00002F16  B06D EFDC                cmp.w      D0, [A5 - 0x1024]
00002F1A  660E                     bne        +0x10 /* 00002F2A */
00002F1C  1007                     move.b     D0, D7
00002F1E  6704                     beq        +0x6 /* 00002F24 */
00002F20  6000 0186                bra        +0x188 /* 000030A8 */
label00002F24:
00002F24  3D7C 0002 FFDE           move.w     [A6 - 0x22], 0x2
label00002F2A:
00002F2A  1F3C 0001                move.b     -[A7], 0x1
00002F2E  4EAD 1602                jsr        [A5 + 0x1602 /* export_700, CODE:15 @ 0000114C */]
00002F32  486D EE38                pea.l      [A5 - 0x11C8]
00002F36  A873                     syscall    SetPort
00002F38  42A7                     clr.l      -[A7]
00002F3A  2F2D F622                move.l     -[A7], [A5 - 0x9DE]
00002F3E  4EAD 1F6A                jsr        [A5 + 0x1F6A /* export_1001, CODE:19 @ 000016EC */]
00002F42  2D5F FFF8                move.l     [A6 - 0x8], [A7]+
00002F46  42A7                     clr.l      -[A7]
00002F48  2F2D F62A                move.l     -[A7], [A5 - 0x9D6]
00002F4C  4EAD 1F7A                jsr        [A5 + 0x1F7A /* export_1003, CODE:19 @ 00001744 */]
00002F50  2D5F FFFC                move.l     [A6 - 0x4], [A7]+
00002F54  2F0E                     move.l     -[A7], A6
00002F56  4EBA FE5E                jsr        [PC - 0x1A2 /* 00002DB6 */]
00002F5A  2F2D ECE4                move.l     -[A7], [A5 - 0x131C]
00002F5E  486E FFF0                pea.l      [A6 - 0x10]
00002F62  4EAD 158A                jsr        [A5 + 0x158A /* export_685, CODE:15 @ 000006FE */]
00002F66  2F0E                     move.l     -[A7], A6
00002F68  4EBA FE4C                jsr        [PC - 0x1B4 /* 00002DB6 */]
00002F6C  2F2D F62A                move.l     -[A7], [A5 - 0x9D6]
00002F70  4267                     clr.w      -[A7]
00002F72  4EAD 1EF2                jsr        [A5 + 0x1EF2 /* export_986, CODE:19 @ 00000450 */]
00002F76  2F2D F622                move.l     -[A7], [A5 - 0x9DE]
00002F7A  4267                     clr.w      -[A7]
00002F7C  4EAD 1EE2                jsr        [A5 + 0x1EE2 /* export_984, CODE:19 @ 00000414 */]
label00002F80:
00002F80  4267                     clr.w      -[A7]
00002F82  4EAD 221A                jsr        [A5 + 0x221A /* export_1087, CODE:20 @ 00004B46 */]
00002F86  1E1F                     move.b     D7, [A7]+
00002F88  4267                     clr.w      -[A7]
00002F8A  4EAD 2142                jsr        [A5 + 0x2142 /* export_1060, CODE:20 @ 000023F6 */]
00002F8E  4267                     clr.w      -[A7]
00002F90  4EAD 1612                jsr        [A5 + 0x1612 /* export_702, CODE:15 @ 00001296 */]
00002F94  101F                     move.b     D0, [A7]+
00002F96  C01F                     and.b      D0, [A7]+
00002F98  1800                     move.b     D4, D0
00002F9A  2F3C 000A 0000           move.l     -[A7], 0xA0000 /* '\n\0\0' */
00002FA0  486E FFE0                pea.l      [A6 - 0x20]
00002FA4  4EAD 20E2                jsr        [A5 + 0x20E2 /* export_1048, CODE:20 @ 000014FC */]
00002FA8  1A1F                     move.b     D5, [A7]+
00002FAA  7005                     moveq.l    D0, 0x05
00002FAC  B06D F02C                cmp.w      D0, [A5 - 0xFD4]
00002FB0  5EC0                     sgt        D0
00002FB2  2205                     move.l     D1, D5
00002FB4  C200                     and.b      D1, D0
00002FB6  6706                     beq        +0x8 /* 00002FBE */
00002FB8  4EAD 1812                jsr        [A5 + 0x1812 /* export_766, CODE:16 @ 00000208 */]
00002FBC  4205                     clr.b      D5
label00002FBE:
00002FBE  BE2E FFB6                cmp.b      D7, [A6 - 0x4A]
00002FC2  56C0                     sne        D0
00002FC4  2205                     move.l     D1, D5
00002FC6  8200                     or.b       D1, D0
00002FC8  1004                     move.b     D0, D4
00002FCA  0A00 0001                xori.b     D0, 0x1
00002FCE  8200                     or.b       D1, D0
00002FD0  0241 0001                andi.w     D1, 0x1
00002FD4  67AA                     beq        -0x54 /* 00002F80 */
00002FD6  2F2D ECE4                move.l     -[A7], [A5 - 0x131C]
00002FDA  486E FFF0                pea.l      [A6 - 0x10]
00002FDE  4EAD 158A                jsr        [A5 + 0x158A /* export_685, CODE:15 @ 000006FE */]
00002FE2  BE2E FFB6                cmp.b      D7, [A6 - 0x4A]
00002FE6  56C0                     sne        D0
00002FE8  2204                     move.l     D1, D4
00002FEA  C200                     and.b      D1, D0
00002FEC  6600 FF0A                bne        -0xF4 /* 00002EF8 */
00002FF0  1005                     move.b     D0, D5
00002FF2  6700 00B4                beq        +0xB6 /* 000030A8 */
00002FF6  4EBA F550                jsr        [PC - 0xAB0 /* 00002548 */]
00002FFA  7001                     moveq.l    D0, 0x01
00002FFC  B06E FFE0                cmp.w      D0, [A6 - 0x20]
00003000  6634                     bne        +0x36 /* 00003036 */
00003002  2F2D EDC8                move.l     -[A7], [A5 - 0x1238]
00003006  A873                     syscall    SetPort
00003008  486E FFEA                pea.l      [A6 - 0x16]
0000300C  A871                     syscall    GlobalToLocal
0000300E  4267                     clr.w      -[A7]
00003010  2F2E FFEA                move.l     -[A7], [A6 - 0x16]
00003014  3F2E FFDE                move.w     -[A7], [A6 - 0x22]
00003018  486E FFB8                pea.l      [A6 - 0x48]
0000301C  486E FFBC                pea.l      [A6 - 0x44]
00003020  4EBA E514                jsr        [PC - 0x1AEC /* 00001536 */]
00003024  101F                     move.b     D0, [A7]+
00003026  670C                     beq        +0xE /* 00003034 */
00003028  2F2E FFB8                move.l     -[A7], [A6 - 0x48]
0000302C  486E FFBC                pea.l      [A6 - 0x44]
00003030  4EAD 16F2                jsr        [A5 + 0x16F2 /* export_730, CODE:15 @ 0000423C */]
label00003034:
00003034  6072                     bra        +0x74 /* 000030A8 */
label00003036:
00003036  7003                     moveq.l    D0, 0x03
00003038  B06E FFE0                cmp.w      D0, [A6 - 0x20]
0000303C  666A                     bne        +0x6C /* 000030A8 */
0000303E  202E FFE2                move.l     D0, [A6 - 0x1E]
00003042  C0BC 0000 00FF           and.l      D0, 0xFF
00003048  3C00                     move.w     D6, D0
0000304A  4240                     clr.w      D0
0000304C  102E FEB5                move.b     D0, [A6 - 0x14B]
00003050  B046                     cmp.w      D0, D6
00003052  57C0                     seq        D0
00003054  4241                     clr.w      D1
00003056  122E FEB6                move.b     D1, [A6 - 0x14A]
0000305A  B246                     cmp.w      D1, D6
0000305C  57C1                     seq        D1
0000305E  8001                     or.b       D0, D1
00003060  6706                     beq        +0x8 /* 00003068 */
00003062  4EAD 16EA                jsr        [A5 + 0x16EA /* export_729, CODE:15 @ 0000420E */]
00003066  6040                     bra        +0x42 /* 000030A8 */
label00003068:
00003068  4240                     clr.w      D0
0000306A  102E FEB7                move.b     D0, [A6 - 0x149]
0000306E  B046                     cmp.w      D0, D6
00003070  57C0                     seq        D0
00003072  4241                     clr.w      D1
00003074  122E FEB8                move.b     D1, [A6 - 0x148]
00003078  B246                     cmp.w      D1, D6
0000307A  57C1                     seq        D1
0000307C  8001                     or.b       D0, D1
0000307E  6706                     beq        +0x8 /* 00003086 */
00003080  4EAD 16E2                jsr        [A5 + 0x16E2 /* export_728, CODE:15 @ 000041E0 */]
00003084  6022                     bra        +0x24 /* 000030A8 */
label00003086:
00003086  4240                     clr.w      D0
00003088  102E FEB9                move.b     D0, [A6 - 0x147]
0000308C  B046                     cmp.w      D0, D6
0000308E  57C0                     seq        D0
00003090  4241                     clr.w      D1
00003092  122E FEBA                move.b     D1, [A6 - 0x146]
00003096  B246                     cmp.w      D1, D6
00003098  57C1                     seq        D1
0000309A  8001                     or.b       D0, D1
0000309C  6706                     beq        +0x8 /* 000030A4 */
0000309E  4EAD 1702                jsr        [A5 + 0x1702 /* export_732, CODE:15 @ 000046C4 */]
000030A2  6004                     bra        +0x6 /* 000030A8 */
label000030A4:
000030A4  4EAD 1812                jsr        [A5 + 0x1812 /* export_766, CODE:16 @ 00000208 */]
label000030A8:
000030A8  4CDF 00F0                movem.l    D4,D5,D6,D7, [A7]+
000030AC  4E5E                     unlink     A6
000030AE  4E75                     rts
fn000030B0:
000030B0  4E56 0000                link       A6, 0
000030B4  102D F4CD                move.b     D0, [A5 - 0xB33]
000030B8  C02D F016                and.b      D0, [A5 - 0xFEA]
000030BC  6706                     beq        +0x8 /* 000030C4 */
000030BE  4EAD 15BA                jsr        [A5 + 0x15BA /* export_691, CODE:15 @ 00000AE6 */]
000030C2  6048                     bra        +0x4A /* 0000310C */
label000030C4:
000030C4  4A6D E276                tst.w      [A5 - 0x1D8A]
000030C8  660A                     bne        +0xC /* 000030D4 */
000030CA  3F3C 0029                move.w     -[A7], 0x29 /* ')' */
000030CE  4EAD 187A                jsr        [A5 + 0x187A /* export_779, CODE:16 @ 00000500 */]
000030D2  6038                     bra        +0x3A /* 0000310C */
label000030D4:
000030D4  4267                     clr.w      -[A7]
000030D6  2F2D E270                move.l     -[A7], [A5 - 0x1D90]
000030DA  3F2D E276                move.w     -[A7], [A5 - 0x1D8A]
000030DE  1F2E 0008                move.b     -[A7], [A6 + 0x8]
000030E2  4EAD 1E32                jsr        [A5 + 0x1E32 /* export_962, CODE:18 @ 00002238 */]
000030E6  102D F005                move.b     D0, [A5 - 0xFFB]
000030EA  C01F                     and.b      D0, [A7]+
000030EC  6702                     beq        +0x4 /* 000030F0 */
000030EE  60E4                     bra        -0x1A /* 000030D4 */
label000030F0:
000030F0  2F2D E270                move.l     -[A7], [A5 - 0x1D90]
000030F4  3F2D E276                move.w     -[A7], [A5 - 0x1D8A]
000030F8  4EAD 1682                jsr        [A5 + 0x1682 /* export_716, CODE:15 @ 00003082 */]
000030FC  2F2D E270                move.l     -[A7], [A5 - 0x1D90]
00003100  3F2D E276                move.w     -[A7], [A5 - 0x1D8A]
00003104  4EAD 16A2                jsr        [A5 + 0x16A2 /* export_720, CODE:15 @ 00003A22 */]
00003108  4EBA 084E                jsr        [PC + 0x84E /* 00003958 */]
label0000310C:
0000310C  4E5E                     unlink     A6
0000310E  205F                     movea.l    A0, [A7]+
00003110  544F                     addq.w     A7, 2
00003112  4ED0                     jmp        [A0]
export_18:
00003114  4E56 FFFE                link       A6, -0x0002
00003118  102D E245                move.b     D0, [A5 - 0x1DBB]
0000311C  6604                     bne        +0x6 /* 00003122 */
0000311E  6000 00B8                bra        +0xBA /* 000031D8 */
label00003122:
00003122  7000                     moveq.l    D0, 0x00
00003124  102D E257                move.b     D0, [A5 - 0x1DA9]
00003128  C0BC 0000 0002           and.l      D0, 0x2
0000312E  4A80                     tst.l      D0
00003130  56C0                     sne        D0
00003132  7200                     moveq.l    D1, 0x00
00003134  322D E260                move.w     D1, [A5 - 0x1DA0]
00003138  C2BC 0000 000F           and.l      D1, 0xF
0000313E  7407                     moveq.l    D2, 0x07
00003140  B481                     cmp.l      D2, D1
00003142  56C1                     sne        D1
00003144  C001                     and.b      D0, D1
00003146  206D E246                movea.l    A0, [A5 - 0x1DBA]
0000314A  2050                     movea.l    A0, [A0]
0000314C  322D E26E                move.w     D1, [A5 - 0x1D92]
00003150  48C1                     ext.l      D1
00003152  83FC 0002                divs.w     D1, 0x2
00003156  D268 0014                add.w      D1, [A0 + 0x14]
0000315A  206D E246                movea.l    A0, [A5 - 0x1DBA]
0000315E  2050                     movea.l    A0, [A0]
00003160  B268 0004                cmp.w      D1, [A0 + 0x4]
00003164  5EC1                     sgt        D1
00003166  C001                     and.b      D0, D1
00003168  6722                     beq        +0x24 /* 0000318C */
0000316A  41ED E0E8                lea.l      A0, [A5 - 0x1F18]
0000316E  43FA 006C                lea.l      A1, [PC + 0x6C /* 000031DC, value 0x6746162, pstring "tabKey" */]
00003172  20D9                     move.l     [A0]+, [A1]+
00003174  20D9                     move.l     [A0]+, [A1]+
00003176  2F2D E24E                move.l     -[A7], [A5 - 0x1DB2]
0000317A  3F2D E254                move.w     -[A7], [A5 - 0x1DAC]
0000317E  2F2D F62A                move.l     -[A7], [A5 - 0x9D6]
00003182  2F2D F622                move.l     -[A7], [A5 - 0x9DE]
00003186  4EAD 0B9A                jsr        [A5 + 0xB9A /* export_367, CODE:8 @ 00004010 */]
0000318A  604C                     bra        +0x4E /* 000031D8 */
label0000318C:
0000318C  102D F4CD                move.b     D0, [A5 - 0xB33]
00003190  C02D F016                and.b      D0, [A5 - 0xFEA]
00003194  6706                     beq        +0x8 /* 0000319C */
00003196  4EAD 15BA                jsr        [A5 + 0x15BA /* export_691, CODE:15 @ 00000AE6 */]
0000319A  603C                     bra        +0x3E /* 000031D8 */
label0000319C:
0000319C  102D E257                move.b     D0, [A5 - 0x1DA9]
000031A0  0240 0001                andi.w     D0, 0x1
000031A4  6706                     beq        +0x8 /* 000031AC */
000031A6  4EBA F3A0                jsr        [PC - 0xC60 /* 00002548 */]
000031AA  602C                     bra        +0x2E /* 000031D8 */
label000031AC:
000031AC  206D E246                movea.l    A0, [A5 - 0x1DBA]
000031B0  2050                     movea.l    A0, [A0]
000031B2  3D68 005E FFFE           move.w     [A6 - 0x2], [A0 + 0x5E]
000031B8  3F3C 000D                move.w     -[A7], 0xD /* '\r' */
000031BC  2F2D E246                move.l     -[A7], [A5 - 0x1DBA]
000031C0  4EAD 2112                jsr        [A5 + 0x2112 /* export_1054, CODE:20 @ 0000172C */]
000031C4  206D E246                movea.l    A0, [A5 - 0x1DBA]
000031C8  2050                     movea.l    A0, [A0]
000031CA  3028 005E                move.w     D0, [A0 + 0x5E]
000031CE  B06E FFFE                cmp.w      D0, [A6 - 0x2]
000031D2  6704                     beq        +0x6 /* 000031D8 */
000031D4  4EAD 22CA                jsr        [A5 + 0x22CA /* export_1109, CODE:20 @ 000060CC */]
label000031D8:
000031D8  4E5E                     unlink     A6
000031DA  4E75                     rts
000031DC  0674 6162 4B65           addi.w     <<invalid full ext with IS == 1 and I/IS == 5>>, 0x6162 /* 'ab' */
000031E2  7900                     moveq.l    D4, 0x00
fn000031E4:
000031E4  4E56 FFFA                link       A6, -0x0006
000031E8  48E7 0300                movem.l    -[A7], D6,D7
000031EC  206E 000A                movea.l    A0, [A6 + 0xA]
000031F0  4246                     clr.w      D6
000031F2  1C10                     move.b     D6, [A0]
000031F4  3D46 FFFA                move.w     [A6 - 0x6], D6
000031F8  7E01                     moveq.l    D7, 0x01
000031FA  6020                     bra        +0x22 /* 0000321C */
label000031FC:
000031FC  4267                     clr.w      -[A7]
000031FE  2F2E 000A                move.l     -[A7], [A6 + 0xA]
00003202  3F3C 0001                move.w     -[A7], 0x1
00003206  3F07                     move.w     -[A7], D7
00003208  A886                     syscall    TextWidth
0000320A  301F                     move.w     D0, [A7]+
0000320C  B06E 0008                cmp.w      D0, [A6 + 0x8]
00003210  6F06                     ble        +0x8 /* 00003218 */
00003212  3D47 000E                move.w     [A6 + 0xE], D7
00003216  600E                     bra        +0x10 /* 00003226 */
label00003218:
00003218  5247                     addq.w     D7, 1
0000321A  6906                     bvs        +0x8 /* 00003222 */
label0000321C:
0000321C  BE6E FFFA                cmp.w      D7, [A6 - 0x6]
00003220  6FDA                     ble        -0x24 /* 000031FC */
label00003222:
00003222  3D46 000E                move.w     [A6 + 0xE], D6
label00003226:
00003226  4CDF 00C0                movem.l    D6,D7, [A7]+
0000322A  4E5E                     unlink     A6
0000322C  205F                     movea.l    A0, [A7]+
0000322E  5C4F                     addq.w     A7, 6
00003230  4ED0                     jmp        [A0]
fn00003232:
00003232  4E56 0000                link       A6, 0
00003236  48E7 0018                movem.l    -[A7], A3,A4
0000323A  286E 0008                movea.l    A4, [A6 + 0x8]
0000323E  206D E246                movea.l    A0, [A5 - 0x1DBA]
00003242  2650                     movea.l    A3, [A0]
00003244  7000                     moveq.l    D0, 0x00
00003246  2940 FFEA                move.l     [A4 - 0x16], D0
0000324A  426C FFFC                clr.w      [A4 - 0x4]
0000324E  4A6C FFF8                tst.w      [A4 - 0x8]
00003252  6F24                     ble        +0x26 /* 00003278 */
00003254  302B 0008                move.w     D0, [A3 + 0x8]
00003258  9053                     sub.w      D0, [A3]
0000325A  3940 FFFC                move.w     [A4 - 0x4], D0
0000325E  102C FFE9                move.b     D0, [A4 - 0x17]
00003262  6704                     beq        +0x6 /* 00003268 */
00003264  586C FFFC                addq.w     [A4 - 0x4], 4
label00003268:
00003268  42A7                     clr.l      -[A7]
0000326A  3F2C FFFC                move.w     -[A7], [A4 - 0x4]
0000326E  3F2C FFF8                move.w     -[A7], [A4 - 0x8]
00003272  A869                     syscall    FixRatio
00003274  295F FFEA                move.l     [A4 - 0x16], [A7]+
label00003278:
00003278  396C FFFC FFFA           move.w     [A4 - 0x6], [A4 - 0x4]
0000327E  47ED E252                lea.l      A3, [A5 - 0x1DAE]
00003282  302B 0006                move.w     D0, [A3 + 0x6]
00003286  D07C 0010                add.w      D0, 0x10
0000328A  3940 FFF0                move.w     [A4 - 0x10], D0
0000328E  4AAC FFEA                tst.l      [A4 - 0x16]
00003292  6F18                     ble        +0x1A /* 000032AC */
00003294  302C FFEE                move.w     D0, [A4 - 0x12]
00003298  48C0                     ext.l      D0
0000329A  2F2C FFEA                move.l     -[A7], [A4 - 0x16]
0000329E  2F00                     move.l     -[A7], D0
000032A0  4EBA 1F4E                jsr        [PC + 0x1F4E /* 000051F0 */]
000032A4  201F                     move.l     D0, [A7]+
000032A6  4840                     swap.w     D0
000032A8  D16C FFF0                add.w      [A4 - 0x10], D0
label000032AC:
000032AC  302B 000A                move.w     D0, [A3 + 0xA]
000032B0  907C 0020                sub.w      D0, 0x20 /* ' ' */
000032B4  B06C FFF0                cmp.w      D0, [A4 - 0x10]
000032B8  6C0C                     bge        +0xE /* 000032C6 */
000032BA  302B 000A                move.w     D0, [A3 + 0xA]
000032BE  907C 0020                sub.w      D0, 0x20 /* ' ' */
000032C2  3940 FFF0                move.w     [A4 - 0x10], D0
label000032C6:
000032C6  4CDF 1800                movem.l    A3,A4, [A7]+
000032CA  4E5E                     unlink     A6
000032CC  2E9F                     move.l     [A7], [A7]+
000032CE  4E75                     rts
fn000032D0:
000032D0  4E56 FFDC                link       A6, -0x0024
000032D4  48E7 0708                movem.l    -[A7], D5,D6,D7,A4
000032D8  7000                     moveq.l    D0, 0x00
000032DA  302D E260                move.w     D0, [A5 - 0x1DA0]
000032DE  C0BC 0000 2000           and.l      D0, 0x2000 /* ' \0' */
000032E4  4A80                     tst.l      D0
000032E6  56C0                     sne        D0
000032E8  4400                     neg.b      D0
000032EA  1D40 FFE9                move.b     [A6 - 0x17], D0
000032EE  206D E246                movea.l    A0, [A5 - 0x1DBA]
000032F2  2850                     movea.l    A4, [A0]
000032F4  302C 005E                move.w     D0, [A4 + 0x5E]
000032F8  C1EC 0018                muls.w     D0, [A4 + 0x18]
000032FC  322C 000C                move.w     D1, [A4 + 0xC]
00003300  926C 0008                sub.w      D1, [A4 + 0x8]
00003304  9041                     sub.w      D0, D1
00003306  3D40 FFF8                move.w     [A6 - 0x8], D0
0000330A  102E FFE9                move.b     D0, [A6 - 0x17]
0000330E  6704                     beq        +0x6 /* 00003314 */
00003310  586E FFF8                addq.w     [A6 - 0x8], 4
label00003314:
00003314  4A6E FFF8                tst.w      [A6 - 0x8]
00003318  6C04                     bge        +0x6 /* 0000331E */
0000331A  426E FFF8                clr.w      [A6 - 0x8]
label0000331E:
0000331E  49ED E252                lea.l      A4, [A5 - 0x1DAE]
00003322  302C 000A                move.w     D0, [A4 + 0xA]
00003326  906C 0006                sub.w      D0, [A4 + 0x6]
0000332A  907C 0030                sub.w      D0, 0x30 /* '0' */
0000332E  3D40 FFEE                move.w     [A6 - 0x12], D0
00003332  2F0E                     move.l     -[A7], A6
00003334  4EBA FEFC                jsr        [PC - 0x104 /* 00003232 */]
00003338  4246                     clr.w      D6
0000333A  206D E246                movea.l    A0, [A5 - 0x1DBA]
0000333E  2050                     movea.l    A0, [A0]
00003340  226D E246                movea.l    A1, [A5 - 0x1DBA]
00003344  2251                     movea.l    A1, [A1]
00003346  3028 000C                move.w     D0, [A0 + 0xC]
0000334A  9069 0008                sub.w      D0, [A1 + 0x8]
0000334E  3A00                     move.w     D5, D0
00003350  9A6C 001C                sub.w      D5, [A4 + 0x1C]
00003354  3005                     move.w     D0, D5
00003356  48C0                     ext.l      D0
00003358  81EC 001C                divs.w     D0, [A4 + 0x1C]
0000335C  3A00                     move.w     D5, D0
0000335E  CBEC 001C                muls.w     D5, [A4 + 0x1C]
00003362  302C 0006                move.w     D0, [A4 + 0x6]
00003366  D07C 0010                add.w      D0, 0x10
0000336A  B06D FFF6                cmp.w      D0, [A5 - 0xA]
0000336E  6F04                     ble        +0x6 /* 00003374 */
00003370  7C01                     moveq.l    D6, 0x01
00003372  6034                     bra        +0x36 /* 000033A8 */
label00003374:
00003374  302C 000A                move.w     D0, [A4 + 0xA]
00003378  907C 0010                sub.w      D0, 0x10
0000337C  B06D FFF6                cmp.w      D0, [A5 - 0xA]
00003380  6C04                     bge        +0x6 /* 00003386 */
00003382  7C02                     moveq.l    D6, 0x02
00003384  6022                     bra        +0x24 /* 000033A8 */
label00003386:
00003386  302D FFF6                move.w     D0, [A5 - 0xA]
0000338A  B06E FFF0                cmp.w      D0, [A6 - 0x10]
0000338E  6C04                     bge        +0x6 /* 00003394 */
00003390  7C03                     moveq.l    D6, 0x03
00003392  6014                     bra        +0x16 /* 000033A8 */
label00003394:
00003394  302E FFF0                move.w     D0, [A6 - 0x10]
00003398  D07C 0010                add.w      D0, 0x10
0000339C  B06D FFF6                cmp.w      D0, [A5 - 0xA]
000033A0  6C04                     bge        +0x6 /* 000033A6 */
000033A2  7C04                     moveq.l    D6, 0x04
000033A4  6002                     bra        +0x4 /* 000033A8 */
label000033A6:
000033A6  7C05                     moveq.l    D6, 0x05
label000033A8:
000033A8  7005                     moveq.l    D0, 0x05
000033AA  B046                     cmp.w      D0, D6
000033AC  6600 0130                bne        +0x132 /* 000034DE */
000033B0  2F2D EDC8                move.l     -[A7], [A5 - 0x1238]
000033B4  A873                     syscall    SetPort
000033B6  41EE FFDC                lea.l      A0, [A6 - 0x24]
000033BA  43ED ED8A                lea.l      A1, [A5 - 0x1276]
000033BE  20D9                     move.l     [A0]+, [A1]+
000033C0  20D9                     move.l     [A0]+, [A1]+
000033C2  3F3C 000A                move.w     -[A7], 0xA /* '\n' */
000033C6  A89C                     syscall    PenMode
label000033C8:
000033C8  486E FFE4                pea.l      [A6 - 0x1C]
000033CC  4EAD 20DA                jsr        [A5 + 0x20DA /* export_1047, CODE:20 @ 0000147C */]
000033D0  486E FFDC                pea.l      [A6 - 0x24]
000033D4  A8A1                     syscall    FrameRect
000033D6  302C 000C                move.w     D0, [A4 + 0xC]
000033DA  907C 0042                sub.w      D0, 0x42 /* 'B' */
000033DE  B06E FFE6                cmp.w      D0, [A6 - 0x1A]
000033E2  5EC0                     sgt        D0
000033E4  322C 000C                move.w     D1, [A4 + 0xC]
000033E8  D27C 0032                add.w      D1, 0x32 /* '2' */
000033EC  B26E FFE6                cmp.w      D1, [A6 - 0x1A]
000033F0  5DC1                     slt        D1
000033F2  8001                     or.b       D0, D1
000033F4  670E                     beq        +0x10 /* 00003404 */
000033F6  41EE FFDC                lea.l      A0, [A6 - 0x24]
000033FA  43ED ED8A                lea.l      A1, [A5 - 0x1276]
000033FE  20D9                     move.l     [A0]+, [A1]+
00003400  20D9                     move.l     [A0]+, [A1]+
00003402  604E                     bra        +0x50 /* 00003452 */
label00003404:
00003404  4267                     clr.w      -[A7]
00003406  302E FFE4                move.w     D0, [A6 - 0x1C]
0000340A  D06E FFF0                add.w      D0, [A6 - 0x10]
0000340E  906D FFF6                sub.w      D0, [A5 - 0xA]
00003412  3F00                     move.w     -[A7], D0
00003414  302C 0006                move.w     D0, [A4 + 0x6]
00003418  D07C 0010                add.w      D0, 0x10
0000341C  3F00                     move.w     -[A7], D0
0000341E  302C 000A                move.w     D0, [A4 + 0xA]
00003422  907C 0020                sub.w      D0, 0x20 /* ' ' */
00003426  3F00                     move.w     -[A7], D0
00003428  4EAD 1A8A                jsr        [A5 + 0x1A8A /* export_845, CODE:16 @ 000019F8 */]
0000342C  3D5F FFDC                move.w     [A6 - 0x24], [A7]+
00003430  302E FFDC                move.w     D0, [A6 - 0x24]
00003434  D07C 0010                add.w      D0, 0x10
00003438  3D40 FFE0                move.w     [A6 - 0x20], D0
0000343C  302C 000C                move.w     D0, [A4 + 0xC]
00003440  907C 0010                sub.w      D0, 0x10
00003444  3D40 FFDE                move.w     [A6 - 0x22], D0
00003448  302C 000C                move.w     D0, [A4 + 0xC]
0000344C  5340                     subq.w     D0, 1
0000344E  3D40 FFE2                move.w     [A6 - 0x1E], D0
label00003452:
00003452  486E FFDC                pea.l      [A6 - 0x24]
00003456  A8A1                     syscall    FrameRect
00003458  3F3C 0002                move.w     -[A7], 0x2
0000345C  4EAD 1872                jsr        [A5 + 0x1872 /* export_778, CODE:16 @ 000004E4 */]
00003460  4267                     clr.w      -[A7]
00003462  4EAD 210A                jsr        [A5 + 0x210A /* export_1053, CODE:20 @ 000016F6 */]
00003466  101F                     move.b     D0, [A7]+
00003468  0A00 0001                xori.b     D0, 0x1
0000346C  6700 FF5A                beq        -0xA4 /* 000033C8 */
00003470  486E FFDC                pea.l      [A6 - 0x24]
00003474  A8A1                     syscall    FrameRect
00003476  A89E                     syscall    PenNormal
00003478  4267                     clr.w      -[A7]
0000347A  486E FFDC                pea.l      [A6 - 0x24]
0000347E  A8AE                     syscall    EmptyRect
00003480  101F                     move.b     D0, [A7]+
00003482  6656                     bne        +0x58 /* 000034DA */
00003484  42A7                     clr.l      -[A7]
00003486  302E FFDC                move.w     D0, [A6 - 0x24]
0000348A  906C 0006                sub.w      D0, [A4 + 0x6]
0000348E  907C 0010                sub.w      D0, 0x10
00003492  3F00                     move.w     -[A7], D0
00003494  3F2E FFEE                move.w     -[A7], [A6 - 0x12]
00003498  A869                     syscall    FixRatio
0000349A  2D5F FFEA                move.l     [A6 - 0x16], [A7]+
0000349E  4267                     clr.w      -[A7]
000034A0  302E FFF8                move.w     D0, [A6 - 0x8]
000034A4  48C0                     ext.l      D0
000034A6  2F2E FFEA                move.l     -[A7], [A6 - 0x16]
000034AA  2F00                     move.l     -[A7], D0
000034AC  4EBA 1D42                jsr        [PC + 0x1D42 /* 000051F0 */]
000034B0  201F                     move.l     D0, [A7]+
000034B2  4840                     swap.w     D0
000034B4  3F00                     move.w     -[A7], D0
000034B6  4267                     clr.w      -[A7]
000034B8  3F2E FFF8                move.w     -[A7], [A6 - 0x8]
000034BC  4EAD 1A8A                jsr        [A5 + 0x1A8A /* export_845, CODE:16 @ 000019F8 */]
000034C0  3D5F FFFA                move.w     [A6 - 0x6], [A7]+
000034C4  3E2E FFFC                move.w     D7, [A6 - 0x4]
000034C8  9E6E FFFA                sub.w      D7, [A6 - 0x6]
000034CC  4267                     clr.w      -[A7]
000034CE  3F07                     move.w     -[A7], D7
000034D0  2F2D E246                move.l     -[A7], [A5 - 0x1DBA]
000034D4  A9DD                     syscall    TEScroll
000034D6  4EAD 22CA                jsr        [A5 + 0x22CA /* export_1109, CODE:20 @ 000060CC */]
label000034DA:
000034DA  6000 00CC                bra        +0xCE /* 000035A8 */
label000034DE:
000034DE  7001                     moveq.l    D0, 0x01
000034E0  B046                     cmp.w      D0, D6
000034E2  6606                     bne        +0x8 /* 000034EA */
000034E4  1B7C 0001 E208           move.b     [A5 - 0x1DF8], 0x1
label000034EA:
000034EA  7002                     moveq.l    D0, 0x02
000034EC  B046                     cmp.w      D0, D6
000034EE  6606                     bne        +0x8 /* 000034F6 */
000034F0  1B7C 0001 E207           move.b     [A5 - 0x1DF9], 0x1
label000034F6:
000034F6  4EAD 22CA                jsr        [A5 + 0x22CA /* export_1109, CODE:20 @ 000060CC */]
label000034FA:
000034FA  2F0E                     move.l     -[A7], A6
000034FC  4EBA FD34                jsr        [PC - 0x2CC /* 00003232 */]
00003500  2F2D EDC8                move.l     -[A7], [A5 - 0x1238]
00003504  A873                     syscall    SetPort
00003506  486E FFE4                pea.l      [A6 - 0x1C]
0000350A  4EAD 20DA                jsr        [A5 + 0x20DA /* export_1047, CODE:20 @ 0000147C */]
0000350E  4247                     clr.w      D7
00003510  3006                     move.w     D0, D6
00003512  5340                     subq.w     D0, 1
00003514  670E                     beq        +0x10 /* 00003524 */
00003516  5340                     subq.w     D0, 1
00003518  6710                     beq        +0x12 /* 0000352A */
0000351A  5340                     subq.w     D0, 1
0000351C  6716                     beq        +0x18 /* 00003534 */
0000351E  5340                     subq.w     D0, 1
00003520  6720                     beq        +0x22 /* 00003542 */
00003522  6032                     bra        +0x34 /* 00003556 */
label00003524:
00003524  3E2C 001C                move.w     D7, [A4 + 0x1C]
00003528  602C                     bra        +0x2E /* 00003556 */
label0000352A:
0000352A  302C 001C                move.w     D0, [A4 + 0x1C]
0000352E  4440                     neg.w      D0
00003530  3E00                     move.w     D7, D0
00003532  6022                     bra        +0x24 /* 00003556 */
label00003534:
00003534  302E FFE4                move.w     D0, [A6 - 0x1C]
00003538  B06E FFF0                cmp.w      D0, [A6 - 0x10]
0000353C  6C02                     bge        +0x4 /* 00003540 */
0000353E  3E05                     move.w     D7, D5
label00003540:
00003540  6014                     bra        +0x16 /* 00003556 */
label00003542:
00003542  302E FFF0                move.w     D0, [A6 - 0x10]
00003546  D07C 0010                add.w      D0, 0x10
0000354A  B06E FFE4                cmp.w      D0, [A6 - 0x1C]
0000354E  6C06                     bge        +0x8 /* 00003556 */
00003550  3005                     move.w     D0, D5
00003552  4440                     neg.w      D0
00003554  3E00                     move.w     D7, D0
label00003556:
00003556  4267                     clr.w      -[A7]
00003558  302E FFFC                move.w     D0, [A6 - 0x4]
0000355C  9047                     sub.w      D0, D7
0000355E  3F00                     move.w     -[A7], D0
00003560  4267                     clr.w      -[A7]
00003562  3F2E FFF8                move.w     -[A7], [A6 - 0x8]
00003566  4EAD 1A8A                jsr        [A5 + 0x1A8A /* export_845, CODE:16 @ 000019F8 */]
0000356A  3D5F FFFA                move.w     [A6 - 0x6], [A7]+
0000356E  3E2E FFFC                move.w     D7, [A6 - 0x4]
00003572  9E6E FFFA                sub.w      D7, [A6 - 0x6]
00003576  4A47                     tst.w      D7
00003578  670E                     beq        +0x10 /* 00003588 */
0000357A  4267                     clr.w      -[A7]
0000357C  3F07                     move.w     -[A7], D7
0000357E  2F2D E246                move.l     -[A7], [A5 - 0x1DBA]
00003582  A9DD                     syscall    TEScroll
00003584  4EAD 22CA                jsr        [A5 + 0x22CA /* export_1109, CODE:20 @ 000060CC */]
label00003588:
00003588  4267                     clr.w      -[A7]
0000358A  4EAD 210A                jsr        [A5 + 0x210A /* export_1053, CODE:20 @ 000016F6 */]
0000358E  101F                     move.b     D0, [A7]+
00003590  0A00 0001                xori.b     D0, 0x1
00003594  802D F017                or.b       D0, [A5 - 0xFE9]
00003598  6700 FF60                beq        -0x9E /* 000034FA */
0000359C  422D E208                clr.b      [A5 - 0x1DF8]
000035A0  422D E207                clr.b      [A5 - 0x1DF9]
000035A4  4EAD 22CA                jsr        [A5 + 0x22CA /* export_1109, CODE:20 @ 000060CC */]
label000035A8:
000035A8  4CDF 10E0                movem.l    D5,D6,D7,A4, [A7]+
000035AC  4E5E                     unlink     A6
000035AE  4E75                     rts
fn000035B0:
000035B0  4E56 FFFE                link       A6, -0x0002
000035B4  48E7 0700                movem.l    -[A7], D5,D6,D7
000035B8  3E2E 0008                move.w     D7, [A6 + 0x8]
000035BC  BE6D EFDC                cmp.w      D7, [A5 - 0x1024]
000035C0  6708                     beq        +0xA /* 000035CA */
000035C2  486D ED82                pea.l      [A5 - 0x127E]
000035C6  4EAD 207A                jsr        [A5 + 0x207A /* export_1035, CODE:20 @ 00000CEE */]
label000035CA:
000035CA  1C2D EFE3                move.b     D6, [A5 - 0x101D]
000035CE  1A2D EFE4                move.b     D5, [A5 - 0x101C]
000035D2  7003                     moveq.l    D0, 0x03
000035D4  B047                     cmp.w      D0, D7
000035D6  57C0                     seq        D0
000035D8  7203                     moveq.l    D1, 0x03
000035DA  B26D F02C                cmp.w      D1, [A5 - 0xFD4]
000035DE  5DC1                     slt        D1
000035E0  C001                     and.b      D0, D1
000035E2  4400                     neg.b      D0
000035E4  1B40 EFE3                move.b     [A5 - 0x101D], D0
000035E8  7002                     moveq.l    D0, 0x02
000035EA  B047                     cmp.w      D0, D7
000035EC  57C0                     seq        D0
000035EE  7203                     moveq.l    D1, 0x03
000035F0  B26D F02C                cmp.w      D1, [A5 - 0xFD4]
000035F4  5DC1                     slt        D1
000035F6  C001                     and.b      D0, D1
000035F8  4400                     neg.b      D0
000035FA  1B40 EFE4                move.b     [A5 - 0x101C], D0
000035FE  BA2D EFE4                cmp.b      D5, [A5 - 0x101C]
00003602  56C0                     sne        D0
00003604  BC2D EFE3                cmp.b      D6, [A5 - 0x101D]
00003608  56C1                     sne        D1
0000360A  8001                     or.b       D0, D1
0000360C  6704                     beq        +0x6 /* 00003612 */
0000360E  4EBA 0014                jsr        [PC + 0x14 /* 00003624 */]
label00003612:
00003612  3F07                     move.w     -[A7], D7
00003614  4EAD 2202                jsr        [A5 + 0x2202 /* export_1084, CODE:20 @ 000047F6 */]
00003618  4CDF 00E0                movem.l    D5,D6,D7, [A7]+
0000361C  4E5E                     unlink     A6
0000361E  205F                     movea.l    A0, [A7]+
00003620  544F                     addq.w     A7, 2
00003622  4ED0                     jmp        [A0]
fn00003624:
00003624  4E56 0000                link       A6, 0
00003628  4267                     clr.w      -[A7]
0000362A  486D E2F2                pea.l      [A5 - 0x1D0E]
0000362E  A8AE                     syscall    EmptyRect
00003630  101F                     move.b     D0, [A7]+
00003632  6608                     bne        +0xA /* 0000363C */
00003634  486D E2F2                pea.l      [A5 - 0x1D0E]
00003638  4EAD 16D2                jsr        [A5 + 0x16D2 /* export_726, CODE:15 @ 0000402E */]
label0000363C:
0000363C  486D ED82                pea.l      [A5 - 0x127E]
00003640  4EBA 032E                jsr        [PC + 0x32E /* 00003970 */]
00003644  2F2D EDC8                move.l     -[A7], [A5 - 0x1238]
00003648  A873                     syscall    SetPort
0000364A  486D ED82                pea.l      [A5 - 0x127E]
0000364E  A92A                     syscall    ValidRect
00003650  4E5E                     unlink     A6
00003652  4E75                     rts
fn00003654:
00003654  4E56 FFE8                link       A6, -0x0018
00003658  48E7 0F08                movem.l    -[A7], D4,D5,D6,D7,A4
0000365C  1C2D EFEC                move.b     D6, [A5 - 0x1014]
00003660  1D6D EFEB FFF3           move.b     [A6 - 0xD], [A5 - 0x1015]
00003666  1D6D EFEA FFF2           move.b     [A6 - 0xE], [A5 - 0x1016]
0000366C  1D6D EFE9 FFF1           move.b     [A6 - 0xF], [A5 - 0x1017]
00003672  1A2D EFE8                move.b     D5, [A5 - 0x1018]
00003676  182D FFC7                move.b     D4, [A5 - 0x39]
0000367A  4267                     clr.w      -[A7]
0000367C  4EAD 221A                jsr        [A5 + 0x221A /* export_1087, CODE:20 @ 00004B46 */]
00003680  1B5F EFEC                move.b     [A5 - 0x1014], [A7]+
00003684  4267                     clr.w      -[A7]
00003686  4EAD 2142                jsr        [A5 + 0x2142 /* export_1060, CODE:20 @ 000023F6 */]
0000368A  1B5F EFEB                move.b     [A5 - 0x1015], [A7]+
0000368E  4267                     clr.w      -[A7]
00003690  4EAD 1612                jsr        [A5 + 0x1612 /* export_702, CODE:15 @ 00001296 */]
00003694  1B5F EFEA                move.b     [A5 - 0x1016], [A7]+
00003698  4267                     clr.w      -[A7]
0000369A  4EAD 15C2                jsr        [A5 + 0x15C2 /* export_692, CODE:15 @ 00000B06 */]
0000369E  1B5F EFE9                move.b     [A5 - 0x1017], [A7]+
000036A2  2F2D EDC8                move.l     -[A7], [A5 - 0x1238]
000036A6  A873                     syscall    SetPort
000036A8  2B6E 000A FFF6           move.l     [A5 - 0xA], [A6 + 0xA]
000036AE  486D FFF6                pea.l      [A5 - 0xA]
000036B2  A871                     syscall    GlobalToLocal
000036B4  1F2E 0008                move.b     -[A7], [A6 + 0x8]
000036B8  4EBA DEF6                jsr        [PC - 0x210A /* 000015B0 */]
000036BC  BC2D EFEC                cmp.b      D6, [A5 - 0x1014]
000036C0  6706                     beq        +0x8 /* 000036C8 */
000036C2  1B7C 0001 E2BF           move.b     [A5 - 0x1D41], 0x1
label000036C8:
000036C8  BC2D EFEC                cmp.b      D6, [A5 - 0x1014]
000036CC  56C0                     sne        D0
000036CE  122D EFEB                move.b     D1, [A5 - 0x1015]
000036D2  B22E FFF3                cmp.b      D1, [A6 - 0xD]
000036D6  56C1                     sne        D1
000036D8  8001                     or.b       D0, D1
000036DA  122D EFEA                move.b     D1, [A5 - 0x1016]
000036DE  B22E FFF2                cmp.b      D1, [A6 - 0xE]
000036E2  56C1                     sne        D1
000036E4  8001                     or.b       D0, D1
000036E6  BA2D EFE8                cmp.b      D5, [A5 - 0x1018]
000036EA  56C1                     sne        D1
000036EC  8001                     or.b       D0, D1
000036EE  6704                     beq        +0x6 /* 000036F4 */
000036F0  4EAD 220A                jsr        [A5 + 0x220A /* export_1085, CODE:20 @ 000048DE */]
label000036F4:
000036F4  1D6D EFE6 FFF7           move.b     [A6 - 0x9], [A5 - 0x101A]
000036FA  1D6D EFE7 FFF6           move.b     [A6 - 0xA], [A5 - 0x1019]
00003700  102D F017                move.b     D0, [A5 - 0xFE9]
00003704  670A                     beq        +0xC /* 00003710 */
00003706  7E03                     moveq.l    D7, 0x03
00003708  2D6D EDC8 FFFC           move.l     [A6 - 0x4], [A5 - 0x1238]
0000370E  600E                     bra        +0x10 /* 0000371E */
label00003710:
00003710  4267                     clr.w      -[A7]
00003712  2F2E 000A                move.l     -[A7], [A6 + 0xA]
00003716  486E FFFC                pea.l      [A6 - 0x4]
0000371A  A92C                     syscall    FindWindow
0000371C  3E1F                     move.w     D7, [A7]+
label0000371E:
0000371E  202E FFFC                move.l     D0, [A6 - 0x4]
00003722  B0AD EDB8                cmp.l      D0, [A5 - 0x1248]
00003726  57C0                     seq        D0
00003728  7203                     moveq.l    D1, 0x03
0000372A  B247                     cmp.w      D1, D7
0000372C  57C1                     seq        D1
0000372E  C001                     and.b      D0, D1
00003730  4400                     neg.b      D0
00003732  1B40 EFE6                move.b     [A5 - 0x101A], D0
00003736  202E FFFC                move.l     D0, [A6 - 0x4]
0000373A  B0AD EDC8                cmp.l      D0, [A5 - 0x1238]
0000373E  57C0                     seq        D0
00003740  7203                     moveq.l    D1, 0x03
00003742  B247                     cmp.w      D1, D7
00003744  57C1                     seq        D1
00003746  C001                     and.b      D0, D1
00003748  4400                     neg.b      D0
0000374A  1B40 EFE7                move.b     [A5 - 0x1019], D0
0000374E  1D6D EFE5 FFF5           move.b     [A6 - 0xB], [A5 - 0x101B]
00003754  1B6D EFE6 EFE5           move.b     [A5 - 0x101B], [A5 - 0x101A]
0000375A  102D EFE6                move.b     D0, [A5 - 0x101A]
0000375E  6722                     beq        +0x24 /* 00003782 */
00003760  2F2D EDB8                move.l     -[A7], [A5 - 0x1248]
00003764  A873                     syscall    SetPort
00003766  2D6E 000A FFE8           move.l     [A6 - 0x18], [A6 + 0xA]
0000376C  486E FFE8                pea.l      [A6 - 0x18]
00003770  A871                     syscall    GlobalToLocal
00003772  4267                     clr.w      -[A7]
00003774  2F2E FFE8                move.l     -[A7], [A6 - 0x18]
00003778  486D EDB0                pea.l      [A5 - 0x1250]
0000377C  A8AD                     syscall    PtInRect
0000377E  1B5F EFE5                move.b     [A5 - 0x101B], [A7]+
label00003782:
00003782  102D EFE6                move.b     D0, [A5 - 0x101A]
00003786  B02E FFF7                cmp.b      D0, [A6 - 0x9]
0000378A  56C0                     sne        D0
0000378C  802D FDD7                or.b       D0, [A5 - 0x229]
00003790  122D EFE7                move.b     D1, [A5 - 0x1019]
00003794  B22E FFF6                cmp.b      D1, [A6 - 0xA]
00003798  56C1                     sne        D1
0000379A  8001                     or.b       D0, D1
0000379C  122D EFE5                move.b     D1, [A5 - 0x101B]
000037A0  B22E FFF5                cmp.b      D1, [A6 - 0xB]
000037A4  56C1                     sne        D1
000037A6  8001                     or.b       D0, D1
000037A8  B82D FFC7                cmp.b      D4, [A5 - 0x39]
000037AC  56C1                     sne        D1
000037AE  8001                     or.b       D0, D1
000037B0  0240 0001                andi.w     D0, 0x1
000037B4  672C                     beq        +0x2E /* 000037E2 */
000037B6  49ED FE3C                lea.l      A4, [A5 - 0x1C4]
000037BA  102D EFE5                move.b     D0, [A5 - 0x101B]
000037BE  6706                     beq        +0x8 /* 000037C6 */
000037C0  49ED EF50                lea.l      A4, [A5 - 0x10B0]
000037C4  6012                     bra        +0x14 /* 000037D8 */
label000037C6:
000037C6  102D FFC7                move.b     D0, [A5 - 0x39]
000037CA  0A00 0001                xori.b     D0, 0x1
000037CE  C02D EFE7                and.b      D0, [A5 - 0x1019]
000037D2  6704                     beq        +0x6 /* 000037D8 */
000037D4  49ED EF94                lea.l      A4, [A5 - 0x106C]
label000037D8:
000037D8  2F0C                     move.l     -[A7], A4
000037DA  4EAD 18E2                jsr        [A5 + 0x18E2 /* export_792, CODE:16 @ 000008AE */]
000037DE  422D FDD7                clr.b      [A5 - 0x229]
label000037E2:
000037E2  4CDF 10F0                movem.l    D4,D5,D6,D7,A4, [A7]+
000037E6  4E5E                     unlink     A6
000037E8  205F                     movea.l    A0, [A7]+
000037EA  5C4F                     addq.w     A7, 6
000037EC  4ED0                     jmp        [A0]
fn000037EE:
000037EE  4E56 FFE2                link       A6, -0x001E
000037F2  102D E245                move.b     D0, [A5 - 0x1DBB]
000037F6  6754                     beq        +0x56 /* 0000384C */
000037F8  2F2D E246                move.l     -[A7], [A5 - 0x1DBA]
000037FC  A9D9                     syscall    TEDeactivate
000037FE  422D E245                clr.b      [A5 - 0x1DBB]
00003802  2F2D ECE4                move.l     -[A7], [A5 - 0x131C]
00003806  2F2D ECDC                move.l     -[A7], [A5 - 0x1324]
0000380A  2F2D ECD8                move.l     -[A7], [A5 - 0x1328]
0000380E  2F2D ECE4                move.l     -[A7], [A5 - 0x131C]
00003812  486D ED82                pea.l      [A5 - 0x127E]
00003816  3F3C FFFF                move.w     -[A7], 0xFFFF
0000381A  4EAD 157A                jsr        [A5 + 0x157A /* export_683, CODE:15 @ 000004C6 */]
0000381E  422D E244                clr.b      [A5 - 0x1DBC]
00003822  486D E252                pea.l      [A5 - 0x1DAE]
00003826  701E                     moveq.l    D0, 0x1E
00003828  2F00                     move.l     -[A7], D0
0000382A  4EAD 1B42                jsr        [A5 + 0x1B42 /* export_868, CODE:16 @ 00001E7C */]
0000382E  7000                     moveq.l    D0, 0x00
00003830  2B40 E24E                move.l     [A5 - 0x1DB2], D0
00003834  7000                     moveq.l    D0, 0x00
00003836  2B40 E24A                move.l     [A5 - 0x1DB6], D0
0000383A  41ED E2F2                lea.l      A0, [A5 - 0x1D0E]
0000383E  43ED ED82                lea.l      A1, [A5 - 0x127E]
00003842  20D9                     move.l     [A0]+, [A1]+
00003844  20D9                     move.l     [A0]+, [A1]+
00003846  4EBA FDDC                jsr        [PC - 0x224 /* 00003624 */]
0000384A  606E                     bra        +0x70 /* 000038BA */
label0000384C:
0000384C  4267                     clr.w      -[A7]
0000384E  4EAD 228A                jsr        [A5 + 0x228A /* export_1101, CODE:20 @ 000056F6 */]
00003852  101F                     move.b     D0, [A7]+
00003854  6664                     bne        +0x66 /* 000038BA */
00003856  4A6D FF7C                tst.w      [A5 - 0x84]
0000385A  675E                     beq        +0x60 /* 000038BA */
0000385C  4267                     clr.w      -[A7]
0000385E  2F2D FF76                move.l     -[A7], [A5 - 0x8A]
00003862  3F2D FF7C                move.w     -[A7], [A5 - 0x84]
00003866  486E FFE2                pea.l      [A6 - 0x1E]
0000386A  4EAD 1DB2                jsr        [A5 + 0x1DB2 /* export_946, CODE:18 @ 00000D08 */]
0000386E  101F                     move.b     D0, [A7]+
00003870  6746                     beq        +0x48 /* 000038B8 */
00003872  486E FFE8                pea.l      [A6 - 0x18]
00003876  486D FF80                pea.l      [A5 - 0x80]
0000387A  4EAD 1B0A                jsr        [A5 + 0x1B0A /* export_861, CODE:16 @ 00001D4E */]
0000387E  4267                     clr.w      -[A7]
00003880  2F2D FF76                move.l     -[A7], [A5 - 0x8A]
00003884  486E FFE2                pea.l      [A6 - 0x1E]
00003888  4EAD 1E6A                jsr        [A5 + 0x1E6A /* export_969, CODE:18 @ 00002E96 */]
0000388C  101F                     move.b     D0, [A7]+
0000388E  6728                     beq        +0x2A /* 000038B8 */
00003890  4A6D E276                tst.w      [A5 - 0x1D8A]
00003894  6712                     beq        +0x14 /* 000038A8 */
00003896  41ED E274                lea.l      A0, [A5 - 0x1D8C]
0000389A  43EE FFE2                lea.l      A1, [A6 - 0x1E]
0000389E  7006                     moveq.l    D0, 0x06
label000038A0:
000038A0  20D9                     move.l     [A0]+, [A1]+
000038A2  51C8 FFFC                dbf        D0, -0x6 /* 000038A0 */
000038A6  3091                     move.w     [A0], [A1]
label000038A8:
000038A8  41ED E2F2                lea.l      A0, [A5 - 0x1D0E]
000038AC  43ED ED82                lea.l      A1, [A5 - 0x127E]
000038B0  20D9                     move.l     [A0]+, [A1]+
000038B2  20D9                     move.l     [A0]+, [A1]+
000038B4  4EBA FD6E                jsr        [PC - 0x292 /* 00003624 */]
label000038B8:
000038B8  6004                     bra        +0x6 /* 000038BE */
label000038BA:
000038BA  426D FF7C                clr.w      [A5 - 0x84]
label000038BE:
000038BE  4EAD 173A                jsr        [A5 + 0x173A /* export_739, CODE:15 @ 00004FD6 */]
000038C2  4E5E                     unlink     A6
000038C4  4E75                     rts
fn000038C6:
000038C6  4E56 0000                link       A6, 0
000038CA  2F0C                     move.l     -[A7], A4
000038CC  4267                     clr.w      -[A7]
000038CE  2F2D E24E                move.l     -[A7], [A5 - 0x1DB2]
000038D2  486D E252                pea.l      [A5 - 0x1DAE]
000038D6  4EAD 1E6A                jsr        [A5 + 0x1E6A /* export_969, CODE:18 @ 00002E96 */]
000038DA  101F                     move.b     D0, [A7]+
000038DC  6604                     bne        +0x6 /* 000038E2 */
000038DE  4EAD 1812                jsr        [A5 + 0x1812 /* export_766, CODE:16 @ 00000208 */]
label000038E2:
000038E2  206D E246                movea.l    A0, [A5 - 0x1DBA]
000038E6  2850                     movea.l    A4, [A0]
000038E8  396D E26E 0018           move.w     [A4 + 0x18], [A5 - 0x1D92]
000038EE  302C 0018                move.w     D0, [A4 + 0x18]
000038F2  48C0                     ext.l      D0
000038F4  81FC 0004                divs.w     D0, 0x4
000038F8  322C 0018                move.w     D1, [A4 + 0x18]
000038FC  9240                     sub.w      D1, D0
000038FE  3941 001A                move.w     [A4 + 0x1A], D1
00003902  396D E266 003A           move.w     [A4 + 0x3A], [A5 - 0x1D9A]
00003908  396D E268 004A           move.w     [A4 + 0x4A], [A5 - 0x1D98]
0000390E  196D E26C 004C           move.b     [A4 + 0x4C], [A5 - 0x1D94]
00003914  396D E26A 0050           move.w     [A4 + 0x50], [A5 - 0x1D96]
0000391A  2F2D E246                move.l     -[A7], [A5 - 0x1DBA]
0000391E  A9D0                     syscall    TECalText
00003920  2F2D E246                move.l     -[A7], [A5 - 0x1DBA]
00003924  A811                     syscall    TESelView
00003926  4EAD 22CA                jsr        [A5 + 0x22CA /* export_1109, CODE:20 @ 000060CC */]
0000392A  2F2D E24E                move.l     -[A7], [A5 - 0x1DB2]
0000392E  3F2D E254                move.w     -[A7], [A5 - 0x1DAC]
00003932  4EAD 1682                jsr        [A5 + 0x1682 /* export_716, CODE:15 @ 00003082 */]
00003936  2F2D E24E                move.l     -[A7], [A5 - 0x1DB2]
0000393A  3F2D E254                move.w     -[A7], [A5 - 0x1DAC]
0000393E  4EAD 169A                jsr        [A5 + 0x169A /* export_719, CODE:15 @ 0000371E */]
00003942  486D E258                pea.l      [A5 - 0x1DA8]
00003946  486D E2F2                pea.l      [A5 - 0x1D0E]
0000394A  4EAD 1CEA                jsr        [A5 + 0x1CEA /* export_921, CODE:17 @ 00001DBA */]
0000394E  4EBA FCD4                jsr        [PC - 0x32C /* 00003624 */]
00003952  285F                     movea.l    A4, [A7]+
00003954  4E5E                     unlink     A6
00003956  4E75                     rts
fn00003958:
00003958  4E56 0000                link       A6, 0
0000395C  486D E27A                pea.l      [A5 - 0x1D86]
00003960  486D E2F2                pea.l      [A5 - 0x1D0E]
00003964  4EAD 1CEA                jsr        [A5 + 0x1CEA /* export_921, CODE:17 @ 00001DBA */]
00003968  4EBA FCBA                jsr        [PC - 0x346 /* 00003624 */]
0000396C  4E5E                     unlink     A6
0000396E  4E75                     rts
export_19:
fn00003970:
00003970  4E56 FFF8                link       A6, -0x0008
00003974  206E 0008                movea.l    A0, [A6 + 0x8]
00003978  43EE FFF8                lea.l      A1, [A6 - 0x8]
0000397C  22D8                     move.l     [A1]+, [A0]+
0000397E  22D8                     move.l     [A1]+, [A0]+
00003980  102D E244                move.b     D0, [A5 - 0x1DBC]
00003984  670A                     beq        +0xC /* 00003990 */
00003986  486E FFF8                pea.l      [A6 - 0x8]
0000398A  4EAD 174A                jsr        [A5 + 0x174A /* export_741, CODE:15 @ 0000516C */]
0000398E  600C                     bra        +0xE /* 0000399C */
label00003990:
00003990  2F2D ECE4                move.l     -[A7], [A5 - 0x131C]
00003994  486E FFF8                pea.l      [A6 - 0x8]
00003998  4EAD 158A                jsr        [A5 + 0x158A /* export_685, CODE:15 @ 000006FE */]
label0000399C:
0000399C  4E5E                     unlink     A6
0000399E  2E9F                     move.l     [A7], [A7]+
000039A0  4E75                     rts
export_0:
000039A2  4EBA 16BC                jsr        [PC + 0x16BC /* 00005060 */]
000039A6  4E56 0000                link       A6, 0
000039AA  2C5F                     movea.l    A6, [A7]+
000039AC  4EBA 16B4                jsr        [PC + 0x16B4 /* 00005062 */]
000039B0  42A7                     clr.l      -[A7]
000039B2  A9FA                     syscall    UnloadScrap/UnlodeScrap
000039B4  4A9F                     tst.l      [A7]+
000039B6  6702                     beq        +0x4 /* 000039BA */
000039B8  A9F4                     syscall    ExitToShell
label000039BA:
000039BA  42A7                     clr.l      -[A7]
000039BC  4EAD 1A9A                jsr        [A5 + 0x1A9A /* export_847, CODE:16 @ 00001A38 */]
000039C0  201F                     move.l     D0, [A7]+
000039C2  90BC 0000 8000           sub.l      D0, 0x8000
000039C8  2F00                     move.l     -[A7], D0
000039CA  4EBA 09EC                jsr        [PC + 0x9EC /* 000043B8 */]
000039CE  4267                     clr.w      -[A7]
000039D0  3EB8 0220                move.w     [A7], [0x00000220 /* MemErr */]
000039D4  4A5F                     tst.w      [A7]+
000039D6  6702                     beq        +0x4 /* 000039DA */
000039D8  A9F4                     syscall    ExitToShell
label000039DA:
000039DA  4EBA 09E6                jsr        [PC + 0x9E6 /* 000043C2 */]
000039DE  42A7                     clr.l      -[A7]
000039E0  4EAD 1F4A                jsr        [A5 + 0x1F4A /* export_997, CODE:19 @ 00001378 */]
000039E4  2B5F FDDA                move.l     [A5 - 0x226], [A7]+
000039E8  0CAD 0001 0000 FDDA      cmpi.l     [A5 - 0x226], 0x10000
000039F0  6C02                     bge        +0x4 /* 000039F4 */
000039F2  A9F4                     syscall    ExitToShell
label000039F4:
000039F4  486D 05CA                pea.l      [A5 + 0x5CA /* export_181, CODE:3 @ 000000E4 */]
000039F8  A9F1                     syscall    UnloadSeg
000039FA  7000                     moveq.l    D0, 0x00
000039FC  2B40 E090                move.l     [A5 - 0x1F70], D0
00003A00  0CAD 0003 A718 FDDA      cmpi.l     [A5 - 0x226], 0x3A718
00003A08  6F10                     ble        +0x12 /* 00003A1A */
00003A0A  42A7                     clr.l      -[A7]
00003A0C  2F3C 0002 E3C8           move.l     -[A7], 0x2E3C8
00003A12  4EBA 0C00                jsr        [PC + 0xC00 /* 00004614 */]
00003A16  2B5F E090                move.l     [A5 - 0x1F70], [A7]+
label00003A1A:
00003A1A  4267                     clr.w      -[A7]
00003A1C  4EAD 05CA                jsr        [A5 + 0x5CA /* export_181, CODE:3 @ 000000E4 */]
00003A20  101F                     move.b     D0, [A7]+
00003A22  6744                     beq        +0x46 /* 00003A68 */
00003A24  486D 05CA                pea.l      [A5 + 0x5CA /* export_181, CODE:3 @ 000000E4 */]
00003A28  A9F1                     syscall    UnloadSeg
00003A2A  3B7C FFFF EFDA           move.w     [A5 - 0x1026], 0xFFFF
00003A30  4EBA F35E                jsr        [PC - 0xCA2 /* 00002D90 */]
label00003A34:
00003A34  4A6D EFDA                tst.w      [A5 - 0x1026]
00003A38  6606                     bne        +0x8 /* 00003A40 */
00003A3A  4EBA EB44                jsr        [PC - 0x14BC /* 00002580 */]
00003A3E  600C                     bra        +0xE /* 00003A4C */
label00003A40:
00003A40  7001                     moveq.l    D0, 0x01
00003A42  B06D EFDA                cmp.w      D0, [A5 - 0x1026]
00003A46  6604                     bne        +0x6 /* 00003A4C */
00003A48  4EAD 139A                jsr        [A5 + 0x139A /* export_623, CODE:12 @ 00004DC4 */]
label00003A4C:
00003A4C  102D F030                move.b     D0, [A5 - 0xFD0]
00003A50  67E2                     beq        -0x1C /* 00003A34 */
00003A52  487A 004C                pea.l      [PC + 0x4C /* 00003AA0, value 0x4717569, pstring "quit" */]
00003A56  4EAD 0B82                jsr        [A5 + 0xB82 /* export_364, CODE:8 @ 00003EA4 */]
00003A5A  4267                     clr.w      -[A7]
00003A5C  4EAD 1542                jsr        [A5 + 0x1542 /* export_676, CODE:15 @ 00000000 */]
00003A60  4EAD 173A                jsr        [A5 + 0x173A /* export_739, CODE:15 @ 00004FD6 */]
00003A64  4EAD 1F12                jsr        [A5 + 0x1F12 /* export_990, CODE:19 @ 000005A4 */]
label00003A68:
00003A68  102D FFFB                move.b     D0, [A5 - 0x5]
00003A6C  6704                     beq        +0x6 /* 00003A72 */
00003A6E  4EAD 0942                jsr        [A5 + 0x942 /* export_292, CODE:8 @ 00000726 */]
label00003A72:
00003A72  4267                     clr.w      -[A7]
00003A74  2F3C 0000 02E0           move.l     -[A7], 0x2E0
00003A7A  2F3C 0000 0910           move.l     -[A7], 0x910
00003A80  4EAD 1AC2                jsr        [A5 + 0x1AC2 /* export_852, CODE:16 @ 00001B82 */]
00003A84  101F                     move.b     D0, [A7]+
00003A86  6708                     beq        +0xA /* 00003A90 */
00003A88  3F3C 0001                move.w     -[A7], 0x1
00003A8C  A895                     syscall    ShutDown
00003A8E  6002                     bra        +0x4 /* 00003A92 */
label00003A90:
00003A90  A9F4                     syscall    ExitToShell
label00003A92:
00003A92  4EBA 15F2                jsr        [PC + 0x15F2 /* 00005086 */]
00003A96  4EBA 15F4                jsr        [PC + 0x15F4 /* 0000508C */]
00003A9A  4E75                     rts
00003A9C  4E5E                     unlink     A6
00003A9E  4E75                     rts
00003AA0  0471 7569 7400           subi.w     [A1 + D7.w * 4], 0x7569 /* 'ui' */
fn00003AA6:
00003AA6  4E56 0000                link       A6, 0
00003AAA  48E7 3030                movem.l    -[A7], D2,D3,A2,A3
00003AAE  262E 0008                move.l     D3, [A6 + 0x8]
00003AB2  266E 000C                movea.l    A3, [A6 + 0xC]
00003AB6  242E 0010                move.l     D2, [A6 + 0x10]
00003ABA  4EAD 05D2                jsr        [A5 + 0x5D2 /* export_182, CODE:3 @ 00002D56 */]
00003ABE  206D FF1A                movea.l    A0, [A5 - 0xE6]
00003AC2  2083                     move.l     [A0], D3
00003AC4  7001                     moveq.l    D0, 0x01
00003AC6  4AB8 0316                tst.l      [0x00000316 /* HpChk/MacPgm */]
00003ACA  6700 0036                beq        +0x38 /* 00003B02 */
00003ACE  0838 0000 0319           btst.b     [0x00000319], 0x0
00003AD4  6600 002C                bne        +0x2E /* 00003B02 */
00003AD8  2078 0316                movea.l    A0, [0x00000316 /* HpChk/MacPgm */]
00003ADC  0C90 4D50 474D           cmpi.l     [A0], 0x4D50474D /* 'MPGM' */
00003AE2  6600 001E                bne        +0x20 /* 00003B02 */
00003AE6  2078 0316                movea.l    A0, [0x00000316 /* HpChk/MacPgm */]
00003AEA  4AA8 0004                tst.l      [A0 + 0x4]
00003AEE  6700 0012                beq        +0x14 /* 00003B02 */
00003AF2  2078 0316                movea.l    A0, [0x00000316 /* HpChk/MacPgm */]
00003AF6  2268 0004                movea.l    A1, [A0 + 0x4]
00003AFA  4A51                     tst.w      [A1]
00003AFC  6700 0004                beq        +0x6 /* 00003B02 */
00003B00  7000                     moveq.l    D0, 0x00
label00003B02:
00003B02  2B40 FF38                move.l     [A5 - 0xC8], D0
00003B06  4AAD FF38                tst.l      [A5 - 0xC8]
00003B0A  6700 0058                beq        +0x5A /* 00003B64 */
00003B0E  41F8 0910                lea.l      A0, [0x00000910 /* CurApName */]
00003B12  43ED FEE0                lea.l      A1, [A5 - 0x120]
00003B16  7010                     moveq.l    D0, 0x10
label00003B18:
00003B18  32D8                     move.w     [A1]+, [A0]+
00003B1A  51C8 FFFC                dbf        D0, -0x6 /* 00003B18 */
00003B1E  206D FF0A                movea.l    A0, [A5 - 0xF6]
00003B22  43ED FEE0                lea.l      A1, [A5 - 0x120]
00003B26  2089                     move.l     [A0], A1
00003B28  4AAE 0018                tst.l      [A6 + 0x18]
00003B2C  660C                     bne        +0xE /* 00003B3A */
00003B2E  206D FF0A                movea.l    A0, [A5 - 0xF6]
00003B32  2F10                     move.l     -[A7], [A0]
00003B34  4EBA 0210                jsr        [PC + 0x210 /* 00003D46 */]
00003B38  588F                     addq.l     A7, 4
label00003B3A:
00003B3A  200B                     move.l     D0, A3
00003B3C  6704                     beq        +0x6 /* 00003B42 */
00003B3E  7001                     moveq.l    D0, 0x01
00003B40  2680                     move.l     [A3], D0
label00003B42:
00003B42  4A82                     tst.l      D2
00003B44  6706                     beq        +0x8 /* 00003B4C */
00003B46  2042                     movea.l    A0, D2
00003B48  20AD FF0A                move.l     [A0], [A5 - 0xF6]
label00003B4C:
00003B4C  4AAE 0014                tst.l      [A6 + 0x14]
00003B50  6708                     beq        +0xA /* 00003B5A */
00003B52  206E 0014                movea.l    A0, [A6 + 0x14]
00003B56  20AD FF0E                move.l     [A0], [A5 - 0xF2]
label00003B5A:
00003B5A  7001                     moveq.l    D0, 0x01
00003B5C  2B40 FF38                move.l     [A5 - 0xC8], D0
00003B60  6000 0114                bra        +0x116 /* 00003C76 */
label00003B64:
00003B64  2078 0316                movea.l    A0, [0x00000316 /* HpChk/MacPgm */]
00003B68  2268 0004                movea.l    A1, [A0 + 0x4]
00003B6C  3011                     move.w     D0, [A1]
00003B6E  B06D FF04                cmp.w      D0, [A5 - 0xFC]
00003B72  670C                     beq        +0xE /* 00003B80 */
00003B74  2F3C 8000 0000           move.l     -[A7], 0x80000000
00003B7A  4EBA 012C                jsr        [PC + 0x12C /* 00003CA8 */]
00003B7E  588F                     addq.l     A7, 4
label00003B80:
00003B80  2078 0316                movea.l    A0, [0x00000316 /* HpChk/MacPgm */]
00003B84  2268 0004                movea.l    A1, [A0 + 0x4]
00003B88  41ED FF04                lea.l      A0, [A5 - 0xFC]
00003B8C  2348 0024                move.l     [A1 + 0x24], A0
00003B90  2078 0316                movea.l    A0, [0x00000316 /* HpChk/MacPgm */]
00003B94  2B68 0004 FF28           move.l     [A5 - 0xD8], [A0 + 0x4]
00003B9A  2078 0316                movea.l    A0, [0x00000316 /* HpChk/MacPgm */]
00003B9E  2268 0004                movea.l    A1, [A0 + 0x4]
00003BA2  2B69 0002 FF06           move.l     [A5 - 0xFA], [A1 + 0x2]
00003BA8  2078 0316                movea.l    A0, [0x00000316 /* HpChk/MacPgm */]
00003BAC  2268 0004                movea.l    A1, [A0 + 0x4]
00003BB0  2B69 0006 FF0A           move.l     [A5 - 0xF6], [A1 + 0x6]
00003BB6  2078 0316                movea.l    A0, [0x00000316 /* HpChk/MacPgm */]
00003BBA  2268 0004                movea.l    A1, [A0 + 0x4]
00003BBE  2B69 000A FF0E           move.l     [A5 - 0xF2], [A1 + 0xA]
00003BC4  4AAE 0018                tst.l      [A6 + 0x18]
00003BC8  672C                     beq        +0x2E /* 00003BF6 */
00003BCA  246D FF0A                movea.l    A2, [A5 - 0xF6]
00003BCE  600A                     bra        +0xC /* 00003BDA */
label00003BD0:
00003BD0  2F12                     move.l     -[A7], [A2]
00003BD2  4EBA 0140                jsr        [PC + 0x140 /* 00003D14 */]
00003BD6  588F                     addq.l     A7, 4
00003BD8  588A                     addq.l     A2, 4
label00003BDA:
00003BDA  4A92                     tst.l      [A2]
00003BDC  6600 FFF2                bne        -0xC /* 00003BD0 */
00003BE0  246D FF0E                movea.l    A2, [A5 - 0xF2]
00003BE4  600A                     bra        +0xC /* 00003BF0 */
label00003BE6:
00003BE6  2F12                     move.l     -[A7], [A2]
00003BE8  4EBA 012A                jsr        [PC + 0x12A /* 00003D14 */]
00003BEC  588F                     addq.l     A7, 4
00003BEE  588A                     addq.l     A2, 4
label00003BF0:
00003BF0  4A92                     tst.l      [A2]
00003BF2  6600 FFF2                bne        -0xC /* 00003BE6 */
label00003BF6:
00003BF6  200B                     move.l     D0, A3
00003BF8  6704                     beq        +0x6 /* 00003BFE */
00003BFA  26AD FF06                move.l     [A3], [A5 - 0xFA]
label00003BFE:
00003BFE  4A82                     tst.l      D2
00003C00  6706                     beq        +0x8 /* 00003C08 */
00003C02  2042                     movea.l    A0, D2
00003C04  20AD FF0A                move.l     [A0], [A5 - 0xF6]
label00003C08:
00003C08  4AAE 0014                tst.l      [A6 + 0x14]
00003C0C  6708                     beq        +0xA /* 00003C16 */
00003C0E  206E 0014                movea.l    A0, [A6 + 0x14]
00003C12  20AD FF0E                move.l     [A0], [A5 - 0xF2]
label00003C16:
00003C16  2078 0316                movea.l    A0, [0x00000316 /* HpChk/MacPgm */]
00003C1A  2268 0004                movea.l    A1, [A0 + 0x4]
00003C1E  4AA9 0020                tst.l      [A1 + 0x20]
00003C22  674C                     beq        +0x4E /* 00003C70 */
00003C24  4878 0078                push.l     0x78 /* 'x' */
00003C28  4EBA 00E0                jsr        [PC + 0xE0 /* 00003D0A */]
00003C2C  2B40 FF24                move.l     [A5 - 0xDC], D0
00003C30  2078 0316                movea.l    A0, [0x00000316 /* HpChk/MacPgm */]
00003C34  2268 0004                movea.l    A1, [A0 + 0x4]
00003C38  2429 0020                move.l     D2, [A1 + 0x20]
00003C3C  7200                     moveq.l    D1, 0x00
00003C3E  588F                     addq.l     A7, 4
label00003C40:
00003C40  2001                     move.l     D0, D1
00003C42  E780                     asl        D0, 3
00003C44  2600                     move.l     D3, D0
00003C46  D080                     add.l      D0, D0
00003C48  D083                     add.l      D0, D3
00003C4A  2240                     movea.l    A1, D0
00003C4C  D3ED FF24                add.l      A1, [A5 - 0xDC]
00003C50  2601                     move.l     D3, D1
00003C52  E783                     asl        D3, 3
00003C54  2003                     move.l     D0, D3
00003C56  D683                     add.l      D3, D3
00003C58  D680                     add.l      D3, D0
00003C5A  2043                     movea.l    A0, D3
00003C5C  D1C2                     add.l      A0, D2
00003C5E  7005                     moveq.l    D0, 0x05
label00003C60:
00003C60  22D8                     move.l     [A1]+, [A0]+
00003C62  51C8 FFFC                dbf        D0, -0x6 /* 00003C60 */
00003C66  5281                     addq.l     D1, 1
00003C68  7005                     moveq.l    D0, 0x05
00003C6A  B081                     cmp.l      D0, D1
00003C6C  6E00 FFD2                bgt        -0x2C /* 00003C40 */
label00003C70:
00003C70  7000                     moveq.l    D0, 0x00
00003C72  2B40 FF38                move.l     [A5 - 0xC8], D0
label00003C76:
00003C76  4CEE 0C0C FFF0           movem.l    D2,D3,A2,A3, [A6 - 0x10]
00003C7C  4E5E                     unlink     A6
00003C7E  4E75                     rts
00003C80  DF52 5449 4E49 5420      dc.b       "_RTINIT "
fn00003C88:
00003C88  4E56 0000                link       A6, 0
00003C8C  202E 0008                move.l     D0, [A6 + 0x8]
00003C90  0280 00FF FFFF           andi.l     D0, 0xFFFFFF
00003C96  2F00                     move.l     -[A7], D0
00003C98  4EBA 000E                jsr        [PC + 0xE /* 00003CA8 */]
00003C9C  4E5E                     unlink     A6
00003C9E  4E75                     rts
00003CA0  C558 4954 2020 2020      dc.b       "EXIT    "
fn00003CA8:
00003CA8  4E56 0000                link       A6, 0
00003CAC  48E7 2020                movem.l    -[A7], D2,A2
00003CB0  242E 0008                move.l     D2, [A6 + 0x8]
00003CB4  206D FF1A                movea.l    A0, [A5 - 0xE6]
00003CB8  7024                     moveq.l    D0, 0x24
00003CBA  D1C0                     add.l      A0, D0
00003CBC  2448                     movea.l    A2, A0
00003CBE  600E                     bra        +0x10 /* 00003CCE */
label00003CC0:
00003CC0  4A92                     tst.l      [A2]
00003CC2  6708                     beq        +0xA /* 00003CCC */
00003CC4  2F02                     move.l     -[A7], D2
00003CC6  2052                     movea.l    A0, [A2]
00003CC8  4E90                     jsr        [A0]
00003CCA  588F                     addq.l     A7, 4
label00003CCC:
00003CCC  598A                     subq.l     A2, 4
label00003CCE:
00003CCE  206D FF1A                movea.l    A0, [A5 - 0xE6]
00003CD2  B5C8                     cmpa.l     A2, A0
00003CD4  6200 FFEA                bhi        -0x14 /* 00003CC0 */
00003CD8  4AAD FF28                tst.l      [A5 - 0xD8]
00003CDC  6708                     beq        +0xA /* 00003CE6 */
00003CDE  206D FF28                movea.l    A0, [A5 - 0xD8]
00003CE2  2142 000E                move.l     [A0 + 0xE], D2
label00003CE6:
00003CE6  206D FF1A                movea.l    A0, [A5 - 0xE6]
00003CEA  2050                     movea.l    A0, [A0]
00003CEC  4E90                     jsr        [A0]
00003CEE  4CEE 0404 FFF8           movem.l    D2,A2, [A6 - 0x8]
00003CF4  4E5E                     unlink     A6
00003CF6  4E75                     rts
00003CF8  DF52 5445 5849 5420      dc.b       "_RTEXIT "
00003D00  7000                     moveq.l    D0, 0x00
label00003D02:
00003D02  31C0 0220                move.w     [0x00000220 /* MemErr */], D0
00003D06  2008                     move.l     D0, A0
00003D08  4E75                     rts
fn00003D0A:
00003D0A  202F 0004                move.l     D0, [A7 + 0x4]
00003D0E  A11E                     syscall    NewPtr, flags=1
00003D10  4EFA FFF0                jmp        [PC - 0x10 /* 00003D02 */]
fn00003D14:
00003D14  202F 0004                move.l     D0, [A7 + 0x4]
00003D18  6726                     beq        +0x28 /* 00003D40 */
00003D1A  2040                     movea.l    A0, D0
00003D1C  2248                     movea.l    A1, A0
00003D1E  1019                     move.b     D0, [A1]+
00003D20  671E                     beq        +0x20 /* 00003D40 */
label00003D22:
00003D22  1211                     move.b     D1, [A1]
00003D24  12C0                     move.b     [A1]+, D0
00003D26  1001                     move.b     D0, D1
00003D28  66F8                     bne        -0x6 /* 00003D22 */
00003D2A  93C8                     sub.l      A1, A0
00003D2C  2009                     move.l     D0, A1
00003D2E  5340                     subq.w     D0, 1
00003D30  0C80 0000 00FF           cmpi.l     D0, 0xFF
00003D36  6F06                     ble        +0x8 /* 00003D3E */
00003D38  203C 0000 00FF           move.l     D0, 0xFF
label00003D3E:
00003D3E  1080                     move.b     [A0], D0
label00003D40:
00003D40  202F 0004                move.l     D0, [A7 + 0x4]
00003D44  4E75                     rts
fn00003D46:
00003D46  202F 0004                move.l     D0, [A7 + 0x4]
00003D4A  6712                     beq        +0x14 /* 00003D5E */
00003D4C  2040                     movea.l    A0, D0
00003D4E  7000                     moveq.l    D0, 0x00
00003D50  1010                     move.b     D0, [A0]
00003D52  6004                     bra        +0x6 /* 00003D58 */
label00003D54:
00003D54  10E8 0001                move.b     [A0]+, [A0 + 0x1]
label00003D58:
00003D58  51C8 FFFA                dbf        D0, -0x8 /* 00003D54 */
00003D5C  4210                     clr.b      [A0]
label00003D5E:
00003D5E  202F 0004                move.l     D0, [A7 + 0x4]
00003D62  4E75                     rts
00003D64  6134 6132 6130 612E      dc.b       "a4a2a0a."
// begin alternate branch 00003D68-00003D6C
export_32:
00003D68  6130                     bsr        +0x32 /* 00003D9A */
00003D6A  612E                     bsr        +0x30 /* 00003D9A */
// end alternate branch 00003D68-00003D6C
export_32: // at 00003D68 (misaligned)
export_31:
fn00003D6C:
00003D6C  612C                     bsr        +0x2E /* 00003D9A */
00003D6E  612A                     bsr        +0x2C /* 00003D9A */
export_30:
fn00003D70:
00003D70  6128                     bsr        +0x2A /* 00003D9A */
00003D72  6126                     bsr        +0x28 /* 00003D9A */
00003D74  6124                     bsr        +0x26 /* 00003D9A */
export_29:
00003D76  6122                     bsr        +0x24 /* 00003D9A */
export_28:
fn00003D78:
00003D78  6120                     bsr        +0x22 /* 00003D9A */
export_27:
fn00003D7A:
00003D7A  611E                     bsr        +0x20 /* 00003D9A */
00003D7C  611C                     bsr        +0x1E /* 00003D9A */
00003D7E  611A                     bsr        +0x1C /* 00003D9A */
export_26:
fn00003D80:
00003D80  6118                     bsr        +0x1A /* 00003D9A */
export_25:
fn00003D82:
00003D82  6116                     bsr        +0x18 /* 00003D9A */
00003D84  6114                     bsr        +0x16 /* 00003D9A */
export_24:
fn00003D86:
00003D86  6112                     bsr        +0x14 /* 00003D9A */
00003D88  6110                     bsr        +0x12 /* 00003D9A */
00003D8A  610E                     bsr        +0x10 /* 00003D9A */
00003D8C  610C                     bsr        +0xE /* 00003D9A */
export_23:
00003D8E  610A                     bsr        +0xC /* 00003D9A */
export_22:
fn00003D90:
00003D90  6108                     bsr        +0xA /* 00003D9A */
export_21:
fn00003D92:
00003D92  6106                     bsr        +0x8 /* 00003D9A */
00003D94  6104                     bsr        +0x6 /* 00003D9A */
export_20:
fn00003D96:
00003D96  6102                     bsr        +0x4 /* 00003D9A */
00003D98  4E71                     nop
fn00003D9A:
00003D9A  43FA FFCA                lea.l      A1, [PC - 0x36 /* 00003D66, value 0x61326130 'a2a0' */]
00003D9E  201F                     move.l     D0, [A7]+
00003DA0  9089                     sub.l      D0, A1
00003DA2  D080                     add.l      D0, D0
00003DA4  205F                     movea.l    A0, [A7]+
00003DA6  3F00                     move.w     -[A7], D0
00003DA8  2F08                     move.l     -[A7], A0
00003DAA  ADE7                     syscall    Pack0/ListManager, auto_pop
export_33:
00003DAC  2F17                     move.l     -[A7], [A7]
00003DAE  2F7C 0400 0C00 0004      move.l     [A7 + 0x4], 0x4000C00
00003DB6  4EFA 00B8                jmp        [PC + 0xB8 /* 00003E70 */]
export_34:
00003DBA  2F17                     move.l     -[A7], [A7]
00003DBC  2F7C 0800 0484 0004      move.l     [A7 + 0x4], 0x8000484
00003DC4  4EFA 00AA                jmp        [PC + 0xAA /* 00003E70 */]
export_35:
00003DC8  2F17                     move.l     -[A7], [A7]
00003DCA  2F7C 1000 0808 0004      move.l     [A7 + 0x4], 0x10000808
00003DD2  4EFA 009C                jmp        [PC + 0x9C /* 00003E70 */]
export_36:
00003DD6  2F17                     move.l     -[A7], [A7]
00003DD8  2F7C 1800 040C 0004      move.l     [A7 + 0x4], 0x1800040C
00003DE0  4EFA 008E                jmp        [PC + 0x8E /* 00003E70 */]
export_37:
00003DE4  2F17                     move.l     -[A7], [A7]
00003DE6  2F7C 2004 0480 0004      move.l     [A7 + 0x4], 0x20040480
00003DEE  4EFA 0080                jmp        [PC + 0x80 /* 00003E70 */]
export_38:
00003DF2  2F17                     move.l     -[A7], [A7]
00003DF4  2F7C 2A04 0484 0004      move.l     [A7 + 0x4], 0x2A040484
00003DFC  4EFA 0072                jmp        [PC + 0x72 /* 00003E70 */]
export_39:
00003E00  2F17                     move.l     -[A7], [A7]
00003E02  2F7C 5204 0498 0004      move.l     [A7 + 0x4], 0x52040498
00003E0A  4EFA 0064                jmp        [PC + 0x64 /* 00003E70 */]
export_40:
00003E0E  2F17                     move.l     -[A7], [A7]
00003E10  2F7C 6005 1480 0004      move.l     [A7 + 0x4], 0x60051480
00003E18  4EFA 0056                jmp        [PC + 0x56 /* 00003E70 */]
export_41:
00003E1C  2F17                     move.l     -[A7], [A7]
00003E1E  2F7C 7007 0480 0004      move.l     [A7 + 0x4], 0x70070480
00003E26  4EFA 0048                jmp        [PC + 0x48 /* 00003E70 */]
export_42:
00003E2A  2F17                     move.l     -[A7], [A7]
00003E2C  2F7C 8800 0000 0004      move.l     [A7 + 0x4], 0x88000000
00003E34  4EFA 003A                jmp        [PC + 0x3A /* 00003E70 */]
export_43:
00003E38  2F17                     move.l     -[A7], [A7]
00003E3A  2F7C BA00 0000 0004      move.l     [A7 + 0x4], 0xBA000000
00003E42  4EFA 002C                jmp        [PC + 0x2C /* 00003E70 */]
export_44:
00003E46  2F17                     move.l     -[A7], [A7]
00003E48  2F7C C000 0200 0004      move.l     [A7 + 0x4], 0xC0000200
00003E50  4EFA 001E                jmp        [PC + 0x1E /* 00003E70 */]
export_45:
00003E54  2F17                     move.l     -[A7], [A7]
00003E56  2F7C C800 0000 0004      move.l     [A7 + 0x4], 0xC8000000
00003E5E  4EFA 0010                jmp        [PC + 0x10 /* 00003E70 */]
export_46:
00003E62  2F17                     move.l     -[A7], [A7]
00003E64  2F7C D000 0000 0004      move.l     [A7 + 0x4], 0xD0000000
00003E6C  4EFA 0002                jmp        [PC + 0x2 /* 00003E70 */]
fn00003E70:
00003E70  2F0B                     move.l     -[A7], A3
00003E72  203C 0000 A89F           move.l     D0, 0xA89F
00003E78  A146                     syscall    GetTrapAddress, flags=1
00003E7A  2648                     movea.l    A3, A0
00003E7C  203C 0000 A8FD           move.l     D0, 0xA8FD
00003E82  A146                     syscall    GetTrapAddress, flags=1
00003E84  B7C8                     cmpa.l     A3, A0
00003E86  6746                     beq        +0x48 /* 00003ECE */
00003E88  265F                     movea.l    A3, [A7]+
00003E8A  4E56 0000                link       A6, 0
00003E8E  41EE 0008                lea.l      A0, [A6 + 0x8]
00003E92  7007                     moveq.l    D0, 0x07
00003E94  C02E 0008                and.b      D0, [A6 + 0x8]
00003E98  D02E 000A                add.b      D0, [A6 + 0xA]
00003E9C  5800                     addq.b     D0, 4
00003E9E  9EC0                     sub.w      A7, D0
00003EA0  224F                     movea.l    A1, A7
00003EA2  A02E                     syscall    BlockMove/BlockMoveData
00003EA4  A8FD                     syscall    PrGlue
00003EA6  7200                     moveq.l    D1, 0x00
00003EA8  122E 000A                move.b     D1, [A6 + 0xA]
00003EAC  7007                     moveq.l    D0, 0x07
00003EAE  C02E 0008                and.b      D0, [A6 + 0x8]
00003EB2  6710                     beq        +0x12 /* 00003EC4 */
00003EB4  204F                     movea.l    A0, A7
00003EB6  43F6 100C                lea.l      A1, [A6 + D1.w + 0xC]
00003EBA  E248                     lsr        D0.w, 1
00003EBC  6002                     bra        +0x4 /* 00003EC0 */
label00003EBE:
00003EBE  32DF                     move.w     [A1]+, [A7]+
label00003EC0:
00003EC0  51C8 FFFC                dbf        D0, -0x6 /* 00003EBE */
label00003EC4:
00003EC4  4E5E                     unlink     A6
00003EC6  205F                     movea.l    A0, [A7]+
00003EC8  DFC1                     add.l      A7, D1
00003ECA  584F                     addq.w     A7, 4
00003ECC  4ED0                     jmp        [A0]
label00003ECE:
00003ECE  265F                     movea.l    A3, [A7]+
00003ED0  4E56 0000                link       A6, 0
00003ED4  48E7 0018                movem.l    -[A7], A3,A4
00003ED8  7200                     moveq.l    D1, 0x00
00003EDA  122E 0008                move.b     D1, [A6 + 0x8]
00003EDE  E609                     lsr        D1.b, 3
00003EE0  6718                     beq        +0x1A /* 00003EFA */
00003EE2  4A2E 0008                tst.b      [A6 + 0x8]
00003EE6  6B00 00C2                bmi        +0xC4 /* 00003FAA */
00003EEA  7400                     moveq.l    D2, 0x00
00003EEC  142E 0009                move.b     D2, [A6 + 0x9]
00003EF0  661E                     bne        +0x20 /* 00003F10 */
00003EF2  7403                     moveq.l    D2, 0x03
00003EF4  C438 0946                and.b      D2, [0x00000946 /* ChooserBits */]
00003EF8  6016                     bra        +0x18 /* 00003F10 */
label00003EFA:
00003EFA  206E 0014                movea.l    A0, [A6 + 0x14]
00003EFE  2050                     movea.l    A0, [A0]
00003F00  7403                     moveq.l    D2, 0x03
00003F02  C428 0044                and.b      D2, [A0 + 0x44]
00003F06  0238 00FC 0946           andi.b     [0x00000946 /* ChooserBits */], 0xFC
00003F0C  8538 0946                or.b       [0x00000946 /* ChooserBits */], D2
label00003F10:
00003F10  3678 0A5A                movea.w    A3, [0x00000A5A /* CurMap */]
00003F14  42A7                     clr.l      -[A7]
00003F16  2F3C 5044 4546           move.l     -[A7], 0x50444546 /* 'PDEF' */
00003F1C  3F02                     move.w     -[A7], D2
00003F1E  A9A0                     syscall    GetResource
00003F20  201F                     move.l     D0, [A7]+
00003F22  4A80                     tst.l      D0
00003F24  664A                     bne        +0x4C /* 00003F70 */
00003F26  0C78 FFFF 0952           cmpi.w     [0x00000952 /* PrRefNum */], 0xFFFF
00003F2C  670C                     beq        +0xE /* 00003F3A */
00003F2E  3F38 0952                move.w     -[A7], [0x00000952 /* PrRefNum */]
00003F32  A998                     syscall    UseResFile
00003F34  4A78 0A60                tst.w      [0x00000A60 /* ResErr */]
00003F38  6716                     beq        +0x18 /* 00003F50 */
label00003F3A:
00003F3A  6100 01D0                bsr        +0x1D2 /* 0000410C */
00003F3E  4A40                     tst.w      D0
00003F40  6708                     beq        +0xA /* 00003F4A */
00003F42  31C0 0944                move.w     [0x00000944 /* PrintErr */], D0
00003F46  6000 00B0                bra        +0xB2 /* 00003FF8 */
label00003F4A:
00003F4A  3F38 0952                move.w     -[A7], [0x00000952 /* PrRefNum */]
00003F4E  A998                     syscall    UseResFile
label00003F50:
00003F50  42A7                     clr.l      -[A7]
00003F52  2F3C 5044 4546           move.l     -[A7], 0x50444546 /* 'PDEF' */
00003F58  3F02                     move.w     -[A7], D2
00003F5A  A9A0                     syscall    GetResource
00003F5C  201F                     move.l     D0, [A7]+
00003F5E  4A80                     tst.l      D0
00003F60  660E                     bne        +0x10 /* 00003F70 */
00003F62  3F0B                     move.w     -[A7], A3
00003F64  A998                     syscall    UseResFile
00003F66  31FC FF40 0944           move.w     [0x00000944 /* PrintErr */], 0xFF40
00003F6C  6000 008A                bra        +0x8C /* 00003FF8 */
label00003F70:
00003F70  2840                     movea.l    A4, D0
00003F72  204C                     movea.l    A0, A4
00003F74  A029                     syscall    HLock
00003F76  3F0B                     move.w     -[A7], A3
00003F78  A998                     syscall    UseResFile
00003F7A  41EE 000C                lea.l      A0, [A6 + 0xC]
00003F7E  7007                     moveq.l    D0, 0x07
00003F80  C02E 0008                and.b      D0, [A6 + 0x8]
00003F84  D02E 000A                add.b      D0, [A6 + 0xA]
00003F88  9EC0                     sub.w      A7, D0
00003F8A  224F                     movea.l    A1, A7
00003F8C  A02E                     syscall    BlockMove/BlockMoveData
00003F8E  102E 000B                move.b     D0, [A6 + 0xB]
00003F92  0200 007F                andi.b     D0, 0x7F
00003F96  2054                     movea.l    A0, [A4]
00003F98  4EB0 0000                jsr        [A0 + D0.w]
00003F9C  102E 000B                move.b     D0, [A6 + 0xB]
00003FA0  6A04                     bpl        +0x6 /* 00003FA6 */
00003FA2  204C                     movea.l    A0, A4
00003FA4  A02A                     syscall    HUnlock
label00003FA6:
00003FA6  6000 011A                bra        +0x11C /* 000040C2 */
label00003FAA:
00003FAA  9EFC 0032                sub.w      A7, 0x32 /* '2' */
00003FAE  41FA 0194                lea.l      A0, [PC + 0x194 /* 00004144, value 0x62E5072, pstring ".Print" */]
00003FB2  2F48 0012                move.l     [A7 + 0x12], A0
00003FB6  3F7C FFFD 0018           move.w     [A7 + 0x18], 0xFFFD
00003FBC  422F 001B                clr.b      [A7 + 0x1B]
00003FC0  204F                     movea.l    A0, A7
00003FC2  7000                     moveq.l    D0, 0x00
00003FC4  0881 0004                bclr.b     D1, 0x4
00003FC8  D241                     add.w      D1, D1
00003FCA  323B 1006                move.w     D1, [PC + D1.w + 0x6]
00003FCE  4EFB 1002                jmp        [PC + D1.w + 0x2]
00003FD2  0068 006C 0070           ori.w      [A0 + 0x70], 0x6C /* 'l' */
00003FD8  007A 008C 00A8           ori.w      [PC + 0xA8 /* 00004082, value 0x5, cstring "" */], 0x8C
00003FDE  00BA 00DA 00E4 0030      ori.l      [PC + 0x30 /* 00004010, value 0x66247200 'f$r\0', cstring "f$r" */], 0xDA00E4
00003FE6  0044 0020                ori.w      D4, 0x20 /* ' ' */
00003FEA  0020 0020                ori.b      -[A0], 0x20 /* ' ' */
00003FEE  0020 0020                ori.b      -[A0], 0x20 /* ' ' */
00003FF2  31FC FFCE 0944           move.w     [0x00000944 /* PrintErr */], 0xFFCE
label00003FF8:
00003FF8  7200                     moveq.l    D1, 0x00
00003FFA  122E 000A                move.b     D1, [A6 + 0xA]
00003FFE  6000 00E0                bra        +0xE2 /* 000040E0 */
00004002  2F3C 8000 0000           move.l     -[A7], 0x80000000
00004008  4EBA FE66                jsr        [PC - 0x19A /* 00003E70 */]
0000400C  3038 0944                move.w     D0, [0x00000944 /* PrintErr */]
00004010  6624                     bne        +0x26 /* 00004036 */
00004012  7200                     moveq.l    D1, 0x00
00004014  6002                     bra        +0x4 /* 00004018 */
00004016  7201                     moveq.l    D1, 0x01
label00004018:
00004018  6100 00F2                bsr        +0xF4 /* 0000410C */
0000401C  4A40                     tst.w      D0
0000401E  6616                     bne        +0x18 /* 00004036 */
00004020  3038 0952                move.w     D0, [0x00000952 /* PrRefNum */]
00004024  4A78 0A60                tst.w      [0x00000A60 /* ResErr */]
00004028  6608                     bne        +0xA /* 00004032 */
0000402A  4A41                     tst.w      D1
0000402C  6704                     beq        +0x6 /* 00004032 */
0000402E  3F00                     move.w     -[A7], D0
00004030  A99A                     syscall    CloseResFile
label00004032:
00004032  3038 0A60                move.w     D0, [0x00000A60 /* ResErr */]
label00004036:
00004036  6000 0082                bra        +0x84 /* 000040BA */
0000403A  A000                     syscall    Open/PBHOpen/HOpen
0000403C  607C                     bra        +0x7E /* 000040BA */
0000403E  A001                     syscall    Close
00004040  6078                     bra        +0x7A /* 000040BA */
00004042  615A                     bsr        +0x5C /* 0000409E */
00004044  DEFC 002E                add.w      A7, 0x2E /* '.' */
00004048  2E88                     move.l     [A7], A0
0000404A  6076                     bra        +0x78 /* 000040C2 */
0000404C  6150                     bsr        +0x52 /* 0000409E */
0000404E  2050                     movea.l    A0, [A0]
00004050  7000                     moveq.l    D0, 0x00
00004052  1028 0007                move.b     D0, [A0 + 0x7]
00004056  DEFC 0030                add.w      A7, 0x30 /* '0' */
0000405A  3E80                     move.w     [A7], D0
0000405C  6064                     bra        +0x66 /* 000040C2 */
0000405E  216E 000C 0024           move.l     [A0 + 0x24], [A6 + 0xC]
00004064  216E 0010 0020           move.l     [A0 + 0x20], [A6 + 0x10]
0000406A  216E 0014 001C           move.l     [A0 + 0x1C], [A6 + 0x14]
00004070  316E 0018 001A           move.w     [A0 + 0x1A], [A6 + 0x18]
00004076  A004                     syscall    Control
00004078  6040                     bra        +0x42 /* 000040BA */
0000407A  6122                     bsr        +0x24 /* 0000409E */
0000407C  2050                     movea.l    A0, [A0]
0000407E  0828 0006 0005           btst.b     [A0 + 0x5], 0x6
00004084  6734                     beq        +0x36 /* 000040BA */
00004086  2050                     movea.l    A0, [A0]
00004088  A049                     syscall    HPurge
0000408A  602E                     bra        +0x30 /* 000040BA */
0000408C  6110                     bsr        +0x12 /* 0000409E */
0000408E  2050                     movea.l    A0, [A0]
00004090  0828 0006 0005           btst.b     [A0 + 0x5], 0x6
00004096  6722                     beq        +0x24 /* 000040BA */
00004098  2050                     movea.l    A0, [A0]
0000409A  A04A                     syscall    HNoPurge
0000409C  601C                     bra        +0x1E /* 000040BA */
fn0000409E:
0000409E  317C 0001 001A           move.w     [A0 + 0x1A], 0x1
000040A4  A005                     syscall    Status
000040A6  2068 001C                movea.l    A0, [A0 + 0x1C]
000040AA  4E75                     rts
000040AC  DEFC 0030                add.w      A7, 0x30 /* '0' */
000040B0  3EB8 0944                move.w     [A7], [0x00000944 /* PrintErr */]
000040B4  600C                     bra        +0xE /* 000040C2 */
000040B6  302E 000C                move.w     D0, [A6 + 0xC]
label000040BA:
000040BA  DEFC 0032                add.w      A7, 0x32 /* '2' */
000040BE  31C0 0944                move.w     [0x00000944 /* PrintErr */], D0
label000040C2:
000040C2  7200                     moveq.l    D1, 0x00
000040C4  122E 000A                move.b     D1, [A6 + 0xA]
000040C8  7007                     moveq.l    D0, 0x07
000040CA  C02E 0008                and.b      D0, [A6 + 0x8]
000040CE  6710                     beq        +0x12 /* 000040E0 */
000040D0  204F                     movea.l    A0, A7
000040D2  43F6 100C                lea.l      A1, [A6 + D1.w + 0xC]
000040D6  E248                     lsr        D0.w, 1
000040D8  6002                     bra        +0x4 /* 000040DC */
label000040DA:
000040DA  32DF                     move.w     [A1]+, [A7]+
label000040DC:
000040DC  51C8 FFFC                dbf        D0, -0x6 /* 000040DA */
label000040E0:
000040E0  4CDF 1800                movem.l    A3,A4, [A7]+
000040E4  4E5E                     unlink     A6
000040E6  205F                     movea.l    A0, [A7]+
000040E8  DFC1                     add.l      A7, D1
000040EA  584F                     addq.w     A7, 4
000040EC  4ED0                     jmp        [A0]
fn000040EE:
000040EE  7000                     moveq.l    D0, 0x00
fn000040F0:
000040F0  9EFC 0040                sub.w      A7, 0x40 /* '@' */
000040F4  204F                     movea.l    A0, A7
000040F6  3140 0016                move.w     [A0 + 0x16], D0
000040FA  42A8 0012                clr.l      [A0 + 0x12]
000040FE  A015                     syscall    SetVol/PBHSetVol/HSetVol
00004100  A014                     syscall    GetVol/PBHGetVol/HGetVol
00004102  3028 0016                move.w     D0, [A0 + 0x16]
00004106  DEFC 0040                add.w      A7, 0x40 /* '@' */
0000410A  4E75                     rts
fn0000410C:
0000410C  594F                     subq.w     A7, 4
0000410E  3F3C E000                move.w     -[A7], 0xE000
00004112  A9BA                     syscall    GetString
00004114  201F                     move.l     D0, [A7]+
00004116  6606                     bne        +0x8 /* 0000411E */
00004118  303C FF40                move.w     D0, 0xFF40
0000411C  6024                     bra        +0x26 /* 00004142 */
label0000411E:
0000411E  2240                     movea.l    A1, D0
00004120  61CC                     bsr        -0x32 /* 000040EE */
00004122  4841                     swap.w     D1
00004124  3200                     move.w     D1, D0
00004126  554F                     subq.w     A7, 2
00004128  2049                     movea.l    A0, A1
0000412A  A029                     syscall    HLock
0000412C  2F11                     move.l     -[A7], [A1]
0000412E  A997                     syscall    OpenResFile
00004130  31DF 0952                move.w     [0x00000952 /* PrRefNum */], [A7]+
00004134  2049                     movea.l    A0, A1
00004136  A02A                     syscall    HUnlock
00004138  3001                     move.w     D0, D1
0000413A  4841                     swap.w     D1
0000413C  61B2                     bsr        -0x4C /* 000040F0 */
0000413E  3038 0A60                move.w     D0, [0x00000A60 /* ResErr */]
label00004142:
00004142  4E75                     rts
00004144  062E 5072 696E           addi.b     [A6 + 0x696E], 0x72 /* 'r' */
0000414A  7420                     moveq.l    D2, 0x20
fn0000414C:
0000414C  4A78 028E                tst.w      [0x0000028E /* ROM85 */]
00004150  6B02                     bmi        +0x4 /* 00004154 */
00004152  AC4A                     syscall    FracMul, auto_pop
label00004154:
00004154  614E                     bsr        +0x50 /* 000041A4 */
00004156  6158                     bsr        +0x5A /* 000041B0 */
00004158  3802                     move.w     D4, D2
0000415A  C8C1                     mulu.w     D4, D1
0000415C  4842                     swap.w     D2
0000415E  3602                     move.w     D3, D2
00004160  C6C1                     mulu.w     D3, D1
00004162  4841                     swap.w     D1
00004164  3002                     move.w     D0, D2
00004166  C0C1                     mulu.w     D0, D1
00004168  4842                     swap.w     D2
0000416A  C4C1                     mulu.w     D2, D1
0000416C  D483                     add.l      D2, D3
0000416E  7600                     moveq.l    D3, 0x00
00004170  3602                     move.w     D3, D2
00004172  4843                     swap.w     D3
00004174  3403                     move.w     D2, D3
00004176  4842                     swap.w     D2
00004178  D883                     add.l      D4, D3
0000417A  D182                     addx.l     D0, D2
0000417C  D884                     add.l      D4, D4
0000417E  D180                     addx.l     D0, D0
00004180  D884                     add.l      D4, D4
00004182  D180                     addx.l     D0, D0
00004184  4A84                     tst.l      D4
00004186  6A02                     bpl        +0x4 /* 0000418A */
00004188  5280                     addq.l     D0, 1
label0000418A:
0000418A  4A80                     tst.l      D0
0000418C  6B3A                     bmi        +0x3C /* 000041C8 */
0000418E  4A06                     tst.b      D6
00004190  6702                     beq        +0x4 /* 00004194 */
00004192  4480                     neg.l      D0
label00004194:
00004194  2D40 0010                move.l     [A6 + 0x10], D0
00004198  4CDF 0078                movem.l    D3,D4,D5,D6, [A7]+
0000419C  4E5E                     unlink     A6
0000419E  205F                     movea.l    A0, [A7]+
000041A0  508F                     addq.l     A7, 8
000041A2  4ED0                     jmp        [A0]
fn000041A4:
000041A4  221F                     move.l     D1, [A7]+
000041A6  4E56 0000                link       A6, 0
000041AA  48E7 5E00                movem.l    -[A7], D1,D3,D4,D5,D6
000041AE  4E75                     rts
fn000041B0:
000041B0  4CEE 0006 0008           movem.l    D1,D2, [A6 + 0x8]
fn000041B6:
000041B6  4A81                     tst.l      D1
000041B8  5BC6                     smi        D6
000041BA  6A02                     bpl        +0x4 /* 000041BE */
000041BC  4481                     neg.l      D1
label000041BE:
000041BE  4A82                     tst.l      D2
000041C0  6A04                     bpl        +0x6 /* 000041C6 */
000041C2  4482                     neg.l      D2
000041C4  4606                     not.b      D6
label000041C6:
000041C6  4E75                     rts
label000041C8:
000041C8  7001                     moveq.l    D0, 0x01
000041CA  E298                     ror        D0, 1
000041CC  4A06                     tst.b      D6
000041CE  66C4                     bne        -0x3A /* 00004194 */
000041D0  5380                     subq.l     D0, 1
000041D2  60C0                     bra        -0x3E /* 00004194 */
000041D4  4A78 028E                tst.w      [0x0000028E /* ROM85 */]
000041D8  6B02                     bmi        +0x4 /* 000041DC */
000041DA  AC4B                     syscall    FracDiv, auto_pop
label000041DC:
000041DC  701F                     moveq.l    D0, 0x1F
000041DE  600A                     bra        +0xC /* 000041EA */
export_49:
000041E0  4A78 028E                tst.w      [0x0000028E /* ROM85 */]
000041E4  6B02                     bmi        +0x4 /* 000041E8 */
000041E6  AC4D                     syscall    FixDiv, auto_pop
label000041E8:
000041E8  7011                     moveq.l    D0, 0x11
label000041EA:
000041EA  61B8                     bsr        -0x46 /* 000041A4 */
000041EC  3600                     move.w     D3, D0
000041EE  61C0                     bsr        -0x3E /* 000041B0 */
000041F0  7000                     moveq.l    D0, 0x00
000041F2  4A81                     tst.l      D1
000041F4  6606                     bne        +0x8 /* 000041FC */
000041F6  60D0                     bra        -0x2E /* 000041C8 */
label000041F8:
000041F8  5243                     addq.w     D3, 1
000041FA  D281                     add.l      D1, D1
label000041FC:
000041FC  6AFA                     bpl        -0x4 /* 000041F8 */
000041FE  4A82                     tst.l      D2
00004200  6792                     beq        -0x6C /* 00004194 */
00004202  6004                     bra        +0x6 /* 00004208 */
label00004204:
00004204  5343                     subq.w     D3, 1
00004206  D482                     add.l      D2, D2
label00004208:
00004208  6AFA                     bpl        -0x4 /* 00004204 */
0000420A  4A43                     tst.w      D3
0000420C  6F86                     ble        -0x78 /* 00004194 */
0000420E  0C43 001F                cmpi.w     D3, 0x1F
00004212  6F08                     ble        +0xA /* 0000421C */
00004214  60B2                     bra        -0x4C /* 000041C8 */
label00004216:
00004216  D080                     add.l      D0, D0
00004218  D482                     add.l      D2, D2
0000421A  6504                     bcs        +0x6 /* 00004220 */
label0000421C:
0000421C  B481                     cmp.l      D2, D1
0000421E  6504                     bcs        +0x6 /* 00004224 */
label00004220:
00004220  9481                     sub.l      D2, D1
00004222  5240                     addq.w     D0, 1
label00004224:
00004224  51CB FFF0                dbf        D3, -0x12 /* 00004216 */
00004228  E288                     lsr        D0, 1
0000422A  6400 FF5E                bcc        -0xA0 /* 0000418A */
0000422E  5280                     addq.l     D0, 1
00004230  6000 FF58                bra        -0xA6 /* 0000418A */
00004234  4A78 028E                tst.w      [0x0000028E /* ROM85 */]
00004238  6B02                     bmi        +0x4 /* 0000423C */
0000423A  AC49                     syscall    FracSqrt, auto_pop
label0000423C:
0000423C  6100 FF66                bsr        -0x98 /* 000041A4 */
00004240  262E 0008                move.l     D3, [A6 + 0x8]
00004244  7000                     moveq.l    D0, 0x00
00004246  7201                     moveq.l    D1, 0x01
00004248  E499                     ror        D1, 2
0000424A  7400                     moveq.l    D2, 0x00
0000424C  781F                     moveq.l    D4, 0x1F
label0000424E:
0000424E  9681                     sub.l      D3, D1
00004250  9580                     subx.l     D2, D0
00004252  6404                     bcc        +0x6 /* 00004258 */
00004254  D681                     add.l      D3, D1
00004256  D580                     addx.l     D2, D0
label00004258:
00004258  0A3C 0010                xori.b     ccr, 16
0000425C  D180                     addx.l     D0, D0
0000425E  D683                     add.l      D3, D3
00004260  D582                     addx.l     D2, D2
00004262  D683                     add.l      D3, D3
00004264  D582                     addx.l     D2, D2
00004266  51CC FFE6                dbf        D4, -0x1C /* 0000424E */
0000426A  E288                     lsr        D0, 1
0000426C  6402                     bcc        +0x4 /* 00004270 */
0000426E  5280                     addq.l     D0, 1
label00004270:
00004270  2D40 000C                move.l     [A6 + 0xC], D0
00004274  4CDF 0078                movem.l    D3,D4,D5,D6, [A7]+
00004278  4E5E                     unlink     A6
0000427A  2E9F                     move.l     [A7], [A7]+
0000427C  4E75                     rts
0000427E  6100 FF24                bsr        -0xDA /* 000041A4 */
00004282  4CAE 0006 0008           movem.w    D1,D2, [A6 + 0x8]
00004288  6100 FF2C                bsr        -0xD2 /* 000041B6 */
0000428C  4A81                     tst.l      D1
0000428E  6606                     bne        +0x8 /* 00004296 */
00004290  70FF                     moveq.l    D0, 0xFFFFFFFF
00004292  E288                     lsr        D0, 1
00004294  600C                     bra        +0xE /* 000042A2 */
label00004296:
00004296  85C1                     divs.w     D2, D1
00004298  3002                     move.w     D0, D2
0000429A  4840                     swap.w     D0
0000429C  4242                     clr.w      D2
0000429E  84C1                     divu.w     D2, D1
000042A0  3002                     move.w     D0, D2
label000042A2:
000042A2  4A06                     tst.b      D6
000042A4  6702                     beq        +0x4 /* 000042A8 */
000042A6  4480                     neg.l      D0
label000042A8:
000042A8  60C6                     bra        -0x38 /* 00004270 */
export_47:
000042AA  4A78 028E                tst.w      [0x0000028E /* ROM85 */]
000042AE  6B02                     bmi        +0x4 /* 000042B2 */
000042B0  AC47                     syscall    FracCos, auto_pop
label000042B2:
000042B2  6100 FEF0                bsr        -0x10E /* 000041A4 */
000042B6  7C02                     moveq.l    D6, 0x02
000042B8  600E                     bra        +0x10 /* 000042C8 */
export_48:
000042BA  4A78 028E                tst.w      [0x0000028E /* ROM85 */]
000042BE  6B02                     bmi        +0x4 /* 000042C2 */
000042C0  AC48                     syscall    FracSin, auto_pop
label000042C2:
000042C2  6100 FEE0                bsr        -0x11E /* 000041A4 */
000042C6  7C00                     moveq.l    D6, 0x00
label000042C8:
000042C8  262E 0008                move.l     D3, [A6 + 0x8]
000042CC  6A08                     bpl        +0xA /* 000042D6 */
000042CE  4A86                     tst.l      D6
000042D0  6602                     bne        +0x4 /* 000042D4 */
000042D2  5846                     addq.w     D6, 4
label000042D4:
000042D4  4483                     neg.l      D3
label000042D6:
000042D6  2A3C 0000 C910           move.l     D5, 0xC910
000042DC  86C5                     divu.w     D3, D5
000042DE  DC83                     add.l      D6, D3
000042E0  4243                     clr.w      D3
000042E2  4843                     swap.w     D3
000042E4  0806 0000                btst.b     D6, 0x0
000042E8  6704                     beq        +0x6 /* 000042EE */
000042EA  9645                     sub.w      D3, D5
000042EC  4443                     neg.w      D3
label000042EE:
000042EE  4843                     swap.w     D3
000042F0  E68B                     lsr        D3, 3
000042F2  2F0A                     move.l     -[A7], A2
000042F4  9EFC 0010                sub.w      A7, 0x10
000042F8  2F03                     move.l     -[A7], D3
000042FA  2F03                     move.l     -[A7], D3
000042FC  6100 FE4E                bsr        -0x1B0 /* 0000414C */
00004300  2A1F                     move.l     D5, [A7]+
00004302  1F3C 0066                move.b     -[A7], 0x66 /* 'f' */
00004306  0D1F                     btst       [A7]+, D6
00004308  6608                     bne        +0xA /* 00004312 */
0000430A  45FA 0040                lea.l      A2, [PC + 0x40 /* 0000434C, value 0x7FFFD609 */]
0000430E  7804                     moveq.l    D4, 0x04
00004310  6006                     bra        +0x8 /* 00004318 */
label00004312:
00004312  45FA 0044                lea.l      A2, [PC + 0x44 /* 00004358, value 0x40000000 '@\0\0\0', cstring "@" */]
00004316  7808                     moveq.l    D4, 0x08
label00004318:
00004318  2F32 4004                move.l     -[A7], [A2 + D4.w + 0x4]
label0000431C:
0000431C  2F05                     move.l     -[A7], D5
0000431E  6100 FE2C                bsr        -0x1D2 /* 0000414C */
00004322  2032 4000                move.l     D0, [A2 + D4.w]
00004326  D197                     add.l      [A7], D0
00004328  5944                     subq.w     D4, 4
0000432A  6AF0                     bpl        -0xE /* 0000431C */
0000432C  1F3C 0066                move.b     -[A7], 0x66 /* 'f' */
00004330  0D1F                     btst       [A7]+, D6
00004332  6606                     bne        +0x8 /* 0000433A */
00004334  2F03                     move.l     -[A7], D3
00004336  4EBA FE14                jsr        [PC - 0x1EC /* 0000414C */]
label0000433A:
0000433A  201F                     move.l     D0, [A7]+
0000433C  245F                     movea.l    A2, [A7]+
0000433E  1F3C 00F0                move.b     -[A7], 0xF0
00004342  0D1F                     btst       [A7]+, D6
00004344  6702                     beq        +0x4 /* 00004348 */
00004346  4480                     neg.l      D0
label00004348:
00004348  6000 FF26                bra        -0xD8 /* 00004270 */
0000434C  7FFF                     moveq.l    D7, 0xFFFFFFFF
0000434E  D609                     add.b      D3, A1
00004350  AAB3                     syscall    0xAB3
00004352  314D 10A2                move.w     [A0 + 0x10A2], A5
00004356  08E5 4000                bset.b     -[A5], 0x0
0000435A  0000 8000                ori.b      D0, 0x0
0000435E  11A7 2AA7                move.b     [A0 + D2 * 2 - 0x59], -[A7]
00004362  F29A FA6E                .extension 0x29A <<F/2-3/1>> // unimplemented
00004366  2A42                     movea.l    A5, D2
export_50:
00004368  A11A                     syscall    GetZone, flags=1
0000436A  2F48 0004                move.l     [A7 + 0x4], A0
0000436E  4EFA 0010                jmp        [PC + 0x10 /* 00004380 */]
00004372  225F                     movea.l    A1, [A7]+
00004374  201F                     move.l     D0, [A7]+
00004376  A04C                     syscall    CompactMem
00004378  2E80                     move.l     [A7], D0
0000437A  4E71                     nop
label0000437C:
0000437C  7000                     moveq.l    D0, 0x00
label0000437E:
0000437E  2F09                     move.l     -[A7], A1
label00004380:
00004380  31C0 0220                move.w     [0x00000220 /* MemErr */], D0
00004384  4E75                     rts
label00004386:
00004386  7000                     moveq.l    D0, 0x00
00004388  60F6                     bra        -0x8 /* 00004380 */
export_51:
0000438A  225F                     movea.l    A1, [A7]+
0000438C  201F                     move.l     D0, [A7]+
0000438E  A04D                     syscall    PurgeMem
00004390  4EFA FFEC                jmp        [PC - 0x14 /* 0000437E */]
export_52:
00004394  A01C                     syscall    FreeMem
00004396  2F40 0004                move.l     [A7 + 0x4], D0
0000439A  4EFA FFEA                jmp        [PC - 0x16 /* 00004386 */]
export_53:
0000439E  225F                     movea.l    A1, [A7]+
000043A0  A11D                     syscall    MaxMem, flags=1
000043A2  2208                     move.l     D1, A0
000043A4  205F                     movea.l    A0, [A7]+
000043A6  2081                     move.l     [A0], D1
000043A8  2E80                     move.l     [A7], D0
000043AA  4EFA FFD0                jmp        [PC - 0x30 /* 0000437C */]
export_54:
000043AE  225F                     movea.l    A1, [A7]+
000043B0  205F                     movea.l    A0, [A7]+
000043B2  A04B                     syscall    SetGrowZone
000043B4  4EFA FFC8                jmp        [PC - 0x38 /* 0000437E */]
fn000043B8:
000043B8  225F                     movea.l    A1, [A7]+
000043BA  205F                     movea.l    A0, [A7]+
000043BC  A02D                     syscall    SetApplLimit
000043BE  4EFA FFBE                jmp        [PC - 0x42 /* 0000437E */]
fn000043C2:
000043C2  4A78 028E                tst.w      [0x0000028E /* ROM85 */]
000043C6  6A2A                     bpl        +0x2C /* 000043F2 */
000043C8  2078 0130                movea.l    A0, [0x00000130 /* ApplLimit */]
000043CC  43F8 0114                lea.l      A1, [0x00000114 /* HeapEnd */]
000043D0  2008                     move.l     D0, A0
000043D2  9091                     sub.l      D0, [A1]
000043D4  740C                     moveq.l    D2, 0x0C
000043D6  B082                     cmp.l      D0, D2
000043D8  6516                     bcs        +0x18 /* 000043F0 */
000043DA  2251                     movea.l    A1, [A1]
000043DC  21C8 0114                move.l     [0x00000114 /* HeapEnd */], A0
000043E0  2280                     move.l     [A1], D0
000043E2  4211                     clr.b      [A1]
000043E4  2278 02AA                movea.l    A1, [0x000002AA /* ApplZone */]
000043E8  2288                     move.l     [A1], A0
000043EA  2082                     move.l     [A0], D2
000043EC  D1A9 000C                add.l      [A1 + 0xC], D0
label000043F0:
000043F0  4E75                     rts
label000043F2:
000043F2  A063                     syscall    MaxApplZone
000043F4  4E75                     rts
label000043F6:
000043F6  225F                     movea.l    A1, [A7]+
000043F8  205F                     movea.l    A0, [A7]+
000043FA  A064                     syscall    MoveHHi
000043FC  4ED1                     jmp        [A1]
export_55:
000043FE  4A78 028E                tst.w      [0x0000028E /* ROM85 */]
00004402  6AF2                     bpl        -0xC /* 000043F6 */
00004404  226F 0004                movea.l    A1, [A7 + 0x4]
00004408  48E7 1F3E                movem.l    -[A7], D3,D4,D5,D6,D7,A2,A3,A4,A5,A6
0000440C  2009                     move.l     D0, A1
0000440E  C0B8 031A                and.l      D0, [0x0000031A /* MaskBC/MaskHandle/MaskPtr/Lo3Bytes */]
00004412  670C                     beq        +0xE /* 00004420 */
00004414  2240                     movea.l    A1, D0
00004416  2011                     move.l     D0, [A1]
00004418  C0B8 031A                and.l      D0, [0x0000031A /* MaskBC/MaskHandle/MaskPtr/Lo3Bytes */]
0000441C  2040                     movea.l    A0, D0
0000441E  6606                     bne        +0x8 /* 00004426 */
label00004420:
00004420  7093                     moveq.l    D0, 0xFFFFFF93
label00004422:
00004422  6000 0162                bra        +0x164 /* 00004586 */
label00004426:
00004426  2849                     movea.l    A4, A1
00004428  4A14                     tst.b      [A4]
0000442A  6A04                     bpl        +0x6 /* 00004430 */
0000442C  708B                     moveq.l    D0, 0xFFFFFF8B
0000442E  60F2                     bra        -0xC /* 00004422 */
label00004430:
00004430  2C49                     movea.l    A6, A1
00004432  2028 FFFC                move.l     D0, [A0 - 0x4]
00004436  C0B8 031A                and.l      D0, [0x0000031A /* MaskBC/MaskHandle/MaskPtr/Lo3Bytes */]
0000443A  9DC0                     sub.l      A6, D0
0000443C  2656                     movea.l    A3, [A6]
0000443E  5188                     subq.l     A0, 8
00004440  2210                     move.l     D1, [A0]
00004442  C2B8 031A                and.l      D1, [0x0000031A /* MaskBC/MaskHandle/MaskPtr/Lo3Bytes */]
00004446  2E01                     move.l     D7, D1
00004448  5187                     subq.l     D7, 8
0000444A  7000                     moveq.l    D0, 0x00
0000444C  D1C1                     add.l      A0, D1
0000444E  B1CB                     cmpa.l     A0, A3
00004450  6400 0134                bcc        +0x136 /* 00004586 */
00004454  4A10                     tst.b      [A0]
00004456  6710                     beq        +0x12 /* 00004468 */
00004458  6A00 012C                bpl        +0x12E /* 00004586 */
0000445C  2068 0004                movea.l    A0, [A0 + 0x4]
00004460  D1CE                     add.l      A0, A6
00004462  4A10                     tst.b      [A0]
00004464  6B00 0120                bmi        +0x122 /* 00004586 */
label00004468:
00004468  220F                     move.l     D1, A7
0000446A  C2B8 031A                and.l      D1, [0x0000031A /* MaskBC/MaskHandle/MaskPtr/Lo3Bytes */]
0000446E  2078 02AA                movea.l    A0, [0x000002AA /* ApplZone */]
00004472  9290                     sub.l      D1, [A0]
00004474  243C 0000 0400           move.l     D2, 0x400
0000447A  2002                     move.l     D0, D2
0000447C  D087                     add.l      D0, D7
0000447E  B280                     cmp.l      D1, D0
00004480  6D02                     blt        +0x4 /* 00004484 */
00004482  2200                     move.l     D1, D0
label00004484:
00004484  70FF                     moveq.l    D0, 0xFFFFFFFF
00004486  B282                     cmp.l      D1, D2
00004488  6D00 00FC                blt        +0xFE /* 00004586 */
0000448C  0482 0000 0080           subi.l     D2, 0x80
00004492  9282                     sub.l      D1, D2
00004494  9FC1                     sub.l      A7, D1
00004496  9EFC 0016                sub.w      A7, 0x16
0000449A  2A4F                     movea.l    A5, A7
0000449C  2B41 0008                move.l     [A5 + 0x8], D1
000044A0  2B78 0118 0012           move.l     [A5 + 0x12], [0x00000118 /* TheZone */]
000044A6  21CE 0118                move.l     [0x00000118 /* TheZone */], A6
000044AA  2054                     movea.l    A0, [A4]
000044AC  5148                     subq.w     A0, 8
000044AE  2A90                     move.l     [A5], [A0]
000044B0  2014                     move.l     D0, [A4]
000044B2  C0B8 031A                and.l      D0, [0x0000031A /* MaskBC/MaskHandle/MaskPtr/Lo3Bytes */]
000044B6  2B40 000C                move.l     [A5 + 0xC], D0
000044BA  1B54 0010                move.b     [A5 + 0x10], [A4]
000044BE  6100 00D2                bsr        +0xD4 /* 00004592 */
000044C2  4A12                     tst.b      [A2]
000044C4  662A                     bne        +0x2C /* 000044F0 */
000044C6  2212                     move.l     D1, [A2]
000044C8  2001                     move.l     D0, D1
000044CA  5180                     subq.l     D0, 8
000044CC  BE80                     cmp.l      D7, D0
000044CE  6220                     bhi        +0x22 /* 000044F0 */
000044D0  9087                     sub.l      D0, D7
000044D2  6706                     beq        +0x8 /* 000044DA */
000044D4  740C                     moveq.l    D2, 0x0C
000044D6  B082                     cmp.l      D0, D2
000044D8  6516                     bcs        +0x18 /* 000044F0 */
label000044DA:
000044DA  2054                     movea.l    A0, [A4]
000044DC  224A                     movea.l    A1, A2
000044DE  D3C1                     add.l      A1, D1
label000044E0:
000044E0  2007                     move.l     D0, D7
000044E2  93C0                     sub.l      A1, D0
000044E4  91AE 000C                sub.l      [A6 + 0xC], D0
000044E8  A02E                     syscall    BlockMove/BlockMoveData
000044EA  204C                     movea.l    A0, A4
000044EC  A02B                     syscall    EmptyHandle
000044EE  6068                     bra        +0x6A /* 00004558 */
label000044F0:
000044F0  7C00                     moveq.l    D6, 0x00
000044F2  6100 00D8                bsr        +0xDA /* 000045CC */
000044F6  6100 0112                bsr        +0x114 /* 0000460A */
000044FA  6100 0096                bsr        +0x98 /* 00004592 */
label000044FE:
000044FE  2212                     move.l     D1, [A2]
00004500  202D 0004                move.l     D0, [A5 + 0x4]
00004504  41ED 0016                lea.l      A0, [A5 + 0x16]
00004508  224A                     movea.l    A1, A2
0000450A  D3C1                     add.l      A1, D1
0000450C  93C0                     sub.l      A1, D0
0000450E  DC80                     add.l      D6, D0
00004510  91AE 000C                sub.l      [A6 + 0xC], D0
00004514  A02E                     syscall    BlockMove/BlockMoveData
00004516  4A87                     tst.l      D7
00004518  673E                     beq        +0x40 /* 00004558 */
0000451A  2009                     move.l     D0, A1
0000451C  908A                     sub.l      D0, A2
0000451E  6716                     beq        +0x18 /* 00004536 */
00004520  2200                     move.l     D1, D0
00004522  5181                     subq.l     D1, 8
00004524  9287                     sub.l      D1, D7
00004526  650C                     bcs        +0xE /* 00004534 */
00004528  6706                     beq        +0x8 /* 00004530 */
0000452A  740C                     moveq.l    D2, 0x0C
0000452C  B481                     cmp.l      D2, D1
0000452E  6504                     bcs        +0x6 /* 00004534 */
label00004530:
00004530  2054                     movea.l    A0, [A4]
00004532  60AC                     bra        -0x52 /* 000044E0 */
label00004534:
00004534  2480                     move.l     [A2], D0
label00004536:
00004536  4CD1 0030                movem.l    D4,D5, [A1]
0000453A  234E 0004                move.l     [A1 + 0x4], A6
0000453E  2286                     move.l     [A1], D6
00004540  12BC 0040                move.b     [A1], 0x40 /* '@' */
00004544  2F09                     move.l     -[A7], A1
00004546  6100 0084                bsr        +0x86 /* 000045CC */
0000454A  6100 00BE                bsr        +0xC0 /* 0000460A */
0000454E  6142                     bsr        +0x44 /* 00004592 */
00004550  225F                     movea.l    A1, [A7]+
00004552  48D1 0030                movem.l    [A1], D4,D5
00004556  60A6                     bra        -0x58 /* 000044FE */
label00004558:
00004558  5189                     subq.l     A1, 8
0000455A  51AE 000C                subq.l     [A6 + 0xC], 8
0000455E  2009                     move.l     D0, A1
00004560  908A                     sub.l      D0, A2
00004562  6702                     beq        +0x4 /* 00004566 */
00004564  2480                     move.l     [A2], D0
label00004566:
00004566  2449                     movea.l    A2, A1
00004568  24D5                     move.l     [A2]+, [A5]
0000456A  204C                     movea.l    A0, A4
0000456C  91CE                     sub.l      A0, A6
0000456E  24C8                     move.l     [A2]+, A0
00004570  288A                     move.l     [A4], A2
00004572  18AD 0010                move.b     [A4], [A5 + 0x10]
00004576  21ED 0012 0118           move.l     [0x00000118 /* TheZone */], [A5 + 0x12]
0000457C  7000                     moveq.l    D0, 0x00
0000457E  DFED 0008                add.l      A7, [A5 + 0x8]
00004582  DEFC 0016                add.w      A7, 0x16
label00004586:
00004586  4CDF 7CF8                movem.l    D3,D4,D5,D6,D7,A2,A3,A4,A5,A6, [A7]+
0000458A  2E9F                     move.l     [A7], [A7]+
0000458C  31C0 0220                move.w     [0x00000220 /* MemErr */], D0
00004590  4E75                     rts
fn00004592:
00004592  2014                     move.l     D0, [A4]
00004594  670A                     beq        +0xC /* 000045A0 */
00004596  C0B8 031A                and.l      D0, [0x0000031A /* MaskBC/MaskHandle/MaskPtr/Lo3Bytes */]
0000459A  2040                     movea.l    A0, D0
0000459C  5148                     subq.w     A0, 8
0000459E  6004                     bra        +0x6 /* 000045A4 */
label000045A0:
000045A0  41EE 0034                lea.l      A0, [A6 + 0x34]
label000045A4:
000045A4  2210                     move.l     D1, [A0]
000045A6  C2B8 031A                and.l      D1, [0x0000031A /* MaskBC/MaskHandle/MaskPtr/Lo3Bytes */]
000045AA  4A10                     tst.b      [A0]
000045AC  670C                     beq        +0xE /* 000045BA */
000045AE  6A14                     bpl        +0x16 /* 000045C4 */
000045B0  2268 0004                movea.l    A1, [A0 + 0x4]
000045B4  D3CE                     add.l      A1, A6
000045B6  4A11                     tst.b      [A1]
000045B8  6B0A                     bmi        +0xC /* 000045C4 */
label000045BA:
000045BA  2448                     movea.l    A2, A0
000045BC  D1C1                     add.l      A0, D1
000045BE  B1CB                     cmpa.l     A0, A3
000045C0  65E2                     bcs        -0x1C /* 000045A4 */
000045C2  6006                     bra        +0x8 /* 000045CA */
label000045C4:
000045C4  B1ED 000C                cmpa.l     A0, [A5 + 0xC]
000045C8  63F0                     bls        -0xE /* 000045BA */
label000045CA:
000045CA  4E75                     rts
fn000045CC:
000045CC  202D 0008                move.l     D0, [A5 + 0x8]
000045D0  B087                     cmp.l      D0, D7
000045D2  6D02                     blt        +0x4 /* 000045D6 */
000045D4  2007                     move.l     D0, D7
label000045D6:
000045D6  43ED 0016                lea.l      A1, [A5 + 0x16]
000045DA  2054                     movea.l    A0, [A4]
000045DC  D1C7                     add.l      A0, D7
000045DE  91C0                     sub.l      A0, D0
000045E0  9E80                     sub.l      D7, D0
000045E2  2B40 0004                move.l     [A5 + 0x4], D0
000045E6  2200                     move.l     D1, D0
000045E8  A02E                     syscall    BlockMove/BlockMoveData
000045EA  204C                     movea.l    A0, A4
000045EC  2007                     move.l     D0, D7
000045EE  6604                     bne        +0x6 /* 000045F4 */
000045F0  A02B                     syscall    EmptyHandle
000045F2  4E75                     rts
label000045F4:
000045F4  2050                     movea.l    A0, [A0]
000045F6  5148                     subq.w     A0, 8
000045F8  1410                     move.b     D2, [A0]
000045FA  5080                     addq.l     D0, 8
000045FC  2080                     move.l     [A0], D0
000045FE  1082                     move.b     [A0], D2
00004600  D1C0                     add.l      A0, D0
00004602  2081                     move.l     [A0], D1
00004604  D3AE 000C                add.l      [A6 + 0xC], D1
00004608  4E75                     rts
fn0000460A:
0000460A  203C 0080 0000           move.l     D0, 0x800000
00004610  A04C                     syscall    CompactMem
00004612  4E75                     rts
export_56:
fn00004614:
00004614  225F                     movea.l    A1, [A7]+
00004616  201F                     move.l     D0, [A7]+
00004618  A11E                     syscall    NewPtr, flags=1
0000461A  2E88                     move.l     [A7], A0
0000461C  4EFA FD60                jmp        [PC - 0x2A0 /* 0000437E */]
export_57:
00004620  225F                     movea.l    A1, [A7]+
00004622  205F                     movea.l    A0, [A7]+
00004624  A01F                     syscall    DisposPtr/DisposePtr
00004626  4EFA FD56                jmp        [PC - 0x2AA /* 0000437E */]
export_58:
0000462A  225F                     movea.l    A1, [A7]+
0000462C  201F                     move.l     D0, [A7]+
0000462E  A122                     syscall    NewHandle, flags=1
00004630  2E88                     move.l     [A7], A0
00004632  4EFA FD4A                jmp        [PC - 0x2B6 /* 0000437E */]
export_59:
fn00004636:
00004636  225F                     movea.l    A1, [A7]+
00004638  205F                     movea.l    A0, [A7]+
0000463A  A023                     syscall    DisposHandle/DisposeHandle
0000463C  4EFA FD40                jmp        [PC - 0x2C0 /* 0000437E */]
export_60:
00004640  225F                     movea.l    A1, [A7]+
00004642  205F                     movea.l    A0, [A7]+
00004644  A025                     syscall    GetHandleSize
00004646  2E80                     move.l     [A7], D0
00004648  6A06                     bpl        +0x8 /* 00004650 */
0000464A  4297                     clr.l      [A7]
0000464C  4EFA FD30                jmp        [PC - 0x2D0 /* 0000437E */]
label00004650:
00004650  4EFA FD2A                jmp        [PC - 0x2D6 /* 0000437C */]
export_61:
fn00004654:
00004654  225F                     movea.l    A1, [A7]+
00004656  201F                     move.l     D0, [A7]+
00004658  205F                     movea.l    A0, [A7]+
0000465A  A024                     syscall    SetHandleSize
0000465C  4EFA FD20                jmp        [PC - 0x2E0 /* 0000437E */]
export_62:
00004660  225F                     movea.l    A1, [A7]+
00004662  205F                     movea.l    A0, [A7]+
00004664  A126                     syscall    HandleZone, flags=1
00004666  2E88                     move.l     [A7], A0
00004668  4EFA FD14                jmp        [PC - 0x2EC /* 0000437E */]
export_63:
0000466C  225F                     movea.l    A1, [A7]+
0000466E  201F                     move.l     D0, [A7]+
00004670  205F                     movea.l    A0, [A7]+
00004672  A027                     syscall    ReallocateHandle
00004674  4EFA FD08                jmp        [PC - 0x2F8 /* 0000437E */]
export_64:
fn00004678:
00004678  225F                     movea.l    A1, [A7]+
0000467A  205F                     movea.l    A0, [A7]+
0000467C  A029                     syscall    HLock
0000467E  4EFA FCFE                jmp        [PC - 0x302 /* 0000437E */]
export_65:
fn00004682:
00004682  225F                     movea.l    A1, [A7]+
00004684  205F                     movea.l    A0, [A7]+
00004686  A02A                     syscall    HUnlock
00004688  4EFA FCF4                jmp        [PC - 0x30C /* 0000437E */]
export_66:
0000468C  225F                     movea.l    A1, [A7]+
0000468E  205F                     movea.l    A0, [A7]+
00004690  A049                     syscall    HPurge
00004692  4EFA FCEA                jmp        [PC - 0x316 /* 0000437E */]
export_67:
00004696  225F                     movea.l    A1, [A7]+
00004698  205F                     movea.l    A0, [A7]+
0000469A  A04A                     syscall    HNoPurge
0000469C  4EFA FCE0                jmp        [PC - 0x320 /* 0000437E */]
export_68:
000046A0  A036                     syscall    MoreMasters
000046A2  4EFA FCDC                jmp        [PC - 0x324 /* 00004380 */]
export_69:
fn000046A6:
000046A6  221F                     move.l     D1, [A7]+
000046A8  201F                     move.l     D0, [A7]+
000046AA  225F                     movea.l    A1, [A7]+
000046AC  205F                     movea.l    A0, [A7]+
000046AE  A02E                     syscall    BlockMove/BlockMoveData
000046B0  2241                     movea.l    A1, D1
000046B2  4EFA FCCA                jmp        [PC - 0x336 /* 0000437E */]
export_70:
000046B6  3F78 0220 0004           move.w     [A7 + 0x4], [0x00000220 /* MemErr */]
000046BC  4E75                     rts
export_71:
000046BE  4E56 FFCE                link       A6, -0x0032
000046C2  41EE FFCE                lea.l      A0, [A6 - 0x32]
000046C6  316E 000C 0018           move.w     [A0 + 0x18], [A6 + 0xC]
000046CC  317C 000A 001A           move.w     [A0 + 0x1A], 0xA /* '\n' */
000046D2  226E 0008                movea.l    A1, [A6 + 0x8]
000046D6  2159 001C                move.l     [A0 + 0x1C], [A1]+
000046DA  2151 0020                move.l     [A0 + 0x20], [A1]
000046DE  A004                     syscall    Control
000046E0  3D40 000E                move.w     [A6 + 0xE], D0
000046E4  4E5E                     unlink     A6
000046E6  225F                     movea.l    A1, [A7]+
000046E8  5C4F                     addq.w     A7, 6
000046EA  4ED1                     jmp        [A1]
export_72:
000046EC  225F                     movea.l    A1, [A7]+
000046EE  301F                     move.w     D0, [A7]+
000046F0  A146                     syscall    GetTrapAddress, flags=1
000046F2  2E88                     move.l     [A7], A0
000046F4  4ED1                     jmp        [A1]
export_73:
000046F6  225F                     movea.l    A1, [A7]+
000046F8  301F                     move.w     D0, [A7]+
000046FA  205F                     movea.l    A0, [A7]+
000046FC  A047                     syscall    SetTrapAddress
000046FE  4ED1                     jmp        [A1]
export_74:
00004700  225F                     movea.l    A1, [A7]+
00004702  121F                     move.b     D1, [A7]+
00004704  301F                     move.w     D0, [A7]+
00004706  2F09                     move.l     -[A7], A1
00004708  4A01                     tst.b      D1
0000470A  6706                     beq        +0x8 /* 00004712 */
0000470C  A746                     syscall    GetToolBoxTrapAddress/GetToolTrapAddress, flags=7
0000470E  6000 0004                bra        +0x6 /* 00004714 */
label00004712:
00004712  A346                     syscall    GetOSTrapAddress, flags=3
label00004714:
00004714  2F48 0004                move.l     [A7 + 0x4], A0
00004718  4E75                     rts
export_75:
0000471A  225F                     movea.l    A1, [A7]+
0000471C  205F                     movea.l    A0, [A7]+
0000471E  2F09                     move.l     -[A7], A1
00004720  A039                     syscall    ReadDateTime
00004722  3F40 0004                move.w     [A7 + 0x4], D0
00004726  4E75                     rts
export_76:
00004728  225F                     movea.l    A1, [A7]+
0000472A  205F                     movea.l    A0, [A7]+
0000472C  20B8 020C                move.l     [A0], [0x0000020C /* Time */]
00004730  4ED1                     jmp        [A1]
export_77:
00004732  206F 0008                movea.l    A0, [A7 + 0x8]
00004736  A9C7                     syscall    DateToSeconds/Date2Secs
00004738  4CDF 0302                movem.l    D1,A0,A1, [A7]+
0000473C  2080                     move.l     [A0], D0
0000473E  2041                     movea.l    A0, D1
00004740  4ED0                     jmp        [A0]
export_78:
00004742  4CDF 0301                movem.l    D0,A0,A1, [A7]+
00004746  2F00                     move.l     -[A7], D0
00004748  2009                     move.l     D0, A1
0000474A  A9C6                     syscall    SecondsToDate/Secs2Date
0000474C  4E75                     rts
export_79:
0000474E  201F                     move.l     D0, [A7]+
00004750  225F                     movea.l    A1, [A7]+
00004752  205F                     movea.l    A0, [A7]+
00004754  2F00                     move.l     -[A7], D0
00004756  A03B                     syscall    Delay
00004758  2280                     move.l     [A1], D0
0000475A  4E75                     rts
export_80:
0000475C  4E56 0000                link       A6, 0
00004760  206E 0010                movea.l    A0, [A6 + 0x10]
00004764  226E 000C                movea.l    A1, [A6 + 0xC]
00004768  7000                     moveq.l    D0, 0x00
0000476A  1018                     move.b     D0, [A0]+
0000476C  4840                     swap.w     D0
0000476E  1019                     move.b     D0, [A1]+
00004770  4A2E 0008                tst.b      [A6 + 0x8]
00004774  670E                     beq        +0x10 /* 00004784 */
00004776  4A2E 000A                tst.b      [A6 + 0xA]
0000477A  6704                     beq        +0x6 /* 00004780 */
0000477C  A43C                     syscall    CmpString, flags=4
0000477E  6010                     bra        +0x12 /* 00004790 */
label00004780:
00004780  A03C                     syscall    CmpString
00004782  600C                     bra        +0xE /* 00004790 */
label00004784:
00004784  4A2E 000A                tst.b      [A6 + 0xA]
00004788  6704                     beq        +0x6 /* 0000478E */
0000478A  A63C                     syscall    CmpString, flags=6
0000478C  6002                     bra        +0x4 /* 00004790 */
label0000478E:
0000478E  A23C                     syscall    CmpString, flags=2
label00004790:
00004790  0A00 0001                xori.b     D0, 0x1
00004794  1D40 0014                move.b     [A6 + 0x14], D0
00004798  4E5E                     unlink     A6
0000479A  205F                     movea.l    A0, [A7]+
0000479C  DEFC 000C                add.w      A7, 0xC
000047A0  4ED0                     jmp        [A0]
export_81:
000047A2  225F                     movea.l    A1, [A7]+
000047A4  101F                     move.b     D0, [A7]+
000047A6  205F                     movea.l    A0, [A7]+
000047A8  6604                     bne        +0x6 /* 000047AE */
000047AA  A000                     syscall    Open/PBHOpen/HOpen
000047AC  6002                     bra        +0x4 /* 000047B0 */
label000047AE:
000047AE  A400                     syscall    Open/PBHOpen/HOpen, flags=4
label000047B0:
000047B0  3E80                     move.w     [A7], D0
000047B2  4ED1                     jmp        [A1]
export_82:
000047B4  225F                     movea.l    A1, [A7]+
000047B6  101F                     move.b     D0, [A7]+
000047B8  205F                     movea.l    A0, [A7]+
000047BA  6604                     bne        +0x6 /* 000047C0 */
000047BC  A001                     syscall    Close
000047BE  6002                     bra        +0x4 /* 000047C2 */
label000047C0:
000047C0  A401                     syscall    Close, flags=4
label000047C2:
000047C2  3E80                     move.w     [A7], D0
000047C4  4ED1                     jmp        [A1]
export_83:
000047C6  225F                     movea.l    A1, [A7]+
000047C8  101F                     move.b     D0, [A7]+
000047CA  205F                     movea.l    A0, [A7]+
000047CC  6604                     bne        +0x6 /* 000047D2 */
000047CE  A002                     syscall    Read
000047D0  6002                     bra        +0x4 /* 000047D4 */
label000047D2:
000047D2  A402                     syscall    Read, flags=4
label000047D4:
000047D4  3E80                     move.w     [A7], D0
000047D6  4ED1                     jmp        [A1]
export_84:
000047D8  225F                     movea.l    A1, [A7]+
000047DA  101F                     move.b     D0, [A7]+
000047DC  205F                     movea.l    A0, [A7]+
000047DE  6604                     bne        +0x6 /* 000047E4 */
000047E0  A003                     syscall    Write
000047E2  6002                     bra        +0x4 /* 000047E6 */
label000047E4:
000047E4  A403                     syscall    Write, flags=4
label000047E6:
000047E6  3E80                     move.w     [A7], D0
000047E8  4ED1                     jmp        [A1]
export_85:
000047EA  225F                     movea.l    A1, [A7]+
000047EC  101F                     move.b     D0, [A7]+
000047EE  205F                     movea.l    A0, [A7]+
000047F0  6604                     bne        +0x6 /* 000047F6 */
000047F2  A007                     syscall    GetVolInfo/PBHGetVInfo/HGetVInfo
000047F4  6002                     bra        +0x4 /* 000047F8 */
label000047F6:
000047F6  A407                     syscall    GetVolInfo/PBHGetVInfo/HGetVInfo, flags=4
label000047F8:
000047F8  3E80                     move.w     [A7], D0
000047FA  4ED1                     jmp        [A1]
export_86:
000047FC  225F                     movea.l    A1, [A7]+
000047FE  101F                     move.b     D0, [A7]+
00004800  205F                     movea.l    A0, [A7]+
00004802  6604                     bne        +0x6 /* 00004808 */
00004804  A00B                     syscall    Rename/PBHRename/HRename
00004806  6002                     bra        +0x4 /* 0000480A */
label00004808:
00004808  A40B                     syscall    Rename/PBHRename/HRename, flags=4
label0000480A:
0000480A  3E80                     move.w     [A7], D0
0000480C  4ED1                     jmp        [A1]
export_87:
0000480E  225F                     movea.l    A1, [A7]+
00004810  101F                     move.b     D0, [A7]+
00004812  205F                     movea.l    A0, [A7]+
00004814  6604                     bne        +0x6 /* 0000481A */
00004816  A00C                     syscall    GetFileInfo/PBHGetFInfo/HGetFileInfo
00004818  6002                     bra        +0x4 /* 0000481C */
label0000481A:
0000481A  A40C                     syscall    GetFileInfo/PBHGetFInfo/HGetFileInfo, flags=4
label0000481C:
0000481C  3E80                     move.w     [A7], D0
0000481E  4ED1                     jmp        [A1]
export_88:
00004820  225F                     movea.l    A1, [A7]+
00004822  101F                     move.b     D0, [A7]+
00004824  205F                     movea.l    A0, [A7]+
00004826  6604                     bne        +0x6 /* 0000482C */
00004828  A045                     syscall    FlushFile
0000482A  6002                     bra        +0x4 /* 0000482E */
label0000482C:
0000482C  A445                     syscall    FlushFile, flags=4
label0000482E:
0000482E  3E80                     move.w     [A7], D0
00004830  4ED1                     jmp        [A1]
export_89:
00004832  4E56 FFCE                link       A6, -0x0032
00004836  41EE FFCE                lea.l      A0, [A6 - 0x32]
0000483A  216E 000E 0012           move.l     [A0 + 0x12], [A6 + 0xE]
00004840  316E 000C 0016           move.w     [A0 + 0x16], [A6 + 0xC]
00004846  4228 001A                clr.b      [A0 + 0x1A]
0000484A  4228 001B                clr.b      [A0 + 0x1B]
0000484E  42A8 001C                clr.l      [A0 + 0x1C]
00004852  A000                     syscall    Open/PBHOpen/HOpen
00004854  226E 0008                movea.l    A1, [A6 + 0x8]
00004858  32A8 0018                move.w     [A1], [A0 + 0x18]
0000485C  3D40 0012                move.w     [A6 + 0x12], D0
00004860  4E5E                     unlink     A6
00004862  205F                     movea.l    A0, [A7]+
00004864  DEFC 000A                add.w      A7, 0xA /* '\n' */
00004868  4ED0                     jmp        [A0]
export_90:
0000486A  4E56 FFCE                link       A6, -0x0032
0000486E  41EE FFCE                lea.l      A0, [A6 - 0x32]
00004872  316E 0008 0018           move.w     [A0 + 0x18], [A6 + 0x8]
00004878  A001                     syscall    Close
0000487A  3D40 000A                move.w     [A6 + 0xA], D0
0000487E  4E5E                     unlink     A6
00004880  205F                     movea.l    A0, [A7]+
00004882  548F                     addq.l     A7, 2
00004884  4ED0                     jmp        [A0]
export_91:
00004886  51C1                     sf         D1
00004888  6002                     bra        +0x4 /* 0000488C */
export_92:
0000488A  50C1                     st         D1
label0000488C:
0000488C  4E56 FFCE                link       A6, -0x0032
00004890  41EE FFCE                lea.l      A0, [A6 - 0x32]
00004894  216E 0008 0020           move.l     [A0 + 0x20], [A6 + 0x8]
0000489A  316E 0010 0018           move.w     [A0 + 0x18], [A6 + 0x10]
000048A0  226E 000C                movea.l    A1, [A6 + 0xC]
000048A4  2151 0024                move.l     [A0 + 0x24], [A1]
000048A8  4268 002C                clr.w      [A0 + 0x2C]
000048AC  42A8 002E                clr.l      [A0 + 0x2E]
000048B0  4A01                     tst.b      D1
000048B2  6604                     bne        +0x6 /* 000048B8 */
000048B4  A002                     syscall    Read
000048B6  6002                     bra        +0x4 /* 000048BA */
label000048B8:
000048B8  A003                     syscall    Write
label000048BA:
000048BA  3D40 0012                move.w     [A6 + 0x12], D0
000048BE  226E 000C                movea.l    A1, [A6 + 0xC]
000048C2  22A8 0028                move.l     [A1], [A0 + 0x28]
000048C6  4E5E                     unlink     A6
000048C8  225F                     movea.l    A1, [A7]+
000048CA  DEFC 000A                add.w      A7, 0xA /* '\n' */
000048CE  4ED1                     jmp        [A1]
export_93:
000048D0  4E56 FFCE                link       A6, -0x0032
000048D4  41EE FFCE                lea.l      A0, [A6 - 0x32]
000048D8  316E 000E 0018           move.w     [A0 + 0x18], [A6 + 0xE]
000048DE  316E 000C 001A           move.w     [A0 + 0x1A], [A6 + 0xC]
000048E4  4AAE 0008                tst.l      [A6 + 0x8]
000048E8  6710                     beq        +0x12 /* 000048FA */
000048EA  43E8 001C                lea.l      A1, [A0 + 0x1C]
000048EE  206E 0008                movea.l    A0, [A6 + 0x8]
000048F2  7016                     moveq.l    D0, 0x16
000048F4  A02E                     syscall    BlockMove/BlockMoveData
000048F6  41EE FFCE                lea.l      A0, [A6 - 0x32]
label000048FA:
000048FA  A004                     syscall    Control
000048FC  3D40 0010                move.w     [A6 + 0x10], D0
00004900  4E5E                     unlink     A6
00004902  225F                     movea.l    A1, [A7]+
00004904  508F                     addq.l     A7, 8
00004906  4ED1                     jmp        [A1]
export_94:
00004908  4E56 FFB0                link       A6, -0x0050
0000490C  41EE FFB0                lea.l      A0, [A6 - 0x50]
00004910  216E 000E 0012           move.l     [A0 + 0x12], [A6 + 0xE]
00004916  316E 000C 0016           move.w     [A0 + 0x16], [A6 + 0xC]
0000491C  4228 001A                clr.b      [A0 + 0x1A]
00004920  4268 001C                clr.w      [A0 + 0x1C]
00004924  A00C                     syscall    GetFileInfo/PBHGetFInfo/HGetFileInfo
00004926  3D40 0012                move.w     [A6 + 0x12], D0
0000492A  41E8 0020                lea.l      A0, [A0 + 0x20]
0000492E  226E 0008                movea.l    A1, [A6 + 0x8]
00004932  7010                     moveq.l    D0, 0x10
00004934  A02E                     syscall    BlockMove/BlockMoveData
00004936  4E5E                     unlink     A6
00004938  225F                     movea.l    A1, [A7]+
0000493A  DEFC 000A                add.w      A7, 0xA /* '\n' */
0000493E  4ED1                     jmp        [A1]
export_95:
00004940  4E56 FFC0                link       A6, -0x0040
00004944  41EE FFC0                lea.l      A0, [A6 - 0x40]
00004948  216E 000C 0012           move.l     [A0 + 0x12], [A6 + 0xC]
0000494E  A014                     syscall    GetVol/PBHGetVol/HGetVol
00004950  3D40 0010                move.w     [A6 + 0x10], D0
00004954  226E 0008                movea.l    A1, [A6 + 0x8]
00004958  32A8 0016                move.w     [A1], [A0 + 0x16]
0000495C  4E5E                     unlink     A6
0000495E  225F                     movea.l    A1, [A7]+
00004960  508F                     addq.l     A7, 8
00004962  4ED1                     jmp        [A1]
export_96:
00004964  4E56 FFC0                link       A6, -0x0040
00004968  41EE FFC0                lea.l      A0, [A6 - 0x40]
0000496C  216E 000A 0012           move.l     [A0 + 0x12], [A6 + 0xA]
00004972  316E 0008 0016           move.w     [A0 + 0x16], [A6 + 0x8]
00004978  A015                     syscall    SetVol/PBHSetVol/HSetVol
0000497A  3D40 000E                move.w     [A6 + 0xE], D0
0000497E  4E5E                     unlink     A6
00004980  225F                     movea.l    A1, [A7]+
00004982  5C8F                     addq.l     A7, 6
00004984  4ED1                     jmp        [A1]
export_97:
00004986  4E56 FFC0                link       A6, -0x0040
0000498A  41EE FFC0                lea.l      A0, [A6 - 0x40]
0000498E  316E 0008 0016           move.w     [A0 + 0x16], [A6 + 0x8]
00004994  216E 000A 0012           move.l     [A0 + 0x12], [A6 + 0xA]
0000499A  A013                     syscall    FlushVol
0000499C  3D40 000E                move.w     [A6 + 0xE], D0
000049A0  4E5E                     unlink     A6
000049A2  225F                     movea.l    A1, [A7]+
000049A4  5C8F                     addq.l     A7, 6
000049A6  4ED1                     jmp        [A1]
export_98:
000049A8  4E56 FFB0                link       A6, -0x0050
000049AC  41EE FFB0                lea.l      A0, [A6 - 0x50]
000049B0  216E 0012 0012           move.l     [A0 + 0x12], [A6 + 0x12]
000049B6  316E 0010 0016           move.w     [A0 + 0x16], [A6 + 0x10]
000049BC  4228 001A                clr.b      [A0 + 0x1A]
000049C0  A008                     syscall    Create/PBHCreate/HCreate
000049C2  4A40                     tst.w      D0
000049C4  6616                     bne        +0x18 /* 000049DC */
000049C6  4268 001C                clr.w      [A0 + 0x1C]
000049CA  A00C                     syscall    GetFileInfo/PBHGetFInfo/HGetFileInfo
000049CC  2008                     move.l     D0, A0
000049CE  43E8 0020                lea.l      A1, [A0 + 0x20]
000049D2  22EE 0008                move.l     [A1]+, [A6 + 0x8]
000049D6  22AE 000C                move.l     [A1], [A6 + 0xC]
000049DA  A00D                     syscall    SetFileInfo/PBHSetFInfo/HSetFileInfo
label000049DC:
000049DC  3D40 0016                move.w     [A6 + 0x16], D0
000049E0  4E5E                     unlink     A6
000049E2  225F                     movea.l    A1, [A7]+
000049E4  DEFC 000E                add.w      A7, 0xE
000049E8  4ED1                     jmp        [A1]
export_99:
000049EA  4E56 FFCE                link       A6, -0x0032
000049EE  41EE FFCE                lea.l      A0, [A6 - 0x32]
000049F2  216E 000A 0012           move.l     [A0 + 0x12], [A6 + 0xA]
000049F8  316E 0008 0016           move.w     [A0 + 0x16], [A6 + 0x8]
000049FE  4228 001A                clr.b      [A0 + 0x1A]
00004A02  A009                     syscall    Delete/PBHDelete/HDelete
00004A04  3D40 000E                move.w     [A6 + 0xE], D0
00004A08  4E5E                     unlink     A6
00004A0A  225F                     movea.l    A1, [A7]+
00004A0C  5C8F                     addq.l     A7, 6
00004A0E  4ED1                     jmp        [A1]
export_100:
00004A10  4E56 FFCE                link       A6, -0x0032
00004A14  41EE FFCE                lea.l      A0, [A6 - 0x32]
00004A18  216E 000E 0012           move.l     [A0 + 0x12], [A6 + 0xE]
00004A1E  316E 000C 0016           move.w     [A0 + 0x16], [A6 + 0xC]
00004A24  4228 001A                clr.b      [A0 + 0x1A]
00004A28  4228 001B                clr.b      [A0 + 0x1B]
00004A2C  42A8 001C                clr.l      [A0 + 0x1C]
00004A30  A00A                     syscall    OpenRF/PBHOpenRF/HOpenRF
00004A32  3D40 0012                move.w     [A6 + 0x12], D0
00004A36  226E 0008                movea.l    A1, [A6 + 0x8]
00004A3A  32A8 0018                move.w     [A1], [A0 + 0x18]
00004A3E  4E5E                     unlink     A6
00004A40  225F                     movea.l    A1, [A7]+
00004A42  DEFC 000A                add.w      A7, 0xA /* '\n' */
00004A46  4ED1                     jmp        [A1]
export_101:
00004A48  4E56 FFB0                link       A6, -0x0050
00004A4C  41EE FFB0                lea.l      A0, [A6 - 0x50]
00004A50  216E 000E 0012           move.l     [A0 + 0x12], [A6 + 0xE]
00004A56  316E 000C 0016           move.w     [A0 + 0x16], [A6 + 0xC]
00004A5C  4228 001A                clr.b      [A0 + 0x1A]
00004A60  4268 001C                clr.w      [A0 + 0x1C]
00004A64  A00C                     syscall    GetFileInfo/PBHGetFInfo/HGetFileInfo
00004A66  43E8 0020                lea.l      A1, [A0 + 0x20]
00004A6A  206E 0008                movea.l    A0, [A6 + 0x8]
00004A6E  7010                     moveq.l    D0, 0x10
00004A70  A02E                     syscall    BlockMove/BlockMoveData
00004A72  41EE FFB0                lea.l      A0, [A6 - 0x50]
00004A76  A00D                     syscall    SetFileInfo/PBHSetFInfo/HSetFileInfo
00004A78  3D40 0012                move.w     [A6 + 0x12], D0
00004A7C  4E5E                     unlink     A6
00004A7E  225F                     movea.l    A1, [A7]+
00004A80  DEFC 000A                add.w      A7, 0xA /* '\n' */
00004A84  4ED1                     jmp        [A1]
export_102:
00004A86  4E56 FFCE                link       A6, -0x0032
00004A8A  41EE FFCE                lea.l      A0, [A6 - 0x32]
00004A8E  316E 000C 0018           move.w     [A0 + 0x18], [A6 + 0xC]
00004A94  A011                     syscall    GetEOF
00004A96  3D40 000E                move.w     [A6 + 0xE], D0
00004A9A  226E 0008                movea.l    A1, [A6 + 0x8]
00004A9E  22A8 001C                move.l     [A1], [A0 + 0x1C]
00004AA2  4E5E                     unlink     A6
00004AA4  225F                     movea.l    A1, [A7]+
00004AA6  5C8F                     addq.l     A7, 6
00004AA8  4ED1                     jmp        [A1]
export_103:
00004AAA  4E56 FFCE                link       A6, -0x0032
00004AAE  41EE FFCE                lea.l      A0, [A6 - 0x32]
00004AB2  316E 000C 0018           move.w     [A0 + 0x18], [A6 + 0xC]
00004AB8  216E 0008 001C           move.l     [A0 + 0x1C], [A6 + 0x8]
00004ABE  A012                     syscall    SetEOF
00004AC0  3D40 000E                move.w     [A6 + 0xE], D0
00004AC4  4E5E                     unlink     A6
00004AC6  225F                     movea.l    A1, [A7]+
00004AC8  5C8F                     addq.l     A7, 6
00004ACA  4ED1                     jmp        [A1]
export_104:
00004ACC  4E56 FFCE                link       A6, -0x0032
00004AD0  41EE FFCE                lea.l      A0, [A6 - 0x32]
00004AD4  316E 000C 0018           move.w     [A0 + 0x18], [A6 + 0xC]
00004ADA  A018                     syscall    GetFPos
00004ADC  3D40 000E                move.w     [A6 + 0xE], D0
00004AE0  226E 0008                movea.l    A1, [A6 + 0x8]
00004AE4  22A8 002E                move.l     [A1], [A0 + 0x2E]
00004AE8  4E5E                     unlink     A6
00004AEA  225F                     movea.l    A1, [A7]+
00004AEC  5C8F                     addq.l     A7, 6
00004AEE  4ED1                     jmp        [A1]
export_105:
00004AF0  4E56 FFCE                link       A6, -0x0032
00004AF4  41EE FFCE                lea.l      A0, [A6 - 0x32]
00004AF8  316E 000E 0018           move.w     [A0 + 0x18], [A6 + 0xE]
00004AFE  316E 000C 002C           move.w     [A0 + 0x2C], [A6 + 0xC]
00004B04  216E 0008 002E           move.l     [A0 + 0x2E], [A6 + 0x8]
00004B0A  A044                     syscall    SetFPos
00004B0C  3D40 0010                move.w     [A6 + 0x10], D0
00004B10  4E5E                     unlink     A6
00004B12  225F                     movea.l    A1, [A7]+
00004B14  508F                     addq.l     A7, 8
00004B16  4ED1                     jmp        [A1]
export_106:
00004B18  225F                     movea.l    A1, [A7]+
00004B1A  101F                     move.b     D0, [A7]+
00004B1C  205F                     movea.l    A0, [A7]+
00004B1E  6606                     bne        +0x8 /* 00004B26 */
00004B20  7001                     moveq.l    D0, 0x01
00004B22  A260                     syscall    FSDispatch/HFSDispatch, flags=2
00004B24  6004                     bra        +0x6 /* 00004B2A */
label00004B26:
00004B26  7001                     moveq.l    D0, 0x01
00004B28  A660                     syscall    FSDispatch/HFSDispatch, flags=6
label00004B2A:
00004B2A  3E80                     move.w     [A7], D0
00004B2C  4ED1                     jmp        [A1]
export_107:
00004B2E  225F                     movea.l    A1, [A7]+
00004B30  101F                     move.b     D0, [A7]+
00004B32  205F                     movea.l    A0, [A7]+
00004B34  6606                     bne        +0x8 /* 00004B3C */
00004B36  7007                     moveq.l    D0, 0x07
00004B38  A260                     syscall    FSDispatch/HFSDispatch, flags=2
00004B3A  6004                     bra        +0x6 /* 00004B40 */
label00004B3C:
00004B3C  7007                     moveq.l    D0, 0x07
00004B3E  A660                     syscall    FSDispatch/HFSDispatch, flags=6
label00004B40:
00004B40  3E80                     move.w     [A7], D0
00004B42  4ED1                     jmp        [A1]
export_108:
00004B44  225F                     movea.l    A1, [A7]+
00004B46  101F                     move.b     D0, [A7]+
00004B48  205F                     movea.l    A0, [A7]+
00004B4A  6606                     bne        +0x8 /* 00004B52 */
00004B4C  7008                     moveq.l    D0, 0x08
00004B4E  A260                     syscall    FSDispatch/HFSDispatch, flags=2
00004B50  6004                     bra        +0x6 /* 00004B56 */
label00004B52:
00004B52  7008                     moveq.l    D0, 0x08
00004B54  A660                     syscall    FSDispatch/HFSDispatch, flags=6
label00004B56:
00004B56  3E80                     move.w     [A7], D0
00004B58  4ED1                     jmp        [A1]
export_109:
00004B5A  206F 0006                movea.l    A0, [A7 + 0x6]
00004B5E  4228 001A                clr.b      [A0 + 0x1A]
00004B62  225F                     movea.l    A1, [A7]+
00004B64  101F                     move.b     D0, [A7]+
00004B66  205F                     movea.l    A0, [A7]+
00004B68  6606                     bne        +0x8 /* 00004B70 */
00004B6A  7009                     moveq.l    D0, 0x09
00004B6C  A260                     syscall    FSDispatch/HFSDispatch, flags=2
00004B6E  6004                     bra        +0x6 /* 00004B74 */
label00004B70:
00004B70  7009                     moveq.l    D0, 0x09
00004B72  A660                     syscall    FSDispatch/HFSDispatch, flags=6
label00004B74:
00004B74  3E80                     move.w     [A7], D0
00004B76  4ED1                     jmp        [A1]
export_110:
00004B78  225F                     movea.l    A1, [A7]+
00004B7A  101F                     move.b     D0, [A7]+
00004B7C  205F                     movea.l    A0, [A7]+
00004B7E  6606                     bne        +0x8 /* 00004B86 */
00004B80  700A                     moveq.l    D0, 0x0A
00004B82  A260                     syscall    FSDispatch/HFSDispatch, flags=2
00004B84  6004                     bra        +0x6 /* 00004B8A */
label00004B86:
00004B86  700A                     moveq.l    D0, 0x0A
00004B88  A660                     syscall    FSDispatch/HFSDispatch, flags=6
label00004B8A:
00004B8A  3E80                     move.w     [A7], D0
00004B8C  4ED1                     jmp        [A1]
export_111:
00004B8E  225F                     movea.l    A1, [A7]+
00004B90  201F                     move.l     D0, [A7]+
00004B92  305F                     movea.w    A0, [A7]+
00004B94  A02F                     syscall    PostEvent/PPostEvent
00004B96  3E80                     move.w     [A7], D0
00004B98  4ED1                     jmp        [A1]
export_112:
00004B9A  225F                     movea.l    A1, [A7]+
00004B9C  205F                     movea.l    A0, [A7]+
00004B9E  301F                     move.w     D0, [A7]+
00004BA0  A030                     syscall    OSEventAvail
00004BA2  5240                     addq.w     D0, 1
00004BA4  1E80                     move.b     [A7], D0
00004BA6  4ED1                     jmp        [A1]
export_113:
00004BA8  4A78 028E                tst.w      [0x0000028E /* ROM85 */]
00004BAC  6B24                     bmi        +0x26 /* 00004BD2 */
00004BAE  205F                     movea.l    A0, [A7]+
00004BB0  301F                     move.w     D0, [A7]+
00004BB2  2F08                     move.l     -[A7], A0
00004BB4  4E56 FFE0                link       A6, -0x0020
00004BB8  41EE FFE0                lea.l      A0, [A6 - 0x20]
00004BBC  317C FFFC 0018           move.w     [A0 + 0x18], 0xFFFC
00004BC2  317C 0002 001A           move.w     [A0 + 0x1A], 0x2
00004BC8  3140 001C                move.w     [A0 + 0x1C], D0
00004BCC  A204                     syscall    Control, flags=2
00004BCE  4E5E                     unlink     A6
00004BD0  4E75                     rts
label00004BD2:
00004BD2  205F                     movea.l    A0, [A7]+
00004BD4  301F                     move.w     D0, [A7]+
00004BD6  2F08                     move.l     -[A7], A0
00004BD8  0C39 00FF 0040 0009      cmpi.b     [0x00400009], 0xFF
00004BE0  6724                     beq        +0x26 /* 00004C06 */
00004BE2  40E7                     move.w     -[A7], SR
00004BE4  007C 0300                ori.w      sr, 768
00004BE8  1239 00EF FFFE           move.b     D1, [0x00EFFFFE]
00004BEE  0241 00F8                andi.w     D1, 0xF8
00004BF2  0240 0007                andi.w     D0, 0x7
00004BF6  11C0 0260                move.b     [0x00000260 /* SdVolume */], D0
00004BFA  8240                     or.w       D1, D0
00004BFC  13C1 00EF FFFE           move.b     [0x00EFFFFE], D1
00004C02  46DF                     move.w     SR, [A7]+
00004C04  4E75                     rts
label00004C06:
00004C06  0240 0007                andi.w     D0, 0x7
00004C0A  11C0 0260                move.b     [0x00000260 /* SdVolume */], D0
00004C0E  E348                     lsl        D0.w, 1
00004C10  1239 00FC DD81           move.b     D1, [0x00FCDD81]
00004C16  0201 00F1                andi.b     D1, 0xF1
00004C1A  8200                     or.b       D1, D0
00004C1C  13C1 00FC DD81           move.b     [0x00FCDD81], D1
00004C22  4E75                     rts
export_114:
00004C24  205F                     movea.l    A0, [A7]+
00004C26  225F                     movea.l    A1, [A7]+
00004C28  4219                     clr.b      [A1]+
00004C2A  12B8 0260                move.b     [A1], [0x00000260 /* SdVolume */]
00004C2E  4ED0                     jmp        [A0]
export_115:
00004C30  226F 0004                movea.l    A1, [A7 + 0x4]
00004C34  4251                     clr.w      [A1]
00004C36  2078 0AEC                movea.l    A0, [0x00000AEC /* AppParmHandle */]
00004C3A  A025                     syscall    GetHandleSize
00004C3C  4A80                     tst.l      D0
00004C3E  6F0E                     ble        +0x10 /* 00004C4E */
00004C40  2050                     movea.l    A0, [A0]
00004C42  226F 0008                movea.l    A1, [A7 + 0x8]
00004C46  3298                     move.w     [A1], [A0]+
00004C48  226F 0004                movea.l    A1, [A7 + 0x4]
00004C4C  3290                     move.w     [A1], [A0]
label00004C4E:
00004C4E  205F                     movea.l    A0, [A7]+
00004C50  504F                     addq.w     A7, 8
00004C52  4ED0                     jmp        [A0]
export_116:
00004C54  48E7 0030                movem.l    -[A7], A2,A3
00004C58  226F 000C                movea.l    A1, [A7 + 0xC]
00004C5C  42A9 0002                clr.l      [A1 + 0x2]
00004C60  2078 0AEC                movea.l    A0, [0x00000AEC /* AppParmHandle */]
00004C64  A025                     syscall    GetHandleSize
00004C66  4A80                     tst.l      D0
00004C68  6F26                     ble        +0x28 /* 00004C90 */
00004C6A  2450                     movea.l    A2, [A0]
00004C6C  544A                     addq.w     A2, 2
00004C6E  322F 0010                move.w     D1, [A7 + 0x10]
00004C72  B25A                     cmp.w      D1, [A2]+
00004C74  6E1A                     bgt        +0x1C /* 00004C90 */
00004C76  5341                     subq.w     D1, 1
label00004C78:
00004C78  6D16                     blt        +0x18 /* 00004C90 */
00004C7A  204A                     movea.l    A0, A2
00004C7C  7002                     moveq.l    D0, 0x02
00004C7E  D028 0008                add.b      D0, [A0 + 0x8]
00004C82  0240 FFFE                andi.w     D0, 0xFFFE
00004C86  5040                     addq.w     D0, 8
00004C88  D4C0                     add.w      A2, D0
00004C8A  A02E                     syscall    BlockMove/BlockMoveData
00004C8C  5341                     subq.w     D1, 1
00004C8E  60E8                     bra        -0x16 /* 00004C78 */
label00004C90:
00004C90  4CDF 0C00                movem.l    A2,A3, [A7]+
00004C94  205F                     movea.l    A0, [A7]+
00004C96  5C4F                     addq.w     A7, 6
00004C98  4ED0                     jmp        [A0]
export_117:
00004C9A  2078 0AEC                movea.l    A0, [0x00000AEC /* AppParmHandle */]
00004C9E  A025                     syscall    GetHandleSize
00004CA0  4A80                     tst.l      D0
00004CA2  6F28                     ble        +0x2A /* 00004CCC */
00004CA4  2050                     movea.l    A0, [A0]
00004CA6  5448                     addq.w     A0, 2
00004CA8  322F 0004                move.w     D1, [A7 + 0x4]
00004CAC  B258                     cmp.w      D1, [A0]+
00004CAE  6E1C                     bgt        +0x1E /* 00004CCC */
00004CB0  5341                     subq.w     D1, 1
label00004CB2:
00004CB2  6D18                     blt        +0x1A /* 00004CCC */
00004CB4  6712                     beq        +0x14 /* 00004CC8 */
00004CB6  7002                     moveq.l    D0, 0x02
00004CB8  D028 0008                add.b      D0, [A0 + 0x8]
00004CBC  0240 FFFE                andi.w     D0, 0xFFFE
00004CC0  5040                     addq.w     D0, 8
00004CC2  D0C0                     add.w      A0, D0
00004CC4  5341                     subq.w     D1, 1
00004CC6  60EA                     bra        -0x14 /* 00004CB2 */
label00004CC8:
00004CC8  42A8 0002                clr.l      [A0 + 0x2]
label00004CCC:
00004CCC  205F                     movea.l    A0, [A7]+
00004CCE  544F                     addq.w     A7, 2
00004CD0  4ED0                     jmp        [A0]
export_118:
00004CD2  A162                     syscall    PurgeSpace, flags=1
00004CD4  226F 0004                movea.l    A1, [A7 + 0x4]
00004CD8  2288                     move.l     [A1], A0
00004CDA  226F 0008                movea.l    A1, [A7 + 0x8]
00004CDE  2280                     move.l     [A1], D0
00004CE0  225F                     movea.l    A1, [A7]+
00004CE2  504F                     addq.w     A7, 8
00004CE4  4ED1                     jmp        [A1]
export_119:
00004CE6  A065                     syscall    StackSpace
00004CE8  2F40 0004                move.l     [A7 + 0x4], D0
00004CEC  4E75                     rts
export_120:
00004CEE  A166                     syscall    NewEmptyHandle, flags=1
00004CF0  2F48 0004                move.l     [A7 + 0x4], A0
00004CF4  4E75                     rts
export_121:
00004CF6  225F                     movea.l    A1, [A7]+
00004CF8  205F                     movea.l    A0, [A7]+
00004CFA  A069                     syscall    HGetState
00004CFC  1E80                     move.b     [A7], D0
00004CFE  4ED1                     jmp        [A1]
export_122:
00004D00  225F                     movea.l    A1, [A7]+
00004D02  101F                     move.b     D0, [A7]+
00004D04  205F                     movea.l    A0, [A7]+
00004D06  A06A                     syscall    HSetState
00004D08  4ED1                     jmp        [A1]
export_123:
00004D0A  7401                     moveq.l    D2, 0x01
label00004D0C:
00004D0C  205F                     movea.l    A0, [A7]+
00004D0E  3F02                     move.w     -[A7], D2
00004D10  2F08                     move.l     -[A7], A0
00004D12  ADEA                     syscall    Pack3, auto_pop
export_124:
00004D14  7403                     moveq.l    D2, 0x03
00004D16  4EFA FFF4                jmp        [PC - 0xC /* 00004D0C */]
export_125:
00004D1A  7402                     moveq.l    D2, 0x02
00004D1C  4EFA FFEE                jmp        [PC - 0x12 /* 00004D0C */]
export_126:
00004D20  7404                     moveq.l    D2, 0x04
00004D22  4EFA FFE8                jmp        [PC - 0x18 /* 00004D0C */]
00004D26  7402                     moveq.l    D2, 0x02
label00004D28:
00004D28  205F                     movea.l    A0, [A7]+
00004D2A  3F02                     move.w     -[A7], D2
00004D2C  2F08                     move.l     -[A7], A0
00004D2E  ADE9                     syscall    Pack2, auto_pop
export_127:
fn00004D30:
00004D30  7400                     moveq.l    D2, 0x00
00004D32  4EFA FFF4                jmp        [PC - 0xC /* 00004D28 */]
00004D36  7406                     moveq.l    D2, 0x06
label00004D38:
00004D38  205F                     movea.l    A0, [A7]+
00004D3A  3F02                     move.w     -[A7], D2
00004D3C  2F08                     move.l     -[A7], A0
00004D3E  ADED                     syscall    Pack6, auto_pop
export_128:
00004D40  7400                     moveq.l    D2, 0x00
00004D42  4EFA FFF4                jmp        [PC - 0xC /* 00004D38 */]
export_129:
00004D46  7402                     moveq.l    D2, 0x02
00004D48  4EFA FFEE                jmp        [PC - 0x12 /* 00004D38 */]
export_130:
00004D4C  7404                     moveq.l    D2, 0x04
00004D4E  4EFA FFE8                jmp        [PC - 0x18 /* 00004D38 */]
export_131:
00004D52  343C 000A                move.w     D2, 0xA /* '\n' */
00004D56  4EFA 0006                jmp        [PC + 0x6 /* 00004D5E */]
export_132:
00004D5A  343C 000C                move.w     D2, 0xC
label00004D5E:
00004D5E  205F                     movea.l    A0, [A7]+
00004D60  3F02                     move.w     -[A7], D2
00004D62  2F08                     move.l     -[A7], A0
00004D64  ADED                     syscall    Pack6, auto_pop
export_133:
00004D66  343C 000A                move.w     D2, 0xA /* '\n' */
00004D6A  4EFA 0006                jmp        [PC + 0x6 /* 00004D72 */]
export_134:
00004D6E  343C 000C                move.w     D2, 0xC
label00004D72:
00004D72  226F 0004                movea.l    A1, [A7 + 0x4]
00004D76  206F 0008                movea.l    A0, [A7 + 0x8]
00004D7A  4240                     clr.w      D0
00004D7C  4241                     clr.w      D1
00004D7E  1018                     move.b     D0, [A0]+
00004D80  1219                     move.b     D1, [A1]+
00004D82  2F48 0008                move.l     [A7 + 0x8], A0
00004D86  2F49 0004                move.l     [A7 + 0x4], A1
00004D8A  205F                     movea.l    A0, [A7]+
00004D8C  3F00                     move.w     -[A7], D0
00004D8E  3F01                     move.w     -[A7], D1
00004D90  3F02                     move.w     -[A7], D2
00004D92  2F08                     move.l     -[A7], A0
00004D94  ADED                     syscall    Pack6, auto_pop
export_135:
00004D96  206F 0008                movea.l    A0, [A7 + 0x8]
00004D9A  3F3C 0001                move.w     -[A7], 0x1
00004D9E  A9EE                     syscall    Pack7/DecStr68K
00004DA0  206F 0004                movea.l    A0, [A7 + 0x4]
00004DA4  2080                     move.l     [A0], D0
00004DA6  4EFA 000E                jmp        [PC + 0xE /* 00004DB6 */]
00004DAA  206F 0004                movea.l    A0, [A7 + 0x4]
00004DAE  202F 0008                move.l     D0, [A7 + 0x8]
00004DB2  4267                     clr.w      -[A7]
00004DB4  A9EE                     syscall    Pack7/DecStr68K
label00004DB6:
00004DB6  205F                     movea.l    A0, [A7]+
00004DB8  504F                     addq.w     A7, 8
00004DBA  4ED0                     jmp        [A0]
export_136:
00004DBC  206F 0004                movea.l    A0, [A7 + 0x4]
00004DC0  2050                     movea.l    A0, [A0]
00004DC2  A9E1                     syscall    HandToHand
00004DC4  226F 0004                movea.l    A1, [A7 + 0x4]
00004DC8  2288                     move.l     [A1], A0
00004DCA  3F40 0008                move.w     [A7 + 0x8], D0
00004DCE  2E9F                     move.l     [A7], [A7]+
00004DD0  4E75                     rts
export_137:
00004DD2  206F 000C                movea.l    A0, [A7 + 0xC]
00004DD6  202F 0004                move.l     D0, [A7 + 0x4]
00004DDA  A9E3                     syscall    PtrToHand
00004DDC  3F40 0010                move.w     [A7 + 0x10], D0
00004DE0  226F 0008                movea.l    A1, [A7 + 0x8]
00004DE4  2288                     move.l     [A1], A0
00004DE6  205F                     movea.l    A0, [A7]+
00004DE8  DEFC 000C                add.w      A7, 0xC
00004DEC  4ED0                     jmp        [A0]
export_138:
fn00004DEE:
00004DEE  42A7                     clr.l      -[A7]
00004DF0  594F                     subq.w     A7, 4
00004DF2  2F38 0AB4                move.l     -[A7], [0x00000AB4 /* TEScrpHandle */]
00004DF6  2F3C 5445 5854           move.l     -[A7], 0x54455854 /* 'TEXT' */
00004DFC  486F 000C                pea.l      [A7 + 0xC]
00004E00  A9FD                     syscall    GetScrap
00004E02  201F                     move.l     D0, [A7]+
00004E04  584F                     addq.w     A7, 4
00004E06  6A0A                     bpl        +0xC /* 00004E12 */
00004E08  3F40 0004                move.w     [A7 + 0x4], D0
00004E0C  4278 0AB0                clr.w      [0x00000AB0 /* TEScrpLength */]
00004E10  6008                     bra        +0xA /* 00004E1A */
label00004E12:
00004E12  426F 0004                clr.w      [A7 + 0x4]
00004E16  31C0 0AB0                move.w     [0x00000AB0 /* TEScrpLength */], D0
label00004E1A:
00004E1A  4E75                     rts
export_139:
fn00004E1C:
00004E1C  2078 0AB4                movea.l    A0, [0x00000AB4 /* TEScrpHandle */]
00004E20  A029                     syscall    HLock
00004E22  594F                     subq.w     A7, 4
00004E24  7000                     moveq.l    D0, 0x00
00004E26  3038 0AB0                move.w     D0, [0x00000AB0 /* TEScrpLength */]
00004E2A  2F00                     move.l     -[A7], D0
00004E2C  2F3C 5445 5854           move.l     -[A7], 0x54455854 /* 'TEXT' */
00004E32  2F10                     move.l     -[A7], [A0]
00004E34  A9FE                     syscall    PutScrap
00004E36  544F                     addq.w     A7, 2
00004E38  3F5F 0004                move.w     [A7 + 0x4], [A7]+
00004E3C  2078 0AB4                movea.l    A0, [0x00000AB4 /* TEScrpHandle */]
00004E40  A02A                     syscall    HUnlock
00004E42  4E75                     rts
export_140:
00004E44  201F                     move.l     D0, [A7]+
00004E46  225F                     movea.l    A1, [A7]+
00004E48  2251                     movea.l    A1, [A1]
00004E4A  2B5F 0014                move.l     [A5 + 0x14], [A7]+
00004E4E  41FA 000A                lea.l      A0, [PC + 0xA /* 00004E5A, value 0x2F024227 */]
00004E52  2348 002A                move.l     [A1 + 0x2A], A0
00004E56  2040                     movea.l    A0, D0
00004E58  4ED0                     jmp        [A0]
00004E5A  2F02                     move.l     -[A7], D2
00004E5C  4227                     clr.b      -[A7]
00004E5E  206D 0014                movea.l    A0, [A5 + 0x14]
00004E62  4E90                     jsr        [A0]
00004E64  101F                     move.b     D0, [A7]+
00004E66  241F                     move.l     D2, [A7]+
00004E68  4A00                     tst.b      D0
00004E6A  4E75                     rts
export_141:
00004E6C  4E56 0000                link       A6, 0
00004E70  594F                     subq.w     A7, 4
00004E72  2F3C 5354 5223           move.l     -[A7], 0x53545223 /* 'STR#' */
00004E78  3F2E 000A                move.w     -[A7], [A6 + 0xA]
00004E7C  A9A0                     syscall    GetResource
00004E7E  226E 000C                movea.l    A1, [A6 + 0xC]
00004E82  4211                     clr.b      [A1]
00004E84  201F                     move.l     D0, [A7]+
00004E86  6720                     beq        +0x22 /* 00004EA8 */
00004E88  2040                     movea.l    A0, D0
00004E8A  2050                     movea.l    A0, [A0]
00004E8C  3018                     move.w     D0, [A0]+
00004E8E  322E 0008                move.w     D1, [A6 + 0x8]
00004E92  B240                     cmp.w      D1, D0
00004E94  6E12                     bgt        +0x14 /* 00004EA8 */
00004E96  7000                     moveq.l    D0, 0x00
label00004E98:
00004E98  5341                     subq.w     D1, 1
00004E9A  6706                     beq        +0x8 /* 00004EA2 */
00004E9C  1018                     move.b     D0, [A0]+
00004E9E  D1C0                     add.l      A0, D0
00004EA0  60F6                     bra        -0x8 /* 00004E98 */
label00004EA2:
00004EA2  1010                     move.b     D0, [A0]
00004EA4  5240                     addq.w     D0, 1
00004EA6  A02E                     syscall    BlockMove/BlockMoveData
label00004EA8:
00004EA8  4E5E                     unlink     A6
00004EAA  205F                     movea.l    A0, [A7]+
00004EAC  508F                     addq.l     A7, 8
00004EAE  4ED0                     jmp        [A0]
export_142:
00004EB0  0C78 3FFF 028E           cmpi.w     [0x0000028E /* ROM85 */], 0x3FFF
00004EB6  6202                     bhi        +0x4 /* 00004EBA */
00004EB8  AC14                     syscall    SetFractEnable, auto_pop
label00004EBA:
00004EBA  205F                     movea.l    A0, [A7]+
00004EBC  11DF 0BF4                move.b     [0x00000BF4 /* FractEnable */], [A7]+
00004EC0  21F8 0A06 0B4C           move.l     [0x00000B4C /* LastSPExtra */], [0x00000A06 /* MinusOne */]
00004EC6  4ED0                     jmp        [A0]
export_143:
00004EC8  4A78 028E                tst.w      [0x0000028E /* ROM85 */]
00004ECC  6B1C                     bmi        +0x1E /* 00004EEA */
00004ECE  303C A89F                move.w     D0, 0xA89F
00004ED2  A346                     syscall    GetOSTrapAddress, flags=3
00004ED4  2248                     movea.l    A1, A0
00004ED6  303C A055                move.w     D0, 0xA055
00004EDA  A346                     syscall    GetOSTrapAddress, flags=3
00004EDC  B3C8                     cmpa.l     A1, A0
00004EDE  670A                     beq        +0xC /* 00004EEA */
00004EE0  225F                     movea.l    A1, [A7]+
00004EE2  201F                     move.l     D0, [A7]+
00004EE4  A055                     syscall    StripAddress
00004EE6  2E80                     move.l     [A7], D0
00004EE8  4ED1                     jmp        [A1]
label00004EEA:
00004EEA  225F                     movea.l    A1, [A7]+
00004EEC  201F                     move.l     D0, [A7]+
00004EEE  C0B8 031A                and.l      D0, [0x0000031A /* MaskBC/MaskHandle/MaskPtr/Lo3Bytes */]
00004EF2  2E80                     move.l     [A7], D0
00004EF4  4ED1                     jmp        [A1]
export_144:
00004EF6  4A78 028E                tst.w      [0x0000028E /* ROM85 */]
00004EFA  6B22                     bmi        +0x24 /* 00004F1E */
00004EFC  303C 0090                move.w     D0, 0x90
00004F00  A346                     syscall    GetOSTrapAddress, flags=3
00004F02  2248                     movea.l    A1, A0
00004F04  303C 009F                move.w     D0, 0x9F
00004F08  A746                     syscall    GetToolBoxTrapAddress/GetToolTrapAddress, flags=7
00004F0A  B3C8                     cmpa.l     A1, A0
00004F0C  6710                     beq        +0x12 /* 00004F1E */
00004F0E  225F                     movea.l    A1, [A7]+
00004F10  205F                     movea.l    A0, [A7]+
00004F12  301F                     move.w     D0, [A7]+
00004F14  2F09                     move.l     -[A7], A1
00004F16  A090                     syscall    SysEnvirons
00004F18  3F40 0004                move.w     [A7 + 0x4], D0
00004F1C  4E75                     rts
label00004F1E:
00004F1E  206F 0004                movea.l    A0, [A7 + 0x4]
00004F22  303C 0001                move.w     D0, 0x1
00004F26  2248                     movea.l    A1, A0
00004F28  6006                     bra        +0x8 /* 00004F30 */
00004F2A  0313                     btst       [A3], D1
00004F2C  0B02                     btst       D2, D5
00004F2E  0100                     btst       D0, D0
label00004F30:
00004F30  303C 0010                move.w     D0, 0x10
00004F34  E240                     asr        D0.w, 1
00004F36  5340                     subq.w     D0, 1
label00004F38:
00004F38  4258                     clr.w      [A0]+
00004F3A  51C8 FFFC                dbf        D0, -0x6 /* 00004F38 */
00004F3E  32BC 0001                move.w     [A1], 0x1
00004F42  2078 02AE                movea.l    A0, [0x000002AE /* ROMBase */]
00004F46  337C FFFE 0002           move.w     [A1 + 0x2], 0xFFFE
00004F4C  0C28 00FF 0009           cmpi.b     [A0 + 0x9], 0xFF
00004F52  6742                     beq        +0x44 /* 00004F96 */
00004F54  4A28 0008                tst.b      [A0 + 0x8]
00004F58  6E20                     bgt        +0x22 /* 00004F7A */
00004F5A  337C FFFF 0002           move.w     [A1 + 0x2], 0xFFFF
00004F60  4A78 028E                tst.w      [0x0000028E /* ROM85 */]
00004F64  6B30                     bmi        +0x32 /* 00004F96 */
00004F66  337C 0001 0002           move.w     [A1 + 0x2], 0x1
00004F6C  4A78 0B22                tst.w      [0x00000B22 /* HWCfgFlags */]
00004F70  6A24                     bpl        +0x26 /* 00004F96 */
00004F72  337C 0002 0002           move.w     [A1 + 0x2], 0x2
00004F78  601C                     bra        +0x1E /* 00004F96 */
label00004F7A:
00004F7A  4269 0002                clr.w      [A1 + 0x2]
00004F7E  0C28 0002 0008           cmpi.b     [A0 + 0x8], 0x2
00004F84  6E10                     bgt        +0x12 /* 00004F96 */
00004F86  6708                     beq        +0xA /* 00004F90 */
00004F88  337C 0004 0002           move.w     [A1 + 0x2], 0x4
00004F8E  6006                     bra        +0x8 /* 00004F96 */
label00004F90:
00004F90  337C 0003 0002           move.w     [A1 + 0x2], 0x3
label00004F96:
00004F96  4269 0004                clr.w      [A1 + 0x4]
00004F9A  0C38 0002 012F           cmpi.b     [0x0000012F /* CPUFlag */], 0x2
00004FA0  6E0A                     bgt        +0xC /* 00004FAC */
00004FA2  1038 012F                move.b     D0, [0x0000012F /* CPUFlag */]
00004FA6  5240                     addq.w     D0, 1
00004FA8  1340 0007                move.b     [A1 + 0x7], D0
label00004FAC:
00004FAC  4A78 028E                tst.w      [0x0000028E /* ROM85 */]
00004FB0  6B0E                     bmi        +0x10 /* 00004FC0 */
00004FB2  0838 0004 0B22           btst.b     [0x00000B22 /* HWCfgFlags */], 0x4
00004FB8  6706                     beq        +0x8 /* 00004FC0 */
00004FBA  137C 0001 0008           move.b     [A1 + 0x8], 0x1
label00004FC0:
00004FC0  0C78 3FFF 028E           cmpi.w     [0x0000028E /* ROM85 */], 0x3FFF
00004FC6  6206                     bhi        +0x8 /* 00004FCE */
00004FC8  137C 0001 0009           move.b     [A1 + 0x9], 0x1
label00004FCE:
00004FCE  1038 021E                move.b     D0, [0x0000021E /* KbdType */]
00004FD2  41FA FF5B                lea.l      A0, [PC - 0xA5 /* 00004F2F, value 0x303C00 '0<\0', cstring "" */]
00004FD6  323C 0004                move.w     D1, 0x4
label00004FDA:
00004FDA  B020                     cmp.b      D0, -[A0]
00004FDC  57C9 FFFC                dbeq       D1, -0x6 /* 00004FDA */
00004FE0  5241                     addq.w     D1, 1
00004FE2  3341 000A                move.w     [A1 + 0xA], D1
00004FE6  4A38 0291                tst.b      [0x00000291 /* PortBUse */]
00004FEA  6B18                     bmi        +0x1A /* 00005004 */
00004FEC  1238 01FB                move.b     D1, [0x000001FB /* SPConfig */]
00004FF0  0201 000F                andi.b     D1, 0xF
00004FF4  0C01 0001                cmpi.b     D1, 0x1
00004FF8  660A                     bne        +0xC /* 00005004 */
00004FFA  2078 02DC                movea.l    A0, [0x000002DC /* ABusDCE */]
00004FFE  1368 0007 000D           move.b     [A1 + 0xD], [A0 + 0x7]
label00005004:
00005004  3378 0210 000E           move.w     [A1 + 0xE], [0x00000210 /* BootDrive */]
0000500A  4A78 03F6                tst.w      [0x000003F6 /* FSFCBLen */]
0000500E  6D44                     blt        +0x46 /* 00005054 */
00005010  4269 000E                clr.w      [A1 + 0xE]
00005014  323C 003C                move.w     D1, 0x3C /* '<' */
label00005018:
00005018  4267                     clr.w      -[A7]
0000501A  51C9 FFFC                dbf        D1, -0x6 /* 00005018 */
0000501E  204F                     movea.l    A0, A7
00005020  3178 0A58 0018           move.w     [A0 + 0x18], [0x00000A58 /* SysMap */]
00005026  7008                     moveq.l    D0, 0x08
00005028  A260                     syscall    FSDispatch/HFSDispatch, flags=2
0000502A  6624                     bne        +0x26 /* 00005050 */
0000502C  3168 0034 0016           move.w     [A0 + 0x16], [A0 + 0x34]
00005032  A207                     syscall    GetVolInfo/PBHGetVInfo/HGetVInfo, flags=2
00005034  661A                     bne        +0x1C /* 00005050 */
00005036  2168 005A 0030           move.l     [A0 + 0x30], [A0 + 0x5A]
0000503C  217C 4552 494B 001C      move.l     [A0 + 0x1C], 0x4552494B /* 'ERIK' */
00005044  7001                     moveq.l    D0, 0x01
00005046  A260                     syscall    FSDispatch/HFSDispatch, flags=2
00005048  6606                     bne        +0x8 /* 00005050 */
0000504A  3368 0016 000E           move.w     [A1 + 0xE], [A0 + 0x16]
label00005050:
00005050  DEFC 007A                add.w      A7, 0x7A /* 'z' */
label00005054:
00005054  2049                     movea.l    A0, A1
00005056  225F                     movea.l    A1, [A7]+
00005058  5C4F                     addq.w     A7, 6
0000505A  3EBC EA84                move.w     [A7], 0xEA84
0000505E  4ED1                     jmp        [A1]
fn00005060:
00005060  4E75                     rts
fn00005062:
00005062  226F 0004                movea.l    A1, [A7 + 0x4]
00005066  4878 0001                push.l     0x1
0000506A  486D FF44                pea.l      [A5 - 0xBC]
0000506E  486D FF40                pea.l      [A5 - 0xC0]
00005072  486D FF3C                pea.l      [A5 - 0xC4]
00005076  2F09                     move.l     -[A7], A1
00005078  4EBA EA2C                jsr        [PC - 0x15D4 /* 00003AA6 */]
0000507C  4FEF 0014                lea.l      A7, [A7 + 0x14]
00005080  4EBA 012E                jsr        [PC + 0x12E /* 000051B0 */]
00005084  4E75                     rts
fn00005086:
00005086  42A7                     clr.l      -[A7]
00005088  4EBA EBFE                jsr        [PC - 0x1402 /* 00003C88 */]
fn0000508C:
0000508C  42A7                     clr.l      -[A7]
0000508E  4EBA EBF8                jsr        [PC - 0x1408 /* 00003C88 */]
export_145:
00005092  4E56 FFF4                link       A6, -0x000C
00005096  486E FFF4                pea.l      [A6 - 0xC]
0000509A  3F3C 0017                move.w     -[A7], 0x17
0000509E  A9EB                     syscall    Pack4/FP68K
000050A0  3F3C 6000                move.w     -[A7], 0x6000 /* '`\0' */
000050A4  4857                     pea.l      [A7]
000050A6  3F3C 0001                move.w     -[A7], 0x1
000050AA  A9EB                     syscall    Pack4/FP68K
000050AC  548F                     addq.l     A7, 2
000050AE  41EE FFF6                lea.l      A0, [A6 - 0xA]
000050B2  226E 0008                movea.l    A1, [A6 + 0x8]
000050B6  20D9                     move.l     [A0]+, [A1]+
000050B8  20D9                     move.l     [A0]+, [A1]+
000050BA  3091                     move.w     [A0], [A1]
000050BC  5188                     subq.l     A0, 8
000050BE  43EE 000C                lea.l      A1, [A6 + 0xC]
000050C2  613E                     bsr        +0x40 /* 00005102 */
000050C4  3F3C 0004                move.w     -[A7], 0x4
000050C8  4857                     pea.l      [A7]
000050CA  3F3C 001B                move.w     -[A7], 0x1B
000050CE  A9EB                     syscall    Pack4/FP68K
000050D0  101F                     move.b     D0, [A7]+
000050D2  671C                     beq        +0x1E /* 000050F0 */
000050D4  7200                     moveq.l    D1, 0x00
000050D6  0890 0007                bclr.b     [A0], 0x7
000050DA  6704                     beq        +0x6 /* 000050E0 */
000050DC  123C 0080                move.b     D1, 0x80
label000050E0:
000050E0  487A 002C                pea.l      [PC + 0x2C /* 0000510E, value 0x3F000000 '?\0\0\0', cstring "?" */]
000050E4  4850                     pea.l      [A0]
000050E6  3F3C 1000                move.w     -[A7], 0x1000
000050EA  A9EB                     syscall    Pack4/FP68K
000050EC  8310                     or.b       [A0], D1
000050EE  6112                     bsr        +0x14 /* 00005102 */
label000050F0:
000050F0  486E FFF4                pea.l      [A6 - 0xC]
000050F4  3F3C 0019                move.w     -[A7], 0x19
000050F8  A9EB                     syscall    Pack4/FP68K
000050FA  4E5E                     unlink     A6
000050FC  205F                     movea.l    A0, [A7]+
000050FE  584F                     addq.w     A7, 4
00005100  4ED0                     jmp        [A0]
fn00005102:
00005102  4850                     pea.l      [A0]
00005104  4851                     pea.l      [A1]
00005106  3F3C 2810                move.w     -[A7], 0x2810
0000510A  A9EB                     syscall    Pack4/FP68K
0000510C  4E75                     rts
0000510E  3F00                     move.w     -[A7], D0
00005110  0000 4CD7                ori.b      D0, 0xD7
// begin alternate branch 00005112-00005116
fn00005112:
00005112  4CD7 0301                movem.l    D0,A0,A1, [A7]
// end alternate branch 00005112-00005116
fn00005112: // (misaligned)
00005114  0301                     btst       D1, D1
00005116  2F00                     move.l     -[A7], D0
00005118  486F 0010                pea.l      [A7 + 0x10]
0000511C  48E7 00C0                movem.l    -[A7], A0,A1
00005120  7003                     moveq.l    D0, 0x03
label00005122:
00005122  3F00                     move.w     -[A7], D0
00005124  A9EE                     syscall    Pack7/DecStr68K
00005126  2057                     movea.l    A0, [A7]
00005128  DEFC 0014                add.w      A7, 0x14
0000512C  4ED0                     jmp        [A0]
export_146:
0000512E  4CEF 0303 0004           movem.l    D0,D1,A0,A1, [A7 + 0x4]
00005134  48E7 C0C0                movem.l    -[A7], D0,D1,A0,A1
00005138  7002                     moveq.l    D0, 0x02
0000513A  60E6                     bra        -0x18 /* 00005122 */
0000513C  4CEF 0303 0004           movem.l    D0,D1,A0,A1, [A7 + 0x4]
00005142  48E7 C0C0                movem.l    -[A7], D0,D1,A0,A1
00005146  7004                     moveq.l    D0, 0x04
00005148  60D8                     bra        -0x26 /* 00005122 */
export_147:
0000514A  4CDF 0303                movem.l    D0,D1,A0,A1, [A7]+
0000514E  2F00                     move.l     -[A7], D0
00005150  4E56 FFE2                link       A6, -0x001E
00005154  2D49 FFFC                move.l     [A6 - 0x4], A1
label00005158:
00005158  486E FFFC                pea.l      [A6 - 0x4]
0000515C  2F08                     move.l     -[A7], A0
0000515E  486E FFE2                pea.l      [A6 - 0x1E]
00005162  3F3C 000B                move.w     -[A7], 0xB
00005166  A9EB                     syscall    Pack4/FP68K
00005168  0C6E 013F FFE6           cmpi.w     [A6 - 0x1A], 0x13F
0000516E  6608                     bne        +0xA /* 00005178 */
00005170  7013                     moveq.l    D0, 0x13
00005172  2D40 FFFC                move.l     [A6 - 0x4], D0
00005176  60E0                     bra        -0x1E /* 00005158 */
label00005178:
00005178  2F09                     move.l     -[A7], A1
0000517A  486E FFE2                pea.l      [A6 - 0x1E]
0000517E  2F01                     move.l     -[A7], D1
00005180  4EBA FF90                jsr        [PC - 0x70 /* 00005112 */]
00005184  4E5E                     unlink     A6
00005186  4E75                     rts
export_148:
00005188  7018                     moveq.l    D0, 0x18
0000518A  600E                     bra        +0x10 /* 0000519A */
export_152:
0000518C  701A                     moveq.l    D0, 0x1A
0000518E  600A                     bra        +0xC /* 0000519A */
export_151:
00005190  701E                     moveq.l    D0, 0x1E
00005192  6006                     bra        +0x8 /* 0000519A */
export_150:
00005194  7000                     moveq.l    D0, 0x00
00005196  6002                     bra        +0x4 /* 0000519A */
export_149:
00005198  7008                     moveq.l    D0, 0x08
label0000519A:
0000519A  4CDF 0102                movem.l    D1,A0, [A7]+
0000519E  2257                     movea.l    A1, [A7]
000051A0  2F09                     move.l     -[A7], A1
000051A2  22D8                     move.l     [A1]+, [A0]+
000051A4  22D8                     move.l     [A1]+, [A0]+
000051A6  3290                     move.w     [A1], [A0]
000051A8  2041                     movea.l    A0, D1
000051AA  3F00                     move.w     -[A7], D0
000051AC  A9EC                     syscall    Pack5/Elems68K
000051AE  4ED0                     jmp        [A0]
fn000051B0:
000051B0  4E56 0000                link       A6, 0
000051B4  2B7C 0000 1388 FF6E      move.l     [A5 - 0x92], 0x1388
000051BC  422D FF69                clr.b      [A5 - 0x97]
000051C0  422D FF68                clr.b      [A5 - 0x98]
000051C4  7000                     moveq.l    D0, 0x00
000051C6  2B40 FF62                move.l     [A5 - 0x9E], D0
000051CA  7000                     moveq.l    D0, 0x00
000051CC  2B40 FF5E                move.l     [A5 - 0xA2], D0
000051D0  7000                     moveq.l    D0, 0x00
000051D2  2B40 FF52                move.l     [A5 - 0xAE], D0
000051D6  7000                     moveq.l    D0, 0x00
000051D8  2B40 FF4E                move.l     [A5 - 0xB2], D0
000051DC  1B7C 0001 FF4D           move.b     [A5 - 0xB3], 0x1
000051E2  4E5E                     unlink     A6
000051E4  4E75                     rts
000051E6  A549 4E49 5448 4541      dc.b       "%INITHEA"
000051EE  0000 2F00                ori.b      D0, 0x0
// begin alternate branch 000051F0-000051F2
export_153:
fn000051F0:
000051F0  2F00                     move.l     -[A7], D0
// end alternate branch 000051F0-000051F2
export_153: // at 000051F0 (misaligned)
fn000051F0: // (misaligned)
000051F2  2F01                     move.l     -[A7], D1
000051F4  302F 0010                move.w     D0, [A7 + 0x10]
000051F8  C1EF 000E                muls.w     D0, [A7 + 0xE]
000051FC  322F 000C                move.w     D1, [A7 + 0xC]
00005200  C3EF 0012                muls.w     D1, [A7 + 0x12]
00005204  D041                     add.w      D0, D1
00005206  4840                     swap.w     D0
00005208  4240                     clr.w      D0
0000520A  322F 0012                move.w     D1, [A7 + 0x12]
0000520E  C2EF 000E                mulu.w     D1, [A7 + 0xE]
00005212  D081                     add.l      D0, D1
00005214  2F40 0010                move.l     [A7 + 0x10], D0
00005218  221F                     move.l     D1, [A7]+
0000521A  201F                     move.l     D0, [A7]+
0000521C  2F57 0004                move.l     [A7 + 0x4], [A7]
00005220  588F                     addq.l     A7, 4
00005222  4E75                     rts
export_154:
00005224  4E56 0000                link       A6, 0
00005228  2F00                     move.l     -[A7], D0
0000522A  2F01                     move.l     -[A7], D1
0000522C  202F 0014                move.l     D0, [A7 + 0x14]
00005230  222F 0010                move.l     D1, [A7 + 0x10]
00005234  4EBA 003A                jsr        [PC + 0x3A /* 00005270 */]
00005238  2F41 0014                move.l     [A7 + 0x14], D1
0000523C  221F                     move.l     D1, [A7]+
0000523E  201F                     move.l     D0, [A7]+
00005240  4E5E                     unlink     A6
00005242  2F57 0004                move.l     [A7 + 0x4], [A7]
00005246  588F                     addq.l     A7, 4
00005248  4E75                     rts
export_155:
0000524A  4E56 0000                link       A6, 0
0000524E  2F00                     move.l     -[A7], D0
00005250  2F01                     move.l     -[A7], D1
00005252  202F 0014                move.l     D0, [A7 + 0x14]
00005256  222F 0010                move.l     D1, [A7 + 0x10]
0000525A  4EBA 0014                jsr        [PC + 0x14 /* 00005270 */]
0000525E  2F40 0014                move.l     [A7 + 0x14], D0
00005262  221F                     move.l     D1, [A7]+
00005264  201F                     move.l     D0, [A7]+
00005266  4E5E                     unlink     A6
00005268  2F57 0004                move.l     [A7 + 0x4], [A7]
0000526C  588F                     addq.l     A7, 4
0000526E  4E75                     rts
fn00005270:
00005270  48E7 3E00                movem.l    -[A7], D2,D3,D4,D5,D6
00005274  2A00                     move.l     D5, D0
00005276  6A02                     bpl        +0x4 /* 0000527A */
00005278  4480                     neg.l      D0
label0000527A:
0000527A  2C01                     move.l     D6, D1
0000527C  6A02                     bpl        +0x4 /* 00005280 */
0000527E  4481                     neg.l      D1
label00005280:
00005280  2401                     move.l     D2, D1
00005282  4842                     swap.w     D2
00005284  4A42                     tst.w      D2
00005286  661C                     bne        +0x1E /* 000052A4 */
00005288  3600                     move.w     D3, D0
0000528A  4240                     clr.w      D0
0000528C  4840                     swap.w     D0
0000528E  6704                     beq        +0x6 /* 00005294 */
00005290  80C1                     divu.w     D0, D1
00005292  3400                     move.w     D2, D0
label00005294:
00005294  4842                     swap.w     D2
00005296  3003                     move.w     D0, D3
00005298  80C1                     divu.w     D0, D1
0000529A  3400                     move.w     D2, D0
0000529C  2202                     move.l     D1, D2
0000529E  4240                     clr.w      D0
000052A0  4840                     swap.w     D0
000052A2  601C                     bra        +0x1E /* 000052C0 */
label000052A4:
000052A4  2400                     move.l     D2, D0
000052A6  2601                     move.l     D3, D1
000052A8  7000                     moveq.l    D0, 0x00
000052AA  7200                     moveq.l    D1, 0x00
000052AC  781F                     moveq.l    D4, 0x1F
label000052AE:
000052AE  D482                     add.l      D2, D2
000052B0  D180                     addx.l     D0, D0
000052B2  D281                     add.l      D1, D1
000052B4  B083                     cmp.l      D0, D3
000052B6  6D04                     blt        +0x6 /* 000052BC */
000052B8  9083                     sub.l      D0, D3
000052BA  5201                     addq.b     D1, 1
label000052BC:
000052BC  51CC FFF0                dbf        D4, -0x12 /* 000052AE */
label000052C0:
000052C0  4A85                     tst.l      D5
000052C2  6A02                     bpl        +0x4 /* 000052C6 */
000052C4  4480                     neg.l      D0
label000052C6:
000052C6  BB86                     xor.l      D6, D5
000052C8  6A02                     bpl        +0x4 /* 000052CC */
000052CA  4481                     neg.l      D1
label000052CC:
000052CC  4CDF 007C                movem.l    D2,D3,D4,D5,D6, [A7]+
000052D0  4E75                     rts
export_156:
000052D2  48E7 E0F0                movem.l    -[A7], D0,D1,D2,A0,A1,A2,A3
000052D6  206F 0020                movea.l    A0, [A7 + 0x20]
000052DA  4240                     clr.w      D0
000052DC  1018                     move.b     D0, [A0]+
000052DE  226F 0024                movea.l    A1, [A7 + 0x24]
000052E2  4242                     clr.w      D2
000052E4  1419                     move.b     D2, [A1]+
000052E6  9042                     sub.w      D0, D2
000052E8  6C04                     bge        +0x6 /* 000052EE */
000052EA  4241                     clr.w      D1
000052EC  6020                     bra        +0x22 /* 0000530E */
label000052EE:
000052EE  5342                     subq.w     D2, 1
label000052F0:
000052F0  2448                     movea.l    A2, A0
000052F2  2649                     movea.l    A3, A1
000052F4  3202                     move.w     D1, D2
label000052F6:
000052F6  B50B                     cmpm.b     [A2]+, [A3]+
000052F8  56C9 FFFC                dbne       D1, -0x6 /* 000052F6 */
000052FC  670A                     beq        +0xC /* 00005308 */
000052FE  5288                     addq.l     A0, 1
00005300  51C8 FFEE                dbf        D0, -0x14 /* 000052F0 */
00005304  4241                     clr.w      D1
00005306  6006                     bra        +0x8 /* 0000530E */
label00005308:
00005308  2208                     move.l     D1, A0
0000530A  92AF 0020                sub.l      D1, [A7 + 0x20]
label0000530E:
0000530E  3F41 0026                move.w     [A7 + 0x26], D1
00005312  4CDF 0F07                movem.l    D0,D1,D2,A0,A1,A2,A3, [A7]+
00005316  2F57 0006                move.l     [A7 + 0x6], [A7]
0000531A  5C4F                     addq.w     A7, 6
0000531C  4E75                     rts
export_157:
fn0000531E:
0000531E  48E7 E0E0                movem.l    -[A7], D0,D1,D2,A0,A1,A2
00005322  43EF 001C                lea.l      A1, [A7 + 0x1C]
00005326  3019                     move.w     D0, [A1]+
00005328  2059                     movea.l    A0, [A1]+
0000532A  3400                     move.w     D2, D0
0000532C  D442                     add.w      D2, D2
0000532E  D442                     add.w      D2, D2
00005330  D2C2                     add.w      A1, D2
00005332  4241                     clr.w      D1
00005334  5248                     addq.w     A0, 1
00005336  6020                     bra        +0x22 /* 00005358 */
label00005338:
00005338  2461                     movea.l    A2, -[A1]
0000533A  4242                     clr.w      D2
0000533C  141A                     move.b     D2, [A2]+
0000533E  D242                     add.w      D1, D2
00005340  0C41 00FF                cmpi.w     D1, 0xFF
00005344  6F0E                     ble        +0x10 /* 00005354 */
00005346  0441 00FF                subi.w     D1, 0xFF
0000534A  9441                     sub.w      D2, D1
0000534C  323C 00FF                move.w     D1, 0xFF
00005350  6002                     bra        +0x4 /* 00005354 */
label00005352:
00005352  10DA                     move.b     [A0]+, [A2]+
label00005354:
00005354  51CA FFFC                dbf        D2, -0x6 /* 00005352 */
label00005358:
00005358  51C8 FFDE                dbf        D0, -0x24 /* 00005338 */
0000535C  2061                     movea.l    A0, -[A1]
0000535E  1081                     move.b     [A0], D1
00005360  3021                     move.w     D0, -[A1]
00005362  2049                     movea.l    A0, A1
00005364  D040                     add.w      D0, D0
00005366  D040                     add.w      D0, D0
00005368  D0C0                     add.w      A0, D0
0000536A  5448                     addq.w     A0, 2
0000536C  20A1                     move.l     [A0], -[A1]
0000536E  2288                     move.l     [A1], A0
00005370  4CDF 0707                movem.l    D0,D1,D2,A0,A1,A2, [A7]+
00005374  2E5F                     movea.l    A7, [A7]+
00005376  4E75                     rts
export_158:
fn00005378:
00005378  48E7 E0C0                movem.l    -[A7], D0,D1,D2,A0,A1
0000537C  43EF 0018                lea.l      A1, [A7 + 0x18]
00005380  2059                     movea.l    A0, [A1]+
00005382  3019                     move.w     D0, [A1]+
00005384  6F36                     ble        +0x38 /* 000053BC */
00005386  0C40 00FF                cmpi.w     D0, 0xFF
0000538A  6E30                     bgt        +0x32 /* 000053BC */
0000538C  3219                     move.w     D1, [A1]+
0000538E  6F2C                     ble        +0x2E /* 000053BC */
00005390  0C41 00FF                cmpi.w     D1, 0xFF
00005394  6E26                     bgt        +0x28 /* 000053BC */
00005396  5341                     subq.w     D1, 1
00005398  2251                     movea.l    A1, [A1]
0000539A  4242                     clr.w      D2
0000539C  1419                     move.b     D2, [A1]+
0000539E  9441                     sub.w      D2, D1
000053A0  9440                     sub.w      D2, D0
000053A2  6D18                     blt        +0x1A /* 000053BC */
000053A4  D2C1                     add.w      A1, D1
000053A6  10C0                     move.b     [A0]+, D0
000053A8  5340                     subq.w     D0, 1
label000053AA:
000053AA  10D9                     move.b     [A0]+, [A1]+
000053AC  51C8 FFFC                dbf        D0, -0x6 /* 000053AA */
label000053B0:
000053B0  4CDF 0307                movem.l    D0,D1,D2,A0,A1, [A7]+
000053B4  2F5F 0008                move.l     [A7 + 0x8], [A7]+
000053B8  504F                     addq.w     A7, 8
000053BA  4E75                     rts
label000053BC:
000053BC  4210                     clr.b      [A0]
000053BE  60F0                     bra        -0xE /* 000053B0 */
export_159:
000053C0  225F                     movea.l    A1, [A7]+
000053C2  301F                     move.w     D0, [A7]+
000053C4  321F                     move.w     D1, [A7]+
000053C6  205F                     movea.l    A0, [A7]+
000053C8  6F0C                     ble        +0xE /* 000053D6 */
000053CA  4A40                     tst.w      D0
000053CC  6F08                     ble        +0xA /* 000053D6 */
000053CE  4242                     clr.w      D2
000053D0  1410                     move.b     D2, [A0]
000053D2  B441                     cmp.w      D2, D1
000053D4  6C02                     bge        +0x4 /* 000053D8 */
label000053D6:
000053D6  4ED1                     jmp        [A1]
label000053D8:
000053D8  9441                     sub.w      D2, D1
000053DA  9440                     sub.w      D2, D0
000053DC  6C06                     bge        +0x8 /* 000053E4 */
000053DE  5341                     subq.w     D1, 1
000053E0  1081                     move.b     [A0], D1
000053E2  4ED1                     jmp        [A1]
label000053E4:
000053E4  2F09                     move.l     -[A7], A1
000053E6  9110                     sub.b      [A0], D0
000053E8  D0C1                     add.w      A0, D1
000053EA  2248                     movea.l    A1, A0
000053EC  D2C0                     add.w      A1, D0
label000053EE:
000053EE  10D9                     move.b     [A0]+, [A1]+
000053F0  51CA FFFC                dbf        D2, -0x6 /* 000053EE */
000053F4  4E75                     rts
export_160:
000053F6  221F                     move.l     D1, [A7]+
000053F8  301F                     move.w     D0, [A7]+
000053FA  225F                     movea.l    A1, [A7]+
000053FC  205F                     movea.l    A0, [A7]+
000053FE  5340                     subq.w     D0, 1
00005400  6D08                     blt        +0xA /* 0000540A */
00005402  4242                     clr.w      D2
00005404  1411                     move.b     D2, [A1]
00005406  B440                     cmp.w      D2, D0
00005408  6C04                     bge        +0x6 /* 0000540E */
label0000540A:
0000540A  2041                     movea.l    A0, D1
0000540C  4ED0                     jmp        [A0]
label0000540E:
0000540E  2F01                     move.l     -[A7], D1
00005410  2F0A                     move.l     -[A7], A2
00005412  3F03                     move.w     -[A7], D3
00005414  4241                     clr.w      D1
00005416  1218                     move.b     D1, [A0]+
00005418  3601                     move.w     D3, D1
0000541A  D642                     add.w      D3, D2
0000541C  12C3                     move.b     [A1]+, D3
0000541E  2449                     movea.l    A2, A1
00005420  D4C3                     add.w      A2, D3
00005422  D2C2                     add.w      A1, D2
00005424  9440                     sub.w      D2, D0
00005426  6002                     bra        +0x4 /* 0000542A */
label00005428:
00005428  1521                     move.b     -[A2], -[A1]
label0000542A:
0000542A  51CA FFFC                dbf        D2, -0x6 /* 00005428 */
0000542E  6002                     bra        +0x4 /* 00005432 */
label00005430:
00005430  12D8                     move.b     [A1]+, [A0]+
label00005432:
00005432  51C9 FFFC                dbf        D1, -0x6 /* 00005430 */
00005436  361F                     move.w     D3, [A7]+
00005438  245F                     movea.l    A2, [A7]+
0000543A  4E75                     rts
export_161:
0000543C  48E7 C0C0                movem.l    -[A7], D0,D1,A0,A1
00005440  7201                     moveq.l    D1, 0x01
00005442  6006                     bra        +0x8 /* 0000544A */
export_162:
00005444  48E7 C0C0                movem.l    -[A7], D0,D1,A0,A1
00005448  4241                     clr.w      D1
label0000544A:
0000544A  206F 0018                movea.l    A0, [A7 + 0x18]
0000544E  226F 0014                movea.l    A1, [A7 + 0x14]
00005452  4240                     clr.w      D0
00005454  1010                     move.b     D0, [A0]
label00005456:
00005456  B308                     cmpm.b     [A1]+, [A0]+
00005458  56C8 FFFC                dbne       D0, -0x6 /* 00005456 */
0000545C  6604                     bne        +0x6 /* 00005462 */
0000545E  0A41 0001                xori.w     D1, 0x1
label00005462:
00005462  1F41 001A                move.b     [A7 + 0x1A], D1
00005466  2F6F 0010 0016           move.l     [A7 + 0x16], [A7 + 0x10]
0000546C  4CDF 0303                movem.l    D0,D1,A0,A1, [A7]+
00005470  5C4F                     addq.w     A7, 6
00005472  4E75                     rts
