# near model CODE resource
# jump table entries: 29642-29656 (15 of them)
00000000  0000 73CA                ori.b      D0, 0xCA
00000004  0000 2E8A                ori.b      D0, 0x8A
00000008  4E56 0000                link       A6, 0
0000000C  48E7 1020                movem.l    -[A7], D3,A2
00000010  246E 000C                movea.l    A2, [A6 + 0xC]
00000014  7601                     moveq.l    D3, 0x01
label00000016:
00000016  3543 005E                move.w     [A2 + 0x5E], D3
0000001A  256E 0008 0072           move.l     [A2 + 0x72], [A6 + 0x8]
00000020  41EA 0042                lea.l      A0, [A2 + 0x42]
00000024  7009                     moveq.l    D0, 0x09
00000026  A260                     syscall    FSDispatch/HFSDispatch, flags=2
00000028  3480                     move.w     [A2], D0
0000002A  4A52                     tst.w      [A2]
0000002C  6600 00D0                bne        +0xD2 /* 000000FE */
00000030  102A 0060                move.b     D0, [A2 + 0x60]
00000034  0240 0010                andi.w     D0, 0x10
00000038  671C                     beq        +0x1E /* 00000056 */
0000003A  2F0A                     move.l     -[A7], A2
0000003C  2F2A 0072                move.l     -[A7], [A2 + 0x72]
00000040  4EB9 0000 000C           jsr        [0x0000000C /* __m68k_vec_address_error__ */]
00000046  4252                     clr.w      [A2]
00000048  206D 56D0                movea.l    A0, [A5 + 0x56D0]
0000004C  52A8 0010                addq.l     [A0 + 0x10], 1
00000050  504F                     addq.w     A7, 8
00000052  6000 00AA                bra        +0xAC /* 000000FE */
label00000056:
00000056  202A 0078                move.l     D0, [A2 + 0x78]
0000005A  0280 0000 01FF           andi.l     D0, 0x1FF
00000060  660A                     bne        +0xC /* 0000006C */
00000062  202A 0078                move.l     D0, [A2 + 0x78]
00000066  7209                     moveq.l    D1, 0x09
00000068  E2A8                     lsr        D0, D1
0000006A  600A                     bra        +0xC /* 00000076 */
label0000006C:
0000006C  202A 0078                move.l     D0, [A2 + 0x78]
00000070  7209                     moveq.l    D1, 0x09
00000072  E2A8                     lsr        D0, D1
00000074  5280                     addq.l     D0, 1
label00000076:
00000076  3540 00B2                move.w     [A2 + 0xB2], D0
0000007A  7000                     moveq.l    D0, 0x00
0000007C  302A 00B2                move.w     D0, [A2 + 0xB2]
00000080  80EA 00AE                divu.w     D0, [A2 + 0xAE]
00000084  4840                     swap.w     D0
00000086  4A40                     tst.w      D0
00000088  660C                     bne        +0xE /* 00000096 */
0000008A  7000                     moveq.l    D0, 0x00
0000008C  302A 00B2                move.w     D0, [A2 + 0xB2]
00000090  80EA 00AE                divu.w     D0, [A2 + 0xAE]
00000094  600C                     bra        +0xE /* 000000A2 */
label00000096:
00000096  7000                     moveq.l    D0, 0x00
00000098  302A 00B2                move.w     D0, [A2 + 0xB2]
0000009C  80EA 00AE                divu.w     D0, [A2 + 0xAE]
000000A0  5240                     addq.w     D0, 1
label000000A2:
000000A2  D16A 00B0                add.w      [A2 + 0xB0], D0
000000A6  202A 0082                move.l     D0, [A2 + 0x82]
000000AA  0280 0000 01FF           andi.l     D0, 0x1FF
000000B0  660A                     bne        +0xC /* 000000BC */
000000B2  202A 0082                move.l     D0, [A2 + 0x82]
000000B6  7209                     moveq.l    D1, 0x09
000000B8  E2A8                     lsr        D0, D1
000000BA  600A                     bra        +0xC /* 000000C6 */
label000000BC:
000000BC  202A 0082                move.l     D0, [A2 + 0x82]
000000C0  7209                     moveq.l    D1, 0x09
000000C2  E2A8                     lsr        D0, D1
000000C4  5280                     addq.l     D0, 1
label000000C6:
000000C6  3540 00B2                move.w     [A2 + 0xB2], D0
000000CA  7000                     moveq.l    D0, 0x00
000000CC  302A 00B2                move.w     D0, [A2 + 0xB2]
000000D0  80EA 00AE                divu.w     D0, [A2 + 0xAE]
000000D4  4840                     swap.w     D0
000000D6  4A40                     tst.w      D0
000000D8  660C                     bne        +0xE /* 000000E6 */
000000DA  7000                     moveq.l    D0, 0x00
000000DC  302A 00B2                move.w     D0, [A2 + 0xB2]
000000E0  80EA 00AE                divu.w     D0, [A2 + 0xAE]
000000E4  600C                     bra        +0xE /* 000000F2 */
label000000E6:
000000E6  7000                     moveq.l    D0, 0x00
000000E8  302A 00B2                move.w     D0, [A2 + 0xB2]
000000EC  80EA 00AE                divu.w     D0, [A2 + 0xAE]
000000F0  5240                     addq.w     D0, 1
label000000F2:
000000F2  D16A 00B0                add.w      [A2 + 0xB0], D0
000000F6  206D 56D0                movea.l    A0, [A5 + 0x56D0]
000000FA  52A8 0008                addq.l     [A0 + 0x8], 1
label000000FE:
000000FE  5243                     addq.w     D3, 1
00000100  4A52                     tst.w      [A2]
00000102  6700 FF12                beq        -0xEC /* 00000016 */
00000106  4CDF 0408                movem.l    D3,A2, [A7]+
0000010A  4E5E                     unlink     A6
0000010C  4E75                     rts
0000010E  4E56 FED0                link       A6, -0x0130
00000112  2F03                     move.l     -[A7], D3
00000114  3D6E 000E FEE8           move.w     [A6 - 0x118], [A6 + 0xE]
0000011A  42AE FEE4                clr.l      [A6 - 0x11C]
0000011E  426E FEEE                clr.w      [A6 - 0x112]
00000122  41EE FED2                lea.l      A0, [A6 - 0x12E]
00000126  A207                     syscall    GetVolInfo/PBHGetVInfo/HGetVInfo, flags=2
00000128  3600                     move.w     D3, D0
0000012A  4A43                     tst.w      D3
0000012C  6660                     bne        +0x62 /* 0000018E */
0000012E  3D6E FF10 FED0           move.w     [A6 - 0x130], [A6 - 0xF0]
00000134  202E FF02                move.l     D0, [A6 - 0xFE]
00000138  7209                     moveq.l    D1, 0x09
0000013A  E2A8                     lsr        D0, D1
0000013C  3D40 FFFA                move.w     [A6 - 0x6], D0
00000140  426E FFFC                clr.w      [A6 - 0x4]
00000144  41EE FF4C                lea.l      A0, [A6 - 0xB4]
00000148  5488                     addq.l     A0, 2
0000014A  2D48 FFA0                move.l     [A6 - 0x60], A0
0000014E  3D6E 0008 FFA4           move.w     [A6 - 0x5C], [A6 + 0x8]
00000154  486E FF4C                pea.l      [A6 - 0xB4]
00000158  2F2E 000A                move.l     -[A7], [A6 + 0xA]
0000015C  4EB9 0000 000C           jsr        [0x0000000C /* __m68k_vec_address_error__ */]
00000162  206D 56D0                movea.l    A0, [A5 + 0x56D0]
00000166  216E FF02 0014           move.l     [A0 + 0x14], [A6 - 0xFE]
0000016C  7000                     moveq.l    D0, 0x00
0000016E  302E FFFC                move.w     D0, [A6 - 0x4]
00000172  206D 56D0                movea.l    A0, [A5 + 0x56D0]
00000176  2080                     move.l     [A0], D0
00000178  302E FFFC                move.w     D0, [A6 - 0x4]
0000017C  B06E FED0                cmp.w      D0, [A6 - 0x130]
00000180  53C0                     sls        D0
00000182  4400                     neg.b      D0
00000184  4880                     ext.w      D0
00000186  206E 0010                movea.l    A0, [A6 + 0x10]
0000018A  1080                     move.b     [A0], D0
0000018C  504F                     addq.w     A7, 8
label0000018E:
0000018E  3003                     move.w     D0, D3
00000190  261F                     move.l     D3, [A7]+
00000192  4E5E                     unlink     A6
00000194  4E75                     rts
00000196  4E56 FFFC                link       A6, -0x0004
0000019A  48E7 1E20                movem.l    -[A7], D3,D4,D5,D6,A2
0000019E  2C2E 0008                move.l     D6, [A6 + 0x8]
000001A2  282E 000C                move.l     D4, [A6 + 0xC]
000001A6  246E 0010                movea.l    A2, [A6 + 0x10]
000001AA  7A01                     moveq.l    D5, 0x01
label000001AC:
000001AC  3545 006E                move.w     [A2 + 0x6E], D5
000001B0  2546 0082                move.l     [A2 + 0x82], D6
000001B4  41EA 0052                lea.l      A0, [A2 + 0x52]
000001B8  7009                     moveq.l    D0, 0x09
000001BA  A260                     syscall    FSDispatch/HFSDispatch, flags=2
000001BC  3540 000C                move.w     [A2 + 0xC], D0
000001C0  4A6A 000C                tst.w      [A2 + 0xC]
000001C4  6600 016A                bne        +0x16C /* 00000330 */
000001C8  102A 0070                move.b     D0, [A2 + 0x70]
000001CC  0240 0010                andi.w     D0, 0x10
000001D0  6700 00F8                beq        +0xFA /* 000002CA */
000001D4  554F                     subq.w     A7, 2
000001D6  3F2A 0010                move.w     -[A7], [A2 + 0x10]
000001DA  2F04                     move.l     -[A7], D4
000001DC  486A 0012                pea.l      [A2 + 0x12]
000001E0  486E FFFC                pea.l      [A6 - 0x4]
000001E4  4EB9 0000 7BAA           jsr        [0x00007BAA]
000001EA  301F                     move.w     D0, [A7]+
000001EC  3540 000C                move.w     [A2 + 0xC], D0
000001F0  4A6A 000C                tst.w      [A2 + 0xC]
000001F4  6600 009E                bne        +0xA0 /* 00000294 */
000001F8  262A 0082                move.l     D3, [A2 + 0x82]
000001FC  2F0A                     move.l     -[A7], A2
000001FE  2F2E FFFC                move.l     -[A7], [A6 - 0x4]
00000202  2F2A 0082                move.l     -[A7], [A2 + 0x82]
00000206  4EB9 0000 019A           jsr        [0x0000019A]
0000020C  4A2A 000E                tst.b      [A2 + 0xE]
00000210  4FEF 000C                lea.l      A7, [A7 + 0xC]
00000214  661C                     bne        +0x1E /* 00000232 */
00000216  554F                     subq.w     A7, 2
00000218  3F2A 0068                move.w     -[A7], [A2 + 0x68]
0000021C  2F03                     move.l     -[A7], D3
0000021E  42A7                     clr.l      -[A7]
00000220  3F2A 0010                move.w     -[A7], [A2 + 0x10]
00000224  2F2E FFFC                move.l     -[A7], [A6 - 0x4]
00000228  42A7                     clr.l      -[A7]
0000022A  4EB9 0000 0F7E           jsr        [0x00000F7E]
00000230  301F                     move.w     D0, [A7]+
label00000232:
00000232  4A2A 000E                tst.b      [A2 + 0xE]
00000236  6600 008A                bne        +0x8C /* 000002C2 */
0000023A  554F                     subq.w     A7, 2
0000023C  3F2A 0068                move.w     -[A7], [A2 + 0x68]
00000240  2F03                     move.l     -[A7], D3
00000242  42A7                     clr.l      -[A7]
00000244  3F2A 0010                move.w     -[A7], [A2 + 0x10]
00000248  2F2E FFFC                move.l     -[A7], [A6 - 0x4]
0000024C  42A7                     clr.l      -[A7]
0000024E  1F3C 0001                move.b     -[A7], 0x1
00000252  4EB9 0000 11FA           jsr        [0x000011FA]
00000258  301F                     move.w     D0, [A7]+
0000025A  3540 000C                move.w     [A2 + 0xC], D0
0000025E  4A6A 000C                tst.w      [A2 + 0xC]
00000262  675E                     beq        +0x60 /* 000002C2 */
00000264  4AAA 0008                tst.l      [A2 + 0x8]
00000268  6758                     beq        +0x5A /* 000002C2 */
0000026A  554F                     subq.w     A7, 2
0000026C  3F2A 000C                move.w     -[A7], [A2 + 0xC]
00000270  3F3C 0004                move.w     -[A7], 0x4
00000274  3F2A 0068                move.w     -[A7], [A2 + 0x68]
00000278  2F03                     move.l     -[A7], D3
0000027A  42A7                     clr.l      -[A7]
0000027C  3F2A 0010                move.w     -[A7], [A2 + 0x10]
00000280  2F2E FFFC                move.l     -[A7], [A6 - 0x4]
00000284  42A7                     clr.l      -[A7]
00000286  206A 0008                movea.l    A0, [A2 + 0x8]
0000028A  4E90                     jsr        [A0]
0000028C  101F                     move.b     D0, [A7]+
0000028E  1540 000E                move.b     [A2 + 0xE], D0
00000292  602E                     bra        +0x30 /* 000002C2 */
label00000294:
00000294  4AAA 0008                tst.l      [A2 + 0x8]
00000298  6728                     beq        +0x2A /* 000002C2 */
0000029A  554F                     subq.w     A7, 2
0000029C  3F2A 000C                move.w     -[A7], [A2 + 0xC]
000002A0  3F3C 0005                move.w     -[A7], 0x5
000002A4  3F2A 0068                move.w     -[A7], [A2 + 0x68]
000002A8  2F03                     move.l     -[A7], D3
000002AA  42A7                     clr.l      -[A7]
000002AC  3F2A 0010                move.w     -[A7], [A2 + 0x10]
000002B0  2F04                     move.l     -[A7], D4
000002B2  486A 0012                pea.l      [A2 + 0x12]
000002B6  206A 0008                movea.l    A0, [A2 + 0x8]
000002BA  4E90                     jsr        [A0]
000002BC  101F                     move.b     D0, [A7]+
000002BE  1540 000E                move.b     [A2 + 0xE], D0
label000002C2:
000002C2  426A 000C                clr.w      [A2 + 0xC]
000002C6  6000 009A                bra        +0x9C /* 00000362 */
label000002CA:
000002CA  554F                     subq.w     A7, 2
000002CC  3F2A 0068                move.w     -[A7], [A2 + 0x68]
000002D0  2F2A 00B6                move.l     -[A7], [A2 + 0xB6]
000002D4  486A 0012                pea.l      [A2 + 0x12]
000002D8  3F2A 0010                move.w     -[A7], [A2 + 0x10]
000002DC  2F04                     move.l     -[A7], D4
000002DE  42A7                     clr.l      -[A7]
000002E0  42A7                     clr.l      -[A7]
000002E2  2F12                     move.l     -[A7], [A2]
000002E4  2F2A 0004                move.l     -[A7], [A2 + 0x4]
000002E8  1F3C 0001                move.b     -[A7], 0x1
000002EC  4EB9 0000 07AA           jsr        [0x000007AA]
000002F2  301F                     move.w     D0, [A7]+
000002F4  3540 000C                move.w     [A2 + 0xC], D0
000002F8  4A6A 000C                tst.w      [A2 + 0xC]
000002FC  6764                     beq        +0x66 /* 00000362 */
000002FE  4AAA 0008                tst.l      [A2 + 0x8]
00000302  675E                     beq        +0x60 /* 00000362 */
00000304  554F                     subq.w     A7, 2
00000306  3F2A 000C                move.w     -[A7], [A2 + 0xC]
0000030A  3F3C 0006                move.w     -[A7], 0x6
0000030E  3F2A 0068                move.w     -[A7], [A2 + 0x68]
00000312  2F2A 00B6                move.l     -[A7], [A2 + 0xB6]
00000316  486A 0012                pea.l      [A2 + 0x12]
0000031A  3F2A 0010                move.w     -[A7], [A2 + 0x10]
0000031E  2F04                     move.l     -[A7], D4
00000320  42A7                     clr.l      -[A7]
00000322  206A 0008                movea.l    A0, [A2 + 0x8]
00000326  4E90                     jsr        [A0]
00000328  101F                     move.b     D0, [A7]+
0000032A  1540 000E                move.b     [A2 + 0xE], D0
0000032E  6032                     bra        +0x34 /* 00000362 */
label00000330:
00000330  0C6A FFD5 000C           cmpi.w     [A2 + 0xC], 0xFFD5
00000336  672A                     beq        +0x2C /* 00000362 */
00000338  4AAA 0008                tst.l      [A2 + 0x8]
0000033C  6724                     beq        +0x26 /* 00000362 */
0000033E  554F                     subq.w     A7, 2
00000340  3F2A 000C                move.w     -[A7], [A2 + 0xC]
00000344  3F3C 0001                move.w     -[A7], 0x1
00000348  3F2A 0068                move.w     -[A7], [A2 + 0x68]
0000034C  2F06                     move.l     -[A7], D6
0000034E  42A7                     clr.l      -[A7]
00000350  4267                     clr.w      -[A7]
00000352  42A7                     clr.l      -[A7]
00000354  42A7                     clr.l      -[A7]
00000356  206A 0008                movea.l    A0, [A2 + 0x8]
0000035A  4E90                     jsr        [A0]
0000035C  101F                     move.b     D0, [A7]+
0000035E  1540 000E                move.b     [A2 + 0xE], D0
label00000362:
00000362  5245                     addq.w     D5, 1
00000364  4A6A 000C                tst.w      [A2 + 0xC]
00000368  6608                     bne        +0xA /* 00000372 */
0000036A  4A2A 000E                tst.b      [A2 + 0xE]
0000036E  6700 FE3C                beq        -0x1C2 /* 000001AC */
label00000372:
00000372  206D 56D0                movea.l    A0, [A5 + 0x56D0]
00000376  53A8 0010                subq.l     [A0 + 0x10], 1
0000037A  4CDF 0478                movem.l    D3,D4,D5,D6,A2, [A7]+
0000037E  4E5E                     unlink     A6
00000380  4E75                     rts
00000382  4E56 FEFE                link       A6, -0x0102
00000386  48E7 1E38                movem.l    -[A7], D3,D4,D5,D6,A2,A3,A4
0000038A  2C2E 0020                move.l     D6, [A6 + 0x20]
0000038E  286E 0016                movea.l    A4, [A6 + 0x16]
00000392  246E 0012                movea.l    A2, [A6 + 0x12]
00000396  282E 000E                move.l     D4, [A6 + 0xE]
0000039A  266E 0008                movea.l    A3, [A6 + 0x8]
0000039E  7A00                     moveq.l    D5, 0x00
000003A0  200A                     move.l     D0, A2
000003A2  662C                     bne        +0x2E /* 000003D0 */
000003A4  283C 0000 4000           move.l     D4, 0x4000 /* '@\0' */
000003AA  2004                     move.l     D0, D4
000003AC  A11E                     syscall    NewPtr, flags=1
000003AE  2448                     movea.l    A2, A0
000003B0  200A                     move.l     D0, A2
000003B2  661A                     bne        +0x1C /* 000003CE */
000003B4  283C 0000 0200           move.l     D4, 0x200
000003BA  2004                     move.l     D0, D4
000003BC  A11E                     syscall    NewPtr, flags=1
000003BE  2448                     movea.l    A2, A0
000003C0  200A                     move.l     D0, A2
000003C2  660A                     bne        +0xC /* 000003CE */
000003C4  3F7C FF94 0148           move.w     [A7 + 0x148], 0xFF94
000003CA  6000 01D4                bra        +0x1D6 /* 000005A0 */
label000003CE:
000003CE  7A01                     moveq.l    D5, 0x01
label000003D0:
000003D0  554F                     subq.w     A7, 2
000003D2  3F2E 0028                move.w     -[A7], [A6 + 0x28]
000003D6  2F2E 0024                move.l     -[A7], [A6 + 0x24]
000003DA  2F06                     move.l     -[A7], D6
000003DC  486E 0024                pea.l      [A6 + 0x24]
000003E0  486E FF41                pea.l      [A6 - 0xBF]
000003E4  4EB9 0000 1162           jsr        [0x00001162]
000003EA  301F                     move.w     D0, [A7]+
000003EC  3600                     move.w     D3, D0
000003EE  4A43                     tst.w      D3
000003F0  6600 01A2                bne        +0x1A4 /* 00000594 */
000003F4  4A2E FF41                tst.b      [A6 - 0xBF]
000003F8  6606                     bne        +0x8 /* 00000400 */
000003FA  7688                     moveq.l    D3, 0xFFFFFF88
000003FC  6000 0196                bra        +0x198 /* 00000594 */
label00000400:
00000400  554F                     subq.w     A7, 2
00000402  3F2E 001E                move.w     -[A7], [A6 + 0x1E]
00000406  2F2E 001A                move.l     -[A7], [A6 + 0x1A]
0000040A  2F0C                     move.l     -[A7], A4
0000040C  486E 001A                pea.l      [A6 + 0x1A]
00000410  486E FF41                pea.l      [A6 - 0xBF]
00000414  4EB9 0000 1162           jsr        [0x00001162]
0000041A  301F                     move.w     D0, [A7]+
0000041C  3600                     move.w     D3, D0
0000041E  4A43                     tst.w      D3
00000420  6600 0172                bne        +0x174 /* 00000594 */
00000424  4A2E FF41                tst.b      [A6 - 0xBF]
00000428  6606                     bne        +0x8 /* 00000430 */
0000042A  7688                     moveq.l    D3, 0xFFFFFF88
0000042C  6000 0166                bra        +0x168 /* 00000594 */
label00000430:
00000430  554F                     subq.w     A7, 2
00000432  2F06                     move.l     -[A7], D6
00000434  3F2E 0028                move.w     -[A7], [A6 + 0x28]
00000438  486E 0028                pea.l      [A6 + 0x28]
0000043C  4EB9 0000 108E           jsr        [0x0000108E]
00000442  301F                     move.w     D0, [A7]+
00000444  3600                     move.w     D3, D0
00000446  4A43                     tst.w      D3
00000448  6600 014A                bne        +0x14C /* 00000594 */
0000044C  554F                     subq.w     A7, 2
0000044E  2F0C                     move.l     -[A7], A4
00000450  3F2E 001E                move.w     -[A7], [A6 + 0x1E]
00000454  486E 001E                pea.l      [A6 + 0x1E]
00000458  4EB9 0000 108E           jsr        [0x0000108E]
0000045E  301F                     move.w     D0, [A7]+
00000460  3600                     move.w     D3, D0
00000462  4A43                     tst.w      D3
00000464  6600 012E                bne        +0x130 /* 00000594 */
00000468  4A2E 000C                tst.b      [A6 + 0xC]
0000046C  672E                     beq        +0x30 /* 0000049C */
0000046E  486E FEFF                pea.l      [A6 - 0x101]
00000472  3F2E 001E                move.w     -[A7], [A6 + 0x1E]
00000476  2F2E 0024                move.l     -[A7], [A6 + 0x24]
0000047A  3F2E 0028                move.w     -[A7], [A6 + 0x28]
0000047E  4EB9 0000 0112           jsr        [0x00000112]
00000484  3600                     move.w     D3, D0
00000486  4A43                     tst.w      D3
00000488  4FEF 000C                lea.l      A7, [A7 + 0xC]
0000048C  6600 0106                bne        +0x108 /* 00000594 */
00000490  4A2E FEFF                tst.b      [A6 - 0x101]
00000494  6606                     bne        +0x8 /* 0000049C */
00000496  76DE                     moveq.l    D3, 0xFFFFFFDE
00000498  6000 00FA                bra        +0xFC /* 00000594 */
label0000049C:
0000049C  554F                     subq.w     A7, 2
0000049E  3F2E 0028                move.w     -[A7], [A6 + 0x28]
000004A2  2F2E 0024                move.l     -[A7], [A6 + 0x24]
000004A6  486E FF00                pea.l      [A6 - 0x100]
000004AA  4EB9 0000 11C8           jsr        [0x000011C8]
000004B0  301F                     move.w     D0, [A7]+
000004B2  3600                     move.w     D3, D0
000004B4  4A43                     tst.w      D3
000004B6  6600 00DC                bne        +0xDE /* 00000594 */
000004BA  554F                     subq.w     A7, 2
000004BC  3F2E 001E                move.w     -[A7], [A6 + 0x1E]
000004C0  2F2E 001A                move.l     -[A7], [A6 + 0x1A]
000004C4  486E FF00                pea.l      [A6 - 0x100]
000004C8  486E 001A                pea.l      [A6 + 0x1A]
000004CC  4EB9 0000 7BAA           jsr        [0x00007BAA]
000004D2  301F                     move.w     D0, [A7]+
000004D4  3600                     move.w     D3, D0
000004D6  4A43                     tst.w      D3
000004D8  6600 00BA                bne        +0xBC /* 00000594 */
000004DC  2D4A FF42                move.l     [A6 - 0xBE], A2
000004E0  2D44 FF46                move.l     [A6 - 0xBA], D4
000004E4  3D6E 001E FF52           move.w     [A6 - 0xAE], [A6 + 0x1E]
000004EA  41EE FF42                lea.l      A0, [A6 - 0xBE]
000004EE  41E8 0012                lea.l      A0, [A0 + 0x12]
000004F2  2D48 FFA6                move.l     [A6 - 0x5A], A0
000004F6  3D6E 0028 FFAA           move.w     [A6 - 0x56], [A6 + 0x28]
000004FC  2D4B FF4A                move.l     [A6 - 0xB6], A3
00000500  422E FF50                clr.b      [A6 - 0xB0]
00000504  486E FF42                pea.l      [A6 - 0xBE]
00000508  2F2E 001A                move.l     -[A7], [A6 + 0x1A]
0000050C  2F2E 0024                move.l     -[A7], [A6 + 0x24]
00000510  4EB9 0000 019A           jsr        [0x0000019A]
00000516  4A2E FF50                tst.b      [A6 - 0xB0]
0000051A  4FEF 000C                lea.l      A7, [A7 + 0xC]
0000051E  661E                     bne        +0x20 /* 0000053E */
00000520  554F                     subq.w     A7, 2
00000522  3F2E 0028                move.w     -[A7], [A6 + 0x28]
00000526  2F2E 0024                move.l     -[A7], [A6 + 0x24]
0000052A  42A7                     clr.l      -[A7]
0000052C  3F2E 001E                move.w     -[A7], [A6 + 0x1E]
00000530  2F2E 001A                move.l     -[A7], [A6 + 0x1A]
00000534  42A7                     clr.l      -[A7]
00000536  4EB9 0000 0F7E           jsr        [0x00000F7E]
0000053C  301F                     move.w     D0, [A7]+
label0000053E:
0000053E  4A2E FF50                tst.b      [A6 - 0xB0]
00000542  6650                     bne        +0x52 /* 00000594 */
00000544  554F                     subq.w     A7, 2
00000546  3F2E 0028                move.w     -[A7], [A6 + 0x28]
0000054A  2F2E 0024                move.l     -[A7], [A6 + 0x24]
0000054E  42A7                     clr.l      -[A7]
00000550  3F2E 001E                move.w     -[A7], [A6 + 0x1E]
00000554  2F2E 001A                move.l     -[A7], [A6 + 0x1A]
00000558  42A7                     clr.l      -[A7]
0000055A  1F3C 0001                move.b     -[A7], 0x1
0000055E  4EB9 0000 11FA           jsr        [0x000011FA]
00000564  301F                     move.w     D0, [A7]+
00000566  3600                     move.w     D3, D0
00000568  4A43                     tst.w      D3
0000056A  6728                     beq        +0x2A /* 00000594 */
0000056C  200B                     move.l     D0, A3
0000056E  6724                     beq        +0x26 /* 00000594 */
00000570  554F                     subq.w     A7, 2
00000572  3F03                     move.w     -[A7], D3
00000574  3F3C 0004                move.w     -[A7], 0x4
00000578  3F2E 0028                move.w     -[A7], [A6 + 0x28]
0000057C  2F2E 0024                move.l     -[A7], [A6 + 0x24]
00000580  42A7                     clr.l      -[A7]
00000582  3F2E 001E                move.w     -[A7], [A6 + 0x1E]
00000586  2F2E 001A                move.l     -[A7], [A6 + 0x1A]
0000058A  42A7                     clr.l      -[A7]
0000058C  4E93                     jsr        [A3]
0000058E  101F                     move.b     D0, [A7]+
00000590  1D40 FF50                move.b     [A6 - 0xB0], D0
label00000594:
00000594  4A05                     tst.b      D5
00000596  6704                     beq        +0x6 /* 0000059C */
00000598  204A                     movea.l    A0, A2
0000059A  A01F                     syscall    DisposPtr/DisposePtr
label0000059C:
0000059C  3F43 0148                move.w     [A7 + 0x148], D3
label000005A0:
000005A0  4CDF 1C78                movem.l    D3,D4,D5,D6,A2,A3,A4, [A7]+
000005A4  4E5E                     unlink     A6
000005A6  205F                     movea.l    A0, [A7]+
000005A8  4FEF 0022                lea.l      A7, [A7 + 0x22]
000005AC  4ED0                     jmp        [A0]
000005AE  4E56 FF92                link       A6, -0x006E
000005B2  2F0A                     move.l     -[A7], A2
000005B4  246E 000E                movea.l    A2, [A6 + 0xE]
000005B8  200A                     move.l     D0, A2
000005BA  670A                     beq        +0xC /* 000005C6 */
000005BC  4A12                     tst.b      [A2]
000005BE  6606                     bne        +0x8 /* 000005C6 */
000005C0  42AE FFA6                clr.l      [A6 - 0x5A]
000005C4  6004                     bra        +0x6 /* 000005CA */
label000005C6:
000005C6  2D4A FFA6                move.l     [A6 - 0x5A], A2
label000005CA:
000005CA  3D6E 0008 FFAA           move.w     [A6 - 0x56], [A6 + 0x8]
000005D0  2D6E 000A FFC4           move.l     [A6 - 0x3C], [A6 + 0xA]
000005D6  426E FFB0                clr.w      [A6 - 0x50]
000005DA  422E FFB3                clr.b      [A6 - 0x4D]
000005DE  41EE FF94                lea.l      A0, [A6 - 0x6C]
000005E2  7009                     moveq.l    D0, 0x09
000005E4  A260                     syscall    FSDispatch/HFSDispatch, flags=2
000005E6  3D40 FF92                move.w     [A6 - 0x6E], D0
000005EA  206E 0012                movea.l    A0, [A6 + 0x12]
000005EE  20AE FFC4                move.l     [A0], [A6 - 0x3C]
000005F2  102E FFB2                move.b     D0, [A6 - 0x4E]
000005F6  0240 0010                andi.w     D0, 0x10
000005FA  56C0                     sne        D0
000005FC  4400                     neg.b      D0
000005FE  4880                     ext.w      D0
00000600  206E 0016                movea.l    A0, [A6 + 0x16]
00000604  1080                     move.b     [A0], D0
00000606  102E FFB3                move.b     D0, [A6 - 0x4D]
0000060A  0240 0007                andi.w     D0, 0x7
0000060E  5740                     subq.w     D0, 3
00000610  57C0                     seq        D0
00000612  4400                     neg.b      D0
00000614  4880                     ext.w      D0
00000616  206E 001A                movea.l    A0, [A6 + 0x1A]
0000061A  1080                     move.b     [A0], D0
0000061C  302E FF92                move.w     D0, [A6 - 0x6E]
00000620  245F                     movea.l    A2, [A7]+
00000622  4E5E                     unlink     A6
00000624  4E75                     rts
00000626  4E56 FF86                link       A6, -0x007A
0000062A  2F03                     move.l     -[A7], D3
0000062C  2D6E 000E FF98           move.l     [A6 - 0x68], [A6 + 0xE]
00000632  3D6E 0008 FF9C           move.w     [A6 - 0x64], [A6 + 0x8]
00000638  422E FFA0                clr.b      [A6 - 0x60]
0000063C  2D6E 000A FFB6           move.l     [A6 - 0x4A], [A6 + 0xA]
00000642  426E FFA2                clr.w      [A6 - 0x5E]
00000646  41EE FF86                lea.l      A0, [A6 - 0x7A]
0000064A  A20C                     syscall    GetFileInfo/PBHGetFInfo/HGetFileInfo, flags=2
0000064C  3600                     move.w     D3, D0
0000064E  4A43                     tst.w      D3
00000650  6620                     bne        +0x22 /* 00000672 */
00000652  4AAE FFBC                tst.l      [A6 - 0x44]
00000656  56C0                     sne        D0
00000658  4400                     neg.b      D0
0000065A  4880                     ext.w      D0
0000065C  206E 0012                movea.l    A0, [A6 + 0x12]
00000660  1080                     move.b     [A0], D0
00000662  4AAE FFC6                tst.l      [A6 - 0x3A]
00000666  56C0                     sne        D0
00000668  4400                     neg.b      D0
0000066A  4880                     ext.w      D0
0000066C  206E 0016                movea.l    A0, [A6 + 0x16]
00000670  1080                     move.b     [A0], D0
label00000672:
00000672  3003                     move.w     D0, D3
00000674  261F                     move.l     D3, [A7]+
00000676  4E5E                     unlink     A6
00000678  4E75                     rts
0000067A  4E56 FE86                link       A6, -0x017A
0000067E  48E7 1F20                movem.l    -[A7], D3,D4,D5,D6,D7,A2
00000682  246E 0012                movea.l    A2, [A6 + 0x12]
00000686  3D6E 0016 FF9C           move.w     [A6 - 0x64], [A6 + 0x16]
0000068C  200A                     move.l     D0, A2
0000068E  660A                     bne        +0xC /* 0000069A */
00000690  42AE FF98                clr.l      [A6 - 0x68]
00000694  426E FFA2                clr.w      [A6 - 0x5E]
00000698  601E                     bra        +0x20 /* 000006B8 */
label0000069A:
0000069A  204A                     movea.l    A0, A2
0000069C  43EE FE86                lea.l      A1, [A6 - 0x17A]
000006A0  7000                     moveq.l    D0, 0x00
000006A2  1012                     move.b     D0, [A2]
000006A4  5240                     addq.w     D0, 1
000006A6  48C0                     ext.l      D0
000006A8  A22E                     syscall    BlockMove/BlockMoveData, flags=2
000006AA  41EE FE86                lea.l      A0, [A6 - 0x17A]
000006AE  2D48 FF98                move.l     [A6 - 0x68], A0
000006B2  3D7C FFFF FFA2           move.w     [A6 - 0x5E], 0xFFFF
label000006B8:
000006B8  41EE FF86                lea.l      A0, [A6 - 0x7A]
000006BC  A207                     syscall    GetVolInfo/PBHGetVInfo/HGetVInfo, flags=2
000006BE  3C00                     move.w     D6, D0
000006C0  4A46                     tst.w      D6
000006C2  6600 00D8                bne        +0xDA /* 0000079C */
000006C6  262E FFB6                move.l     D3, [A6 - 0x4A]
000006CA  7209                     moveq.l    D1, 0x09
000006CC  E2AB                     lsr        D3, D1
000006CE  3E2E FFC4                move.w     D7, [A6 - 0x3C]
000006D2  2D6E 000E FF98           move.l     [A6 - 0x68], [A6 + 0xE]
000006D8  3D6E 0008 FF9C           move.w     [A6 - 0x64], [A6 + 0x8]
000006DE  422E FFA0                clr.b      [A6 - 0x60]
000006E2  2D6E 000A FFB6           move.l     [A6 - 0x4A], [A6 + 0xA]
000006E8  426E FFA2                clr.w      [A6 - 0x5E]
000006EC  41EE FF86                lea.l      A0, [A6 - 0x7A]
000006F0  A20C                     syscall    GetFileInfo/PBHGetFInfo/HGetFileInfo, flags=2
000006F2  3C00                     move.w     D6, D0
000006F4  4A46                     tst.w      D6
000006F6  6600 00A4                bne        +0xA6 /* 0000079C */
000006FA  202E FFBC                move.l     D0, [A6 - 0x44]
000006FE  0280 0000 01FF           andi.l     D0, 0x1FF
00000704  660A                     bne        +0xC /* 00000710 */
00000706  202E FFBC                move.l     D0, [A6 - 0x44]
0000070A  7209                     moveq.l    D1, 0x09
0000070C  E2A8                     lsr        D0, D1
0000070E  600A                     bra        +0xC /* 0000071A */
label00000710:
00000710  202E FFBC                move.l     D0, [A6 - 0x44]
00000714  7209                     moveq.l    D1, 0x09
00000716  E2A8                     lsr        D0, D1
00000718  5280                     addq.l     D0, 1
label0000071A:
0000071A  3800                     move.w     D4, D0
0000071C  7000                     moveq.l    D0, 0x00
0000071E  3004                     move.w     D0, D4
00000720  80C3                     divu.w     D0, D3
00000722  4840                     swap.w     D0
00000724  4A40                     tst.w      D0
00000726  6608                     bne        +0xA /* 00000730 */
00000728  7000                     moveq.l    D0, 0x00
0000072A  3004                     move.w     D0, D4
0000072C  80C3                     divu.w     D0, D3
0000072E  6008                     bra        +0xA /* 00000738 */
label00000730:
00000730  7000                     moveq.l    D0, 0x00
00000732  3004                     move.w     D0, D4
00000734  80C3                     divu.w     D0, D3
00000736  5240                     addq.w     D0, 1
label00000738:
00000738  3800                     move.w     D4, D0
0000073A  202E FFC6                move.l     D0, [A6 - 0x3A]
0000073E  0280 0000 01FF           andi.l     D0, 0x1FF
00000744  660A                     bne        +0xC /* 00000750 */
00000746  202E FFC6                move.l     D0, [A6 - 0x3A]
0000074A  7209                     moveq.l    D1, 0x09
0000074C  E2A8                     lsr        D0, D1
0000074E  600A                     bra        +0xC /* 0000075A */
label00000750:
00000750  202E FFC6                move.l     D0, [A6 - 0x3A]
00000754  7209                     moveq.l    D1, 0x09
00000756  E2A8                     lsr        D0, D1
00000758  5280                     addq.l     D0, 1
label0000075A:
0000075A  3A00                     move.w     D5, D0
0000075C  7000                     moveq.l    D0, 0x00
0000075E  3005                     move.w     D0, D5
00000760  80C3                     divu.w     D0, D3
00000762  4840                     swap.w     D0
00000764  4A40                     tst.w      D0
00000766  6608                     bne        +0xA /* 00000770 */
00000768  7000                     moveq.l    D0, 0x00
0000076A  3005                     move.w     D0, D5
0000076C  80C3                     divu.w     D0, D3
0000076E  6008                     bra        +0xA /* 00000778 */
label00000770:
00000770  7000                     moveq.l    D0, 0x00
00000772  3005                     move.w     D0, D5
00000774  80C3                     divu.w     D0, D3
00000776  5240                     addq.w     D0, 1
label00000778:
00000778  3A00                     move.w     D5, D0
0000077A  3004                     move.w     D0, D4
0000077C  D045                     add.w      D0, D5
0000077E  7200                     moveq.l    D1, 0x00
00000780  3200                     move.w     D1, D0
00000782  206D 56D0                movea.l    A0, [A5 + 0x56D0]
00000786  D3A8 0004                add.l      [A0 + 0x4], D1
0000078A  3004                     move.w     D0, D4
0000078C  D045                     add.w      D0, D5
0000078E  B047                     cmp.w      D0, D7
00000790  53C0                     sls        D0
00000792  4400                     neg.b      D0
00000794  4880                     ext.w      D0
00000796  206E 0018                movea.l    A0, [A6 + 0x18]
0000079A  1080                     move.b     [A0], D0
label0000079C:
0000079C  3006                     move.w     D0, D6
0000079E  4CDF 04F8                movem.l    D3,D4,D5,D6,D7,A2, [A7]+
000007A2  4E5E                     unlink     A6
000007A4  4E75                     rts
000007A6  4E56 FF9A                link       A6, -0x0066
000007AA  48E7 1F38                movem.l    -[A7], D3,D4,D5,D6,D7,A2,A3,A4
000007AE  382E 0028                move.w     D4, [A6 + 0x28]
000007B2  2A2E 0024                move.l     D5, [A6 + 0x24]
000007B6  246E 0020                movea.l    A2, [A6 + 0x20]
000007BA  286E 0016                movea.l    A4, [A6 + 0x16]
000007BE  266E 000E                movea.l    A3, [A6 + 0xE]
000007C2  2C2E 000A                move.l     D6, [A6 + 0xA]
000007C6  426E FFFE                clr.w      [A6 - 0x2]
000007CA  426E FFBC                clr.w      [A6 - 0x44]
000007CE  426E FFBA                clr.w      [A6 - 0x46]
000007D2  422E FFA1                clr.b      [A6 - 0x5F]
000007D6  7E00                     moveq.l    D7, 0x00
000007D8  4A2E 0008                tst.b      [A6 + 0x8]
000007DC  6738                     beq        +0x3A /* 00000816 */
000007DE  486E FF9C                pea.l      [A6 - 0x64]
000007E2  3F2E 001E                move.w     -[A7], [A6 + 0x1E]
000007E6  2F0C                     move.l     -[A7], A4
000007E8  2F0A                     move.l     -[A7], A2
000007EA  2F05                     move.l     -[A7], D5
000007EC  3F04                     move.w     -[A7], D4
000007EE  4EB9 0000 067E           jsr        [0x0000067E]
000007F4  3600                     move.w     D3, D0
000007F6  4A43                     tst.w      D3
000007F8  4FEF 0014                lea.l      A7, [A7 + 0x14]
000007FC  6708                     beq        +0xA /* 00000806 */
000007FE  3F43 00B0                move.w     [A7 + 0xB0], D3
00000802  6000 041C                bra        +0x41E /* 00000C20 */
label00000806:
00000806  4A2E FF9C                tst.b      [A6 - 0x64]
0000080A  660A                     bne        +0xC /* 00000816 */
0000080C  3F7C FFDE 00B0           move.w     [A7 + 0xB0], 0xFFDE
00000812  6000 040C                bra        +0x40E /* 00000C20 */
label00000816:
00000816  486E FF9D                pea.l      [A6 - 0x63]
0000081A  486E FF9E                pea.l      [A6 - 0x62]
0000081E  486E 001A                pea.l      [A6 + 0x1A]
00000822  2F0C                     move.l     -[A7], A4
00000824  2F2E 001A                move.l     -[A7], [A6 + 0x1A]
00000828  3F2E 001E                move.w     -[A7], [A6 + 0x1E]
0000082C  4EB9 0000 05B2           jsr        [0x000005B2]
00000832  3600                     move.w     D3, D0
00000834  4A43                     tst.w      D3
00000836  4FEF 0016                lea.l      A7, [A7 + 0x16]
0000083A  6600 0380                bne        +0x382 /* 00000BBC */
0000083E  4A2E FF9E                tst.b      [A6 - 0x62]
00000842  660A                     bne        +0xC /* 0000084E */
00000844  3F7C FF88 00B0           move.w     [A7 + 0xB0], 0xFF88
0000084A  6000 03D4                bra        +0x3D6 /* 00000C20 */
label0000084E:
0000084E  554F                     subq.w     A7, 2
00000850  2F0C                     move.l     -[A7], A4
00000852  3F2E 001E                move.w     -[A7], [A6 + 0x1E]
00000856  486E 001E                pea.l      [A6 + 0x1E]
0000085A  4EB9 0000 108E           jsr        [0x0000108E]
00000860  301F                     move.w     D0, [A7]+
00000862  3600                     move.w     D3, D0
00000864  4A43                     tst.w      D3
00000866  6600 0354                bne        +0x356 /* 00000BBC */
0000086A  7014                     moveq.l    D0, 0x14
0000086C  2D40 FFA2                move.l     [A6 - 0x5E], D0
00000870  554F                     subq.w     A7, 2
00000872  2F0A                     move.l     -[A7], A2
00000874  3F04                     move.w     -[A7], D4
00000876  486E FFA6                pea.l      [A6 - 0x5A]
0000087A  486E FFA2                pea.l      [A6 - 0x5E]
0000087E  4EB9 0000 0FDA           jsr        [0x00000FDA]
00000884  301F                     move.w     D0, [A7]+
00000886  3600                     move.w     D3, D0
00000888  4A43                     tst.w      D3
0000088A  670E                     beq        +0x10 /* 0000089A */
0000088C  0C43 FFCE                cmpi.w     D3, 0xFFCE
00000890  6708                     beq        +0xA /* 0000089A */
00000892  3F43 00B0                move.w     [A7 + 0xB0], D3
00000896  6000 0388                bra        +0x38A /* 00000C20 */
label0000089A:
0000089A  0C43 FFCE                cmpi.w     D3, 0xFFCE
0000089E  6700 00A0                beq        +0xA2 /* 00000940 */
000008A2  202E FFA8                move.l     D0, [A6 - 0x58]
000008A6  0280 0000 4000           andi.l     D0, 0x4000 /* '@\0' */
000008AC  6700 0092                beq        +0x94 /* 00000940 */
000008B0  286E FFB0                movea.l    A4, [A6 - 0x50]
000008B4  7014                     moveq.l    D0, 0x14
000008B6  2D40 FFA2                move.l     [A6 - 0x5E], D0
000008BA  554F                     subq.w     A7, 2
000008BC  42A7                     clr.l      -[A7]
000008BE  3F2E 001E                move.w     -[A7], [A6 + 0x1E]
000008C2  486E FFA6                pea.l      [A6 - 0x5A]
000008C6  486E FFA2                pea.l      [A6 - 0x5E]
000008CA  4EB9 0000 0FDA           jsr        [0x00000FDA]
000008D0  301F                     move.w     D0, [A7]+
000008D2  3600                     move.w     D3, D0
000008D4  4A43                     tst.w      D3
000008D6  670E                     beq        +0x10 /* 000008E6 */
000008D8  0C43 FFCE                cmpi.w     D3, 0xFFCE
000008DC  6708                     beq        +0xA /* 000008E6 */
000008DE  3F43 00B0                move.w     [A7 + 0xB0], D3
000008E2  6000 033C                bra        +0x33E /* 00000C20 */
label000008E6:
000008E6  0C43 FFCE                cmpi.w     D3, 0xFFCE
000008EA  6754                     beq        +0x56 /* 00000940 */
000008EC  B9EE FFB0                cmpa.l     A4, [A6 - 0x50]
000008F0  664E                     bne        +0x50 /* 00000940 */
000008F2  554F                     subq.w     A7, 2
000008F4  3F04                     move.w     -[A7], D4
000008F6  2F05                     move.l     -[A7], D5
000008F8  2F0A                     move.l     -[A7], A2
000008FA  3F2E 001E                move.w     -[A7], [A6 + 0x1E]
000008FE  2F2E 001A                move.l     -[A7], [A6 + 0x1A]
00000902  42A7                     clr.l      -[A7]
00000904  2F2E 0012                move.l     -[A7], [A6 + 0x12]
00000908  4EB9 0000 104A           jsr        [0x0000104A]
0000090E  301F                     move.w     D0, [A7]+
00000910  3600                     move.w     D3, D0
00000912  4A43                     tst.w      D3
00000914  6600 02A6                bne        +0x2A8 /* 00000BBC */
00000918  554F                     subq.w     A7, 2
0000091A  3F04                     move.w     -[A7], D4
0000091C  2F05                     move.l     -[A7], D5
0000091E  2F0A                     move.l     -[A7], A2
00000920  3F2E 001E                move.w     -[A7], [A6 + 0x1E]
00000924  2F2E 001A                move.l     -[A7], [A6 + 0x1A]
00000928  486E 0012                pea.l      [A6 + 0x12]
0000092C  1F3C 0001                move.b     -[A7], 0x1
00000930  4EB9 0000 11FA           jsr        [0x000011FA]
00000936  301F                     move.w     D0, [A7]+
00000938  3F40 00B0                move.w     [A7 + 0xB0], D0
0000093C  6000 02E2                bra        +0x2E4 /* 00000C20 */
label00000940:
00000940  200B                     move.l     D0, A3
00000942  662C                     bne        +0x2E /* 00000970 */
00000944  2C3C 0000 4000           move.l     D6, 0x4000 /* '@\0' */
0000094A  2006                     move.l     D0, D6
0000094C  A11E                     syscall    NewPtr, flags=1
0000094E  2648                     movea.l    A3, A0
00000950  200B                     move.l     D0, A3
00000952  661A                     bne        +0x1C /* 0000096E */
00000954  2C3C 0000 0200           move.l     D6, 0x200
0000095A  2006                     move.l     D0, D6
0000095C  A11E                     syscall    NewPtr, flags=1
0000095E  2648                     movea.l    A3, A0
00000960  200B                     move.l     D0, A3
00000962  660A                     bne        +0xC /* 0000096E */
00000964  3F7C FF94 00B0           move.w     [A7 + 0xB0], 0xFF94
0000096A  6000 02B4                bra        +0x2B6 /* 00000C20 */
label0000096E:
0000096E  7E01                     moveq.l    D7, 0x01
label00000970:
00000970  554F                     subq.w     A7, 2
00000972  3F04                     move.w     -[A7], D4
00000974  2F05                     move.l     -[A7], D5
00000976  2F0A                     move.l     -[A7], A2
00000978  3F3C 0021                move.w     -[A7], 0x21 /* '!' */
0000097C  486E FFFE                pea.l      [A6 - 0x2]
00000980  4EB9 0000 12BA           jsr        [0x000012BA]
00000986  301F                     move.w     D0, [A7]+
00000988  3600                     move.w     D3, D0
0000098A  4A43                     tst.w      D3
0000098C  6600 022E                bne        +0x230 /* 00000BBC */
00000990  4AAE 0012                tst.l      [A6 + 0x12]
00000994  6718                     beq        +0x1A /* 000009AE */
00000996  206E 0012                movea.l    A0, [A6 + 0x12]
0000099A  7000                     moveq.l    D0, 0x00
0000099C  1010                     move.b     D0, [A0]
0000099E  5240                     addq.w     D0, 1
000009A0  48C0                     ext.l      D0
000009A2  206E 0012                movea.l    A0, [A6 + 0x12]
000009A6  43EE FFBE                lea.l      A1, [A6 - 0x42]
000009AA  A22E                     syscall    BlockMove/BlockMoveData, flags=2
000009AC  6022                     bra        +0x24 /* 000009D0 */
label000009AE:
000009AE  554F                     subq.w     A7, 2
000009B0  3F2E FFFE                move.w     -[A7], [A6 - 0x2]
000009B4  486E FF9A                pea.l      [A6 - 0x66]
000009B8  486E FFA2                pea.l      [A6 - 0x5E]
000009BC  486E FFBE                pea.l      [A6 - 0x42]
000009C0  4EB9 0000 15AE           jsr        [0x000015AE]
000009C6  301F                     move.w     D0, [A7]+
000009C8  3600                     move.w     D3, D0
000009CA  4A43                     tst.w      D3
000009CC  6600 01EE                bne        +0x1F0 /* 00000BBC */
label000009D0:
000009D0  554F                     subq.w     A7, 2
000009D2  3F2E 001E                move.w     -[A7], [A6 + 0x1E]
000009D6  2F2E 001A                move.l     -[A7], [A6 + 0x1A]
000009DA  486E FFBE                pea.l      [A6 - 0x42]
000009DE  4EB9 0000 101C           jsr        [0x0000101C]
000009E4  301F                     move.w     D0, [A7]+
000009E6  3600                     move.w     D3, D0
000009E8  4A43                     tst.w      D3
000009EA  6600 01D0                bne        +0x1D2 /* 00000BBC */
000009EE  1D7C 0001 FFA1           move.b     [A6 - 0x5F], 0x1
000009F4  4A2E FF9D                tst.b      [A6 - 0x63]
000009F8  6726                     beq        +0x28 /* 00000A20 */
000009FA  554F                     subq.w     A7, 2
000009FC  3F04                     move.w     -[A7], D4
000009FE  2F05                     move.l     -[A7], D5
00000A00  2F0A                     move.l     -[A7], A2
00000A02  3F2E 001E                move.w     -[A7], [A6 + 0x1E]
00000A06  2F2E 001A                move.l     -[A7], [A6 + 0x1A]
00000A0A  486E FFBE                pea.l      [A6 - 0x42]
00000A0E  4227                     clr.b      -[A7]
00000A10  4EB9 0000 11FA           jsr        [0x000011FA]
00000A16  301F                     move.w     D0, [A7]+
00000A18  3600                     move.w     D3, D0
00000A1A  4A43                     tst.w      D3
00000A1C  6600 019E                bne        +0x1A0 /* 00000BBC */
label00000A20:
00000A20  554F                     subq.w     A7, 2
00000A22  3F04                     move.w     -[A7], D4
00000A24  2F05                     move.l     -[A7], D5
00000A26  2F0A                     move.l     -[A7], A2
00000A28  3F2E 001E                move.w     -[A7], [A6 + 0x1E]
00000A2C  2F2E 001A                move.l     -[A7], [A6 + 0x1A]
00000A30  486E FFBE                pea.l      [A6 - 0x42]
00000A34  4EB9 0000 0F7E           jsr        [0x00000F7E]
00000A3A  301F                     move.w     D0, [A7]+
00000A3C  486E FF9F                pea.l      [A6 - 0x61]
00000A40  486E FFA0                pea.l      [A6 - 0x60]
00000A44  2F0A                     move.l     -[A7], A2
00000A46  2F05                     move.l     -[A7], D5
00000A48  3F04                     move.w     -[A7], D4
00000A4A  4EB9 0000 062A           jsr        [0x0000062A]
00000A50  3600                     move.w     D3, D0
00000A52  4A43                     tst.w      D3
00000A54  4FEF 0012                lea.l      A7, [A7 + 0x12]
00000A58  6600 0162                bne        +0x164 /* 00000BBC */
00000A5C  4A2E FFA0                tst.b      [A6 - 0x60]
00000A60  6726                     beq        +0x28 /* 00000A88 */
00000A62  554F                     subq.w     A7, 2
00000A64  3F2E 001E                move.w     -[A7], [A6 + 0x1E]
00000A68  2F2E 001A                move.l     -[A7], [A6 + 0x1A]
00000A6C  486E FFBE                pea.l      [A6 - 0x42]
00000A70  3F3C 0032                move.w     -[A7], 0x32 /* '2' */
00000A74  486E FFBC                pea.l      [A6 - 0x44]
00000A78  4EB9 0000 12BA           jsr        [0x000012BA]
00000A7E  301F                     move.w     D0, [A7]+
00000A80  3600                     move.w     D3, D0
00000A82  4A43                     tst.w      D3
00000A84  6600 0136                bne        +0x138 /* 00000BBC */
label00000A88:
00000A88  4A2E FF9F                tst.b      [A6 - 0x61]
00000A8C  6726                     beq        +0x28 /* 00000AB4 */
00000A8E  554F                     subq.w     A7, 2
00000A90  3F2E 001E                move.w     -[A7], [A6 + 0x1E]
00000A94  2F2E 001A                move.l     -[A7], [A6 + 0x1A]
00000A98  486E FFBE                pea.l      [A6 - 0x42]
00000A9C  3F3C 0032                move.w     -[A7], 0x32 /* '2' */
00000AA0  486E FFBA                pea.l      [A6 - 0x46]
00000AA4  4EB9 0000 13A8           jsr        [0x000013A8]
00000AAA  301F                     move.w     D0, [A7]+
00000AAC  3600                     move.w     D3, D0
00000AAE  4A43                     tst.w      D3
00000AB0  6600 010A                bne        +0x10C /* 00000BBC */
label00000AB4:
00000AB4  4A2E FFA0                tst.b      [A6 - 0x60]
00000AB8  6744                     beq        +0x46 /* 00000AFE */
00000ABA  554F                     subq.w     A7, 2
00000ABC  3F2E FFFE                move.w     -[A7], [A6 - 0x2]
00000AC0  3F2E FFBC                move.w     -[A7], [A6 - 0x44]
00000AC4  2F0B                     move.l     -[A7], A3
00000AC6  2F06                     move.l     -[A7], D6
00000AC8  4EB9 0000 1486           jsr        [0x00001486]
00000ACE  301F                     move.w     D0, [A7]+
00000AD0  3600                     move.w     D3, D0
00000AD2  4A43                     tst.w      D3
00000AD4  6600 00E6                bne        +0xE8 /* 00000BBC */
00000AD8  554F                     subq.w     A7, 2
00000ADA  3F2E FFFE                move.w     -[A7], [A6 - 0x2]
00000ADE  4EB9 0000 7B0A           jsr        [0x00007B0A]
00000AE4  301F                     move.w     D0, [A7]+
00000AE6  554F                     subq.w     A7, 2
00000AE8  3F2E FFBC                move.w     -[A7], [A6 - 0x44]
00000AEC  4EB9 0000 7B0A           jsr        [0x00007B0A]
00000AF2  301F                     move.w     D0, [A7]+
00000AF4  426E FFBC                clr.w      [A6 - 0x44]
00000AF8  426E FFFE                clr.w      [A6 - 0x2]
00000AFC  6012                     bra        +0x14 /* 00000B10 */
label00000AFE:
00000AFE  554F                     subq.w     A7, 2
00000B00  3F2E FFFE                move.w     -[A7], [A6 - 0x2]
00000B04  4EB9 0000 7B0A           jsr        [0x00007B0A]
00000B0A  301F                     move.w     D0, [A7]+
00000B0C  426E FFFE                clr.w      [A6 - 0x2]
label00000B10:
00000B10  4A2E FF9F                tst.b      [A6 - 0x61]
00000B14  6760                     beq        +0x62 /* 00000B76 */
00000B16  554F                     subq.w     A7, 2
00000B18  3F04                     move.w     -[A7], D4
00000B1A  2F05                     move.l     -[A7], D5
00000B1C  2F0A                     move.l     -[A7], A2
00000B1E  3F3C 0021                move.w     -[A7], 0x21 /* '!' */
00000B22  486E FFFE                pea.l      [A6 - 0x2]
00000B26  4EB9 0000 13A8           jsr        [0x000013A8]
00000B2C  301F                     move.w     D0, [A7]+
00000B2E  3600                     move.w     D3, D0
00000B30  4A43                     tst.w      D3
00000B32  6600 0088                bne        +0x8A /* 00000BBC */
00000B36  554F                     subq.w     A7, 2
00000B38  3F2E FFFE                move.w     -[A7], [A6 - 0x2]
00000B3C  3F2E FFBA                move.w     -[A7], [A6 - 0x46]
00000B40  2F0B                     move.l     -[A7], A3
00000B42  2F06                     move.l     -[A7], D6
00000B44  4EB9 0000 1486           jsr        [0x00001486]
00000B4A  301F                     move.w     D0, [A7]+
00000B4C  3600                     move.w     D3, D0
00000B4E  4A43                     tst.w      D3
00000B50  666A                     bne        +0x6C /* 00000BBC */
00000B52  554F                     subq.w     A7, 2
00000B54  3F2E FFFE                move.w     -[A7], [A6 - 0x2]
00000B58  4EB9 0000 7B0A           jsr        [0x00007B0A]
00000B5E  301F                     move.w     D0, [A7]+
00000B60  554F                     subq.w     A7, 2
00000B62  3F2E FFBA                move.w     -[A7], [A6 - 0x46]
00000B66  4EB9 0000 7B0A           jsr        [0x00007B0A]
00000B6C  301F                     move.w     D0, [A7]+
00000B6E  426E FFBA                clr.w      [A6 - 0x46]
00000B72  426E FFFE                clr.w      [A6 - 0x2]
label00000B76:
00000B76  4A07                     tst.b      D7
00000B78  6704                     beq        +0x6 /* 00000B7E */
00000B7A  204B                     movea.l    A0, A3
00000B7C  A01F                     syscall    DisposPtr/DisposePtr
label00000B7E:
00000B7E  554F                     subq.w     A7, 2
00000B80  3F04                     move.w     -[A7], D4
00000B82  2F05                     move.l     -[A7], D5
00000B84  2F0A                     move.l     -[A7], A2
00000B86  3F2E 001E                move.w     -[A7], [A6 + 0x1E]
00000B8A  2F2E 001A                move.l     -[A7], [A6 + 0x1A]
00000B8E  486E FFBE                pea.l      [A6 - 0x42]
00000B92  1F3C 0001                move.b     -[A7], 0x1
00000B96  4EB9 0000 11FA           jsr        [0x000011FA]
00000B9C  301F                     move.w     D0, [A7]+
00000B9E  2F0A                     move.l     -[A7], A2
00000BA0  206D 56D0                movea.l    A0, [A5 + 0x56D0]
00000BA4  4868 001C                pea.l      [A0 + 0x1C]
00000BA8  4EB9 0000 8102           jsr        [0x00008102]
00000BAE  4EB9 0000 197A           jsr        [0x0000197A]
00000BB4  426F 00B8                clr.w      [A7 + 0xB8]
00000BB8  504F                     addq.w     A7, 8
00000BBA  6064                     bra        +0x66 /* 00000C20 */
label00000BBC:
00000BBC  4A6E FFFE                tst.w      [A6 - 0x2]
00000BC0  670E                     beq        +0x10 /* 00000BD0 */
00000BC2  554F                     subq.w     A7, 2
00000BC4  3F2E FFFE                move.w     -[A7], [A6 - 0x2]
00000BC8  4EB9 0000 7B0A           jsr        [0x00007B0A]
00000BCE  301F                     move.w     D0, [A7]+
label00000BD0:
00000BD0  4A6E FFBC                tst.w      [A6 - 0x44]
00000BD4  670E                     beq        +0x10 /* 00000BE4 */
00000BD6  554F                     subq.w     A7, 2
00000BD8  3F2E FFBC                move.w     -[A7], [A6 - 0x44]
00000BDC  4EB9 0000 7B0A           jsr        [0x00007B0A]
00000BE2  301F                     move.w     D0, [A7]+
label00000BE4:
00000BE4  4A6E FFBA                tst.w      [A6 - 0x46]
00000BE8  670E                     beq        +0x10 /* 00000BF8 */
00000BEA  554F                     subq.w     A7, 2
00000BEC  3F2E FFBA                move.w     -[A7], [A6 - 0x46]
00000BF0  4EB9 0000 7B0A           jsr        [0x00007B0A]
00000BF6  301F                     move.w     D0, [A7]+
label00000BF8:
00000BF8  4A2E FFA1                tst.b      [A6 - 0x5F]
00000BFC  6716                     beq        +0x18 /* 00000C14 */
00000BFE  554F                     subq.w     A7, 2
00000C00  3F2E 001E                move.w     -[A7], [A6 + 0x1E]
00000C04  2F2E 001A                move.l     -[A7], [A6 + 0x1A]
00000C08  486E FFBE                pea.l      [A6 - 0x42]
00000C0C  4EB9 0000 7BB2           jsr        [0x00007BB2]
00000C12  301F                     move.w     D0, [A7]+
label00000C14:
00000C14  4A07                     tst.b      D7
00000C16  6704                     beq        +0x6 /* 00000C1C */
00000C18  204B                     movea.l    A0, A3
00000C1A  A01F                     syscall    DisposPtr/DisposePtr
label00000C1C:
00000C1C  3F43 00B0                move.w     [A7 + 0xB0], D3
label00000C20:
00000C20  4CDF 1CF8                movem.l    D3,D4,D5,D6,D7,A2,A3,A4, [A7]+
00000C24  4E5E                     unlink     A6
00000C26  205F                     movea.l    A0, [A7]+
00000C28  4FEF 0022                lea.l      A7, [A7 + 0x22]
00000C2C  4ED0                     jmp        [A0]
00000C2E  4E56 FF86                link       A6, -0x007A
00000C32  48E7 1C00                movem.l    -[A7], D3,D4,D5
00000C36  7A00                     moveq.l    D5, 0x00
00000C38  2D6E 000A FF98           move.l     [A6 - 0x68], [A6 + 0xA]
00000C3E  3D6E 0008 FF9C           move.w     [A6 - 0x64], [A6 + 0x8]
00000C44  422E FFA0                clr.b      [A6 - 0x60]
00000C48  7801                     moveq.l    D4, 0x01
label00000C4A:
00000C4A  7002                     moveq.l    D0, 0x02
00000C4C  2D40 FFB6                move.l     [A6 - 0x4A], D0
00000C50  3D44 FFA2                move.w     [A6 - 0x5E], D4
00000C54  41EE FF86                lea.l      A0, [A6 - 0x7A]
00000C58  A20C                     syscall    GetFileInfo/PBHGetFInfo/HGetFileInfo, flags=2
00000C5A  3600                     move.w     D3, D0
00000C5C  4A43                     tst.w      D3
00000C5E  6616                     bne        +0x18 /* 00000C76 */
00000C60  0CAE 464E 4452 FFA6      cmpi.l     [A6 - 0x5A], 0x464E4452 /* 'FNDR' */
00000C68  660C                     bne        +0xE /* 00000C76 */
00000C6A  0CAE 4552 494B FFAA      cmpi.l     [A6 - 0x56], 0x4552494B /* 'ERIK' */
00000C72  6602                     bne        +0x4 /* 00000C76 */
00000C74  7A01                     moveq.l    D5, 0x01
label00000C76:
00000C76  5244                     addq.w     D4, 1
00000C78  4A43                     tst.w      D3
00000C7A  6604                     bne        +0x6 /* 00000C80 */
00000C7C  4A05                     tst.b      D5
00000C7E  67CA                     beq        -0x34 /* 00000C4A */
label00000C80:
00000C80  3003                     move.w     D0, D3
00000C82  4CDF 0038                movem.l    D3,D4,D5, [A7]+
00000C86  4E5E                     unlink     A6
00000C88  4E75                     rts
00000C8A  4E56 FF80                link       A6, -0x0080
00000C8E  48E7 1830                movem.l    -[A7], D3,D4,A2,A3
00000C92  266E 0012                movea.l    A3, [A6 + 0x12]
00000C96  382E 0010                move.w     D4, [A6 + 0x10]
00000C9A  246E 0008                movea.l    A2, [A6 + 0x8]
00000C9E  7014                     moveq.l    D0, 0x14
00000CA0  2D40 FF80                move.l     [A6 - 0x80], D0
00000CA4  554F                     subq.w     A7, 2
00000CA6  2F0B                     move.l     -[A7], A3
00000CA8  3F04                     move.w     -[A7], D4
00000CAA  486E FF84                pea.l      [A6 - 0x7C]
00000CAE  486E FF80                pea.l      [A6 - 0x80]
00000CB2  4EB9 0000 0FDA           jsr        [0x00000FDA]
00000CB8  301F                     move.w     D0, [A7]+
00000CBA  3600                     move.w     D3, D0
00000CBC  4A43                     tst.w      D3
00000CBE  664A                     bne        +0x4C /* 00000D0A */
00000CC0  202E FF86                move.l     D0, [A6 - 0x7A]
00000CC4  0280 0000 1000           andi.l     D0, 0x1000
00000CCA  673C                     beq        +0x3E /* 00000D08 */
00000CCC  2D4B FFAA                move.l     [A6 - 0x56], A3
00000CD0  3D44 FFAE                move.w     [A6 - 0x52], D4
00000CD4  41EE FF98                lea.l      A0, [A6 - 0x68]
00000CD8  702E                     moveq.l    D0, 0x2E
00000CDA  A060                     syscall    FSDispatch/HFSDispatch
00000CDC  3600                     move.w     D3, D0
00000CDE  7001                     moveq.l    D0, 0x01
00000CE0  C0AE FFB4                and.l      D0, [A6 - 0x4C]
00000CE4  57C0                     seq        D0
00000CE6  4400                     neg.b      D0
00000CE8  4880                     ext.w      D0
00000CEA  1480                     move.b     [A2], D0
00000CEC  0C43 FFCE                cmpi.w     D3, 0xFFCE
00000CF0  660C                     bne        +0xE /* 00000CFE */
00000CF2  41EE FF98                lea.l      A0, [A6 - 0x68]
00000CF6  7020                     moveq.l    D0, 0x20
00000CF8  A260                     syscall    FSDispatch/HFSDispatch, flags=2
00000CFA  3600                     move.w     D3, D0
00000CFC  4212                     clr.b      [A2]
label00000CFE:
00000CFE  206E 000C                movea.l    A0, [A6 + 0xC]
00000D02  30AE FFB0                move.w     [A0], [A6 - 0x50]
00000D06  6002                     bra        +0x4 /* 00000D0A */
label00000D08:
00000D08  76CE                     moveq.l    D3, 0xFFFFFFCE
label00000D0A:
00000D0A  3F43 00A6                move.w     [A7 + 0xA6], D3
00000D0E  4CDF 0C18                movem.l    D3,D4,A2,A3, [A7]+
00000D12  4E5E                     unlink     A6
00000D14  205F                     movea.l    A0, [A7]+
00000D16  4FEF 000E                lea.l      A7, [A7 + 0xE]
00000D1A  4ED0                     jmp        [A0]
00000D1C  4E56 FF94                link       A6, -0x006C
00000D20  48E7 1030                movem.l    -[A7], D3,A2,A3
00000D24  266E 000C                movea.l    A3, [A6 + 0xC]
00000D28  246E 0008                movea.l    A2, [A6 + 0x8]
00000D2C  554F                     subq.w     A7, 2
00000D2E  2F0B                     move.l     -[A7], A3
00000D30  3F2E 0014                move.w     -[A7], [A6 + 0x14]
00000D34  486E FF96                pea.l      [A6 - 0x6A]
00000D38  486E FF95                pea.l      [A6 - 0x6B]
00000D3C  4EB9 0000 0C8E           jsr        [0x00000C8E]
00000D42  301F                     move.w     D0, [A7]+
00000D44  3600                     move.w     D3, D0
00000D46  4A43                     tst.w      D3
00000D48  663E                     bne        +0x40 /* 00000D88 */
00000D4A  3D6E FF96 FFB0           move.w     [A6 - 0x50], [A6 - 0x6A]
00000D50  2D4B FFAA                move.l     [A6 - 0x56], A3
00000D54  2D6E 0010 FFC8           move.l     [A6 - 0x38], [A6 + 0x10]
00000D5A  204A                     movea.l    A0, A2
00000D5C  5288                     addq.l     A0, 1
00000D5E  2D48 FFB8                move.l     [A6 - 0x48], A0
00000D62  7000                     moveq.l    D0, 0x00
00000D64  1012                     move.b     D0, [A2]
00000D66  0C40 00C8                cmpi.w     D0, 0xC8
00000D6A  6E0A                     bgt        +0xC /* 00000D76 */
00000D6C  7000                     moveq.l    D0, 0x00
00000D6E  1012                     move.b     D0, [A2]
00000D70  2D40 FFBC                move.l     [A6 - 0x44], D0
00000D74  6008                     bra        +0xA /* 00000D7E */
label00000D76:
00000D76  2D7C 0000 00C8 FFBC      move.l     [A6 - 0x44], 0xC8
label00000D7E:
00000D7E  41EE FF98                lea.l      A0, [A6 - 0x68]
00000D82  7028                     moveq.l    D0, 0x28
00000D84  A260                     syscall    FSDispatch/HFSDispatch, flags=2
00000D86  3600                     move.w     D3, D0
label00000D88:
00000D88  3F43 008E                move.w     [A7 + 0x8E], D3
00000D8C  4CDF 0C08                movem.l    D3,A2,A3, [A7]+
00000D90  4E5E                     unlink     A6
00000D92  205F                     movea.l    A0, [A7]+
00000D94  4FEF 000E                lea.l      A7, [A7 + 0xE]
00000D98  4ED0                     jmp        [A0]
00000D9A  4E56 FF92                link       A6, -0x006E
00000D9E  2F0A                     move.l     -[A7], A2
00000DA0  246E 000E                movea.l    A2, [A6 + 0xE]
00000DA4  200A                     move.l     D0, A2
00000DA6  670A                     beq        +0xC /* 00000DB2 */
00000DA8  4A12                     tst.b      [A2]
00000DAA  6606                     bne        +0x8 /* 00000DB2 */
00000DAC  42AE FFA6                clr.l      [A6 - 0x5A]
00000DB0  6004                     bra        +0x6 /* 00000DB6 */
label00000DB2:
00000DB2  2D4A FFA6                move.l     [A6 - 0x5A], A2
label00000DB6:
00000DB6  3D6E 0008 FFAA           move.w     [A6 - 0x56], [A6 + 0x8]
00000DBC  2D6E 000A FFC4           move.l     [A6 - 0x3C], [A6 + 0xA]
00000DC2  426E FFB0                clr.w      [A6 - 0x50]
00000DC6  41EE FF94                lea.l      A0, [A6 - 0x6C]
00000DCA  7009                     moveq.l    D0, 0x09
00000DCC  A260                     syscall    FSDispatch/HFSDispatch, flags=2
00000DCE  3D40 FF92                move.w     [A6 - 0x6E], D0
00000DD2  206E 0012                movea.l    A0, [A6 + 0x12]
00000DD6  30AE FFF2                move.w     [A0], [A6 - 0xE]
00000DDA  302E FF92                move.w     D0, [A6 - 0x6E]
00000DDE  245F                     movea.l    A2, [A7]+
00000DE0  4E5E                     unlink     A6
00000DE2  4E75                     rts
00000DE4  4E56 FEFC                link       A6, -0x0104
00000DE8  48E7 1C20                movem.l    -[A7], D3,D4,D5,A2
00000DEC  382E 0008                move.w     D4, [A6 + 0x8]
00000DF0  246E 000E                movea.l    A2, [A6 + 0xE]
00000DF4  486E FFFE                pea.l      [A6 - 0x2]
00000DF8  2F0A                     move.l     -[A7], A2
00000DFA  2F2E 000A                move.l     -[A7], [A6 + 0xA]
00000DFE  3F04                     move.w     -[A7], D4
00000E00  4EB9 0000 0D9E           jsr        [0x00000D9E]
00000E06  3600                     move.w     D3, D0
00000E08  4A43                     tst.w      D3
00000E0A  4FEF 000E                lea.l      A7, [A7 + 0xE]
00000E0E  6600 00CC                bne        +0xCE /* 00000EDC */
00000E12  4A6E FFFE                tst.w      [A6 - 0x2]
00000E16  6700 00C0                beq        +0xC2 /* 00000ED8 */
00000E1A  554F                     subq.w     A7, 2
00000E1C  2F0A                     move.l     -[A7], A2
00000E1E  3F04                     move.w     -[A7], D4
00000E20  486E FFFC                pea.l      [A6 - 0x4]
00000E24  4EB9 0000 108E           jsr        [0x0000108E]
00000E2A  301F                     move.w     D0, [A7]+
00000E2C  3600                     move.w     D3, D0
00000E2E  4A43                     tst.w      D3
00000E30  6600 00AA                bne        +0xAC /* 00000EDC */
00000E34  486E FEFC                pea.l      [A6 - 0x104]
00000E38  3F2E FFFC                move.w     -[A7], [A6 - 0x4]
00000E3C  4EB9 0000 0C32           jsr        [0x00000C32]
00000E42  3600                     move.w     D3, D0
00000E44  4A43                     tst.w      D3
00000E46  5C4F                     addq.w     A7, 6
00000E48  6600 0092                bne        +0x94 /* 00000EDC */
00000E4C  554F                     subq.w     A7, 2
00000E4E  A994                     syscall    CurResFile
00000E50  301F                     move.w     D0, [A7]+
00000E52  3A00                     move.w     D5, D0
00000E54  4227                     clr.b      -[A7]
00000E56  A99B                     syscall    SetResLoad
00000E58  554F                     subq.w     A7, 2
00000E5A  3F2E FFFC                move.w     -[A7], [A6 - 0x4]
00000E5E  4878 0002                push.l     0x2
00000E62  486E FEFC                pea.l      [A6 - 0x104]
00000E66  1F3C 0001                move.b     -[A7], 0x1
00000E6A  4EB9 0000 7BC2           jsr        [0x00007BC2]
00000E70  301F                     move.w     D0, [A7]+
00000E72  3800                     move.w     D4, D0
00000E74  1F3C 0001                move.b     -[A7], 0x1
00000E78  A99B                     syscall    SetResLoad
00000E7A  0C44 FFFF                cmpi.w     D4, 0xFFFF
00000E7E  674E                     beq        +0x50 /* 00000ECE */
00000E80  594F                     subq.w     A7, 4
00000E82  2F3C 4643 4D54           move.l     -[A7], 0x46434D54 /* 'FCMT' */
00000E88  3F2E FFFE                move.w     -[A7], [A6 - 0x2]
00000E8C  A81F                     syscall    Get1Resource
00000E8E  205F                     movea.l    A0, [A7]+
00000E90  2448                     movea.l    A2, A0
00000E92  200A                     move.l     D0, A2
00000E94  672A                     beq        +0x2C /* 00000EC0 */
00000E96  594F                     subq.w     A7, 4
00000E98  2F0A                     move.l     -[A7], A2
00000E9A  4EB9 0000 7AE2           jsr        [0x00007AE2]
00000EA0  201F                     move.l     D0, [A7]+
00000EA2  4A80                     tst.l      D0
00000EA4  6F14                     ble        +0x16 /* 00000EBA */
00000EA6  2052                     movea.l    A0, [A2]
00000EA8  7000                     moveq.l    D0, 0x00
00000EAA  1010                     move.b     D0, [A0]
00000EAC  5240                     addq.w     D0, 1
00000EAE  48C0                     ext.l      D0
00000EB0  2052                     movea.l    A0, [A2]
00000EB2  226E 0012                movea.l    A1, [A6 + 0x12]
00000EB6  A22E                     syscall    BlockMove/BlockMoveData, flags=2
00000EB8  600A                     bra        +0xC /* 00000EC4 */
label00000EBA:
00000EBA  363C EC6C                move.w     D3, 0xEC6C
00000EBE  6004                     bra        +0x6 /* 00000EC4 */
label00000EC0:
00000EC0  363C EC6C                move.w     D3, 0xEC6C
label00000EC4:
00000EC4  3F05                     move.w     -[A7], D5
00000EC6  A998                     syscall    UseResFile
00000EC8  3F04                     move.w     -[A7], D4
00000ECA  A99A                     syscall    CloseResFile
00000ECC  600E                     bra        +0x10 /* 00000EDC */
label00000ECE:
00000ECE  554F                     subq.w     A7, 2
00000ED0  A9AF                     syscall    ResError
00000ED2  301F                     move.w     D0, [A7]+
00000ED4  3600                     move.w     D3, D0
00000ED6  6004                     bra        +0x6 /* 00000EDC */
label00000ED8:
00000ED8  363C EC6C                move.w     D3, 0xEC6C
label00000EDC:
00000EDC  3003                     move.w     D0, D3
00000EDE  4CDF 0438                movem.l    D3,D4,D5,A2, [A7]+
00000EE2  4E5E                     unlink     A6
00000EE4  4E75                     rts
00000EE6  4E56 FF94                link       A6, -0x006C
00000EEA  48E7 1C30                movem.l    -[A7], D3,D4,D5,A2,A3
00000EEE  3A2E 0014                move.w     D5, [A6 + 0x14]
00000EF2  282E 0010                move.l     D4, [A6 + 0x10]
00000EF6  266E 000C                movea.l    A3, [A6 + 0xC]
00000EFA  246E 0008                movea.l    A2, [A6 + 0x8]
00000EFE  200A                     move.l     D0, A2
00000F00  6764                     beq        +0x66 /* 00000F66 */
00000F02  4212                     clr.b      [A2]
00000F04  554F                     subq.w     A7, 2
00000F06  2F0B                     move.l     -[A7], A3
00000F08  3F05                     move.w     -[A7], D5
00000F0A  486E FF96                pea.l      [A6 - 0x6A]
00000F0E  486E FF95                pea.l      [A6 - 0x6B]
00000F12  4EB9 0000 0C8E           jsr        [0x00000C8E]
00000F18  301F                     move.w     D0, [A7]+
00000F1A  3600                     move.w     D3, D0
00000F1C  4A43                     tst.w      D3
00000F1E  6630                     bne        +0x32 /* 00000F50 */
00000F20  4A2E FF95                tst.b      [A6 - 0x6B]
00000F24  6642                     bne        +0x44 /* 00000F68 */
00000F26  3D6E FF96 FFB0           move.w     [A6 - 0x50], [A6 - 0x6A]
00000F2C  2D4B FFAA                move.l     [A6 - 0x56], A3
00000F30  2D44 FFC8                move.l     [A6 - 0x38], D4
00000F34  204A                     movea.l    A0, A2
00000F36  5288                     addq.l     A0, 1
00000F38  2D48 FFB8                move.l     [A6 - 0x48], A0
00000F3C  41EE FF98                lea.l      A0, [A6 - 0x68]
00000F40  702A                     moveq.l    D0, 0x2A
00000F42  A260                     syscall    FSDispatch/HFSDispatch, flags=2
00000F44  3600                     move.w     D3, D0
00000F46  4A43                     tst.w      D3
00000F48  661E                     bne        +0x20 /* 00000F68 */
00000F4A  14AE FFC3                move.b     [A2], [A6 - 0x3D]
00000F4E  6018                     bra        +0x1A /* 00000F68 */
label00000F50:
00000F50  2F0A                     move.l     -[A7], A2
00000F52  2F0B                     move.l     -[A7], A3
00000F54  2F04                     move.l     -[A7], D4
00000F56  3F05                     move.w     -[A7], D5
00000F58  4EB9 0000 0DE8           jsr        [0x00000DE8 /* Warhol */]
00000F5E  3600                     move.w     D3, D0
00000F60  4FEF 000E                lea.l      A7, [A7 + 0xE]
00000F64  6002                     bra        +0x4 /* 00000F68 */
label00000F66:
00000F66  76CE                     moveq.l    D3, 0xFFFFFFCE
label00000F68:
00000F68  3F43 0096                move.w     [A7 + 0x96], D3
00000F6C  4CDF 0C38                movem.l    D3,D4,D5,A2,A3, [A7]+
00000F70  4E5E                     unlink     A6
00000F72  205F                     movea.l    A0, [A7]+
00000F74  4FEF 000E                lea.l      A7, [A7 + 0xE]
00000F78  4ED0                     jmp        [A0]
00000F7A  4E56 FF00                link       A6, -0x0100
00000F7E  2F03                     move.l     -[A7], D3
00000F80  554F                     subq.w     A7, 2
00000F82  3F2E 001A                move.w     -[A7], [A6 + 0x1A]
00000F86  2F2E 0016                move.l     -[A7], [A6 + 0x16]
00000F8A  2F2E 0012                move.l     -[A7], [A6 + 0x12]
00000F8E  486E FF00                pea.l      [A6 - 0x100]
00000F92  4EB9 0000 0EEA           jsr        [0x00000EEA]
00000F98  301F                     move.w     D0, [A7]+
00000F9A  3600                     move.w     D3, D0
00000F9C  4A43                     tst.w      D3
00000F9E  6626                     bne        +0x28 /* 00000FC6 */
00000FA0  7000                     moveq.l    D0, 0x00
00000FA2  102E FF00                move.b     D0, [A6 - 0x100]
00000FA6  4A40                     tst.w      D0
00000FA8  6F1C                     ble        +0x1E /* 00000FC6 */
00000FAA  554F                     subq.w     A7, 2
00000FAC  3F2E 0010                move.w     -[A7], [A6 + 0x10]
00000FB0  2F2E 000C                move.l     -[A7], [A6 + 0xC]
00000FB4  2F2E 0008                move.l     -[A7], [A6 + 0x8]
00000FB8  486E FF00                pea.l      [A6 - 0x100]
00000FBC  4EB9 0000 0D20           jsr        [0x00000D20 /* TableSeed */]
00000FC2  301F                     move.w     D0, [A7]+
00000FC4  3600                     move.w     D3, D0
label00000FC6:
00000FC6  3F43 0120                move.w     [A7 + 0x120], D3
00000FCA  261F                     move.l     D3, [A7]+
00000FCC  4E5E                     unlink     A6
00000FCE  205F                     movea.l    A0, [A7]+
00000FD0  4FEF 0014                lea.l      A7, [A7 + 0x14]
00000FD4  4ED0                     jmp        [A0]
00000FD6  4E56 FF84                link       A6, -0x007C
00000FDA  2D6E 0012 FF98           move.l     [A6 - 0x68], [A6 + 0x12]
00000FE0  3D6E 0010 FF9C           move.w     [A6 - 0x64], [A6 + 0x10]
00000FE6  2D6E 000C FFA6           move.l     [A6 - 0x5A], [A6 + 0xC]
00000FEC  206E 0008                movea.l    A0, [A6 + 0x8]
00000FF0  2D50 FFAA                move.l     [A6 - 0x56], [A0]
00000FF4  41EE FF86                lea.l      A0, [A6 - 0x7A]
00000FF8  7030                     moveq.l    D0, 0x30
00000FFA  A260                     syscall    FSDispatch/HFSDispatch, flags=2
00000FFC  3D40 FF84                move.w     [A6 - 0x7C], D0
00001000  206E 0008                movea.l    A0, [A6 + 0x8]
00001004  20AE FFAE                move.l     [A0], [A6 - 0x52]
00001008  3F6E FF84 0092           move.w     [A7 + 0x92], [A6 - 0x7C]
0000100E  4E5E                     unlink     A6
00001010  205F                     movea.l    A0, [A7]+
00001012  4FEF 000E                lea.l      A7, [A7 + 0xE]
00001016  4ED0                     jmp        [A0]
00001018  4E56 FF86                link       A6, -0x007A
0000101C  2D6E 0008 FF98           move.l     [A6 - 0x68], [A6 + 0x8]
00001022  3D6E 0010 FF9C           move.w     [A6 - 0x64], [A6 + 0x10]
00001028  422E FFA0                clr.b      [A6 - 0x60]
0000102C  2D6E 000C FFB6           move.l     [A6 - 0x4A], [A6 + 0xC]
00001032  41EE FF86                lea.l      A0, [A6 - 0x7A]
00001036  A208                     syscall    Create/PBHCreate/HCreate, flags=2
00001038  3F40 008C                move.w     [A7 + 0x8C], D0
0000103C  4E5E                     unlink     A6
0000103E  205F                     movea.l    A0, [A7]+
00001040  4FEF 000A                lea.l      A7, [A7 + 0xA]
00001044  4ED0                     jmp        [A0]
00001046  4E56 FF86                link       A6, -0x007A
0000104A  3D6E 001E FF9C           move.w     [A6 - 0x64], [A6 + 0x1E]
00001050  2D6E 001A FFB6           move.l     [A6 - 0x4A], [A6 + 0x1A]
00001056  2D6E 0016 FF98           move.l     [A6 - 0x68], [A6 + 0x16]
0000105C  3D6E 0014 FF9E           move.w     [A6 - 0x62], [A6 + 0x14]
00001062  2D6E 0010 FFAA           move.l     [A6 - 0x56], [A6 + 0x10]
00001068  2D6E 000C FFA2           move.l     [A6 - 0x5E], [A6 + 0xC]
0000106E  2D6E 0008 FFA6           move.l     [A6 - 0x5A], [A6 + 0x8]
00001074  41EE FF86                lea.l      A0, [A6 - 0x7A]
00001078  7036                     moveq.l    D0, 0x36
0000107A  A260                     syscall    FSDispatch/HFSDispatch, flags=2
0000107C  3F40 009A                move.w     [A7 + 0x9A], D0
00001080  4E5E                     unlink     A6
00001082  205F                     movea.l    A0, [A7]+
00001084  4FEF 0018                lea.l      A7, [A7 + 0x18]
00001088  4ED0                     jmp        [A0]
0000108A  4E56 FE84                link       A6, -0x017C
0000108E  2F0A                     move.l     -[A7], A2
00001090  246E 000E                movea.l    A2, [A6 + 0xE]
00001094  3D6E 000C FF9C           move.w     [A6 - 0x64], [A6 + 0xC]
0000109A  200A                     move.l     D0, A2
0000109C  660A                     bne        +0xC /* 000010A8 */
0000109E  42AE FF98                clr.l      [A6 - 0x68]
000010A2  426E FFA2                clr.w      [A6 - 0x5E]
000010A6  601E                     bra        +0x20 /* 000010C6 */
label000010A8:
000010A8  204A                     movea.l    A0, A2
000010AA  43EE FE86                lea.l      A1, [A6 - 0x17A]
000010AE  7000                     moveq.l    D0, 0x00
000010B0  1012                     move.b     D0, [A2]
000010B2  5240                     addq.w     D0, 1
000010B4  48C0                     ext.l      D0
000010B6  A22E                     syscall    BlockMove/BlockMoveData, flags=2
000010B8  41EE FE86                lea.l      A0, [A6 - 0x17A]
000010BC  2D48 FF98                move.l     [A6 - 0x68], A0
000010C0  3D7C FFFF FFA2           move.w     [A6 - 0x5E], 0xFFFF
label000010C6:
000010C6  41EE FF86                lea.l      A0, [A6 - 0x7A]
000010CA  A207                     syscall    GetVolInfo/PBHGetVInfo/HGetVInfo, flags=2
000010CC  3D40 FE84                move.w     [A6 - 0x17C], D0
000010D0  206E 0008                movea.l    A0, [A6 + 0x8]
000010D4  30AE FF9C                move.w     [A0], [A6 - 0x64]
000010D8  3F6E FE84 0192           move.w     [A7 + 0x192], [A6 - 0x17C]
000010DE  245F                     movea.l    A2, [A7]+
000010E0  4E5E                     unlink     A6
000010E2  205F                     movea.l    A0, [A7]+
000010E4  4FEF 000A                lea.l      A7, [A7 + 0xA]
000010E8  4ED0                     jmp        [A0]
000010EA  4E56 FE86                link       A6, -0x017A
000010EE  48E7 1020                movem.l    -[A7], D3,A2
000010F2  246E 000A                movea.l    A2, [A6 + 0xA]
000010F6  3D6E 0008 FF9C           move.w     [A6 - 0x64], [A6 + 0x8]
000010FC  200A                     move.l     D0, A2
000010FE  660A                     bne        +0xC /* 0000110A */
00001100  42AE FF98                clr.l      [A6 - 0x68]
00001104  426E FFA2                clr.w      [A6 - 0x5E]
00001108  601E                     bra        +0x20 /* 00001128 */
label0000110A:
0000110A  204A                     movea.l    A0, A2
0000110C  43EE FE86                lea.l      A1, [A6 - 0x17A]
00001110  7000                     moveq.l    D0, 0x00
00001112  1012                     move.b     D0, [A2]
00001114  5240                     addq.w     D0, 1
00001116  48C0                     ext.l      D0
00001118  A22E                     syscall    BlockMove/BlockMoveData, flags=2
0000111A  41EE FE86                lea.l      A0, [A6 - 0x17A]
0000111E  2D48 FF98                move.l     [A6 - 0x68], A0
00001122  3D7C FFFF FFA2           move.w     [A6 - 0x5E], 0xFFFF
label00001128:
00001128  41EE FF86                lea.l      A0, [A6 - 0x7A]
0000112C  A207                     syscall    GetVolInfo/PBHGetVInfo/HGetVInfo, flags=2
0000112E  3600                     move.w     D3, D0
00001130  4A43                     tst.w      D3
00001132  661A                     bne        +0x1C /* 0000114E */
00001134  302E FFAC                move.w     D0, [A6 - 0x54]
00001138  0240 0080                andi.w     D0, 0x80
0000113C  6704                     beq        +0x6 /* 00001142 */
0000113E  76D4                     moveq.l    D3, 0xFFFFFFD4
00001140  600C                     bra        +0xE /* 0000114E */
label00001142:
00001142  302E FFAC                move.w     D0, [A6 - 0x54]
00001146  0240 8000                andi.w     D0, 0x8000
0000114A  6702                     beq        +0x4 /* 0000114E */
0000114C  76D2                     moveq.l    D3, 0xFFFFFFD2
label0000114E:
0000114E  3F43 0190                move.w     [A7 + 0x190], D3
00001152  4CDF 0408                movem.l    D3,A2, [A7]+
00001156  4E5E                     unlink     A6
00001158  205F                     movea.l    A0, [A7]+
0000115A  5C4F                     addq.w     A7, 6
0000115C  4ED0                     jmp        [A0]
0000115E  4E56 FF92                link       A6, -0x006E
00001162  2F0A                     move.l     -[A7], A2
00001164  246E 0010                movea.l    A2, [A6 + 0x10]
00001168  200A                     move.l     D0, A2
0000116A  670A                     beq        +0xC /* 00001176 */
0000116C  4A12                     tst.b      [A2]
0000116E  6606                     bne        +0x8 /* 00001176 */
00001170  42AE FFA6                clr.l      [A6 - 0x5A]
00001174  6004                     bra        +0x6 /* 0000117A */
label00001176:
00001176  2D4A FFA6                move.l     [A6 - 0x5A], A2
label0000117A:
0000117A  3D6E 0018 FFAA           move.w     [A6 - 0x56], [A6 + 0x18]
00001180  2D6E 0014 FFC4           move.l     [A6 - 0x3C], [A6 + 0x14]
00001186  426E FFB0                clr.w      [A6 - 0x50]
0000118A  41EE FF94                lea.l      A0, [A6 - 0x6C]
0000118E  7009                     moveq.l    D0, 0x09
00001190  A260                     syscall    FSDispatch/HFSDispatch, flags=2
00001192  3D40 FF92                move.w     [A6 - 0x6E], D0
00001196  206E 000C                movea.l    A0, [A6 + 0xC]
0000119A  20AE FFC4                move.l     [A0], [A6 - 0x3C]
0000119E  102E FFB2                move.b     D0, [A6 - 0x4E]
000011A2  0240 0010                andi.w     D0, 0x10
000011A6  56C0                     sne        D0
000011A8  4400                     neg.b      D0
000011AA  4880                     ext.w      D0
000011AC  206E 0008                movea.l    A0, [A6 + 0x8]
000011B0  1080                     move.b     [A0], D0
000011B2  3F6E FF92 008C           move.w     [A7 + 0x8C], [A6 - 0x6E]
000011B8  245F                     movea.l    A2, [A7]+
000011BA  4E5E                     unlink     A6
000011BC  205F                     movea.l    A0, [A7]+
000011BE  4FEF 0012                lea.l      A7, [A7 + 0x12]
000011C2  4ED0                     jmp        [A0]
000011C4  4E56 FF94                link       A6, -0x006C
000011C8  2D6E 0008 FFA6           move.l     [A6 - 0x5A], [A6 + 0x8]
000011CE  3D6E 0010 FFAA           move.w     [A6 - 0x56], [A6 + 0x10]
000011D4  2D6E 000C FFC4           move.l     [A6 - 0x3C], [A6 + 0xC]
000011DA  3D7C FFFF FFB0           move.w     [A6 - 0x50], 0xFFFF
000011E0  41EE FF94                lea.l      A0, [A6 - 0x6C]
000011E4  7009                     moveq.l    D0, 0x09
000011E6  A260                     syscall    FSDispatch/HFSDispatch, flags=2
000011E8  3F40 007E                move.w     [A7 + 0x7E], D0
000011EC  4E5E                     unlink     A6
000011EE  205F                     movea.l    A0, [A7]+
000011F0  4FEF 000A                lea.l      A7, [A7 + 0xA]
000011F4  4ED0                     jmp        [A0]
000011F6  4E56 FF86                link       A6, -0x007A
000011FA  48E7 1830                movem.l    -[A7], D3,D4,A2,A3
000011FE  266E 0014                movea.l    A3, [A6 + 0x14]
00001202  246E 000A                movea.l    A2, [A6 + 0xA]
00001206  3D6E 001C FF9C           move.w     [A6 - 0x64], [A6 + 0x1C]
0000120C  2D6E 0018 FFB6           move.l     [A6 - 0x4A], [A6 + 0x18]
00001212  200B                     move.l     D0, A3
00001214  670A                     beq        +0xC /* 00001220 */
00001216  4A13                     tst.b      [A3]
00001218  6606                     bne        +0x8 /* 00001220 */
0000121A  42AE FF98                clr.l      [A6 - 0x68]
0000121E  6004                     bra        +0x6 /* 00001224 */
label00001220:
00001220  2D4B FF98                move.l     [A6 - 0x68], A3
label00001224:
00001224  426E FFA2                clr.w      [A6 - 0x5E]
00001228  41EE FF86                lea.l      A0, [A6 - 0x7A]
0000122C  7009                     moveq.l    D0, 0x09
0000122E  A260                     syscall    FSDispatch/HFSDispatch, flags=2
00001230  3600                     move.w     D3, D0
00001232  4A43                     tst.w      D3
00001234  666E                     bne        +0x70 /* 000012A4 */
00001236  102E FFA4                move.b     D0, [A6 - 0x5C]
0000123A  0240 0010                andi.w     D0, 0x10
0000123E  56C0                     sne        D0
00001240  4400                     neg.b      D0
00001242  4880                     ext.w      D0
00001244  1800                     move.b     D4, D0
00001246  3D6E 0012 FF9C           move.w     [A6 - 0x64], [A6 + 0x12]
0000124C  2D6E 000E FFB6           move.l     [A6 - 0x4A], [A6 + 0xE]
00001252  200A                     move.l     D0, A2
00001254  670A                     beq        +0xC /* 00001260 */
00001256  4A12                     tst.b      [A2]
00001258  6606                     bne        +0x8 /* 00001260 */
0000125A  42AE FF98                clr.l      [A6 - 0x68]
0000125E  6004                     bra        +0x6 /* 00001264 */
label00001260:
00001260  2D4A FF98                move.l     [A6 - 0x68], A2
label00001264:
00001264  302E FFAE                move.w     D0, [A6 - 0x52]
00001268  0240 FEFF                andi.w     D0, 0xFEFF
0000126C  3D40 FFAE                move.w     [A6 - 0x52], D0
00001270  41EE FF86                lea.l      A0, [A6 - 0x7A]
00001274  700A                     moveq.l    D0, 0x0A
00001276  A260                     syscall    FSDispatch/HFSDispatch, flags=2
00001278  3600                     move.w     D3, D0
0000127A  4A43                     tst.w      D3
0000127C  6626                     bne        +0x28 /* 000012A4 */
0000127E  4A2E 0008                tst.b      [A6 + 0x8]
00001282  6720                     beq        +0x22 /* 000012A4 */
00001284  102E FFA4                move.b     D0, [A6 - 0x5C]
00001288  0240 0001                andi.w     D0, 0x1
0000128C  6716                     beq        +0x18 /* 000012A4 */
0000128E  422E FFA0                clr.b      [A6 - 0x60]
00001292  41EE FF86                lea.l      A0, [A6 - 0x7A]
00001296  A241                     syscall    SetFilLock/PBHSetFLock/HSetFLock, flags=2
00001298  3600                     move.w     D3, D0
0000129A  4A43                     tst.w      D3
0000129C  6706                     beq        +0x8 /* 000012A4 */
0000129E  4A04                     tst.b      D4
000012A0  6702                     beq        +0x4 /* 000012A4 */
000012A2  7600                     moveq.l    D3, 0x00
label000012A4:
000012A4  3F43 00A8                move.w     [A7 + 0xA8], D3
000012A8  4CDF 0C18                movem.l    D3,D4,A2,A3, [A7]+
000012AC  4E5E                     unlink     A6
000012AE  205F                     movea.l    A0, [A7]+
000012B0  4FEF 0016                lea.l      A7, [A7 + 0x16]
000012B4  4ED0                     jmp        [A0]
000012B6  4E56 FF6E                link       A6, -0x0092
000012BA  48E7 1C30                movem.l    -[A7], D3,D4,D5,A2,A3
000012BE  3A2E 0016                move.w     D5, [A6 + 0x16]
000012C2  246E 000E                movea.l    A2, [A6 + 0xE]
000012C6  382E 000C                move.w     D4, [A6 + 0xC]
000012CA  266E 0008                movea.l    A3, [A6 + 0x8]
000012CE  7014                     moveq.l    D0, 0x14
000012D0  2D40 FF6E                move.l     [A6 - 0x92], D0
000012D4  42AE FFA2                clr.l      [A6 - 0x5E]
000012D8  422E FFA0                clr.b      [A6 - 0x60]
000012DC  2D4A FF98                move.l     [A6 - 0x68], A2
000012E0  3D45 FF9C                move.w     [A6 - 0x64], D5
000012E4  2D6E 0012 FFB6           move.l     [A6 - 0x4A], [A6 + 0x12]
000012EA  554F                     subq.w     A7, 2
000012EC  2F0A                     move.l     -[A7], A2
000012EE  3F05                     move.w     -[A7], D5
000012F0  486E FF72                pea.l      [A6 - 0x8E]
000012F4  486E FF6E                pea.l      [A6 - 0x92]
000012F8  4EB9 0000 0FDA           jsr        [0x00000FDA]
000012FE  301F                     move.w     D0, [A7]+
00001300  3600                     move.w     D3, D0
00001302  4A43                     tst.w      D3
00001304  6624                     bne        +0x26 /* 0000132A */
00001306  202E FF74                move.l     D0, [A6 - 0x8C]
0000130A  0280 0000 8000           andi.l     D0, 0x8000
00001310  6724                     beq        +0x26 /* 00001336 */
00001312  3D44 FFA0                move.w     [A6 - 0x60], D4
00001316  41EE FF86                lea.l      A0, [A6 - 0x7A]
0000131A  7038                     moveq.l    D0, 0x38
0000131C  A260                     syscall    FSDispatch/HFSDispatch, flags=2
0000131E  3600                     move.w     D3, D0
00001320  36AE FF9E                move.w     [A3], [A6 - 0x62]
00001324  3F43 00BE                move.w     [A7 + 0xBE], D3
00001328  606C                     bra        +0x6E /* 00001396 */
label0000132A:
0000132A  0C43 FFCE                cmpi.w     D3, 0xFFCE
0000132E  6706                     beq        +0x8 /* 00001336 */
00001330  3F43 00BE                move.w     [A7 + 0xBE], D3
00001334  6060                     bra        +0x62 /* 00001396 */
label00001336:
00001336  3004                     move.w     D0, D4
00001338  0240 0002                andi.w     D0, 0x2
0000133C  671A                     beq        +0x1C /* 00001358 */
0000133E  554F                     subq.w     A7, 2
00001340  2F0A                     move.l     -[A7], A2
00001342  3F05                     move.w     -[A7], D5
00001344  4EB9 0000 10EE           jsr        [0x000010EE]
0000134A  301F                     move.w     D0, [A7]+
0000134C  3600                     move.w     D3, D0
0000134E  4A43                     tst.w      D3
00001350  6706                     beq        +0x8 /* 00001358 */
00001352  3F43 00BE                move.w     [A7 + 0xBE], D3
00001356  603E                     bra        +0x40 /* 00001396 */
label00001358:
00001358  0C44 0002                cmpi.w     D4, 0x2
0000135C  6712                     beq        +0x14 /* 00001370 */
0000135E  0C44 0003                cmpi.w     D4, 0x3
00001362  670C                     beq        +0xE /* 00001370 */
00001364  3044                     movea.w    A0, D4
00001366  2008                     move.l     D0, A0
00001368  81FC 0004                divs.w     D0, 0x4
0000136C  4840                     swap.w     D0
0000136E  6002                     bra        +0x4 /* 00001372 */
label00001370:
00001370  7004                     moveq.l    D0, 0x04
label00001372:
00001372  1D40 FFA1                move.b     [A6 - 0x5F], D0
00001376  41EE FF86                lea.l      A0, [A6 - 0x7A]
0000137A  701A                     moveq.l    D0, 0x1A
0000137C  A260                     syscall    FSDispatch/HFSDispatch, flags=2
0000137E  3600                     move.w     D3, D0
00001380  0C43 FFCE                cmpi.w     D3, 0xFFCE
00001384  6608                     bne        +0xA /* 0000138E */
00001386  41EE FF86                lea.l      A0, [A6 - 0x7A]
0000138A  A200                     syscall    OpenSlot, flags=2
0000138C  3600                     move.w     D3, D0
label0000138E:
0000138E  36AE FF9E                move.w     [A3], [A6 - 0x62]
00001392  3F43 00BE                move.w     [A7 + 0xBE], D3
label00001396:
00001396  4CDF 0C38                movem.l    D3,D4,D5,A2,A3, [A7]+
0000139A  4E5E                     unlink     A6
0000139C  205F                     movea.l    A0, [A7]+
0000139E  4FEF 0010                lea.l      A7, [A7 + 0x10]
000013A2  4ED0                     jmp        [A0]
000013A4  4E56 FF6E                link       A6, -0x0092
000013A8  48E7 1C30                movem.l    -[A7], D3,D4,D5,A2,A3
000013AC  3A2E 0016                move.w     D5, [A6 + 0x16]
000013B0  246E 000E                movea.l    A2, [A6 + 0xE]
000013B4  382E 000C                move.w     D4, [A6 + 0xC]
000013B8  266E 0008                movea.l    A3, [A6 + 0x8]
000013BC  7014                     moveq.l    D0, 0x14
000013BE  2D40 FF6E                move.l     [A6 - 0x92], D0
000013C2  42AE FFA2                clr.l      [A6 - 0x5E]
000013C6  422E FFA0                clr.b      [A6 - 0x60]
000013CA  2D4A FF98                move.l     [A6 - 0x68], A2
000013CE  3D45 FF9C                move.w     [A6 - 0x64], D5
000013D2  2D6E 0012 FFB6           move.l     [A6 - 0x4A], [A6 + 0x12]
000013D8  554F                     subq.w     A7, 2
000013DA  2F0A                     move.l     -[A7], A2
000013DC  3F05                     move.w     -[A7], D5
000013DE  486E FF72                pea.l      [A6 - 0x8E]
000013E2  486E FF6E                pea.l      [A6 - 0x92]
000013E6  4EB9 0000 0FDA           jsr        [0x00000FDA]
000013EC  301F                     move.w     D0, [A7]+
000013EE  3600                     move.w     D3, D0
000013F0  4A43                     tst.w      D3
000013F2  6624                     bne        +0x26 /* 00001418 */
000013F4  202E FF74                move.l     D0, [A6 - 0x8C]
000013F8  0280 0000 8000           andi.l     D0, 0x8000
000013FE  6724                     beq        +0x26 /* 00001424 */
00001400  3D44 FFA0                move.w     [A6 - 0x60], D4
00001404  41EE FF86                lea.l      A0, [A6 - 0x7A]
00001408  7039                     moveq.l    D0, 0x39
0000140A  A260                     syscall    FSDispatch/HFSDispatch, flags=2
0000140C  3600                     move.w     D3, D0
0000140E  36AE FF9E                move.w     [A3], [A6 - 0x62]
00001412  3F43 00BE                move.w     [A7 + 0xBE], D3
00001416  605C                     bra        +0x5E /* 00001474 */
label00001418:
00001418  0C43 FFCE                cmpi.w     D3, 0xFFCE
0000141C  6706                     beq        +0x8 /* 00001424 */
0000141E  3F43 00BE                move.w     [A7 + 0xBE], D3
00001422  6050                     bra        +0x52 /* 00001474 */
label00001424:
00001424  3004                     move.w     D0, D4
00001426  0240 0002                andi.w     D0, 0x2
0000142A  671A                     beq        +0x1C /* 00001446 */
0000142C  554F                     subq.w     A7, 2
0000142E  2F0A                     move.l     -[A7], A2
00001430  3F05                     move.w     -[A7], D5
00001432  4EB9 0000 10EE           jsr        [0x000010EE]
00001438  301F                     move.w     D0, [A7]+
0000143A  3600                     move.w     D3, D0
0000143C  4A43                     tst.w      D3
0000143E  6706                     beq        +0x8 /* 00001446 */
00001440  3F43 00BE                move.w     [A7 + 0xBE], D3
00001444  602E                     bra        +0x30 /* 00001474 */
label00001446:
00001446  0C44 0002                cmpi.w     D4, 0x2
0000144A  6712                     beq        +0x14 /* 0000145E */
0000144C  0C44 0003                cmpi.w     D4, 0x3
00001450  670C                     beq        +0xE /* 0000145E */
00001452  3044                     movea.w    A0, D4
00001454  2008                     move.l     D0, A0
00001456  81FC 0004                divs.w     D0, 0x4
0000145A  4840                     swap.w     D0
0000145C  6002                     bra        +0x4 /* 00001460 */
label0000145E:
0000145E  7004                     moveq.l    D0, 0x04
label00001460:
00001460  1D40 FFA1                move.b     [A6 - 0x5F], D0
00001464  41EE FF86                lea.l      A0, [A6 - 0x7A]
00001468  A20A                     syscall    OpenRF/PBHOpenRF/HOpenRF, flags=2
0000146A  3600                     move.w     D3, D0
0000146C  36AE FF9E                move.w     [A3], [A6 - 0x62]
00001470  3F43 00BE                move.w     [A7 + 0xBE], D3
label00001474:
00001474  4CDF 0C38                movem.l    D3,D4,D5,A2,A3, [A7]+
00001478  4E5E                     unlink     A6
0000147A  205F                     movea.l    A0, [A7]+
0000147C  4FEF 0010                lea.l      A7, [A7 + 0x10]
00001480  4ED0                     jmp        [A0]
00001482  4E56 FF60                link       A6, -0x00A0
00001486  48E7 1C20                movem.l    -[A7], D3,D4,D5,A2
0000148A  246E 000C                movea.l    A2, [A6 + 0xC]
0000148E  2A2E 0008                move.l     D5, [A6 + 0x8]
00001492  200A                     move.l     D0, A2
00001494  6704                     beq        +0x6 /* 0000149A */
00001496  4A85                     tst.l      D5
00001498  660A                     bne        +0xC /* 000014A4 */
label0000149A:
0000149A  3F7C FFCE 00C4           move.w     [A7 + 0xC4], 0xFFCE
000014A0  6000 00FA                bra        +0xFC /* 0000159C */
label000014A4:
000014A4  3D6E 0012 FFC8           move.w     [A6 - 0x38], [A6 + 0x12]
000014AA  3D6E 0010 FF78           move.w     [A6 - 0x88], [A6 + 0x10]
000014B0  41EE FFB0                lea.l      A0, [A6 - 0x50]
000014B4  A011                     syscall    GetEOF
000014B6  3600                     move.w     D3, D0
000014B8  4A43                     tst.w      D3
000014BA  6708                     beq        +0xA /* 000014C4 */
000014BC  3F43 00C4                move.w     [A7 + 0xC4], D3
000014C0  6000 00DA                bra        +0xDC /* 0000159C */
label000014C4:
000014C4  2D6E FFCC FF7C           move.l     [A6 - 0x84], [A6 - 0x34]
000014CA  41EE FF60                lea.l      A0, [A6 - 0xA0]
000014CE  A012                     syscall    SetEOF
000014D0  3800                     move.w     D4, D0
000014D2  4A44                     tst.w      D4
000014D4  6708                     beq        +0xA /* 000014DE */
000014D6  3F44 00C4                move.w     [A7 + 0xC4], D4
000014DA  6000 00C0                bra        +0xC2 /* 0000159C */
label000014DE:
000014DE  3D7C 0001 FFDC           move.w     [A6 - 0x24], 0x1
000014E4  42AE FFDE                clr.l      [A6 - 0x22]
000014E8  41EE FFB0                lea.l      A0, [A6 - 0x50]
000014EC  A044                     syscall    SetFPos
000014EE  3600                     move.w     D3, D0
000014F0  4A43                     tst.w      D3
000014F2  6708                     beq        +0xA /* 000014FC */
000014F4  3F43 00C4                move.w     [A7 + 0xC4], D3
000014F8  6000 00A2                bra        +0xA4 /* 0000159C */
label000014FC:
000014FC  3D7C 0001 FF8C           move.w     [A6 - 0x74], 0x1
00001502  42AE FF8E                clr.l      [A6 - 0x72]
00001506  41EE FF60                lea.l      A0, [A6 - 0xA0]
0000150A  A044                     syscall    SetFPos
0000150C  3800                     move.w     D4, D0
0000150E  4A44                     tst.w      D4
00001510  6708                     beq        +0xA /* 0000151A */
00001512  3F44 00C4                move.w     [A7 + 0xC4], D4
00001516  6000 0084                bra        +0x86 /* 0000159C */
label0000151A:
0000151A  2D4A FFD0                move.l     [A6 - 0x30], A2
0000151E  3D7C 0020 FFDC           move.w     [A6 - 0x24], 0x20 /* ' ' */
00001524  0C85 0000 0200           cmpi.l     D5, 0x200
0000152A  6D12                     blt        +0x14 /* 0000153E */
0000152C  2005                     move.l     D0, D5
0000152E  223C 0000 0200           move.l     D1, 0x200
00001534  4EB9 0000 058E           jsr        [0x0000058E]
0000153A  4A80                     tst.l      D0
0000153C  6604                     bne        +0x6 /* 00001542 */
label0000153E:
0000153E  2005                     move.l     D0, D5
00001540  6012                     bra        +0x14 /* 00001554 */
label00001542:
00001542  2005                     move.l     D0, D5
00001544  223C 0000 0200           move.l     D1, 0x200
0000154A  4EB9 0000 0524           jsr        [0x00000524]
00001550  7209                     moveq.l    D1, 0x09
00001552  E3A8                     lsl        D0, D1
label00001554:
00001554  2D40 FFD4                move.l     [A6 - 0x2C], D0
00001558  2D4A FF80                move.l     [A6 - 0x80], A2
0000155C  3D7C 0020 FF8C           move.w     [A6 - 0x74], 0x20 /* ' ' */
00001562  6016                     bra        +0x18 /* 0000157A */
label00001564:
00001564  41EE FFB0                lea.l      A0, [A6 - 0x50]
00001568  A002                     syscall    Read
0000156A  3600                     move.w     D3, D0
0000156C  2D6E FFD8 FF84           move.l     [A6 - 0x7C], [A6 - 0x28]
00001572  41EE FF60                lea.l      A0, [A6 - 0xA0]
00001576  A003                     syscall    Write
00001578  3800                     move.w     D4, D0
label0000157A:
0000157A  4A43                     tst.w      D3
0000157C  6604                     bne        +0x6 /* 00001582 */
0000157E  4A44                     tst.w      D4
00001580  67E2                     beq        -0x1C /* 00001564 */
label00001582:
00001582  4A44                     tst.w      D4
00001584  6706                     beq        +0x8 /* 0000158C */
00001586  3F44 00C4                move.w     [A7 + 0xC4], D4
0000158A  6010                     bra        +0x12 /* 0000159C */
label0000158C:
0000158C  0C43 FFD9                cmpi.w     D3, 0xFFD9
00001590  6706                     beq        +0x8 /* 00001598 */
00001592  3F43 00C4                move.w     [A7 + 0xC4], D3
00001596  6004                     bra        +0x6 /* 0000159C */
label00001598:
00001598  426F 00C4                clr.w      [A7 + 0xC4]
label0000159C:
0000159C  4CDF 0438                movem.l    D3,D4,D5,A2, [A7]+
000015A0  4E5E                     unlink     A6
000015A2  205F                     movea.l    A0, [A7]+
000015A4  4FEF 000C                lea.l      A7, [A7 + 0xC]
000015A8  4ED0                     jmp        [A0]
000015AA  4E56 FFC0                link       A6, -0x0040
000015AE  2D6E 0008 FFD4           move.l     [A6 - 0x2C], [A6 + 0x8]
000015B4  426E FFD8                clr.w      [A6 - 0x28]
000015B8  3D6E 0014 FFDA           move.w     [A6 - 0x26], [A6 + 0x14]
000015BE  426E FFDE                clr.w      [A6 - 0x22]
000015C2  41EE FFC2                lea.l      A0, [A6 - 0x3E]
000015C6  7008                     moveq.l    D0, 0x08
000015C8  A260                     syscall    FSDispatch/HFSDispatch, flags=2
000015CA  3D40 FFC0                move.w     [A6 - 0x40], D0
000015CE  206E 0010                movea.l    A0, [A6 + 0x10]
000015D2  30AE FFF6                move.w     [A0], [A6 - 0xA]
000015D6  206E 000C                movea.l    A0, [A6 + 0xC]
000015DA  20AE FFFC                move.l     [A0], [A6 - 0x4]
000015DE  3F6E FFC0 0056           move.w     [A7 + 0x56], [A6 - 0x40]
000015E4  4E5E                     unlink     A6
000015E6  205F                     movea.l    A0, [A7]+
000015E8  4FEF 000E                lea.l      A7, [A7 + 0xE]
000015EC  4ED0                     jmp        [A0]
000015EE  4E56 FF00                link       A6, -0x0100
000015F2  486D FD23                pea.l      [A5 - 0x2DD]
000015F6  4267                     clr.w      -[A7]
000015F8  306E 001E                movea.w    A0, [A6 + 0x1E]
000015FC  2F08                     move.l     -[A7], A0
000015FE  486D FD14                pea.l      [A5 - 0x2EC]
00001602  486E FF00                pea.l      [A6 - 0x100]
00001606  4EB9 0000 8112           jsr        [0x00008112]
0000160C  4267                     clr.w      -[A7]
0000160E  306E 001C                movea.w    A0, [A6 + 0x1C]
00001612  2F08                     move.l     -[A7], A0
00001614  486E FF00                pea.l      [A6 - 0x100]
00001618  4EB9 0000 80DA           jsr        [0x000080DA]
0000161E  486D FD30                pea.l      [A5 - 0x2D0]
00001622  486E FF00                pea.l      [A6 - 0x100]
00001626  4EB9 0000 80D2           jsr        [0x000080D2]
0000162C  486E FF00                pea.l      [A6 - 0x100]
00001630  4EB9 0000 7F8A           jsr        [0x00007F8A]
00001636  1F40 0148                move.b     [A7 + 0x148], D0
0000163A  4E5E                     unlink     A6
0000163C  205F                     movea.l    A0, [A7]+
0000163E  4FEF 0018                lea.l      A7, [A7 + 0x18]
00001642  4ED0                     jmp        [A0]
00001644  4E56 FF46                link       A6, -0x00BA
00001648  2F03                     move.l     -[A7], D3
0000164A  363C 59FF                move.w     D3, 0x59FF
0000164E  42AE FF92                clr.l      [A6 - 0x6E]
00001652  41EE FF46                lea.l      A0, [A6 - 0xBA]
00001656  2D48 FF98                move.l     [A6 - 0x68], A0
0000165A  3D6E 0008 FF9C           move.w     [A6 - 0x64], [A6 + 0x8]
00001660  426E FFA2                clr.w      [A6 - 0x5E]
00001664  41EE FF86                lea.l      A0, [A6 - 0x7A]
00001668  A207                     syscall    GetVolInfo/PBHGetVInfo/HGetVInfo, flags=2
0000166A  3600                     move.w     D3, D0
0000166C  4A43                     tst.w      D3
0000166E  6706                     beq        +0x8 /* 00001676 */
00001670  363C 59FF                move.w     D3, 0x59FF
00001674  6058                     bra        +0x5A /* 000016CE */
label00001676:
00001676  206E 000E                movea.l    A0, [A6 + 0xE]
0000167A  30AE FFC8                move.w     [A0], [A6 - 0x38]
0000167E  7000                     moveq.l    D0, 0x00
00001680  302E FFB4                move.w     D0, [A6 - 0x4C]
00001684  222E FFB6                move.l     D1, [A6 - 0x4A]
00001688  4EB9 0000 04B8           jsr        [0x000004B8]
0000168E  206E 001A                movea.l    A0, [A6 + 0x1A]
00001692  2080                     move.l     [A0], D0
00001694  7000                     moveq.l    D0, 0x00
00001696  302E FFC4                move.w     D0, [A6 - 0x3C]
0000169A  222E FFB6                move.l     D1, [A6 - 0x4A]
0000169E  4EB9 0000 04B8           jsr        [0x000004B8]
000016A4  206E 001E                movea.l    A0, [A6 + 0x1E]
000016A8  2080                     move.l     [A0], D0
000016AA  206E 0016                movea.l    A0, [A6 + 0x16]
000016AE  20AE FFB6                move.l     [A0], [A6 - 0x4A]
000016B2  206E 0012                movea.l    A0, [A6 + 0x12]
000016B6  20AE FFBA                move.l     [A0], [A6 - 0x46]
000016BA  2F2E 000A                move.l     -[A7], [A6 + 0xA]
000016BE  486E FF46                pea.l      [A6 - 0xBA]
000016C2  4EB9 0000 80B2           jsr        [0x000080B2]
000016C8  363C 5A00                move.w     D3, 0x5A00 /* 'Z\0' */
000016CC  504F                     addq.w     A7, 8
label000016CE:
000016CE  3003                     move.w     D0, D3
000016D0  261F                     move.l     D3, [A7]+
000016D2  4E5E                     unlink     A6
000016D4  4E75                     rts
000016D6  4E56 FE7C                link       A6, -0x0184
000016DA  48E7 1E00                movem.l    -[A7], D3,D4,D5,D6
000016DE  41ED FD3C                lea.l      A0, [A5 - 0x2C4]
000016E2  43EE FEC0                lea.l      A1, [A6 - 0x140]
000016E6  700F                     moveq.l    D0, 0x0F
label000016E8:
000016E8  22D8                     move.l     [A1]+, [A0]+
000016EA  51C8 FFFC                dbf        D0, -0x6 /* 000016E8 */
000016EE  486E FF00                pea.l      [A6 - 0x100]
000016F2  2F2E 0008                move.l     -[A7], [A6 + 0x8]
000016F6  4EB9 0000 80B2           jsr        [0x000080B2]
000016FC  7801                     moveq.l    D4, 0x01
000016FE  7600                     moveq.l    D3, 0x00
00001700  162E FF00                move.b     D3, [A6 - 0x100]
00001704  7A00                     moveq.l    D5, 0x00
00001706  1A2E FEC0                move.b     D5, [A6 - 0x140]
0000170A  504F                     addq.w     A7, 8
0000170C  6024                     bra        +0x26 /* 00001732 */
label0000170E:
0000170E  7000                     moveq.l    D0, 0x00
00001710  3003                     move.w     D0, D3
00001712  41EE FF00                lea.l      A0, [A6 - 0x100]
00001716  7200                     moveq.l    D1, 0x00
00001718  3205                     move.w     D1, D5
0000171A  43EE FEC0                lea.l      A1, [A6 - 0x140]
0000171E  1231 1800                move.b     D1, [A1 + D1]
00001722  B230 0800                cmp.b      D1, [A0 + D0]
00001726  6702                     beq        +0x4 /* 0000172A */
00001728  7800                     moveq.l    D4, 0x00
label0000172A:
0000172A  0643 FFFF                addi.w     D3, 0xFFFF
0000172E  0645 FFFF                addi.w     D5, 0xFFFF
label00001732:
00001732  4A45                     tst.w      D5
00001734  6706                     beq        +0x8 /* 0000173C */
00001736  0C04 0001                cmpi.b     D4, 0x1
0000173A  67D2                     beq        -0x2C /* 0000170E */
label0000173C:
0000173C  0C04 0001                cmpi.b     D4, 0x1
00001740  6652                     bne        +0x54 /* 00001794 */
00001742  7000                     moveq.l    D0, 0x00
00001744  102E FF00                move.b     D0, [A6 - 0x100]
00001748  0C40 001D                cmpi.w     D0, 0x1D
0000174C  6E14                     bgt        +0x16 /* 00001762 */
0000174E  486D FD7D                pea.l      [A5 - 0x283]
00001752  486E FF00                pea.l      [A6 - 0x100]
00001756  4EB9 0000 80C2           jsr        [0x000080C2]
0000175C  504F                     addq.w     A7, 8
0000175E  6000 01FE                bra        +0x200 /* 0000195E */
label00001762:
00001762  7000                     moveq.l    D0, 0x00
00001764  102E FEC0                move.b     D0, [A6 - 0x140]
00001768  721D                     moveq.l    D1, 0x1D
0000176A  9240                     sub.w      D1, D0
0000176C  1D41 FF00                move.b     [A6 - 0x100], D1
00001770  486E FEC0                pea.l      [A6 - 0x140]
00001774  486E FF00                pea.l      [A6 - 0x100]
00001778  4EB9 0000 80C2           jsr        [0x000080C2]
0000177E  486D FD7D                pea.l      [A5 - 0x283]
00001782  486E FF00                pea.l      [A6 - 0x100]
00001786  4EB9 0000 80C2           jsr        [0x000080C2]
0000178C  4FEF 0010                lea.l      A7, [A7 + 0x10]
00001790  6000 01CC                bra        +0x1CE /* 0000195E */
label00001794:
00001794  7A00                     moveq.l    D5, 0x00
00001796  7801                     moveq.l    D4, 0x01
00001798  7600                     moveq.l    D3, 0x00
0000179A  162E FF00                move.b     D3, [A6 - 0x100]
0000179E  6022                     bra        +0x24 /* 000017C2 */
label000017A0:
000017A0  7000                     moveq.l    D0, 0x00
000017A2  3003                     move.w     D0, D3
000017A4  41EE FF00                lea.l      A0, [A6 - 0x100]
000017A8  7C00                     moveq.l    D6, 0x00
000017AA  1C30 0800                move.b     D6, [A0 + D0]
000017AE  0C46 0030                cmpi.w     D6, 0x30 /* '0' */
000017B2  6D06                     blt        +0x8 /* 000017BA */
000017B4  0C46 0039                cmpi.w     D6, 0x39 /* '9' */
000017B8  6F04                     ble        +0x6 /* 000017BE */
label000017BA:
000017BA  7800                     moveq.l    D4, 0x00
000017BC  6004                     bra        +0x6 /* 000017C2 */
label000017BE:
000017BE  0643 FFFF                addi.w     D3, 0xFFFF
label000017C2:
000017C2  4A43                     tst.w      D3
000017C4  6706                     beq        +0x8 /* 000017CC */
000017C6  0C04 0001                cmpi.b     D4, 0x1
000017CA  67D4                     beq        -0x2A /* 000017A0 */
label000017CC:
000017CC  0C04 0001                cmpi.b     D4, 0x1
000017D0  6712                     beq        +0x14 /* 000017E4 */
000017D2  7000                     moveq.l    D0, 0x00
000017D4  3003                     move.w     D0, D3
000017D6  41EE FF00                lea.l      A0, [A6 - 0x100]
000017DA  0C30 0020 0800           cmpi.b     [A0 + D0], 0x20 /* ' ' */
000017E0  6602                     bne        +0x4 /* 000017E4 */
000017E2  7A01                     moveq.l    D5, 0x01
label000017E4:
000017E4  0C05 0001                cmpi.b     D5, 0x1
000017E8  6600 0130                bne        +0x132 /* 0000191A */
000017EC  7000                     moveq.l    D0, 0x00
000017EE  102E FEC0                move.b     D0, [A6 - 0x140]
000017F2  B640                     cmp.w      D3, D0
000017F4  6500 0124                bcs        +0x126 /* 0000191A */
000017F8  3C03                     move.w     D6, D3
000017FA  5246                     addq.w     D6, 1
000017FC  7801                     moveq.l    D4, 0x01
000017FE  7A00                     moveq.l    D5, 0x00
00001800  1A2E FEC0                move.b     D5, [A6 - 0x140]
00001804  6026                     bra        +0x28 /* 0000182C */
label00001806:
00001806  0643 FFFF                addi.w     D3, 0xFFFF
0000180A  7000                     moveq.l    D0, 0x00
0000180C  3003                     move.w     D0, D3
0000180E  41EE FF00                lea.l      A0, [A6 - 0x100]
00001812  7200                     moveq.l    D1, 0x00
00001814  3205                     move.w     D1, D5
00001816  43EE FEC0                lea.l      A1, [A6 - 0x140]
0000181A  1231 1800                move.b     D1, [A1 + D1]
0000181E  B230 0800                cmp.b      D1, [A0 + D0]
00001822  6704                     beq        +0x6 /* 00001828 */
00001824  7800                     moveq.l    D4, 0x00
00001826  6004                     bra        +0x6 /* 0000182C */
label00001828:
00001828  0645 FFFF                addi.w     D5, 0xFFFF
label0000182C:
0000182C  4A45                     tst.w      D5
0000182E  6706                     beq        +0x8 /* 00001836 */
00001830  0C04 0001                cmpi.b     D4, 0x1
00001834  67D0                     beq        -0x2E /* 00001806 */
label00001836:
00001836  0C04 0001                cmpi.b     D4, 0x1
0000183A  6600 00DE                bne        +0xE0 /* 0000191A */
0000183E  486E FE80                pea.l      [A6 - 0x180]
00001842  7000                     moveq.l    D0, 0x00
00001844  102E FF00                move.b     D0, [A6 - 0x100]
00001848  9046                     sub.w      D0, D6
0000184A  5240                     addq.w     D0, 1
0000184C  1F00                     move.b     -[A7], D0
0000184E  7000                     moveq.l    D0, 0x00
00001850  3006                     move.w     D0, D6
00001852  41EE FF00                lea.l      A0, [A6 - 0x100]
00001856  4870 0800                pea.l      [A0 + D0]
0000185A  4EB9 0000 812A           jsr        [0x0000812A]
00001860  486E FE7C                pea.l      [A6 - 0x184]
00001864  486E FE80                pea.l      [A6 - 0x180]
00001868  4EB9 0000 80A2           jsr        [0x000080A2]
0000186E  0C40 5A00                cmpi.w     D0, 0x5A00 /* 'Z\0' */
00001872  4FEF 0012                lea.l      A7, [A7 + 0x12]
00001876  6600 00A2                bne        +0xA4 /* 0000191A */
0000187A  70FF                     moveq.l    D0, 0xFFFFFFFF
0000187C  B0AE FE7C                cmp.l      D0, [A6 - 0x184]
00001880  6300 0098                bls        +0x9A /* 0000191A */
00001884  202E FE7C                move.l     D0, [A6 - 0x184]
00001888  5280                     addq.l     D0, 1
0000188A  2D40 FE7C                move.l     [A6 - 0x184], D0
0000188E  4227                     clr.b      -[A7]
00001890  486E FE80                pea.l      [A6 - 0x180]
00001894  2F2E FE7C                move.l     -[A7], [A6 - 0x184]
00001898  4EB9 0000 8082           jsr        [0x00008082]
0000189E  7000                     moveq.l    D0, 0x00
000018A0  102E FE80                move.b     D0, [A6 - 0x180]
000018A4  3206                     move.w     D1, D6
000018A6  0641 FFFF                addi.w     D1, 0xFFFF
000018AA  D240                     add.w      D1, D0
000018AC  0C41 001F                cmpi.w     D1, 0x1F
000018B0  4FEF 000A                lea.l      A7, [A7 + 0xA]
000018B4  621E                     bhi        +0x20 /* 000018D4 */
000018B6  3006                     move.w     D0, D6
000018B8  0640 FFFF                addi.w     D0, 0xFFFF
000018BC  1D40 FF00                move.b     [A6 - 0x100], D0
000018C0  486E FE80                pea.l      [A6 - 0x180]
000018C4  486E FF00                pea.l      [A6 - 0x100]
000018C8  4EB9 0000 80C2           jsr        [0x000080C2]
000018CE  504F                     addq.w     A7, 8
000018D0  6000 008C                bra        +0x8E /* 0000195E */
label000018D4:
000018D4  7000                     moveq.l    D0, 0x00
000018D6  102E FE80                move.b     D0, [A6 - 0x180]
000018DA  7200                     moveq.l    D1, 0x00
000018DC  122E FEC0                move.b     D1, [A6 - 0x140]
000018E0  741E                     moveq.l    D2, 0x1E
000018E2  9441                     sub.w      D2, D1
000018E4  9440                     sub.w      D2, D0
000018E6  1D42 FF00                move.b     [A6 - 0x100], D2
000018EA  486E FEC0                pea.l      [A6 - 0x140]
000018EE  486E FF00                pea.l      [A6 - 0x100]
000018F2  4EB9 0000 80C2           jsr        [0x000080C2]
000018F8  486D FD80                pea.l      [A5 - 0x280]
000018FC  486E FF00                pea.l      [A6 - 0x100]
00001900  4EB9 0000 80C2           jsr        [0x000080C2]
00001906  486E FE80                pea.l      [A6 - 0x180]
0000190A  486E FF00                pea.l      [A6 - 0x100]
0000190E  4EB9 0000 80C2           jsr        [0x000080C2]
00001914  4FEF 0018                lea.l      A7, [A7 + 0x18]
00001918  6044                     bra        +0x46 /* 0000195E */
label0000191A:
0000191A  7000                     moveq.l    D0, 0x00
0000191C  102E FEC0                move.b     D0, [A6 - 0x140]
00001920  721F                     moveq.l    D1, 0x1F
00001922  9240                     sub.w      D1, D0
00001924  7000                     moveq.l    D0, 0x00
00001926  102E FF00                move.b     D0, [A6 - 0x100]
0000192A  B041                     cmp.w      D0, D1
0000192C  6E12                     bgt        +0x14 /* 00001940 */
0000192E  486E FEC0                pea.l      [A6 - 0x140]
00001932  486E FF00                pea.l      [A6 - 0x100]
00001936  4EB9 0000 80C2           jsr        [0x000080C2]
0000193C  504F                     addq.w     A7, 8
0000193E  601E                     bra        +0x20 /* 0000195E */
label00001940:
00001940  7000                     moveq.l    D0, 0x00
00001942  102E FEC0                move.b     D0, [A6 - 0x140]
00001946  721F                     moveq.l    D1, 0x1F
00001948  9240                     sub.w      D1, D0
0000194A  1D41 FF00                move.b     [A6 - 0x100], D1
0000194E  486E FEC0                pea.l      [A6 - 0x140]
00001952  486E FF00                pea.l      [A6 - 0x100]
00001956  4EB9 0000 80C2           jsr        [0x000080C2]
0000195C  504F                     addq.w     A7, 8
label0000195E:
0000195E  2F2E 000C                move.l     -[A7], [A6 + 0xC]
00001962  486E FF00                pea.l      [A6 - 0x100]
00001966  4EB9 0000 80B2           jsr        [0x000080B2]
0000196C  504F                     addq.w     A7, 8
0000196E  4CDF 0078                movem.l    D3,D4,D5,D6, [A7]+
00001972  4E5E                     unlink     A6
00001974  4E75                     rts
00001976  4E56 FCAC                link       A6, -0x0354
0000197A  48E7 1F30                movem.l    -[A7], D3,D4,D5,D6,D7,A2,A3
0000197E  4AAD 56D4                tst.l      [A5 + 0x56D4]
00001982  6700 0692                beq        +0x694 /* 00002016 */
00001986  4EB9 0000 08B8           jsr        [0x000008B8]
0000198C  486E FCDA                pea.l      [A6 - 0x326]
00001990  A874                     syscall    GetPort
00001992  2F2D 56D4                move.l     -[A7], [A5 + 0x56D4]
00001996  A873                     syscall    SetPort
00001998  266D 56D4                movea.l    A3, [A5 + 0x56D4]
0000199C  47EB 0184                lea.l      A3, [A3 + 0x184]
000019A0  362B 0006                move.w     D3, [A3 + 0x6]
000019A4  700E                     moveq.l    D0, 0x0E
000019A6  C1C3                     muls.w     D0, D3
000019A8  204B                     movea.l    A0, A3
000019AA  D1C0                     add.l      A0, D0
000019AC  2D68 0028 FCD2           move.l     [A6 - 0x32E], [A0 + 0x28]
000019B2  2D68 002C FCD6           move.l     [A6 - 0x32A], [A0 + 0x2C]
000019B8  246B 0008                movea.l    A2, [A3 + 0x8]
000019BC  3D6B 0006 FCDE           move.w     [A6 - 0x322], [A3 + 0x6]
000019C2  206D 56D0                movea.l    A0, [A5 + 0x56D0]
000019C6  52A8 000C                addq.l     [A0 + 0xC], 1
000019CA  486D FD85                pea.l      [A5 - 0x27B]
000019CE  4227                     clr.b      -[A7]
000019D0  206D 56D0                movea.l    A0, [A5 + 0x56D0]
000019D4  2F28 000C                move.l     -[A7], [A0 + 0xC]
000019D8  486D FD82                pea.l      [A5 - 0x27E]
000019DC  486A 0129                pea.l      [A2 + 0x129]
000019E0  4EB9 0000 810A           jsr        [0x0000810A]
000019E6  206D 56D0                movea.l    A0, [A5 + 0x56D0]
000019EA  4868 001C                pea.l      [A0 + 0x1C]
000019EE  486A 0129                pea.l      [A2 + 0x129]
000019F2  4EB9 0000 80D2           jsr        [0x000080D2]
000019F8  377C 0002 0006           move.w     [A3 + 0x6], 0x2
000019FE  2F0B                     move.l     -[A7], A3
00001A00  4EB9 0000 28C0           jsr        [0x000028C0]
00001A06  206D 56D0                movea.l    A0, [A5 + 0x56D0]
00001A0A  202A 0332                move.l     D0, [A2 + 0x332]
00001A0E  B0A8 0008                cmp.l      D0, [A0 + 0x8]
00001A12  4FEF 001E                lea.l      A7, [A7 + 0x1E]
00001A16  672C                     beq        +0x2E /* 00001A44 */
00001A18  2568 0008 0332           move.l     [A2 + 0x332], [A0 + 0x8]
00001A1E  4227                     clr.b      -[A7]
00001A20  486A 0229                pea.l      [A2 + 0x229]
00001A24  206D 56D0                movea.l    A0, [A5 + 0x56D0]
00001A28  2F28 0008                move.l     -[A7], [A0 + 0x8]
00001A2C  4EB9 0000 8082           jsr        [0x00008082]
00001A32  377C 0009 0006           move.w     [A3 + 0x6], 0x9 /* '\t' */
00001A38  2F0B                     move.l     -[A7], A3
00001A3A  4EB9 0000 28C0           jsr        [0x000028C0]
00001A40  4FEF 000E                lea.l      A7, [A7 + 0xE]
label00001A44:
00001A44  206D 56D0                movea.l    A0, [A5 + 0x56D0]
00001A48  202A 0336                move.l     D0, [A2 + 0x336]
00001A4C  B0A8 0010                cmp.l      D0, [A0 + 0x10]
00001A50  672C                     beq        +0x2E /* 00001A7E */
00001A52  2568 0010 0336           move.l     [A2 + 0x336], [A0 + 0x10]
00001A58  4227                     clr.b      -[A7]
00001A5A  486A 024A                pea.l      [A2 + 0x24A]
00001A5E  206D 56D0                movea.l    A0, [A5 + 0x56D0]
00001A62  2F28 0010                move.l     -[A7], [A0 + 0x10]
00001A66  4EB9 0000 8082           jsr        [0x00008082]
00001A6C  377C 000A 0006           move.w     [A3 + 0x6], 0xA /* '\n' */
00001A72  2F0B                     move.l     -[A7], A3
00001A74  4EB9 0000 28C0           jsr        [0x000028C0]
00001A7A  4FEF 000E                lea.l      A7, [A7 + 0xE]
label00001A7E:
00001A7E  206D 56D0                movea.l    A0, [A5 + 0x56D0]
00001A82  2248                     movea.l    A1, A0
00001A84  2010                     move.l     D0, [A0]
00001A86  2229 0014                move.l     D1, [A1 + 0x14]
00001A8A  4EB9 0000 04B8           jsr        [0x000004B8]
00001A90  720A                     moveq.l    D1, 0x0A
00001A92  E2A8                     lsr        D0, D1
00001A94  2C00                     move.l     D6, D0
00001A96  2D7C 4009 8000 FCAC      move.l     [A6 - 0x354], 0x40098000
00001A9E  42AE FCB0                clr.l      [A6 - 0x350]
00001AA2  426E FCB4                clr.w      [A6 - 0x34C]
00001AA6  42AE FCB6                clr.l      [A6 - 0x34A]
00001AAA  2D46 FCBA                move.l     [A6 - 0x346], D6
00001AAE  486E FCB6                pea.l      [A6 - 0x34A]
00001AB2  486E FCB6                pea.l      [A6 - 0x34A]
00001AB6  3F3C 300E                move.w     -[A7], 0x300E
00001ABA  A9EB                     syscall    Pack4/FP68K
00001ABC  486E FCB6                pea.l      [A6 - 0x34A]
00001AC0  486E FCB6                pea.l      [A6 - 0x34A]
00001AC4  3F3C 0810                move.w     -[A7], 0x810
00001AC8  A9EB                     syscall    Pack4/FP68K
00001ACA  486E FCB6                pea.l      [A6 - 0x34A]
00001ACE  486E FCC0                pea.l      [A6 - 0x340]
00001AD2  3F3C 080E                move.w     -[A7], 0x80E
00001AD6  A9EB                     syscall    Pack4/FP68K
00001AD8  486E FCAC                pea.l      [A6 - 0x354]
00001ADC  486E FCC0                pea.l      [A6 - 0x340]
00001AE0  3F3C 0006                move.w     -[A7], 0x6
00001AE4  A9EB                     syscall    Pack4/FP68K
00001AE6  486E FCC0                pea.l      [A6 - 0x340]
00001AEA  486E FCCA                pea.l      [A6 - 0x336]
00001AEE  3F3C 0810                move.w     -[A7], 0x810
00001AF2  A9EB                     syscall    Pack4/FP68K
00001AF4  2D6E FCCA FFF8           move.l     [A6 - 0x8], [A6 - 0x336]
00001AFA  2D6E FCCE FFFC           move.l     [A6 - 0x4], [A6 - 0x332]
00001B00  486A 033A                pea.l      [A2 + 0x33A]
00001B04  486E FCC0                pea.l      [A6 - 0x340]
00001B08  3F3C 080E                move.w     -[A7], 0x80E
00001B0C  A9EB                     syscall    Pack4/FP68K
00001B0E  486E FFF8                pea.l      [A6 - 0x8]
00001B12  486E FCC0                pea.l      [A6 - 0x340]
00001B16  3F3C 0808                move.w     -[A7], 0x808
00001B1A  A9EB                     syscall    Pack4/FP68K
00001B1C  673E                     beq        +0x40 /* 00001B5C */
00001B1E  256E FFF8 033A           move.l     [A2 + 0x33A], [A6 - 0x8]
00001B24  256E FFFC 033E           move.l     [A2 + 0x33E], [A6 - 0x4]
00001B2A  486D FD89                pea.l      [A5 - 0x277]
00001B2E  2F3C 0008 0001           move.l     -[A7], 0x80001
00001B34  2F2E FFFC                move.l     -[A7], [A6 - 0x4]
00001B38  2F2E FFF8                move.l     -[A7], [A6 - 0x8]
00001B3C  486D FD88                pea.l      [A5 - 0x278]
00001B40  486A 026B                pea.l      [A2 + 0x26B]
00001B44  4EB9 0000 811A           jsr        [0x0000811A]
00001B4A  377C 000B 0006           move.w     [A3 + 0x6], 0xB
00001B50  2F0B                     move.l     -[A7], A3
00001B52  4EB9 0000 28C0           jsr        [0x000028C0]
00001B58  4FEF 001C                lea.l      A7, [A7 + 0x1C]
label00001B5C:
00001B5C  206D 56D0                movea.l    A0, [A5 + 0x56D0]
00001B60  2F28 0018                move.l     -[A7], [A0 + 0x18]
00001B64  4EB9 0000 81AA           jsr        [0x000081AA]
00001B6A  723C                     moveq.l    D1, 0x3C
00001B6C  4EB9 0000 0524           jsr        [0x00000524]
00001B72  2800                     move.l     D4, D0
00001B74  2004                     move.l     D0, D4
00001B76  723C                     moveq.l    D1, 0x3C
00001B78  4EB9 0000 0524           jsr        [0x00000524]
00001B7E  2600                     move.l     D3, D0
00001B80  2003                     move.l     D0, D3
00001B82  723C                     moveq.l    D1, 0x3C
00001B84  4EB9 0000 0524           jsr        [0x00000524]
00001B8A  2A00                     move.l     D5, D0
00001B8C  2003                     move.l     D0, D3
00001B8E  723C                     moveq.l    D1, 0x3C
00001B90  4EB9 0000 04B8           jsr        [0x000004B8]
00001B96  2204                     move.l     D1, D4
00001B98  9280                     sub.l      D1, D0
00001B9A  2E01                     move.l     D7, D1
00001B9C  2005                     move.l     D0, D5
00001B9E  723C                     moveq.l    D1, 0x3C
00001BA0  4EB9 0000 04B8           jsr        [0x000004B8]
00001BA6  2203                     move.l     D1, D3
00001BA8  9280                     sub.l      D1, D0
00001BAA  2601                     move.l     D3, D1
00001BAC  700A                     moveq.l    D0, 0x0A
00001BAE  B680                     cmp.l      D3, D0
00001BB0  584F                     addq.w     A7, 4
00001BB2  6C16                     bge        +0x18 /* 00001BCA */
00001BB4  4A85                     tst.l      D5
00001BB6  6F12                     ble        +0x14 /* 00001BCA */
00001BB8  486D FD8C                pea.l      [A5 - 0x274]
00001BBC  486E FDE0                pea.l      [A6 - 0x220]
00001BC0  4EB9 0000 8102           jsr        [0x00008102]
00001BC6  504F                     addq.w     A7, 8
00001BC8  6004                     bra        +0x6 /* 00001BCE */
label00001BCA:
00001BCA  422E FDE0                clr.b      [A6 - 0x220]
label00001BCE:
00001BCE  486D FD8E                pea.l      [A5 - 0x272]
00001BD2  4267                     clr.w      -[A7]
00001BD4  2F03                     move.l     -[A7], D3
00001BD6  486E FDE0                pea.l      [A6 - 0x220]
00001BDA  486A 028C                pea.l      [A2 + 0x28C]
00001BDE  4EB9 0000 8112           jsr        [0x00008112]
00001BE4  700A                     moveq.l    D0, 0x0A
00001BE6  BE80                     cmp.l      D7, D0
00001BE8  4FEF 0012                lea.l      A7, [A7 + 0x12]
00001BEC  6C12                     bge        +0x14 /* 00001C00 */
00001BEE  486D FD8C                pea.l      [A5 - 0x274]
00001BF2  486E FCE0                pea.l      [A6 - 0x320]
00001BF6  4EB9 0000 8102           jsr        [0x00008102]
00001BFC  504F                     addq.w     A7, 8
00001BFE  6004                     bra        +0x6 /* 00001C04 */
label00001C00:
00001C00  422E FCE0                clr.b      [A6 - 0x320]
label00001C04:
00001C04  486E FCE0                pea.l      [A6 - 0x320]
00001C08  486A 028C                pea.l      [A2 + 0x28C]
00001C0C  4EB9 0000 80D2           jsr        [0x000080D2]
00001C12  4267                     clr.w      -[A7]
00001C14  2F07                     move.l     -[A7], D7
00001C16  486A 028C                pea.l      [A2 + 0x28C]
00001C1A  4EB9 0000 80DA           jsr        [0x000080DA]
00001C20  4A85                     tst.l      D5
00001C22  4FEF 0012                lea.l      A7, [A7 + 0x12]
00001C26  6F2E                     ble        +0x30 /* 00001C56 */
00001C28  4227                     clr.b      -[A7]
00001C2A  486E FEE0                pea.l      [A6 - 0x120]
00001C2E  2F05                     move.l     -[A7], D5
00001C30  4EB9 0000 8072           jsr        [0x00008072]
00001C36  486D FD8E                pea.l      [A5 - 0x272]
00001C3A  486E FEE0                pea.l      [A6 - 0x120]
00001C3E  4EB9 0000 80CA           jsr        [0x000080CA]
00001C44  486A 028C                pea.l      [A2 + 0x28C]
00001C48  486E FEE0                pea.l      [A6 - 0x120]
00001C4C  4EB9 0000 80CA           jsr        [0x000080CA]
00001C52  4FEF 001A                lea.l      A7, [A7 + 0x1A]
label00001C56:
00001C56  377C 000C 0006           move.w     [A3 + 0x6], 0xC
00001C5C  2F0B                     move.l     -[A7], A3
00001C5E  4EB9 0000 28C0           jsr        [0x000028C0]
00001C64  206D 56D0                movea.l    A0, [A5 + 0x56D0]
00001C68  2248                     movea.l    A1, A0
00001C6A  2028 0004                move.l     D0, [A0 + 0x4]
00001C6E  2229 0014                move.l     D1, [A1 + 0x14]
00001C72  4EB9 0000 04B8           jsr        [0x000004B8]
00001C78  720A                     moveq.l    D1, 0x0A
00001C7A  E2A8                     lsr        D0, D1
00001C7C  2A00                     move.l     D5, D0
00001C7E  2D7C 4009 8000 FCC0      move.l     [A6 - 0x340], 0x40098000
00001C86  42AE FCC4                clr.l      [A6 - 0x33C]
00001C8A  426E FCC8                clr.w      [A6 - 0x338]
00001C8E  42AE FCB6                clr.l      [A6 - 0x34A]
00001C92  2D45 FCBA                move.l     [A6 - 0x346], D5
00001C96  486E FCB6                pea.l      [A6 - 0x34A]
00001C9A  486E FCB6                pea.l      [A6 - 0x34A]
00001C9E  3F3C 300E                move.w     -[A7], 0x300E
00001CA2  A9EB                     syscall    Pack4/FP68K
00001CA4  486E FCB6                pea.l      [A6 - 0x34A]
00001CA8  486E FCB6                pea.l      [A6 - 0x34A]
00001CAC  3F3C 0810                move.w     -[A7], 0x810
00001CB0  A9EB                     syscall    Pack4/FP68K
00001CB2  486E FCB6                pea.l      [A6 - 0x34A]
00001CB6  486E FCAC                pea.l      [A6 - 0x354]
00001CBA  3F3C 080E                move.w     -[A7], 0x80E
00001CBE  A9EB                     syscall    Pack4/FP68K
00001CC0  486E FCC0                pea.l      [A6 - 0x340]
00001CC4  486E FCAC                pea.l      [A6 - 0x354]
00001CC8  3F3C 0006                move.w     -[A7], 0x6
00001CCC  A9EB                     syscall    Pack4/FP68K
00001CCE  486E FCAC                pea.l      [A6 - 0x354]
00001CD2  486E FCCA                pea.l      [A6 - 0x336]
00001CD6  3F3C 0810                move.w     -[A7], 0x810
00001CDA  A9EB                     syscall    Pack4/FP68K
00001CDC  2D6E FCCA FFF0           move.l     [A6 - 0x10], [A6 - 0x336]
00001CE2  2D6E FCCE FFF4           move.l     [A6 - 0xC], [A6 - 0x332]
00001CE8  486A 0342                pea.l      [A2 + 0x342]
00001CEC  486E FCC0                pea.l      [A6 - 0x340]
00001CF0  3F3C 080E                move.w     -[A7], 0x80E
00001CF4  A9EB                     syscall    Pack4/FP68K
00001CF6  486E FFF0                pea.l      [A6 - 0x10]
00001CFA  486E FCC0                pea.l      [A6 - 0x340]
00001CFE  3F3C 0808                move.w     -[A7], 0x808
00001D02  A9EB                     syscall    Pack4/FP68K
00001D04  584F                     addq.w     A7, 4
00001D06  673E                     beq        +0x40 /* 00001D46 */
00001D08  256E FFF0 0342           move.l     [A2 + 0x342], [A6 - 0x10]
00001D0E  256E FFF4 0346           move.l     [A2 + 0x346], [A6 - 0xC]
00001D14  486D FD89                pea.l      [A5 - 0x277]
00001D18  2F3C 0008 0001           move.l     -[A7], 0x80001
00001D1E  2F2E FFF4                move.l     -[A7], [A6 - 0xC]
00001D22  2F2E FFF0                move.l     -[A7], [A6 - 0x10]
00001D26  486D FD88                pea.l      [A5 - 0x278]
00001D2A  486A 02CE                pea.l      [A2 + 0x2CE]
00001D2E  4EB9 0000 811A           jsr        [0x0000811A]
00001D34  377C 0012 0006           move.w     [A3 + 0x6], 0x12
00001D3A  2F0B                     move.l     -[A7], A3
00001D3C  4EB9 0000 28C0           jsr        [0x000028C0]
00001D42  4FEF 001C                lea.l      A7, [A7 + 0x1C]
label00001D46:
00001D46  2606                     move.l     D3, D6
00001D48  9685                     sub.l      D3, D5
00001D4A  486E FFF8                pea.l      [A6 - 0x8]
00001D4E  486E FCC0                pea.l      [A6 - 0x340]
00001D52  3F3C 080E                move.w     -[A7], 0x80E
00001D56  A9EB                     syscall    Pack4/FP68K
00001D58  486E FFF0                pea.l      [A6 - 0x10]
00001D5C  486E FCC0                pea.l      [A6 - 0x340]
00001D60  3F3C 0802                move.w     -[A7], 0x802
00001D64  A9EB                     syscall    Pack4/FP68K
00001D66  486E FCC0                pea.l      [A6 - 0x340]
00001D6A  486E FCCA                pea.l      [A6 - 0x336]
00001D6E  3F3C 0810                move.w     -[A7], 0x810
00001D72  A9EB                     syscall    Pack4/FP68K
00001D74  2D6E FCCA FFE8           move.l     [A6 - 0x18], [A6 - 0x336]
00001D7A  2D6E FCCE FFEC           move.l     [A6 - 0x14], [A6 - 0x332]
00001D80  486A 034A                pea.l      [A2 + 0x34A]
00001D84  486E FCC0                pea.l      [A6 - 0x340]
00001D88  3F3C 080E                move.w     -[A7], 0x80E
00001D8C  A9EB                     syscall    Pack4/FP68K
00001D8E  486E FFE8                pea.l      [A6 - 0x18]
00001D92  486E FCC0                pea.l      [A6 - 0x340]
00001D96  3F3C 0808                move.w     -[A7], 0x808
00001D9A  A9EB                     syscall    Pack4/FP68K
00001D9C  673E                     beq        +0x40 /* 00001DDC */
00001D9E  256E FFE8 034A           move.l     [A2 + 0x34A], [A6 - 0x18]
00001DA4  256E FFEC 034E           move.l     [A2 + 0x34E], [A6 - 0x14]
00001DAA  486D FD89                pea.l      [A5 - 0x277]
00001DAE  2F3C 0008 0001           move.l     -[A7], 0x80001
00001DB4  2F2E FFEC                move.l     -[A7], [A6 - 0x14]
00001DB8  2F2E FFE8                move.l     -[A7], [A6 - 0x18]
00001DBC  486D FD88                pea.l      [A5 - 0x278]
00001DC0  486A 02EF                pea.l      [A2 + 0x2EF]
00001DC4  4EB9 0000 811A           jsr        [0x0000811A]
00001DCA  377C 0013 0006           move.w     [A3 + 0x6], 0x13
00001DD0  2F0B                     move.l     -[A7], A3
00001DD2  4EB9 0000 28C0           jsr        [0x000028C0]
00001DD8  4FEF 001C                lea.l      A7, [A7 + 0x1C]
label00001DDC:
00001DDC  206D 56D0                movea.l    A0, [A5 + 0x56D0]
00001DE0  4A90                     tst.l      [A0]
00001DE2  6718                     beq        +0x1A /* 00001DFC */
00001DE4  2028 0004                move.l     D0, [A0 + 0x4]
00001DE8  7264                     moveq.l    D1, 0x64
00001DEA  4EB9 0000 04B8           jsr        [0x000004B8]
00001DF0  2210                     move.l     D1, [A0]
00001DF2  4EB9 0000 04D8           jsr        [0x000004D8]
00001DF8  2600                     move.l     D3, D0
00001DFA  6002                     bra        +0x4 /* 00001DFE */
label00001DFC:
00001DFC  7601                     moveq.l    D3, 0x01
label00001DFE:
00001DFE  4A83                     tst.l      D3
00001E00  6602                     bne        +0x4 /* 00001E04 */
00001E02  7601                     moveq.l    D3, 0x01
label00001E04:
00001E04  4A2A 0331                tst.b      [A2 + 0x331]
00001E08  6628                     bne        +0x2A /* 00001E32 */
00001E0A  4878 0064                push.l     0x64 /* 'd' */
00001E0E  2F2B 003A                move.l     -[A7], [A3 + 0x3A]
00001E12  2F2B 0036                move.l     -[A7], [A3 + 0x36]
00001E16  2F2D 56D4                move.l     -[A7], [A5 + 0x56D4]
00001E1A  4EB9 0000 7EFA           jsr        [0x00007EFA]
00001E20  157C 0001 0331           move.b     [A2 + 0x331], 0x1
00001E26  2F03                     move.l     -[A7], D3
00001E28  4EB9 0000 7F02           jsr        [0x00007F02]
00001E2E  4FEF 0014                lea.l      A7, [A7 + 0x14]
label00001E32:
00001E32  B6AA 0352                cmp.l      D3, [A2 + 0x352]
00001E36  671C                     beq        +0x1E /* 00001E54 */
00001E38  2543 0352                move.l     [A2 + 0x352], D3
00001E3C  2F03                     move.l     -[A7], D3
00001E3E  4EB9 0000 7F02           jsr        [0x00007F02]
00001E44  377C 0001 0006           move.w     [A3 + 0x6], 0x1
00001E4A  2F0B                     move.l     -[A7], A3
00001E4C  4EB9 0000 28C0           jsr        [0x000028C0]
00001E52  504F                     addq.w     A7, 8
label00001E54:
00001E54  4A85                     tst.l      D5
00001E56  6774                     beq        +0x76 /* 00001ECC */
00001E58  7014                     moveq.l    D0, 0x14
00001E5A  B880                     cmp.l      D4, D0
00001E5C  6F6E                     ble        +0x70 /* 00001ECC */
00001E5E  2004                     move.l     D0, D4
00001E60  2206                     move.l     D1, D6
00001E62  4EB9 0000 04B8           jsr        [0x000004B8]
00001E68  2205                     move.l     D1, D5
00001E6A  4EB9 0000 04D8           jsr        [0x000004D8]
00001E70  9084                     sub.l      D0, D4
00001E72  2E00                     move.l     D7, D0
00001E74  2007                     move.l     D0, D7
00001E76  723C                     moveq.l    D1, 0x3C
00001E78  4EB9 0000 0524           jsr        [0x00000524]
00001E7E  2600                     move.l     D3, D0
00001E80  B6AA 0356                cmp.l      D3, [A2 + 0x356]
00001E84  6746                     beq        +0x48 /* 00001ECC */
00001E86  2543 0356                move.l     [A2 + 0x356], D3
00001E8A  7001                     moveq.l    D0, 0x01
00001E8C  B680                     cmp.l      D3, D0
00001E8E  6F1C                     ble        +0x1E /* 00001EAC */
00001E90  486D FD97                pea.l      [A5 - 0x269]
00001E94  4267                     clr.w      -[A7]
00001E96  2F03                     move.l     -[A7], D3
00001E98  486D FD90                pea.l      [A5 - 0x270]
00001E9C  486A 02AD                pea.l      [A2 + 0x2AD]
00001EA0  4EB9 0000 8112           jsr        [0x00008112]
00001EA6  4FEF 0012                lea.l      A7, [A7 + 0x12]
00001EAA  6010                     bra        +0x12 /* 00001EBC */
label00001EAC:
00001EAC  486D FDA0                pea.l      [A5 - 0x260]
00001EB0  486A 02AD                pea.l      [A2 + 0x2AD]
00001EB4  4EB9 0000 8102           jsr        [0x00008102]
00001EBA  504F                     addq.w     A7, 8
label00001EBC:
00001EBC  377C 000E 0006           move.w     [A3 + 0x6], 0xE
00001EC2  2F0B                     move.l     -[A7], A3
00001EC4  4EB9 0000 28C0           jsr        [0x000028C0]
00001ECA  584F                     addq.w     A7, 4
label00001ECC:
00001ECC  4A84                     tst.l      D4
00001ECE  6F00 013A                ble        +0x13C /* 0000200A */
00001ED2  2D44 FCC0                move.l     [A6 - 0x340], D4
00001ED6  486E FCC0                pea.l      [A6 - 0x340]
00001EDA  486E FCC0                pea.l      [A6 - 0x340]
00001EDE  3F3C 280E                move.w     -[A7], 0x280E
00001EE2  A9EB                     syscall    Pack4/FP68K
00001EE4  486E FCC0                pea.l      [A6 - 0x340]
00001EE8  486E FCC0                pea.l      [A6 - 0x340]
00001EEC  3F3C 0810                move.w     -[A7], 0x810
00001EF0  A9EB                     syscall    Pack4/FP68K
00001EF2  42AE FCB6                clr.l      [A6 - 0x34A]
00001EF6  2D45 FCBA                move.l     [A6 - 0x346], D5
00001EFA  486E FCB6                pea.l      [A6 - 0x34A]
00001EFE  486E FCB6                pea.l      [A6 - 0x34A]
00001F02  3F3C 300E                move.w     -[A7], 0x300E
00001F06  A9EB                     syscall    Pack4/FP68K
00001F08  486E FCB6                pea.l      [A6 - 0x34A]
00001F0C  486E FCB6                pea.l      [A6 - 0x34A]
00001F10  3F3C 0810                move.w     -[A7], 0x810
00001F14  A9EB                     syscall    Pack4/FP68K
00001F16  486E FCB6                pea.l      [A6 - 0x34A]
00001F1A  486E FCAC                pea.l      [A6 - 0x354]
00001F1E  3F3C 080E                move.w     -[A7], 0x80E
00001F22  A9EB                     syscall    Pack4/FP68K
00001F24  486E FCC0                pea.l      [A6 - 0x340]
00001F28  486E FCAC                pea.l      [A6 - 0x354]
00001F2C  3F3C 0806                move.w     -[A7], 0x806
00001F30  A9EB                     syscall    Pack4/FP68K
00001F32  486E FCAC                pea.l      [A6 - 0x354]
00001F36  486E FCCA                pea.l      [A6 - 0x336]
00001F3A  3F3C 0810                move.w     -[A7], 0x810
00001F3E  A9EB                     syscall    Pack4/FP68K
00001F40  2D6E FCCA FFE0           move.l     [A6 - 0x20], [A6 - 0x336]
00001F46  2D6E FCCE FFE4           move.l     [A6 - 0x1C], [A6 - 0x332]
00001F4C  2D7C 4090 0000 FCCA      move.l     [A6 - 0x336], 0x40900000
00001F54  42AE FCCE                clr.l      [A6 - 0x332]
00001F58  486E FFE0                pea.l      [A6 - 0x20]
00001F5C  486E FCC0                pea.l      [A6 - 0x340]
00001F60  3F3C 080E                move.w     -[A7], 0x80E
00001F64  A9EB                     syscall    Pack4/FP68K
00001F66  486E FCCA                pea.l      [A6 - 0x336]
00001F6A  486E FCC0                pea.l      [A6 - 0x340]
00001F6E  3F3C 0808                move.w     -[A7], 0x808
00001F72  A9EB                     syscall    Pack4/FP68K
00001F74  6F60                     ble        +0x62 /* 00001FD6 */
00001F76  486D FDB3                pea.l      [A5 - 0x24D]
00001F7A  2F3C 0008 0001           move.l     -[A7], 0x80001
00001F80  2D7C 4009 8000 FCC0      move.l     [A6 - 0x340], 0x40098000
00001F88  42AE FCC4                clr.l      [A6 - 0x33C]
00001F8C  426E FCC8                clr.w      [A6 - 0x338]
00001F90  486E FFE0                pea.l      [A6 - 0x20]
00001F94  486E FCB6                pea.l      [A6 - 0x34A]
00001F98  3F3C 080E                move.w     -[A7], 0x80E
00001F9C  A9EB                     syscall    Pack4/FP68K
00001F9E  486E FCC0                pea.l      [A6 - 0x340]
00001FA2  486E FCB6                pea.l      [A6 - 0x34A]
00001FA6  3F3C 0006                move.w     -[A7], 0x6
00001FAA  A9EB                     syscall    Pack4/FP68K
00001FAC  486E FCB6                pea.l      [A6 - 0x34A]
00001FB0  486E FCCA                pea.l      [A6 - 0x336]
00001FB4  3F3C 0810                move.w     -[A7], 0x810
00001FB8  A9EB                     syscall    Pack4/FP68K
00001FBA  2F2E FCCE                move.l     -[A7], [A6 - 0x332]
00001FBE  2F2E FCCA                move.l     -[A7], [A6 - 0x336]
00001FC2  486D FD88                pea.l      [A5 - 0x278]
00001FC6  486A 0310                pea.l      [A2 + 0x310]
00001FCA  4EB9 0000 811A           jsr        [0x0000811A]
00001FD0  4FEF 0018                lea.l      A7, [A7 + 0x18]
00001FD4  6024                     bra        +0x26 /* 00001FFA */
label00001FD6:
00001FD6  486D FDBA                pea.l      [A5 - 0x246]
00001FDA  2F3C 0008 0000           move.l     -[A7], 0x80000
00001FE0  2F2E FFE4                move.l     -[A7], [A6 - 0x1C]
00001FE4  2F2E FFE0                move.l     -[A7], [A6 - 0x20]
00001FE8  486D FD88                pea.l      [A5 - 0x278]
00001FEC  486A 0310                pea.l      [A2 + 0x310]
00001FF0  4EB9 0000 811A           jsr        [0x0000811A]
00001FF6  4FEF 0018                lea.l      A7, [A7 + 0x18]
label00001FFA:
00001FFA  377C 0014 0006           move.w     [A3 + 0x6], 0x14
00002000  2F0B                     move.l     -[A7], A3
00002002  4EB9 0000 28C0           jsr        [0x000028C0]
00002008  584F                     addq.w     A7, 4
label0000200A:
0000200A  376E FCDE 0006           move.w     [A3 + 0x6], [A6 - 0x322]
00002010  2F2E FCDA                move.l     -[A7], [A6 - 0x326]
00002014  A873                     syscall    SetPort
label00002016:
00002016  4CDF 0CF8                movem.l    D3,D4,D5,D6,D7,A2,A3, [A7]+
0000201A  4E5E                     unlink     A6
0000201C  4E75                     rts
0000201E  4E56 FBCE                link       A6, -0x0432
00002022  48E7 1C38                movem.l    -[A7], D3,D4,D5,A2,A3,A4
00002026  47ED FDC0                lea.l      A3, [A5 - 0x240]
0000202A  49ED FDD4                lea.l      A4, [A5 - 0x22C]
0000202E  95CA                     sub.l      A2, A2
00002030  4AAD 56D0                tst.l      [A5 + 0x56D0]
00002034  670A                     beq        +0xC /* 00002040 */
00002036  2F2D 56D4                move.l     -[A7], [A5 + 0x56D4]
0000203A  A91F                     syscall    SelectWindow
0000203C  6000 02EE                bra        +0x2F0 /* 0000232C */
label00002040:
00002040  703E                     moveq.l    D0, 0x3E
00002042  A31E                     syscall    NewPtrClear, flags=3
00002044  2B48 56D0                move.l     [A5 + 0x56D0], A0
00002048  486E FDC2                pea.l      [A6 - 0x23E]
0000204C  486E FDBE                pea.l      [A6 - 0x242]
00002050  486E FC72                pea.l      [A6 - 0x38E]
00002054  486E FF12                pea.l      [A6 - 0xEE]
00002058  486D FDEC                pea.l      [A5 - 0x214]
0000205C  4EB9 0000 800A           jsr        [0x0000800A]
00002062  0C40 5A00                cmpi.w     D0, 0x5A00 /* 'Z\0' */
00002066  4FEF 0014                lea.l      A7, [A7 + 0x14]
0000206A  6706                     beq        +0x8 /* 00002072 */
0000206C  7601                     moveq.l    D3, 0x01
0000206E  6000 02A4                bra        +0x2A6 /* 00002314 */
label00002072:
00002072  0C2E 0001 FDC2           cmpi.b     [A6 - 0x23E], 0x1
00002078  6706                     beq        +0x8 /* 00002080 */
0000207A  7601                     moveq.l    D3, 0x01
0000207C  6000 0296                bra        +0x298 /* 00002314 */
label00002080:
00002080  4A2E FDCC                tst.b      [A6 - 0x234]
00002084  6606                     bne        +0x8 /* 0000208C */
00002086  383C 5A00                move.w     D4, 0x5A00 /* 'Z\0' */
0000208A  6004                     bra        +0x6 /* 00002090 */
label0000208C:
0000208C  383C 59FF                move.w     D4, 0x59FF
label00002090:
00002090  0C44 5A00                cmpi.w     D4, 0x5A00 /* 'Z\0' */
00002094  6712                     beq        +0x14 /* 000020A8 */
00002096  486E FF80                pea.l      [A6 - 0x80]
0000209A  486E FDCC                pea.l      [A6 - 0x234]
0000209E  4EB9 0000 80B2           jsr        [0x000080B2]
000020A4  504F                     addq.w     A7, 8
000020A6  604C                     bra        +0x4E /* 000020F4 */
label000020A8:
000020A8  422E FF80                clr.b      [A6 - 0x80]
000020AC  42AE FF20                clr.l      [A6 - 0xE0]
000020B0  41EE FF80                lea.l      A0, [A6 - 0x80]
000020B4  2D48 FF26                move.l     [A6 - 0xDA], A0
000020B8  3D6E FF12 FF2A           move.w     [A6 - 0xD6], [A6 - 0xEE]
000020BE  3D7C FFFF FF30           move.w     [A6 - 0xD0], 0xFFFF
000020C4  2D6E FDBE FF44           move.l     [A6 - 0xBC], [A6 - 0x242]
000020CA  41EE FF14                lea.l      A0, [A6 - 0xEC]
000020CE  7009                     moveq.l    D0, 0x09
000020D0  A260                     syscall    FSDispatch/HFSDispatch, flags=2
000020D2  3600                     move.w     D3, D0
000020D4  4A43                     tst.w      D3
000020D6  671C                     beq        +0x1E /* 000020F4 */
000020D8  486D FE40                pea.l      [A5 - 0x1C0]
000020DC  486D FE0C                pea.l      [A5 - 0x1F4]
000020E0  2F0C                     move.l     -[A7], A4
000020E2  2F0B                     move.l     -[A7], A3
000020E4  4EB9 0000 7D12           jsr        [0x00007D12]
000020EA  7600                     moveq.l    D3, 0x00
000020EC  4FEF 0010                lea.l      A7, [A7 + 0x10]
000020F0  6000 0222                bra        +0x224 /* 00002314 */
label000020F4:
000020F4  486E FC2A                pea.l      [A6 - 0x3D6]
000020F8  486E FC2E                pea.l      [A6 - 0x3D2]
000020FC  486E FC24                pea.l      [A6 - 0x3DC]
00002100  486E FC20                pea.l      [A6 - 0x3E0]
00002104  486E FC28                pea.l      [A6 - 0x3D8]
00002108  486E FC32                pea.l      [A6 - 0x3CE]
0000210C  3F2E FF12                move.w     -[A7], [A6 - 0xEE]
00002110  4EB9 0000 1648           jsr        [0x00001648]
00002116  0C40 5A00                cmpi.w     D0, 0x5A00 /* 'Z\0' */
0000211A  4FEF 001A                lea.l      A7, [A7 + 0x1A]
0000211E  671C                     beq        +0x1E /* 0000213C */
00002120  486D FE40                pea.l      [A5 - 0x1C0]
00002124  486D FE4C                pea.l      [A5 - 0x1B4]
00002128  2F0C                     move.l     -[A7], A4
0000212A  2F0B                     move.l     -[A7], A3
0000212C  4EB9 0000 7D12           jsr        [0x00007D12]
00002132  7601                     moveq.l    D3, 0x01
00002134  4FEF 0010                lea.l      A7, [A7 + 0x10]
00002138  6000 01DA                bra        +0x1DC /* 00002314 */
label0000213C:
0000213C  486E FFC0                pea.l      [A6 - 0x40]
00002140  486E FF80                pea.l      [A6 - 0x80]
00002144  4EB9 0000 16DA           jsr        [0x000016DA]
0000214A  486E FC74                pea.l      [A6 - 0x38C]
0000214E  486D FE99                pea.l      [A5 - 0x167]
00002152  4EB9 0000 80B2           jsr        [0x000080B2]
00002158  486E FD74                pea.l      [A6 - 0x28C]
0000215C  486E FFC0                pea.l      [A6 - 0x40]
00002160  486E FC74                pea.l      [A6 - 0x38C]
00002164  4EB9 0000 8012           jsr        [0x00008012]
0000216A  5300                     subq.b     D0, 1
0000216C  4FEF 001C                lea.l      A7, [A7 + 0x1C]
00002170  6706                     beq        +0x8 /* 00002178 */
00002172  7601                     moveq.l    D3, 0x01
00002174  6000 019E                bra        +0x1A0 /* 00002314 */
label00002178:
00002178  0C2E 0001 FD74           cmpi.b     [A6 - 0x28C], 0x1
0000217E  6706                     beq        +0x8 /* 00002186 */
00002180  7601                     moveq.l    D3, 0x01
00002182  6000 0190                bra        +0x192 /* 00002314 */
label00002186:
00002186  486E FF0C                pea.l      [A6 - 0xF4]
0000218A  486E FF10                pea.l      [A6 - 0xF0]
0000218E  4EB9 0000 8002           jsr        [0x00008002]
00002194  486E FFC0                pea.l      [A6 - 0x40]
00002198  486E FD7E                pea.l      [A6 - 0x282]
0000219C  4EB9 0000 80B2           jsr        [0x000080B2]
000021A2  362E FD7A                move.w     D3, [A6 - 0x286]
000021A6  486E FBD8                pea.l      [A6 - 0x428]
000021AA  486E FBDC                pea.l      [A6 - 0x424]
000021AE  486E FBD2                pea.l      [A6 - 0x42E]
000021B2  486E FBCE                pea.l      [A6 - 0x432]
000021B6  486E FBD6                pea.l      [A6 - 0x42A]
000021BA  486E FBE0                pea.l      [A6 - 0x420]
000021BE  3F2E FF10                move.w     -[A7], [A6 - 0xF0]
000021C2  4EB9 0000 1648           jsr        [0x00001648]
000021C8  0C40 5A00                cmpi.w     D0, 0x5A00 /* 'Z\0' */
000021CC  4FEF 002A                lea.l      A7, [A7 + 0x2A]
000021D0  671C                     beq        +0x1E /* 000021EE */
000021D2  486D FE40                pea.l      [A5 - 0x1C0]
000021D6  486D FE4C                pea.l      [A5 - 0x1B4]
000021DA  2F0C                     move.l     -[A7], A4
000021DC  2F0B                     move.l     -[A7], A3
000021DE  4EB9 0000 7D12           jsr        [0x00007D12]
000021E4  7601                     moveq.l    D3, 0x01
000021E6  4FEF 0010                lea.l      A7, [A7 + 0x10]
000021EA  6000 0128                bra        +0x12A /* 00002314 */
label000021EE:
000021EE  2A3C 0006 4000           move.l     D5, 0x64000
000021F4  2005                     move.l     D0, D5
000021F6  A11E                     syscall    NewPtr, flags=1
000021F8  2448                     movea.l    A2, A0
000021FA  200A                     move.l     D0, A2
000021FC  6610                     bne        +0x12 /* 0000220E */
000021FE  486D FEBC                pea.l      [A5 - 0x144]
00002202  4EB9 0000 7FB2           jsr        [0x00007FB2]
00002208  584F                     addq.w     A7, 4
0000220A  6000 0108                bra        +0x10A /* 00002314 */
label0000220E:
0000220E  0C44 5A00                cmpi.w     D4, 0x5A00 /* 'Z\0' */
00002212  6772                     beq        +0x74 /* 00002286 */
00002214  42AD 56D4                clr.l      [A5 + 0x56D4]
00002218  486D FF07                pea.l      [A5 - 0xF9]
0000221C  486E FE0C                pea.l      [A6 - 0x1F4]
00002220  4EB9 0000 8102           jsr        [0x00008102]
00002226  486E FFC0                pea.l      [A6 - 0x40]
0000222A  486E FE0C                pea.l      [A6 - 0x1F4]
0000222E  4EB9 0000 80D2           jsr        [0x000080D2]
00002234  486D FF10                pea.l      [A5 - 0xF0]
00002238  486E FE0C                pea.l      [A6 - 0x1F4]
0000223C  4EB9 0000 80D2           jsr        [0x000080D2]
00002242  486E FE0C                pea.l      [A6 - 0x1F4]
00002246  4EB9 0000 7FCA           jsr        [0x00007FCA]
0000224C  3F2E FF12                move.w     -[A7], [A6 - 0xEE]
00002250  2F2E FDBE                move.l     -[A7], [A6 - 0x242]
00002254  486E FF80                pea.l      [A6 - 0x80]
00002258  3F2E FF10                move.w     -[A7], [A6 - 0xF0]
0000225C  2F2E FF0C                move.l     -[A7], [A6 - 0xF4]
00002260  42A7                     clr.l      -[A7]
00002262  486E FFC0                pea.l      [A6 - 0x40]
00002266  2F0A                     move.l     -[A7], A2
00002268  2F05                     move.l     -[A7], D5
0000226A  1F3C 0001                move.b     -[A7], 0x1
0000226E  4EB9 0000 07AA           jsr        [0x000007AA]
00002274  301F                     move.w     D0, [A7]+
00002276  3600                     move.w     D3, D0
00002278  4EB9 0000 7FC2           jsr        [0x00007FC2]
0000227E  4FEF 001A                lea.l      A7, [A7 + 0x1A]
00002282  6000 0090                bra        +0x92 /* 00002314 */
label00002286:
00002286  486E FFC0                pea.l      [A6 - 0x40]
0000228A  486E FF80                pea.l      [A6 - 0x80]
0000228E  4EB9 0000 8172           jsr        [0x00008172]
00002294  0C40 5A00                cmpi.w     D0, 0x5A00 /* 'Z\0' */
00002298  504F                     addq.w     A7, 8
0000229A  671C                     beq        +0x1E /* 000022B8 */
0000229C  554F                     subq.w     A7, 2
0000229E  3F2E FF10                move.w     -[A7], [A6 - 0xF0]
000022A2  2F2E FF0C                move.l     -[A7], [A6 - 0xF4]
000022A6  486E FFC0                pea.l      [A6 - 0x40]
000022AA  486E FF0C                pea.l      [A6 - 0xF4]
000022AE  4EB9 0000 7BAA           jsr        [0x00007BAA]
000022B4  301F                     move.w     D0, [A7]+
000022B6  3600                     move.w     D3, D0
label000022B8:
000022B8  4EB9 0000 233E           jsr        [0x0000233E]
000022BE  2B48 56D4                move.l     [A5 + 0x56D4], A0
000022C2  4EB9 0000 81A2           jsr        [0x000081A2]
000022C8  206D 56D0                movea.l    A0, [A5 + 0x56D0]
000022CC  2140 0018                move.l     [A0 + 0x18], D0
000022D0  554F                     subq.w     A7, 2
000022D2  3F2E FF12                move.w     -[A7], [A6 - 0xEE]
000022D6  2F2E FDBE                move.l     -[A7], [A6 - 0x242]
000022DA  42A7                     clr.l      -[A7]
000022DC  3F2E FF10                move.w     -[A7], [A6 - 0xF0]
000022E0  2F2E FF0C                move.l     -[A7], [A6 - 0xF4]
000022E4  42A7                     clr.l      -[A7]
000022E6  2F0A                     move.l     -[A7], A2
000022E8  2F05                     move.l     -[A7], D5
000022EA  1F3C 0001                move.b     -[A7], 0x1
000022EE  4879 0000 73CA           push.l     0x73CA
000022F4  4EB9 0000 0386           jsr        [0x00000386 /* PMSPPtr */]
000022FA  301F                     move.w     D0, [A7]+
000022FC  3600                     move.w     D3, D0
000022FE  486D FF15                pea.l      [A5 - 0xEB]
00002302  4EB9 0000 7FB2           jsr        [0x00007FB2]
00002308  2F2D 56D4                move.l     -[A7], [A5 + 0x56D4]
0000230C  4EB9 0000 2E58           jsr        [0x00002E58]
00002312  504F                     addq.w     A7, 8
label00002314:
00002314  200A                     move.l     D0, A2
00002316  6704                     beq        +0x6 /* 0000231C */
00002318  204A                     movea.l    A0, A2
0000231A  A01F                     syscall    DisposPtr/DisposePtr
label0000231C:
0000231C  4AAD 56D0                tst.l      [A5 + 0x56D0]
00002320  670A                     beq        +0xC /* 0000232C */
00002322  206D 56D0                movea.l    A0, [A5 + 0x56D0]
00002326  A01F                     syscall    DisposPtr/DisposePtr
00002328  42AD 56D0                clr.l      [A5 + 0x56D0]
label0000232C:
0000232C  4EB9 0000 7FC2           jsr        [0x00007FC2]
00002332  4CDF 1C38                movem.l    D3,D4,D5,A2,A3,A4, [A7]+
00002336  4E5E                     unlink     A6
00002338  4E75                     rts
0000233A  4E56 FFF2                link       A6, -0x000E
0000233E  48E7 1038                movem.l    -[A7], D3,A2,A3,A4
00002342  203C 0000 04F4           move.l     D0, 0x4F4
00002348  A31E                     syscall    NewPtrClear, flags=3
0000234A  2448                     movea.l    A2, A0
0000234C  554F                     subq.w     A7, 2
0000234E  3EB8 0220                move.w     [A7], [0x00000220 /* MemErr */]
00002352  301F                     move.w     D0, [A7]+
00002354  6706                     beq        +0x8 /* 0000235C */
00002356  91C8                     sub.l      A0, A0
00002358  6000 054A                bra        +0x54C /* 000028A4 */
label0000235C:
0000235C  594F                     subq.w     A7, 4
0000235E  3F3C 1B62                move.w     -[A7], 0x1B62
00002362  42A7                     clr.l      -[A7]
00002364  4878 FFFF                push.l     0xFFFF
00002368  A97C                     syscall    GetNewDialog
0000236A  205F                     movea.l    A0, [A7]+
0000236C  2648                     movea.l    A3, A0
0000236E  4EB9 0000 7D62           jsr        [0x00007D62]
00002374  7202                     moveq.l    D1, 0x02
00002376  B081                     cmp.l      D0, D1
00002378  6F1C                     ble        +0x1E /* 00002396 */
0000237A  0C2D 0001 68B1           cmpi.b     [A5 + 0x68B1], 0x1
00002380  6614                     bne        +0x16 /* 00002396 */
00002382  594F                     subq.w     A7, 4
00002384  3F3C 1B62                move.w     -[A7], 0x1B62
00002388  2F0A                     move.l     -[A7], A2
0000238A  4878 FFFF                push.l     0xFFFF
0000238E  AA46                     syscall    GetNewCWindow
00002390  205F                     movea.l    A0, [A7]+
00002392  2608                     move.l     D3, A0
00002394  6012                     bra        +0x14 /* 000023A8 */
label00002396:
00002396  594F                     subq.w     A7, 4
00002398  3F3C 1B62                move.w     -[A7], 0x1B62
0000239C  2F0A                     move.l     -[A7], A2
0000239E  4878 FFFF                push.l     0xFFFF
000023A2  A9BD                     syscall    GetNewWindow
000023A4  205F                     movea.l    A0, [A7]+
000023A6  2608                     move.l     D3, A0
label000023A8:
000023A8  2F03                     move.l     -[A7], D3
000023AA  A873                     syscall    SetPort
000023AC  2043                     movea.l    A0, D3
000023AE  4868 0010                pea.l      [A0 + 0x10]
000023B2  A928                     syscall    InvalRect
000023B4  203C 0000 035C           move.l     D0, 0x35C
000023BA  A31E                     syscall    NewPtrClear, flags=3
000023BC  2848                     movea.l    A4, A0
000023BE  4879 0000 740A           push.l     0x740A /* 't\n' */
000023C4  4879 0000 7402           push.l     0x7402
000023CA  4879 0000 73FA           push.l     0x73FA
000023D0  4879 0000 73F2           push.l     0x73F2
000023D6  4879 0000 73EA           push.l     0x73EA
000023DC  4879 0000 73E2           push.l     0x73E2
000023E2  4879 0000 73DA           push.l     0x73DA
000023E8  2F0C                     move.l     -[A7], A4
000023EA  4267                     clr.w      -[A7]
000023EC  2F03                     move.l     -[A7], D3
000023EE  486A 0184                pea.l      [A2 + 0x184]
000023F2  4EB9 0000 81EA           jsr        [0x000081EA]
000023F8  2F0B                     move.l     -[A7], A3
000023FA  3F3C 0001                move.w     -[A7], 0x1
000023FE  486E FFF2                pea.l      [A6 - 0xE]
00002402  486E FFF4                pea.l      [A6 - 0xC]
00002406  486E FFF8                pea.l      [A6 - 0x8]
0000240A  A98D                     syscall    GetDialogItem/GetDItem
0000240C  42A7                     clr.l      -[A7]
0000240E  2F2E FFFC                move.l     -[A7], [A6 - 0x4]
00002412  2F2E FFF8                move.l     -[A7], [A6 - 0x8]
00002416  4267                     clr.w      -[A7]
00002418  486A 0184                pea.l      [A2 + 0x184]
0000241C  4EB9 0000 81FA           jsr        [0x000081FA]
00002422  2F0B                     move.l     -[A7], A3
00002424  3F3C 0002                move.w     -[A7], 0x2
00002428  486E FFF2                pea.l      [A6 - 0xE]
0000242C  486E FFF4                pea.l      [A6 - 0xC]
00002430  486E FFF8                pea.l      [A6 - 0x8]
00002434  A98D                     syscall    GetDialogItem/GetDItem
00002436  42A7                     clr.l      -[A7]
00002438  2F2E FFFC                move.l     -[A7], [A6 - 0x4]
0000243C  2F2E FFF8                move.l     -[A7], [A6 - 0x8]
00002440  3F3C 0001                move.w     -[A7], 0x1
00002444  486A 0184                pea.l      [A2 + 0x184]
00002448  4EB9 0000 81FA           jsr        [0x000081FA]
0000244E  2F0B                     move.l     -[A7], A3
00002450  3F3C 0003                move.w     -[A7], 0x3
00002454  486E FFF2                pea.l      [A6 - 0xE]
00002458  486E FFF4                pea.l      [A6 - 0xC]
0000245C  486E FFF8                pea.l      [A6 - 0x8]
00002460  A98D                     syscall    GetDialogItem/GetDItem
00002462  42A7                     clr.l      -[A7]
00002464  2F2E FFFC                move.l     -[A7], [A6 - 0x4]
00002468  2F2E FFF8                move.l     -[A7], [A6 - 0x8]
0000246C  3F3C 0002                move.w     -[A7], 0x2
00002470  486A 0184                pea.l      [A2 + 0x184]
00002474  4EB9 0000 81FA           jsr        [0x000081FA]
0000247A  2F0B                     move.l     -[A7], A3
0000247C  3F3C 0004                move.w     -[A7], 0x4
00002480  486E FFF2                pea.l      [A6 - 0xE]
00002484  486E FFF4                pea.l      [A6 - 0xC]
00002488  486E FFF8                pea.l      [A6 - 0x8]
0000248C  A98D                     syscall    GetDialogItem/GetDItem
0000248E  42A7                     clr.l      -[A7]
00002490  2F2E FFFC                move.l     -[A7], [A6 - 0x4]
00002494  2F2E FFF8                move.l     -[A7], [A6 - 0x8]
00002498  3F3C 0003                move.w     -[A7], 0x3
0000249C  486A 0184                pea.l      [A2 + 0x184]
000024A0  4EB9 0000 81FA           jsr        [0x000081FA]
000024A6  2F0B                     move.l     -[A7], A3
000024A8  3F3C 0005                move.w     -[A7], 0x5
000024AC  486E FFF2                pea.l      [A6 - 0xE]
000024B0  486E FFF4                pea.l      [A6 - 0xC]
000024B4  486E FFF8                pea.l      [A6 - 0x8]
000024B8  A98D                     syscall    GetDialogItem/GetDItem
000024BA  2F2E FFF4                move.l     -[A7], [A6 - 0xC]
000024BE  2F0C                     move.l     -[A7], A4
000024C0  A990                     syscall    GetDialogItemText/GetIText
000024C2  42A7                     clr.l      -[A7]
000024C4  2F2E FFFC                move.l     -[A7], [A6 - 0x4]
000024C8  2F2E FFF8                move.l     -[A7], [A6 - 0x8]
000024CC  3F3C 0004                move.w     -[A7], 0x4
000024D0  486A 0184                pea.l      [A2 + 0x184]
000024D4  4EB9 0000 81FA           jsr        [0x000081FA]
000024DA  2F0B                     move.l     -[A7], A3
000024DC  3F3C 0006                move.w     -[A7], 0x6
000024E0  486E FFF2                pea.l      [A6 - 0xE]
000024E4  486E FFF4                pea.l      [A6 - 0xC]
000024E8  486E FFF8                pea.l      [A6 - 0x8]
000024EC  A98D                     syscall    GetDialogItem/GetDItem
000024EE  2F2E FFF4                move.l     -[A7], [A6 - 0xC]
000024F2  486C 0021                pea.l      [A4 + 0x21]
000024F6  A990                     syscall    GetDialogItemText/GetIText
000024F8  42A7                     clr.l      -[A7]
000024FA  2F2E FFFC                move.l     -[A7], [A6 - 0x4]
000024FE  2F2E FFF8                move.l     -[A7], [A6 - 0x8]
00002502  3F3C 0005                move.w     -[A7], 0x5
00002506  486A 0184                pea.l      [A2 + 0x184]
0000250A  4EB9 0000 81FA           jsr        [0x000081FA]
00002510  2F0B                     move.l     -[A7], A3
00002512  3F3C 0007                move.w     -[A7], 0x7
00002516  486E FFF2                pea.l      [A6 - 0xE]
0000251A  486E FFF4                pea.l      [A6 - 0xC]
0000251E  486E FFF8                pea.l      [A6 - 0x8]
00002522  A98D                     syscall    GetDialogItem/GetDItem
00002524  2F2E FFF4                move.l     -[A7], [A6 - 0xC]
00002528  486C 0042                pea.l      [A4 + 0x42]
0000252C  A990                     syscall    GetDialogItemText/GetIText
0000252E  42A7                     clr.l      -[A7]
00002530  2F2E FFFC                move.l     -[A7], [A6 - 0x4]
00002534  2F2E FFF8                move.l     -[A7], [A6 - 0x8]
00002538  3F3C 0006                move.w     -[A7], 0x6
0000253C  486A 0184                pea.l      [A2 + 0x184]
00002540  4EB9 0000 81FA           jsr        [0x000081FA]
00002546  2F0B                     move.l     -[A7], A3
00002548  3F3C 0008                move.w     -[A7], 0x8
0000254C  486E FFF2                pea.l      [A6 - 0xE]
00002550  486E FFF4                pea.l      [A6 - 0xC]
00002554  486E FFF8                pea.l      [A6 - 0x8]
00002558  A98D                     syscall    GetDialogItem/GetDItem
0000255A  2F2E FFF4                move.l     -[A7], [A6 - 0xC]
0000255E  486C 0063                pea.l      [A4 + 0x63]
00002562  A990                     syscall    GetDialogItemText/GetIText
00002564  42A7                     clr.l      -[A7]
00002566  2F2E FFFC                move.l     -[A7], [A6 - 0x4]
0000256A  2F2E FFF8                move.l     -[A7], [A6 - 0x8]
0000256E  3F3C 0007                move.w     -[A7], 0x7
00002572  486A 0184                pea.l      [A2 + 0x184]
00002576  4EB9 0000 81FA           jsr        [0x000081FA]
0000257C  2F0B                     move.l     -[A7], A3
0000257E  3F3C 0009                move.w     -[A7], 0x9 /* '\t' */
00002582  486E FFF2                pea.l      [A6 - 0xE]
00002586  486E FFF4                pea.l      [A6 - 0xC]
0000258A  486E FFF8                pea.l      [A6 - 0x8]
0000258E  A98D                     syscall    GetDialogItem/GetDItem
00002590  2F2E FFF4                move.l     -[A7], [A6 - 0xC]
00002594  486C 0084                pea.l      [A4 + 0x84]
00002598  A990                     syscall    GetDialogItemText/GetIText
0000259A  42A7                     clr.l      -[A7]
0000259C  2F2E FFFC                move.l     -[A7], [A6 - 0x4]
000025A0  2F2E FFF8                move.l     -[A7], [A6 - 0x8]
000025A4  3F3C 0008                move.w     -[A7], 0x8
000025A8  486A 0184                pea.l      [A2 + 0x184]
000025AC  4EB9 0000 81FA           jsr        [0x000081FA]
000025B2  2F0B                     move.l     -[A7], A3
000025B4  3F3C 000A                move.w     -[A7], 0xA /* '\n' */
000025B8  486E FFF2                pea.l      [A6 - 0xE]
000025BC  486E FFF4                pea.l      [A6 - 0xC]
000025C0  486E FFF8                pea.l      [A6 - 0x8]
000025C4  A98D                     syscall    GetDialogItem/GetDItem
000025C6  42A7                     clr.l      -[A7]
000025C8  2F2E FFFC                move.l     -[A7], [A6 - 0x4]
000025CC  2F2E FFF8                move.l     -[A7], [A6 - 0x8]
000025D0  3F3C 0009                move.w     -[A7], 0x9 /* '\t' */
000025D4  486A 0184                pea.l      [A2 + 0x184]
000025D8  4EB9 0000 81FA           jsr        [0x000081FA]
000025DE  2F0B                     move.l     -[A7], A3
000025E0  3F3C 000B                move.w     -[A7], 0xB
000025E4  486E FFF2                pea.l      [A6 - 0xE]
000025E8  486E FFF4                pea.l      [A6 - 0xC]
000025EC  486E FFF8                pea.l      [A6 - 0x8]
000025F0  A98D                     syscall    GetDialogItem/GetDItem
000025F2  42A7                     clr.l      -[A7]
000025F4  2F2E FFFC                move.l     -[A7], [A6 - 0x4]
000025F8  2F2E FFF8                move.l     -[A7], [A6 - 0x8]
000025FC  3F3C 000A                move.w     -[A7], 0xA /* '\n' */
00002600  486A 0184                pea.l      [A2 + 0x184]
00002604  4EB9 0000 81FA           jsr        [0x000081FA]
0000260A  2F0B                     move.l     -[A7], A3
0000260C  3F3C 000C                move.w     -[A7], 0xC
00002610  486E FFF2                pea.l      [A6 - 0xE]
00002614  486E FFF4                pea.l      [A6 - 0xC]
00002618  486E FFF8                pea.l      [A6 - 0x8]
0000261C  A98D                     syscall    GetDialogItem/GetDItem
0000261E  42A7                     clr.l      -[A7]
00002620  2F2E FFFC                move.l     -[A7], [A6 - 0x4]
00002624  2F2E FFF8                move.l     -[A7], [A6 - 0x8]
00002628  3F3C 000B                move.w     -[A7], 0xB
0000262C  486A 0184                pea.l      [A2 + 0x184]
00002630  4EB9 0000 81FA           jsr        [0x000081FA]
00002636  2F0B                     move.l     -[A7], A3
00002638  3F3C 000D                move.w     -[A7], 0xD /* '\r' */
0000263C  486E FFF2                pea.l      [A6 - 0xE]
00002640  486E FFF4                pea.l      [A6 - 0xC]
00002644  486E FFF8                pea.l      [A6 - 0x8]
00002648  A98D                     syscall    GetDialogItem/GetDItem
0000264A  42A7                     clr.l      -[A7]
0000264C  2F2E FFFC                move.l     -[A7], [A6 - 0x4]
00002650  2F2E FFF8                move.l     -[A7], [A6 - 0x8]
00002654  3F3C 000C                move.w     -[A7], 0xC
00002658  486A 0184                pea.l      [A2 + 0x184]
0000265C  4EB9 0000 81FA           jsr        [0x000081FA]
00002662  2F0B                     move.l     -[A7], A3
00002664  3F3C 000E                move.w     -[A7], 0xE
00002668  486E FFF2                pea.l      [A6 - 0xE]
0000266C  486E FFF4                pea.l      [A6 - 0xC]
00002670  486E FFF8                pea.l      [A6 - 0x8]
00002674  A98D                     syscall    GetDialogItem/GetDItem
00002676  2F2E FFF4                move.l     -[A7], [A6 - 0xC]
0000267A  486C 00A5                pea.l      [A4 + 0xA5]
0000267E  A990                     syscall    GetDialogItemText/GetIText
00002680  42A7                     clr.l      -[A7]
00002682  2F2E FFFC                move.l     -[A7], [A6 - 0x4]
00002686  2F2E FFF8                move.l     -[A7], [A6 - 0x8]
0000268A  3F3C 000D                move.w     -[A7], 0xD /* '\r' */
0000268E  486A 0184                pea.l      [A2 + 0x184]
00002692  4EB9 0000 81FA           jsr        [0x000081FA]
00002698  2F0B                     move.l     -[A7], A3
0000269A  3F3C 000F                move.w     -[A7], 0xF
0000269E  486E FFF2                pea.l      [A6 - 0xE]
000026A2  486E FFF4                pea.l      [A6 - 0xC]
000026A6  486E FFF8                pea.l      [A6 - 0x8]
000026AA  A98D                     syscall    GetDialogItem/GetDItem
000026AC  42A7                     clr.l      -[A7]
000026AE  2F2E FFFC                move.l     -[A7], [A6 - 0x4]
000026B2  2F2E FFF8                move.l     -[A7], [A6 - 0x8]
000026B6  3F3C 000E                move.w     -[A7], 0xE
000026BA  486A 0184                pea.l      [A2 + 0x184]
000026BE  4EB9 0000 81FA           jsr        [0x000081FA]
000026C4  2F0B                     move.l     -[A7], A3
000026C6  3F3C 0010                move.w     -[A7], 0x10
000026CA  486E FFF2                pea.l      [A6 - 0xE]
000026CE  486E FFF4                pea.l      [A6 - 0xC]
000026D2  486E FFF8                pea.l      [A6 - 0x8]
000026D6  A98D                     syscall    GetDialogItem/GetDItem
000026D8  2F2E FFF4                move.l     -[A7], [A6 - 0xC]
000026DC  486C 00C6                pea.l      [A4 + 0xC6]
000026E0  A990                     syscall    GetDialogItemText/GetIText
000026E2  42A7                     clr.l      -[A7]
000026E4  2F2E FFFC                move.l     -[A7], [A6 - 0x4]
000026E8  2F2E FFF8                move.l     -[A7], [A6 - 0x8]
000026EC  3F3C 000F                move.w     -[A7], 0xF
000026F0  486A 0184                pea.l      [A2 + 0x184]
000026F4  4EB9 0000 81FA           jsr        [0x000081FA]
000026FA  2F0B                     move.l     -[A7], A3
000026FC  3F3C 0011                move.w     -[A7], 0x11
00002700  486E FFF2                pea.l      [A6 - 0xE]
00002704  486E FFF4                pea.l      [A6 - 0xC]
00002708  486E FFF8                pea.l      [A6 - 0x8]
0000270C  A98D                     syscall    GetDialogItem/GetDItem
0000270E  2F2E FFF4                move.l     -[A7], [A6 - 0xC]
00002712  486C 00E7                pea.l      [A4 + 0xE7]
00002716  A990                     syscall    GetDialogItemText/GetIText
00002718  42A7                     clr.l      -[A7]
0000271A  2F2E FFFC                move.l     -[A7], [A6 - 0x4]
0000271E  2F2E FFF8                move.l     -[A7], [A6 - 0x8]
00002722  3F3C 0010                move.w     -[A7], 0x10
00002726  486A 0184                pea.l      [A2 + 0x184]
0000272A  4EB9 0000 81FA           jsr        [0x000081FA]
00002730  2F0B                     move.l     -[A7], A3
00002732  3F3C 0012                move.w     -[A7], 0x12
00002736  486E FFF2                pea.l      [A6 - 0xE]
0000273A  486E FFF4                pea.l      [A6 - 0xC]
0000273E  486E FFF8                pea.l      [A6 - 0x8]
00002742  A98D                     syscall    GetDialogItem/GetDItem
00002744  2F2E FFF4                move.l     -[A7], [A6 - 0xC]
00002748  486C 0108                pea.l      [A4 + 0x108]
0000274C  A990                     syscall    GetDialogItemText/GetIText
0000274E  42A7                     clr.l      -[A7]
00002750  2F2E FFFC                move.l     -[A7], [A6 - 0x4]
00002754  2F2E FFF8                move.l     -[A7], [A6 - 0x8]
00002758  3F3C 0011                move.w     -[A7], 0x11
0000275C  486A 0184                pea.l      [A2 + 0x184]
00002760  4EB9 0000 81FA           jsr        [0x000081FA]
00002766  2F0B                     move.l     -[A7], A3
00002768  3F3C 0013                move.w     -[A7], 0x13
0000276C  486E FFF2                pea.l      [A6 - 0xE]
00002770  486E FFF4                pea.l      [A6 - 0xC]
00002774  486E FFF8                pea.l      [A6 - 0x8]
00002778  A98D                     syscall    GetDialogItem/GetDItem
0000277A  42A7                     clr.l      -[A7]
0000277C  2F2E FFFC                move.l     -[A7], [A6 - 0x4]
00002780  2F2E FFF8                move.l     -[A7], [A6 - 0x8]
00002784  3F3C 0012                move.w     -[A7], 0x12
00002788  486A 0184                pea.l      [A2 + 0x184]
0000278C  4EB9 0000 81FA           jsr        [0x000081FA]
00002792  2F0B                     move.l     -[A7], A3
00002794  3F3C 0014                move.w     -[A7], 0x14
00002798  486E FFF2                pea.l      [A6 - 0xE]
0000279C  486E FFF4                pea.l      [A6 - 0xC]
000027A0  486E FFF8                pea.l      [A6 - 0x8]
000027A4  A98D                     syscall    GetDialogItem/GetDItem
000027A6  42A7                     clr.l      -[A7]
000027A8  2F2E FFFC                move.l     -[A7], [A6 - 0x4]
000027AC  2F2E FFF8                move.l     -[A7], [A6 - 0x8]
000027B0  3F3C 0013                move.w     -[A7], 0x13
000027B4  486A 0184                pea.l      [A2 + 0x184]
000027B8  4EB9 0000 81FA           jsr        [0x000081FA]
000027BE  2F0B                     move.l     -[A7], A3
000027C0  3F3C 0015                move.w     -[A7], 0x15
000027C4  486E FFF2                pea.l      [A6 - 0xE]
000027C8  486E FFF4                pea.l      [A6 - 0xC]
000027CC  486E FFF8                pea.l      [A6 - 0x8]
000027D0  A98D                     syscall    GetDialogItem/GetDItem
000027D2  42A7                     clr.l      -[A7]
000027D4  2F2E FFFC                move.l     -[A7], [A6 - 0x4]
000027D8  2F2E FFF8                move.l     -[A7], [A6 - 0x8]
000027DC  3F3C 0014                move.w     -[A7], 0x14
000027E0  486A 0184                pea.l      [A2 + 0x184]
000027E4  4EB9 0000 81FA           jsr        [0x000081FA]
000027EA  2F0B                     move.l     -[A7], A3
000027EC  3F3C 0016                move.w     -[A7], 0x16
000027F0  486E FFF2                pea.l      [A6 - 0xE]
000027F4  486E FFF4                pea.l      [A6 - 0xC]
000027F8  486E FFF8                pea.l      [A6 - 0x8]
000027FC  A98D                     syscall    GetDialogItem/GetDItem
000027FE  42A7                     clr.l      -[A7]
00002800  2F2E FFFC                move.l     -[A7], [A6 - 0x4]
00002804  2F2E FFF8                move.l     -[A7], [A6 - 0x8]
00002808  3F3C 0015                move.w     -[A7], 0x15
0000280C  486A 0184                pea.l      [A2 + 0x184]
00002810  4EB9 0000 81FA           jsr        [0x000081FA]
00002816  2F0B                     move.l     -[A7], A3
00002818  A983                     syscall    DisposeDialog
0000281A  264A                     movea.l    A3, A2
0000281C  377C 0008 006C           move.w     [A3 + 0x6C], 0x8
00002822  422A 00AA                clr.b      [A2 + 0xAA]
00002826  42AA 00AC                clr.l      [A2 + 0xAC]
0000282A  41F9 0000 7412           lea.l      A0, [0x00007412]
00002830  2548 00B0                move.l     [A2 + 0xB0], A0
00002834  42AA 00B4                clr.l      [A2 + 0xB4]
00002838  41F9 0000 741A           lea.l      A0, [0x0000741A]
0000283E  2548 00B8                move.l     [A2 + 0xB8], A0
00002842  41F9 0000 7422           lea.l      A0, [0x00007422]
00002848  2548 00BC                move.l     [A2 + 0xBC], A0
0000284C  41F9 0000 801A           lea.l      A0, [0x0000801A]
00002852  2548 00C0                move.l     [A2 + 0xC0], A0
00002856  42AA 00C4                clr.l      [A2 + 0xC4]
0000285A  42AA 00C8                clr.l      [A2 + 0xC8]
0000285E  41F9 0000 742A           lea.l      A0, [0x0000742A]
00002864  2548 00CC                move.l     [A2 + 0xCC], A0
00002868  41F9 0000 7432           lea.l      A0, [0x00007432]
0000286E  2548 00D0                move.l     [A2 + 0xD0], A0
00002872  41F9 0000 743A           lea.l      A0, [0x0000743A]
00002878  2548 00D4                move.l     [A2 + 0xD4], A0
0000287C  486D FF24                pea.l      [A5 - 0xDC]
00002880  486C 0129                pea.l      [A4 + 0x129]
00002884  4EB9 0000 8102           jsr        [0x00008102]
0000288A  422C 0331                clr.b      [A4 + 0x331]
0000288E  422C 035A                clr.b      [A4 + 0x35A]
00002892  2F0A                     move.l     -[A7], A2
00002894  A915                     syscall    ShowWindow
00002896  2F0A                     move.l     -[A7], A2
00002898  4EB9 0000 2D5C           jsr        [0x00002D5C]
0000289E  204A                     movea.l    A0, A2
000028A0  4FEF 01C2                lea.l      A7, [A7 + 0x1C2]
label000028A4:
000028A4  4CDF 1C08                movem.l    D3,A2,A3,A4, [A7]+
000028A8  4E5E                     unlink     A6
000028AA  4E75                     rts
000028AC  4E56 0000                link       A6, 0
000028B0  4E5E                     unlink     A6
000028B2  4E75                     rts
000028B4  4E56 0000                link       A6, 0
000028B8  4E5E                     unlink     A6
000028BA  4E75                     rts
000028BC  4E56 FEE8                link       A6, -0x0118
000028C0  48E7 1830                movem.l    -[A7], D3,D4,A2,A3
000028C4  266E 0008                movea.l    A3, [A6 + 0x8]
000028C8  362B 0006                move.w     D3, [A3 + 0x6]
000028CC  700E                     moveq.l    D0, 0x0E
000028CE  C1C3                     muls.w     D0, D3
000028D0  204B                     movea.l    A0, A3
000028D2  D1C0                     add.l      A0, D0
000028D4  2D68 0028 FEF0           move.l     [A6 - 0x110], [A0 + 0x28]
000028DA  2D68 002C FEF4           move.l     [A6 - 0x10C], [A0 + 0x2C]
000028E0  246B 0008                movea.l    A2, [A3 + 0x8]
000028E4  486E FEF0                pea.l      [A6 - 0x110]
000028E8  A8A3                     syscall    EraseRect
000028EA  3003                     move.w     D0, D3
000028EC  5940                     subq.w     D0, 4
000028EE  6702                     beq        +0x4 /* 000028F2 */
000028F0  6034                     bra        +0x36 /* 00002926 */
label000028F2:
000028F2  3F3C 0003                move.w     -[A7], 0x3
000028F6  A887                     syscall    TextFont
000028F8  3F3C 0001                move.w     -[A7], 0x1
000028FC  A888                     syscall    TextFace
000028FE  3F3C 000C                move.w     -[A7], 0xC
00002902  A88A                     syscall    TextSize
00002904  486E FFF8                pea.l      [A6 - 0x8]
00002908  A88B                     syscall    GetFontInfo
0000290A  382E FFF8                move.w     D4, [A6 - 0x8]
0000290E  D86E FFFA                add.w      D4, [A6 - 0x6]
00002912  D86E FFFE                add.w      D4, [A6 - 0x2]
00002916  3F2E FEF2                move.w     -[A7], [A6 - 0x10E]
0000291A  302E FEF0                move.w     D0, [A6 - 0x110]
0000291E  D06E FFF8                add.w      D0, [A6 - 0x8]
00002922  3F00                     move.w     -[A7], D0
00002924  A893                     syscall    MoveTo
label00002926:
00002926  3003                     move.w     D0, D3
00002928  5B40                     subq.w     D0, 5
0000292A  0C40 000F                cmpi.w     D0, 0xF
0000292E  6200 015A                bhi        +0x15C /* 00002A8A */
00002932  D040                     add.w      D0, D0
00002934  303B 0006                move.w     D0, [PC + D0.w + 0x6]
00002938  4EFB 0002                jmp        [PC + D0.w + 0x2]
0000293C  0020 0034                ori.b      -[A0], 0x34 /* '4' */
00002940  0048 005C                ori.w      A0, 0x5C /* '\\' */
00002944  00C0                     .incomplete
00002946  00D2                     .incomplete
00002948  00E4                     .incomplete
0000294A  00F6                     .incomplete
0000294C  0070 0108 0084           ori.w      [A0 + D0.w - 0x7C], 0x108
00002952  0098 00AC 011A           ori.l      [A0]+, 0xAC011A
00002958  012C 013E                btst       [A4 + 0x13E], D0
0000295C  486A 0021                pea.l      [A2 + 0x21]
00002960  486E FEF8                pea.l      [A6 - 0x108]
00002964  4EB9 0000 8102           jsr        [0x00008102]
0000296A  504F                     addq.w     A7, 8
0000296C  6000 011C                bra        +0x11E /* 00002A8A */
00002970  486A 0042                pea.l      [A2 + 0x42]
00002974  486E FEF8                pea.l      [A6 - 0x108]
00002978  4EB9 0000 8102           jsr        [0x00008102]
0000297E  504F                     addq.w     A7, 8
00002980  6000 0108                bra        +0x10A /* 00002A8A */
00002984  486A 0063                pea.l      [A2 + 0x63]
00002988  486E FEF8                pea.l      [A6 - 0x108]
0000298C  4EB9 0000 8102           jsr        [0x00008102]
00002992  504F                     addq.w     A7, 8
00002994  6000 00F4                bra        +0xF6 /* 00002A8A */
00002998  486A 0084                pea.l      [A2 + 0x84]
0000299C  486E FEF8                pea.l      [A6 - 0x108]
000029A0  4EB9 0000 8102           jsr        [0x00008102]
000029A6  504F                     addq.w     A7, 8
000029A8  6000 00E0                bra        +0xE2 /* 00002A8A */
000029AC  486A 00A5                pea.l      [A2 + 0xA5]
000029B0  486E FEF8                pea.l      [A6 - 0x108]
000029B4  4EB9 0000 8102           jsr        [0x00008102]
000029BA  504F                     addq.w     A7, 8
000029BC  6000 00CC                bra        +0xCE /* 00002A8A */
000029C0  486A 00C6                pea.l      [A2 + 0xC6]
000029C4  486E FEF8                pea.l      [A6 - 0x108]
000029C8  4EB9 0000 8102           jsr        [0x00008102]
000029CE  504F                     addq.w     A7, 8
000029D0  6000 00B8                bra        +0xBA /* 00002A8A */
000029D4  486A 00E7                pea.l      [A2 + 0xE7]
000029D8  486E FEF8                pea.l      [A6 - 0x108]
000029DC  4EB9 0000 8102           jsr        [0x00008102]
000029E2  504F                     addq.w     A7, 8
000029E4  6000 00A4                bra        +0xA6 /* 00002A8A */
000029E8  486A 0108                pea.l      [A2 + 0x108]
000029EC  486E FEF8                pea.l      [A6 - 0x108]
000029F0  4EB9 0000 8102           jsr        [0x00008102]
000029F6  504F                     addq.w     A7, 8
000029F8  6000 0090                bra        +0x92 /* 00002A8A */
000029FC  486A 0229                pea.l      [A2 + 0x229]
00002A00  486E FEF8                pea.l      [A6 - 0x108]
00002A04  4EB9 0000 8102           jsr        [0x00008102]
00002A0A  504F                     addq.w     A7, 8
00002A0C  607C                     bra        +0x7E /* 00002A8A */
00002A0E  486A 024A                pea.l      [A2 + 0x24A]
00002A12  486E FEF8                pea.l      [A6 - 0x108]
00002A16  4EB9 0000 8102           jsr        [0x00008102]
00002A1C  504F                     addq.w     A7, 8
00002A1E  606A                     bra        +0x6C /* 00002A8A */
00002A20  486A 026B                pea.l      [A2 + 0x26B]
00002A24  486E FEF8                pea.l      [A6 - 0x108]
00002A28  4EB9 0000 8102           jsr        [0x00008102]
00002A2E  504F                     addq.w     A7, 8
00002A30  6058                     bra        +0x5A /* 00002A8A */
00002A32  486A 028C                pea.l      [A2 + 0x28C]
00002A36  486E FEF8                pea.l      [A6 - 0x108]
00002A3A  4EB9 0000 8102           jsr        [0x00008102]
00002A40  504F                     addq.w     A7, 8
00002A42  6046                     bra        +0x48 /* 00002A8A */
00002A44  486A 02AD                pea.l      [A2 + 0x2AD]
00002A48  486E FEF8                pea.l      [A6 - 0x108]
00002A4C  4EB9 0000 8102           jsr        [0x00008102]
00002A52  504F                     addq.w     A7, 8
00002A54  6034                     bra        +0x36 /* 00002A8A */
00002A56  486A 02CE                pea.l      [A2 + 0x2CE]
00002A5A  486E FEF8                pea.l      [A6 - 0x108]
00002A5E  4EB9 0000 8102           jsr        [0x00008102]
00002A64  504F                     addq.w     A7, 8
00002A66  6022                     bra        +0x24 /* 00002A8A */
00002A68  486A 02EF                pea.l      [A2 + 0x2EF]
00002A6C  486E FEF8                pea.l      [A6 - 0x108]
00002A70  4EB9 0000 8102           jsr        [0x00008102]
00002A76  504F                     addq.w     A7, 8
00002A78  6010                     bra        +0x12 /* 00002A8A */
00002A7A  486A 0310                pea.l      [A2 + 0x310]
00002A7E  486E FEF8                pea.l      [A6 - 0x108]
00002A82  4EB9 0000 8102           jsr        [0x00008102]
00002A88  504F                     addq.w     A7, 8
label00002A8A:
00002A8A  3003                     move.w     D0, D3
00002A8C  0C40 0015                cmpi.w     D0, 0x15
00002A90  6200 01B6                bhi        +0x1B8 /* 00002C48 */
00002A94  D040                     add.w      D0, D0
00002A96  303B 0006                move.w     D0, [PC + D0.w + 0x6]
00002A9A  4EFB 0002                jmp        [PC + D0.w + 0x2]
00002A9E  002C 004E 0062           ori.b      [A4 + 0x62], 0x4E /* 'N' */
00002AA4  00C8                     .incomplete
00002AA6  00DC                     .incomplete
00002AA8  00E4                     .incomplete
00002AAA  00E4                     .incomplete
00002AAC  00E4                     .incomplete
00002AAE  00E4                     .incomplete
00002AB0  0134 0134                btst       <<invalid full ext with I/IS == 4>>, D0
00002AB4  0134 0134                btst       <<invalid full ext with I/IS == 4>>, D0
00002AB8  00E4                     .incomplete
00002ABA  0134 00E4                btst       [A4 + D0.w - 0x1C], D0
00002ABE  00E4                     .incomplete
00002AC0  00E4                     .incomplete
00002AC2  0134 0134                btst       <<invalid full ext with I/IS == 4>>, D0
00002AC6  0134 0190                btst       [ + D0], D0
00002ACA  594F                     subq.w     A7, 4
00002ACC  3F3C 0080                move.w     -[A7], 0x80
00002AD0  A9BC                     syscall    GetPicture
00002AD2  205F                     movea.l    A0, [A7]+
00002AD4  2448                     movea.l    A2, A0
00002AD6  200A                     move.l     D0, A2
00002AD8  6700 016E                beq        +0x170 /* 00002C48 */
00002ADC  2F0A                     move.l     -[A7], A2
00002ADE  486E FEF0                pea.l      [A6 - 0x110]
00002AE2  A8F6                     syscall    DrawPicture
00002AE4  2F0A                     move.l     -[A7], A2
00002AE6  A9A3                     syscall    ReleaseResource
00002AE8  6000 015E                bra        +0x160 /* 00002C48 */
00002AEC  0C2A 0001 0331           cmpi.b     [A2 + 0x331], 0x1
00002AF2  6600 0154                bne        +0x156 /* 00002C48 */
00002AF6  4EB9 0000 7F0A           jsr        [0x00007F0A]
00002AFC  6000 014A                bra        +0x14C /* 00002C48 */
00002B00  4267                     clr.w      -[A7]
00002B02  A887                     syscall    TextFont
00002B04  4267                     clr.w      -[A7]
00002B06  A888                     syscall    TextFace
00002B08  3F3C 000C                move.w     -[A7], 0xC
00002B0C  A88A                     syscall    TextSize
00002B0E  486E FFF8                pea.l      [A6 - 0x8]
00002B12  A88B                     syscall    GetFontInfo
00002B14  382E FFF8                move.w     D4, [A6 - 0x8]
00002B18  D86E FFFA                add.w      D4, [A6 - 0x6]
00002B1C  D86E FFFE                add.w      D4, [A6 - 0x2]
00002B20  302E FEF2                move.w     D0, [A6 - 0x10E]
00002B24  5A40                     addq.w     D0, 5
00002B26  3F00                     move.w     -[A7], D0
00002B28  302E FEF0                move.w     D0, [A6 - 0x110]
00002B2C  D06E FFF8                add.w      D0, [A6 - 0x8]
00002B30  3F00                     move.w     -[A7], D0
00002B32  A893                     syscall    MoveTo
00002B34  486A 0129                pea.l      [A2 + 0x129]
00002B38  A884                     syscall    DrawString
00002B3A  3D6E FEF2 FEEE           move.w     [A6 - 0x112], [A6 - 0x10E]
00002B40  3D6E FEF4 FEEC           move.w     [A6 - 0x114], [A6 - 0x10C]
00002B46  3D6E FEF6 FEEA           move.w     [A6 - 0x116], [A6 - 0x10A]
00002B4C  3D6E FEF4 FEE8           move.w     [A6 - 0x118], [A6 - 0x10C]
00002B52  2F2E FEE8                move.l     -[A7], [A6 - 0x118]
00002B56  2F2E FEEC                move.l     -[A7], [A6 - 0x114]
00002B5A  4EB9 0000 7E02           jsr        [0x00007E02]
00002B60  504F                     addq.w     A7, 8
00002B62  6000 00E4                bra        +0xE6 /* 00002C48 */
00002B66  2F2E FEF4                move.l     -[A7], [A6 - 0x10C]
00002B6A  2F2E FEF0                move.l     -[A7], [A6 - 0x110]
00002B6E  4EB9 0000 7DFA           jsr        [0x00007DFA]
00002B74  504F                     addq.w     A7, 8
00002B76  6000 00D0                bra        +0xD2 /* 00002C48 */
00002B7A  2F0A                     move.l     -[A7], A2
00002B7C  A884                     syscall    DrawString
00002B7E  6000 00C8                bra        +0xCA /* 00002C48 */
00002B82  3F3C 0003                move.w     -[A7], 0x3
00002B86  A887                     syscall    TextFont
00002B88  3F3C 0001                move.w     -[A7], 0x1
00002B8C  A888                     syscall    TextFace
00002B8E  3F3C 0009                move.w     -[A7], 0x9 /* '\t' */
00002B92  A88A                     syscall    TextSize
00002B94  486E FFF8                pea.l      [A6 - 0x8]
00002B98  A88B                     syscall    GetFontInfo
00002B9A  382E FFF8                move.w     D4, [A6 - 0x8]
00002B9E  D86E FFFA                add.w      D4, [A6 - 0x6]
00002BA2  D86E FFFE                add.w      D4, [A6 - 0x2]
00002BA6  554F                     subq.w     A7, 2
00002BA8  486E FEF8                pea.l      [A6 - 0x108]
00002BAC  A88C                     syscall    StringWidth
00002BAE  301F                     move.w     D0, [A7]+
00002BB0  3600                     move.w     D3, D0
00002BB2  302E FEF6                move.w     D0, [A6 - 0x10A]
00002BB6  9043                     sub.w      D0, D3
00002BB8  5B40                     subq.w     D0, 5
00002BBA  3F00                     move.w     -[A7], D0
00002BBC  302E FEF0                move.w     D0, [A6 - 0x110]
00002BC0  D06E FFF8                add.w      D0, [A6 - 0x8]
00002BC4  5440                     addq.w     D0, 2
00002BC6  3F00                     move.w     -[A7], D0
00002BC8  A893                     syscall    MoveTo
00002BCA  486E FEF8                pea.l      [A6 - 0x108]
00002BCE  A884                     syscall    DrawString
00002BD0  6076                     bra        +0x78 /* 00002C48 */
00002BD2  3F3C 0003                move.w     -[A7], 0x3
00002BD6  A887                     syscall    TextFont
00002BD8  4267                     clr.w      -[A7]
00002BDA  A888                     syscall    TextFace
00002BDC  3F3C 0009                move.w     -[A7], 0x9 /* '\t' */
00002BE0  A88A                     syscall    TextSize
00002BE2  486E FFF8                pea.l      [A6 - 0x8]
00002BE6  A88B                     syscall    GetFontInfo
00002BE8  382E FFF8                move.w     D4, [A6 - 0x8]
00002BEC  D86E FFFA                add.w      D4, [A6 - 0x6]
00002BF0  D86E FFFE                add.w      D4, [A6 - 0x2]
00002BF4  2F2E FEF4                move.l     -[A7], [A6 - 0x10C]
00002BF8  2F2E FEF0                move.l     -[A7], [A6 - 0x110]
00002BFC  4EB9 0000 7DEA           jsr        [0x00007DEA]
00002C02  486E FEF8                pea.l      [A6 - 0x108]
00002C06  A88C                     syscall    StringWidth
00002C08  301F                     move.w     D0, [A7]+
00002C0A  3600                     move.w     D3, D0
00002C0C  302E FEF6                move.w     D0, [A6 - 0x10A]
00002C10  9043                     sub.w      D0, D3
00002C12  5B40                     subq.w     D0, 5
00002C14  3F00                     move.w     -[A7], D0
00002C16  302E FEF0                move.w     D0, [A6 - 0x110]
00002C1A  D06E FFF8                add.w      D0, [A6 - 0x8]
00002C1E  5440                     addq.w     D0, 2
00002C20  3F00                     move.w     -[A7], D0
00002C22  A893                     syscall    MoveTo
00002C24  486E FEF8                pea.l      [A6 - 0x108]
00002C28  A884                     syscall    DrawString
00002C2A  5C4F                     addq.w     A7, 6
00002C2C  601A                     bra        +0x1C /* 00002C48 */
00002C2E  4267                     clr.w      -[A7]
00002C30  2F3C 012C 0005           move.l     -[A7], 0x12C0005
00002C36  2F2E FEF4                move.l     -[A7], [A6 - 0x10C]
00002C3A  2F2E FEF0                move.l     -[A7], [A6 - 0x110]
00002C3E  4EB9 0000 7DDA           jsr        [0x00007DDA]
00002C44  4FEF 000E                lea.l      A7, [A7 + 0xE]
label00002C48:
00002C48  4CDF 0C18                movem.l    D3,D4,A2,A3, [A7]+
00002C4C  4E5E                     unlink     A6
00002C4E  4E75                     rts
00002C50  4E56 0000                link       A6, 0
00002C54  4E5E                     unlink     A6
00002C56  4E75                     rts
00002C58  4E56 0000                link       A6, 0
00002C5C  4E5E                     unlink     A6
00002C5E  4E75                     rts
00002C60  4E56 FFF0                link       A6, -0x0010
00002C64  48E7 1820                movem.l    -[A7], D3,D4,A2
00002C68  246E 0008                movea.l    A2, [A6 + 0x8]
00002C6C  162E 000C                move.b     D3, [A6 + 0xC]
00002C70  382A 0006                move.w     D4, [A2 + 0x6]
00002C74  700E                     moveq.l    D0, 0x0E
00002C76  C1C4                     muls.w     D0, D4
00002C78  204A                     movea.l    A0, A2
00002C7A  D1C0                     add.l      A0, D0
00002C7C  2D68 0028 FFF8           move.l     [A6 - 0x8], [A0 + 0x28]
00002C82  2D68 002C FFFC           move.l     [A6 - 0x4], [A0 + 0x2C]
00002C88  2D6A 0008 FFF0           move.l     [A6 - 0x10], [A2 + 0x8]
00002C8E  486E FFF4                pea.l      [A6 - 0xC]
00002C92  A874                     syscall    GetPort
00002C94  2F12                     move.l     -[A7], [A2]
00002C96  A873                     syscall    SetPort
00002C98  0C6A 0015 0006           cmpi.w     [A2 + 0x6], 0x15
00002C9E  6D44                     blt        +0x46 /* 00002CE4 */
00002CA0  0C6A 0015 0006           cmpi.w     [A2 + 0x6], 0x15
00002CA6  6E3C                     bgt        +0x3E /* 00002CE4 */
00002CA8  B62D 57C4                cmp.b      D3, [A5 + 0x57C4]
00002CAC  6736                     beq        +0x38 /* 00002CE4 */
00002CAE  1B43 57C4                move.b     [A5 + 0x57C4], D3
00002CB2  0C03 0001                cmpi.b     D3, 0x1
00002CB6  6612                     bne        +0x14 /* 00002CCA */
00002CB8  2F2E FFFC                move.l     -[A7], [A6 - 0x4]
00002CBC  2F2E FFF8                move.l     -[A7], [A6 - 0x8]
00002CC0  4EB9 0000 7DD2           jsr        [0x00007DD2]
00002CC6  504F                     addq.w     A7, 8
00002CC8  601A                     bra        +0x1C /* 00002CE4 */
label00002CCA:
00002CCA  4267                     clr.w      -[A7]
00002CCC  2F3C 012C 0005           move.l     -[A7], 0x12C0005
00002CD2  2F2E FFFC                move.l     -[A7], [A6 - 0x4]
00002CD6  2F2E FFF8                move.l     -[A7], [A6 - 0x8]
00002CDA  4EB9 0000 7DDA           jsr        [0x00007DDA]
00002CE0  4FEF 000E                lea.l      A7, [A7 + 0xE]
label00002CE4:
00002CE4  2F2E FFF4                move.l     -[A7], [A6 - 0xC]
00002CE8  A873                     syscall    SetPort
00002CEA  4CDF 0418                movem.l    D3,D4,A2, [A7]+
00002CEE  4E5E                     unlink     A6
00002CF0  4E75                     rts
00002CF2  4E56 FFF8                link       A6, -0x0008
00002CF6  48E7 1030                movem.l    -[A7], D3,A2,A3
00002CFA  246E 0008                movea.l    A2, [A6 + 0x8]
00002CFE  362A 0006                move.w     D3, [A2 + 0x6]
00002D02  700E                     moveq.l    D0, 0x0E
00002D04  C1C3                     muls.w     D0, D3
00002D06  204A                     movea.l    A0, A2
00002D08  D1C0                     add.l      A0, D0
00002D0A  2D68 0028 FFF8           move.l     [A6 - 0x8], [A0 + 0x28]
00002D10  2D68 002C FFFC           move.l     [A6 - 0x4], [A0 + 0x2C]
00002D16  266A 0008                movea.l    A3, [A2 + 0x8]
00002D1A  422D 57C4                clr.b      [A5 + 0x57C4]
00002D1E  0C2E 0001 000C           cmpi.b     [A6 + 0xC], 0x1
00002D24  662A                     bne        +0x2C /* 00002D50 */
00002D26  3003                     move.w     D0, D3
00002D28  0440 0015                subi.w     D0, 0x15
00002D2C  6702                     beq        +0x4 /* 00002D30 */
00002D2E  6020                     bra        +0x22 /* 00002D50 */
label00002D30:
00002D30  177C 0001 035A           move.b     [A3 + 0x35A], 0x1
00002D36  4267                     clr.w      -[A7]
00002D38  2F3C 012C 0005           move.l     -[A7], 0x12C0005
00002D3E  2F2E FFFC                move.l     -[A7], [A6 - 0x4]
00002D42  2F2E FFF8                move.l     -[A7], [A6 - 0x8]
00002D46  4EB9 0000 7DDA           jsr        [0x00007DDA]
00002D4C  4FEF 000E                lea.l      A7, [A7 + 0xE]
label00002D50:
00002D50  4CDF 0C08                movem.l    D3,A2,A3, [A7]+
00002D54  4E5E                     unlink     A6
00002D56  4E75                     rts
00002D58  4E56 FFFC                link       A6, -0x0004
00002D5C  2D6E 0008 FFFC           move.l     [A6 - 0x4], [A6 + 0x8]
00002D62  206E FFFC                movea.l    A0, [A6 - 0x4]
00002D66  4868 0184                pea.l      [A0 + 0x184]
00002D6A  4EB9 0000 821A           jsr        [0x0000821A]
00002D70  4E5E                     unlink     A6
00002D72  4E75                     rts
00002D74  4E56 FFF8                link       A6, -0x0008
00002D78  2D6E 0008 FFF8           move.l     [A6 - 0x8], [A6 + 0x8]
00002D7E  206E 000C                movea.l    A0, [A6 + 0xC]
00002D82  2D68 000A FFFC           move.l     [A6 - 0x4], [A0 + 0xA]
00002D88  486E FFFC                pea.l      [A6 - 0x4]
00002D8C  A871                     syscall    GlobalToLocal
00002D8E  2F2E FFFC                move.l     -[A7], [A6 - 0x4]
00002D92  206E FFF8                movea.l    A0, [A6 - 0x8]
00002D96  4868 0184                pea.l      [A0 + 0x184]
00002D9A  4EB9 0000 8212           jsr        [0x00008212]
00002DA0  4E5E                     unlink     A6
00002DA2  4E75                     rts
00002DA4  4E56 FFF8                link       A6, -0x0008
00002DA8  48E7 1038                movem.l    -[A7], D3,A2,A3,A4
00002DAC  286E 000C                movea.l    A4, [A6 + 0xC]
00002DB0  266E 0008                movea.l    A3, [A6 + 0x8]
00002DB4  244B                     movea.l    A2, A3
00002DB6  45EA 0184                lea.l      A2, [A2 + 0x184]
00002DBA  357C 0015 0006           move.w     [A2 + 0x6], 0x15
00002DC0  362A 0006                move.w     D3, [A2 + 0x6]
00002DC4  700E                     moveq.l    D0, 0x0E
00002DC6  C1C3                     muls.w     D0, D3
00002DC8  204A                     movea.l    A0, A2
00002DCA  D1C0                     add.l      A0, D0
00002DCC  2D68 0028 FFF8           move.l     [A6 - 0x8], [A0 + 0x28]
00002DD2  2D68 002C FFFC           move.l     [A6 - 0x4], [A0 + 0x2C]
00002DD8  262C 0002                move.l     D3, [A4 + 0x2]
00002DDC  0283 0000 00FF           andi.l     D3, 0xFF
00002DE2  0C03 002E                cmpi.b     D3, 0x2E /* '.' */
00002DE6  6618                     bne        +0x1A /* 00002E00 */
00002DE8  302C 000E                move.w     D0, [A4 + 0xE]
00002DEC  0240 0100                andi.w     D0, 0x100
00002DF0  670E                     beq        +0x10 /* 00002E00 */
00002DF2  1F3C 0001                move.b     -[A7], 0x1
00002DF6  2F0A                     move.l     -[A7], A2
00002DF8  4EB9 0000 2CF6           jsr        [0x00002CF6]
00002DFE  5C4F                     addq.w     A7, 6
label00002E00:
00002E00  4CDF 1C08                movem.l    D3,A2,A3,A4, [A7]+
00002E04  4E5E                     unlink     A6
00002E06  4E75                     rts
00002E08  4E56 0000                link       A6, 0
00002E0C  4E5E                     unlink     A6
00002E0E  4E75                     rts
00002E10  4E56 0000                link       A6, 0
00002E14  2F0A                     move.l     -[A7], A2
00002E16  594F                     subq.w     A7, 4
00002E18  3F3C 0081                move.w     -[A7], 0x81
00002E1C  A949                     syscall    GetMenuHandle
00002E1E  205F                     movea.l    A0, [A7]+
00002E20  2448                     movea.l    A2, A0
00002E22  2F0A                     move.l     -[A7], A2
00002E24  4878 07DA                push.l     0x7DA
00002E28  3F3C 0081                move.w     -[A7], 0x81
00002E2C  4EB9 0000 782A           jsr        [0x0000782A]
00002E32  5C4F                     addq.w     A7, 6
00002E34  3F00                     move.w     -[A7], D0
00002E36  A93A                     syscall    DisableItem
00002E38  2F0A                     move.l     -[A7], A2
00002E3A  4878 07E4                push.l     0x7E4
00002E3E  3F3C 0081                move.w     -[A7], 0x81
00002E42  4EB9 0000 782A           jsr        [0x0000782A]
00002E48  5C4F                     addq.w     A7, 6
00002E4A  3F00                     move.w     -[A7], D0
label00002E4C:
00002E4C  A93A                     syscall    DisableItem
00002E4E  245F                     movea.l    A2, [A7]+
00002E50  4E5E                     unlink     A6
00002E52  4E75                     rts
00002E54  4E56 0000                link       A6, 0
00002E58  48E7 0038                movem.l    -[A7], A2,A3,A4
00002E5C  266E 0008                movea.l    A3, [A6 + 0x8]
00002E60  244B                     movea.l    A2, A3
00002E62  286A 018C                movea.l    A4, [A2 + 0x18C]
00002E66  204C                     movea.l    A0, A4
00002E68  A01F                     syscall    DisposPtr/DisposePtr
00002E6A  486A 0184                pea.l      [A2 + 0x184]
00002E6E  4EB9 0000 8202           jsr        [0x00008202]
00002E74  2F0B                     move.l     -[A7], A3
00002E76  A92D                     syscall    CloseWindow
00002E78  204B                     movea.l    A0, A3
00002E7A  A01F                     syscall    DisposPtr/DisposePtr
00002E7C  584F                     addq.w     A7, 4
00002E7E  4CDF 1C00                movem.l    A2,A3,A4, [A7]+
00002E82  4E5E                     unlink     A6
00002E84  4E75                     rts
00002E86  0000 0091                ori.b      D0, 0x91
00002E8A  40F5 4174                move.w     <<invalid full ext with I/IS == 4>>, SR
00002E8E  4392                     .invalid   1, [A2] // invalid opcode 4 with b == 6
00002E90  F6F6 CFF9                .extension 0x6F6 <<F/2-3/3>> // unimplemented
00002E94  D6F4 F940                add.w      A3, [A4 + <<invalid base displacement size>>]
00002E98  65B2                     bcs        -0x4C /* 00002E4C */
00002E9A  412F 9843                .invalid   0, [A7 - 0x67BD] // invalid opcode 4 with b == 4
00002E9E  B689                     cmp.l      D3, A1
00002EA0  8785 4049                unpk       D3, D5, 0x4049
00002EA4  4152                     chk.w      D0, [A2]
00002EA6  7EC8                     moveq.l    D7, 0xFFFFFFC8
00002EA8  4130 F0EC                .invalid   0, [A0 + A7.w - 0x14] // invalid opcode 4 with b == 4
00002EAC  F9F9                     .invalid   <<F/7/4>>
00002EAE  EB7F                     rol        D7.w, D5
00002EB0  5FF9 EF40 8287           sle        [0xEF408287]
00002EB6  9840                     sub.w      D4, D0
00002EB8  A441                     syscall    SetFilLock/PBHSetFLock/HSetFLock, flags=4
00002EBA  167E                     movea.b    A3, <<invalid special address>>
00002EBC  F3BA                     .invalid   <<F/6/1>>
00002EBE  E342                     asl        D2.w, 1
00002EC0  E2ED 7EFD                lsr   .w   [A5 + 0x7EFD]
00002EC4  7FB5                     moveq.l    D7, 0xFFFFFFB5
00002EC6  7F0B                     moveq.l    D7, 0x0B
00002EC8  9041                     sub.w      D0, D1
00002ECA  A87E                     syscall    AddPt
00002ECC  A1E5                     syscall    vAdjEOF, flags=1
00002ECE  4170 7E9F                chk.w      D0, [A0 + D7 * 8 - 0x61]
00002ED2  9E8B                     sub.l      D7, A3
00002ED4  8EF9 40EE 92F5           divu.w     D7, [0x40EE92F5]
00002EDA  411A                     .invalid   0, [A2]+ // invalid opcode 4 with b == 4
00002EDC  40A0                     negx.l     -[A0]
00002EDE  DB7F                     add.w      <<invalid special address>>, D5
00002EE0  A640                     syscall    ResrvMem/ReserveMem, flags=6
00002EE2  A07F                     syscall    InternalWait
00002EE4  A7DC                     syscall    vCMSetup, flags=7
00002EE6  4040                     negx.w     D0
00002EE8  9540                     subx.w     D2, D0
00002EEA  BA7F                     cmp.w      D5, <<invalid special address>>
00002EEC  808F                     or.l       D0, A7
00002EEE  8EF9 8C40 737F           divu.w     D7, [0x8C40737F]
00002EF4  A68B                     syscall    CommToolboxDispatch, flags=6
00002EF6  908A                     sub.l      D0, A2
00002EF8  9640                     sub.w      D3, D0
00002EFA  40A8 8383                negx.l     [A0 - 0x7C7D]
00002EFE  8383 8383                unpk       D1, D3, 0x8383
00002F02  8842                     or.w       D4, D2
00002F04  0FEA                     .incomplete
00002F06  EAEA EAE5 E5E5           bfchg      [A2 - 0x1A1B] {D3:D5}
00002F0C  EAE5 EAEA                bfchg      -[A5] {D3:D2}
00002F10  EAEA E5E5 E5E5           bfchg      [A2 - 0x1A1B] {23:D5}
00002F16  E6EA EAEA                ror   .w   [A2 - 0x1516]
// begin alternate branch 00002F18-00002F26
label00002F18:
00002F18  EAEA 4207 8785           bfchg      [A2 - 0x787B] {8:7}
00002F1E  8589 8585                unpk       -[A2], -[A1], 0x8585
00002F22  8940 FFF7                pack       D4, D0, 0xFFF7
// end alternate branch 00002F18-00002F26
label00002F18: // (misaligned)
00002F1A  4207                     clr.b      D7
00002F1C  8785 8589                unpk       D3, D5, 0x8589
00002F20  8585 8940                unpk       D2, D5, 0x8940
00002F24  FFF7                     .invalid   <<F/7/7>>
00002F26  F7F7                     .invalid   <<F/7/3>>
00002F28  F7F7                     .invalid   <<F/7/3>>
00002F2A  F7F7                     .invalid   <<F/7/3>>
00002F2C  F6F6 F6F6                .extension 0x6F6 <<F/2-3/3>> // unimplemented
00002F30  F6F6 F6F6                .extension 0x6F6 <<F/2-3/3>> // unimplemented
00002F34  40C9                     move.w     A1, SR
00002F36  B28A                     cmp.l      D1, A2
00002F38  4047                     negx.w     D7
00002F3A  A140                     syscall    ResrvMem/ReserveMem, flags=1
00002F3C  418D                     .invalid   0, A5 // invalid opcode 4 with b == 6
00002F3E  B692                     cmp.l      D3, [A2]
00002F40  9840                     sub.w      D4, D0
00002F42  54F5 A100                scc        [A5 + <<invalid base displacement size>> + A2]
00002F46  0000 114A                ori.b      D0, 0x4A /* 'J' */
00002F4A  9D8B                     subx.l     -[A6], -[A3]
00002F4C  40AA F541                negx.l     [A2 - 0xABF]
00002F50  7F42                     moveq.l    D7, 0x42
00002F52  6EC4                     bgt        -0x3A /* 00002F18 */
00002F54  7F44                     moveq.l    D7, 0x44
00002F56  7F97                     moveq.l    D7, 0xFFFFFF97
00002F58  F87F 7D41                .extension 0x87F <<F/1/4>>, 0x7D41 // unimplemented
00002F5C  F77E                     .extension 0x77E <<F/4-5/3>> // unimplemented
00002F5E  86FA FA41                divu.w     D3, [PC - 0x5BF /* 000029A1, value 0xB900 */]
00002F62  7FC4                     moveq.l    D7, 0xFFFFFFC4
00002F64  0000 0043                ori.b      D0, 0x43 /* 'C' */
00002F68  A340                     syscall    ResrvMem/ReserveMem, flags=3
00002F6A  8E40                     or.w       D7, D0
00002F6C  5592                     subq.l     [A2], 2
00002F6E  9440                     sub.w      D2, D0
00002F70  4D40                     chk.w      D6, D0
00002F72  94E8 BAF2                sub.w      A2, [A0 - 0x450E]
fn00002F76:
00002F76  A196                     syscall    SharedLibsMPW, flags=1
00002F78  B393                     xor.l      [A3], D1
00002F7A  9441                     sub.w      D2, D1
00002F7C  489F 97B8                movem.w    [A7]+, D3,D4,D5,D7,A0,A1,A2,A4,A7
00002F80  DA40                     add.w      D5, D0
00002F82  4541                     chk.w      D2, D1
00002F84  477F                     chk.w      D3, <<invalid special address>>
00002F86  3D7F 9040                move.w     [A6 - 0x6FC0], <<invalid special address>>
00002F8A  A47F                     syscall    InternalWait, flags=4
00002F8C  84A0                     or.l       D2, -[A0]
00002F8E  8FAB 8B40                or.l       [A3 - 0x74C0], D7
00002F92  6E7F                     bgt        +0x81 /* 00003013 */
00002F94  BF40                     xor.w      D0, D7
00002F96  50C2                     st         D2
00002F98  4073 4082                negx.w     [A3 + D4.w - 0x7E]
00002F9C  4045                     negx.w     D5
00002F9E  4062                     negx.w     -[A2]
00002FA0  928C                     sub.l      D1, A4
00002FA2  406B A39D                negx.w     [A3 - 0x5C63]
00002FA6  9541                     subx.w     D2, D1
00002FA8  9EA6                     sub.l      D7, -[A6]
00002FAA  4051                     negx.w     [A1]
00002FAC  A645                     syscall    FlushFile, flags=6
00002FAE  E87F                     ror        D7.w, D4
00002FB0  61C4                     bsr        -0x3A /* 00002F76 */
00002FB2  C37F                     and.w      <<invalid special address>>, D1
00002FB4  B57F                     xor.w      <<invalid special address>>, D2
00002FB6  917F                     sub.w      <<invalid special address>>, D0
00002FB8  7A7F                     moveq.l    D5, 0x7F
00002FBA  91E3                     sub.l      A0, -[A3]
00002FBC  E343                     asl        D3.w, 1
00002FBE  E17F                     rol        D7.w, D0
00002FC0  A79A                     syscall    vProcHelper, flags=7
00002FC2  4095                     negx.l     [A5]
00002FC4  A59E                     syscall    PowerMgrDispatch, flags=5
00002FC6  8C42                     or.w       D6, D2
00002FC8  C642                     and.w      D3, D2
00002FCA  B0                       .incomplete
