# near model CODE resource
# jump table entries: 2504-2565 (62 of them)
export_313:
00000000  4E56 0000                link       A6, 0
00000004  48E7 1018                movem.l    -[A7], D3,A3,A4
00000008  266E 000C                movea.l    A3, [A6 + 0xC]
0000000C  286E 0008                movea.l    A4, [A6 + 0x8]
00000010  200C                     move.l     D0, A4
00000012  6612                     bne        +0x14 /* 00000026 */
00000014  4878 017C                push.l     0x17C
00000018  4EAD 010A                jsr        [A5 + 0x10A /* export_29, CODE:1 @ 00001C0A */]
0000001C  2840                     movea.l    A4, D0
0000001E  200C                     move.l     D0, A4
00000020  584F                     addq.w     A7, 4
00000022  6700 00B8                beq        +0xBA /* 000000DC */
label00000026:
00000026  200B                     move.l     D0, A3
00000028  57C3                     seq        D3
0000002A  4403                     neg.b      D3
0000002C  674E                     beq        +0x50 /* 0000007C */
0000002E  264C                     movea.l    A3, A4
00000030  47EB 0170                lea.l      A3, [A3 + 0x170]
00000034  7601                     moveq.l    D3, 0x01
00000036  200C                     move.l     D0, A4
00000038  D0BC 0000 0170           add.l      D0, 0x170
0000003E  6614                     bne        +0x16 /* 00000054 */
00000040  2F03                     move.l     -[A7], D3
00000042  700C                     moveq.l    D0, 0x0C
00000044  2F00                     move.l     -[A7], D0
00000046  4EAD 010A                jsr        [A5 + 0x10A /* export_29, CODE:1 @ 00001C0A */]
0000004A  588F                     addq.l     A7, 4
0000004C  261F                     move.l     D3, [A7]+
0000004E  4A80                     tst.l      D0
00000050  6602                     bne        +0x4 /* 00000054 */
00000052  7600                     moveq.l    D3, 0x00
label00000054:
00000054  4A03                     tst.b      D3
00000056  6718                     beq        +0x1A /* 00000070 */
00000058  204D                     movea.l    A0, A5
0000005A  D1FC FFFF 08EC           add.l      A0, 0xFFFF08EC
00000060  2950 0178                move.l     [A4 + 0x178], [A0]
00000064  7000                     moveq.l    D0, 0x00
00000066  2940 0170                move.l     [A4 + 0x170], D0
0000006A  2940 0174                move.l     [A4 + 0x174], D0
0000006E  6002                     bra        +0x4 /* 00000072 */
label00000070:
00000070  7000                     moveq.l    D0, 0x00
label00000072:
00000072  200C                     move.l     D0, A4
00000074  D0BC 0000 0170           add.l      D0, 0x170
0000007A  6002                     bra        +0x4 /* 0000007E */
label0000007C:
0000007C  200B                     move.l     D0, A3
label0000007E:
0000007E  7000                     moveq.l    D0, 0x00
00000080  2F00                     move.l     -[A7], D0
00000082  2F3C 4261 6C53           move.l     -[A7], 0x42616C53 /* 'BalS' */
00000088  2F2E 0010                move.l     -[A7], [A6 + 0x10]
0000008C  2F0B                     move.l     -[A7], A3
0000008E  2F0C                     move.l     -[A7], A4
00000090  4EAD 10AA                jsr        [A5 + 0x10AA /* export_529, CODE:26 @ 0000020E */]
00000094  204D                     movea.l    A0, A5
00000096  D1FC FFFF 08F0           add.l      A0, 0xFFFF08F0
0000009C  2950 0060                move.l     [A4 + 0x60], [A0]
000000A0  206C 0064                movea.l    A0, [A4 + 0x64]
000000A4  224D                     movea.l    A1, A5
000000A6  D3FC FFFF 08F4           add.l      A1, 0xFFFF08F4
000000AC  2151 0008                move.l     [A0 + 0x8], [A1]
000000B0  204D                     movea.l    A0, A5
000000B2  D1FC FFFF 08F8           add.l      A0, 0xFFFF08F8
000000B8  2950 0070                move.l     [A4 + 0x70], [A0]
000000BC  70FF                     moveq.l    D0, 0xFFFFFFFF
000000BE  2F00                     move.l     -[A7], D0
000000C0  4878 0087                push.l     0x87
000000C4  204C                     movea.l    A0, A4
000000C6  226C 0060                movea.l    A1, [A4 + 0x60]
000000CA  D0E9 0068                add.w      A0, [A1 + 0x68]
000000CE  2F08                     move.l     -[A7], A0
000000D0  2049                     movea.l    A0, A1
000000D2  2268 006C                movea.l    A1, [A0 + 0x6C]
000000D6  4E91                     jsr        [A1]
000000D8  4FEF 0020                lea.l      A7, [A7 + 0x20]
label000000DC:
000000DC  200C                     move.l     D0, A4
000000DE  4CEE 1808 FFF4           movem.l    D3,A3,A4, [A6 - 0xC]
000000E4  4E5E                     unlink     A6
000000E6  4E75                     rts
000000E8  8024 5F5F 6374 5F5F 3... dc.b       "__ct__19cBalanceSheetWindowFP6cAgent"
export_314:
00000110  4E56 0000                link       A6, 0
00000114  48E7 0108                movem.l    -[A7], D7,A4
00000118  2E2E 000C                move.l     D7, [A6 + 0xC]
0000011C  286E 0008                movea.l    A4, [A6 + 0x8]
00000120  200C                     move.l     D0, A4
00000122  6766                     beq        +0x68 /* 0000018A */
00000124  204D                     movea.l    A0, A5
00000126  D1FC FFFF 08F8           add.l      A0, 0xFFFF08F8
0000012C  2950 0070                move.l     [A4 + 0x70], [A0]
00000130  206C 0064                movea.l    A0, [A4 + 0x64]
00000134  224D                     movea.l    A1, A5
00000136  D3FC FFFF 08F4           add.l      A1, 0xFFFF08F4
0000013C  2151 0008                move.l     [A0 + 0x8], [A1]
00000140  204D                     movea.l    A0, A5
00000142  D1FC FFFF 08F0           add.l      A0, 0xFFFF08F0
00000148  2950 0060                move.l     [A4 + 0x60], [A0]
0000014C  200C                     move.l     D0, A4
0000014E  673A                     beq        +0x3C /* 0000018A */
00000150  7000                     moveq.l    D0, 0x00
00000152  2F00                     move.l     -[A7], D0
00000154  2F0C                     move.l     -[A7], A4
00000156  4EAD 10B2                jsr        [A5 + 0x10B2 /* export_530, CODE:26 @ 000003EC */]
0000015A  7002                     moveq.l    D0, 0x02
0000015C  C087                     and.l      D0, D7
0000015E  6718                     beq        +0x1A /* 00000178 */
00000160  7000                     moveq.l    D0, 0x00
00000162  2F00                     move.l     -[A7], D0
00000164  220C                     move.l     D1, A4
00000166  D2BC 0000 0170           add.l      D1, 0x170
0000016C  2F01                     move.l     -[A7], D1
0000016E  4EAD 1632                jsr        [A5 + 0x1632 /* export_706, CODE:32 @ 000036CC */]
00000172  7000                     moveq.l    D0, 0x00
00000174  504F                     addq.w     A7, 8
00000176  6002                     bra        +0x4 /* 0000017A */
label00000178:
00000178  7000                     moveq.l    D0, 0x00
label0000017A:
0000017A  0807 0000                btst.b     D7, 0x0
0000017E  504F                     addq.w     A7, 8
00000180  6708                     beq        +0xA /* 0000018A */
00000182  2F0C                     move.l     -[A7], A4
00000184  4EAD 0102                jsr        [A5 + 0x102 /* export_28, CODE:1 @ 00001BE0 */]
00000188  584F                     addq.w     A7, 4
label0000018A:
0000018A  4CEE 1080 FFF8           movem.l    D7,A4, [A6 - 0x8]
00000190  4E5E                     unlink     A6
00000192  4E75                     rts
00000194  9D5F 5F64 745F 5F31 3... dc.b       "__dt__19cBalanceSheetWindowFv"
export_315:
000001B4  4E56 0000                link       A6, 0
000001B8  48E7 0108                movem.l    -[A7], D7,A4
000001BC  2E2E 000C                move.l     D7, [A6 + 0xC]
000001C0  286E 0008                movea.l    A4, [A6 + 0x8]
000001C4  2007                     move.l     D0, D7
000001C6  0480 436C 5761           subi.l     D0, 0x436C5761 /* 'ClWa' */
000001CC  6616                     bne        +0x18 /* 000001E4 */
000001CE  204C                     movea.l    A0, A4
000001D0  226C 0060                movea.l    A1, [A4 + 0x60]
000001D4  D0E9 0110                add.w      A0, [A1 + 0x110]
000001D8  2F08                     move.l     -[A7], A0
000001DA  2049                     movea.l    A0, A1
000001DC  2268 0114                movea.l    A1, [A0 + 0x114]
000001E0  4E91                     jsr        [A1]
000001E2  584F                     addq.w     A7, 4
label000001E4:
000001E4  2F2E 0014                move.l     -[A7], [A6 + 0x14]
000001E8  2F2E 0010                move.l     -[A7], [A6 + 0x10]
000001EC  2F07                     move.l     -[A7], D7
000001EE  2F0C                     move.l     -[A7], A4
000001F0  4EAD 118A                jsr        [A5 + 0x118A /* export_557, CODE:26 @ 000021AC */]
000001F4  4FEF 0010                lea.l      A7, [A7 + 0x10]
000001F8  4CEE 1080 FFF8           movem.l    D7,A4, [A6 - 0x8]
000001FE  4E5E                     unlink     A6
00000200  4E75                     rts
00000202  8031 4861 7342 6565 6... dc.b       "HasBeenAChange__19cBalanceSheetWindowFlP6cAgentPc"
export_316:
00000238  4E56 0000                link       A6, 0
0000023C  2F0C                     move.l     -[A7], A4
0000023E  286E 0008                movea.l    A4, [A6 + 0x8]
00000242  204C                     movea.l    A0, A4
00000244  226C 0060                movea.l    A1, [A4 + 0x60]
00000248  D0E9 0110                add.w      A0, [A1 + 0x110]
0000024C  2F08                     move.l     -[A7], A0
0000024E  2049                     movea.l    A0, A1
00000250  2268 0114                movea.l    A1, [A0 + 0x114]
00000254  4E91                     jsr        [A1]
00000256  2F0C                     move.l     -[A7], A4
00000258  2F3C 574E 4435           move.l     -[A7], 0x574E4435 /* 'WND5' */
0000025E  204C                     movea.l    A0, A4
00000260  226C 0060                movea.l    A1, [A4 + 0x60]
00000264  D0E9 0060                add.w      A0, [A1 + 0x60]
00000268  2F08                     move.l     -[A7], A0
0000026A  2049                     movea.l    A0, A1
0000026C  2268 0064                movea.l    A1, [A0 + 0x64]
00000270  4E91                     jsr        [A1]
00000272  7001                     moveq.l    D0, 0x01
00000274  286E FFFC                movea.l    A4, [A6 - 0x4]
00000278  4E5E                     unlink     A6
0000027A  4E75                     rts
0000027C  9E43 6C6F 7365 5F5F 3... dc.b       "Close__19cBalanceSheetWindowFv"
export_317:
0000029E  4E56 0000                link       A6, 0
000002A2  48E7 0118                movem.l    -[A7], D7,A3,A4
000002A6  266E 0010                movea.l    A3, [A6 + 0x10]
000002AA  3E2E 000E                move.w     D7, [A6 + 0xE]
000002AE  286E 0008                movea.l    A4, [A6 + 0x8]
000002B2  0C47 0001                cmpi.w     D7, 0x1
000002B6  6632                     bne        +0x34 /* 000002EA */
000002B8  2F0B                     move.l     -[A7], A3
000002BA  2F0C                     move.l     -[A7], A4
000002BC  2F0C                     move.l     -[A7], A4
000002BE  7000                     moveq.l    D0, 0x00
000002C0  2F00                     move.l     -[A7], D0
000002C2  2F00                     move.l     -[A7], D0
000002C4  4EAD 097A                jsr        [A5 + 0x97A /* export_299, CODE:17 @ 00000000 */]
000002C8  2940 016C                move.l     [A4 + 0x16C], D0
000002CC  670C                     beq        +0xE /* 000002DA */
000002CE  202C 016C                move.l     D0, [A4 + 0x16C]
000002D2  D0BC 0000 0080           add.l      D0, 0x80
000002D8  6002                     bra        +0x4 /* 000002DC */
label000002DA:
000002DA  7000                     moveq.l    D0, 0x00
label000002DC:
000002DC  2F00                     move.l     -[A7], D0
000002DE  2F0C                     move.l     -[A7], A4
000002E0  4EAD 11F2                jsr        [A5 + 0x11F2 /* export_570, CODE:26 @ 000032DA */]
000002E4  4FEF 001C                lea.l      A7, [A7 + 0x1C]
000002E8  6010                     bra        +0x12 /* 000002FA */
label000002EA:
000002EA  2F0B                     move.l     -[A7], A3
000002EC  48C7                     ext.l      D7
000002EE  2F07                     move.l     -[A7], D7
000002F0  2F0C                     move.l     -[A7], A4
000002F2  4EAD 11B2                jsr        [A5 + 0x11B2 /* export_562, CODE:26 @ 00002D7C */]
000002F6  4FEF 000C                lea.l      A7, [A7 + 0xC]
label000002FA:
000002FA  4CEE 1880 FFF4           movem.l    D7,A3,A4, [A6 - 0xC]
00000300  4E5E                     unlink     A6
00000302  4E75                     rts
00000304  802A 4E65 7755 7365 7... dc.b       "NewUserItem__19cBalanceSheetWindowFsR4Rect"
export_318:
00000332  4E56 0000                link       A6, 0
00000336  48E7 1018                movem.l    -[A7], D3,A3,A4
0000033A  266E 000C                movea.l    A3, [A6 + 0xC]
0000033E  286E 0008                movea.l    A4, [A6 + 0x8]
00000342  200C                     move.l     D0, A4
00000344  6612                     bne        +0x14 /* 00000358 */
00000346  4878 01BE                push.l     0x1BE
0000034A  4EAD 010A                jsr        [A5 + 0x10A /* export_29, CODE:1 @ 00001C0A */]
0000034E  2840                     movea.l    A4, D0
00000350  200C                     move.l     D0, A4
00000352  584F                     addq.w     A7, 4
00000354  6700 00E6                beq        +0xE8 /* 0000043C */
label00000358:
00000358  200B                     move.l     D0, A3
0000035A  57C3                     seq        D3
0000035C  4403                     neg.b      D3
0000035E  674E                     beq        +0x50 /* 000003AE */
00000360  264C                     movea.l    A3, A4
00000362  47EB 01B2                lea.l      A3, [A3 + 0x1B2]
00000366  7601                     moveq.l    D3, 0x01
00000368  200C                     move.l     D0, A4
0000036A  D0BC 0000 01B2           add.l      D0, 0x1B2
00000370  6614                     bne        +0x16 /* 00000386 */
00000372  2F03                     move.l     -[A7], D3
00000374  700C                     moveq.l    D0, 0x0C
00000376  2F00                     move.l     -[A7], D0
00000378  4EAD 010A                jsr        [A5 + 0x10A /* export_29, CODE:1 @ 00001C0A */]
0000037C  588F                     addq.l     A7, 4
0000037E  261F                     move.l     D3, [A7]+
00000380  4A80                     tst.l      D0
00000382  6602                     bne        +0x4 /* 00000386 */
00000384  7600                     moveq.l    D3, 0x00
label00000386:
00000386  4A03                     tst.b      D3
00000388  6718                     beq        +0x1A /* 000003A2 */
0000038A  204D                     movea.l    A0, A5
0000038C  D1FC FFFF 0C86           add.l      A0, 0xFFFF0C86
00000392  2950 01BA                move.l     [A4 + 0x1BA], [A0]
00000396  7000                     moveq.l    D0, 0x00
00000398  2940 01B2                move.l     [A4 + 0x1B2], D0
0000039C  2940 01B6                move.l     [A4 + 0x1B6], D0
000003A0  6002                     bra        +0x4 /* 000003A4 */
label000003A2:
000003A2  7000                     moveq.l    D0, 0x00
label000003A4:
000003A4  200C                     move.l     D0, A4
000003A6  D0BC 0000 01B2           add.l      D0, 0x1B2
000003AC  6002                     bra        +0x4 /* 000003B0 */
label000003AE:
000003AE  200B                     move.l     D0, A3
label000003B0:
000003B0  7000                     moveq.l    D0, 0x00
000003B2  2F00                     move.l     -[A7], D0
000003B4  2F3C 4261 6E6B           move.l     -[A7], 0x42616E6B /* 'Bank' */
000003BA  2F2E 0010                move.l     -[A7], [A6 + 0x10]
000003BE  2F0B                     move.l     -[A7], A3
000003C0  2F0C                     move.l     -[A7], A4
000003C2  4EAD 10AA                jsr        [A5 + 0x10AA /* export_529, CODE:26 @ 0000020E */]
000003C6  204D                     movea.l    A0, A5
000003C8  D1FC FFFF 0C8A           add.l      A0, 0xFFFF0C8A
000003CE  2950 0060                move.l     [A4 + 0x60], [A0]
000003D2  206C 0064                movea.l    A0, [A4 + 0x64]
000003D6  224D                     movea.l    A1, A5
000003D8  D3FC FFFF 0C8E           add.l      A1, 0xFFFF0C8E
000003DE  2151 0008                move.l     [A0 + 0x8], [A1]
000003E2  204D                     movea.l    A0, A5
000003E4  D1FC FFFF 0C92           add.l      A0, 0xFFFF0C92
000003EA  2950 0070                move.l     [A4 + 0x70], [A0]
000003EE  7000                     moveq.l    D0, 0x00
000003F0  2F00                     move.l     -[A7], D0
000003F2  486C 0188                pea.l      [A4 + 0x188]
000003F6  4EAD 1D5A                jsr        [A5 + 0x1D5A /* export_935, CODE:36 @ 00001140 */]
000003FA  204D                     movea.l    A0, A5
000003FC  D1FC FFFF 0C96           add.l      A0, 0xFFFF0C96
00000402  2950 0190                move.l     [A4 + 0x190], [A0]
00000406  41EC 0188                lea.l      A0, [A4 + 0x188]
0000040A  204D                     movea.l    A0, A5
0000040C  D1FC FFFD 93F6           add.l      A0, 0xFFFD93F6
00000412  7000                     moveq.l    D0, 0x00
00000414  2080                     move.l     [A0], D0
00000416  70FF                     moveq.l    D0, 0xFFFFFFFF
00000418  2F00                     move.l     -[A7], D0
0000041A  4878 008D                push.l     0x8D
0000041E  204C                     movea.l    A0, A4
00000420  226C 0060                movea.l    A1, [A4 + 0x60]
00000424  D0E9 0068                add.w      A0, [A1 + 0x68]
00000428  2F08                     move.l     -[A7], A0
0000042A  2049                     movea.l    A0, A1
0000042C  2268 006C                movea.l    A1, [A0 + 0x6C]
00000430  4E91                     jsr        [A1]
00000432  397C FFFF 01A8           move.w     [A4 + 0x1A8], 0xFFFF
00000438  4FEF 0028                lea.l      A7, [A7 + 0x28]
label0000043C:
0000043C  200C                     move.l     D0, A4
0000043E  4CEE 1808 FFF4           movem.l    D3,A3,A4, [A6 - 0xC]
00000444  4E5E                     unlink     A6
00000446  4E75                     rts
00000448  9C5F 5F63 745F 5F31 3... dc.b       "__ct__11cBankWindowFP6cAgent"
export_319:
00000468  4E56 0000                link       A6, 0
0000046C  48E7 0108                movem.l    -[A7], D7,A4
00000470  2E2E 000C                move.l     D7, [A6 + 0xC]
00000474  286E 0008                movea.l    A4, [A6 + 0x8]
00000478  200C                     move.l     D0, A4
0000047A  6774                     beq        +0x76 /* 000004F0 */
0000047C  204D                     movea.l    A0, A5
0000047E  D1FC FFFF 0C92           add.l      A0, 0xFFFF0C92
00000484  2950 0070                move.l     [A4 + 0x70], [A0]
00000488  206C 0064                movea.l    A0, [A4 + 0x64]
0000048C  224D                     movea.l    A1, A5
0000048E  D3FC FFFF 0C8E           add.l      A1, 0xFFFF0C8E
00000494  2151 0008                move.l     [A0 + 0x8], [A1]
00000498  204D                     movea.l    A0, A5
0000049A  D1FC FFFF 0C8A           add.l      A0, 0xFFFF0C8A
000004A0  2950 0060                move.l     [A4 + 0x60], [A0]
000004A4  200C                     move.l     D0, A4
000004A6  6748                     beq        +0x4A /* 000004F0 */
000004A8  7002                     moveq.l    D0, 0x02
000004AA  2F00                     move.l     -[A7], D0
000004AC  486C 0188                pea.l      [A4 + 0x188]
000004B0  4EAD 16CA                jsr        [A5 + 0x16CA /* export_725, CODE:32 @ 00003F94 */]
000004B4  7000                     moveq.l    D0, 0x00
000004B6  2F00                     move.l     -[A7], D0
000004B8  2F0C                     move.l     -[A7], A4
000004BA  4EAD 10B2                jsr        [A5 + 0x10B2 /* export_530, CODE:26 @ 000003EC */]
000004BE  7002                     moveq.l    D0, 0x02
000004C0  C087                     and.l      D0, D7
000004C2  6718                     beq        +0x1A /* 000004DC */
000004C4  7000                     moveq.l    D0, 0x00
000004C6  2F00                     move.l     -[A7], D0
000004C8  220C                     move.l     D1, A4
000004CA  D2BC 0000 01B2           add.l      D1, 0x1B2
000004D0  2F01                     move.l     -[A7], D1
000004D2  4EAD 1632                jsr        [A5 + 0x1632 /* export_706, CODE:32 @ 000036CC */]
000004D6  7000                     moveq.l    D0, 0x00
000004D8  504F                     addq.w     A7, 8
000004DA  6002                     bra        +0x4 /* 000004DE */
label000004DC:
000004DC  7000                     moveq.l    D0, 0x00
label000004DE:
000004DE  0807 0000                btst.b     D7, 0x0
000004E2  4FEF 0010                lea.l      A7, [A7 + 0x10]
000004E6  6708                     beq        +0xA /* 000004F0 */
000004E8  2F0C                     move.l     -[A7], A4
000004EA  4EAD 0102                jsr        [A5 + 0x102 /* export_28, CODE:1 @ 00001BE0 */]
000004EE  584F                     addq.w     A7, 4
label000004F0:
000004F0  4CEE 1080 FFF8           movem.l    D7,A4, [A6 - 0x8]
000004F6  4E5E                     unlink     A6
000004F8  4E75                     rts
000004FA  955F 5F64 745F 5F31 3... dc.b       "__dt__11cBankWindowFv"
export_320:
00000512  4E56 0000                link       A6, 0
00000516  48E7 0318                movem.l    -[A7], D6,D7,A3,A4
0000051A  2C2E 000C                move.l     D6, [A6 + 0xC]
0000051E  286E 0008                movea.l    A4, [A6 + 0x8]
00000522  2006                     move.l     D0, D6
00000524  0480 B8BD ABC8           subi.l     D0, 0xB8BDABC8
0000052A  6754                     beq        +0x56 /* 00000580 */
0000052C  0480 8AAE AB99           subi.l     D0, 0x8AAEAB99
00000532  6710                     beq        +0x12 /* 00000544 */
00000534  0480 03D5 FCD6           subi.l     D0, 0x3D5FCD6
0000053A  6722                     beq        +0x24 /* 0000055E */
0000053C  5380                     subq.l     D0, 1
0000053E  676C                     beq        +0x6E /* 000005AC */
00000540  6000 037E                bra        +0x380 /* 000008C0 */
label00000544:
00000544  204C                     movea.l    A0, A4
00000546  226C 0060                movea.l    A1, [A4 + 0x60]
0000054A  D0E9 0110                add.w      A0, [A1 + 0x110]
0000054E  2F08                     move.l     -[A7], A0
00000550  2049                     movea.l    A0, A1
00000552  2268 0114                movea.l    A1, [A0 + 0x114]
00000556  4E91                     jsr        [A1]
00000558  584F                     addq.w     A7, 4
0000055A  6000 0364                bra        +0x366 /* 000008C0 */
label0000055E:
0000055E  700B                     moveq.l    D0, 0x0B
00000560  2F00                     move.l     -[A7], D0
00000562  486C 0188                pea.l      [A4 + 0x188]
00000566  4EAD 16D2                jsr        [A5 + 0x16D2 /* export_726, CODE:32 @ 00003FEA */]
0000056A  B0AE 0010                cmp.l      D0, [A6 + 0x10]
0000056E  504F                     addq.w     A7, 8
00000570  6600 0362                bne        +0x364 /* 000008D4 */
00000574  2F0C                     move.l     -[A7], A4
00000576  4EBA 0B80                jsr        [PC + 0xB80 /* 000010F8 */]
0000057A  584F                     addq.w     A7, 4
0000057C  6000 0356                bra        +0x358 /* 000008D4 */
label00000580:
00000580  700B                     moveq.l    D0, 0x0B
00000582  2F00                     move.l     -[A7], D0
00000584  486C 0188                pea.l      [A4 + 0x188]
00000588  4EAD 16D2                jsr        [A5 + 0x16D2 /* export_726, CODE:32 @ 00003FEA */]
0000058C  B0AE 0010                cmp.l      D0, [A6 + 0x10]
00000590  504F                     addq.w     A7, 8
00000592  6600 0340                bne        +0x342 /* 000008D4 */
00000596  70FF                     moveq.l    D0, 0xFFFFFFFF
00000598  B06C 01A8                cmp.w      D0, [A4 + 0x1A8]
0000059C  6700 0336                beq        +0x338 /* 000008D4 */
000005A0  2F0C                     move.l     -[A7], A4
000005A2  4EBA 0BC0                jsr        [PC + 0xBC0 /* 00001164 */]
000005A6  584F                     addq.w     A7, 4
000005A8  6000 032A                bra        +0x32C /* 000008D4 */
label000005AC:
000005AC  226E 0010                movea.l    A1, [A6 + 0x10]
000005B0  43E9 0080                lea.l      A1, [A1 + 0x80]
000005B4  2049                     movea.l    A0, A1
000005B6  226E 0010                movea.l    A1, [A6 + 0x10]
000005BA  2269 0088                movea.l    A1, [A1 + 0x88]
000005BE  D0E9 00B0                add.w      A0, [A1 + 0xB0]
000005C2  2F08                     move.l     -[A7], A0
000005C4  206E 0010                movea.l    A0, [A6 + 0x10]
000005C8  2068 0088                movea.l    A0, [A0 + 0x88]
000005CC  2268 00B4                movea.l    A1, [A0 + 0xB4]
000005D0  4E91                     jsr        [A1]
000005D2  266E 0010                movea.l    A3, [A6 + 0x10]
000005D6  204B                     movea.l    A0, A3
000005D8  226B 0060                movea.l    A1, [A3 + 0x60]
000005DC  D0E9 00E8                add.w      A0, [A1 + 0xE8]
000005E0  2F08                     move.l     -[A7], A0
000005E2  2049                     movea.l    A0, A1
000005E4  2268 00EC                movea.l    A1, [A0 + 0xEC]
000005E8  4E91                     jsr        [A1]
000005EA  700B                     moveq.l    D0, 0x0B
000005EC  2F00                     move.l     -[A7], D0
000005EE  486C 0188                pea.l      [A4 + 0x188]
000005F2  4EAD 16D2                jsr        [A5 + 0x16D2 /* export_726, CODE:32 @ 00003FEA */]
000005F6  B0AE 0010                cmp.l      D0, [A6 + 0x10]
000005FA  4FEF 0010                lea.l      A7, [A7 + 0x10]
000005FE  660C                     bne        +0xE /* 0000060C */
00000600  2F0C                     move.l     -[A7], A4
00000602  4EBA 0B60                jsr        [PC + 0xB60 /* 00001164 */]
00000606  584F                     addq.w     A7, 4
00000608  6000 02B6                bra        +0x2B8 /* 000008C0 */
label0000060C:
0000060C  700C                     moveq.l    D0, 0x0C
0000060E  2F00                     move.l     -[A7], D0
00000610  486C 0188                pea.l      [A4 + 0x188]
00000614  4EAD 16D2                jsr        [A5 + 0x16D2 /* export_726, CODE:32 @ 00003FEA */]
00000618  B0AE 0010                cmp.l      D0, [A6 + 0x10]
0000061C  504F                     addq.w     A7, 8
0000061E  6600 0090                bne        +0x92 /* 000006B0 */
00000622  204D                     movea.l    A0, A5
00000624  D1FC FFFF 0B64           add.l      A0, 0xFFFF0B64
0000062A  4850                     pea.l      [A0]
0000062C  4EAD 0742                jsr        [A5 + 0x742 /* export_228, CODE:12 @ 000045BA */]
00000630  204D                     movea.l    A0, A5
00000632  D1FC FFFD 93F6           add.l      A0, 0xFFFD93F6
00000638  2010                     move.l     D0, [A0]
0000063A  204D                     movea.l    A0, A5
0000063C  D1FC FFFE BD76           add.l      A0, 0xFFFEBD76
00000642  D190                     add.l      [A0], D0
00000644  204D                     movea.l    A0, A5
00000646  D1FC FFFD 93F6           add.l      A0, 0xFFFD93F6
0000064C  2010                     move.l     D0, [A0]
0000064E  204D                     movea.l    A0, A5
00000650  D1FC FFFD 93F0           add.l      A0, 0xFFFD93F0
00000656  D190                     add.l      [A0], D0
00000658  204D                     movea.l    A0, A5
0000065A  D1FC FFFD 93F6           add.l      A0, 0xFFFD93F6
00000660  2010                     move.l     D0, [A0]
00000662  204D                     movea.l    A0, A5
00000664  D1FC FFFD 93FA           add.l      A0, 0xFFFD93FA
0000066A  9190                     sub.l      [A0], D0
0000066C  7000                     moveq.l    D0, 0x00
0000066E  204D                     movea.l    A0, A5
00000670  D1FC FFFD 93F4           add.l      A0, 0xFFFD93F4
00000676  3010                     move.w     D0, [A0]
00000678  2F00                     move.l     -[A7], D0
0000067A  7005                     moveq.l    D0, 0x05
0000067C  2F00                     move.l     -[A7], D0
0000067E  204D                     movea.l    A0, A5
00000680  D1FC FFFD 93F6           add.l      A0, 0xFFFD93F6
00000686  2F10                     move.l     -[A7], [A0]
00000688  4EAD 02FA                jsr        [A5 + 0x2FA /* export_91, CODE:4 @ 00000000 */]
0000068C  204D                     movea.l    A0, A5
0000068E  D1FC FFFD 93EC           add.l      A0, 0xFFFD93EC
00000694  D190                     add.l      [A0], D0
00000696  204D                     movea.l    A0, A5
00000698  D1FC FFFD 93F6           add.l      A0, 0xFFFD93F6
0000069E  7000                     moveq.l    D0, 0x00
000006A0  2080                     move.l     [A0], D0
000006A2  2F0C                     move.l     -[A7], A4
000006A4  4EBA 04F8                jsr        [PC + 0x4F8 /* 00000B9E */]
000006A8  4FEF 0014                lea.l      A7, [A7 + 0x14]
000006AC  6000 0212                bra        +0x214 /* 000008C0 */
label000006B0:
000006B0  700D                     moveq.l    D0, 0x0D
000006B2  2F00                     move.l     -[A7], D0
000006B4  486C 0188                pea.l      [A4 + 0x188]
000006B8  4EAD 16D2                jsr        [A5 + 0x16D2 /* export_726, CODE:32 @ 00003FEA */]
000006BC  B0AE 0010                cmp.l      D0, [A6 + 0x10]
000006C0  504F                     addq.w     A7, 8
000006C2  661A                     bne        +0x1C /* 000006DE */
000006C4  204C                     movea.l    A0, A4
000006C6  226C 0060                movea.l    A1, [A4 + 0x60]
000006CA  D0E9 0078                add.w      A0, [A1 + 0x78]
000006CE  2F08                     move.l     -[A7], A0
000006D0  2049                     movea.l    A0, A1
000006D2  2268 007C                movea.l    A1, [A0 + 0x7C]
000006D6  4E91                     jsr        [A1]
000006D8  584F                     addq.w     A7, 4
000006DA  6000 01E4                bra        +0x1E6 /* 000008C0 */
label000006DE:
000006DE  700E                     moveq.l    D0, 0x0E
000006E0  2F00                     move.l     -[A7], D0
000006E2  486C 0188                pea.l      [A4 + 0x188]
000006E6  4EAD 16D2                jsr        [A5 + 0x16D2 /* export_726, CODE:32 @ 00003FEA */]
000006EA  B0AE 0010                cmp.l      D0, [A6 + 0x10]
000006EE  504F                     addq.w     A7, 8
000006F0  6600 0084                bne        +0x86 /* 00000776 */
000006F4  204D                     movea.l    A0, A5
000006F6  D1FC FFFF 0B72           add.l      A0, 0xFFFF0B72
000006FC  4850                     pea.l      [A0]
000006FE  4EAD 0742                jsr        [A5 + 0x742 /* export_228, CODE:12 @ 000045BA */]
00000702  204D                     movea.l    A0, A5
00000704  D1FC FFFD 93F0           add.l      A0, 0xFFFD93F0
0000070A  2F10                     move.l     -[A7], [A0]
0000070C  4878 03E8                push.l     0x3E8
00000710  4EAD 05FA                jsr        [A5 + 0x5FA /* export_187, CODE:10 @ 00002C4A */]
00000714  2E00                     move.l     D7, D0
00000716  204D                     movea.l    A0, A5
00000718  D1FC FFFD 93F0           add.l      A0, 0xFFFD93F0
0000071E  BE90                     cmp.l      D7, [A0]
00000720  4FEF 000C                lea.l      A7, [A7 + 0xC]
00000724  6600 019A                bne        +0x19C /* 000008C0 */
00000728  204D                     movea.l    A0, A5
0000072A  D1FC FFFD 93F0           add.l      A0, 0xFFFD93F0
00000730  2010                     move.l     D0, [A0]
00000732  E288                     lsr        D0, 1
00000734  204D                     movea.l    A0, A5
00000736  D1FC FFFF 0444           add.l      A0, 0xFFFF0444
0000073C  D190                     add.l      [A0], D0
0000073E  204D                     movea.l    A0, A5
00000740  D1FC FFFD 93F0           add.l      A0, 0xFFFD93F0
00000746  2010                     move.l     D0, [A0]
00000748  E488                     lsr        D0, 2
0000074A  204D                     movea.l    A0, A5
0000074C  D1FC FFFF 0448           add.l      A0, 0xFFFF0448
00000752  D190                     add.l      [A0], D0
00000754  204D                     movea.l    A0, A5
00000756  D1FC FFFD 93F0           add.l      A0, 0xFFFD93F0
0000075C  7000                     moveq.l    D0, 0x00
0000075E  2080                     move.l     [A0], D0
00000760  204D                     movea.l    A0, A5
00000762  D1FC FFFD 93EC           add.l      A0, 0xFFFD93EC
00000768  2080                     move.l     [A0], D0
0000076A  2F0C                     move.l     -[A7], A4
0000076C  4EBA 0430                jsr        [PC + 0x430 /* 00000B9E */]
00000770  584F                     addq.w     A7, 4
00000772  6000 014C                bra        +0x14E /* 000008C0 */
label00000776:
00000776  204D                     movea.l    A0, A5
00000778  D1FC FFFF 0B80           add.l      A0, 0xFFFF0B80
0000077E  4850                     pea.l      [A0]
00000780  4EAD 0742                jsr        [A5 + 0x742 /* export_228, CODE:12 @ 000045BA */]
00000784  4247                     clr.w      D7
00000786  584F                     addq.w     A7, 4
00000788  601A                     bra        +0x1C /* 000007A4 */
label0000078A:
0000078A  48C7                     ext.l      D7
0000078C  2F07                     move.l     -[A7], D7
0000078E  486C 0188                pea.l      [A4 + 0x188]
00000792  4EAD 16D2                jsr        [A5 + 0x16D2 /* export_726, CODE:32 @ 00003FEA */]
00000796  2640                     movea.l    A3, D0
00000798  B7EE 0010                cmpa.l     A3, [A6 + 0x10]
0000079C  504F                     addq.w     A7, 8
0000079E  670C                     beq        +0xE /* 000007AC */
000007A0  3007                     move.w     D0, D7
000007A2  5247                     addq.w     D7, 1
label000007A4:
000007A4  48C7                     ext.l      D7
000007A6  BEAC 0194                cmp.l      D7, [A4 + 0x194]
000007AA  6DDE                     blt        -0x20 /* 0000078A */
label000007AC:
000007AC  3007                     move.w     D0, D7
000007AE  6B00 00C4                bmi        +0xC6 /* 00000874 */
000007B2  0C40 000A                cmpi.w     D0, 0xA /* '\n' */
000007B6  6E00 00BC                bgt        +0xBE /* 00000874 */
000007BA  D040                     add.w      D0, D0
000007BC  303B 0006                move.w     D0, [PC + D0.w + 0x6]
000007C0  4EFB 0000                jmp        [PC + D0.w]
000007C4  0018 0018                ori.b      [A0]+, 0x18
000007C8  0018 0018                ori.b      [A0]+, 0x18
000007CC  0018 0018                ori.b      [A0]+, 0x18
000007D0  0018 0018                ori.b      [A0]+, 0x18
000007D4  0018 0018                ori.b      [A0]+, 0x18
000007D8  00A6 204D D1FC           ori.l      -[A6], 0x204DD1FC
000007DE  FFFD                     .invalid   <<F/7/7>>
000007E0  93F6 2210                sub.l      A1, [A6 + D2.w * 2 + 0x10]
000007E4  D281                     add.l      D1, D1
000007E6  2001                     move.l     D0, D1
000007E8  E589                     lsl        D1, 2
000007EA  D280                     add.l      D1, D0
000007EC  48C7                     ext.l      D7
000007EE  D287                     add.l      D1, D7
000007F0  204D                     movea.l    A0, A5
000007F2  D1FC FFFD 93F6           add.l      A0, 0xFFFD93F6
000007F8  2081                     move.l     [A0], D1
000007FA  4EAD 07C2                jsr        [A5 + 0x7C2 /* export_244, CODE:13 @ 00004F1C */]
000007FE  204D                     movea.l    A0, A5
00000800  D1FC FFFD 93FA           add.l      A0, 0xFFFD93FA
00000806  2080                     move.l     [A0], D0
00000808  204D                     movea.l    A0, A5
0000080A  D1FC FFFD 93F6           add.l      A0, 0xFFFD93F6
00000810  2010                     move.l     D0, [A0]
00000812  204D                     movea.l    A0, A5
00000814  D1FC FFFD 93FA           add.l      A0, 0xFFFD93FA
0000081A  B090                     cmp.l      D0, [A0]
0000081C  6312                     bls        +0x14 /* 00000830 */
0000081E  204D                     movea.l    A0, A5
00000820  D1FC FFFD 93FA           add.l      A0, 0xFFFD93FA
00000826  224D                     movea.l    A1, A5
00000828  D3FC FFFD 93F6           add.l      A1, 0xFFFD93F6
0000082E  2290                     move.l     [A1], [A0]
label00000830:
00000830  204D                     movea.l    A0, A5
00000832  D1FC FFFE BD76           add.l      A0, 0xFFFEBD76
00000838  2010                     move.l     D0, [A0]
0000083A  204D                     movea.l    A0, A5
0000083C  D1FC FFFD 93F6           add.l      A0, 0xFFFD93F6
00000842  D090                     add.l      D0, [A0]
00000844  0C80 0098 967F           cmpi.l     D0, 0x98967F
0000084A  6328                     bls        +0x2A /* 00000874 */
0000084C  203C 0098 967F           move.l     D0, 0x98967F
00000852  204D                     movea.l    A0, A5
00000854  D1FC FFFE BD76           add.l      A0, 0xFFFEBD76
0000085A  9090                     sub.l      D0, [A0]
0000085C  204D                     movea.l    A0, A5
0000085E  D1FC FFFD 93F6           add.l      A0, 0xFFFD93F6
00000864  2080                     move.l     [A0], D0
00000866  600C                     bra        +0xE /* 00000874 */
00000868  204D                     movea.l    A0, A5
0000086A  D1FC FFFD 93F6           add.l      A0, 0xFFFD93F6
00000870  7000                     moveq.l    D0, 0x00
00000872  2080                     move.l     [A0], D0
label00000874:
00000874  206C 0184                movea.l    A0, [A4 + 0x184]
00000878  47E8 012A                lea.l      A3, [A0 + 0x12A]
0000087C  2F0B                     move.l     -[A7], A3
0000087E  4EAD 1782                jsr        [A5 + 0x1782 /* export_748, CODE:32 @ 00004E1E */]
00000882  4207                     clr.b      D7
00000884  7000                     moveq.l    D0, 0x00
00000886  1007                     move.b     D0, D7
00000888  2F00                     move.l     -[A7], D0
0000088A  2F2B 0014                move.l     -[A7], [A3 + 0x14]
0000088E  204D                     movea.l    A0, A5
00000890  D1FC FFFF 0B8E           add.l      A0, 0xFFFF0B8E
00000896  4850                     pea.l      [A0]
00000898  2F0B                     move.l     -[A7], A3
0000089A  4EAD 178A                jsr        [A5 + 0x178A /* export_749, CODE:32 @ 00004E80 */]
0000089E  204D                     movea.l    A0, A5
000008A0  D1FC FFFD 93F6           add.l      A0, 0xFFFD93F6
000008A6  2F10                     move.l     -[A7], [A0]
000008A8  206C 0184                movea.l    A0, [A4 + 0x184]
000008AC  4868 012A                pea.l      [A0 + 0x12A]
000008B0  4EAD 17FA                jsr        [A5 + 0x17FA /* export_763, CODE:32 @ 000057BC */]
000008B4  2F2C 0184                move.l     -[A7], [A4 + 0x184]
000008B8  4EAD 1F52                jsr        [A5 + 0x1F52 /* export_998, CODE:37 @ 000014C8 */]
000008BC  4FEF 0020                lea.l      A7, [A7 + 0x20]
label000008C0:
000008C0  2F2E 0014                move.l     -[A7], [A6 + 0x14]
000008C4  2F2E 0010                move.l     -[A7], [A6 + 0x10]
000008C8  2F06                     move.l     -[A7], D6
000008CA  2F0C                     move.l     -[A7], A4
000008CC  4EAD 118A                jsr        [A5 + 0x118A /* export_557, CODE:26 @ 000021AC */]
000008D0  4FEF 0010                lea.l      A7, [A7 + 0x10]
label000008D4:
000008D4  4CEE 18C0 FFF0           movem.l    D6,D7,A3,A4, [A6 - 0x10]
000008DA  4E5E                     unlink     A6
000008DC  4E75                     rts
000008DE  8029 4861 7342 6565 6... dc.b       "HasBeenAChange__11cBankWindowFlP6cAgentPc"
export_321:
0000090C  4E56 0000                link       A6, 0
00000910  48E7 0318                movem.l    -[A7], D6,D7,A3,A4
00000914  286E 0008                movea.l    A4, [A6 + 0x8]
00000918  206E 000C                movea.l    A0, [A6 + 0xC]
0000091C  1028 0005                move.b     D0, [A0 + 0x5]
00000920  4880                     ext.w      D0
00000922  3E3C 00FF                move.w     D7, 0xFF
00000926  CE00                     and.b      D7, D0
00000928  0C07 0030                cmpi.b     D7, 0x30 /* '0' */
0000092C  6D00 00B4                blt        +0xB6 /* 000009E2 */
00000930  0C07 0039                cmpi.b     D7, 0x39 /* '9' */
00000934  6E00 00AC                bgt        +0xAE /* 000009E2 */
00000938  204D                     movea.l    A0, A5
0000093A  D1FC FFFF 0BA2           add.l      A0, 0xFFFF0BA2
00000940  4850                     pea.l      [A0]
00000942  4EAD 0742                jsr        [A5 + 0x742 /* export_228, CODE:12 @ 000045BA */]
00000946  4887                     ext.w      D7
00000948  3C07                     move.w     D6, D7
0000094A  9C7C 0030                sub.w      D6, 0x30 /* '0' */
0000094E  204D                     movea.l    A0, A5
00000950  D1FC FFFD 93F6           add.l      A0, 0xFFFD93F6
00000956  2210                     move.l     D1, [A0]
00000958  D281                     add.l      D1, D1
0000095A  2001                     move.l     D0, D1
0000095C  E589                     lsl        D1, 2
0000095E  D280                     add.l      D1, D0
00000960  48C6                     ext.l      D6
00000962  D286                     add.l      D1, D6
00000964  204D                     movea.l    A0, A5
00000966  D1FC FFFD 93F6           add.l      A0, 0xFFFD93F6
0000096C  2081                     move.l     [A0], D1
0000096E  4EAD 07C2                jsr        [A5 + 0x7C2 /* export_244, CODE:13 @ 00004F1C */]
00000972  204D                     movea.l    A0, A5
00000974  D1FC FFFD 93FA           add.l      A0, 0xFFFD93FA
0000097A  2080                     move.l     [A0], D0
0000097C  204D                     movea.l    A0, A5
0000097E  D1FC FFFD 93F6           add.l      A0, 0xFFFD93F6
00000984  2010                     move.l     D0, [A0]
00000986  204D                     movea.l    A0, A5
00000988  D1FC FFFD 93FA           add.l      A0, 0xFFFD93FA
0000098E  B090                     cmp.l      D0, [A0]
00000990  584F                     addq.w     A7, 4
00000992  6312                     bls        +0x14 /* 000009A6 */
00000994  204D                     movea.l    A0, A5
00000996  D1FC FFFD 93FA           add.l      A0, 0xFFFD93FA
0000099C  224D                     movea.l    A1, A5
0000099E  D3FC FFFD 93F6           add.l      A1, 0xFFFD93F6
000009A4  2290                     move.l     [A1], [A0]
label000009A6:
000009A6  204D                     movea.l    A0, A5
000009A8  D1FC FFFE BD76           add.l      A0, 0xFFFEBD76
000009AE  2010                     move.l     D0, [A0]
000009B0  204D                     movea.l    A0, A5
000009B2  D1FC FFFD 93F6           add.l      A0, 0xFFFD93F6
000009B8  D090                     add.l      D0, [A0]
000009BA  0C80 0098 967F           cmpi.l     D0, 0x98967F
000009C0  6300 00FC                bls        +0xFE /* 00000ABE */
000009C4  203C 0098 967F           move.l     D0, 0x98967F
000009CA  204D                     movea.l    A0, A5
000009CC  D1FC FFFE BD76           add.l      A0, 0xFFFEBD76
000009D2  9090                     sub.l      D0, [A0]
000009D4  204D                     movea.l    A0, A5
000009D6  D1FC FFFD 93F6           add.l      A0, 0xFFFD93F6
000009DC  2080                     move.l     [A0], D0
000009DE  6000 00DE                bra        +0xE0 /* 00000ABE */
label000009E2:
000009E2  0C07 001B                cmpi.b     D7, 0x1B
000009E6  6620                     bne        +0x22 /* 00000A08 */
000009E8  204D                     movea.l    A0, A5
000009EA  D1FC FFFF 0BB0           add.l      A0, 0xFFFF0BB0
000009F0  4850                     pea.l      [A0]
000009F2  4EAD 0742                jsr        [A5 + 0x742 /* export_228, CODE:12 @ 000045BA */]
000009F6  204D                     movea.l    A0, A5
000009F8  D1FC FFFD 93F6           add.l      A0, 0xFFFD93F6
000009FE  7000                     moveq.l    D0, 0x00
00000A00  2080                     move.l     [A0], D0
00000A02  584F                     addq.w     A7, 4
00000A04  6000 00B8                bra        +0xBA /* 00000ABE */
label00000A08:
00000A08  0C07 0003                cmpi.b     D7, 0x3
00000A0C  6600 00B0                bne        +0xB2 /* 00000ABE */
00000A10  204D                     movea.l    A0, A5
00000A12  D1FC FFFF 0BBE           add.l      A0, 0xFFFF0BBE
00000A18  4850                     pea.l      [A0]
00000A1A  4EAD 0742                jsr        [A5 + 0x742 /* export_228, CODE:12 @ 000045BA */]
00000A1E  204D                     movea.l    A0, A5
00000A20  D1FC FFFD 93F6           add.l      A0, 0xFFFD93F6
00000A26  2010                     move.l     D0, [A0]
00000A28  204D                     movea.l    A0, A5
00000A2A  D1FC FFFE BD76           add.l      A0, 0xFFFEBD76
00000A30  D190                     add.l      [A0], D0
00000A32  204D                     movea.l    A0, A5
00000A34  D1FC FFFD 93F6           add.l      A0, 0xFFFD93F6
00000A3A  2010                     move.l     D0, [A0]
00000A3C  204D                     movea.l    A0, A5
00000A3E  D1FC FFFD 93F0           add.l      A0, 0xFFFD93F0
00000A44  D190                     add.l      [A0], D0
00000A46  204D                     movea.l    A0, A5
00000A48  D1FC FFFD 93F6           add.l      A0, 0xFFFD93F6
00000A4E  2010                     move.l     D0, [A0]
00000A50  204D                     movea.l    A0, A5
00000A52  D1FC FFFD 93FA           add.l      A0, 0xFFFD93FA
00000A58  9190                     sub.l      [A0], D0
00000A5A  7000                     moveq.l    D0, 0x00
00000A5C  204D                     movea.l    A0, A5
00000A5E  D1FC FFFD 93F4           add.l      A0, 0xFFFD93F4
00000A64  3010                     move.w     D0, [A0]
00000A66  2F00                     move.l     -[A7], D0
00000A68  7005                     moveq.l    D0, 0x05
00000A6A  2F00                     move.l     -[A7], D0
00000A6C  204D                     movea.l    A0, A5
00000A6E  D1FC FFFD 93F6           add.l      A0, 0xFFFD93F6
00000A74  2F10                     move.l     -[A7], [A0]
00000A76  4EAD 02FA                jsr        [A5 + 0x2FA /* export_91, CODE:4 @ 00000000 */]
00000A7A  204D                     movea.l    A0, A5
00000A7C  D1FC FFFD 93EC           add.l      A0, 0xFFFD93EC
00000A82  D190                     add.l      [A0], D0
00000A84  204D                     movea.l    A0, A5
00000A86  D1FC FFFD 93F6           add.l      A0, 0xFFFD93F6
00000A8C  4A90                     tst.l      [A0]
00000A8E  4FEF 0010                lea.l      A7, [A7 + 0x10]
00000A92  6616                     bne        +0x18 /* 00000AAA */
00000A94  204C                     movea.l    A0, A4
00000A96  226C 0060                movea.l    A1, [A4 + 0x60]
00000A9A  D0E9 0078                add.w      A0, [A1 + 0x78]
00000A9E  2F08                     move.l     -[A7], A0
00000AA0  2049                     movea.l    A0, A1
00000AA2  2268 007C                movea.l    A1, [A0 + 0x7C]
00000AA6  4E91                     jsr        [A1]
00000AA8  584F                     addq.w     A7, 4
label00000AAA:
00000AAA  204D                     movea.l    A0, A5
00000AAC  D1FC FFFD 93F6           add.l      A0, 0xFFFD93F6
00000AB2  7000                     moveq.l    D0, 0x00
00000AB4  2080                     move.l     [A0], D0
00000AB6  2F0C                     move.l     -[A7], A4
00000AB8  4EBA 00E4                jsr        [PC + 0xE4 /* 00000B9E */]
00000ABC  584F                     addq.w     A7, 4
label00000ABE:
00000ABE  206C 0184                movea.l    A0, [A4 + 0x184]
00000AC2  47E8 012A                lea.l      A3, [A0 + 0x12A]
00000AC6  2F0B                     move.l     -[A7], A3
00000AC8  4EAD 1782                jsr        [A5 + 0x1782 /* export_748, CODE:32 @ 00004E1E */]
00000ACC  4207                     clr.b      D7
00000ACE  7000                     moveq.l    D0, 0x00
00000AD0  1007                     move.b     D0, D7
00000AD2  2F00                     move.l     -[A7], D0
00000AD4  2F2B 0014                move.l     -[A7], [A3 + 0x14]
00000AD8  204D                     movea.l    A0, A5
00000ADA  D1FC FFFF 0BCC           add.l      A0, 0xFFFF0BCC
00000AE0  4850                     pea.l      [A0]
00000AE2  2F0B                     move.l     -[A7], A3
00000AE4  4EAD 178A                jsr        [A5 + 0x178A /* export_749, CODE:32 @ 00004E80 */]
00000AE8  204D                     movea.l    A0, A5
00000AEA  D1FC FFFD 93F6           add.l      A0, 0xFFFD93F6
00000AF0  2F10                     move.l     -[A7], [A0]
00000AF2  206C 0184                movea.l    A0, [A4 + 0x184]
00000AF6  4868 012A                pea.l      [A0 + 0x12A]
00000AFA  4EAD 17FA                jsr        [A5 + 0x17FA /* export_763, CODE:32 @ 000057BC */]
00000AFE  2F2C 0184                move.l     -[A7], [A4 + 0x184]
00000B02  4EAD 1F52                jsr        [A5 + 0x1F52 /* export_998, CODE:37 @ 000014C8 */]
00000B06  7001                     moveq.l    D0, 0x01
00000B08  4FEF 0020                lea.l      A7, [A7 + 0x20]
00000B0C  4CEE 18C0 FFF0           movem.l    D6,D7,A3,A4, [A6 - 0x10]
00000B12  4E5E                     unlink     A6
00000B14  4E75                     rts
00000B16  8025 4B65 7944 6F77 6... dc.b       "KeyDown__11cBankWindowFR11EventRecord"
export_322:
00000B40  4E56 0000                link       A6, 0
00000B44  2F0C                     move.l     -[A7], A4
00000B46  286E 0008                movea.l    A4, [A6 + 0x8]
00000B4A  204C                     movea.l    A0, A4
00000B4C  226C 0060                movea.l    A1, [A4 + 0x60]
00000B50  D0E9 0110                add.w      A0, [A1 + 0x110]
00000B54  2F08                     move.l     -[A7], A0
00000B56  2049                     movea.l    A0, A1
00000B58  2268 0114                movea.l    A1, [A0 + 0x114]
00000B5C  4E91                     jsr        [A1]
00000B5E  2F0C                     move.l     -[A7], A4
00000B60  2F3C 574E 4435           move.l     -[A7], 0x574E4435 /* 'WND5' */
00000B66  204C                     movea.l    A0, A4
00000B68  226C 0060                movea.l    A1, [A4 + 0x60]
00000B6C  D0E9 0060                add.w      A0, [A1 + 0x60]
00000B70  2F08                     move.l     -[A7], A0
00000B72  2049                     movea.l    A0, A1
00000B74  2268 0064                movea.l    A1, [A0 + 0x64]
00000B78  4E91                     jsr        [A1]
00000B7A  7001                     moveq.l    D0, 0x01
00000B7C  286E FFFC                movea.l    A4, [A6 - 0x4]
00000B80  4E5E                     unlink     A6
00000B82  4E75                     rts
00000B84  9643 6C6F 7365 5F5F 3... dc.b       "Close__11cBankWindowFv"
export_323:
fn00000B9E:
00000B9E  4E56 0000                link       A6, 0
00000BA2  48E7 0118                movem.l    -[A7], D7,A3,A4
00000BA6  286E 0008                movea.l    A4, [A6 + 0x8]
00000BAA  4EAD 07C2                jsr        [A5 + 0x7C2 /* export_244, CODE:13 @ 00004F1C */]
00000BAE  204D                     movea.l    A0, A5
00000BB0  D1FC FFFD 93FA           add.l      A0, 0xFFFD93FA
00000BB6  2080                     move.l     [A0], D0
00000BB8  206C 016C                movea.l    A0, [A4 + 0x16C]
00000BBC  47E8 012A                lea.l      A3, [A0 + 0x12A]
00000BC0  2F0B                     move.l     -[A7], A3
00000BC2  4EAD 1782                jsr        [A5 + 0x1782 /* export_748, CODE:32 @ 00004E1E */]
00000BC6  4207                     clr.b      D7
00000BC8  7000                     moveq.l    D0, 0x00
00000BCA  1007                     move.b     D0, D7
00000BCC  2F00                     move.l     -[A7], D0
00000BCE  2F2B 0014                move.l     -[A7], [A3 + 0x14]
00000BD2  204D                     movea.l    A0, A5
00000BD4  D1FC FFFF 0BE0           add.l      A0, 0xFFFF0BE0
00000BDA  4850                     pea.l      [A0]
00000BDC  2F0B                     move.l     -[A7], A3
00000BDE  4EAD 178A                jsr        [A5 + 0x178A /* export_749, CODE:32 @ 00004E80 */]
00000BE2  204D                     movea.l    A0, A5
00000BE4  D1FC FFFE BD76           add.l      A0, 0xFFFEBD76
00000BEA  2F10                     move.l     -[A7], [A0]
00000BEC  206C 016C                movea.l    A0, [A4 + 0x16C]
00000BF0  4868 012A                pea.l      [A0 + 0x12A]
00000BF4  4EAD 17FA                jsr        [A5 + 0x17FA /* export_763, CODE:32 @ 000057BC */]
00000BF8  2F2C 016C                move.l     -[A7], [A4 + 0x16C]
00000BFC  4EAD 1F52                jsr        [A5 + 0x1F52 /* export_998, CODE:37 @ 000014C8 */]
00000C00  206C 0170                movea.l    A0, [A4 + 0x170]
00000C04  47E8 012A                lea.l      A3, [A0 + 0x12A]
00000C08  2F0B                     move.l     -[A7], A3
00000C0A  4EAD 1782                jsr        [A5 + 0x1782 /* export_748, CODE:32 @ 00004E1E */]
00000C0E  4207                     clr.b      D7
00000C10  7000                     moveq.l    D0, 0x00
00000C12  1007                     move.b     D0, D7
00000C14  2F00                     move.l     -[A7], D0
00000C16  2F2B 0014                move.l     -[A7], [A3 + 0x14]
00000C1A  204D                     movea.l    A0, A5
00000C1C  D1FC FFFF 0BF6           add.l      A0, 0xFFFF0BF6
00000C22  4850                     pea.l      [A0]
00000C24  2F0B                     move.l     -[A7], A3
00000C26  4EAD 178A                jsr        [A5 + 0x178A /* export_749, CODE:32 @ 00004E80 */]
00000C2A  204D                     movea.l    A0, A5
00000C2C  D1FC FFFD 93F0           add.l      A0, 0xFFFD93F0
00000C32  2F10                     move.l     -[A7], [A0]
00000C34  206C 0170                movea.l    A0, [A4 + 0x170]
00000C38  4868 012A                pea.l      [A0 + 0x12A]
00000C3C  4EAD 17FA                jsr        [A5 + 0x17FA /* export_763, CODE:32 @ 000057BC */]
00000C40  2F2C 0170                move.l     -[A7], [A4 + 0x170]
00000C44  4EAD 1F52                jsr        [A5 + 0x1F52 /* export_998, CODE:37 @ 000014C8 */]
00000C48  206C 0174                movea.l    A0, [A4 + 0x174]
00000C4C  47E8 012A                lea.l      A3, [A0 + 0x12A]
00000C50  2F0B                     move.l     -[A7], A3
00000C52  4EAD 1782                jsr        [A5 + 0x1782 /* export_748, CODE:32 @ 00004E1E */]
00000C56  4207                     clr.b      D7
00000C58  7000                     moveq.l    D0, 0x00
00000C5A  1007                     move.b     D0, D7
00000C5C  2F00                     move.l     -[A7], D0
00000C5E  2F2B 0014                move.l     -[A7], [A3 + 0x14]
00000C62  204D                     movea.l    A0, A5
00000C64  D1FC FFFF 0C0C           add.l      A0, 0xFFFF0C0C
00000C6A  4850                     pea.l      [A0]
00000C6C  2F0B                     move.l     -[A7], A3
00000C6E  4EAD 178A                jsr        [A5 + 0x178A /* export_749, CODE:32 @ 00004E80 */]
00000C72  204D                     movea.l    A0, A5
00000C74  D1FC FFFD 93FA           add.l      A0, 0xFFFD93FA
00000C7A  2F10                     move.l     -[A7], [A0]
00000C7C  206C 0174                movea.l    A0, [A4 + 0x174]
00000C80  4868 012A                pea.l      [A0 + 0x12A]
00000C84  4EAD 17FA                jsr        [A5 + 0x17FA /* export_763, CODE:32 @ 000057BC */]
00000C88  2F2C 0174                move.l     -[A7], [A4 + 0x174]
00000C8C  4EAD 1F52                jsr        [A5 + 0x1F52 /* export_998, CODE:37 @ 000014C8 */]
00000C90  206C 0178                movea.l    A0, [A4 + 0x178]
00000C94  47E8 012A                lea.l      A3, [A0 + 0x12A]
00000C98  2F0B                     move.l     -[A7], A3
00000C9A  4EAD 1782                jsr        [A5 + 0x1782 /* export_748, CODE:32 @ 00004E1E */]
00000C9E  4207                     clr.b      D7
00000CA0  7000                     moveq.l    D0, 0x00
00000CA2  1007                     move.b     D0, D7
00000CA4  2F00                     move.l     -[A7], D0
00000CA6  2F2B 0014                move.l     -[A7], [A3 + 0x14]
00000CAA  204D                     movea.l    A0, A5
00000CAC  D1FC FFFF 0C22           add.l      A0, 0xFFFF0C22
00000CB2  4850                     pea.l      [A0]
00000CB4  2F0B                     move.l     -[A7], A3
00000CB6  4EAD 178A                jsr        [A5 + 0x178A /* export_749, CODE:32 @ 00004E80 */]
00000CBA  204D                     movea.l    A0, A5
00000CBC  D1FC FFFD 93F4           add.l      A0, 0xFFFD93F4
00000CC2  3010                     move.w     D0, [A0]
00000CC4  48C0                     ext.l      D0
00000CC6  2F00                     move.l     -[A7], D0
00000CC8  206C 0178                movea.l    A0, [A4 + 0x178]
00000CCC  4868 012A                pea.l      [A0 + 0x12A]
00000CD0  4EAD 17FA                jsr        [A5 + 0x17FA /* export_763, CODE:32 @ 000057BC */]
00000CD4  2F2C 0178                move.l     -[A7], [A4 + 0x178]
00000CD8  4EAD 1F52                jsr        [A5 + 0x1F52 /* export_998, CODE:37 @ 000014C8 */]
00000CDC  206C 017C                movea.l    A0, [A4 + 0x17C]
00000CE0  47E8 012A                lea.l      A3, [A0 + 0x12A]
00000CE4  2F0B                     move.l     -[A7], A3
00000CE6  4EAD 1782                jsr        [A5 + 0x1782 /* export_748, CODE:32 @ 00004E1E */]
00000CEA  4207                     clr.b      D7
00000CEC  7000                     moveq.l    D0, 0x00
00000CEE  1007                     move.b     D0, D7
00000CF0  2F00                     move.l     -[A7], D0
00000CF2  2F2B 0014                move.l     -[A7], [A3 + 0x14]
00000CF6  204D                     movea.l    A0, A5
00000CF8  D1FC FFFF 0C3A           add.l      A0, 0xFFFF0C3A
00000CFE  4850                     pea.l      [A0]
00000D00  2F0B                     move.l     -[A7], A3
00000D02  4EAD 178A                jsr        [A5 + 0x178A /* export_749, CODE:32 @ 00004E80 */]
00000D06  204D                     movea.l    A0, A5
00000D08  D1FC FFFD 93EC           add.l      A0, 0xFFFD93EC
00000D0E  2F10                     move.l     -[A7], [A0]
00000D10  206C 017C                movea.l    A0, [A4 + 0x17C]
00000D14  4868 012A                pea.l      [A0 + 0x12A]
00000D18  4EAD 17FA                jsr        [A5 + 0x17FA /* export_763, CODE:32 @ 000057BC */]
00000D1C  2F2C 017C                move.l     -[A7], [A4 + 0x17C]
00000D20  4EAD 1F52                jsr        [A5 + 0x1F52 /* export_998, CODE:37 @ 000014C8 */]
00000D24  206C 0184                movea.l    A0, [A4 + 0x184]
00000D28  47E8 012A                lea.l      A3, [A0 + 0x12A]
00000D2C  2F0B                     move.l     -[A7], A3
00000D2E  4EAD 1782                jsr        [A5 + 0x1782 /* export_748, CODE:32 @ 00004E1E */]
00000D32  4207                     clr.b      D7
00000D34  7000                     moveq.l    D0, 0x00
00000D36  1007                     move.b     D0, D7
00000D38  2F00                     move.l     -[A7], D0
00000D3A  2F2B 0014                move.l     -[A7], [A3 + 0x14]
00000D3E  204D                     movea.l    A0, A5
00000D40  D1FC FFFF 0C54           add.l      A0, 0xFFFF0C54
00000D46  4850                     pea.l      [A0]
00000D48  2F0B                     move.l     -[A7], A3
00000D4A  4EAD 178A                jsr        [A5 + 0x178A /* export_749, CODE:32 @ 00004E80 */]
00000D4E  204D                     movea.l    A0, A5
00000D50  D1FC FFFD 93F6           add.l      A0, 0xFFFD93F6
00000D56  2F10                     move.l     -[A7], [A0]
00000D58  206C 0184                movea.l    A0, [A4 + 0x184]
00000D5C  4868 012A                pea.l      [A0 + 0x12A]
00000D60  4EAD 17FA                jsr        [A5 + 0x17FA /* export_763, CODE:32 @ 000057BC */]
00000D64  2F2C 0184                move.l     -[A7], [A4 + 0x184]
00000D68  4EAD 1F52                jsr        [A5 + 0x1F52 /* export_998, CODE:37 @ 000014C8 */]
00000D6C  224D                     movea.l    A1, A5
00000D6E  D3FC FFFF 7868           add.l      A1, 0xFFFF7868
00000D74  2051                     movea.l    A0, [A1]
00000D76  2868 0128                movea.l    A4, [A0 + 0x128]
00000D7A  2F2C 00C8                move.l     -[A7], [A4 + 0xC8]
00000D7E  4EAD 1042                jsr        [A5 + 0x1042 /* export_516, CODE:25 @ 000001DA */]
00000D82  4CEE 1880 FFF4           movem.l    D7,A3,A4, [A6 - 0xC]
00000D88  4E5E                     unlink     A6
00000D8A  4E75                     rts
00000D8C  8027 5570 6461 7465 4... dc.b       "UpdateBankWindowValues__11cBankWindowFv"
export_324:
00000DB8  4E56 0000                link       A6, 0
00000DBC  2F0C                     move.l     -[A7], A4
00000DBE  286E 0008                movea.l    A4, [A6 + 0x8]
00000DC2  2F0C                     move.l     -[A7], A4
00000DC4  4EBA FDD8                jsr        [PC - 0x228 /* 00000B9E */]
00000DC8  7000                     moveq.l    D0, 0x00
00000DCA  102E 000F                move.b     D0, [A6 + 0xF]
00000DCE  2F00                     move.l     -[A7], D0
00000DD0  2F0C                     move.l     -[A7], A4
00000DD2  4EAD 112A                jsr        [A5 + 0x112A /* export_545, CODE:26 @ 00001C8E */]
00000DD6  286E FFFC                movea.l    A4, [A6 - 0x4]
00000DDA  4E5E                     unlink     A6
00000DDC  4E75                     rts
00000DDE  9653 686F 775F 5F31 3... dc.b       "Show__11cBankWindowFUc"
export_325:
00000DF8  4E56 0000                link       A6, 0
00000DFC  48E7 0118                movem.l    -[A7], D7,A3,A4
00000E00  286E 0008                movea.l    A4, [A6 + 0x8]
00000E04  302E 000E                move.w     D0, [A6 + 0xE]
00000E08  48C0                     ext.l      D0
00000E0A  5380                     subq.l     D0, 1
00000E0C  0480 0000 000F           subi.l     D0, 0xF
00000E12  6B00 0234                bmi        +0x236 /* 00001048 */
00000E16  0C80 0000 0006           cmpi.l     D0, 0x6
00000E1C  6E00 022A                bgt        +0x22C /* 00001048 */
00000E20  D080                     add.l      D0, D0
00000E22  303B 0806                move.w     D0, [PC + D0 + 0x6]
00000E26  4EFB 0000                jmp        [PC + D0.w]
00000E2A  0010 0056                ori.b      [A0], 0x56 /* 'V' */
00000E2E  009C 00E2 0128           ori.l      [A4]+, 0xE20128
00000E34  016E 01DE                bchg       [A6 + 0x1DE], D0
00000E38  7000                     moveq.l    D0, 0x00
00000E3A  2F00                     move.l     -[A7], D0
00000E3C  2F00                     move.l     -[A7], D0
00000E3E  720C                     moveq.l    D1, 0x0C
00000E40  2F01                     move.l     -[A7], D1
00000E42  7003                     moveq.l    D0, 0x03
00000E44  2F00                     move.l     -[A7], D0
00000E46  7000                     moveq.l    D0, 0x00
00000E48  2F00                     move.l     -[A7], D0
00000E4A  2F2E 0010                move.l     -[A7], [A6 + 0x10]
00000E4E  2F0C                     move.l     -[A7], A4
00000E50  2F0C                     move.l     -[A7], A4
00000E52  2F00                     move.l     -[A7], D0
00000E54  2F00                     move.l     -[A7], D0
00000E56  4EAD 1A22                jsr        [A5 + 0x1A22 /* export_832, CODE:34 @ 00000ED0 */]
00000E5A  2940 016C                move.l     [A4 + 0x16C], D0
00000E5E  670C                     beq        +0xE /* 00000E6C */
00000E60  202C 016C                move.l     D0, [A4 + 0x16C]
00000E64  D0BC 0000 0080           add.l      D0, 0x80
00000E6A  6002                     bra        +0x4 /* 00000E6E */
label00000E6C:
00000E6C  7000                     moveq.l    D0, 0x00
label00000E6E:
00000E6E  2F00                     move.l     -[A7], D0
00000E70  2F0C                     move.l     -[A7], A4
00000E72  4EAD 11F2                jsr        [A5 + 0x11F2 /* export_570, CODE:26 @ 000032DA */]
00000E76  4FEF 0030                lea.l      A7, [A7 + 0x30]
00000E7A  6000 01CC                bra        +0x1CE /* 00001048 */
00000E7E  7000                     moveq.l    D0, 0x00
00000E80  2F00                     move.l     -[A7], D0
00000E82  2F00                     move.l     -[A7], D0
00000E84  720C                     moveq.l    D1, 0x0C
00000E86  2F01                     move.l     -[A7], D1
00000E88  7003                     moveq.l    D0, 0x03
00000E8A  2F00                     move.l     -[A7], D0
00000E8C  7000                     moveq.l    D0, 0x00
00000E8E  2F00                     move.l     -[A7], D0
00000E90  2F2E 0010                move.l     -[A7], [A6 + 0x10]
00000E94  2F0C                     move.l     -[A7], A4
00000E96  2F0C                     move.l     -[A7], A4
00000E98  2F00                     move.l     -[A7], D0
00000E9A  2F00                     move.l     -[A7], D0
00000E9C  4EAD 1A22                jsr        [A5 + 0x1A22 /* export_832, CODE:34 @ 00000ED0 */]
00000EA0  2940 0170                move.l     [A4 + 0x170], D0
00000EA4  670C                     beq        +0xE /* 00000EB2 */
00000EA6  202C 0170                move.l     D0, [A4 + 0x170]
00000EAA  D0BC 0000 0080           add.l      D0, 0x80
00000EB0  6002                     bra        +0x4 /* 00000EB4 */
label00000EB2:
00000EB2  7000                     moveq.l    D0, 0x00
label00000EB4:
00000EB4  2F00                     move.l     -[A7], D0
00000EB6  2F0C                     move.l     -[A7], A4
00000EB8  4EAD 11F2                jsr        [A5 + 0x11F2 /* export_570, CODE:26 @ 000032DA */]
00000EBC  4FEF 0030                lea.l      A7, [A7 + 0x30]
00000EC0  6000 0186                bra        +0x188 /* 00001048 */
00000EC4  7000                     moveq.l    D0, 0x00
00000EC6  2F00                     move.l     -[A7], D0
00000EC8  2F00                     move.l     -[A7], D0
00000ECA  720C                     moveq.l    D1, 0x0C
00000ECC  2F01                     move.l     -[A7], D1
00000ECE  7003                     moveq.l    D0, 0x03
00000ED0  2F00                     move.l     -[A7], D0
00000ED2  7000                     moveq.l    D0, 0x00
00000ED4  2F00                     move.l     -[A7], D0
00000ED6  2F2E 0010                move.l     -[A7], [A6 + 0x10]
00000EDA  2F0C                     move.l     -[A7], A4
00000EDC  2F0C                     move.l     -[A7], A4
00000EDE  2F00                     move.l     -[A7], D0
00000EE0  2F00                     move.l     -[A7], D0
00000EE2  4EAD 1A22                jsr        [A5 + 0x1A22 /* export_832, CODE:34 @ 00000ED0 */]
00000EE6  2940 0174                move.l     [A4 + 0x174], D0
00000EEA  670C                     beq        +0xE /* 00000EF8 */
00000EEC  202C 0174                move.l     D0, [A4 + 0x174]
00000EF0  D0BC 0000 0080           add.l      D0, 0x80
00000EF6  6002                     bra        +0x4 /* 00000EFA */
label00000EF8:
00000EF8  7000                     moveq.l    D0, 0x00
label00000EFA:
00000EFA  2F00                     move.l     -[A7], D0
00000EFC  2F0C                     move.l     -[A7], A4
00000EFE  4EAD 11F2                jsr        [A5 + 0x11F2 /* export_570, CODE:26 @ 000032DA */]
00000F02  4FEF 0030                lea.l      A7, [A7 + 0x30]
00000F06  6000 0140                bra        +0x142 /* 00001048 */
00000F0A  7000                     moveq.l    D0, 0x00
00000F0C  2F00                     move.l     -[A7], D0
00000F0E  2F00                     move.l     -[A7], D0
00000F10  720C                     moveq.l    D1, 0x0C
00000F12  2F01                     move.l     -[A7], D1
00000F14  7003                     moveq.l    D0, 0x03
00000F16  2F00                     move.l     -[A7], D0
00000F18  7000                     moveq.l    D0, 0x00
00000F1A  2F00                     move.l     -[A7], D0
00000F1C  2F2E 0010                move.l     -[A7], [A6 + 0x10]
00000F20  2F0C                     move.l     -[A7], A4
00000F22  2F0C                     move.l     -[A7], A4
00000F24  2F00                     move.l     -[A7], D0
00000F26  2F00                     move.l     -[A7], D0
00000F28  4EAD 1A22                jsr        [A5 + 0x1A22 /* export_832, CODE:34 @ 00000ED0 */]
00000F2C  2940 0178                move.l     [A4 + 0x178], D0
00000F30  670C                     beq        +0xE /* 00000F3E */
00000F32  202C 0178                move.l     D0, [A4 + 0x178]
00000F36  D0BC 0000 0080           add.l      D0, 0x80
00000F3C  6002                     bra        +0x4 /* 00000F40 */
label00000F3E:
00000F3E  7000                     moveq.l    D0, 0x00
label00000F40:
00000F40  2F00                     move.l     -[A7], D0
00000F42  2F0C                     move.l     -[A7], A4
00000F44  4EAD 11F2                jsr        [A5 + 0x11F2 /* export_570, CODE:26 @ 000032DA */]
00000F48  4FEF 0030                lea.l      A7, [A7 + 0x30]
00000F4C  6000 00FA                bra        +0xFC /* 00001048 */
00000F50  7000                     moveq.l    D0, 0x00
00000F52  2F00                     move.l     -[A7], D0
00000F54  2F00                     move.l     -[A7], D0
00000F56  720C                     moveq.l    D1, 0x0C
00000F58  2F01                     move.l     -[A7], D1
00000F5A  7003                     moveq.l    D0, 0x03
00000F5C  2F00                     move.l     -[A7], D0
00000F5E  7000                     moveq.l    D0, 0x00
00000F60  2F00                     move.l     -[A7], D0
00000F62  2F2E 0010                move.l     -[A7], [A6 + 0x10]
00000F66  2F0C                     move.l     -[A7], A4
00000F68  2F0C                     move.l     -[A7], A4
00000F6A  2F00                     move.l     -[A7], D0
00000F6C  2F00                     move.l     -[A7], D0
00000F6E  4EAD 1A22                jsr        [A5 + 0x1A22 /* export_832, CODE:34 @ 00000ED0 */]
00000F72  2940 017C                move.l     [A4 + 0x17C], D0
00000F76  670C                     beq        +0xE /* 00000F84 */
00000F78  202C 017C                move.l     D0, [A4 + 0x17C]
00000F7C  D0BC 0000 0080           add.l      D0, 0x80
00000F82  6002                     bra        +0x4 /* 00000F86 */
label00000F84:
00000F84  7000                     moveq.l    D0, 0x00
label00000F86:
00000F86  2F00                     move.l     -[A7], D0
00000F88  2F0C                     move.l     -[A7], A4
00000F8A  4EAD 11F2                jsr        [A5 + 0x11F2 /* export_570, CODE:26 @ 000032DA */]
00000F8E  4FEF 0030                lea.l      A7, [A7 + 0x30]
00000F92  6000 00B4                bra        +0xB6 /* 00001048 */
00000F96  7000                     moveq.l    D0, 0x00
00000F98  2F00                     move.l     -[A7], D0
00000F9A  2F00                     move.l     -[A7], D0
00000F9C  720C                     moveq.l    D1, 0x0C
00000F9E  2F01                     move.l     -[A7], D1
00000FA0  7003                     moveq.l    D0, 0x03
00000FA2  2F00                     move.l     -[A7], D0
00000FA4  7000                     moveq.l    D0, 0x00
00000FA6  2F00                     move.l     -[A7], D0
00000FA8  2F2E 0010                move.l     -[A7], [A6 + 0x10]
00000FAC  2F0C                     move.l     -[A7], A4
00000FAE  2F0C                     move.l     -[A7], A4
00000FB0  2F00                     move.l     -[A7], D0
00000FB2  2F00                     move.l     -[A7], D0
00000FB4  4EAD 1A22                jsr        [A5 + 0x1A22 /* export_832, CODE:34 @ 00000ED0 */]
00000FB8  2940 0180                move.l     [A4 + 0x180], D0
00000FBC  2040                     movea.l    A0, D0
00000FBE  47E8 012A                lea.l      A3, [A0 + 0x12A]
00000FC2  2F0B                     move.l     -[A7], A3
00000FC4  4EAD 1782                jsr        [A5 + 0x1782 /* export_748, CODE:32 @ 00004E1E */]
00000FC8  4207                     clr.b      D7
00000FCA  7000                     moveq.l    D0, 0x00
00000FCC  1007                     move.b     D0, D7
00000FCE  2F00                     move.l     -[A7], D0
00000FD0  2F2B 0014                move.l     -[A7], [A3 + 0x14]
00000FD4  204D                     movea.l    A0, A5
00000FD6  D1FC FFFF 0C68           add.l      A0, 0xFFFF0C68
00000FDC  4850                     pea.l      [A0]
00000FDE  2F0B                     move.l     -[A7], A3
00000FE0  4EAD 178A                jsr        [A5 + 0x178A /* export_749, CODE:32 @ 00004E80 */]
00000FE4  4AAC 0180                tst.l      [A4 + 0x180]
00000FE8  670C                     beq        +0xE /* 00000FF6 */
00000FEA  202C 0180                move.l     D0, [A4 + 0x180]
00000FEE  D0BC 0000 0080           add.l      D0, 0x80
00000FF4  6002                     bra        +0x4 /* 00000FF8 */
label00000FF6:
00000FF6  7000                     moveq.l    D0, 0x00
label00000FF8:
00000FF8  2F00                     move.l     -[A7], D0
00000FFA  2F0C                     move.l     -[A7], A4
00000FFC  4EAD 11F2                jsr        [A5 + 0x11F2 /* export_570, CODE:26 @ 000032DA */]
00001000  4FEF 0044                lea.l      A7, [A7 + 0x44]
00001004  6042                     bra        +0x44 /* 00001048 */
00001006  7000                     moveq.l    D0, 0x00
00001008  2F00                     move.l     -[A7], D0
0000100A  2F00                     move.l     -[A7], D0
0000100C  720C                     moveq.l    D1, 0x0C
0000100E  2F01                     move.l     -[A7], D1
00001010  7003                     moveq.l    D0, 0x03
00001012  2F00                     move.l     -[A7], D0
00001014  7000                     moveq.l    D0, 0x00
00001016  2F00                     move.l     -[A7], D0
00001018  2F2E 0010                move.l     -[A7], [A6 + 0x10]
0000101C  2F0C                     move.l     -[A7], A4
0000101E  2F0C                     move.l     -[A7], A4
00001020  2F00                     move.l     -[A7], D0
00001022  2F00                     move.l     -[A7], D0
00001024  4EAD 1A22                jsr        [A5 + 0x1A22 /* export_832, CODE:34 @ 00000ED0 */]
00001028  2940 0184                move.l     [A4 + 0x184], D0
0000102C  670C                     beq        +0xE /* 0000103A */
0000102E  202C 0184                move.l     D0, [A4 + 0x184]
00001032  D0BC 0000 0080           add.l      D0, 0x80
00001038  6002                     bra        +0x4 /* 0000103C */
label0000103A:
0000103A  7000                     moveq.l    D0, 0x00
label0000103C:
0000103C  2F00                     move.l     -[A7], D0
0000103E  2F0C                     move.l     -[A7], A4
00001040  4EAD 11F2                jsr        [A5 + 0x11F2 /* export_570, CODE:26 @ 000032DA */]
00001044  4FEF 0030                lea.l      A7, [A7 + 0x30]
label00001048:
00001048  4CEE 1880 FFF4           movem.l    D7,A3,A4, [A6 - 0xC]
0000104E  4E5E                     unlink     A6
00001050  4E75                     rts
00001052  8022 4E65 7755 7365 7... dc.b       "NewUserItem__11cBankWindowFsR4Rect"
export_326:
00001078  4E56 0000                link       A6, 0
0000107C  48E7 0018                movem.l    -[A7], A3,A4
00001080  286E 0008                movea.l    A4, [A6 + 0x8]
00001084  7001                     moveq.l    D0, 0x01
00001086  2F00                     move.l     -[A7], D0
00001088  322E 0016                move.w     D1, [A6 + 0x16]
0000108C  48C1                     ext.l      D1
0000108E  2F01                     move.l     -[A7], D1
00001090  2F2E 0010                move.l     -[A7], [A6 + 0x10]
00001094  2F0C                     move.l     -[A7], A4
00001096  2F0C                     move.l     -[A7], A4
00001098  7200                     moveq.l    D1, 0x00
0000109A  2F01                     move.l     -[A7], D1
0000109C  2F01                     move.l     -[A7], D1
0000109E  4EAD 1F82                jsr        [A5 + 0x1F82 /* export_1004, CODE:37 @ 00001652 */]
000010A2  2640                     movea.l    A3, D0
000010A4  2F0B                     move.l     -[A7], A3
000010A6  486C 0188                pea.l      [A4 + 0x188]
000010AA  4EAD 013A                jsr        [A5 + 0x13A /* export_35, CODE:1 @ 00002256 */]
000010AE  200B                     move.l     D0, A3
000010B0  670A                     beq        +0xC /* 000010BC */
000010B2  200B                     move.l     D0, A3
000010B4  D0BC 0000 0080           add.l      D0, 0x80
000010BA  6002                     bra        +0x4 /* 000010BE */
label000010BC:
000010BC  7000                     moveq.l    D0, 0x00
label000010BE:
000010BE  2F00                     move.l     -[A7], D0
000010C0  2F0C                     move.l     -[A7], A4
000010C2  4EAD 11F2                jsr        [A5 + 0x11F2 /* export_570, CODE:26 @ 000032DA */]
000010C6  4FEF 002C                lea.l      A7, [A7 + 0x2C]
000010CA  4CEE 1800 FFF8           movem.l    A3,A4, [A6 - 0x8]
000010D0  4E5E                     unlink     A6
000010D2  4E75                     rts
000010D4  8020 4E65 7749 636F 6... dc.b       "NewIcon__11cBankWindowFsR4RectT1"
fn000010F8:
000010F8  4E56 0000                link       A6, 0
000010FC  48E7 0018                movem.l    -[A7], A3,A4
00001100  286E 0008                movea.l    A4, [A6 + 0x8]
00001104  598F                     subq.l     A7, 4
00001106  3F3C 0082                move.w     -[A7], 0x82
0000110A  A9BC                     syscall    GetPicture
0000110C  265F                     movea.l    A3, [A7]+
0000110E  204B                     movea.l    A0, A3
00001110  A064                     syscall    MoveHHi
00001112  A029                     syscall    HLock
00001114  2053                     movea.l    A0, [A3]
00001116  43EC 01A6                lea.l      A1, [A4 + 0x1A6]
0000111A  5488                     addq.l     A0, 2
0000111C  22D8                     move.l     [A1]+, [A0]+
0000111E  22D8                     move.l     [A1]+, [A0]+
00001120  486C 01A6                pea.l      [A4 + 0x1A6]
00001124  7004                     moveq.l    D0, 0x04
00001126  3F00                     move.w     -[A7], D0
00001128  7250                     moveq.l    D1, 0x50
0000112A  3F01                     move.w     -[A7], D1
0000112C  A8A8                     syscall    OffsetRect
0000112E  2F0B                     move.l     -[A7], A3
00001130  486C 01A6                pea.l      [A4 + 0x1A6]
00001134  A8F6                     syscall    DrawPicture
00001136  2F0B                     move.l     -[A7], A3
00001138  A9A3                     syscall    ReleaseResource
0000113A  4CEE 1800 FFF8           movem.l    A3,A4, [A6 - 0x8]
00001140  4E5E                     unlink     A6
00001142  4E75                     rts
00001144  9D44 7261 7748 656C 7... dc.b       "DrawHelpInfo__11cBankWindowFv"
fn00001164:
00001164  4E56 FFC6                link       A6, -0x003A
00001168  2F0C                     move.l     -[A7], A4
0000116A  286E 0008                movea.l    A4, [A6 + 0x8]
0000116E  41EE FFC6                lea.l      A0, [A6 - 0x3A]
00001172  43EC 01A6                lea.l      A1, [A4 + 0x1A6]
00001176  20D9                     move.l     [A0]+, [A1]+
00001178  20D9                     move.l     [A0]+, [A1]+
0000117A  7000                     moveq.l    D0, 0x00
0000117C  2F00                     move.l     -[A7], D0
0000117E  486E FFCE                pea.l      [A6 - 0x32]
00001182  4EAD 15BA                jsr        [A5 + 0x15BA /* export_691, CODE:32 @ 000025FA */]
00001186  41EC 009C                lea.l      A0, [A4 + 0x9C]
0000118A  43EE FFCE                lea.l      A1, [A6 - 0x32]
0000118E  22D8                     move.l     [A1]+, [A0]+
00001190  32D8                     move.w     [A1]+, [A0]+
00001192  486E FFCE                pea.l      [A6 - 0x32]
00001196  AA15                     syscall    RGBBackColor
00001198  2F0C                     move.l     -[A7], A4
0000119A  4EAD 11E2                jsr        [A5 + 0x11E2 /* export_568, CODE:26 @ 000031FA */]
0000119E  486E FFC6                pea.l      [A6 - 0x3A]
000011A2  A8A3                     syscall    EraseRect
000011A4  2F0C                     move.l     -[A7], A4
000011A6  4EAD 11EA                jsr        [A5 + 0x11EA /* export_569, CODE:26 @ 00003268 */]
000011AA  486E FFC6                pea.l      [A6 - 0x3A]
000011AE  2F0C                     move.l     -[A7], A4
000011B0  4EAD 1212                jsr        [A5 + 0x1212 /* export_574, CODE:26 @ 00003446 */]
000011B4  7000                     moveq.l    D0, 0x00
000011B6  2F00                     move.l     -[A7], D0
000011B8  204C                     movea.l    A0, A4
000011BA  226C 0060                movea.l    A1, [A4 + 0x60]
000011BE  D0E9 00B0                add.w      A0, [A1 + 0xB0]
000011C2  2F08                     move.l     -[A7], A0
000011C4  2049                     movea.l    A0, A1
000011C6  2268 00B4                movea.l    A1, [A0 + 0xB4]
000011CA  4E91                     jsr        [A1]
000011CC  397C FFFF 01A8           move.w     [A4 + 0x1A8], 0xFFFF
000011D2  7002                     moveq.l    D0, 0x02
000011D4  2F00                     move.l     -[A7], D0
000011D6  486E FFCE                pea.l      [A6 - 0x32]
000011DA  4EAD 15D2                jsr        [A5 + 0x15D2 /* export_694, CODE:32 @ 000029D6 */]
000011DE  286E FFC2                movea.l    A4, [A6 - 0x3E]
000011E2  4E5E                     unlink     A6
000011E4  4E75                     rts
000011E6  9F55 6E44 7261 7748 6... dc.b       "UnDrawHelpInfo__11cBankWindowFv"
export_327:
00001208  4E56 0000                link       A6, 0
0000120C  48E7 0118                movem.l    -[A7], D7,A3,A4
00001210  3E2E 0016                move.w     D7, [A6 + 0x16]
00001214  286E 0008                movea.l    A4, [A6 + 0x8]
00001218  302E 000E                move.w     D0, [A6 + 0xE]
0000121C  5340                     subq.w     D0, 1
0000121E  6B00 00E0                bmi        +0xE2 /* 00001300 */
00001222  0C40 0008                cmpi.w     D0, 0x8
00001226  6E00 00D8                bgt        +0xDA /* 00001300 */
0000122A  D040                     add.w      D0, D0
0000122C  303B 0006                move.w     D0, [PC + D0.w + 0x6]
00001230  4EFB 0000                jmp        [PC + D0.w]
00001234  0014 0014                ori.b      [A4], 0x14
00001238  0014 0014                ori.b      [A4], 0x14
0000123C  0014 00CE                ori.b      [A4], 0xCE
00001240  00CE                     .incomplete
00001242  0058 0094                ori.w      [A0]+, 0x94
00001246  7001                     moveq.l    D0, 0x01
00001248  2F00                     move.l     -[A7], D0
0000124A  48C7                     ext.l      D7
0000124C  2F07                     move.l     -[A7], D7
0000124E  2F2E 0010                move.l     -[A7], [A6 + 0x10]
00001252  2F0C                     move.l     -[A7], A4
00001254  2F0C                     move.l     -[A7], A4
00001256  7200                     moveq.l    D1, 0x00
00001258  2F01                     move.l     -[A7], D1
0000125A  2F01                     move.l     -[A7], D1
0000125C  4EAD 1F82                jsr        [A5 + 0x1F82 /* export_1004, CODE:37 @ 00001652 */]
00001260  2640                     movea.l    A3, D0
00001262  2F0B                     move.l     -[A7], A3
00001264  486C 016C                pea.l      [A4 + 0x16C]
00001268  4EAD 013A                jsr        [A5 + 0x13A /* export_35, CODE:1 @ 00002256 */]
0000126C  200B                     move.l     D0, A3
0000126E  670A                     beq        +0xC /* 0000127A */
00001270  200B                     move.l     D0, A3
00001272  D0BC 0000 0080           add.l      D0, 0x80
00001278  6002                     bra        +0x4 /* 0000127C */
label0000127A:
0000127A  7000                     moveq.l    D0, 0x00
label0000127C:
0000127C  2F00                     move.l     -[A7], D0
0000127E  2F0C                     move.l     -[A7], A4
00001280  4EAD 11F2                jsr        [A5 + 0x11F2 /* export_570, CODE:26 @ 000032DA */]
00001284  4FEF 002C                lea.l      A7, [A7 + 0x2C]
00001288  6076                     bra        +0x78 /* 00001300 */
0000128A  7001                     moveq.l    D0, 0x01
0000128C  2F00                     move.l     -[A7], D0
0000128E  48C7                     ext.l      D7
00001290  2F07                     move.l     -[A7], D7
00001292  2F2E 0010                move.l     -[A7], [A6 + 0x10]
00001296  2F0C                     move.l     -[A7], A4
00001298  2F0C                     move.l     -[A7], A4
0000129A  7200                     moveq.l    D1, 0x00
0000129C  2F01                     move.l     -[A7], D1
0000129E  2F01                     move.l     -[A7], D1
000012A0  4EAD 1F82                jsr        [A5 + 0x1F82 /* export_1004, CODE:37 @ 00001652 */]
000012A4  2940 01B2                move.l     [A4 + 0x1B2], D0
000012A8  670C                     beq        +0xE /* 000012B6 */
000012AA  202C 01B2                move.l     D0, [A4 + 0x1B2]
000012AE  D0BC 0000 0080           add.l      D0, 0x80
000012B4  6002                     bra        +0x4 /* 000012B8 */
label000012B6:
000012B6  7000                     moveq.l    D0, 0x00
label000012B8:
000012B8  2F00                     move.l     -[A7], D0
000012BA  2F0C                     move.l     -[A7], A4
000012BC  4EAD 11F2                jsr        [A5 + 0x11F2 /* export_570, CODE:26 @ 000032DA */]
000012C0  4FEF 0024                lea.l      A7, [A7 + 0x24]
000012C4  603A                     bra        +0x3C /* 00001300 */
000012C6  7001                     moveq.l    D0, 0x01
000012C8  2F00                     move.l     -[A7], D0
000012CA  48C7                     ext.l      D7
000012CC  2F07                     move.l     -[A7], D7
000012CE  2F2E 0010                move.l     -[A7], [A6 + 0x10]
000012D2  2F0C                     move.l     -[A7], A4
000012D4  2F0C                     move.l     -[A7], A4
000012D6  7200                     moveq.l    D1, 0x00
000012D8  2F01                     move.l     -[A7], D1
000012DA  2F01                     move.l     -[A7], D1
000012DC  4EAD 1F82                jsr        [A5 + 0x1F82 /* export_1004, CODE:37 @ 00001652 */]
000012E0  2940 01B6                move.l     [A4 + 0x1B6], D0
000012E4  670C                     beq        +0xE /* 000012F2 */
000012E6  202C 01B6                move.l     D0, [A4 + 0x1B6]
000012EA  D0BC 0000 0080           add.l      D0, 0x80
000012F0  6002                     bra        +0x4 /* 000012F4 */
label000012F2:
000012F2  7000                     moveq.l    D0, 0x00
label000012F4:
000012F4  2F00                     move.l     -[A7], D0
000012F6  2F0C                     move.l     -[A7], A4
000012F8  4EAD 11F2                jsr        [A5 + 0x11F2 /* export_570, CODE:26 @ 000032DA */]
000012FC  4FEF 0024                lea.l      A7, [A7 + 0x24]
label00001300:
00001300  4CEE 1880 FFF4           movem.l    D7,A3,A4, [A6 - 0xC]
00001306  4E5E                     unlink     A6
00001308  4E75                     rts
0000130A  9F4E 6577 4963 6F6E 5... dc.b       "NewIcon__10cBuyWindowFsR4RectT1"
export_328:
0000132C  4E56 FFFC                link       A6, -0x0004
00001330  48E7 1018                movem.l    -[A7], D3,A3,A4
00001334  286E 0008                movea.l    A4, [A6 + 0x8]
00001338  200C                     move.l     D0, A4
0000133A  6612                     bne        +0x14 /* 0000134E */
0000133C  4878 01A2                push.l     0x1A2
00001340  4EAD 010A                jsr        [A5 + 0x10A /* export_29, CODE:1 @ 00001C0A */]
00001344  2840                     movea.l    A4, D0
00001346  200C                     move.l     D0, A4
00001348  584F                     addq.w     A7, 4
0000134A  6700 01C6                beq        +0x1C8 /* 00001512 */
label0000134E:
0000134E  4AAE 000C                tst.l      [A6 + 0xC]
00001352  57C3                     seq        D3
00001354  4403                     neg.b      D3
00001356  6754                     beq        +0x56 /* 000013AC */
00001358  200C                     move.l     D0, A4
0000135A  D0BC 0000 0196           add.l      D0, 0x196
00001360  2D40 000C                move.l     [A6 + 0xC], D0
00001364  7601                     moveq.l    D3, 0x01
00001366  200C                     move.l     D0, A4
00001368  D0BC 0000 0196           add.l      D0, 0x196
0000136E  6614                     bne        +0x16 /* 00001384 */
00001370  2F03                     move.l     -[A7], D3
00001372  700C                     moveq.l    D0, 0x0C
00001374  2F00                     move.l     -[A7], D0
00001376  4EAD 010A                jsr        [A5 + 0x10A /* export_29, CODE:1 @ 00001C0A */]
0000137A  588F                     addq.l     A7, 4
0000137C  261F                     move.l     D3, [A7]+
0000137E  4A80                     tst.l      D0
00001380  6602                     bne        +0x4 /* 00001384 */
00001382  7600                     moveq.l    D3, 0x00
label00001384:
00001384  4A03                     tst.b      D3
00001386  6718                     beq        +0x1A /* 000013A0 */
00001388  204D                     movea.l    A0, A5
0000138A  D1FC FFFF 150A           add.l      A0, 0xFFFF150A
00001390  2950 019E                move.l     [A4 + 0x19E], [A0]
00001394  7000                     moveq.l    D0, 0x00
00001396  2940 0196                move.l     [A4 + 0x196], D0
0000139A  2940 019A                move.l     [A4 + 0x19A], D0
0000139E  6002                     bra        +0x4 /* 000013A2 */
label000013A0:
000013A0  7000                     moveq.l    D0, 0x00
label000013A2:
000013A2  200C                     move.l     D0, A4
000013A4  D0BC 0000 0196           add.l      D0, 0x196
000013AA  6004                     bra        +0x6 /* 000013B0 */
label000013AC:
000013AC  202E 000C                move.l     D0, [A6 + 0xC]
label000013B0:
000013B0  264C                     movea.l    A3, A4
000013B2  2D6E 000C FFFC           move.l     [A6 - 0x4], [A6 + 0xC]
000013B8  7601                     moveq.l    D3, 0x01
000013BA  200B                     move.l     D0, A3
000013BC  6616                     bne        +0x18 /* 000013D4 */
000013BE  2F03                     move.l     -[A7], D3
000013C0  4878 0178                push.l     0x178
000013C4  4EAD 010A                jsr        [A5 + 0x10A /* export_29, CODE:1 @ 00001C0A */]
000013C8  588F                     addq.l     A7, 4
000013CA  261F                     move.l     D3, [A7]+
000013CC  2640                     movea.l    A3, D0
000013CE  200B                     move.l     D0, A3
000013D0  6602                     bne        +0x4 /* 000013D4 */
000013D2  7600                     moveq.l    D3, 0x00
label000013D4:
000013D4  4A03                     tst.b      D3
000013D6  6700 00B4                beq        +0xB6 /* 0000148C */
000013DA  4AAE FFFC                tst.l      [A6 - 0x4]
000013DE  57C3                     seq        D3
000013E0  4403                     neg.b      D3
000013E2  6754                     beq        +0x56 /* 00001438 */
000013E4  200B                     move.l     D0, A3
000013E6  D0BC 0000 016C           add.l      D0, 0x16C
000013EC  2D40 FFFC                move.l     [A6 - 0x4], D0
000013F0  7601                     moveq.l    D3, 0x01
000013F2  200B                     move.l     D0, A3
000013F4  D0BC 0000 016C           add.l      D0, 0x16C
000013FA  6614                     bne        +0x16 /* 00001410 */
000013FC  2F03                     move.l     -[A7], D3
000013FE  700C                     moveq.l    D0, 0x0C
00001400  2F00                     move.l     -[A7], D0
00001402  4EAD 010A                jsr        [A5 + 0x10A /* export_29, CODE:1 @ 00001C0A */]
00001406  588F                     addq.l     A7, 4
00001408  261F                     move.l     D3, [A7]+
0000140A  4A80                     tst.l      D0
0000140C  6602                     bne        +0x4 /* 00001410 */
0000140E  7600                     moveq.l    D3, 0x00
label00001410:
00001410  4A03                     tst.b      D3
00001412  6718                     beq        +0x1A /* 0000142C */
00001414  204D                     movea.l    A0, A5
00001416  D1FC FFFF 150A           add.l      A0, 0xFFFF150A
0000141C  2750 0174                move.l     [A3 + 0x174], [A0]
00001420  7000                     moveq.l    D0, 0x00
00001422  2740 016C                move.l     [A3 + 0x16C], D0
00001426  2740 0170                move.l     [A3 + 0x170], D0
0000142A  6002                     bra        +0x4 /* 0000142E */
label0000142C:
0000142C  7000                     moveq.l    D0, 0x00
label0000142E:
0000142E  200B                     move.l     D0, A3
00001430  D0BC 0000 016C           add.l      D0, 0x16C
00001436  6004                     bra        +0x6 /* 0000143C */
label00001438:
00001438  202E FFFC                move.l     D0, [A6 - 0x4]
label0000143C:
0000143C  7000                     moveq.l    D0, 0x00
0000143E  2F00                     move.l     -[A7], D0
00001440  2F3C 4342 6172           move.l     -[A7], 0x43426172 /* 'CBar' */
00001446  2F2E 0010                move.l     -[A7], [A6 + 0x10]
0000144A  2F2E FFFC                move.l     -[A7], [A6 - 0x4]
0000144E  2F0B                     move.l     -[A7], A3
00001450  4EAD 10AA                jsr        [A5 + 0x10AA /* export_529, CODE:26 @ 0000020E */]
00001454  204D                     movea.l    A0, A5
00001456  D1FC FFFF 150E           add.l      A0, 0xFFFF150E
0000145C  2750 0060                move.l     [A3 + 0x60], [A0]
00001460  206B 0064                movea.l    A0, [A3 + 0x64]
00001464  224D                     movea.l    A1, A5
00001466  D3FC FFFF 1512           add.l      A1, 0xFFFF1512
0000146C  2151 0008                move.l     [A0 + 0x8], [A1]
00001470  204D                     movea.l    A0, A5
00001472  D1FC FFFF 1516           add.l      A0, 0xFFFF1516
00001478  2750 0070                move.l     [A3 + 0x70], [A0]
0000147C  204D                     movea.l    A0, A5
0000147E  D1FC FFFF 1516           add.l      A0, 0xFFFF1516
00001484  2010                     move.l     D0, [A0]
00001486  4FEF 0014                lea.l      A7, [A7 + 0x14]
0000148A  6002                     bra        +0x4 /* 0000148E */
label0000148C:
0000148C  7000                     moveq.l    D0, 0x00
label0000148E:
0000148E  204D                     movea.l    A0, A5
00001490  D1FC FFFF 151A           add.l      A0, 0xFFFF151A
00001496  2950 0060                move.l     [A4 + 0x60], [A0]
0000149A  204D                     movea.l    A0, A5
0000149C  D1FC FFFF 151E           add.l      A0, 0xFFFF151E
000014A2  2950 0070                move.l     [A4 + 0x70], [A0]
000014A6  206C 0064                movea.l    A0, [A4 + 0x64]
000014AA  224D                     movea.l    A1, A5
000014AC  D3FC FFFF 1522           add.l      A1, 0xFFFF1522
000014B2  2151 0008                move.l     [A0 + 0x8], [A1]
000014B6  7000                     moveq.l    D0, 0x00
000014B8  2F00                     move.l     -[A7], D0
000014BA  486C 0178                pea.l      [A4 + 0x178]
000014BE  4EAD 1D5A                jsr        [A5 + 0x1D5A /* export_935, CODE:36 @ 00001140 */]
000014C2  204D                     movea.l    A0, A5
000014C4  D1FC FFFF 1526           add.l      A0, 0xFFFF1526
000014CA  2950 0180                move.l     [A4 + 0x180], [A0]
000014CE  41EC 0178                lea.l      A0, [A4 + 0x178]
000014D2  70FF                     moveq.l    D0, 0xFFFFFFFF
000014D4  2F00                     move.l     -[A7], D0
000014D6  4878 0080                push.l     0x80
000014DA  204C                     movea.l    A0, A4
000014DC  226C 0060                movea.l    A1, [A4 + 0x60]
000014E0  D0E9 0068                add.w      A0, [A1 + 0x68]
000014E4  2F08                     move.l     -[A7], A0
000014E6  2049                     movea.l    A0, A1
000014E8  2268 006C                movea.l    A1, [A0 + 0x6C]
000014EC  4E91                     jsr        [A1]
000014EE  7000                     moveq.l    D0, 0x00
000014F0  2F00                     move.l     -[A7], D0
000014F2  7223                     moveq.l    D1, 0x23
000014F4  2F01                     move.l     -[A7], D1
000014F6  700A                     moveq.l    D0, 0x0A
000014F8  2F00                     move.l     -[A7], D0
000014FA  204C                     movea.l    A0, A4
000014FC  226C 0060                movea.l    A1, [A4 + 0x60]
00001500  D0E9 00F0                add.w      A0, [A1 + 0xF0]
00001504  2F08                     move.l     -[A7], A0
00001506  2049                     movea.l    A0, A1
00001508  2268 00F4                movea.l    A1, [A0 + 0xF4]
0000150C  4E91                     jsr        [A1]
0000150E  4FEF 0024                lea.l      A7, [A7 + 0x24]
label00001512:
00001512  200C                     move.l     D0, A4
00001514  4CEE 1808 FFF0           movem.l    D3,A3,A4, [A6 - 0x10]
0000151A  4E5E                     unlink     A6
0000151C  4E75                     rts
0000151E  8022 5F5F 6374 5F5F 3... dc.b       "__ct__17cControlBarWindowFP6cAgent"
export_329:
00001544  4E56 0000                link       A6, 0
00001548  48E7 0108                movem.l    -[A7], D7,A4
0000154C  2E2E 000C                move.l     D7, [A6 + 0xC]
00001550  286E 0008                movea.l    A4, [A6 + 0x8]
00001554  200C                     move.l     D0, A4
00001556  6774                     beq        +0x76 /* 000015CC */
00001558  206C 0064                movea.l    A0, [A4 + 0x64]
0000155C  224D                     movea.l    A1, A5
0000155E  D3FC FFFF 1522           add.l      A1, 0xFFFF1522
00001564  2151 0008                move.l     [A0 + 0x8], [A1]
00001568  204D                     movea.l    A0, A5
0000156A  D1FC FFFF 151E           add.l      A0, 0xFFFF151E
00001570  2950 0070                move.l     [A4 + 0x70], [A0]
00001574  204D                     movea.l    A0, A5
00001576  D1FC FFFF 151A           add.l      A0, 0xFFFF151A
0000157C  2950 0060                move.l     [A4 + 0x60], [A0]
00001580  200C                     move.l     D0, A4
00001582  6748                     beq        +0x4A /* 000015CC */
00001584  7002                     moveq.l    D0, 0x02
00001586  2F00                     move.l     -[A7], D0
00001588  486C 0178                pea.l      [A4 + 0x178]
0000158C  4EAD 16CA                jsr        [A5 + 0x16CA /* export_725, CODE:32 @ 00003F94 */]
00001590  7000                     moveq.l    D0, 0x00
00001592  2F00                     move.l     -[A7], D0
00001594  2F0C                     move.l     -[A7], A4
00001596  4EAD 108A                jsr        [A5 + 0x108A /* export_525, CODE:26 @ 000000B6 */]
0000159A  7002                     moveq.l    D0, 0x02
0000159C  C087                     and.l      D0, D7
0000159E  6718                     beq        +0x1A /* 000015B8 */
000015A0  7000                     moveq.l    D0, 0x00
000015A2  2F00                     move.l     -[A7], D0
000015A4  220C                     move.l     D1, A4
000015A6  D2BC 0000 0196           add.l      D1, 0x196
000015AC  2F01                     move.l     -[A7], D1
000015AE  4EAD 1632                jsr        [A5 + 0x1632 /* export_706, CODE:32 @ 000036CC */]
000015B2  7000                     moveq.l    D0, 0x00
000015B4  504F                     addq.w     A7, 8
000015B6  6002                     bra        +0x4 /* 000015BA */
label000015B8:
000015B8  7000                     moveq.l    D0, 0x00
label000015BA:
000015BA  0807 0000                btst.b     D7, 0x0
000015BE  4FEF 0010                lea.l      A7, [A7 + 0x10]
000015C2  6708                     beq        +0xA /* 000015CC */
000015C4  2F0C                     move.l     -[A7], A4
000015C6  4EAD 0102                jsr        [A5 + 0x102 /* export_28, CODE:1 @ 00001BE0 */]
000015CA  584F                     addq.w     A7, 4
label000015CC:
000015CC  4CEE 1080 FFF8           movem.l    D7,A4, [A6 - 0x8]
000015D2  4E5E                     unlink     A6
000015D4  4E75                     rts
000015D6  9B5F 5F64 745F 5F31 3... dc.b       "__dt__17cControlBarWindowFv"
export_330:
000015F4  4E56 FFFC                link       A6, -0x0004
000015F8  48E7 0318                movem.l    -[A7], D6,D7,A3,A4
000015FC  2C2E 000C                move.l     D6, [A6 + 0xC]
00001600  286E 0008                movea.l    A4, [A6 + 0x8]
00001604  486E FFFC                pea.l      [A6 - 0x4]
00001608  A874                     syscall    GetPort
0000160A  2006                     move.l     D0, D6
0000160C  0480 436C 5761           subi.l     D0, 0x436C5761 /* 'ClWa' */
00001612  670C                     beq        +0xE /* 00001620 */
00001614  0480 03D5 FCD7           subi.l     D0, 0x3D5FCD7
0000161A  6756                     beq        +0x58 /* 00001672 */
0000161C  6000 01CA                bra        +0x1CC /* 000017E8 */
label00001620:
00001620  4247                     clr.w      D7
00001622  6042                     bra        +0x44 /* 00001666 */
label00001624:
00001624  48C7                     ext.l      D7
00001626  2F07                     move.l     -[A7], D7
00001628  486C 0178                pea.l      [A4 + 0x178]
0000162C  4EAD 16D2                jsr        [A5 + 0x16D2 /* export_726, CODE:32 @ 00003FEA */]
00001630  2640                     movea.l    A3, D0
00001632  43EB 0080                lea.l      A1, [A3 + 0x80]
00001636  2049                     movea.l    A0, A1
00001638  226B 0088                movea.l    A1, [A3 + 0x88]
0000163C  D0E9 00B0                add.w      A0, [A1 + 0xB0]
00001640  2F08                     move.l     -[A7], A0
00001642  2049                     movea.l    A0, A1
00001644  2268 00B4                movea.l    A1, [A0 + 0xB4]
00001648  4E91                     jsr        [A1]
0000164A  204B                     movea.l    A0, A3
0000164C  226B 0060                movea.l    A1, [A3 + 0x60]
00001650  D0E9 00E8                add.w      A0, [A1 + 0xE8]
00001654  2F08                     move.l     -[A7], A0
00001656  2049                     movea.l    A0, A1
00001658  2268 00EC                movea.l    A1, [A0 + 0xEC]
0000165C  4E91                     jsr        [A1]
0000165E  4FEF 0010                lea.l      A7, [A7 + 0x10]
00001662  3007                     move.w     D0, D7
00001664  5247                     addq.w     D7, 1
label00001666:
00001666  48C7                     ext.l      D7
00001668  BEAC 0184                cmp.l      D7, [A4 + 0x184]
0000166C  6DB6                     blt        -0x48 /* 00001624 */
0000166E  6000 0178                bra        +0x17A /* 000017E8 */
label00001672:
00001672  266E 0010                movea.l    A3, [A6 + 0x10]
00001676  2E3C 4F70 576E           move.l     D7, 0x4F70576E /* 'OpWn' */
0000167C  302B 014A                move.w     D0, [A3 + 0x14A]
00001680  0440 0080                subi.w     D0, 0x80
00001684  6B00 0176                bmi        +0x178 /* 000017FC */
00001688  0C40 0008                cmpi.w     D0, 0x8
0000168C  6E00 016E                bgt        +0x170 /* 000017FC */
00001690  D040                     add.w      D0, D0
00001692  303B 0006                move.w     D0, [PC + D0.w + 0x6]
00001696  4EFB 0000                jmp        [PC + D0.w]
0000169A  0014 0038                ori.b      [A4], 0x38 /* '8' */
0000169E  005C 0080                ori.w      [A4]+, 0x80
000016A2  00A4 00C8 00EA           ori.l      -[A4], 0xC800EA
000016A8  010C                     btst       A4, D0
000016AA  012E 2F3C                btst       [A6 + 0x2F3C], D0
000016AE  4275 7920 2F07           clr.w      [A5 + 0x2F07 + D7]
000016B4  204C                     movea.l    A0, A4
000016B6  226C 0060                movea.l    A1, [A4 + 0x60]
000016BA  D0E9 0060                add.w      A0, [A1 + 0x60]
000016BE  2F08                     move.l     -[A7], A0
000016C0  2049                     movea.l    A0, A1
000016C2  2268 0064                movea.l    A1, [A0 + 0x64]
000016C6  4E91                     jsr        [A1]
000016C8  4FEF 000C                lea.l      A7, [A7 + 0xC]
000016CC  6000 012E                bra        +0x130 /* 000017FC */
000016D0  2F3C 5365 6C6C           move.l     -[A7], 0x53656C6C /* 'Sell' */
000016D6  2F07                     move.l     -[A7], D7
000016D8  204C                     movea.l    A0, A4
000016DA  226C 0060                movea.l    A1, [A4 + 0x60]
000016DE  D0E9 0060                add.w      A0, [A1 + 0x60]
000016E2  2F08                     move.l     -[A7], A0
000016E4  2049                     movea.l    A0, A1
000016E6  2268 0064                movea.l    A1, [A0 + 0x64]
000016EA  4E91                     jsr        [A1]
000016EC  4FEF 000C                lea.l      A7, [A7 + 0xC]
000016F0  6000 010A                bra        +0x10C /* 000017FC */
000016F4  2F3C 4576 616C           move.l     -[A7], 0x4576616C /* 'Eval' */
000016FA  2F07                     move.l     -[A7], D7
000016FC  204C                     movea.l    A0, A4
000016FE  226C 0060                movea.l    A1, [A4 + 0x60]
00001702  D0E9 0060                add.w      A0, [A1 + 0x60]
00001706  2F08                     move.l     -[A7], A0
00001708  2049                     movea.l    A0, A1
0000170A  2268 0064                movea.l    A1, [A0 + 0x64]
0000170E  4E91                     jsr        [A1]
00001710  4FEF 000C                lea.l      A7, [A7 + 0xC]
00001714  6000 00E6                bra        +0xE8 /* 000017FC */
00001718  2F3C 4D61 7020           move.l     -[A7], 0x4D617020 /* 'Map ' */
0000171E  2F07                     move.l     -[A7], D7
00001720  204C                     movea.l    A0, A4
00001722  226C 0060                movea.l    A1, [A4 + 0x60]
00001726  D0E9 0060                add.w      A0, [A1 + 0x60]
0000172A  2F08                     move.l     -[A7], A0
0000172C  2049                     movea.l    A0, A1
0000172E  2268 0064                movea.l    A1, [A0 + 0x64]
00001732  4E91                     jsr        [A1]
00001734  4FEF 000C                lea.l      A7, [A7 + 0xC]
00001738  6000 00C2                bra        +0xC4 /* 000017FC */
0000173C  2F3C 5774 6872           move.l     -[A7], 0x57746872 /* 'Wthr' */
00001742  2F07                     move.l     -[A7], D7
00001744  204C                     movea.l    A0, A4
00001746  226C 0060                movea.l    A1, [A4 + 0x60]
0000174A  D0E9 0060                add.w      A0, [A1 + 0x60]
0000174E  2F08                     move.l     -[A7], A0
00001750  2049                     movea.l    A0, A1
00001752  2268 0064                movea.l    A1, [A0 + 0x64]
00001756  4E91                     jsr        [A1]
00001758  4FEF 000C                lea.l      A7, [A7 + 0xC]
0000175C  6000 009E                bra        +0xA0 /* 000017FC */
00001760  2F3C 4261 6C53           move.l     -[A7], 0x42616C53 /* 'BalS' */
00001766  2F07                     move.l     -[A7], D7
00001768  204C                     movea.l    A0, A4
0000176A  226C 0060                movea.l    A1, [A4 + 0x60]
0000176E  D0E9 0060                add.w      A0, [A1 + 0x60]
00001772  2F08                     move.l     -[A7], A0
00001774  2049                     movea.l    A0, A1
00001776  2268 0064                movea.l    A1, [A0 + 0x64]
0000177A  4E91                     jsr        [A1]
0000177C  4FEF 000C                lea.l      A7, [A7 + 0xC]
00001780  607A                     bra        +0x7C /* 000017FC */
00001782  2F3C 4261 6E6B           move.l     -[A7], 0x42616E6B /* 'Bank' */
00001788  2F07                     move.l     -[A7], D7
0000178A  204C                     movea.l    A0, A4
0000178C  226C 0060                movea.l    A1, [A4 + 0x60]
00001790  D0E9 0060                add.w      A0, [A1 + 0x60]
00001794  2F08                     move.l     -[A7], A0
00001796  2049                     movea.l    A0, A1
00001798  2268 0064                movea.l    A1, [A0 + 0x64]
0000179C  4E91                     jsr        [A1]
0000179E  4FEF 000C                lea.l      A7, [A7 + 0xC]
000017A2  6058                     bra        +0x5A /* 000017FC */
000017A4  2F3C 4564 6974           move.l     -[A7], 0x45646974 /* 'Edit' */
000017AA  2F07                     move.l     -[A7], D7
000017AC  204C                     movea.l    A0, A4
000017AE  226C 0060                movea.l    A1, [A4 + 0x60]
000017B2  D0E9 0060                add.w      A0, [A1 + 0x60]
000017B6  2F08                     move.l     -[A7], A0
000017B8  2049                     movea.l    A0, A1
000017BA  2268 0064                movea.l    A1, [A0 + 0x64]
000017BE  4E91                     jsr        [A1]
000017C0  4FEF 000C                lea.l      A7, [A7 + 0xC]
000017C4  6036                     bra        +0x38 /* 000017FC */
000017C6  2F3C 4D72 6B74           move.l     -[A7], 0x4D726B74 /* 'Mrkt' */
000017CC  2F07                     move.l     -[A7], D7
000017CE  204C                     movea.l    A0, A4
000017D0  226C 0060                movea.l    A1, [A4 + 0x60]
000017D4  D0E9 0060                add.w      A0, [A1 + 0x60]
000017D8  2F08                     move.l     -[A7], A0
000017DA  2049                     movea.l    A0, A1
000017DC  2268 0064                movea.l    A1, [A0 + 0x64]
000017E0  4E91                     jsr        [A1]
000017E2  4FEF 000C                lea.l      A7, [A7 + 0xC]
000017E6  6014                     bra        +0x16 /* 000017FC */
label000017E8:
000017E8  2F2E 0014                move.l     -[A7], [A6 + 0x14]
000017EC  2F2E 0010                move.l     -[A7], [A6 + 0x10]
000017F0  2F06                     move.l     -[A7], D6
000017F2  2F0C                     move.l     -[A7], A4
000017F4  4EAD 118A                jsr        [A5 + 0x118A /* export_557, CODE:26 @ 000021AC */]
000017F8  4FEF 0010                lea.l      A7, [A7 + 0x10]
label000017FC:
000017FC  4CEE 18C0 FFEC           movem.l    D6,D7,A3,A4, [A6 - 0x14]
00001802  4E5E                     unlink     A6
00001804  4E75                     rts
00001806  802F 4861 7342 6565 6... dc.b       "HasBeenAChange__17cControlBarWindowFlP6cAgentPc"
export_331:
0000183A  4E56 FF5A                link       A6, -0x00A6
0000183E  48E7 0018                movem.l    -[A7], A3,A4
00001842  266E 0010                movea.l    A3, [A6 + 0x10]
00001846  286E 0008                movea.l    A4, [A6 + 0x8]
0000184A  2F3C 0100 000F           move.l     -[A7], 0x100000F
00001850  7000                     moveq.l    D0, 0x00
00001852  2F00                     move.l     -[A7], D0
00001854  486E FF62                pea.l      [A6 - 0x9E]
00001858  4EAD 15AA                jsr        [A5 + 0x15AA /* export_689, CODE:32 @ 0000234A */]
0000185C  2F3C 0100 000A           move.l     -[A7], 0x100000A
00001862  7000                     moveq.l    D0, 0x00
00001864  2F00                     move.l     -[A7], D0
00001866  486E FF94                pea.l      [A6 - 0x6C]
0000186A  4EAD 15AA                jsr        [A5 + 0x15AA /* export_689, CODE:32 @ 0000234A */]
0000186E  2F3C 0100 0000           move.l     -[A7], 0x1000000
00001874  7000                     moveq.l    D0, 0x00
00001876  2F00                     move.l     -[A7], D0
00001878  486E FFC6                pea.l      [A6 - 0x3A]
0000187C  4EAD 15AA                jsr        [A5 + 0x15AA /* export_689, CODE:32 @ 0000234A */]
00001880  302E 000E                move.w     D0, [A6 + 0xE]
00001884  0440 000A                subi.w     D0, 0xA /* '\n' */
00001888  4FEF 0024                lea.l      A7, [A7 + 0x24]
0000188C  6708                     beq        +0xA /* 00001896 */
0000188E  5340                     subq.w     D0, 1
00001890  673C                     beq        +0x3E /* 000018CE */
00001892  6000 01C0                bra        +0x1C2 /* 00001A54 */
label00001896:
00001896  7003                     moveq.l    D0, 0x03
00001898  2F00                     move.l     -[A7], D0
0000189A  2F0B                     move.l     -[A7], A3
0000189C  2F0C                     move.l     -[A7], A4
0000189E  2F0C                     move.l     -[A7], A4
000018A0  7200                     moveq.l    D1, 0x00
000018A2  2F01                     move.l     -[A7], D1
000018A4  2F01                     move.l     -[A7], D1
000018A6  4EAD 1352                jsr        [A5 + 0x1352 /* export_614, CODE:27 @ 00000000 */]
000018AA  2940 0174                move.l     [A4 + 0x174], D0
000018AE  670C                     beq        +0xE /* 000018BC */
000018B0  202C 0174                move.l     D0, [A4 + 0x174]
000018B4  D0BC 0000 0080           add.l      D0, 0x80
000018BA  6002                     bra        +0x4 /* 000018BE */
label000018BC:
000018BC  7000                     moveq.l    D0, 0x00
label000018BE:
000018BE  2F00                     move.l     -[A7], D0
000018C0  2F0C                     move.l     -[A7], A4
000018C2  4EAD 11F2                jsr        [A5 + 0x11F2 /* export_570, CODE:26 @ 000032DA */]
000018C6  4FEF 0020                lea.l      A7, [A7 + 0x20]
000018CA  6000 0188                bra        +0x18A /* 00001A54 */
label000018CE:
000018CE  41EE FFF8                lea.l      A0, [A6 - 0x8]
000018D2  224B                     movea.l    A1, A3
000018D4  20D9                     move.l     [A0]+, [A1]+
000018D6  20D9                     move.l     [A0]+, [A1]+
000018D8  302E FFFA                move.w     D0, [A6 - 0x6]
000018DC  D07C 001E                add.w      D0, 0x1E
000018E0  3D40 FFFE                move.w     [A6 - 0x2], D0
000018E4  302E FFF8                move.w     D0, [A6 - 0x8]
000018E8  D07C 000C                add.w      D0, 0xC
000018EC  3D40 FFFC                move.w     [A6 - 0x4], D0
000018F0  70FF                     moveq.l    D0, 0xFFFFFFFF
000018F2  2F00                     move.l     -[A7], D0
000018F4  7200                     moveq.l    D1, 0x00
000018F6  2F01                     move.l     -[A7], D1
000018F8  7009                     moveq.l    D0, 0x09
000018FA  2F00                     move.l     -[A7], D0
000018FC  7003                     moveq.l    D0, 0x03
000018FE  2F00                     move.l     -[A7], D0
00001900  2F01                     move.l     -[A7], D1
00001902  486E FFF8                pea.l      [A6 - 0x8]
00001906  204D                     movea.l    A0, A5
00001908  D1FC FFFF 149C           add.l      A0, 0xFFFF149C
0000190E  4850                     pea.l      [A0]
00001910  2F0C                     move.l     -[A7], A4
00001912  2F01                     move.l     -[A7], D1
00001914  2F01                     move.l     -[A7], D1
00001916  4EAD 195A                jsr        [A5 + 0x195A /* export_807, CODE:33 @ 00001B8E */]
0000191A  2D40 FF5E                move.l     [A6 - 0xA2], D0
0000191E  4FEF 0028                lea.l      A7, [A7 + 0x28]
00001922  670C                     beq        +0xE /* 00001930 */
00001924  202E FF5E                move.l     D0, [A6 - 0xA2]
00001928  D0BC 0000 00D0           add.l      D0, 0xD0
0000192E  6002                     bra        +0x4 /* 00001932 */
label00001930:
00001930  7000                     moveq.l    D0, 0x00
label00001932:
00001932  2F00                     move.l     -[A7], D0
00001934  2F0C                     move.l     -[A7], A4
00001936  4EAD 11F2                jsr        [A5 + 0x11F2 /* export_570, CODE:26 @ 000032DA */]
0000193A  066E 0010 FFF8           addi.w     [A6 - 0x8], 0x10
00001940  066E 0010 FFFC           addi.w     [A6 - 0x4], 0x10
00001946  70FF                     moveq.l    D0, 0xFFFFFFFF
00001948  2F00                     move.l     -[A7], D0
0000194A  7200                     moveq.l    D1, 0x00
0000194C  2F01                     move.l     -[A7], D1
0000194E  7009                     moveq.l    D0, 0x09
00001950  2F00                     move.l     -[A7], D0
00001952  7003                     moveq.l    D0, 0x03
00001954  2F00                     move.l     -[A7], D0
00001956  2F01                     move.l     -[A7], D1
00001958  486E FFF8                pea.l      [A6 - 0x8]
0000195C  204D                     movea.l    A0, A5
0000195E  D1FC FFFF 14A2           add.l      A0, 0xFFFF14A2
00001964  4850                     pea.l      [A0]
00001966  2F0C                     move.l     -[A7], A4
00001968  2F01                     move.l     -[A7], D1
0000196A  2F01                     move.l     -[A7], D1
0000196C  4EAD 195A                jsr        [A5 + 0x195A /* export_807, CODE:33 @ 00001B8E */]
00001970  2D40 FF5A                move.l     [A6 - 0xA6], D0
00001974  4FEF 0028                lea.l      A7, [A7 + 0x28]
00001978  670C                     beq        +0xE /* 00001986 */
0000197A  202E FF5A                move.l     D0, [A6 - 0xA6]
0000197E  D0BC 0000 00D0           add.l      D0, 0xD0
00001984  6002                     bra        +0x4 /* 00001988 */
label00001986:
00001986  7000                     moveq.l    D0, 0x00
label00001988:
00001988  2F00                     move.l     -[A7], D0
0000198A  2F0C                     move.l     -[A7], A4
0000198C  4EAD 11F2                jsr        [A5 + 0x11F2 /* export_570, CODE:26 @ 000032DA */]
00001990  41EE FFF8                lea.l      A0, [A6 - 0x8]
00001994  224B                     movea.l    A1, A3
00001996  20D9                     move.l     [A0]+, [A1]+
00001998  20D9                     move.l     [A0]+, [A1]+
0000199A  066E 002D FFFA           addi.w     [A6 - 0x6], 0x2D /* '-' */
000019A0  526E FFF8                addq.w     [A6 - 0x8], 1
000019A4  302E FFF8                move.w     D0, [A6 - 0x8]
000019A8  D07C 000D                add.w      D0, 0xD /* '\r' */
000019AC  3D40 FFFC                move.w     [A6 - 0x4], D0
000019B0  536E FFFE                subq.w     [A6 - 0x2], 1
000019B4  7001                     moveq.l    D0, 0x01
000019B6  2F00                     move.l     -[A7], D0
000019B8  7200                     moveq.l    D1, 0x00
000019BA  2F01                     move.l     -[A7], D1
000019BC  7009                     moveq.l    D0, 0x09
000019BE  2F00                     move.l     -[A7], D0
000019C0  7003                     moveq.l    D0, 0x03
000019C2  2F00                     move.l     -[A7], D0
000019C4  2F01                     move.l     -[A7], D1
000019C6  2F01                     move.l     -[A7], D1
000019C8  2F01                     move.l     -[A7], D1
000019CA  2F01                     move.l     -[A7], D1
000019CC  486E FFF8                pea.l      [A6 - 0x8]
000019D0  2F0C                     move.l     -[A7], A4
000019D2  2F0C                     move.l     -[A7], A4
000019D4  2F01                     move.l     -[A7], D1
000019D6  2F01                     move.l     -[A7], D1
000019D8  4EAD 016A                jsr        [A5 + 0x16A /* export_41, CODE:1 @ 00002828 */]
000019DC  2940 016C                move.l     [A4 + 0x16C], D0
000019E0  066E 0010 FFF8           addi.w     [A6 - 0x8], 0x10
000019E6  066E 0010 FFFC           addi.w     [A6 - 0x4], 0x10
000019EC  7001                     moveq.l    D0, 0x01
000019EE  2F00                     move.l     -[A7], D0
000019F0  7200                     moveq.l    D1, 0x00
000019F2  2F01                     move.l     -[A7], D1
000019F4  7009                     moveq.l    D0, 0x09
000019F6  2F00                     move.l     -[A7], D0
000019F8  7003                     moveq.l    D0, 0x03
000019FA  2F00                     move.l     -[A7], D0
000019FC  2F01                     move.l     -[A7], D1
000019FE  2F01                     move.l     -[A7], D1
00001A00  2F01                     move.l     -[A7], D1
00001A02  2F01                     move.l     -[A7], D1
00001A04  486E FFF8                pea.l      [A6 - 0x8]
00001A08  2F0C                     move.l     -[A7], A4
00001A0A  2F0C                     move.l     -[A7], A4
00001A0C  2F01                     move.l     -[A7], D1
00001A0E  2F01                     move.l     -[A7], D1
00001A10  4EAD 016A                jsr        [A5 + 0x16A /* export_41, CODE:1 @ 00002828 */]
00001A14  2940 0170                move.l     [A4 + 0x170], D0
00001A18  4AAC 016C                tst.l      [A4 + 0x16C]
00001A1C  670C                     beq        +0xE /* 00001A2A */
00001A1E  202C 016C                move.l     D0, [A4 + 0x16C]
00001A22  D0BC 0000 0080           add.l      D0, 0x80
00001A28  6002                     bra        +0x4 /* 00001A2C */
label00001A2A:
00001A2A  7000                     moveq.l    D0, 0x00
label00001A2C:
00001A2C  2F00                     move.l     -[A7], D0
00001A2E  2F0C                     move.l     -[A7], A4
00001A30  4EAD 11F2                jsr        [A5 + 0x11F2 /* export_570, CODE:26 @ 000032DA */]
00001A34  4AAC 0170                tst.l      [A4 + 0x170]
00001A38  670C                     beq        +0xE /* 00001A46 */
00001A3A  202C 0170                move.l     D0, [A4 + 0x170]
00001A3E  D0BC 0000 0080           add.l      D0, 0x80
00001A44  6002                     bra        +0x4 /* 00001A48 */
label00001A46:
00001A46  7000                     moveq.l    D0, 0x00
label00001A48:
00001A48  2F00                     move.l     -[A7], D0
00001A4A  2F0C                     move.l     -[A7], A4
00001A4C  4EAD 11F2                jsr        [A5 + 0x11F2 /* export_570, CODE:26 @ 000032DA */]
00001A50  4FEF 0088                lea.l      A7, [A7 + 0x88]
label00001A54:
00001A54  7002                     moveq.l    D0, 0x02
00001A56  2F00                     move.l     -[A7], D0
00001A58  486E FFC6                pea.l      [A6 - 0x3A]
00001A5C  4EAD 15D2                jsr        [A5 + 0x15D2 /* export_694, CODE:32 @ 000029D6 */]
00001A60  7002                     moveq.l    D0, 0x02
00001A62  2F00                     move.l     -[A7], D0
00001A64  486E FF94                pea.l      [A6 - 0x6C]
00001A68  4EAD 15D2                jsr        [A5 + 0x15D2 /* export_694, CODE:32 @ 000029D6 */]
00001A6C  7002                     moveq.l    D0, 0x02
00001A6E  2F00                     move.l     -[A7], D0
00001A70  486E FF62                pea.l      [A6 - 0x9E]
00001A74  4EAD 15D2                jsr        [A5 + 0x15D2 /* export_694, CODE:32 @ 000029D6 */]
00001A78  4FEF 0018                lea.l      A7, [A7 + 0x18]
00001A7C  4CEE 1800 FF52           movem.l    A3,A4, [A6 - 0xAE]
00001A82  4E5E                     unlink     A6
00001A84  4E75                     rts
00001A86  8028 4E65 7755 7365 7... dc.b       "NewUserItem__17cControlBarWindowFsR4Rect"
export_332:
00001AB2  4E56 0000                link       A6, 0
00001AB6  7000                     moveq.l    D0, 0x00
00001AB8  102E 000F                move.b     D0, [A6 + 0xF]
00001ABC  2F00                     move.l     -[A7], D0
00001ABE  206E 0008                movea.l    A0, [A6 + 0x8]
00001AC2  2F28 0174                move.l     -[A7], [A0 + 0x174]
00001AC6  4EAD 136A                jsr        [A5 + 0x136A /* export_617, CODE:27 @ 00000364 */]
00001ACA  4E5E                     unlink     A6
00001ACC  4E75                     rts
00001ACE  802E 5365 7457 6561 7... dc.b       "SetWeather__17cControlBarWindowF12eWeatherType"
export_333:
00001B00  4E56 0000                link       A6, 0
00001B04  48E7 0018                movem.l    -[A7], A3,A4
00001B08  286E 0008                movea.l    A4, [A6 + 0x8]
00001B0C  7001                     moveq.l    D0, 0x01
00001B0E  2F00                     move.l     -[A7], D0
00001B10  322E 0016                move.w     D1, [A6 + 0x16]
00001B14  48C1                     ext.l      D1
00001B16  2F01                     move.l     -[A7], D1
00001B18  2F2E 0010                move.l     -[A7], [A6 + 0x10]
00001B1C  2F0C                     move.l     -[A7], A4
00001B1E  2F0C                     move.l     -[A7], A4
00001B20  7200                     moveq.l    D1, 0x00
00001B22  2F01                     move.l     -[A7], D1
00001B24  2F01                     move.l     -[A7], D1
00001B26  4EAD 1F82                jsr        [A5 + 0x1F82 /* export_1004, CODE:37 @ 00001652 */]
00001B2A  2640                     movea.l    A3, D0
00001B2C  2F0B                     move.l     -[A7], A3
00001B2E  486C 0178                pea.l      [A4 + 0x178]
00001B32  4EAD 013A                jsr        [A5 + 0x13A /* export_35, CODE:1 @ 00002256 */]
00001B36  200B                     move.l     D0, A3
00001B38  670A                     beq        +0xC /* 00001B44 */
00001B3A  200B                     move.l     D0, A3
00001B3C  D0BC 0000 0080           add.l      D0, 0x80
00001B42  6002                     bra        +0x4 /* 00001B46 */
label00001B44:
00001B44  7000                     moveq.l    D0, 0x00
label00001B46:
00001B46  2F00                     move.l     -[A7], D0
00001B48  2F0C                     move.l     -[A7], A4
00001B4A  4EAD 11F2                jsr        [A5 + 0x11F2 /* export_570, CODE:26 @ 000032DA */]
00001B4E  4FEF 002C                lea.l      A7, [A7 + 0x2C]
00001B52  4CEE 1800 FFF8           movem.l    A3,A4, [A6 - 0x8]
00001B58  4E5E                     unlink     A6
00001B5A  4E75                     rts
00001B5C  8026 4E65 7749 636F 6... dc.b       "NewIcon__17cControlBarWindowFsR4RectT1"
export_334:
00001B86  4E56 0000                link       A6, 0
00001B8A  48E7 0318                movem.l    -[A7], D6,D7,A3,A4
00001B8E  3E2E 0012                move.w     D7, [A6 + 0x12]
00001B92  286E 0008                movea.l    A4, [A6 + 0x8]
00001B96  206C 016C                movea.l    A0, [A4 + 0x16C]
00001B9A  47E8 01C4                lea.l      A3, [A0 + 0x1C4]
00001B9E  2F0B                     move.l     -[A7], A3
00001BA0  4EAD 1782                jsr        [A5 + 0x1782 /* export_748, CODE:32 @ 00004E1E */]
00001BA4  4206                     clr.b      D6
00001BA6  7000                     moveq.l    D0, 0x00
00001BA8  1006                     move.b     D0, D6
00001BAA  2F00                     move.l     -[A7], D0
00001BAC  2F2B 0014                move.l     -[A7], [A3 + 0x14]
00001BB0  204D                     movea.l    A0, A5
00001BB2  D1FC FFFF 14AA           add.l      A0, 0xFFFF14AA
00001BB8  4850                     pea.l      [A0]
00001BBA  2F0B                     move.l     -[A7], A3
00001BBC  4EAD 178A                jsr        [A5 + 0x178A /* export_749, CODE:32 @ 00004E80 */]
00001BC0  302E 000E                move.w     D0, [A6 + 0xE]
00001BC4  48C0                     ext.l      D0
00001BC6  2F00                     move.l     -[A7], D0
00001BC8  206C 016C                movea.l    A0, [A4 + 0x16C]
00001BCC  4868 01C4                pea.l      [A0 + 0x1C4]
00001BD0  4EAD 17FA                jsr        [A5 + 0x17FA /* export_763, CODE:32 @ 000057BC */]
00001BD4  206C 016C                movea.l    A0, [A4 + 0x16C]
00001BD8  47E8 01C4                lea.l      A3, [A0 + 0x1C4]
00001BDC  7000                     moveq.l    D0, 0x00
00001BDE  2F00                     move.l     -[A7], D0
00001BE0  2F2B 0014                move.l     -[A7], [A3 + 0x14]
00001BE4  204D                     movea.l    A0, A5
00001BE6  D1FC FFFF 14B2           add.l      A0, 0xFFFF14B2
00001BEC  4850                     pea.l      [A0]
00001BEE  2F0B                     move.l     -[A7], A3
00001BF0  4EAD 178A                jsr        [A5 + 0x178A /* export_749, CODE:32 @ 00004E80 */]
00001BF4  3007                     move.w     D0, D7
00001BF6  4FEF 002C                lea.l      A7, [A7 + 0x2C]
00001BFA  6B00 0208                bmi        +0x20A /* 00001E04 */
00001BFE  0C40 000B                cmpi.w     D0, 0xB
00001C02  6E00 0200                bgt        +0x202 /* 00001E04 */
00001C06  D040                     add.w      D0, D0
00001C08  303B 0006                move.w     D0, [PC + D0.w + 0x6]
00001C0C  4EFB 0000                jmp        [PC + D0.w]
00001C10  001A 0042                ori.b      [A2]+, 0x42 /* 'B' */
00001C14  006A 0092 00BA           ori.w      [A2 + 0xBA], 0x92
00001C1A  00E2                     .incomplete
00001C1C  010A                     btst       A2, D0
00001C1E  0132 015A 0182           btst       [[A2] + 0x182], D0
00001C24  01AA 01D0                bclr       [A2 + 0x1D0], D0
00001C28  206C 016C                movea.l    A0, [A4 + 0x16C]
00001C2C  47E8 01C4                lea.l      A3, [A0 + 0x1C4]
00001C30  7000                     moveq.l    D0, 0x00
00001C32  2F00                     move.l     -[A7], D0
00001C34  2F2B 0014                move.l     -[A7], [A3 + 0x14]
00001C38  204D                     movea.l    A0, A5
00001C3A  D1FC FFFF 14B8           add.l      A0, 0xFFFF14B8
00001C40  4850                     pea.l      [A0]
00001C42  2F0B                     move.l     -[A7], A3
00001C44  4EAD 178A                jsr        [A5 + 0x178A /* export_749, CODE:32 @ 00004E80 */]
00001C48  4FEF 0010                lea.l      A7, [A7 + 0x10]
00001C4C  6000 01EA                bra        +0x1EC /* 00001E38 */
00001C50  206C 016C                movea.l    A0, [A4 + 0x16C]
00001C54  47E8 01C4                lea.l      A3, [A0 + 0x1C4]
00001C58  7000                     moveq.l    D0, 0x00
00001C5A  2F00                     move.l     -[A7], D0
00001C5C  2F2B 0014                move.l     -[A7], [A3 + 0x14]
00001C60  204D                     movea.l    A0, A5
00001C62  D1FC FFFF 14BE           add.l      A0, 0xFFFF14BE
00001C68  4850                     pea.l      [A0]
00001C6A  2F0B                     move.l     -[A7], A3
00001C6C  4EAD 178A                jsr        [A5 + 0x178A /* export_749, CODE:32 @ 00004E80 */]
00001C70  4FEF 0010                lea.l      A7, [A7 + 0x10]
00001C74  6000 01C2                bra        +0x1C4 /* 00001E38 */
00001C78  206C 016C                movea.l    A0, [A4 + 0x16C]
00001C7C  47E8 01C4                lea.l      A3, [A0 + 0x1C4]
00001C80  7000                     moveq.l    D0, 0x00
00001C82  2F00                     move.l     -[A7], D0
00001C84  2F2B 0014                move.l     -[A7], [A3 + 0x14]
00001C88  204D                     movea.l    A0, A5
00001C8A  D1FC FFFF 14C4           add.l      A0, 0xFFFF14C4
00001C90  4850                     pea.l      [A0]
00001C92  2F0B                     move.l     -[A7], A3
00001C94  4EAD 178A                jsr        [A5 + 0x178A /* export_749, CODE:32 @ 00004E80 */]
00001C98  4FEF 0010                lea.l      A7, [A7 + 0x10]
00001C9C  6000 019A                bra        +0x19C /* 00001E38 */
00001CA0  206C 016C                movea.l    A0, [A4 + 0x16C]
00001CA4  47E8 01C4                lea.l      A3, [A0 + 0x1C4]
00001CA8  7000                     moveq.l    D0, 0x00
00001CAA  2F00                     move.l     -[A7], D0
00001CAC  2F2B 0014                move.l     -[A7], [A3 + 0x14]
00001CB0  204D                     movea.l    A0, A5
00001CB2  D1FC FFFF 14CA           add.l      A0, 0xFFFF14CA
00001CB8  4850                     pea.l      [A0]
00001CBA  2F0B                     move.l     -[A7], A3
00001CBC  4EAD 178A                jsr        [A5 + 0x178A /* export_749, CODE:32 @ 00004E80 */]
00001CC0  4FEF 0010                lea.l      A7, [A7 + 0x10]
00001CC4  6000 0172                bra        +0x174 /* 00001E38 */
00001CC8  206C 016C                movea.l    A0, [A4 + 0x16C]
00001CCC  47E8 01C4                lea.l      A3, [A0 + 0x1C4]
00001CD0  7000                     moveq.l    D0, 0x00
00001CD2  2F00                     move.l     -[A7], D0
00001CD4  2F2B 0014                move.l     -[A7], [A3 + 0x14]
00001CD8  204D                     movea.l    A0, A5
00001CDA  D1FC FFFF 14D0           add.l      A0, 0xFFFF14D0
00001CE0  4850                     pea.l      [A0]
00001CE2  2F0B                     move.l     -[A7], A3
00001CE4  4EAD 178A                jsr        [A5 + 0x178A /* export_749, CODE:32 @ 00004E80 */]
00001CE8  4FEF 0010                lea.l      A7, [A7 + 0x10]
00001CEC  6000 014A                bra        +0x14C /* 00001E38 */
00001CF0  206C 016C                movea.l    A0, [A4 + 0x16C]
00001CF4  47E8 01C4                lea.l      A3, [A0 + 0x1C4]
00001CF8  7000                     moveq.l    D0, 0x00
00001CFA  2F00                     move.l     -[A7], D0
00001CFC  2F2B 0014                move.l     -[A7], [A3 + 0x14]
00001D00  204D                     movea.l    A0, A5
00001D02  D1FC FFFF 14D6           add.l      A0, 0xFFFF14D6
00001D08  4850                     pea.l      [A0]
00001D0A  2F0B                     move.l     -[A7], A3
00001D0C  4EAD 178A                jsr        [A5 + 0x178A /* export_749, CODE:32 @ 00004E80 */]
00001D10  4FEF 0010                lea.l      A7, [A7 + 0x10]
00001D14  6000 0122                bra        +0x124 /* 00001E38 */
00001D18  206C 016C                movea.l    A0, [A4 + 0x16C]
00001D1C  47E8 01C4                lea.l      A3, [A0 + 0x1C4]
00001D20  7000                     moveq.l    D0, 0x00
00001D22  2F00                     move.l     -[A7], D0
00001D24  2F2B 0014                move.l     -[A7], [A3 + 0x14]
00001D28  204D                     movea.l    A0, A5
00001D2A  D1FC FFFF 14DC           add.l      A0, 0xFFFF14DC
00001D30  4850                     pea.l      [A0]
00001D32  2F0B                     move.l     -[A7], A3
00001D34  4EAD 178A                jsr        [A5 + 0x178A /* export_749, CODE:32 @ 00004E80 */]
00001D38  4FEF 0010                lea.l      A7, [A7 + 0x10]
00001D3C  6000 00FA                bra        +0xFC /* 00001E38 */
00001D40  206C 016C                movea.l    A0, [A4 + 0x16C]
00001D44  47E8 01C4                lea.l      A3, [A0 + 0x1C4]
00001D48  7000                     moveq.l    D0, 0x00
00001D4A  2F00                     move.l     -[A7], D0
00001D4C  2F2B 0014                move.l     -[A7], [A3 + 0x14]
00001D50  204D                     movea.l    A0, A5
00001D52  D1FC FFFF 14E2           add.l      A0, 0xFFFF14E2
00001D58  4850                     pea.l      [A0]
00001D5A  2F0B                     move.l     -[A7], A3
00001D5C  4EAD 178A                jsr        [A5 + 0x178A /* export_749, CODE:32 @ 00004E80 */]
00001D60  4FEF 0010                lea.l      A7, [A7 + 0x10]
00001D64  6000 00D2                bra        +0xD4 /* 00001E38 */
00001D68  206C 016C                movea.l    A0, [A4 + 0x16C]
00001D6C  47E8 01C4                lea.l      A3, [A0 + 0x1C4]
00001D70  7000                     moveq.l    D0, 0x00
00001D72  2F00                     move.l     -[A7], D0
00001D74  2F2B 0014                move.l     -[A7], [A3 + 0x14]
00001D78  204D                     movea.l    A0, A5
00001D7A  D1FC FFFF 14E8           add.l      A0, 0xFFFF14E8
00001D80  4850                     pea.l      [A0]
00001D82  2F0B                     move.l     -[A7], A3
00001D84  4EAD 178A                jsr        [A5 + 0x178A /* export_749, CODE:32 @ 00004E80 */]
00001D88  4FEF 0010                lea.l      A7, [A7 + 0x10]
00001D8C  6000 00AA                bra        +0xAC /* 00001E38 */
00001D90  206C 016C                movea.l    A0, [A4 + 0x16C]
00001D94  47E8 01C4                lea.l      A3, [A0 + 0x1C4]
00001D98  7000                     moveq.l    D0, 0x00
00001D9A  2F00                     move.l     -[A7], D0
00001D9C  2F2B 0014                move.l     -[A7], [A3 + 0x14]
00001DA0  204D                     movea.l    A0, A5
00001DA2  D1FC FFFF 14EE           add.l      A0, 0xFFFF14EE
00001DA8  4850                     pea.l      [A0]
00001DAA  2F0B                     move.l     -[A7], A3
00001DAC  4EAD 178A                jsr        [A5 + 0x178A /* export_749, CODE:32 @ 00004E80 */]
00001DB0  4FEF 0010                lea.l      A7, [A7 + 0x10]
00001DB4  6000 0082                bra        +0x84 /* 00001E38 */
00001DB8  206C 016C                movea.l    A0, [A4 + 0x16C]
00001DBC  47E8 01C4                lea.l      A3, [A0 + 0x1C4]
00001DC0  7000                     moveq.l    D0, 0x00
00001DC2  2F00                     move.l     -[A7], D0
00001DC4  2F2B 0014                move.l     -[A7], [A3 + 0x14]
00001DC8  204D                     movea.l    A0, A5
00001DCA  D1FC FFFF 14F4           add.l      A0, 0xFFFF14F4
00001DD0  4850                     pea.l      [A0]
00001DD2  2F0B                     move.l     -[A7], A3
00001DD4  4EAD 178A                jsr        [A5 + 0x178A /* export_749, CODE:32 @ 00004E80 */]
00001DD8  4FEF 0010                lea.l      A7, [A7 + 0x10]
00001DDC  605A                     bra        +0x5C /* 00001E38 */
00001DDE  206C 016C                movea.l    A0, [A4 + 0x16C]
00001DE2  47E8 01C4                lea.l      A3, [A0 + 0x1C4]
00001DE6  7000                     moveq.l    D0, 0x00
00001DE8  2F00                     move.l     -[A7], D0
00001DEA  2F2B 0014                move.l     -[A7], [A3 + 0x14]
00001DEE  204D                     movea.l    A0, A5
00001DF0  D1FC FFFF 14FA           add.l      A0, 0xFFFF14FA
00001DF6  4850                     pea.l      [A0]
00001DF8  2F0B                     move.l     -[A7], A3
00001DFA  4EAD 178A                jsr        [A5 + 0x178A /* export_749, CODE:32 @ 00004E80 */]
00001DFE  4FEF 0010                lea.l      A7, [A7 + 0x10]
00001E02  6034                     bra        +0x36 /* 00001E38 */
label00001E04:
00001E04  206C 016C                movea.l    A0, [A4 + 0x16C]
00001E08  47E8 01C4                lea.l      A3, [A0 + 0x1C4]
00001E0C  7000                     moveq.l    D0, 0x00
00001E0E  2F00                     move.l     -[A7], D0
00001E10  2F2B 0014                move.l     -[A7], [A3 + 0x14]
00001E14  204D                     movea.l    A0, A5
00001E16  D1FC FFFF 1500           add.l      A0, 0xFFFF1500
00001E1C  4850                     pea.l      [A0]
00001E1E  2F0B                     move.l     -[A7], A3
00001E20  4EAD 178A                jsr        [A5 + 0x178A /* export_749, CODE:32 @ 00004E80 */]
00001E24  48C7                     ext.l      D7
00001E26  2F07                     move.l     -[A7], D7
00001E28  206C 016C                movea.l    A0, [A4 + 0x16C]
00001E2C  4868 01C4                pea.l      [A0 + 0x1C4]
00001E30  4EAD 17FA                jsr        [A5 + 0x17FA /* export_763, CODE:32 @ 000057BC */]
00001E34  4FEF 0018                lea.l      A7, [A7 + 0x18]
label00001E38:
00001E38  302E 0016                move.w     D0, [A6 + 0x16]
00001E3C  48C0                     ext.l      D0
00001E3E  2F00                     move.l     -[A7], D0
00001E40  206C 016C                movea.l    A0, [A4 + 0x16C]
00001E44  4868 01C4                pea.l      [A0 + 0x1C4]
00001E48  4EAD 17FA                jsr        [A5 + 0x17FA /* export_763, CODE:32 @ 000057BC */]
00001E4C  2F2C 016C                move.l     -[A7], [A4 + 0x16C]
00001E50  4EAD 1F52                jsr        [A5 + 0x1F52 /* export_998, CODE:37 @ 000014C8 */]
00001E54  4FEF 000C                lea.l      A7, [A7 + 0xC]
00001E58  4CEE 18C0 FFF0           movem.l    D6,D7,A3,A4, [A6 - 0x10]
00001E5E  4E5E                     unlink     A6
00001E60  4E75                     rts
00001E62  8021 5365 7444 6174 6... dc.b       "SetDate__17cControlBarWindowFsN21"
export_335:
00001E88  4E56 0000                link       A6, 0
00001E8C  48E7 0018                movem.l    -[A7], A3,A4
00001E90  286E 0008                movea.l    A4, [A6 + 0x8]
00001E94  202E 000C                move.l     D0, [A6 + 0xC]
00001E98  0480 4261 6C53           subi.l     D0, 0x42616C53 /* 'BalS' */
00001E9E  6700 033C                beq        +0x33E /* 000021DC */
00001EA2  0480 0000 0218           subi.l     D0, 0x218
00001EA8  6700 03AE                beq        +0x3B0 /* 00002258 */
00001EAC  0480 0014 0AB5           subi.l     D0, 0x140AB5
00001EB2  6700 0138                beq        +0x13A /* 00001FEC */
00001EB6  0480 02EE F054           subi.l     D0, 0x2EEF054
00001EBC  6736                     beq        +0x38 /* 00001EF4 */
00001EBE  0480 0011 F7F8           subi.l     D0, 0x11F7F8
00001EC4  6700 021E                beq        +0x220 /* 000020E4 */
00001EC8  0480 07EB 0EB4           subi.l     D0, 0x7EB0EB4
00001ECE  6700 00A0                beq        +0xA2 /* 00001F70 */
00001ED2  0480 0010 FB54           subi.l     D0, 0x10FB54
00001ED8  6700 03F8                beq        +0x3FA /* 000022D2 */
00001EDC  0480 05F3 00F8           subi.l     D0, 0x5F300F8
00001EE2  6700 0184                beq        +0x186 /* 00002068 */
00001EE6  0480 040E FC06           subi.l     D0, 0x40EFC06
00001EEC  6700 0272                beq        +0x274 /* 00002160 */
00001EF0  6000 0458                bra        +0x45A /* 0000234A */
label00001EF4:
00001EF4  2F08                     move.l     -[A7], A0
00001EF6  7007                     moveq.l    D0, 0x07
00001EF8  2F00                     move.l     -[A7], D0
00001EFA  486C 0178                pea.l      [A4 + 0x178]
00001EFE  4EAD 16D2                jsr        [A5 + 0x16D2 /* export_726, CODE:32 @ 00003FEA */]
00001F02  508F                     addq.l     A7, 8
00001F04  205F                     movea.l    A0, [A7]+
00001F06  2240                     movea.l    A1, D0
00001F08  43E9 0080                lea.l      A1, [A1 + 0x80]
00001F0C  2049                     movea.l    A0, A1
00001F0E  2F08                     move.l     -[A7], A0
00001F10  7007                     moveq.l    D0, 0x07
00001F12  2F00                     move.l     -[A7], D0
00001F14  486C 0178                pea.l      [A4 + 0x178]
00001F18  4EAD 16D2                jsr        [A5 + 0x16D2 /* export_726, CODE:32 @ 00003FEA */]
00001F1C  508F                     addq.l     A7, 8
00001F1E  205F                     movea.l    A0, [A7]+
00001F20  2240                     movea.l    A1, D0
00001F22  2269 0088                movea.l    A1, [A1 + 0x88]
00001F26  D0E9 00A8                add.w      A0, [A1 + 0xA8]
00001F2A  2F08                     move.l     -[A7], A0
00001F2C  7007                     moveq.l    D0, 0x07
00001F2E  2F00                     move.l     -[A7], D0
00001F30  486C 0178                pea.l      [A4 + 0x178]
00001F34  4EAD 16D2                jsr        [A5 + 0x16D2 /* export_726, CODE:32 @ 00003FEA */]
00001F38  2040                     movea.l    A0, D0
00001F3A  2068 0088                movea.l    A0, [A0 + 0x88]
00001F3E  508F                     addq.l     A7, 8
00001F40  2268 00AC                movea.l    A1, [A0 + 0xAC]
00001F44  4E91                     jsr        [A1]
00001F46  7007                     moveq.l    D0, 0x07
00001F48  2F00                     move.l     -[A7], D0
00001F4A  486C 0178                pea.l      [A4 + 0x178]
00001F4E  4EAD 16D2                jsr        [A5 + 0x16D2 /* export_726, CODE:32 @ 00003FEA */]
00001F52  2640                     movea.l    A3, D0
00001F54  204B                     movea.l    A0, A3
00001F56  226B 0060                movea.l    A1, [A3 + 0x60]
00001F5A  D0E9 00E8                add.w      A0, [A1 + 0xE8]
00001F5E  2F08                     move.l     -[A7], A0
00001F60  2049                     movea.l    A0, A1
00001F62  2268 00EC                movea.l    A1, [A0 + 0xEC]
00001F66  4E91                     jsr        [A1]
00001F68  4FEF 0010                lea.l      A7, [A7 + 0x10]
00001F6C  6000 03DC                bra        +0x3DE /* 0000234A */
label00001F70:
00001F70  2F08                     move.l     -[A7], A0
00001F72  7003                     moveq.l    D0, 0x03
00001F74  2F00                     move.l     -[A7], D0
00001F76  486C 0178                pea.l      [A4 + 0x178]
00001F7A  4EAD 16D2                jsr        [A5 + 0x16D2 /* export_726, CODE:32 @ 00003FEA */]
00001F7E  508F                     addq.l     A7, 8
00001F80  205F                     movea.l    A0, [A7]+
00001F82  2240                     movea.l    A1, D0
00001F84  43E9 0080                lea.l      A1, [A1 + 0x80]
00001F88  2049                     movea.l    A0, A1
00001F8A  2F08                     move.l     -[A7], A0
00001F8C  7003                     moveq.l    D0, 0x03
00001F8E  2F00                     move.l     -[A7], D0
00001F90  486C 0178                pea.l      [A4 + 0x178]
00001F94  4EAD 16D2                jsr        [A5 + 0x16D2 /* export_726, CODE:32 @ 00003FEA */]
00001F98  508F                     addq.l     A7, 8
00001F9A  205F                     movea.l    A0, [A7]+
00001F9C  2240                     movea.l    A1, D0
00001F9E  2269 0088                movea.l    A1, [A1 + 0x88]
00001FA2  D0E9 00A8                add.w      A0, [A1 + 0xA8]
00001FA6  2F08                     move.l     -[A7], A0
00001FA8  7003                     moveq.l    D0, 0x03
00001FAA  2F00                     move.l     -[A7], D0
00001FAC  486C 0178                pea.l      [A4 + 0x178]
00001FB0  4EAD 16D2                jsr        [A5 + 0x16D2 /* export_726, CODE:32 @ 00003FEA */]
00001FB4  2040                     movea.l    A0, D0
00001FB6  2068 0088                movea.l    A0, [A0 + 0x88]
00001FBA  508F                     addq.l     A7, 8
00001FBC  2268 00AC                movea.l    A1, [A0 + 0xAC]
00001FC0  4E91                     jsr        [A1]
00001FC2  7003                     moveq.l    D0, 0x03
00001FC4  2F00                     move.l     -[A7], D0
00001FC6  486C 0178                pea.l      [A4 + 0x178]
00001FCA  4EAD 16D2                jsr        [A5 + 0x16D2 /* export_726, CODE:32 @ 00003FEA */]
00001FCE  2640                     movea.l    A3, D0
00001FD0  204B                     movea.l    A0, A3
00001FD2  226B 0060                movea.l    A1, [A3 + 0x60]
00001FD6  D0E9 00E8                add.w      A0, [A1 + 0xE8]
00001FDA  2F08                     move.l     -[A7], A0
00001FDC  2049                     movea.l    A0, A1
00001FDE  2268 00EC                movea.l    A1, [A0 + 0xEC]
00001FE2  4E91                     jsr        [A1]
00001FE4  4FEF 0010                lea.l      A7, [A7 + 0x10]
00001FE8  6000 0360                bra        +0x362 /* 0000234A */
label00001FEC:
00001FEC  2F08                     move.l     -[A7], A0
00001FEE  7000                     moveq.l    D0, 0x00
00001FF0  2F00                     move.l     -[A7], D0
00001FF2  486C 0178                pea.l      [A4 + 0x178]
00001FF6  4EAD 16D2                jsr        [A5 + 0x16D2 /* export_726, CODE:32 @ 00003FEA */]
00001FFA  508F                     addq.l     A7, 8
00001FFC  205F                     movea.l    A0, [A7]+
00001FFE  2240                     movea.l    A1, D0
00002000  43E9 0080                lea.l      A1, [A1 + 0x80]
00002004  2049                     movea.l    A0, A1
00002006  2F08                     move.l     -[A7], A0
00002008  7000                     moveq.l    D0, 0x00
0000200A  2F00                     move.l     -[A7], D0
0000200C  486C 0178                pea.l      [A4 + 0x178]
00002010  4EAD 16D2                jsr        [A5 + 0x16D2 /* export_726, CODE:32 @ 00003FEA */]
00002014  508F                     addq.l     A7, 8
00002016  205F                     movea.l    A0, [A7]+
00002018  2240                     movea.l    A1, D0
0000201A  2269 0088                movea.l    A1, [A1 + 0x88]
0000201E  D0E9 00A8                add.w      A0, [A1 + 0xA8]
00002022  2F08                     move.l     -[A7], A0
00002024  7000                     moveq.l    D0, 0x00
00002026  2F00                     move.l     -[A7], D0
00002028  486C 0178                pea.l      [A4 + 0x178]
0000202C  4EAD 16D2                jsr        [A5 + 0x16D2 /* export_726, CODE:32 @ 00003FEA */]
00002030  2040                     movea.l    A0, D0
00002032  2068 0088                movea.l    A0, [A0 + 0x88]
00002036  508F                     addq.l     A7, 8
00002038  2268 00AC                movea.l    A1, [A0 + 0xAC]
0000203C  4E91                     jsr        [A1]
0000203E  7000                     moveq.l    D0, 0x00
00002040  2F00                     move.l     -[A7], D0
00002042  486C 0178                pea.l      [A4 + 0x178]
00002046  4EAD 16D2                jsr        [A5 + 0x16D2 /* export_726, CODE:32 @ 00003FEA */]
0000204A  2640                     movea.l    A3, D0
0000204C  204B                     movea.l    A0, A3
0000204E  226B 0060                movea.l    A1, [A3 + 0x60]
00002052  D0E9 00E8                add.w      A0, [A1 + 0xE8]
00002056  2F08                     move.l     -[A7], A0
00002058  2049                     movea.l    A0, A1
0000205A  2268 00EC                movea.l    A1, [A0 + 0xEC]
0000205E  4E91                     jsr        [A1]
00002060  4FEF 0010                lea.l      A7, [A7 + 0x10]
00002064  6000 02E4                bra        +0x2E6 /* 0000234A */
label00002068:
00002068  2F08                     move.l     -[A7], A0
0000206A  7001                     moveq.l    D0, 0x01
0000206C  2F00                     move.l     -[A7], D0
0000206E  486C 0178                pea.l      [A4 + 0x178]
00002072  4EAD 16D2                jsr        [A5 + 0x16D2 /* export_726, CODE:32 @ 00003FEA */]
00002076  508F                     addq.l     A7, 8
00002078  205F                     movea.l    A0, [A7]+
0000207A  2240                     movea.l    A1, D0
0000207C  43E9 0080                lea.l      A1, [A1 + 0x80]
00002080  2049                     movea.l    A0, A1
00002082  2F08                     move.l     -[A7], A0
00002084  7001                     moveq.l    D0, 0x01
00002086  2F00                     move.l     -[A7], D0
00002088  486C 0178                pea.l      [A4 + 0x178]
0000208C  4EAD 16D2                jsr        [A5 + 0x16D2 /* export_726, CODE:32 @ 00003FEA */]
00002090  508F                     addq.l     A7, 8
00002092  205F                     movea.l    A0, [A7]+
00002094  2240                     movea.l    A1, D0
00002096  2269 0088                movea.l    A1, [A1 + 0x88]
0000209A  D0E9 00A8                add.w      A0, [A1 + 0xA8]
0000209E  2F08                     move.l     -[A7], A0
000020A0  7001                     moveq.l    D0, 0x01
000020A2  2F00                     move.l     -[A7], D0
000020A4  486C 0178                pea.l      [A4 + 0x178]
000020A8  4EAD 16D2                jsr        [A5 + 0x16D2 /* export_726, CODE:32 @ 00003FEA */]
000020AC  2040                     movea.l    A0, D0
000020AE  2068 0088                movea.l    A0, [A0 + 0x88]
000020B2  508F                     addq.l     A7, 8
000020B4  2268 00AC                movea.l    A1, [A0 + 0xAC]
000020B8  4E91                     jsr        [A1]
000020BA  7001                     moveq.l    D0, 0x01
000020BC  2F00                     move.l     -[A7], D0
000020BE  486C 0178                pea.l      [A4 + 0x178]
000020C2  4EAD 16D2                jsr        [A5 + 0x16D2 /* export_726, CODE:32 @ 00003FEA */]
000020C6  2640                     movea.l    A3, D0
000020C8  204B                     movea.l    A0, A3
000020CA  226B 0060                movea.l    A1, [A3 + 0x60]
000020CE  D0E9 00E8                add.w      A0, [A1 + 0xE8]
000020D2  2F08                     move.l     -[A7], A0
000020D4  2049                     movea.l    A0, A1
000020D6  2268 00EC                movea.l    A1, [A0 + 0xEC]
000020DA  4E91                     jsr        [A1]
000020DC  4FEF 0010                lea.l      A7, [A7 + 0x10]
000020E0  6000 0268                bra        +0x26A /* 0000234A */
label000020E4:
000020E4  2F08                     move.l     -[A7], A0
000020E6  7002                     moveq.l    D0, 0x02
000020E8  2F00                     move.l     -[A7], D0
000020EA  486C 0178                pea.l      [A4 + 0x178]
000020EE  4EAD 16D2                jsr        [A5 + 0x16D2 /* export_726, CODE:32 @ 00003FEA */]
000020F2  508F                     addq.l     A7, 8
000020F4  205F                     movea.l    A0, [A7]+
000020F6  2240                     movea.l    A1, D0
000020F8  43E9 0080                lea.l      A1, [A1 + 0x80]
000020FC  2049                     movea.l    A0, A1
000020FE  2F08                     move.l     -[A7], A0
00002100  7002                     moveq.l    D0, 0x02
00002102  2F00                     move.l     -[A7], D0
00002104  486C 0178                pea.l      [A4 + 0x178]
00002108  4EAD 16D2                jsr        [A5 + 0x16D2 /* export_726, CODE:32 @ 00003FEA */]
0000210C  508F                     addq.l     A7, 8
0000210E  205F                     movea.l    A0, [A7]+
00002110  2240                     movea.l    A1, D0
00002112  2269 0088                movea.l    A1, [A1 + 0x88]
00002116  D0E9 00A8                add.w      A0, [A1 + 0xA8]
0000211A  2F08                     move.l     -[A7], A0
0000211C  7002                     moveq.l    D0, 0x02
0000211E  2F00                     move.l     -[A7], D0
00002120  486C 0178                pea.l      [A4 + 0x178]
00002124  4EAD 16D2                jsr        [A5 + 0x16D2 /* export_726, CODE:32 @ 00003FEA */]
00002128  2040                     movea.l    A0, D0
0000212A  2068 0088                movea.l    A0, [A0 + 0x88]
0000212E  508F                     addq.l     A7, 8
00002130  2268 00AC                movea.l    A1, [A0 + 0xAC]
00002134  4E91                     jsr        [A1]
00002136  7002                     moveq.l    D0, 0x02
00002138  2F00                     move.l     -[A7], D0
0000213A  486C 0178                pea.l      [A4 + 0x178]
0000213E  4EAD 16D2                jsr        [A5 + 0x16D2 /* export_726, CODE:32 @ 00003FEA */]
00002142  2640                     movea.l    A3, D0
00002144  204B                     movea.l    A0, A3
00002146  226B 0060                movea.l    A1, [A3 + 0x60]
0000214A  D0E9 00E8                add.w      A0, [A1 + 0xE8]
0000214E  2F08                     move.l     -[A7], A0
00002150  2049                     movea.l    A0, A1
00002152  2268 00EC                movea.l    A1, [A0 + 0xEC]
00002156  4E91                     jsr        [A1]
00002158  4FEF 0010                lea.l      A7, [A7 + 0x10]
0000215C  6000 01EC                bra        +0x1EE /* 0000234A */
label00002160:
00002160  2F08                     move.l     -[A7], A0
00002162  7004                     moveq.l    D0, 0x04
00002164  2F00                     move.l     -[A7], D0
00002166  486C 0178                pea.l      [A4 + 0x178]
0000216A  4EAD 16D2                jsr        [A5 + 0x16D2 /* export_726, CODE:32 @ 00003FEA */]
0000216E  508F                     addq.l     A7, 8
00002170  205F                     movea.l    A0, [A7]+
00002172  2240                     movea.l    A1, D0
00002174  43E9 0080                lea.l      A1, [A1 + 0x80]
00002178  2049                     movea.l    A0, A1
0000217A  2F08                     move.l     -[A7], A0
0000217C  7004                     moveq.l    D0, 0x04
0000217E  2F00                     move.l     -[A7], D0
00002180  486C 0178                pea.l      [A4 + 0x178]
00002184  4EAD 16D2                jsr        [A5 + 0x16D2 /* export_726, CODE:32 @ 00003FEA */]
00002188  508F                     addq.l     A7, 8
0000218A  205F                     movea.l    A0, [A7]+
0000218C  2240                     movea.l    A1, D0
0000218E  2269 0088                movea.l    A1, [A1 + 0x88]
00002192  D0E9 00A8                add.w      A0, [A1 + 0xA8]
00002196  2F08                     move.l     -[A7], A0
00002198  7004                     moveq.l    D0, 0x04
0000219A  2F00                     move.l     -[A7], D0
0000219C  486C 0178                pea.l      [A4 + 0x178]
000021A0  4EAD 16D2                jsr        [A5 + 0x16D2 /* export_726, CODE:32 @ 00003FEA */]
000021A4  2040                     movea.l    A0, D0
000021A6  2068 0088                movea.l    A0, [A0 + 0x88]
000021AA  508F                     addq.l     A7, 8
000021AC  2268 00AC                movea.l    A1, [A0 + 0xAC]
000021B0  4E91                     jsr        [A1]
000021B2  7004                     moveq.l    D0, 0x04
000021B4  2F00                     move.l     -[A7], D0
000021B6  486C 0178                pea.l      [A4 + 0x178]
000021BA  4EAD 16D2                jsr        [A5 + 0x16D2 /* export_726, CODE:32 @ 00003FEA */]
000021BE  2640                     movea.l    A3, D0
000021C0  204B                     movea.l    A0, A3
000021C2  226B 0060                movea.l    A1, [A3 + 0x60]
000021C6  D0E9 00E8                add.w      A0, [A1 + 0xE8]
000021CA  2F08                     move.l     -[A7], A0
000021CC  2049                     movea.l    A0, A1
000021CE  2268 00EC                movea.l    A1, [A0 + 0xEC]
000021D2  4E91                     jsr        [A1]
000021D4  4FEF 0010                lea.l      A7, [A7 + 0x10]
000021D8  6000 0170                bra        +0x172 /* 0000234A */
label000021DC:
000021DC  2F08                     move.l     -[A7], A0
000021DE  7005                     moveq.l    D0, 0x05
000021E0  2F00                     move.l     -[A7], D0
000021E2  486C 0178                pea.l      [A4 + 0x178]
000021E6  4EAD 16D2                jsr        [A5 + 0x16D2 /* export_726, CODE:32 @ 00003FEA */]
000021EA  508F                     addq.l     A7, 8
000021EC  205F                     movea.l    A0, [A7]+
000021EE  2240                     movea.l    A1, D0
000021F0  43E9 0080                lea.l      A1, [A1 + 0x80]
000021F4  2049                     movea.l    A0, A1
000021F6  2F08                     move.l     -[A7], A0
000021F8  7005                     moveq.l    D0, 0x05
000021FA  2F00                     move.l     -[A7], D0
000021FC  486C 0178                pea.l      [A4 + 0x178]
00002200  4EAD 16D2                jsr        [A5 + 0x16D2 /* export_726, CODE:32 @ 00003FEA */]
00002204  508F                     addq.l     A7, 8
00002206  205F                     movea.l    A0, [A7]+
00002208  2240                     movea.l    A1, D0
0000220A  2269 0088                movea.l    A1, [A1 + 0x88]
0000220E  D0E9 00A8                add.w      A0, [A1 + 0xA8]
00002212  2F08                     move.l     -[A7], A0
00002214  7005                     moveq.l    D0, 0x05
00002216  2F00                     move.l     -[A7], D0
00002218  486C 0178                pea.l      [A4 + 0x178]
0000221C  4EAD 16D2                jsr        [A5 + 0x16D2 /* export_726, CODE:32 @ 00003FEA */]
00002220  2040                     movea.l    A0, D0
00002222  2068 0088                movea.l    A0, [A0 + 0x88]
00002226  508F                     addq.l     A7, 8
00002228  2268 00AC                movea.l    A1, [A0 + 0xAC]
0000222C  4E91                     jsr        [A1]
0000222E  7005                     moveq.l    D0, 0x05
00002230  2F00                     move.l     -[A7], D0
00002232  486C 0178                pea.l      [A4 + 0x178]
00002236  4EAD 16D2                jsr        [A5 + 0x16D2 /* export_726, CODE:32 @ 00003FEA */]
0000223A  2640                     movea.l    A3, D0
0000223C  204B                     movea.l    A0, A3
0000223E  226B 0060                movea.l    A1, [A3 + 0x60]
00002242  D0E9 00E8                add.w      A0, [A1 + 0xE8]
00002246  2F08                     move.l     -[A7], A0
00002248  2049                     movea.l    A0, A1
0000224A  2268 00EC                movea.l    A1, [A0 + 0xEC]
0000224E  4E91                     jsr        [A1]
00002250  4FEF 0010                lea.l      A7, [A7 + 0x10]
00002254  6000 00F4                bra        +0xF6 /* 0000234A */
label00002258:
00002258  2F08                     move.l     -[A7], A0
0000225A  7006                     moveq.l    D0, 0x06
0000225C  2F00                     move.l     -[A7], D0
0000225E  486C 0178                pea.l      [A4 + 0x178]
00002262  4EAD 16D2                jsr        [A5 + 0x16D2 /* export_726, CODE:32 @ 00003FEA */]
00002266  508F                     addq.l     A7, 8
00002268  205F                     movea.l    A0, [A7]+
0000226A  2240                     movea.l    A1, D0
0000226C  43E9 0080                lea.l      A1, [A1 + 0x80]
00002270  2049                     movea.l    A0, A1
00002272  2F08                     move.l     -[A7], A0
00002274  7006                     moveq.l    D0, 0x06
00002276  2F00                     move.l     -[A7], D0
00002278  486C 0178                pea.l      [A4 + 0x178]
0000227C  4EAD 16D2                jsr        [A5 + 0x16D2 /* export_726, CODE:32 @ 00003FEA */]
00002280  508F                     addq.l     A7, 8
00002282  205F                     movea.l    A0, [A7]+
00002284  2240                     movea.l    A1, D0
00002286  2269 0088                movea.l    A1, [A1 + 0x88]
0000228A  D0E9 00A8                add.w      A0, [A1 + 0xA8]
0000228E  2F08                     move.l     -[A7], A0
00002290  7006                     moveq.l    D0, 0x06
00002292  2F00                     move.l     -[A7], D0
00002294  486C 0178                pea.l      [A4 + 0x178]
00002298  4EAD 16D2                jsr        [A5 + 0x16D2 /* export_726, CODE:32 @ 00003FEA */]
0000229C  2040                     movea.l    A0, D0
0000229E  2068 0088                movea.l    A0, [A0 + 0x88]
000022A2  508F                     addq.l     A7, 8
000022A4  2268 00AC                movea.l    A1, [A0 + 0xAC]
000022A8  4E91                     jsr        [A1]
000022AA  7006                     moveq.l    D0, 0x06
000022AC  2F00                     move.l     -[A7], D0
000022AE  486C 0178                pea.l      [A4 + 0x178]
000022B2  4EAD 16D2                jsr        [A5 + 0x16D2 /* export_726, CODE:32 @ 00003FEA */]
000022B6  2640                     movea.l    A3, D0
000022B8  204B                     movea.l    A0, A3
000022BA  226B 0060                movea.l    A1, [A3 + 0x60]
000022BE  D0E9 00E8                add.w      A0, [A1 + 0xE8]
000022C2  2F08                     move.l     -[A7], A0
000022C4  2049                     movea.l    A0, A1
000022C6  2268 00EC                movea.l    A1, [A0 + 0xEC]
000022CA  4E91                     jsr        [A1]
000022CC  4FEF 0010                lea.l      A7, [A7 + 0x10]
000022D0  6078                     bra        +0x7A /* 0000234A */
label000022D2:
000022D2  2F08                     move.l     -[A7], A0
000022D4  7008                     moveq.l    D0, 0x08
000022D6  2F00                     move.l     -[A7], D0
000022D8  486C 0178                pea.l      [A4 + 0x178]
000022DC  4EAD 16D2                jsr        [A5 + 0x16D2 /* export_726, CODE:32 @ 00003FEA */]
000022E0  508F                     addq.l     A7, 8
000022E2  205F                     movea.l    A0, [A7]+
000022E4  2240                     movea.l    A1, D0
000022E6  43E9 0080                lea.l      A1, [A1 + 0x80]
000022EA  2049                     movea.l    A0, A1
000022EC  2F08                     move.l     -[A7], A0
000022EE  7008                     moveq.l    D0, 0x08
000022F0  2F00                     move.l     -[A7], D0
000022F2  486C 0178                pea.l      [A4 + 0x178]
000022F6  4EAD 16D2                jsr        [A5 + 0x16D2 /* export_726, CODE:32 @ 00003FEA */]
000022FA  508F                     addq.l     A7, 8
000022FC  205F                     movea.l    A0, [A7]+
000022FE  2240                     movea.l    A1, D0
00002300  2269 0088                movea.l    A1, [A1 + 0x88]
00002304  D0E9 00A8                add.w      A0, [A1 + 0xA8]
00002308  2F08                     move.l     -[A7], A0
0000230A  7008                     moveq.l    D0, 0x08
0000230C  2F00                     move.l     -[A7], D0
0000230E  486C 0178                pea.l      [A4 + 0x178]
00002312  4EAD 16D2                jsr        [A5 + 0x16D2 /* export_726, CODE:32 @ 00003FEA */]
00002316  2040                     movea.l    A0, D0
00002318  2068 0088                movea.l    A0, [A0 + 0x88]
0000231C  508F                     addq.l     A7, 8
0000231E  2268 00AC                movea.l    A1, [A0 + 0xAC]
00002322  4E91                     jsr        [A1]
00002324  7008                     moveq.l    D0, 0x08
00002326  2F00                     move.l     -[A7], D0
00002328  486C 0178                pea.l      [A4 + 0x178]
0000232C  4EAD 16D2                jsr        [A5 + 0x16D2 /* export_726, CODE:32 @ 00003FEA */]
00002330  2640                     movea.l    A3, D0
00002332  204B                     movea.l    A0, A3
00002334  226B 0060                movea.l    A1, [A3 + 0x60]
00002338  D0E9 00E8                add.w      A0, [A1 + 0xE8]
0000233C  2F08                     move.l     -[A7], A0
0000233E  2049                     movea.l    A0, A1
00002340  2268 00EC                movea.l    A1, [A0 + 0xEC]
00002344  4E91                     jsr        [A1]
00002346  4FEF 0010                lea.l      A7, [A7 + 0x10]
label0000234A:
0000234A  4CEE 1800 FFF8           movem.l    A3,A4, [A6 - 0x8]
00002350  4E5E                     unlink     A6
00002352  4E75                     rts
00002354  8024 5769 6E64 6F77 4... dc.b       "WindowOpened__17cControlBarWindowFUl"
export_336:
0000237C  4E56 0000                link       A6, 0
00002380  48E7 0018                movem.l    -[A7], A3,A4
00002384  286E 0008                movea.l    A4, [A6 + 0x8]
00002388  202E 000C                move.l     D0, [A6 + 0xC]
0000238C  0480 4261 6C53           subi.l     D0, 0x42616C53 /* 'BalS' */
00002392  6700 033C                beq        +0x33E /* 000026D0 */
00002396  0480 0000 0218           subi.l     D0, 0x218
0000239C  6700 03AE                beq        +0x3B0 /* 0000274C */
000023A0  0480 0014 0AB5           subi.l     D0, 0x140AB5
000023A6  6700 0138                beq        +0x13A /* 000024E0 */
000023AA  0480 02EE F054           subi.l     D0, 0x2EEF054
000023B0  6736                     beq        +0x38 /* 000023E8 */
000023B2  0480 0011 F7F8           subi.l     D0, 0x11F7F8
000023B8  6700 021E                beq        +0x220 /* 000025D8 */
000023BC  0480 07EB 0EB4           subi.l     D0, 0x7EB0EB4
000023C2  6700 00A0                beq        +0xA2 /* 00002464 */
000023C6  0480 0010 FB54           subi.l     D0, 0x10FB54
000023CC  6700 03F8                beq        +0x3FA /* 000027C6 */
000023D0  0480 05F3 00F8           subi.l     D0, 0x5F300F8
000023D6  6700 0184                beq        +0x186 /* 0000255C */
000023DA  0480 040E FC06           subi.l     D0, 0x40EFC06
000023E0  6700 0272                beq        +0x274 /* 00002654 */
000023E4  6000 0458                bra        +0x45A /* 0000283E */
label000023E8:
000023E8  2F08                     move.l     -[A7], A0
000023EA  7007                     moveq.l    D0, 0x07
000023EC  2F00                     move.l     -[A7], D0
000023EE  486C 0178                pea.l      [A4 + 0x178]
000023F2  4EAD 16D2                jsr        [A5 + 0x16D2 /* export_726, CODE:32 @ 00003FEA */]
000023F6  508F                     addq.l     A7, 8
000023F8  205F                     movea.l    A0, [A7]+
000023FA  2240                     movea.l    A1, D0
000023FC  43E9 0080                lea.l      A1, [A1 + 0x80]
00002400  2049                     movea.l    A0, A1
00002402  2F08                     move.l     -[A7], A0
00002404  7007                     moveq.l    D0, 0x07
00002406  2F00                     move.l     -[A7], D0
00002408  486C 0178                pea.l      [A4 + 0x178]
0000240C  4EAD 16D2                jsr        [A5 + 0x16D2 /* export_726, CODE:32 @ 00003FEA */]
00002410  508F                     addq.l     A7, 8
00002412  205F                     movea.l    A0, [A7]+
00002414  2240                     movea.l    A1, D0
00002416  2269 0088                movea.l    A1, [A1 + 0x88]
0000241A  D0E9 00B0                add.w      A0, [A1 + 0xB0]
0000241E  2F08                     move.l     -[A7], A0
00002420  7007                     moveq.l    D0, 0x07
00002422  2F00                     move.l     -[A7], D0
00002424  486C 0178                pea.l      [A4 + 0x178]
00002428  4EAD 16D2                jsr        [A5 + 0x16D2 /* export_726, CODE:32 @ 00003FEA */]
0000242C  2040                     movea.l    A0, D0
0000242E  2068 0088                movea.l    A0, [A0 + 0x88]
00002432  508F                     addq.l     A7, 8
00002434  2268 00B4                movea.l    A1, [A0 + 0xB4]
00002438  4E91                     jsr        [A1]
0000243A  7007                     moveq.l    D0, 0x07
0000243C  2F00                     move.l     -[A7], D0
0000243E  486C 0178                pea.l      [A4 + 0x178]
00002442  4EAD 16D2                jsr        [A5 + 0x16D2 /* export_726, CODE:32 @ 00003FEA */]
00002446  2640                     movea.l    A3, D0
00002448  204B                     movea.l    A0, A3
0000244A  226B 0060                movea.l    A1, [A3 + 0x60]
0000244E  D0E9 00E8                add.w      A0, [A1 + 0xE8]
00002452  2F08                     move.l     -[A7], A0
00002454  2049                     movea.l    A0, A1
00002456  2268 00EC                movea.l    A1, [A0 + 0xEC]
0000245A  4E91                     jsr        [A1]
0000245C  4FEF 0010                lea.l      A7, [A7 + 0x10]
00002460  6000 03DC                bra        +0x3DE /* 0000283E */
label00002464:
00002464  2F08                     move.l     -[A7], A0
00002466  7003                     moveq.l    D0, 0x03
00002468  2F00                     move.l     -[A7], D0
0000246A  486C 0178                pea.l      [A4 + 0x178]
0000246E  4EAD 16D2                jsr        [A5 + 0x16D2 /* export_726, CODE:32 @ 00003FEA */]
00002472  508F                     addq.l     A7, 8
00002474  205F                     movea.l    A0, [A7]+
00002476  2240                     movea.l    A1, D0
00002478  43E9 0080                lea.l      A1, [A1 + 0x80]
0000247C  2049                     movea.l    A0, A1
0000247E  2F08                     move.l     -[A7], A0
00002480  7003                     moveq.l    D0, 0x03
00002482  2F00                     move.l     -[A7], D0
00002484  486C 0178                pea.l      [A4 + 0x178]
00002488  4EAD 16D2                jsr        [A5 + 0x16D2 /* export_726, CODE:32 @ 00003FEA */]
0000248C  508F                     addq.l     A7, 8
0000248E  205F                     movea.l    A0, [A7]+
00002490  2240                     movea.l    A1, D0
00002492  2269 0088                movea.l    A1, [A1 + 0x88]
00002496  D0E9 00B0                add.w      A0, [A1 + 0xB0]
0000249A  2F08                     move.l     -[A7], A0
0000249C  7003                     moveq.l    D0, 0x03
0000249E  2F00                     move.l     -[A7], D0
000024A0  486C 0178                pea.l      [A4 + 0x178]
000024A4  4EAD 16D2                jsr        [A5 + 0x16D2 /* export_726, CODE:32 @ 00003FEA */]
000024A8  2040                     movea.l    A0, D0
000024AA  2068 0088                movea.l    A0, [A0 + 0x88]
000024AE  508F                     addq.l     A7, 8
000024B0  2268 00B4                movea.l    A1, [A0 + 0xB4]
000024B4  4E91                     jsr        [A1]
000024B6  7003                     moveq.l    D0, 0x03
000024B8  2F00                     move.l     -[A7], D0
000024BA  486C 0178                pea.l      [A4 + 0x178]
000024BE  4EAD 16D2                jsr        [A5 + 0x16D2 /* export_726, CODE:32 @ 00003FEA */]
000024C2  2640                     movea.l    A3, D0
000024C4  204B                     movea.l    A0, A3
000024C6  226B 0060                movea.l    A1, [A3 + 0x60]
000024CA  D0E9 00E8                add.w      A0, [A1 + 0xE8]
000024CE  2F08                     move.l     -[A7], A0
000024D0  2049                     movea.l    A0, A1
000024D2  2268 00EC                movea.l    A1, [A0 + 0xEC]
000024D6  4E91                     jsr        [A1]
000024D8  4FEF 0010                lea.l      A7, [A7 + 0x10]
000024DC  6000 0360                bra        +0x362 /* 0000283E */
label000024E0:
000024E0  2F08                     move.l     -[A7], A0
000024E2  7000                     moveq.l    D0, 0x00
000024E4  2F00                     move.l     -[A7], D0
000024E6  486C 0178                pea.l      [A4 + 0x178]
000024EA  4EAD 16D2                jsr        [A5 + 0x16D2 /* export_726, CODE:32 @ 00003FEA */]
000024EE  508F                     addq.l     A7, 8
000024F0  205F                     movea.l    A0, [A7]+
000024F2  2240                     movea.l    A1, D0
000024F4  43E9 0080                lea.l      A1, [A1 + 0x80]
000024F8  2049                     movea.l    A0, A1
000024FA  2F08                     move.l     -[A7], A0
000024FC  7000                     moveq.l    D0, 0x00
000024FE  2F00                     move.l     -[A7], D0
00002500  486C 0178                pea.l      [A4 + 0x178]
00002504  4EAD 16D2                jsr        [A5 + 0x16D2 /* export_726, CODE:32 @ 00003FEA */]
00002508  508F                     addq.l     A7, 8
0000250A  205F                     movea.l    A0, [A7]+
0000250C  2240                     movea.l    A1, D0
0000250E  2269 0088                movea.l    A1, [A1 + 0x88]
00002512  D0E9 00B0                add.w      A0, [A1 + 0xB0]
00002516  2F08                     move.l     -[A7], A0
00002518  7000                     moveq.l    D0, 0x00
0000251A  2F00                     move.l     -[A7], D0
0000251C  486C 0178                pea.l      [A4 + 0x178]
00002520  4EAD 16D2                jsr        [A5 + 0x16D2 /* export_726, CODE:32 @ 00003FEA */]
00002524  2040                     movea.l    A0, D0
00002526  2068 0088                movea.l    A0, [A0 + 0x88]
0000252A  508F                     addq.l     A7, 8
0000252C  2268 00B4                movea.l    A1, [A0 + 0xB4]
00002530  4E91                     jsr        [A1]
00002532  7000                     moveq.l    D0, 0x00
00002534  2F00                     move.l     -[A7], D0
00002536  486C 0178                pea.l      [A4 + 0x178]
0000253A  4EAD 16D2                jsr        [A5 + 0x16D2 /* export_726, CODE:32 @ 00003FEA */]
0000253E  2640                     movea.l    A3, D0
00002540  204B                     movea.l    A0, A3
00002542  226B 0060                movea.l    A1, [A3 + 0x60]
00002546  D0E9 00E8                add.w      A0, [A1 + 0xE8]
0000254A  2F08                     move.l     -[A7], A0
0000254C  2049                     movea.l    A0, A1
0000254E  2268 00EC                movea.l    A1, [A0 + 0xEC]
00002552  4E91                     jsr        [A1]
00002554  4FEF 0010                lea.l      A7, [A7 + 0x10]
00002558  6000 02E4                bra        +0x2E6 /* 0000283E */
label0000255C:
0000255C  2F08                     move.l     -[A7], A0
0000255E  7001                     moveq.l    D0, 0x01
00002560  2F00                     move.l     -[A7], D0
00002562  486C 0178                pea.l      [A4 + 0x178]
00002566  4EAD 16D2                jsr        [A5 + 0x16D2 /* export_726, CODE:32 @ 00003FEA */]
0000256A  508F                     addq.l     A7, 8
0000256C  205F                     movea.l    A0, [A7]+
0000256E  2240                     movea.l    A1, D0
00002570  43E9 0080                lea.l      A1, [A1 + 0x80]
00002574  2049                     movea.l    A0, A1
00002576  2F08                     move.l     -[A7], A0
00002578  7001                     moveq.l    D0, 0x01
0000257A  2F00                     move.l     -[A7], D0
0000257C  486C 0178                pea.l      [A4 + 0x178]
00002580  4EAD 16D2                jsr        [A5 + 0x16D2 /* export_726, CODE:32 @ 00003FEA */]
00002584  508F                     addq.l     A7, 8
00002586  205F                     movea.l    A0, [A7]+
00002588  2240                     movea.l    A1, D0
0000258A  2269 0088                movea.l    A1, [A1 + 0x88]
0000258E  D0E9 00B0                add.w      A0, [A1 + 0xB0]
00002592  2F08                     move.l     -[A7], A0
00002594  7001                     moveq.l    D0, 0x01
00002596  2F00                     move.l     -[A7], D0
00002598  486C 0178                pea.l      [A4 + 0x178]
0000259C  4EAD 16D2                jsr        [A5 + 0x16D2 /* export_726, CODE:32 @ 00003FEA */]
000025A0  2040                     movea.l    A0, D0
000025A2  2068 0088                movea.l    A0, [A0 + 0x88]
000025A6  508F                     addq.l     A7, 8
000025A8  2268 00B4                movea.l    A1, [A0 + 0xB4]
000025AC  4E91                     jsr        [A1]
000025AE  7001                     moveq.l    D0, 0x01
000025B0  2F00                     move.l     -[A7], D0
000025B2  486C 0178                pea.l      [A4 + 0x178]
000025B6  4EAD 16D2                jsr        [A5 + 0x16D2 /* export_726, CODE:32 @ 00003FEA */]
000025BA  2640                     movea.l    A3, D0
000025BC  204B                     movea.l    A0, A3
000025BE  226B 0060                movea.l    A1, [A3 + 0x60]
000025C2  D0E9 00E8                add.w      A0, [A1 + 0xE8]
000025C6  2F08                     move.l     -[A7], A0
000025C8  2049                     movea.l    A0, A1
000025CA  2268 00EC                movea.l    A1, [A0 + 0xEC]
000025CE  4E91                     jsr        [A1]
000025D0  4FEF 0010                lea.l      A7, [A7 + 0x10]
000025D4  6000 0268                bra        +0x26A /* 0000283E */
label000025D8:
000025D8  2F08                     move.l     -[A7], A0
000025DA  7002                     moveq.l    D0, 0x02
000025DC  2F00                     move.l     -[A7], D0
000025DE  486C 0178                pea.l      [A4 + 0x178]
000025E2  4EAD 16D2                jsr        [A5 + 0x16D2 /* export_726, CODE:32 @ 00003FEA */]
000025E6  508F                     addq.l     A7, 8
000025E8  205F                     movea.l    A0, [A7]+
000025EA  2240                     movea.l    A1, D0
000025EC  43E9 0080                lea.l      A1, [A1 + 0x80]
000025F0  2049                     movea.l    A0, A1
000025F2  2F08                     move.l     -[A7], A0
000025F4  7002                     moveq.l    D0, 0x02
000025F6  2F00                     move.l     -[A7], D0
000025F8  486C 0178                pea.l      [A4 + 0x178]
000025FC  4EAD 16D2                jsr        [A5 + 0x16D2 /* export_726, CODE:32 @ 00003FEA */]
00002600  508F                     addq.l     A7, 8
00002602  205F                     movea.l    A0, [A7]+
00002604  2240                     movea.l    A1, D0
00002606  2269 0088                movea.l    A1, [A1 + 0x88]
0000260A  D0E9 00B0                add.w      A0, [A1 + 0xB0]
0000260E  2F08                     move.l     -[A7], A0
00002610  7002                     moveq.l    D0, 0x02
00002612  2F00                     move.l     -[A7], D0
00002614  486C 0178                pea.l      [A4 + 0x178]
00002618  4EAD 16D2                jsr        [A5 + 0x16D2 /* export_726, CODE:32 @ 00003FEA */]
0000261C  2040                     movea.l    A0, D0
0000261E  2068 0088                movea.l    A0, [A0 + 0x88]
00002622  508F                     addq.l     A7, 8
00002624  2268 00B4                movea.l    A1, [A0 + 0xB4]
00002628  4E91                     jsr        [A1]
0000262A  7002                     moveq.l    D0, 0x02
0000262C  2F00                     move.l     -[A7], D0
0000262E  486C 0178                pea.l      [A4 + 0x178]
00002632  4EAD 16D2                jsr        [A5 + 0x16D2 /* export_726, CODE:32 @ 00003FEA */]
00002636  2640                     movea.l    A3, D0
00002638  204B                     movea.l    A0, A3
0000263A  226B 0060                movea.l    A1, [A3 + 0x60]
0000263E  D0E9 00E8                add.w      A0, [A1 + 0xE8]
00002642  2F08                     move.l     -[A7], A0
00002644  2049                     movea.l    A0, A1
00002646  2268 00EC                movea.l    A1, [A0 + 0xEC]
0000264A  4E91                     jsr        [A1]
0000264C  4FEF 0010                lea.l      A7, [A7 + 0x10]
00002650  6000 01EC                bra        +0x1EE /* 0000283E */
label00002654:
00002654  2F08                     move.l     -[A7], A0
00002656  7004                     moveq.l    D0, 0x04
00002658  2F00                     move.l     -[A7], D0
0000265A  486C 0178                pea.l      [A4 + 0x178]
0000265E  4EAD 16D2                jsr        [A5 + 0x16D2 /* export_726, CODE:32 @ 00003FEA */]
00002662  508F                     addq.l     A7, 8
00002664  205F                     movea.l    A0, [A7]+
00002666  2240                     movea.l    A1, D0
00002668  43E9 0080                lea.l      A1, [A1 + 0x80]
0000266C  2049                     movea.l    A0, A1
0000266E  2F08                     move.l     -[A7], A0
00002670  7004                     moveq.l    D0, 0x04
00002672  2F00                     move.l     -[A7], D0
00002674  486C 0178                pea.l      [A4 + 0x178]
00002678  4EAD 16D2                jsr        [A5 + 0x16D2 /* export_726, CODE:32 @ 00003FEA */]
0000267C  508F                     addq.l     A7, 8
0000267E  205F                     movea.l    A0, [A7]+
00002680  2240                     movea.l    A1, D0
00002682  2269 0088                movea.l    A1, [A1 + 0x88]
00002686  D0E9 00B0                add.w      A0, [A1 + 0xB0]
0000268A  2F08                     move.l     -[A7], A0
0000268C  7004                     moveq.l    D0, 0x04
0000268E  2F00                     move.l     -[A7], D0
00002690  486C 0178                pea.l      [A4 + 0x178]
00002694  4EAD 16D2                jsr        [A5 + 0x16D2 /* export_726, CODE:32 @ 00003FEA */]
00002698  2040                     movea.l    A0, D0
0000269A  2068 0088                movea.l    A0, [A0 + 0x88]
0000269E  508F                     addq.l     A7, 8
000026A0  2268 00B4                movea.l    A1, [A0 + 0xB4]
000026A4  4E91                     jsr        [A1]
000026A6  7004                     moveq.l    D0, 0x04
000026A8  2F00                     move.l     -[A7], D0
000026AA  486C 0178                pea.l      [A4 + 0x178]
000026AE  4EAD 16D2                jsr        [A5 + 0x16D2 /* export_726, CODE:32 @ 00003FEA */]
000026B2  2640                     movea.l    A3, D0
000026B4  204B                     movea.l    A0, A3
000026B6  226B 0060                movea.l    A1, [A3 + 0x60]
000026BA  D0E9 00E8                add.w      A0, [A1 + 0xE8]
000026BE  2F08                     move.l     -[A7], A0
000026C0  2049                     movea.l    A0, A1
000026C2  2268 00EC                movea.l    A1, [A0 + 0xEC]
000026C6  4E91                     jsr        [A1]
000026C8  4FEF 0010                lea.l      A7, [A7 + 0x10]
000026CC  6000 0170                bra        +0x172 /* 0000283E */
label000026D0:
000026D0  2F08                     move.l     -[A7], A0
000026D2  7005                     moveq.l    D0, 0x05
000026D4  2F00                     move.l     -[A7], D0
000026D6  486C 0178                pea.l      [A4 + 0x178]
000026DA  4EAD 16D2                jsr        [A5 + 0x16D2 /* export_726, CODE:32 @ 00003FEA */]
000026DE  508F                     addq.l     A7, 8
000026E0  205F                     movea.l    A0, [A7]+
000026E2  2240                     movea.l    A1, D0
000026E4  43E9 0080                lea.l      A1, [A1 + 0x80]
000026E8  2049                     movea.l    A0, A1
000026EA  2F08                     move.l     -[A7], A0
000026EC  7005                     moveq.l    D0, 0x05
000026EE  2F00                     move.l     -[A7], D0
000026F0  486C 0178                pea.l      [A4 + 0x178]
000026F4  4EAD 16D2                jsr        [A5 + 0x16D2 /* export_726, CODE:32 @ 00003FEA */]
000026F8  508F                     addq.l     A7, 8
000026FA  205F                     movea.l    A0, [A7]+
000026FC  2240                     movea.l    A1, D0
000026FE  2269 0088                movea.l    A1, [A1 + 0x88]
00002702  D0E9 00B0                add.w      A0, [A1 + 0xB0]
00002706  2F08                     move.l     -[A7], A0
00002708  7005                     moveq.l    D0, 0x05
0000270A  2F00                     move.l     -[A7], D0
0000270C  486C 0178                pea.l      [A4 + 0x178]
00002710  4EAD 16D2                jsr        [A5 + 0x16D2 /* export_726, CODE:32 @ 00003FEA */]
00002714  2040                     movea.l    A0, D0
00002716  2068 0088                movea.l    A0, [A0 + 0x88]
0000271A  508F                     addq.l     A7, 8
0000271C  2268 00B4                movea.l    A1, [A0 + 0xB4]
00002720  4E91                     jsr        [A1]
00002722  7005                     moveq.l    D0, 0x05
00002724  2F00                     move.l     -[A7], D0
00002726  486C 0178                pea.l      [A4 + 0x178]
0000272A  4EAD 16D2                jsr        [A5 + 0x16D2 /* export_726, CODE:32 @ 00003FEA */]
0000272E  2640                     movea.l    A3, D0
00002730  204B                     movea.l    A0, A3
00002732  226B 0060                movea.l    A1, [A3 + 0x60]
00002736  D0E9 00E8                add.w      A0, [A1 + 0xE8]
0000273A  2F08                     move.l     -[A7], A0
0000273C  2049                     movea.l    A0, A1
0000273E  2268 00EC                movea.l    A1, [A0 + 0xEC]
00002742  4E91                     jsr        [A1]
00002744  4FEF 0010                lea.l      A7, [A7 + 0x10]
00002748  6000 00F4                bra        +0xF6 /* 0000283E */
label0000274C:
0000274C  2F08                     move.l     -[A7], A0
0000274E  7006                     moveq.l    D0, 0x06
00002750  2F00                     move.l     -[A7], D0
00002752  486C 0178                pea.l      [A4 + 0x178]
00002756  4EAD 16D2                jsr        [A5 + 0x16D2 /* export_726, CODE:32 @ 00003FEA */]
0000275A  508F                     addq.l     A7, 8
0000275C  205F                     movea.l    A0, [A7]+
0000275E  2240                     movea.l    A1, D0
00002760  43E9 0080                lea.l      A1, [A1 + 0x80]
00002764  2049                     movea.l    A0, A1
00002766  2F08                     move.l     -[A7], A0
00002768  7006                     moveq.l    D0, 0x06
0000276A  2F00                     move.l     -[A7], D0
0000276C  486C 0178                pea.l      [A4 + 0x178]
00002770  4EAD 16D2                jsr        [A5 + 0x16D2 /* export_726, CODE:32 @ 00003FEA */]
00002774  508F                     addq.l     A7, 8
00002776  205F                     movea.l    A0, [A7]+
00002778  2240                     movea.l    A1, D0
0000277A  2269 0088                movea.l    A1, [A1 + 0x88]
0000277E  D0E9 00B0                add.w      A0, [A1 + 0xB0]
00002782  2F08                     move.l     -[A7], A0
00002784  7006                     moveq.l    D0, 0x06
00002786  2F00                     move.l     -[A7], D0
00002788  486C 0178                pea.l      [A4 + 0x178]
0000278C  4EAD 16D2                jsr        [A5 + 0x16D2 /* export_726, CODE:32 @ 00003FEA */]
00002790  2040                     movea.l    A0, D0
00002792  2068 0088                movea.l    A0, [A0 + 0x88]
00002796  508F                     addq.l     A7, 8
00002798  2268 00B4                movea.l    A1, [A0 + 0xB4]
0000279C  4E91                     jsr        [A1]
0000279E  7006                     moveq.l    D0, 0x06
000027A0  2F00                     move.l     -[A7], D0
000027A2  486C 0178                pea.l      [A4 + 0x178]
000027A6  4EAD 16D2                jsr        [A5 + 0x16D2 /* export_726, CODE:32 @ 00003FEA */]
000027AA  2640                     movea.l    A3, D0
000027AC  204B                     movea.l    A0, A3
000027AE  226B 0060                movea.l    A1, [A3 + 0x60]
000027B2  D0E9 00E8                add.w      A0, [A1 + 0xE8]
000027B6  2F08                     move.l     -[A7], A0
000027B8  2049                     movea.l    A0, A1
000027BA  2268 00EC                movea.l    A1, [A0 + 0xEC]
000027BE  4E91                     jsr        [A1]
000027C0  4FEF 0010                lea.l      A7, [A7 + 0x10]
000027C4  6078                     bra        +0x7A /* 0000283E */
label000027C6:
000027C6  2F08                     move.l     -[A7], A0
000027C8  7008                     moveq.l    D0, 0x08
000027CA  2F00                     move.l     -[A7], D0
000027CC  486C 0178                pea.l      [A4 + 0x178]
000027D0  4EAD 16D2                jsr        [A5 + 0x16D2 /* export_726, CODE:32 @ 00003FEA */]
000027D4  508F                     addq.l     A7, 8
000027D6  205F                     movea.l    A0, [A7]+
000027D8  2240                     movea.l    A1, D0
000027DA  43E9 0080                lea.l      A1, [A1 + 0x80]
000027DE  2049                     movea.l    A0, A1
000027E0  2F08                     move.l     -[A7], A0
000027E2  7008                     moveq.l    D0, 0x08
000027E4  2F00                     move.l     -[A7], D0
000027E6  486C 0178                pea.l      [A4 + 0x178]
000027EA  4EAD 16D2                jsr        [A5 + 0x16D2 /* export_726, CODE:32 @ 00003FEA */]
000027EE  508F                     addq.l     A7, 8
000027F0  205F                     movea.l    A0, [A7]+
000027F2  2240                     movea.l    A1, D0
000027F4  2269 0088                movea.l    A1, [A1 + 0x88]
000027F8  D0E9 00B0                add.w      A0, [A1 + 0xB0]
000027FC  2F08                     move.l     -[A7], A0
000027FE  7008                     moveq.l    D0, 0x08
00002800  2F00                     move.l     -[A7], D0
00002802  486C 0178                pea.l      [A4 + 0x178]
00002806  4EAD 16D2                jsr        [A5 + 0x16D2 /* export_726, CODE:32 @ 00003FEA */]
0000280A  2040                     movea.l    A0, D0
0000280C  2068 0088                movea.l    A0, [A0 + 0x88]
00002810  508F                     addq.l     A7, 8
00002812  2268 00B4                movea.l    A1, [A0 + 0xB4]
00002816  4E91                     jsr        [A1]
00002818  7008                     moveq.l    D0, 0x08
0000281A  2F00                     move.l     -[A7], D0
0000281C  486C 0178                pea.l      [A4 + 0x178]
00002820  4EAD 16D2                jsr        [A5 + 0x16D2 /* export_726, CODE:32 @ 00003FEA */]
00002824  2640                     movea.l    A3, D0
00002826  204B                     movea.l    A0, A3
00002828  226B 0060                movea.l    A1, [A3 + 0x60]
0000282C  D0E9 00E8                add.w      A0, [A1 + 0xE8]
00002830  2F08                     move.l     -[A7], A0
00002832  2049                     movea.l    A0, A1
00002834  2268 00EC                movea.l    A1, [A0 + 0xEC]
00002838  4E91                     jsr        [A1]
0000283A  4FEF 0010                lea.l      A7, [A7 + 0x10]
label0000283E:
0000283E  4CEE 1800 FFF8           movem.l    A3,A4, [A6 - 0x8]
00002844  4E5E                     unlink     A6
00002846  4E75                     rts
00002848  8024 5769 6E64 6F77 4... dc.b       "WindowClosed__17cControlBarWindowFUl"
export_337:
00002870  4E56 0000                link       A6, 0
00002874  48E7 1018                movem.l    -[A7], D3,A3,A4
00002878  266E 000C                movea.l    A3, [A6 + 0xC]
0000287C  286E 0008                movea.l    A4, [A6 + 0x8]
00002880  200C                     move.l     D0, A4
00002882  6612                     bne        +0x14 /* 00002896 */
00002884  4878 018C                push.l     0x18C
00002888  4EAD 010A                jsr        [A5 + 0x10A /* export_29, CODE:1 @ 00001C0A */]
0000288C  2840                     movea.l    A4, D0
0000288E  200C                     move.l     D0, A4
00002890  584F                     addq.w     A7, 4
00002892  6700 01CA                beq        +0x1CC /* 00002A5E */
label00002896:
00002896  200B                     move.l     D0, A3
00002898  57C3                     seq        D3
0000289A  4403                     neg.b      D3
0000289C  674E                     beq        +0x50 /* 000028EC */
0000289E  264C                     movea.l    A3, A4
000028A0  47EB 0180                lea.l      A3, [A3 + 0x180]
000028A4  7601                     moveq.l    D3, 0x01
000028A6  200C                     move.l     D0, A4
000028A8  D0BC 0000 0180           add.l      D0, 0x180
000028AE  6614                     bne        +0x16 /* 000028C4 */
000028B0  2F03                     move.l     -[A7], D3
000028B2  700C                     moveq.l    D0, 0x0C
000028B4  2F00                     move.l     -[A7], D0
000028B6  4EAD 010A                jsr        [A5 + 0x10A /* export_29, CODE:1 @ 00001C0A */]
000028BA  588F                     addq.l     A7, 4
000028BC  261F                     move.l     D3, [A7]+
000028BE  4A80                     tst.l      D0
000028C0  6602                     bne        +0x4 /* 000028C4 */
000028C2  7600                     moveq.l    D3, 0x00
label000028C4:
000028C4  4A03                     tst.b      D3
000028C6  6718                     beq        +0x1A /* 000028E0 */
000028C8  204D                     movea.l    A0, A5
000028CA  D1FC FFFF 1A0E           add.l      A0, 0xFFFF1A0E
000028D0  2950 0188                move.l     [A4 + 0x188], [A0]
000028D4  7000                     moveq.l    D0, 0x00
000028D6  2940 0180                move.l     [A4 + 0x180], D0
000028DA  2940 0184                move.l     [A4 + 0x184], D0
000028DE  6002                     bra        +0x4 /* 000028E2 */
label000028E0:
000028E0  7000                     moveq.l    D0, 0x00
label000028E2:
000028E2  200C                     move.l     D0, A4
000028E4  D0BC 0000 0180           add.l      D0, 0x180
000028EA  6002                     bra        +0x4 /* 000028EE */
label000028EC:
000028EC  200B                     move.l     D0, A3
label000028EE:
000028EE  7000                     moveq.l    D0, 0x00
000028F0  2F00                     move.l     -[A7], D0
000028F2  2F3C 5365 6C52           move.l     -[A7], 0x53656C52 /* 'SelR' */
000028F8  2F2E 0010                move.l     -[A7], [A6 + 0x10]
000028FC  2F0B                     move.l     -[A7], A3
000028FE  2F0C                     move.l     -[A7], A4
00002900  4EAD 10AA                jsr        [A5 + 0x10AA /* export_529, CODE:26 @ 0000020E */]
00002904  204D                     movea.l    A0, A5
00002906  D1FC FFFF 1A12           add.l      A0, 0xFFFF1A12
0000290C  2950 0060                move.l     [A4 + 0x60], [A0]
00002910  206C 0064                movea.l    A0, [A4 + 0x64]
00002914  224D                     movea.l    A1, A5
00002916  D3FC FFFF 1A16           add.l      A1, 0xFFFF1A16
0000291C  2151 0008                move.l     [A0 + 0x8], [A1]
00002920  204D                     movea.l    A0, A5
00002922  D1FC FFFF 1A1A           add.l      A0, 0xFFFF1A1A
00002928  2950 0070                move.l     [A4 + 0x70], [A0]
0000292C  204D                     movea.l    A0, A5
0000292E  D1FC FFFF 1C88           add.l      A0, 0xFFFF1C88
00002934  4A90                     tst.l      [A0]
00002936  4FEF 0014                lea.l      A7, [A7 + 0x14]
0000293A  6630                     bne        +0x32 /* 0000296C */
0000293C  598F                     subq.l     A7, 4
0000293E  2F3C 6363 7462           move.l     -[A7], 0x63637462 /* 'cctb' */
00002944  3F3C 0081                move.w     -[A7], 0x81
00002948  A9A0                     syscall    GetResource
0000294A  265F                     movea.l    A3, [A7]+
0000294C  204D                     movea.l    A0, A5
0000294E  D1FC FFFF 1C88           add.l      A0, 0xFFFF1C88
00002954  208B                     move.l     [A0], A3
00002956  558F                     subq.l     A7, 2
00002958  204D                     movea.l    A0, A5
0000295A  D1FC FFFF 1C88           add.l      A0, 0xFFFF1C88
00002960  4850                     pea.l      [A0]
00002962  4EAD 00E2                jsr        [A5 + 0xE2 /* export_24, CODE:1 @ 000017D4 */]
00002966  2F0B                     move.l     -[A7], A3
00002968  A9A3                     syscall    ReleaseResource
0000296A  544F                     addq.w     A7, 2
label0000296C:
0000296C  204D                     movea.l    A0, A5
0000296E  D1FC FFFD AC08           add.l      A0, 0xFFFDAC08
00002974  10BC 0001                move.b     [A0], 0x1
00002978  204D                     movea.l    A0, A5
0000297A  D1FC FFFF 1C86           add.l      A0, 0xFFFF1C86
00002980  4210                     clr.b      [A0]
00002982  204D                     movea.l    A0, A5
00002984  D1FC FFFE D87C           add.l      A0, 0xFFFED87C
0000298A  4210                     clr.b      [A0]
0000298C  204D                     movea.l    A0, A5
0000298E  D1FC FFFE D87A           add.l      A0, 0xFFFED87A
00002994  4210                     clr.b      [A0]
00002996  204D                     movea.l    A0, A5
00002998  D1FC FFFE D878           add.l      A0, 0xFFFED878
0000299E  4210                     clr.b      [A0]
000029A0  204D                     movea.l    A0, A5
000029A2  D1FC FFFE D876           add.l      A0, 0xFFFED876
000029A8  4210                     clr.b      [A0]
000029AA  204D                     movea.l    A0, A5
000029AC  D1FC FFFD AC04           add.l      A0, 0xFFFDAC04
000029B2  4210                     clr.b      [A0]
000029B4  204D                     movea.l    A0, A5
000029B6  D1FC FFFD AC02           add.l      A0, 0xFFFDAC02
000029BC  4210                     clr.b      [A0]
000029BE  204D                     movea.l    A0, A5
000029C0  D1FC FFFD AC00           add.l      A0, 0xFFFDAC00
000029C6  4210                     clr.b      [A0]
000029C8  4EAD 083A                jsr        [A5 + 0x83A /* export_259, CODE:14 @ 0000453A */]
000029CC  4EAD 030A                jsr        [A5 + 0x30A /* export_93, CODE:5 @ 00000000 */]
000029D0  70FF                     moveq.l    D0, 0xFFFFFFFF
000029D2  2F00                     move.l     -[A7], D0
000029D4  4878 008C                push.l     0x8C
000029D8  204C                     movea.l    A0, A4
000029DA  226C 0060                movea.l    A1, [A4 + 0x60]
000029DE  D0E9 0068                add.w      A0, [A1 + 0x68]
000029E2  2F08                     move.l     -[A7], A0
000029E4  2049                     movea.l    A0, A1
000029E6  2268 006C                movea.l    A1, [A0 + 0x6C]
000029EA  4E91                     jsr        [A1]
000029EC  204D                     movea.l    A0, A5
000029EE  D1FC FFFD AC08           add.l      A0, 0xFFFDAC08
000029F4  1010                     move.b     D0, [A0]
000029F6  0800 0000                btst.b     D0, 0x0
000029FA  4FEF 000C                lea.l      A7, [A7 + 0xC]
000029FE  6728                     beq        +0x2A /* 00002A28 */
00002A00  700A                     moveq.l    D0, 0x0A
00002A02  2F00                     move.l     -[A7], D0
00002A04  2F0C                     move.l     -[A7], A4
00002A06  4EAD 11FA                jsr        [A5 + 0x11FA /* export_571, CODE:26 @ 00003354 */]
00002A0A  2640                     movea.l    A3, D0
00002A0C  7001                     moveq.l    D0, 0x01
00002A0E  2F00                     move.l     -[A7], D0
00002A10  204B                     movea.l    A0, A3
00002A12  226B 0060                movea.l    A1, [A3 + 0x60]
00002A16  D0E9 0120                add.w      A0, [A1 + 0x120]
00002A1A  2F08                     move.l     -[A7], A0
00002A1C  2049                     movea.l    A0, A1
00002A1E  2268 0124                movea.l    A1, [A0 + 0x124]
00002A22  4E91                     jsr        [A1]
00002A24  4FEF 0010                lea.l      A7, [A7 + 0x10]
label00002A28:
00002A28  7002                     moveq.l    D0, 0x02
00002A2A  204D                     movea.l    A0, A5
00002A2C  D1FC FFFD AC08           add.l      A0, 0xFFFDAC08
00002A32  C010                     and.b      D0, [A0]
00002A34  6728                     beq        +0x2A /* 00002A5E */
00002A36  700B                     moveq.l    D0, 0x0B
00002A38  2F00                     move.l     -[A7], D0
00002A3A  2F0C                     move.l     -[A7], A4
00002A3C  4EAD 11FA                jsr        [A5 + 0x11FA /* export_571, CODE:26 @ 00003354 */]
00002A40  2640                     movea.l    A3, D0
00002A42  7001                     moveq.l    D0, 0x01
00002A44  2F00                     move.l     -[A7], D0
00002A46  204B                     movea.l    A0, A3
00002A48  226B 0060                movea.l    A1, [A3 + 0x60]
00002A4C  D0E9 0120                add.w      A0, [A1 + 0x120]
00002A50  2F08                     move.l     -[A7], A0
00002A52  2049                     movea.l    A0, A1
00002A54  2268 0124                movea.l    A1, [A0 + 0x124]
00002A58  4E91                     jsr        [A1]
00002A5A  4FEF 0010                lea.l      A7, [A7 + 0x10]
label00002A5E:
00002A5E  200C                     move.l     D0, A4
00002A60  4CEE 1808 FFF4           movem.l    D3,A3,A4, [A6 - 0xC]
00002A66  4E5E                     unlink     A6
00002A68  4E75                     rts
00002A6A  8023 5F5F 6374 5F5F 3... dc.b       "__ct__18cDefineWorldWindowFP6cAgent"
export_338:
00002A92  4E56 0000                link       A6, 0
00002A96  48E7 0108                movem.l    -[A7], D7,A4
00002A9A  2E2E 000C                move.l     D7, [A6 + 0xC]
00002A9E  286E 0008                movea.l    A4, [A6 + 0x8]
00002AA2  200C                     move.l     D0, A4
00002AA4  6700 008C                beq        +0x8E /* 00002B32 */
00002AA8  204D                     movea.l    A0, A5
00002AAA  D1FC FFFF 1A1A           add.l      A0, 0xFFFF1A1A
00002AB0  2950 0070                move.l     [A4 + 0x70], [A0]
00002AB4  206C 0064                movea.l    A0, [A4 + 0x64]
00002AB8  224D                     movea.l    A1, A5
00002ABA  D3FC FFFF 1A16           add.l      A1, 0xFFFF1A16
00002AC0  2151 0008                move.l     [A0 + 0x8], [A1]
00002AC4  204D                     movea.l    A0, A5
00002AC6  D1FC FFFF 1A12           add.l      A0, 0xFFFF1A12
00002ACC  2950 0060                move.l     [A4 + 0x60], [A0]
00002AD0  204D                     movea.l    A0, A5
00002AD2  D1FC FFFF 1C88           add.l      A0, 0xFFFF1C88
00002AD8  4A90                     tst.l      [A0]
00002ADA  6718                     beq        +0x1A /* 00002AF4 */
00002ADC  204D                     movea.l    A0, A5
00002ADE  D1FC FFFF 1C88           add.l      A0, 0xFFFF1C88
00002AE4  2050                     movea.l    A0, [A0]
00002AE6  A023                     syscall    DisposHandle/DisposeHandle
00002AE8  204D                     movea.l    A0, A5
00002AEA  D1FC FFFF 1C88           add.l      A0, 0xFFFF1C88
00002AF0  7000                     moveq.l    D0, 0x00
00002AF2  2080                     move.l     [A0], D0
label00002AF4:
00002AF4  200C                     move.l     D0, A4
00002AF6  673A                     beq        +0x3C /* 00002B32 */
00002AF8  7000                     moveq.l    D0, 0x00
00002AFA  2F00                     move.l     -[A7], D0
00002AFC  2F0C                     move.l     -[A7], A4
00002AFE  4EAD 10B2                jsr        [A5 + 0x10B2 /* export_530, CODE:26 @ 000003EC */]
00002B02  7002                     moveq.l    D0, 0x02
00002B04  C087                     and.l      D0, D7
00002B06  6718                     beq        +0x1A /* 00002B20 */
00002B08  7000                     moveq.l    D0, 0x00
00002B0A  2F00                     move.l     -[A7], D0
00002B0C  220C                     move.l     D1, A4
00002B0E  D2BC 0000 0180           add.l      D1, 0x180
00002B14  2F01                     move.l     -[A7], D1
00002B16  4EAD 1632                jsr        [A5 + 0x1632 /* export_706, CODE:32 @ 000036CC */]
00002B1A  7000                     moveq.l    D0, 0x00
00002B1C  504F                     addq.w     A7, 8
00002B1E  6002                     bra        +0x4 /* 00002B22 */
label00002B20:
00002B20  7000                     moveq.l    D0, 0x00
label00002B22:
00002B22  0807 0000                btst.b     D7, 0x0
00002B26  504F                     addq.w     A7, 8
00002B28  6708                     beq        +0xA /* 00002B32 */
00002B2A  2F0C                     move.l     -[A7], A4
00002B2C  4EAD 0102                jsr        [A5 + 0x102 /* export_28, CODE:1 @ 00001BE0 */]
00002B30  584F                     addq.w     A7, 4
label00002B32:
00002B32  4CEE 1080 FFF8           movem.l    D7,A4, [A6 - 0x8]
00002B38  4E5E                     unlink     A6
00002B3A  4E75                     rts
00002B3C  9C5F 5F64 745F 5F31 3... dc.b       "__dt__18cDefineWorldWindowFv"
export_339:
00002B5C  4E56 FFD6                link       A6, -0x002A
00002B60  48E7 0138                movem.l    -[A7], D7,A2,A3,A4
00002B64  2E2E 000C                move.l     D7, [A6 + 0xC]
00002B68  286E 0008                movea.l    A4, [A6 + 0x8]
00002B6C  2007                     move.l     D0, D7
00002B6E  0480 B8BD ABCE           subi.l     D0, 0xB8BDABCE
00002B74  6716                     beq        +0x18 /* 00002B8C */
00002B76  0480 8E84 A862           subi.l     D0, 0x8E84A862
00002B7C  6754                     beq        +0x56 /* 00002BD2 */
00002B7E  5380                     subq.l     D0, 1
00002B80  670A                     beq        +0xC /* 00002B8C */
00002B82  5F80                     subq.l     D0, 7
00002B84  6700 0112                beq        +0x114 /* 00002C98 */
00002B88  6000 0612                bra        +0x614 /* 0000319C */
label00002B8C:
00002B8C  700A                     moveq.l    D0, 0x0A
00002B8E  2F00                     move.l     -[A7], D0
00002B90  2F0C                     move.l     -[A7], A4
00002B92  4EAD 11FA                jsr        [A5 + 0x11FA /* export_571, CODE:26 @ 00003354 */]
00002B96  B0AE 0010                cmp.l      D0, [A6 + 0x10]
00002B9A  504F                     addq.w     A7, 8
00002B9C  6610                     bne        +0x12 /* 00002BAE */
00002B9E  204D                     movea.l    A0, A5
00002BA0  D1FC FFFD AC08           add.l      A0, 0xFFFDAC08
00002BA6  0A10 0001                xori.b     [A0], 0x1
00002BAA  6000 0604                bra        +0x606 /* 000031B0 */
label00002BAE:
00002BAE  700B                     moveq.l    D0, 0x0B
00002BB0  2F00                     move.l     -[A7], D0
00002BB2  2F0C                     move.l     -[A7], A4
00002BB4  4EAD 11FA                jsr        [A5 + 0x11FA /* export_571, CODE:26 @ 00003354 */]
00002BB8  B0AE 0010                cmp.l      D0, [A6 + 0x10]
00002BBC  504F                     addq.w     A7, 8
00002BBE  6600 05F0                bne        +0x5F2 /* 000031B0 */
00002BC2  204D                     movea.l    A0, A5
00002BC4  D1FC FFFD AC08           add.l      A0, 0xFFFDAC08
00002BCA  0A10 0002                xori.b     [A0], 0x2
00002BCE  6000 05E0                bra        +0x5E2 /* 000031B0 */
label00002BD2:
00002BD2  700C                     moveq.l    D0, 0x0C
00002BD4  2F00                     move.l     -[A7], D0
00002BD6  2F0C                     move.l     -[A7], A4
00002BD8  4EAD 11FA                jsr        [A5 + 0x11FA /* export_571, CODE:26 @ 00003354 */]
00002BDC  B0AE 0010                cmp.l      D0, [A6 + 0x10]
00002BE0  504F                     addq.w     A7, 8
00002BE2  663C                     bne        +0x3E /* 00002C20 */
00002BE4  204D                     movea.l    A0, A5
00002BE6  D1FC FFFD AC04           add.l      A0, 0xFFFDAC04
00002BEC  1010                     move.b     D0, [A0]
00002BEE  49C0                     lea.l      A4, D0
00002BF0  E588                     lsl        D0, 2
00002BF2  204D                     movea.l    A0, A5
00002BF4  D1FC FFFE 8AEC           add.l      A0, 0xFFFE8AEC
00002BFA  1080                     move.b     [A0], D0
00002BFC  4EAD 083A                jsr        [A5 + 0x83A /* export_259, CODE:14 @ 0000453A */]
00002C00  4EAD 030A                jsr        [A5 + 0x30A /* export_93, CODE:5 @ 00000000 */]
00002C04  266C 017C                movea.l    A3, [A4 + 0x17C]
00002C08  422B 0132                clr.b      [A3 + 0x132]
00002C0C  2F0B                     move.l     -[A7], A3
00002C0E  4EAD 1F52                jsr        [A5 + 0x1F52 /* export_998, CODE:37 @ 000014C8 */]
00002C12  2F2C 017C                move.l     -[A7], [A4 + 0x17C]
00002C16  4EAD 1F52                jsr        [A5 + 0x1F52 /* export_998, CODE:37 @ 000014C8 */]
00002C1A  504F                     addq.w     A7, 8
00002C1C  6000 0592                bra        +0x594 /* 000031B0 */
label00002C20:
00002C20  700D                     moveq.l    D0, 0x0D
00002C22  2F00                     move.l     -[A7], D0
00002C24  2F0C                     move.l     -[A7], A4
00002C26  4EAD 11FA                jsr        [A5 + 0x11FA /* export_571, CODE:26 @ 00003354 */]
00002C2A  B0AE 0010                cmp.l      D0, [A6 + 0x10]
00002C2E  504F                     addq.w     A7, 8
00002C30  6600 057E                bne        +0x580 /* 000031B0 */
00002C34  204D                     movea.l    A0, A5
00002C36  D1FC FFFE D878           add.l      A0, 0xFFFED878
00002C3C  1010                     move.b     D0, [A0]
00002C3E  4880                     ext.w      D0
00002C40  48C0                     ext.l      D0
00002C42  81FC 0015                divs.w     D0, 0x15
00002C46  204D                     movea.l    A0, A5
00002C48  D1FC FFFE C134           add.l      A0, 0xFFFEC134
00002C4E  1080                     move.b     [A0], D0
00002C50  204D                     movea.l    A0, A5
00002C52  D1FC FFFD AC06           add.l      A0, 0xFFFDAC06
00002C58  1010                     move.b     D0, [A0]
00002C5A  4880                     ext.w      D0
00002C5C  48C0                     ext.l      D0
00002C5E  81FC 0015                divs.w     D0, 0x15
00002C62  204D                     movea.l    A0, A5
00002C64  D1FC FFFE C130           add.l      A0, 0xFFFEC130
00002C6A  1080                     move.b     [A0], D0
00002C6C  204D                     movea.l    A0, A5
00002C6E  D1FC FFFE D87A           add.l      A0, 0xFFFED87A
00002C74  1010                     move.b     D0, [A0]
00002C76  4880                     ext.w      D0
00002C78  48C0                     ext.l      D0
00002C7A  81FC 0015                divs.w     D0, 0x15
00002C7E  204D                     movea.l    A0, A5
00002C80  D1FC FFFE C132           add.l      A0, 0xFFFEC132
00002C86  1080                     move.b     [A0], D0
00002C88  204D                     movea.l    A0, A5
00002C8A  D1FC FFFF 1C86           add.l      A0, 0xFFFF1C86
00002C90  10BC 0001                move.b     [A0], 0x1
00002C94  6000 051A                bra        +0x51C /* 000031B0 */
label00002C98:
00002C98  226E 0010                movea.l    A1, [A6 + 0x10]
00002C9C  43E9 0080                lea.l      A1, [A1 + 0x80]
00002CA0  2049                     movea.l    A0, A1
00002CA2  226E 0010                movea.l    A1, [A6 + 0x10]
00002CA6  2269 0088                movea.l    A1, [A1 + 0x88]
00002CAA  D0E9 00B0                add.w      A0, [A1 + 0xB0]
00002CAE  2F08                     move.l     -[A7], A0
00002CB0  206E 0010                movea.l    A0, [A6 + 0x10]
00002CB4  2068 0088                movea.l    A0, [A0 + 0x88]
00002CB8  2268 00B4                movea.l    A1, [A0 + 0xB4]
00002CBC  4E91                     jsr        [A1]
00002CBE  266E 0010                movea.l    A3, [A6 + 0x10]
00002CC2  204B                     movea.l    A0, A3
00002CC4  226B 0060                movea.l    A1, [A3 + 0x60]
00002CC8  D0E9 00E8                add.w      A0, [A1 + 0xE8]
00002CCC  2F08                     move.l     -[A7], A0
00002CCE  2049                     movea.l    A0, A1
00002CD0  2268 00EC                movea.l    A1, [A0 + 0xEC]
00002CD4  4E91                     jsr        [A1]
00002CD6  7001                     moveq.l    D0, 0x01
00002CD8  2F00                     move.l     -[A7], D0
00002CDA  2F0C                     move.l     -[A7], A4
00002CDC  4EAD 11FA                jsr        [A5 + 0x11FA /* export_571, CODE:26 @ 00003354 */]
00002CE0  B0AE 0010                cmp.l      D0, [A6 + 0x10]
00002CE4  4FEF 0010                lea.l      A7, [A7 + 0x10]
00002CE8  6600 00B2                bne        +0xB4 /* 00002D9C */
00002CEC  204D                     movea.l    A0, A5
00002CEE  D1FC FFFD AC04           add.l      A0, 0xFFFDAC04
00002CF4  4A10                     tst.b      [A0]
00002CF6  6F0C                     ble        +0xE /* 00002D04 */
00002CF8  204D                     movea.l    A0, A5
00002CFA  D1FC FFFD AC04           add.l      A0, 0xFFFDAC04
00002D00  1010                     move.b     D0, [A0]
00002D02  5310                     subq.b     [A0], 1
label00002D04:
00002D04  204D                     movea.l    A0, A5
00002D06  D1FC FFFD AC06           add.l      A0, 0xFFFDAC06
00002D0C  0410 0014                subi.b     [A0], 0x14
00002D10  204D                     movea.l    A0, A5
00002D12  D1FC FFFD AC06           add.l      A0, 0xFFFDAC06
00002D18  4A10                     tst.b      [A0]
00002D1A  6C0A                     bge        +0xC /* 00002D26 */
00002D1C  204D                     movea.l    A0, A5
00002D1E  D1FC FFFD AC06           add.l      A0, 0xFFFDAC06
00002D24  4210                     clr.b      [A0]
label00002D26:
00002D26  204D                     movea.l    A0, A5
00002D28  D1FC FFFD AC04           add.l      A0, 0xFFFDAC04
00002D2E  1010                     move.b     D0, [A0]
00002D30  4880                     ext.w      D0
00002D32  3D40 FFEA                move.w     [A6 - 0x16], D0
00002D36  486E FFEA                pea.l      [A6 - 0x16]
00002D3A  486E FFEC                pea.l      [A6 - 0x14]
00002D3E  3F3C 200E                move.w     -[A7], 0x200E
00002D42  A9EB                     syscall    Pack4/FP68K
00002D44  486E FFEC                pea.l      [A6 - 0x14]
00002D48  41EE FFE0                lea.l      A0, [A6 - 0x20]
00002D4C  43FA 04AA                lea.l      A1, [PC + 0x4AA /* 000031F8, value 0x40048533 */]
00002D50  20D9                     move.l     [A0]+, [A1]+
00002D52  20D9                     move.l     [A0]+, [A1]+
00002D54  30D9                     move.w     [A0]+, [A1]+
00002D56  486E FFE0                pea.l      [A6 - 0x20]
00002D5A  3F3C 0004                move.w     -[A7], 0x4
00002D5E  A9EB                     syscall    Pack4/FP68K
00002D60  487A 048C                pea.l      [PC + 0x48C /* 000031EE, value 0x4005C800 */]
00002D64  486E FFE0                pea.l      [A6 - 0x20]
00002D68  3F3C 0006                move.w     -[A7], 0x6
00002D6C  A9EB                     syscall    Pack4/FP68K
00002D6E  41EE FFE0                lea.l      A0, [A6 - 0x20]
00002D72  43EE FFF6                lea.l      A1, [A6 - 0xA]
00002D76  22D8                     move.l     [A1]+, [A0]+
00002D78  22D8                     move.l     [A1]+, [A0]+
00002D7A  32D8                     move.w     [A1]+, [A0]+
00002D7C  206C 016C                movea.l    A0, [A4 + 0x16C]
00002D80  43EE FFF6                lea.l      A1, [A6 - 0xA]
00002D84  45E8 01CC                lea.l      A2, [A0 + 0x1CC]
00002D88  24D9                     move.l     [A2]+, [A1]+
00002D8A  24D9                     move.l     [A2]+, [A1]+
00002D8C  34D9                     move.w     [A2]+, [A1]+
00002D8E  206C 016C                movea.l    A0, [A4 + 0x16C]
00002D92  4868 0096                pea.l      [A0 + 0x96]
00002D96  A928                     syscall    InvalRect
00002D98  6000 0402                bra        +0x404 /* 0000319C */
label00002D9C:
00002D9C  7003                     moveq.l    D0, 0x03
00002D9E  2F00                     move.l     -[A7], D0
00002DA0  2F0C                     move.l     -[A7], A4
00002DA2  4EAD 11FA                jsr        [A5 + 0x11FA /* export_571, CODE:26 @ 00003354 */]
00002DA6  B0AE 0010                cmp.l      D0, [A6 + 0x10]
00002DAA  504F                     addq.w     A7, 8
00002DAC  6600 00C2                bne        +0xC4 /* 00002E70 */
00002DB0  204D                     movea.l    A0, A5
00002DB2  D1FC FFFD AC04           add.l      A0, 0xFFFDAC04
00002DB8  5210                     addq.b     [A0], 1
00002DBA  7003                     moveq.l    D0, 0x03
00002DBC  204D                     movea.l    A0, A5
00002DBE  D1FC FFFD AC04           add.l      A0, 0xFFFDAC04
00002DC4  B010                     cmp.b      D0, [A0]
00002DC6  6C0C                     bge        +0xE /* 00002DD4 */
00002DC8  204D                     movea.l    A0, A5
00002DCA  D1FC FFFD AC04           add.l      A0, 0xFFFDAC04
00002DD0  10BC 0003                move.b     [A0], 0x3
label00002DD4:
00002DD4  204D                     movea.l    A0, A5
00002DD6  D1FC FFFD AC06           add.l      A0, 0xFFFDAC06
00002DDC  0610 0010                addi.b     [A0], 0x10
00002DE0  7050                     moveq.l    D0, 0x50
00002DE2  204D                     movea.l    A0, A5
00002DE4  D1FC FFFD AC06           add.l      A0, 0xFFFDAC06
00002DEA  B010                     cmp.b      D0, [A0]
00002DEC  6C0C                     bge        +0xE /* 00002DFA */
00002DEE  204D                     movea.l    A0, A5
00002DF0  D1FC FFFD AC06           add.l      A0, 0xFFFDAC06
00002DF6  10BC 0050                move.b     [A0], 0x50 /* 'P' */
label00002DFA:
00002DFA  204D                     movea.l    A0, A5
00002DFC  D1FC FFFD AC04           add.l      A0, 0xFFFDAC04
00002E02  1010                     move.b     D0, [A0]
00002E04  4880                     ext.w      D0
00002E06  3D40 FFDE                move.w     [A6 - 0x22], D0
00002E0A  486E FFDE                pea.l      [A6 - 0x22]
00002E0E  486E FFEC                pea.l      [A6 - 0x14]
00002E12  3F3C 200E                move.w     -[A7], 0x200E
00002E16  A9EB                     syscall    Pack4/FP68K
00002E18  486E FFEC                pea.l      [A6 - 0x14]
00002E1C  41EE FFE0                lea.l      A0, [A6 - 0x20]
00002E20  43FA 03D6                lea.l      A1, [PC + 0x3D6 /* 000031F8, value 0x40048533 */]
00002E24  20D9                     move.l     [A0]+, [A1]+
00002E26  20D9                     move.l     [A0]+, [A1]+
00002E28  30D9                     move.w     [A0]+, [A1]+
00002E2A  486E FFE0                pea.l      [A6 - 0x20]
00002E2E  3F3C 0004                move.w     -[A7], 0x4
00002E32  A9EB                     syscall    Pack4/FP68K
00002E34  487A 03B8                pea.l      [PC + 0x3B8 /* 000031EE, value 0x4005C800 */]
00002E38  486E FFE0                pea.l      [A6 - 0x20]
00002E3C  3F3C 0006                move.w     -[A7], 0x6
00002E40  A9EB                     syscall    Pack4/FP68K
00002E42  41EE FFE0                lea.l      A0, [A6 - 0x20]
00002E46  43EE FFF6                lea.l      A1, [A6 - 0xA]
00002E4A  22D8                     move.l     [A1]+, [A0]+
00002E4C  22D8                     move.l     [A1]+, [A0]+
00002E4E  32D8                     move.w     [A1]+, [A0]+
00002E50  206C 016C                movea.l    A0, [A4 + 0x16C]
00002E54  43EE FFF6                lea.l      A1, [A6 - 0xA]
00002E58  45E8 01CC                lea.l      A2, [A0 + 0x1CC]
00002E5C  24D9                     move.l     [A2]+, [A1]+
00002E5E  24D9                     move.l     [A2]+, [A1]+
00002E60  34D9                     move.w     [A2]+, [A1]+
00002E62  206C 016C                movea.l    A0, [A4 + 0x16C]
00002E66  4868 0096                pea.l      [A0 + 0x96]
00002E6A  A928                     syscall    InvalRect
00002E6C  6000 032E                bra        +0x330 /* 0000319C */
label00002E70:
00002E70  7004                     moveq.l    D0, 0x04
00002E72  2F00                     move.l     -[A7], D0
00002E74  2F0C                     move.l     -[A7], A4
00002E76  4EAD 11FA                jsr        [A5 + 0x11FA /* export_571, CODE:26 @ 00003354 */]
00002E7A  B0AE 0010                cmp.l      D0, [A6 + 0x10]
00002E7E  504F                     addq.w     A7, 8
00002E80  6600 00B2                bne        +0xB4 /* 00002F34 */
00002E84  204D                     movea.l    A0, A5
00002E86  D1FC FFFD AC02           add.l      A0, 0xFFFDAC02
00002E8C  4A10                     tst.b      [A0]
00002E8E  6F0C                     ble        +0xE /* 00002E9C */
00002E90  204D                     movea.l    A0, A5
00002E92  D1FC FFFD AC02           add.l      A0, 0xFFFDAC02
00002E98  1010                     move.b     D0, [A0]
00002E9A  5310                     subq.b     [A0], 1
label00002E9C:
00002E9C  204D                     movea.l    A0, A5
00002E9E  D1FC FFFE D87A           add.l      A0, 0xFFFED87A
00002EA4  0410 0014                subi.b     [A0], 0x14
00002EA8  204D                     movea.l    A0, A5
00002EAA  D1FC FFFE D87A           add.l      A0, 0xFFFED87A
00002EB0  4A10                     tst.b      [A0]
00002EB2  6C0A                     bge        +0xC /* 00002EBE */
00002EB4  204D                     movea.l    A0, A5
00002EB6  D1FC FFFE D87A           add.l      A0, 0xFFFED87A
00002EBC  4210                     clr.b      [A0]
label00002EBE:
00002EBE  204D                     movea.l    A0, A5
00002EC0  D1FC FFFD AC02           add.l      A0, 0xFFFDAC02
00002EC6  1010                     move.b     D0, [A0]
00002EC8  4880                     ext.w      D0
00002ECA  3D40 FFDC                move.w     [A6 - 0x24], D0
00002ECE  486E FFDC                pea.l      [A6 - 0x24]
00002ED2  486E FFEC                pea.l      [A6 - 0x14]
00002ED6  3F3C 200E                move.w     -[A7], 0x200E
00002EDA  A9EB                     syscall    Pack4/FP68K
00002EDC  486E FFEC                pea.l      [A6 - 0x14]
00002EE0  41EE FFE0                lea.l      A0, [A6 - 0x20]
00002EE4  43FA 0312                lea.l      A1, [PC + 0x312 /* 000031F8, value 0x40048533 */]
00002EE8  20D9                     move.l     [A0]+, [A1]+
00002EEA  20D9                     move.l     [A0]+, [A1]+
00002EEC  30D9                     move.w     [A0]+, [A1]+
00002EEE  486E FFE0                pea.l      [A6 - 0x20]
00002EF2  3F3C 0004                move.w     -[A7], 0x4
00002EF6  A9EB                     syscall    Pack4/FP68K
00002EF8  487A 02F4                pea.l      [PC + 0x2F4 /* 000031EE, value 0x4005C800 */]
00002EFC  486E FFE0                pea.l      [A6 - 0x20]
00002F00  3F3C 0006                move.w     -[A7], 0x6
00002F04  A9EB                     syscall    Pack4/FP68K
00002F06  41EE FFE0                lea.l      A0, [A6 - 0x20]
00002F0A  43EE FFF6                lea.l      A1, [A6 - 0xA]
00002F0E  22D8                     move.l     [A1]+, [A0]+
00002F10  22D8                     move.l     [A1]+, [A0]+
00002F12  32D8                     move.w     [A1]+, [A0]+
00002F14  206C 0170                movea.l    A0, [A4 + 0x170]
00002F18  43EE FFF6                lea.l      A1, [A6 - 0xA]
00002F1C  45E8 01CC                lea.l      A2, [A0 + 0x1CC]
00002F20  24D9                     move.l     [A2]+, [A1]+
00002F22  24D9                     move.l     [A2]+, [A1]+
00002F24  34D9                     move.w     [A2]+, [A1]+
00002F26  206C 0170                movea.l    A0, [A4 + 0x170]
00002F2A  4868 0096                pea.l      [A0 + 0x96]
00002F2E  A928                     syscall    InvalRect
00002F30  6000 026A                bra        +0x26C /* 0000319C */
label00002F34:
00002F34  7006                     moveq.l    D0, 0x06
00002F36  2F00                     move.l     -[A7], D0
00002F38  2F0C                     move.l     -[A7], A4
00002F3A  4EAD 11FA                jsr        [A5 + 0x11FA /* export_571, CODE:26 @ 00003354 */]
00002F3E  B0AE 0010                cmp.l      D0, [A6 + 0x10]
00002F42  504F                     addq.w     A7, 8
00002F44  6600 00C2                bne        +0xC4 /* 00003008 */
00002F48  204D                     movea.l    A0, A5
00002F4A  D1FC FFFD AC02           add.l      A0, 0xFFFDAC02
00002F50  5210                     addq.b     [A0], 1
00002F52  7003                     moveq.l    D0, 0x03
00002F54  204D                     movea.l    A0, A5
00002F56  D1FC FFFD AC02           add.l      A0, 0xFFFDAC02
00002F5C  B010                     cmp.b      D0, [A0]
00002F5E  6C0C                     bge        +0xE /* 00002F6C */
00002F60  204D                     movea.l    A0, A5
00002F62  D1FC FFFD AC02           add.l      A0, 0xFFFDAC02
00002F68  10BC 0003                move.b     [A0], 0x3
label00002F6C:
00002F6C  204D                     movea.l    A0, A5
00002F6E  D1FC FFFE D87A           add.l      A0, 0xFFFED87A
00002F74  0610 0014                addi.b     [A0], 0x14
00002F78  7050                     moveq.l    D0, 0x50
00002F7A  204D                     movea.l    A0, A5
00002F7C  D1FC FFFE D87A           add.l      A0, 0xFFFED87A
00002F82  B010                     cmp.b      D0, [A0]
00002F84  6C0C                     bge        +0xE /* 00002F92 */
00002F86  204D                     movea.l    A0, A5
00002F88  D1FC FFFE D87A           add.l      A0, 0xFFFED87A
00002F8E  10BC 0050                move.b     [A0], 0x50 /* 'P' */
label00002F92:
00002F92  204D                     movea.l    A0, A5
00002F94  D1FC FFFD AC02           add.l      A0, 0xFFFDAC02
00002F9A  1010                     move.b     D0, [A0]
00002F9C  4880                     ext.w      D0
00002F9E  3D40 FFDA                move.w     [A6 - 0x26], D0
00002FA2  486E FFDA                pea.l      [A6 - 0x26]
00002FA6  486E FFEC                pea.l      [A6 - 0x14]
00002FAA  3F3C 200E                move.w     -[A7], 0x200E
00002FAE  A9EB                     syscall    Pack4/FP68K
00002FB0  486E FFEC                pea.l      [A6 - 0x14]
00002FB4  41EE FFE0                lea.l      A0, [A6 - 0x20]
00002FB8  43FA 023E                lea.l      A1, [PC + 0x23E /* 000031F8, value 0x40048533 */]
00002FBC  20D9                     move.l     [A0]+, [A1]+
00002FBE  20D9                     move.l     [A0]+, [A1]+
00002FC0  30D9                     move.w     [A0]+, [A1]+
00002FC2  486E FFE0                pea.l      [A6 - 0x20]
00002FC6  3F3C 0004                move.w     -[A7], 0x4
00002FCA  A9EB                     syscall    Pack4/FP68K
00002FCC  487A 0220                pea.l      [PC + 0x220 /* 000031EE, value 0x4005C800 */]
00002FD0  486E FFE0                pea.l      [A6 - 0x20]
00002FD4  3F3C 0006                move.w     -[A7], 0x6
00002FD8  A9EB                     syscall    Pack4/FP68K
00002FDA  41EE FFE0                lea.l      A0, [A6 - 0x20]
00002FDE  43EE FFF6                lea.l      A1, [A6 - 0xA]
00002FE2  22D8                     move.l     [A1]+, [A0]+
00002FE4  22D8                     move.l     [A1]+, [A0]+
00002FE6  32D8                     move.w     [A1]+, [A0]+
00002FE8  206C 0170                movea.l    A0, [A4 + 0x170]
00002FEC  43EE FFF6                lea.l      A1, [A6 - 0xA]
00002FF0  45E8 01CC                lea.l      A2, [A0 + 0x1CC]
00002FF4  24D9                     move.l     [A2]+, [A1]+
00002FF6  24D9                     move.l     [A2]+, [A1]+
00002FF8  34D9                     move.w     [A2]+, [A1]+
00002FFA  206C 0170                movea.l    A0, [A4 + 0x170]
00002FFE  4868 0096                pea.l      [A0 + 0x96]
00003002  A928                     syscall    InvalRect
00003004  6000 0196                bra        +0x198 /* 0000319C */
label00003008:
00003008  7007                     moveq.l    D0, 0x07
0000300A  2F00                     move.l     -[A7], D0
0000300C  2F0C                     move.l     -[A7], A4
0000300E  4EAD 11FA                jsr        [A5 + 0x11FA /* export_571, CODE:26 @ 00003354 */]
00003012  B0AE 0010                cmp.l      D0, [A6 + 0x10]
00003016  504F                     addq.w     A7, 8
00003018  6600 00B2                bne        +0xB4 /* 000030CC */
0000301C  204D                     movea.l    A0, A5
0000301E  D1FC FFFD AC00           add.l      A0, 0xFFFDAC00
00003024  4A10                     tst.b      [A0]
00003026  6F0C                     ble        +0xE /* 00003034 */
00003028  204D                     movea.l    A0, A5
0000302A  D1FC FFFD AC00           add.l      A0, 0xFFFDAC00
00003030  1010                     move.b     D0, [A0]
00003032  5310                     subq.b     [A0], 1
label00003034:
00003034  204D                     movea.l    A0, A5
00003036  D1FC FFFE D878           add.l      A0, 0xFFFED878
0000303C  0410 0014                subi.b     [A0], 0x14
00003040  204D                     movea.l    A0, A5
00003042  D1FC FFFE D878           add.l      A0, 0xFFFED878
00003048  4A10                     tst.b      [A0]
0000304A  6C0A                     bge        +0xC /* 00003056 */
0000304C  204D                     movea.l    A0, A5
0000304E  D1FC FFFE D878           add.l      A0, 0xFFFED878
00003054  4210                     clr.b      [A0]
label00003056:
00003056  204D                     movea.l    A0, A5
00003058  D1FC FFFD AC00           add.l      A0, 0xFFFDAC00
0000305E  1010                     move.b     D0, [A0]
00003060  4880                     ext.w      D0
00003062  3D40 FFD8                move.w     [A6 - 0x28], D0
00003066  486E FFD8                pea.l      [A6 - 0x28]
0000306A  486E FFEC                pea.l      [A6 - 0x14]
0000306E  3F3C 200E                move.w     -[A7], 0x200E
00003072  A9EB                     syscall    Pack4/FP68K
00003074  486E FFEC                pea.l      [A6 - 0x14]
00003078  41EE FFE0                lea.l      A0, [A6 - 0x20]
0000307C  43FA 017A                lea.l      A1, [PC + 0x17A /* 000031F8, value 0x40048533 */]
00003080  20D9                     move.l     [A0]+, [A1]+
00003082  20D9                     move.l     [A0]+, [A1]+
00003084  30D9                     move.w     [A0]+, [A1]+
00003086  486E FFE0                pea.l      [A6 - 0x20]
0000308A  3F3C 0004                move.w     -[A7], 0x4
0000308E  A9EB                     syscall    Pack4/FP68K
00003090  487A 015C                pea.l      [PC + 0x15C /* 000031EE, value 0x4005C800 */]
00003094  486E FFE0                pea.l      [A6 - 0x20]
00003098  3F3C 0006                move.w     -[A7], 0x6
0000309C  A9EB                     syscall    Pack4/FP68K
0000309E  41EE FFE0                lea.l      A0, [A6 - 0x20]
000030A2  43EE FFF6                lea.l      A1, [A6 - 0xA]
000030A6  22D8                     move.l     [A1]+, [A0]+
000030A8  22D8                     move.l     [A1]+, [A0]+
000030AA  32D8                     move.w     [A1]+, [A0]+
000030AC  206C 0174                movea.l    A0, [A4 + 0x174]
000030B0  43EE FFF6                lea.l      A1, [A6 - 0xA]
000030B4  45E8 01CC                lea.l      A2, [A0 + 0x1CC]
000030B8  24D9                     move.l     [A2]+, [A1]+
000030BA  24D9                     move.l     [A2]+, [A1]+
000030BC  34D9                     move.w     [A2]+, [A1]+
000030BE  206C 0174                movea.l    A0, [A4 + 0x174]
000030C2  4868 0096                pea.l      [A0 + 0x96]
000030C6  A928                     syscall    InvalRect
000030C8  6000 00D2                bra        +0xD4 /* 0000319C */
label000030CC:
000030CC  7009                     moveq.l    D0, 0x09
000030CE  2F00                     move.l     -[A7], D0
000030D0  2F0C                     move.l     -[A7], A4
000030D2  4EAD 11FA                jsr        [A5 + 0x11FA /* export_571, CODE:26 @ 00003354 */]
000030D6  B0AE 0010                cmp.l      D0, [A6 + 0x10]
000030DA  504F                     addq.w     A7, 8
000030DC  6600 00BE                bne        +0xC0 /* 0000319C */
000030E0  204D                     movea.l    A0, A5
000030E2  D1FC FFFD AC00           add.l      A0, 0xFFFDAC00
000030E8  5210                     addq.b     [A0], 1
000030EA  7003                     moveq.l    D0, 0x03
000030EC  204D                     movea.l    A0, A5
000030EE  D1FC FFFD AC00           add.l      A0, 0xFFFDAC00
000030F4  B010                     cmp.b      D0, [A0]
000030F6  6C0C                     bge        +0xE /* 00003104 */
000030F8  204D                     movea.l    A0, A5
000030FA  D1FC FFFD AC00           add.l      A0, 0xFFFDAC00
00003100  10BC 0003                move.b     [A0], 0x3
label00003104:
00003104  204D                     movea.l    A0, A5
00003106  D1FC FFFE D878           add.l      A0, 0xFFFED878
0000310C  0610 0014                addi.b     [A0], 0x14
00003110  7050                     moveq.l    D0, 0x50
00003112  204D                     movea.l    A0, A5
00003114  D1FC FFFE D878           add.l      A0, 0xFFFED878
0000311A  B010                     cmp.b      D0, [A0]
0000311C  6C0C                     bge        +0xE /* 0000312A */
0000311E  204D                     movea.l    A0, A5
00003120  D1FC FFFE D878           add.l      A0, 0xFFFED878
00003126  10BC 0050                move.b     [A0], 0x50 /* 'P' */
label0000312A:
0000312A  204D                     movea.l    A0, A5
0000312C  D1FC FFFD AC00           add.l      A0, 0xFFFDAC00
00003132  1010                     move.b     D0, [A0]
00003134  4880                     ext.w      D0
00003136  3D40 FFD6                move.w     [A6 - 0x2A], D0
0000313A  486E FFD6                pea.l      [A6 - 0x2A]
0000313E  486E FFEC                pea.l      [A6 - 0x14]
00003142  3F3C 200E                move.w     -[A7], 0x200E
00003146  A9EB                     syscall    Pack4/FP68K
00003148  486E FFEC                pea.l      [A6 - 0x14]
0000314C  41EE FFE0                lea.l      A0, [A6 - 0x20]
00003150  43FA 00A6                lea.l      A1, [PC + 0xA6 /* 000031F8, value 0x40048533 */]
00003154  20D9                     move.l     [A0]+, [A1]+
00003156  20D9                     move.l     [A0]+, [A1]+
00003158  30D9                     move.w     [A0]+, [A1]+
0000315A  486E FFE0                pea.l      [A6 - 0x20]
0000315E  3F3C 0004                move.w     -[A7], 0x4
00003162  A9EB                     syscall    Pack4/FP68K
00003164  487A 0088                pea.l      [PC + 0x88 /* 000031EE, value 0x4005C800 */]
00003168  486E FFE0                pea.l      [A6 - 0x20]
0000316C  3F3C 0006                move.w     -[A7], 0x6
00003170  A9EB                     syscall    Pack4/FP68K
00003172  41EE FFE0                lea.l      A0, [A6 - 0x20]
00003176  43EE FFF6                lea.l      A1, [A6 - 0xA]
0000317A  22D8                     move.l     [A1]+, [A0]+
0000317C  22D8                     move.l     [A1]+, [A0]+
0000317E  32D8                     move.w     [A1]+, [A0]+
00003180  206C 0174                movea.l    A0, [A4 + 0x174]
00003184  43EE FFF6                lea.l      A1, [A6 - 0xA]
00003188  45E8 01CC                lea.l      A2, [A0 + 0x1CC]
0000318C  24D9                     move.l     [A2]+, [A1]+
0000318E  24D9                     move.l     [A2]+, [A1]+
00003190  34D9                     move.w     [A2]+, [A1]+
00003192  206C 0174                movea.l    A0, [A4 + 0x174]
00003196  4868 0096                pea.l      [A0 + 0x96]
0000319A  A928                     syscall    InvalRect
label0000319C:
0000319C  2F2E 0014                move.l     -[A7], [A6 + 0x14]
000031A0  2F2E 0010                move.l     -[A7], [A6 + 0x10]
000031A4  2F07                     move.l     -[A7], D7
000031A6  2F0C                     move.l     -[A7], A4
000031A8  4EAD 118A                jsr        [A5 + 0x118A /* export_557, CODE:26 @ 000021AC */]
000031AC  4FEF 0010                lea.l      A7, [A7 + 0x10]
label000031B0:
000031B0  4CEE 1C80 FFC6           movem.l    D7,A2,A3,A4, [A6 - 0x3A]
000031B6  4E5E                     unlink     A6
000031B8  4E75                     rts
000031BA  8030 4861 7342 6565 6... dc.b       "HasBeenAChange__18cDefineWorldWindowFlP6cAgentPc" + 20 constant bytes
export_340:
00003202  4E56 FFC8                link       A6, -0x0038
00003206  48E7 0038                movem.l    -[A7], A2,A3,A4
0000320A  286E 0008                movea.l    A4, [A6 + 0x8]
0000320E  302E 000E                move.w     D0, [A6 + 0xE]
00003212  5540                     subq.w     D0, 2
00003214  6700 00D8                beq        +0xDA /* 000032EE */
00003218  5740                     subq.w     D0, 3
0000321A  6700 01A4                beq        +0x1A6 /* 000033C0 */
0000321E  5740                     subq.w     D0, 3
00003220  6700 0270                beq        +0x272 /* 00003492 */
00003224  5D40                     subq.w     D0, 6
00003226  6708                     beq        +0xA /* 00003230 */
00003228  5340                     subq.w     D0, 1
0000322A  6752                     beq        +0x54 /* 0000327E */
0000322C  6000 0332                bra        +0x334 /* 00003560 */
label00003230:
00003230  2F2E 0010                move.l     -[A7], [A6 + 0x10]
00003234  2F0C                     move.l     -[A7], A4
00003236  2F0C                     move.l     -[A7], A4
00003238  7000                     moveq.l    D0, 0x00
0000323A  2F00                     move.l     -[A7], D0
0000323C  2F00                     move.l     -[A7], D0
0000323E  4EAD 0992                jsr        [A5 + 0x992 /* export_302, CODE:17 @ 00000BAA */]
00003242  2940 017C                move.l     [A4 + 0x17C], D0
00003246  7009                     moveq.l    D0, 0x09
00003248  2F00                     move.l     -[A7], D0
0000324A  2F2C 017C                move.l     -[A7], [A4 + 0x17C]
0000324E  4EAD 09A2                jsr        [A5 + 0x9A2 /* export_304, CODE:17 @ 00000EF4 */]
00003252  206C 017C                movea.l    A0, [A4 + 0x17C]
00003256  4228 0134                clr.b      [A0 + 0x134]
0000325A  4AAC 017C                tst.l      [A4 + 0x17C]
0000325E  670C                     beq        +0xE /* 0000326C */
00003260  202C 017C                move.l     D0, [A4 + 0x17C]
00003264  D0BC 0000 0080           add.l      D0, 0x80
0000326A  6002                     bra        +0x4 /* 0000326E */
label0000326C:
0000326C  7000                     moveq.l    D0, 0x00
label0000326E:
0000326E  2F00                     move.l     -[A7], D0
00003270  2F0C                     move.l     -[A7], A4
00003272  4EAD 11F2                jsr        [A5 + 0x11F2 /* export_570, CODE:26 @ 000032DA */]
00003276  4FEF 0024                lea.l      A7, [A7 + 0x24]
0000327A  6000 02E4                bra        +0x2E6 /* 00003560 */
label0000327E:
0000327E  4878 0204                push.l     0x204
00003282  2F0C                     move.l     -[A7], A4
00003284  7000                     moveq.l    D0, 0x00
00003286  2F00                     move.l     -[A7], D0
00003288  2F00                     move.l     -[A7], D0
0000328A  4EAD 1982                jsr        [A5 + 0x1982 /* export_812, CODE:33 @ 0000205A */]
0000328E  2940 0178                move.l     [A4 + 0x178], D0
00003292  2040                     movea.l    A0, D0
00003294  47E8 0086                lea.l      A3, [A0 + 0x86]
00003298  206E 0010                movea.l    A0, [A6 + 0x10]
0000329C  3010                     move.w     D0, [A0]
0000329E  906B 0010                sub.w      D0, [A3 + 0x10]
000032A2  48C0                     ext.l      D0
000032A4  2F00                     move.l     -[A7], D0
000032A6  206E 0010                movea.l    A0, [A6 + 0x10]
000032AA  3028 0002                move.w     D0, [A0 + 0x2]
000032AE  906B 0012                sub.w      D0, [A3 + 0x12]
000032B2  48C0                     ext.l      D0
000032B4  2F00                     move.l     -[A7], D0
000032B6  204B                     movea.l    A0, A3
000032B8  226B 0008                movea.l    A1, [A3 + 0x8]
000032BC  D0E9 0040                add.w      A0, [A1 + 0x40]
000032C0  2F08                     move.l     -[A7], A0
000032C2  2049                     movea.l    A0, A1
000032C4  2268 0044                movea.l    A1, [A0 + 0x44]
000032C8  4E91                     jsr        [A1]
000032CA  4AAC 0178                tst.l      [A4 + 0x178]
000032CE  670C                     beq        +0xE /* 000032DC */
000032D0  202C 0178                move.l     D0, [A4 + 0x178]
000032D4  D0BC 0000 0086           add.l      D0, 0x86
000032DA  6002                     bra        +0x4 /* 000032DE */
label000032DC:
000032DC  7000                     moveq.l    D0, 0x00
label000032DE:
000032DE  2F00                     move.l     -[A7], D0
000032E0  2F0C                     move.l     -[A7], A4
000032E2  4EAD 11F2                jsr        [A5 + 0x11F2 /* export_570, CODE:26 @ 000032DA */]
000032E6  4FEF 0024                lea.l      A7, [A7 + 0x24]
000032EA  6000 0274                bra        +0x276 /* 00003560 */
label000032EE:
000032EE  7000                     moveq.l    D0, 0x00
000032F0  2F00                     move.l     -[A7], D0
000032F2  2F00                     move.l     -[A7], D0
000032F4  2F00                     move.l     -[A7], D0
000032F6  2F00                     move.l     -[A7], D0
000032F8  2F00                     move.l     -[A7], D0
000032FA  2F2E 0010                move.l     -[A7], [A6 + 0x10]
000032FE  2F0C                     move.l     -[A7], A4
00003300  2F00                     move.l     -[A7], D0
00003302  2F00                     move.l     -[A7], D0
00003304  4EAD 18F2                jsr        [A5 + 0x18F2 /* export_794, CODE:33 @ 000003AE */]
00003308  2940 016C                move.l     [A4 + 0x16C], D0
0000330C  204D                     movea.l    A0, A5
0000330E  D1FC FFFF 1C88           add.l      A0, 0xFFFF1C88
00003314  2F10                     move.l     -[A7], [A0]
00003316  206C 016C                movea.l    A0, [A4 + 0x16C]
0000331A  2248                     movea.l    A1, A0
0000331C  2269 0060                movea.l    A1, [A1 + 0x60]
00003320  D0E9 0080                add.w      A0, [A1 + 0x80]
00003324  2F08                     move.l     -[A7], A0
00003326  206C 016C                movea.l    A0, [A4 + 0x16C]
0000332A  2068 0060                movea.l    A0, [A0 + 0x60]
0000332E  2268 0084                movea.l    A1, [A0 + 0x84]
00003332  4E91                     jsr        [A1]
00003334  204D                     movea.l    A0, A5
00003336  D1FC FFFD AC04           add.l      A0, 0xFFFDAC04
0000333C  1010                     move.b     D0, [A0]
0000333E  4880                     ext.w      D0
00003340  3D40 FFD6                move.w     [A6 - 0x2A], D0
00003344  486E FFD6                pea.l      [A6 - 0x2A]
00003348  486E FFD8                pea.l      [A6 - 0x28]
0000334C  3F3C 200E                move.w     -[A7], 0x200E
00003350  A9EB                     syscall    Pack4/FP68K
00003352  486E FFD8                pea.l      [A6 - 0x28]
00003356  41EE FFCC                lea.l      A0, [A6 - 0x34]
0000335A  43FA 0246                lea.l      A1, [PC + 0x246 /* 000035A2, value 0x40048533 */]
0000335E  20D9                     move.l     [A0]+, [A1]+
00003360  20D9                     move.l     [A0]+, [A1]+
00003362  30D9                     move.w     [A0]+, [A1]+
00003364  486E FFCC                pea.l      [A6 - 0x34]
00003368  3F3C 0004                move.w     -[A7], 0x4
0000336C  A9EB                     syscall    Pack4/FP68K
0000336E  487A 0228                pea.l      [PC + 0x228 /* 00003598, value 0x4005C800 */]
00003372  486E FFCC                pea.l      [A6 - 0x34]
00003376  3F3C 0006                move.w     -[A7], 0x6
0000337A  A9EB                     syscall    Pack4/FP68K
0000337C  41EE FFCC                lea.l      A0, [A6 - 0x34]
00003380  43EE FFE2                lea.l      A1, [A6 - 0x1E]
00003384  22D8                     move.l     [A1]+, [A0]+
00003386  22D8                     move.l     [A1]+, [A0]+
00003388  32D8                     move.w     [A1]+, [A0]+
0000338A  206C 016C                movea.l    A0, [A4 + 0x16C]
0000338E  43EE FFE2                lea.l      A1, [A6 - 0x1E]
00003392  45E8 01CC                lea.l      A2, [A0 + 0x1CC]
00003396  24D9                     move.l     [A2]+, [A1]+
00003398  24D9                     move.l     [A2]+, [A1]+
0000339A  34D9                     move.w     [A2]+, [A1]+
0000339C  4AAC 016C                tst.l      [A4 + 0x16C]
000033A0  670C                     beq        +0xE /* 000033AE */
000033A2  202C 016C                move.l     D0, [A4 + 0x16C]
000033A6  D0BC 0000 0086           add.l      D0, 0x86
000033AC  6002                     bra        +0x4 /* 000033B0 */
label000033AE:
000033AE  7000                     moveq.l    D0, 0x00
label000033B0:
000033B0  2F00                     move.l     -[A7], D0
000033B2  2F0C                     move.l     -[A7], A4
000033B4  4EAD 11F2                jsr        [A5 + 0x11F2 /* export_570, CODE:26 @ 000032DA */]
000033B8  4FEF 0034                lea.l      A7, [A7 + 0x34]
000033BC  6000 01A2                bra        +0x1A4 /* 00003560 */
label000033C0:
000033C0  7000                     moveq.l    D0, 0x00
000033C2  2F00                     move.l     -[A7], D0
000033C4  2F00                     move.l     -[A7], D0
000033C6  2F00                     move.l     -[A7], D0
000033C8  2F00                     move.l     -[A7], D0
000033CA  2F00                     move.l     -[A7], D0
000033CC  2F2E 0010                move.l     -[A7], [A6 + 0x10]
000033D0  2F0C                     move.l     -[A7], A4
000033D2  2F00                     move.l     -[A7], D0
000033D4  2F00                     move.l     -[A7], D0
000033D6  4EAD 18F2                jsr        [A5 + 0x18F2 /* export_794, CODE:33 @ 000003AE */]
000033DA  2940 0170                move.l     [A4 + 0x170], D0
000033DE  204D                     movea.l    A0, A5
000033E0  D1FC FFFF 1C88           add.l      A0, 0xFFFF1C88
000033E6  2F10                     move.l     -[A7], [A0]
000033E8  206C 0170                movea.l    A0, [A4 + 0x170]
000033EC  2248                     movea.l    A1, A0
000033EE  2269 0060                movea.l    A1, [A1 + 0x60]
000033F2  D0E9 0080                add.w      A0, [A1 + 0x80]
000033F6  2F08                     move.l     -[A7], A0
000033F8  206C 0170                movea.l    A0, [A4 + 0x170]
000033FC  2068 0060                movea.l    A0, [A0 + 0x60]
00003400  2268 0084                movea.l    A1, [A0 + 0x84]
00003404  4E91                     jsr        [A1]
00003406  204D                     movea.l    A0, A5
00003408  D1FC FFFD AC02           add.l      A0, 0xFFFDAC02
0000340E  1010                     move.b     D0, [A0]
00003410  4880                     ext.w      D0
00003412  3D40 FFCA                move.w     [A6 - 0x36], D0
00003416  486E FFCA                pea.l      [A6 - 0x36]
0000341A  486E FFD8                pea.l      [A6 - 0x28]
0000341E  3F3C 200E                move.w     -[A7], 0x200E
00003422  A9EB                     syscall    Pack4/FP68K
00003424  486E FFD8                pea.l      [A6 - 0x28]
00003428  41EE FFCC                lea.l      A0, [A6 - 0x34]
0000342C  43FA 0174                lea.l      A1, [PC + 0x174 /* 000035A2, value 0x40048533 */]
00003430  20D9                     move.l     [A0]+, [A1]+
00003432  20D9                     move.l     [A0]+, [A1]+
00003434  30D9                     move.w     [A0]+, [A1]+
00003436  486E FFCC                pea.l      [A6 - 0x34]
0000343A  3F3C 0004                move.w     -[A7], 0x4
0000343E  A9EB                     syscall    Pack4/FP68K
00003440  487A 0156                pea.l      [PC + 0x156 /* 00003598, value 0x4005C800 */]
00003444  486E FFCC                pea.l      [A6 - 0x34]
00003448  3F3C 0006                move.w     -[A7], 0x6
0000344C  A9EB                     syscall    Pack4/FP68K
0000344E  41EE FFCC                lea.l      A0, [A6 - 0x34]
00003452  43EE FFEC                lea.l      A1, [A6 - 0x14]
00003456  22D8                     move.l     [A1]+, [A0]+
00003458  22D8                     move.l     [A1]+, [A0]+
0000345A  32D8                     move.w     [A1]+, [A0]+
0000345C  206C 0170                movea.l    A0, [A4 + 0x170]
00003460  43EE FFEC                lea.l      A1, [A6 - 0x14]
00003464  45E8 01CC                lea.l      A2, [A0 + 0x1CC]
00003468  24D9                     move.l     [A2]+, [A1]+
0000346A  24D9                     move.l     [A2]+, [A1]+
0000346C  34D9                     move.w     [A2]+, [A1]+
0000346E  4AAC 0170                tst.l      [A4 + 0x170]
00003472  670C                     beq        +0xE /* 00003480 */
00003474  202C 0170                move.l     D0, [A4 + 0x170]
00003478  D0BC 0000 0086           add.l      D0, 0x86
0000347E  6002                     bra        +0x4 /* 00003482 */
label00003480:
00003480  7000                     moveq.l    D0, 0x00
label00003482:
00003482  2F00                     move.l     -[A7], D0
00003484  2F0C                     move.l     -[A7], A4
00003486  4EAD 11F2                jsr        [A5 + 0x11F2 /* export_570, CODE:26 @ 000032DA */]
0000348A  4FEF 0034                lea.l      A7, [A7 + 0x34]
0000348E  6000 00D0                bra        +0xD2 /* 00003560 */
label00003492:
00003492  7000                     moveq.l    D0, 0x00
00003494  2F00                     move.l     -[A7], D0
00003496  2F00                     move.l     -[A7], D0
00003498  2F00                     move.l     -[A7], D0
0000349A  2F00                     move.l     -[A7], D0
0000349C  2F00                     move.l     -[A7], D0
0000349E  2F2E 0010                move.l     -[A7], [A6 + 0x10]
000034A2  2F0C                     move.l     -[A7], A4
000034A4  2F00                     move.l     -[A7], D0
000034A6  2F00                     move.l     -[A7], D0
000034A8  4EAD 18F2                jsr        [A5 + 0x18F2 /* export_794, CODE:33 @ 000003AE */]
000034AC  2940 0174                move.l     [A4 + 0x174], D0
000034B0  204D                     movea.l    A0, A5
000034B2  D1FC FFFF 1C88           add.l      A0, 0xFFFF1C88
000034B8  2F10                     move.l     -[A7], [A0]
000034BA  206C 0174                movea.l    A0, [A4 + 0x174]
000034BE  2248                     movea.l    A1, A0
000034C0  2269 0060                movea.l    A1, [A1 + 0x60]
000034C4  D0E9 0080                add.w      A0, [A1 + 0x80]
000034C8  2F08                     move.l     -[A7], A0
000034CA  206C 0174                movea.l    A0, [A4 + 0x174]
000034CE  2068 0060                movea.l    A0, [A0 + 0x60]
000034D2  2268 0084                movea.l    A1, [A0 + 0x84]
000034D6  4E91                     jsr        [A1]
000034D8  204D                     movea.l    A0, A5
000034DA  D1FC FFFD AC00           add.l      A0, 0xFFFDAC00
000034E0  1010                     move.b     D0, [A0]
000034E2  4880                     ext.w      D0
000034E4  3D40 FFC8                move.w     [A6 - 0x38], D0
000034E8  486E FFC8                pea.l      [A6 - 0x38]
000034EC  486E FFD8                pea.l      [A6 - 0x28]
000034F0  3F3C 200E                move.w     -[A7], 0x200E
000034F4  A9EB                     syscall    Pack4/FP68K
000034F6  486E FFD8                pea.l      [A6 - 0x28]
000034FA  41EE FFCC                lea.l      A0, [A6 - 0x34]
000034FE  43FA 00A2                lea.l      A1, [PC + 0xA2 /* 000035A2, value 0x40048533 */]
00003502  20D9                     move.l     [A0]+, [A1]+
00003504  20D9                     move.l     [A0]+, [A1]+
00003506  30D9                     move.w     [A0]+, [A1]+
00003508  486E FFCC                pea.l      [A6 - 0x34]
0000350C  3F3C 0004                move.w     -[A7], 0x4
00003510  A9EB                     syscall    Pack4/FP68K
00003512  487A 0084                pea.l      [PC + 0x84 /* 00003598, value 0x4005C800 */]
00003516  486E FFCC                pea.l      [A6 - 0x34]
0000351A  3F3C 0006                move.w     -[A7], 0x6
0000351E  A9EB                     syscall    Pack4/FP68K
00003520  41EE FFCC                lea.l      A0, [A6 - 0x34]
00003524  43EE FFF6                lea.l      A1, [A6 - 0xA]
00003528  22D8                     move.l     [A1]+, [A0]+
0000352A  22D8                     move.l     [A1]+, [A0]+
0000352C  32D8                     move.w     [A1]+, [A0]+
0000352E  206C 0174                movea.l    A0, [A4 + 0x174]
00003532  43EE FFF6                lea.l      A1, [A6 - 0xA]
00003536  45E8 01CC                lea.l      A2, [A0 + 0x1CC]
0000353A  24D9                     move.l     [A2]+, [A1]+
0000353C  24D9                     move.l     [A2]+, [A1]+
0000353E  34D9                     move.w     [A2]+, [A1]+
00003540  4AAC 0174                tst.l      [A4 + 0x174]
00003544  670C                     beq        +0xE /* 00003552 */
00003546  202C 0174                move.l     D0, [A4 + 0x174]
0000354A  D0BC 0000 0086           add.l      D0, 0x86
00003550  6002                     bra        +0x4 /* 00003554 */
label00003552:
00003552  7000                     moveq.l    D0, 0x00
label00003554:
00003554  2F00                     move.l     -[A7], D0
00003556  2F0C                     move.l     -[A7], A4
00003558  4EAD 11F2                jsr        [A5 + 0x11F2 /* export_570, CODE:26 @ 000032DA */]
0000355C  4FEF 0034                lea.l      A7, [A7 + 0x34]
label00003560:
00003560  4CEE 1C00 FFBC           movem.l    A2,A3,A4, [A6 - 0x44]
00003566  4E5E                     unlink     A6
00003568  4E75                     rts
0000356A  8029 4E65 7755 7365 7... dc.b       "NewUserItem__18cDefineWorldWindowFsR4Rect" + 20 constant bytes
export_341:
000035AC  4E56 0000                link       A6, 0
000035B0  48E7 1018                movem.l    -[A7], D3,A3,A4
000035B4  266E 000C                movea.l    A3, [A6 + 0xC]
000035B8  286E 0008                movea.l    A4, [A6 + 0x8]
000035BC  200C                     move.l     D0, A4
000035BE  6612                     bne        +0x14 /* 000035D2 */
000035C0  4878 01A6                push.l     0x1A6
000035C4  4EAD 010A                jsr        [A5 + 0x10A /* export_29, CODE:1 @ 00001C0A */]
000035C8  2840                     movea.l    A4, D0
000035CA  200C                     move.l     D0, A4
000035CC  584F                     addq.w     A7, 4
000035CE  6700 0150                beq        +0x152 /* 00003720 */
label000035D2:
000035D2  200B                     move.l     D0, A3
000035D4  57C3                     seq        D3
000035D6  4403                     neg.b      D3
000035D8  674E                     beq        +0x50 /* 00003628 */
000035DA  264C                     movea.l    A3, A4
000035DC  47EB 019A                lea.l      A3, [A3 + 0x19A]
000035E0  7601                     moveq.l    D3, 0x01
000035E2  200C                     move.l     D0, A4
000035E4  D0BC 0000 019A           add.l      D0, 0x19A
000035EA  6614                     bne        +0x16 /* 00003600 */
000035EC  2F03                     move.l     -[A7], D3
000035EE  700C                     moveq.l    D0, 0x0C
000035F0  2F00                     move.l     -[A7], D0
000035F2  4EAD 010A                jsr        [A5 + 0x10A /* export_29, CODE:1 @ 00001C0A */]
000035F6  588F                     addq.l     A7, 4
000035F8  261F                     move.l     D3, [A7]+
000035FA  4A80                     tst.l      D0
000035FC  6602                     bne        +0x4 /* 00003600 */
000035FE  7600                     moveq.l    D3, 0x00
label00003600:
00003600  4A03                     tst.b      D3
00003602  6718                     beq        +0x1A /* 0000361C */
00003604  204D                     movea.l    A0, A5
00003606  D1FC FFFF 208C           add.l      A0, 0xFFFF208C
0000360C  2950 01A2                move.l     [A4 + 0x1A2], [A0]
00003610  7000                     moveq.l    D0, 0x00
00003612  2940 019A                move.l     [A4 + 0x19A], D0
00003616  2940 019E                move.l     [A4 + 0x19E], D0
0000361A  6002                     bra        +0x4 /* 0000361E */
label0000361C:
0000361C  7000                     moveq.l    D0, 0x00
label0000361E:
0000361E  200C                     move.l     D0, A4
00003620  D0BC 0000 019A           add.l      D0, 0x19A
00003626  6002                     bra        +0x4 /* 0000362A */
label00003628:
00003628  200B                     move.l     D0, A3
label0000362A:
0000362A  7000                     moveq.l    D0, 0x00
0000362C  2F00                     move.l     -[A7], D0
0000362E  2F3C 4576 616C           move.l     -[A7], 0x4576616C /* 'Eval' */
00003634  2F2E 0010                move.l     -[A7], [A6 + 0x10]
00003638  2F0B                     move.l     -[A7], A3
0000363A  2F0C                     move.l     -[A7], A4
0000363C  4EAD 10AA                jsr        [A5 + 0x10AA /* export_529, CODE:26 @ 0000020E */]
00003640  204D                     movea.l    A0, A5
00003642  D1FC FFFF 2090           add.l      A0, 0xFFFF2090
00003648  2950 0060                move.l     [A4 + 0x60], [A0]
0000364C  206C 0064                movea.l    A0, [A4 + 0x64]
00003650  224D                     movea.l    A1, A5
00003652  D3FC FFFF 2094           add.l      A1, 0xFFFF2094
00003658  2151 0008                move.l     [A0 + 0x8], [A1]
0000365C  204D                     movea.l    A0, A5
0000365E  D1FC FFFF 2098           add.l      A0, 0xFFFF2098
00003664  2950 0070                move.l     [A4 + 0x70], [A0]
00003668  204D                     movea.l    A0, A5
0000366A  D1FC FFFD CECE           add.l      A0, 0xFFFDCECE
00003670  3950 016C                move.w     [A4 + 0x16C], [A0]
00003674  204D                     movea.l    A0, A5
00003676  D1FC FFFD CEC8           add.l      A0, 0xFFFDCEC8
0000367C  3950 016E                move.w     [A4 + 0x16E], [A0]
00003680  422C 0174                clr.b      [A4 + 0x174]
00003684  204D                     movea.l    A0, A5
00003686  D1FC FFFF 2808           add.l      A0, 0xFFFF2808
0000368C  4A90                     tst.l      [A0]
0000368E  4FEF 0014                lea.l      A7, [A7 + 0x14]
00003692  6630                     bne        +0x32 /* 000036C4 */
00003694  598F                     subq.l     A7, 4
00003696  2F3C 6363 7462           move.l     -[A7], 0x63637462 /* 'cctb' */
0000369C  3F3C 0082                move.w     -[A7], 0x82
000036A0  A9A0                     syscall    GetResource
000036A2  265F                     movea.l    A3, [A7]+
000036A4  204D                     movea.l    A0, A5
000036A6  D1FC FFFF 2808           add.l      A0, 0xFFFF2808
000036AC  208B                     move.l     [A0], A3
000036AE  558F                     subq.l     A7, 2
000036B0  204D                     movea.l    A0, A5
000036B2  D1FC FFFF 2808           add.l      A0, 0xFFFF2808
000036B8  4850                     pea.l      [A0]
000036BA  4EAD 00E2                jsr        [A5 + 0xE2 /* export_24, CODE:1 @ 000017D4 */]
000036BE  2F0B                     move.l     -[A7], A3
000036C0  A9A3                     syscall    ReleaseResource
000036C2  544F                     addq.w     A7, 2
label000036C4:
000036C4  204D                     movea.l    A0, A5
000036C6  D1FC FFFF 2804           add.l      A0, 0xFFFF2804
000036CC  4A90                     tst.l      [A0]
000036CE  6630                     bne        +0x32 /* 00003700 */
000036D0  598F                     subq.l     A7, 4
000036D2  2F3C 6363 7462           move.l     -[A7], 0x63637462 /* 'cctb' */
000036D8  3F3C 0083                move.w     -[A7], 0x83
000036DC  A9A0                     syscall    GetResource
000036DE  265F                     movea.l    A3, [A7]+
000036E0  204D                     movea.l    A0, A5
000036E2  D1FC FFFF 2804           add.l      A0, 0xFFFF2804
000036E8  208B                     move.l     [A0], A3
000036EA  558F                     subq.l     A7, 2
000036EC  204D                     movea.l    A0, A5
000036EE  D1FC FFFF 2804           add.l      A0, 0xFFFF2804
000036F4  4850                     pea.l      [A0]
000036F6  4EAD 00E2                jsr        [A5 + 0xE2 /* export_24, CODE:1 @ 000017D4 */]
000036FA  2F0B                     move.l     -[A7], A3
000036FC  A9A3                     syscall    ReleaseResource
000036FE  544F                     addq.w     A7, 2
label00003700:
00003700  70FF                     moveq.l    D0, 0xFFFFFFFF
00003702  2F00                     move.l     -[A7], D0
00003704  4878 0085                push.l     0x85
00003708  204C                     movea.l    A0, A4
0000370A  226C 0060                movea.l    A1, [A4 + 0x60]
0000370E  D0E9 0068                add.w      A0, [A1 + 0x68]
00003712  2F08                     move.l     -[A7], A0
00003714  2049                     movea.l    A0, A1
00003716  2268 006C                movea.l    A1, [A0 + 0x6C]
0000371A  4E91                     jsr        [A1]
0000371C  4FEF 000C                lea.l      A7, [A7 + 0xC]
label00003720:
00003720  200C                     move.l     D0, A4
00003722  4CEE 1808 FFF4           movem.l    D3,A3,A4, [A6 - 0xC]
00003728  4E5E                     unlink     A6
0000372A  4E75                     rts
0000372C  8022 5F5F 6374 5F5F 3... dc.b       "__ct__17cEvaluationWindowFP6cAgent"
export_342:
00003752  4E56 0000                link       A6, 0
00003756  48E7 0108                movem.l    -[A7], D7,A4
0000375A  2E2E 000C                move.l     D7, [A6 + 0xC]
0000375E  286E 0008                movea.l    A4, [A6 + 0x8]
00003762  200C                     move.l     D0, A4
00003764  6700 00B0                beq        +0xB2 /* 00003816 */
00003768  204D                     movea.l    A0, A5
0000376A  D1FC FFFF 2098           add.l      A0, 0xFFFF2098
00003770  2950 0070                move.l     [A4 + 0x70], [A0]
00003774  206C 0064                movea.l    A0, [A4 + 0x64]
00003778  224D                     movea.l    A1, A5
0000377A  D3FC FFFF 2094           add.l      A1, 0xFFFF2094
00003780  2151 0008                move.l     [A0 + 0x8], [A1]
00003784  204D                     movea.l    A0, A5
00003786  D1FC FFFF 2090           add.l      A0, 0xFFFF2090
0000378C  2950 0060                move.l     [A4 + 0x60], [A0]
00003790  204D                     movea.l    A0, A5
00003792  D1FC FFFF 2808           add.l      A0, 0xFFFF2808
00003798  4A90                     tst.l      [A0]
0000379A  6718                     beq        +0x1A /* 000037B4 */
0000379C  204D                     movea.l    A0, A5
0000379E  D1FC FFFF 2808           add.l      A0, 0xFFFF2808
000037A4  2050                     movea.l    A0, [A0]
000037A6  A023                     syscall    DisposHandle/DisposeHandle
000037A8  204D                     movea.l    A0, A5
000037AA  D1FC FFFF 2808           add.l      A0, 0xFFFF2808
000037B0  7000                     moveq.l    D0, 0x00
000037B2  2080                     move.l     [A0], D0
label000037B4:
000037B4  204D                     movea.l    A0, A5
000037B6  D1FC FFFF 2804           add.l      A0, 0xFFFF2804
000037BC  4A90                     tst.l      [A0]
000037BE  6718                     beq        +0x1A /* 000037D8 */
000037C0  204D                     movea.l    A0, A5
000037C2  D1FC FFFF 2804           add.l      A0, 0xFFFF2804
000037C8  2050                     movea.l    A0, [A0]
000037CA  A023                     syscall    DisposHandle/DisposeHandle
000037CC  204D                     movea.l    A0, A5
000037CE  D1FC FFFF 2804           add.l      A0, 0xFFFF2804
000037D4  7000                     moveq.l    D0, 0x00
000037D6  2080                     move.l     [A0], D0
label000037D8:
000037D8  200C                     move.l     D0, A4
000037DA  673A                     beq        +0x3C /* 00003816 */
000037DC  7000                     moveq.l    D0, 0x00
000037DE  2F00                     move.l     -[A7], D0
000037E0  2F0C                     move.l     -[A7], A4
000037E2  4EAD 10B2                jsr        [A5 + 0x10B2 /* export_530, CODE:26 @ 000003EC */]
000037E6  7002                     moveq.l    D0, 0x02
000037E8  C087                     and.l      D0, D7
000037EA  6718                     beq        +0x1A /* 00003804 */
000037EC  7000                     moveq.l    D0, 0x00
000037EE  2F00                     move.l     -[A7], D0
000037F0  220C                     move.l     D1, A4
000037F2  D2BC 0000 019A           add.l      D1, 0x19A
000037F8  2F01                     move.l     -[A7], D1
000037FA  4EAD 1632                jsr        [A5 + 0x1632 /* export_706, CODE:32 @ 000036CC */]
000037FE  7000                     moveq.l    D0, 0x00
00003800  504F                     addq.w     A7, 8
00003802  6002                     bra        +0x4 /* 00003806 */
label00003804:
00003804  7000                     moveq.l    D0, 0x00
label00003806:
00003806  0807 0000                btst.b     D7, 0x0
0000380A  504F                     addq.w     A7, 8
0000380C  6708                     beq        +0xA /* 00003816 */
0000380E  2F0C                     move.l     -[A7], A4
00003810  4EAD 0102                jsr        [A5 + 0x102 /* export_28, CODE:1 @ 00001BE0 */]
00003814  584F                     addq.w     A7, 4
label00003816:
00003816  4CEE 1080 FFF8           movem.l    D7,A4, [A6 - 0x8]
0000381C  4E5E                     unlink     A6
0000381E  4E75                     rts
00003820  9B5F 5F64 745F 5F31 3... dc.b       "__dt__17cEvaluationWindowFv"
export_343:
0000383E  4E56 0000                link       A6, 0
00003842  48E7 0118                movem.l    -[A7], D7,A3,A4
00003846  266E 0010                movea.l    A3, [A6 + 0x10]
0000384A  2E2E 000C                move.l     D7, [A6 + 0xC]
0000384E  286E 0008                movea.l    A4, [A6 + 0x8]
00003852  2007                     move.l     D0, D7
00003854  0480 436C 5761           subi.l     D0, 0x436C5761 /* 'ClWa' */
0000385A  670A                     beq        +0xC /* 00003866 */
0000385C  0480 03D5 FCCF           subi.l     D0, 0x3D5FCCF
00003862  671A                     beq        +0x1C /* 0000387E */
00003864  6040                     bra        +0x42 /* 000038A6 */
label00003866:
00003866  204C                     movea.l    A0, A4
00003868  226C 0060                movea.l    A1, [A4 + 0x60]
0000386C  D0E9 0110                add.w      A0, [A1 + 0x110]
00003870  2F08                     move.l     -[A7], A0
00003872  2049                     movea.l    A0, A1
00003874  2268 0114                movea.l    A1, [A0 + 0x114]
00003878  4E91                     jsr        [A1]
0000387A  584F                     addq.w     A7, 4
0000387C  6028                     bra        +0x2A /* 000038A6 */
label0000387E:
0000387E  7001                     moveq.l    D0, 0x01
00003880  2F00                     move.l     -[A7], D0
00003882  2F0C                     move.l     -[A7], A4
00003884  4EAD 11FA                jsr        [A5 + 0x11FA /* export_571, CODE:26 @ 00003354 */]
00003888  B08B                     cmp.l      D0, A3
0000388A  504F                     addq.w     A7, 8
0000388C  662A                     bne        +0x2C /* 000038B8 */
0000388E  204C                     movea.l    A0, A4
00003890  226C 0060                movea.l    A1, [A4 + 0x60]
00003894  D0E9 0078                add.w      A0, [A1 + 0x78]
00003898  2F08                     move.l     -[A7], A0
0000389A  2049                     movea.l    A0, A1
0000389C  2268 007C                movea.l    A1, [A0 + 0x7C]
000038A0  4E91                     jsr        [A1]
000038A2  584F                     addq.w     A7, 4
000038A4  6012                     bra        +0x14 /* 000038B8 */
label000038A6:
000038A6  2F2E 0014                move.l     -[A7], [A6 + 0x14]
000038AA  2F0B                     move.l     -[A7], A3
000038AC  2F07                     move.l     -[A7], D7
000038AE  2F0C                     move.l     -[A7], A4
000038B0  4EAD 118A                jsr        [A5 + 0x118A /* export_557, CODE:26 @ 000021AC */]
000038B4  4FEF 0010                lea.l      A7, [A7 + 0x10]
label000038B8:
000038B8  4CEE 1880 FFF4           movem.l    D7,A3,A4, [A6 - 0xC]
000038BE  4E5E                     unlink     A6
000038C0  4E75                     rts
000038C2  802F 4861 7342 6565 6... dc.b       "HasBeenAChange__17cEvaluationWindowFlP6cAgentPc"
export_344:
000038F6  4E56 0000                link       A6, 0
000038FA  2F0C                     move.l     -[A7], A4
000038FC  286E 0008                movea.l    A4, [A6 + 0x8]
00003900  204C                     movea.l    A0, A4
00003902  226C 0060                movea.l    A1, [A4 + 0x60]
00003906  D0E9 0110                add.w      A0, [A1 + 0x110]
0000390A  2F08                     move.l     -[A7], A0
0000390C  2049                     movea.l    A0, A1
0000390E  2268 0114                movea.l    A1, [A0 + 0x114]
00003912  4E91                     jsr        [A1]
00003914  2F0C                     move.l     -[A7], A4
00003916  2F3C 574E 4435           move.l     -[A7], 0x574E4435 /* 'WND5' */
0000391C  204C                     movea.l    A0, A4
0000391E  226C 0060                movea.l    A1, [A4 + 0x60]
00003922  D0E9 0060                add.w      A0, [A1 + 0x60]
00003926  2F08                     move.l     -[A7], A0
00003928  2049                     movea.l    A0, A1
0000392A  2268 0064                movea.l    A1, [A0 + 0x64]
0000392E  4E91                     jsr        [A1]
00003930  7001                     moveq.l    D0, 0x01
00003932  286E FFFC                movea.l    A4, [A6 - 0x4]
00003936  4E5E                     unlink     A6
00003938  4E75                     rts
0000393A  9C43 6C6F 7365 5F5F 3... dc.b       "Close__17cEvaluationWindowFv"
export_345:
0000395A  4E56 0000                link       A6, 0
0000395E  2F0C                     move.l     -[A7], A4
00003960  286E 0008                movea.l    A4, [A6 + 0x8]
00003964  204D                     movea.l    A0, A5
00003966  D1FC FFFD CEC8           add.l      A0, 0xFFFDCEC8
0000396C  3950 016E                move.w     [A4 + 0x16E], [A0]
00003970  197C 0001 0174           move.b     [A4 + 0x174], 0x1
00003976  598F                     subq.l     A7, 4
00003978  A975                     syscall    TickCount
0000397A  295F 0170                move.l     [A4 + 0x170], [A7]+
0000397E  7001                     moveq.l    D0, 0x01
00003980  2F00                     move.l     -[A7], D0
00003982  204C                     movea.l    A0, A4
00003984  226C 0060                movea.l    A1, [A4 + 0x60]
00003988  D0E9 0108                add.w      A0, [A1 + 0x108]
0000398C  2F08                     move.l     -[A7], A0
0000398E  2049                     movea.l    A0, A1
00003990  2268 010C                movea.l    A1, [A0 + 0x10C]
00003994  4E91                     jsr        [A1]
00003996  286E FFFC                movea.l    A4, [A6 - 0x4]
0000399A  4E5E                     unlink     A6
0000399C  4E75                     rts
0000399E  8028 446F 5965 6172 4... dc.b       "DoYearEndProgress__17cEvaluationWindowFv"
export_346:
000039CA  4E56 0000                link       A6, 0
000039CE  48E7 0108                movem.l    -[A7], D7,A4
000039D2  286E 0008                movea.l    A4, [A6 + 0x8]
000039D6  7000                     moveq.l    D0, 0x00
000039D8  204D                     movea.l    A0, A5
000039DA  D1FC FFFD CECE           add.l      A0, 0xFFFDCECE
000039E0  3010                     move.w     D0, [A0]
000039E2  322C 016C                move.w     D1, [A4 + 0x16C]
000039E6  48C1                     ext.l      D1
000039E8  B081                     cmp.l      D0, D1
000039EA  6724                     beq        +0x26 /* 00003A10 */
000039EC  206C 0084                movea.l    A0, [A4 + 0x84]
000039F0  7000                     moveq.l    D0, 0x00
000039F2  1028 006E                move.b     D0, [A0 + 0x6E]
000039F6  0C40 0001                cmpi.w     D0, 0x1
000039FA  6614                     bne        +0x16 /* 00003A10 */
000039FC  204D                     movea.l    A0, A5
000039FE  D1FC FFFD CECE           add.l      A0, 0xFFFDCECE
00003A04  3950 016C                move.w     [A4 + 0x16C], [A0]
00003A08  2F0C                     move.l     -[A7], A4
00003A0A  4EBA 00BE                jsr        [PC + 0xBE /* 00003ACA */]
00003A0E  584F                     addq.w     A7, 4
label00003A10:
00003A10  4A2C 0174                tst.b      [A4 + 0x174]
00003A14  672E                     beq        +0x30 /* 00003A44 */
00003A16  598F                     subq.l     A7, 4
00003A18  A975                     syscall    TickCount
00003A1A  2E1F                     move.l     D7, [A7]+
00003A1C  2007                     move.l     D0, D7
00003A1E  90AC 0170                sub.l      D0, [A4 + 0x170]
00003A22  0C80 0000 0708           cmpi.l     D0, 0x708
00003A28  6F1A                     ble        +0x1C /* 00003A44 */
00003A2A  422C 0174                clr.b      [A4 + 0x174]
00003A2E  204C                     movea.l    A0, A4
00003A30  226C 0060                movea.l    A1, [A4 + 0x60]
00003A34  D0E9 0078                add.w      A0, [A1 + 0x78]
00003A38  2F08                     move.l     -[A7], A0
00003A3A  2049                     movea.l    A0, A1
00003A3C  2268 007C                movea.l    A1, [A0 + 0x7C]
00003A40  4E91                     jsr        [A1]
00003A42  584F                     addq.w     A7, 4
label00003A44:
00003A44  4CEE 1080 FFF8           movem.l    D7,A4, [A6 - 0x8]
00003A4A  4E5E                     unlink     A6
00003A4C  4E75                     rts
00003A4E  8020 4E75 6C6C 4576 6... dc.b       "NullEvent__17cEvaluationWindowFv"
export_347:
00003A72  4E56 0000                link       A6, 0
00003A76  48E7 0108                movem.l    -[A7], D7,A4
00003A7A  1E2E 000F                move.b     D7, [A6 + 0xF]
00003A7E  286E 0008                movea.l    A4, [A6 + 0x8]
00003A82  4A07                     tst.b      D7
00003A84  6708                     beq        +0xA /* 00003A8E */
00003A86  2F0C                     move.l     -[A7], A4
00003A88  4EBA 0040                jsr        [PC + 0x40 /* 00003ACA */]
00003A8C  584F                     addq.w     A7, 4
label00003A8E:
00003A8E  7000                     moveq.l    D0, 0x00
00003A90  1007                     move.b     D0, D7
00003A92  2F00                     move.l     -[A7], D0
00003A94  2F0C                     move.l     -[A7], A4
00003A96  4EAD 1102                jsr        [A5 + 0x1102 /* export_540, CODE:26 @ 00001A56 */]
00003A9A  504F                     addq.w     A7, 8
00003A9C  4CEE 1080 FFF8           movem.l    D7,A4, [A6 - 0x8]
00003AA2  4E5E                     unlink     A6
00003AA4  4E75                     rts
00003AA6  8020 4163 7469 7661 7... dc.b       "Activate__17cEvaluationWindowFUc"
fn00003ACA:
00003ACA  4E56 FFB0                link       A6, -0x0050
00003ACE  48E7 0138                movem.l    -[A7], D7,A2,A3,A4
00003AD2  286E 0008                movea.l    A4, [A6 + 0x8]
00003AD6  2F0C                     move.l     -[A7], A4
00003AD8  4EAD 11E2                jsr        [A5 + 0x11E2 /* export_568, CODE:26 @ 000031FA */]
00003ADC  204D                     movea.l    A0, A5
00003ADE  D1FC FFFD CECC           add.l      A0, 0xFFFDCECC
00003AE4  3010                     move.w     D0, [A0]
00003AE6  0C40 0003                cmpi.w     D0, 0x3
00003AEA  584F                     addq.w     A7, 4
00003AEC  6200 017E                bhi        +0x180 /* 00003C6C */
00003AF0  D040                     add.w      D0, D0
00003AF2  303B 0006                move.w     D0, [PC + D0.w + 0x6]
00003AF6  4EFB 0000                jmp        [PC + D0.w]
00003AFA  000A 0066                ori.b      A2, 0x66 /* 'f' */
00003AFE  00C2                     .incomplete
00003B00  011C                     btst       [A4]+, D0
00003B02  4878 008C                push.l     0x8C
00003B06  226C 0176                movea.l    A1, [A4 + 0x176]
00003B0A  43E9 0126                lea.l      A1, [A1 + 0x126]
00003B0E  2049                     movea.l    A0, A1
00003B10  226C 0176                movea.l    A1, [A4 + 0x176]
00003B14  2269 012E                movea.l    A1, [A1 + 0x12E]
00003B18  D0E9 0030                add.w      A0, [A1 + 0x30]
00003B1C  2F08                     move.l     -[A7], A0
00003B1E  206C 0176                movea.l    A0, [A4 + 0x176]
00003B22  2068 012E                movea.l    A0, [A0 + 0x12E]
00003B26  2268 0034                movea.l    A1, [A0 + 0x34]
00003B2A  4E91                     jsr        [A1]
00003B2C  206C 017A                movea.l    A0, [A4 + 0x17A]
00003B30  47E8 012A                lea.l      A3, [A0 + 0x12A]
00003B34  2F0B                     move.l     -[A7], A3
00003B36  4EAD 1782                jsr        [A5 + 0x1782 /* export_748, CODE:32 @ 00004E1E */]
00003B3A  4207                     clr.b      D7
00003B3C  7000                     moveq.l    D0, 0x00
00003B3E  1007                     move.b     D0, D7
00003B40  2F00                     move.l     -[A7], D0
00003B42  2F2B 0014                move.l     -[A7], [A3 + 0x14]
00003B46  204D                     movea.l    A0, A5
00003B48  D1FC FFFF 2046           add.l      A0, 0xFFFF2046
00003B4E  4850                     pea.l      [A0]
00003B50  2F0B                     move.l     -[A7], A3
00003B52  4EAD 178A                jsr        [A5 + 0x178A /* export_749, CODE:32 @ 00004E80 */]
00003B56  4FEF 001C                lea.l      A7, [A7 + 0x1C]
00003B5A  6000 0110                bra        +0x112 /* 00003C6C */
00003B5E  4878 008D                push.l     0x8D
00003B62  226C 0176                movea.l    A1, [A4 + 0x176]
00003B66  43E9 0126                lea.l      A1, [A1 + 0x126]
00003B6A  2049                     movea.l    A0, A1
00003B6C  226C 0176                movea.l    A1, [A4 + 0x176]
00003B70  2269 012E                movea.l    A1, [A1 + 0x12E]
00003B74  D0E9 0030                add.w      A0, [A1 + 0x30]
00003B78  2F08                     move.l     -[A7], A0
00003B7A  206C 0176                movea.l    A0, [A4 + 0x176]
00003B7E  2068 012E                movea.l    A0, [A0 + 0x12E]
00003B82  2268 0034                movea.l    A1, [A0 + 0x34]
00003B86  4E91                     jsr        [A1]
00003B88  206C 017A                movea.l    A0, [A4 + 0x17A]
00003B8C  47E8 012A                lea.l      A3, [A0 + 0x12A]
00003B90  2F0B                     move.l     -[A7], A3
00003B92  4EAD 1782                jsr        [A5 + 0x1782 /* export_748, CODE:32 @ 00004E1E */]
00003B96  4207                     clr.b      D7
00003B98  7000                     moveq.l    D0, 0x00
00003B9A  1007                     move.b     D0, D7
00003B9C  2F00                     move.l     -[A7], D0
00003B9E  2F2B 0014                move.l     -[A7], [A3 + 0x14]
00003BA2  204D                     movea.l    A0, A5
00003BA4  D1FC FFFF 204E           add.l      A0, 0xFFFF204E
00003BAA  4850                     pea.l      [A0]
00003BAC  2F0B                     move.l     -[A7], A3
00003BAE  4EAD 178A                jsr        [A5 + 0x178A /* export_749, CODE:32 @ 00004E80 */]
00003BB2  4FEF 001C                lea.l      A7, [A7 + 0x1C]
00003BB6  6000 00B4                bra        +0xB6 /* 00003C6C */
00003BBA  4878 008E                push.l     0x8E
00003BBE  226C 0176                movea.l    A1, [A4 + 0x176]
00003BC2  43E9 0126                lea.l      A1, [A1 + 0x126]
00003BC6  2049                     movea.l    A0, A1
00003BC8  226C 0176                movea.l    A1, [A4 + 0x176]
00003BCC  2269 012E                movea.l    A1, [A1 + 0x12E]
00003BD0  D0E9 0030                add.w      A0, [A1 + 0x30]
00003BD4  2F08                     move.l     -[A7], A0
00003BD6  206C 0176                movea.l    A0, [A4 + 0x176]
00003BDA  2068 012E                movea.l    A0, [A0 + 0x12E]
00003BDE  2268 0034                movea.l    A1, [A0 + 0x34]
00003BE2  4E91                     jsr        [A1]
00003BE4  206C 017A                movea.l    A0, [A4 + 0x17A]
00003BE8  47E8 012A                lea.l      A3, [A0 + 0x12A]
00003BEC  2F0B                     move.l     -[A7], A3
00003BEE  4EAD 1782                jsr        [A5 + 0x1782 /* export_748, CODE:32 @ 00004E1E */]
00003BF2  4207                     clr.b      D7
00003BF4  7000                     moveq.l    D0, 0x00
00003BF6  1007                     move.b     D0, D7
00003BF8  2F00                     move.l     -[A7], D0
00003BFA  2F2B 0014                move.l     -[A7], [A3 + 0x14]
00003BFE  204D                     movea.l    A0, A5
00003C00  D1FC FFFF 2056           add.l      A0, 0xFFFF2056
00003C06  4850                     pea.l      [A0]
00003C08  2F0B                     move.l     -[A7], A3
00003C0A  4EAD 178A                jsr        [A5 + 0x178A /* export_749, CODE:32 @ 00004E80 */]
00003C0E  4FEF 001C                lea.l      A7, [A7 + 0x1C]
00003C12  6058                     bra        +0x5A /* 00003C6C */
00003C14  4878 008F                push.l     0x8F
00003C18  226C 0176                movea.l    A1, [A4 + 0x176]
00003C1C  43E9 0126                lea.l      A1, [A1 + 0x126]
00003C20  2049                     movea.l    A0, A1
00003C22  226C 0176                movea.l    A1, [A4 + 0x176]
00003C26  2269 012E                movea.l    A1, [A1 + 0x12E]
00003C2A  D0E9 0030                add.w      A0, [A1 + 0x30]
00003C2E  2F08                     move.l     -[A7], A0
00003C30  206C 0176                movea.l    A0, [A4 + 0x176]
00003C34  2068 012E                movea.l    A0, [A0 + 0x12E]
00003C38  2268 0034                movea.l    A1, [A0 + 0x34]
00003C3C  4E91                     jsr        [A1]
00003C3E  206C 017A                movea.l    A0, [A4 + 0x17A]
00003C42  47E8 012A                lea.l      A3, [A0 + 0x12A]
00003C46  2F0B                     move.l     -[A7], A3
00003C48  4EAD 1782                jsr        [A5 + 0x1782 /* export_748, CODE:32 @ 00004E1E */]
00003C4C  4207                     clr.b      D7
00003C4E  7000                     moveq.l    D0, 0x00
00003C50  1007                     move.b     D0, D7
00003C52  2F00                     move.l     -[A7], D0
00003C54  2F2B 0014                move.l     -[A7], [A3 + 0x14]
00003C58  204D                     movea.l    A0, A5
00003C5A  D1FC FFFF 205E           add.l      A0, 0xFFFF205E
00003C60  4850                     pea.l      [A0]
00003C62  2F0B                     move.l     -[A7], A3
00003C64  4EAD 178A                jsr        [A5 + 0x178A /* export_749, CODE:32 @ 00004E80 */]
00003C68  4FEF 001C                lea.l      A7, [A7 + 0x1C]
label00003C6C:
00003C6C  2F2C 017A                move.l     -[A7], [A4 + 0x17A]
00003C70  4EAD 1F52                jsr        [A5 + 0x1F52 /* export_998, CODE:37 @ 000014C8 */]
00003C74  206C 0176                movea.l    A0, [A4 + 0x176]
00003C78  4868 0096                pea.l      [A0 + 0x96]
00003C7C  A928                     syscall    InvalRect
00003C7E  2F2C 0192                move.l     -[A7], [A4 + 0x192]
00003C82  4EAD 1F52                jsr        [A5 + 0x1F52 /* export_998, CODE:37 @ 000014C8 */]
00003C86  2F2C 0196                move.l     -[A7], [A4 + 0x196]
00003C8A  4EAD 1F52                jsr        [A5 + 0x1F52 /* export_998, CODE:37 @ 000014C8 */]
00003C8E  204D                     movea.l    A0, A5
00003C90  D1FC FFFE BEA2           add.l      A0, 0xFFFEBEA2
00003C96  3E10                     move.w     D7, [A0]
00003C98  4FEF 000C                lea.l      A7, [A7 + 0xC]
00003C9C  6602                     bne        +0x4 /* 00003CA0 */
00003C9E  7E01                     moveq.l    D7, 0x01
label00003CA0:
00003CA0  7050                     moveq.l    D0, 0x50
00003CA2  204D                     movea.l    A0, A5
00003CA4  D1FC FFFE BEB8           add.l      A0, 0xFFFEBEB8
00003CAA  C1D0                     muls.w     D0, [A0]
00003CAC  48C7                     ext.l      D7
00003CAE  4C47 0800                divs.l     D0:D0, D7
00003CB2  204D                     movea.l    A0, A5
00003CB4  D1FC FFFE BEC2           add.l      A0, 0xFFFEBEC2
00003CBA  3080                     move.w     [A0], D0
00003CBC  7000                     moveq.l    D0, 0x00
00003CBE  204D                     movea.l    A0, A5
00003CC0  D1FC FFFE BEC2           add.l      A0, 0xFFFEBEC2
00003CC6  3010                     move.w     D0, [A0]
00003CC8  0C40 0050                cmpi.w     D0, 0x50 /* 'P' */
00003CCC  630C                     bls        +0xE /* 00003CDA */
00003CCE  204D                     movea.l    A0, A5
00003CD0  D1FC FFFE BEC2           add.l      A0, 0xFFFEBEC2
00003CD6  30BC 0050                move.w     [A0], 0x50 /* 'P' */
label00003CDA:
00003CDA  7000                     moveq.l    D0, 0x00
00003CDC  204D                     movea.l    A0, A5
00003CDE  D1FC FFFE BEC2           add.l      A0, 0xFFFEBEC2
00003CE4  3010                     move.w     D0, [A0]
00003CE6  4A80                     tst.l      D0
00003CE8  6444                     bcc        +0x46 /* 00003D2E */
00003CEA  7000                     moveq.l    D0, 0x00
00003CEC  204D                     movea.l    A0, A5
00003CEE  D1FC FFFE BEC2           add.l      A0, 0xFFFEBEC2
00003CF4  3010                     move.w     D0, [A0]
00003CF6  4480                     neg.l      D0
00003CF8  204D                     movea.l    A0, A5
00003CFA  D1FC FFFE BEC2           add.l      A0, 0xFFFEBEC2
00003D00  3080                     move.w     [A0], D0
00003D02  204D                     movea.l    A0, A5
00003D04  D1FC FFFF 2808           add.l      A0, 0xFFFF2808
00003D0A  2F10                     move.l     -[A7], [A0]
00003D0C  206C 017E                movea.l    A0, [A4 + 0x17E]
00003D10  2248                     movea.l    A1, A0
00003D12  2269 0060                movea.l    A1, [A1 + 0x60]
00003D16  D0E9 0080                add.w      A0, [A1 + 0x80]
00003D1A  2F08                     move.l     -[A7], A0
00003D1C  206C 017E                movea.l    A0, [A4 + 0x17E]
00003D20  2068 0060                movea.l    A0, [A0 + 0x60]
00003D24  2268 0084                movea.l    A1, [A0 + 0x84]
00003D28  4E91                     jsr        [A1]
00003D2A  504F                     addq.w     A7, 8
00003D2C  602A                     bra        +0x2C /* 00003D58 */
label00003D2E:
00003D2E  204D                     movea.l    A0, A5
00003D30  D1FC FFFF 2804           add.l      A0, 0xFFFF2804
00003D36  2F10                     move.l     -[A7], [A0]
00003D38  206C 017E                movea.l    A0, [A4 + 0x17E]
00003D3C  2248                     movea.l    A1, A0
00003D3E  2269 0060                movea.l    A1, [A1 + 0x60]
00003D42  D0E9 0080                add.w      A0, [A1 + 0x80]
00003D46  2F08                     move.l     -[A7], A0
00003D48  206C 017E                movea.l    A0, [A4 + 0x17E]
00003D4C  2068 0060                movea.l    A0, [A0 + 0x60]
00003D50  2268 0084                movea.l    A1, [A0 + 0x84]
00003D54  4E91                     jsr        [A1]
00003D56  504F                     addq.w     A7, 8
label00003D58:
00003D58  7000                     moveq.l    D0, 0x00
00003D5A  204D                     movea.l    A0, A5
00003D5C  D1FC FFFE BEC2           add.l      A0, 0xFFFEBEC2
00003D62  3010                     move.w     D0, [A0]
00003D64  2D40 FFC0                move.l     [A6 - 0x40], D0
00003D68  486E FFC0                pea.l      [A6 - 0x40]
00003D6C  486E FFC4                pea.l      [A6 - 0x3C]
00003D70  3F3C 280E                move.w     -[A7], 0x280E
00003D74  A9EB                     syscall    Pack4/FP68K
00003D76  487A 0470                pea.l      [PC + 0x470 /* 000041E8, value 0x4005C800 */]
00003D7A  486E FFC4                pea.l      [A6 - 0x3C]
00003D7E  3F3C 0006                move.w     -[A7], 0x6
00003D82  A9EB                     syscall    Pack4/FP68K
00003D84  41EE FFC4                lea.l      A0, [A6 - 0x3C]
00003D88  43EE FFCE                lea.l      A1, [A6 - 0x32]
00003D8C  22D8                     move.l     [A1]+, [A0]+
00003D8E  22D8                     move.l     [A1]+, [A0]+
00003D90  32D8                     move.w     [A1]+, [A0]+
00003D92  206C 017E                movea.l    A0, [A4 + 0x17E]
00003D96  43EE FFCE                lea.l      A1, [A6 - 0x32]
00003D9A  45E8 01CC                lea.l      A2, [A0 + 0x1CC]
00003D9E  24D9                     move.l     [A2]+, [A1]+
00003DA0  24D9                     move.l     [A2]+, [A1]+
00003DA2  34D9                     move.w     [A2]+, [A1]+
00003DA4  206C 017E                movea.l    A0, [A4 + 0x17E]
00003DA8  4868 0096                pea.l      [A0 + 0x96]
00003DAC  A928                     syscall    InvalRect
00003DAE  204D                     movea.l    A0, A5
00003DB0  D1FC FFFE BE9E           add.l      A0, 0xFFFEBE9E
00003DB6  3E10                     move.w     D7, [A0]
00003DB8  6602                     bne        +0x4 /* 00003DBC */
00003DBA  7E01                     moveq.l    D7, 0x01
label00003DBC:
00003DBC  7050                     moveq.l    D0, 0x50
00003DBE  204D                     movea.l    A0, A5
00003DC0  D1FC FFFE BEB4           add.l      A0, 0xFFFEBEB4
00003DC6  C1D0                     muls.w     D0, [A0]
00003DC8  48C7                     ext.l      D7
00003DCA  4C47 0800                divs.l     D0:D0, D7
00003DCE  204D                     movea.l    A0, A5
00003DD0  D1FC FFFE BEC0           add.l      A0, 0xFFFEBEC0
00003DD6  3080                     move.w     [A0], D0
00003DD8  7000                     moveq.l    D0, 0x00
00003DDA  204D                     movea.l    A0, A5
00003DDC  D1FC FFFE BEC0           add.l      A0, 0xFFFEBEC0
00003DE2  3010                     move.w     D0, [A0]
00003DE4  0C40 0050                cmpi.w     D0, 0x50 /* 'P' */
00003DE8  630C                     bls        +0xE /* 00003DF6 */
00003DEA  204D                     movea.l    A0, A5
00003DEC  D1FC FFFE BEC0           add.l      A0, 0xFFFEBEC0
00003DF2  30BC 0050                move.w     [A0], 0x50 /* 'P' */
label00003DF6:
00003DF6  7000                     moveq.l    D0, 0x00
00003DF8  204D                     movea.l    A0, A5
00003DFA  D1FC FFFE BEC0           add.l      A0, 0xFFFEBEC0
00003E00  3010                     move.w     D0, [A0]
00003E02  4A80                     tst.l      D0
00003E04  6444                     bcc        +0x46 /* 00003E4A */
00003E06  7000                     moveq.l    D0, 0x00
00003E08  204D                     movea.l    A0, A5
00003E0A  D1FC FFFE BEC0           add.l      A0, 0xFFFEBEC0
00003E10  3010                     move.w     D0, [A0]
00003E12  4480                     neg.l      D0
00003E14  204D                     movea.l    A0, A5
00003E16  D1FC FFFE BEC0           add.l      A0, 0xFFFEBEC0
00003E1C  3080                     move.w     [A0], D0
00003E1E  204D                     movea.l    A0, A5
00003E20  D1FC FFFF 2808           add.l      A0, 0xFFFF2808
00003E26  2F10                     move.l     -[A7], [A0]
00003E28  206C 0182                movea.l    A0, [A4 + 0x182]
00003E2C  2248                     movea.l    A1, A0
00003E2E  2269 0060                movea.l    A1, [A1 + 0x60]
00003E32  D0E9 0080                add.w      A0, [A1 + 0x80]
00003E36  2F08                     move.l     -[A7], A0
00003E38  206C 0182                movea.l    A0, [A4 + 0x182]
00003E3C  2068 0060                movea.l    A0, [A0 + 0x60]
00003E40  2268 0084                movea.l    A1, [A0 + 0x84]
00003E44  4E91                     jsr        [A1]
00003E46  504F                     addq.w     A7, 8
00003E48  602A                     bra        +0x2C /* 00003E74 */
label00003E4A:
00003E4A  204D                     movea.l    A0, A5
00003E4C  D1FC FFFF 2804           add.l      A0, 0xFFFF2804
00003E52  2F10                     move.l     -[A7], [A0]
00003E54  206C 0182                movea.l    A0, [A4 + 0x182]
00003E58  2248                     movea.l    A1, A0
00003E5A  2269 0060                movea.l    A1, [A1 + 0x60]
00003E5E  D0E9 0080                add.w      A0, [A1 + 0x80]
00003E62  2F08                     move.l     -[A7], A0
00003E64  206C 0182                movea.l    A0, [A4 + 0x182]
00003E68  2068 0060                movea.l    A0, [A0 + 0x60]
00003E6C  2268 0084                movea.l    A1, [A0 + 0x84]
00003E70  4E91                     jsr        [A1]
00003E72  504F                     addq.w     A7, 8
label00003E74:
00003E74  7000                     moveq.l    D0, 0x00
00003E76  204D                     movea.l    A0, A5
00003E78  D1FC FFFE BEC0           add.l      A0, 0xFFFEBEC0
00003E7E  3010                     move.w     D0, [A0]
00003E80  2D40 FFBC                move.l     [A6 - 0x44], D0
00003E84  486E FFBC                pea.l      [A6 - 0x44]
00003E88  486E FFC4                pea.l      [A6 - 0x3C]
00003E8C  3F3C 280E                move.w     -[A7], 0x280E
00003E90  A9EB                     syscall    Pack4/FP68K
00003E92  487A 0354                pea.l      [PC + 0x354 /* 000041E8, value 0x4005C800 */]
00003E96  486E FFC4                pea.l      [A6 - 0x3C]
00003E9A  3F3C 0006                move.w     -[A7], 0x6
00003E9E  A9EB                     syscall    Pack4/FP68K
00003EA0  41EE FFC4                lea.l      A0, [A6 - 0x3C]
00003EA4  43EE FFD8                lea.l      A1, [A6 - 0x28]
00003EA8  22D8                     move.l     [A1]+, [A0]+
00003EAA  22D8                     move.l     [A1]+, [A0]+
00003EAC  32D8                     move.w     [A1]+, [A0]+
00003EAE  206C 0182                movea.l    A0, [A4 + 0x182]
00003EB2  43EE FFD8                lea.l      A1, [A6 - 0x28]
00003EB6  45E8 01CC                lea.l      A2, [A0 + 0x1CC]
00003EBA  24D9                     move.l     [A2]+, [A1]+
00003EBC  24D9                     move.l     [A2]+, [A1]+
00003EBE  34D9                     move.w     [A2]+, [A1]+
00003EC0  206C 0182                movea.l    A0, [A4 + 0x182]
00003EC4  4868 0096                pea.l      [A0 + 0x96]
00003EC8  A928                     syscall    InvalRect
00003ECA  700C                     moveq.l    D0, 0x0C
00003ECC  204D                     movea.l    A0, A5
00003ECE  D1FC FFFE BEB0           add.l      A0, 0xFFFEBEB0
00003ED4  C1D0                     muls.w     D0, [A0]
00003ED6  204D                     movea.l    A0, A5
00003ED8  D1FC FFFE BEBE           add.l      A0, 0xFFFEBEBE
00003EDE  3080                     move.w     [A0], D0
00003EE0  7000                     moveq.l    D0, 0x00
00003EE2  204D                     movea.l    A0, A5
00003EE4  D1FC FFFE BEBE           add.l      A0, 0xFFFEBEBE
00003EEA  3010                     move.w     D0, [A0]
00003EEC  0C40 0050                cmpi.w     D0, 0x50 /* 'P' */
00003EF0  630C                     bls        +0xE /* 00003EFE */
00003EF2  204D                     movea.l    A0, A5
00003EF4  D1FC FFFE BEBE           add.l      A0, 0xFFFEBEBE
00003EFA  30BC 0050                move.w     [A0], 0x50 /* 'P' */
label00003EFE:
00003EFE  7000                     moveq.l    D0, 0x00
00003F00  204D                     movea.l    A0, A5
00003F02  D1FC FFFE BEBE           add.l      A0, 0xFFFEBEBE
00003F08  3010                     move.w     D0, [A0]
00003F0A  4A80                     tst.l      D0
00003F0C  6444                     bcc        +0x46 /* 00003F52 */
00003F0E  7000                     moveq.l    D0, 0x00
00003F10  204D                     movea.l    A0, A5
00003F12  D1FC FFFE BEBE           add.l      A0, 0xFFFEBEBE
00003F18  3010                     move.w     D0, [A0]
00003F1A  4480                     neg.l      D0
00003F1C  204D                     movea.l    A0, A5
00003F1E  D1FC FFFE BEBE           add.l      A0, 0xFFFEBEBE
00003F24  3080                     move.w     [A0], D0
00003F26  204D                     movea.l    A0, A5
00003F28  D1FC FFFF 2808           add.l      A0, 0xFFFF2808
00003F2E  2F10                     move.l     -[A7], [A0]
00003F30  206C 0186                movea.l    A0, [A4 + 0x186]
00003F34  2248                     movea.l    A1, A0
00003F36  2269 0060                movea.l    A1, [A1 + 0x60]
00003F3A  D0E9 0080                add.w      A0, [A1 + 0x80]
00003F3E  2F08                     move.l     -[A7], A0
00003F40  206C 0186                movea.l    A0, [A4 + 0x186]
00003F44  2068 0060                movea.l    A0, [A0 + 0x60]
00003F48  2268 0084                movea.l    A1, [A0 + 0x84]
00003F4C  4E91                     jsr        [A1]
00003F4E  504F                     addq.w     A7, 8
00003F50  602A                     bra        +0x2C /* 00003F7C */
label00003F52:
00003F52  204D                     movea.l    A0, A5
00003F54  D1FC FFFF 2804           add.l      A0, 0xFFFF2804
00003F5A  2F10                     move.l     -[A7], [A0]
00003F5C  206C 0186                movea.l    A0, [A4 + 0x186]
00003F60  2248                     movea.l    A1, A0
00003F62  2269 0060                movea.l    A1, [A1 + 0x60]
00003F66  D0E9 0080                add.w      A0, [A1 + 0x80]
00003F6A  2F08                     move.l     -[A7], A0
00003F6C  206C 0186                movea.l    A0, [A4 + 0x186]
00003F70  2068 0060                movea.l    A0, [A0 + 0x60]
00003F74  2268 0084                movea.l    A1, [A0 + 0x84]
00003F78  4E91                     jsr        [A1]
00003F7A  504F                     addq.w     A7, 8
label00003F7C:
00003F7C  7000                     moveq.l    D0, 0x00
00003F7E  204D                     movea.l    A0, A5
00003F80  D1FC FFFE BEBE           add.l      A0, 0xFFFEBEBE
00003F86  3010                     move.w     D0, [A0]
00003F88  2D40 FFB8                move.l     [A6 - 0x48], D0
00003F8C  486E FFB8                pea.l      [A6 - 0x48]
00003F90  486E FFC4                pea.l      [A6 - 0x3C]
00003F94  3F3C 280E                move.w     -[A7], 0x280E
00003F98  A9EB                     syscall    Pack4/FP68K
00003F9A  487A 024C                pea.l      [PC + 0x24C /* 000041E8, value 0x4005C800 */]
00003F9E  486E FFC4                pea.l      [A6 - 0x3C]
00003FA2  3F3C 0006                move.w     -[A7], 0x6
00003FA6  A9EB                     syscall    Pack4/FP68K
00003FA8  41EE FFC4                lea.l      A0, [A6 - 0x3C]
00003FAC  43EE FFE2                lea.l      A1, [A6 - 0x1E]
00003FB0  22D8                     move.l     [A1]+, [A0]+
00003FB2  22D8                     move.l     [A1]+, [A0]+
00003FB4  32D8                     move.w     [A1]+, [A0]+
00003FB6  206C 0186                movea.l    A0, [A4 + 0x186]
00003FBA  43EE FFE2                lea.l      A1, [A6 - 0x1E]
00003FBE  45E8 01CC                lea.l      A2, [A0 + 0x1CC]
00003FC2  24D9                     move.l     [A2]+, [A1]+
00003FC4  24D9                     move.l     [A2]+, [A1]+
00003FC6  34D9                     move.w     [A2]+, [A1]+
00003FC8  206C 0186                movea.l    A0, [A4 + 0x186]
00003FCC  4868 0096                pea.l      [A0 + 0x96]
00003FD0  A928                     syscall    InvalRect
00003FD2  204D                     movea.l    A0, A5
00003FD4  D1FC FFFD AFAC           add.l      A0, 0xFFFDAFAC
00003FDA  3E10                     move.w     D7, [A0]
00003FDC  6602                     bne        +0x4 /* 00003FE0 */
00003FDE  7E01                     moveq.l    D7, 0x01
label00003FE0:
00003FE0  204D                     movea.l    A0, A5
00003FE2  D1FC FFFE BEC6           add.l      A0, 0xFFFEBEC6
00003FE8  3010                     move.w     D0, [A0]
00003FEA  C1FC 0050                muls.w     D0, 0x50 /* 'P' */
00003FEE  48C7                     ext.l      D7
00003FF0  4C47 0800                divs.l     D0:D0, D7
00003FF4  204D                     movea.l    A0, A5
00003FF6  D1FC FFFE BEBC           add.l      A0, 0xFFFEBEBC
00003FFC  3080                     move.w     [A0], D0
00003FFE  7000                     moveq.l    D0, 0x00
00004000  204D                     movea.l    A0, A5
00004002  D1FC FFFE BEBC           add.l      A0, 0xFFFEBEBC
00004008  3010                     move.w     D0, [A0]
0000400A  4A80                     tst.l      D0
0000400C  6638                     bne        +0x3A /* 00004046 */
0000400E  204D                     movea.l    A0, A5
00004010  D1FC FFFE BEBC           add.l      A0, 0xFFFEBEBC
00004016  30BC 0050                move.w     [A0], 0x50 /* 'P' */
0000401A  204D                     movea.l    A0, A5
0000401C  D1FC FFFF 2804           add.l      A0, 0xFFFF2804
00004022  2F10                     move.l     -[A7], [A0]
00004024  206C 018A                movea.l    A0, [A4 + 0x18A]
00004028  2248                     movea.l    A1, A0
0000402A  2269 0060                movea.l    A1, [A1 + 0x60]
0000402E  D0E9 0080                add.w      A0, [A1 + 0x80]
00004032  2F08                     move.l     -[A7], A0
00004034  206C 018A                movea.l    A0, [A4 + 0x18A]
00004038  2068 0060                movea.l    A0, [A0 + 0x60]
0000403C  2268 0084                movea.l    A1, [A0 + 0x84]
00004040  4E91                     jsr        [A1]
00004042  504F                     addq.w     A7, 8
00004044  602A                     bra        +0x2C /* 00004070 */
label00004046:
00004046  204D                     movea.l    A0, A5
00004048  D1FC FFFF 2808           add.l      A0, 0xFFFF2808
0000404E  2F10                     move.l     -[A7], [A0]
00004050  206C 018A                movea.l    A0, [A4 + 0x18A]
00004054  2248                     movea.l    A1, A0
00004056  2269 0060                movea.l    A1, [A1 + 0x60]
0000405A  D0E9 0080                add.w      A0, [A1 + 0x80]
0000405E  2F08                     move.l     -[A7], A0
00004060  206C 018A                movea.l    A0, [A4 + 0x18A]
00004064  2068 0060                movea.l    A0, [A0 + 0x60]
00004068  2268 0084                movea.l    A1, [A0 + 0x84]
0000406C  4E91                     jsr        [A1]
0000406E  504F                     addq.w     A7, 8
label00004070:
00004070  7000                     moveq.l    D0, 0x00
00004072  204D                     movea.l    A0, A5
00004074  D1FC FFFE BEBC           add.l      A0, 0xFFFEBEBC
0000407A  3010                     move.w     D0, [A0]
0000407C  2D40 FFB4                move.l     [A6 - 0x4C], D0
00004080  486E FFB4                pea.l      [A6 - 0x4C]
00004084  486E FFC4                pea.l      [A6 - 0x3C]
00004088  3F3C 280E                move.w     -[A7], 0x280E
0000408C  A9EB                     syscall    Pack4/FP68K
0000408E  487A 0158                pea.l      [PC + 0x158 /* 000041E8, value 0x4005C800 */]
00004092  486E FFC4                pea.l      [A6 - 0x3C]
00004096  3F3C 0006                move.w     -[A7], 0x6
0000409A  A9EB                     syscall    Pack4/FP68K
0000409C  41EE FFC4                lea.l      A0, [A6 - 0x3C]
000040A0  43EE FFEC                lea.l      A1, [A6 - 0x14]
000040A4  22D8                     move.l     [A1]+, [A0]+
000040A6  22D8                     move.l     [A1]+, [A0]+
000040A8  32D8                     move.w     [A1]+, [A0]+
000040AA  206C 018A                movea.l    A0, [A4 + 0x18A]
000040AE  43EE FFEC                lea.l      A1, [A6 - 0x14]
000040B2  45E8 01CC                lea.l      A2, [A0 + 0x1CC]
000040B6  24D9                     move.l     [A2]+, [A1]+
000040B8  24D9                     move.l     [A2]+, [A1]+
000040BA  34D9                     move.w     [A2]+, [A1]+
000040BC  206C 018A                movea.l    A0, [A4 + 0x18A]
000040C0  4868 0096                pea.l      [A0 + 0x96]
000040C4  A928                     syscall    InvalRect
000040C6  7050                     moveq.l    D0, 0x50
000040C8  204D                     movea.l    A0, A5
000040CA  D1FC FFFE BEC4           add.l      A0, 0xFFFEBEC4
000040D0  C1D0                     muls.w     D0, [A0]
000040D2  48C7                     ext.l      D7
000040D4  4C47 0800                divs.l     D0:D0, D7
000040D8  204D                     movea.l    A0, A5
000040DA  D1FC FFFE BEBA           add.l      A0, 0xFFFEBEBA
000040E0  3080                     move.w     [A0], D0
000040E2  7000                     moveq.l    D0, 0x00
000040E4  204D                     movea.l    A0, A5
000040E6  D1FC FFFE BEBA           add.l      A0, 0xFFFEBEBA
000040EC  3010                     move.w     D0, [A0]
000040EE  4A80                     tst.l      D0
000040F0  6638                     bne        +0x3A /* 0000412A */
000040F2  204D                     movea.l    A0, A5
000040F4  D1FC FFFE BEBA           add.l      A0, 0xFFFEBEBA
000040FA  30BC 0050                move.w     [A0], 0x50 /* 'P' */
000040FE  204D                     movea.l    A0, A5
00004100  D1FC FFFF 2804           add.l      A0, 0xFFFF2804
00004106  2F10                     move.l     -[A7], [A0]
00004108  206C 018E                movea.l    A0, [A4 + 0x18E]
0000410C  2248                     movea.l    A1, A0
0000410E  2269 0060                movea.l    A1, [A1 + 0x60]
00004112  D0E9 0080                add.w      A0, [A1 + 0x80]
00004116  2F08                     move.l     -[A7], A0
00004118  206C 018E                movea.l    A0, [A4 + 0x18E]
0000411C  2068 0060                movea.l    A0, [A0 + 0x60]
00004120  2268 0084                movea.l    A1, [A0 + 0x84]
00004124  4E91                     jsr        [A1]
00004126  504F                     addq.w     A7, 8
00004128  602A                     bra        +0x2C /* 00004154 */
label0000412A:
0000412A  204D                     movea.l    A0, A5
0000412C  D1FC FFFF 2808           add.l      A0, 0xFFFF2808
00004132  2F10                     move.l     -[A7], [A0]
00004134  206C 018E                movea.l    A0, [A4 + 0x18E]
00004138  2248                     movea.l    A1, A0
0000413A  2269 0060                movea.l    A1, [A1 + 0x60]
0000413E  D0E9 0080                add.w      A0, [A1 + 0x80]
00004142  2F08                     move.l     -[A7], A0
00004144  206C 018E                movea.l    A0, [A4 + 0x18E]
00004148  2068 0060                movea.l    A0, [A0 + 0x60]
0000414C  2268 0084                movea.l    A1, [A0 + 0x84]
00004150  4E91                     jsr        [A1]
00004152  504F                     addq.w     A7, 8
label00004154:
00004154  7000                     moveq.l    D0, 0x00
00004156  204D                     movea.l    A0, A5
00004158  D1FC FFFE BEBA           add.l      A0, 0xFFFEBEBA
0000415E  3010                     move.w     D0, [A0]
00004160  2D40 FFB0                move.l     [A6 - 0x50], D0
00004164  486E FFB0                pea.l      [A6 - 0x50]
00004168  486E FFC4                pea.l      [A6 - 0x3C]
0000416C  3F3C 280E                move.w     -[A7], 0x280E
00004170  A9EB                     syscall    Pack4/FP68K
00004172  487A 0074                pea.l      [PC + 0x74 /* 000041E8, value 0x4005C800 */]
00004176  486E FFC4                pea.l      [A6 - 0x3C]
0000417A  3F3C 0006                move.w     -[A7], 0x6
0000417E  A9EB                     syscall    Pack4/FP68K
00004180  41EE FFC4                lea.l      A0, [A6 - 0x3C]
00004184  43EE FFF6                lea.l      A1, [A6 - 0xA]
00004188  22D8                     move.l     [A1]+, [A0]+
0000418A  22D8                     move.l     [A1]+, [A0]+
0000418C  32D8                     move.w     [A1]+, [A0]+
0000418E  206C 018E                movea.l    A0, [A4 + 0x18E]
00004192  43EE FFF6                lea.l      A1, [A6 - 0xA]
00004196  45E8 01CC                lea.l      A2, [A0 + 0x1CC]
0000419A  24D9                     move.l     [A2]+, [A1]+
0000419C  24D9                     move.l     [A2]+, [A1]+
0000419E  34D9                     move.w     [A2]+, [A1]+
000041A0  206C 018E                movea.l    A0, [A4 + 0x18E]
000041A4  4868 0096                pea.l      [A0 + 0x96]
000041A8  A928                     syscall    InvalRect
000041AA  2F0C                     move.l     -[A7], A4
000041AC  4EAD 11EA                jsr        [A5 + 0x11EA /* export_569, CODE:26 @ 00003268 */]
000041B0  584F                     addq.w     A7, 4
000041B2  4CEE 1C80 FFA0           movem.l    D7,A2,A3,A4, [A6 - 0x60]
000041B8  4E5E                     unlink     A6
000041BA  4E75                     rts
000041BC  8027 5570 6461 7465 4... dc.b       "UpdateIndicators__17cEvaluationWindowFv" + 10 constant bytes
export_348:
000041F2  4E56 0000                link       A6, 0
000041F6  48E7 0018                movem.l    -[A7], A3,A4
000041FA  286E 0008                movea.l    A4, [A6 + 0x8]
000041FE  302E 000E                move.w     D0, [A6 + 0xE]
00004202  5540                     subq.w     D0, 2
00004204  6B00 03F4                bmi        +0x3F6 /* 000045FA */
00004208  0C40 0008                cmpi.w     D0, 0x8
0000420C  6E00 03EC                bgt        +0x3EE /* 000045FA */
00004210  D040                     add.w      D0, D0
00004212  303B 0006                move.w     D0, [PC + D0.w + 0x6]
00004216  4EFB 0000                jmp        [PC + D0.w]
0000421A  0014 0084                ori.b      [A4], 0x84
0000421E  00CC                     .incomplete
00004220  0156                     bchg       [A6], D0
00004222  01E0                     .incomplete
00004224  026A 02F4 037C           andi.w     [A2 + 0x37C], 0x2F4
0000422A  03B0 4878                bclr       [A0 + D4 + 0x78], D1
0000422E  008C 2F0C 7000           ori.l      A4, 0x2F0C7000
00004234  2F00                     move.l     -[A7], D0
00004236  2F00                     move.l     -[A7], D0
00004238  4EAD 19A2                jsr        [A5 + 0x19A2 /* export_816, CODE:33 @ 000023B4 */]
0000423C  2940 0176                move.l     [A4 + 0x176], D0
00004240  2040                     movea.l    A0, D0
00004242  47E8 0086                lea.l      A3, [A0 + 0x86]
00004246  206E 0010                movea.l    A0, [A6 + 0x10]
0000424A  3010                     move.w     D0, [A0]
0000424C  906B 0010                sub.w      D0, [A3 + 0x10]
00004250  48C0                     ext.l      D0
00004252  2F00                     move.l     -[A7], D0
00004254  206E 0010                movea.l    A0, [A6 + 0x10]
00004258  3028 0002                move.w     D0, [A0 + 0x2]
0000425C  906B 0012                sub.w      D0, [A3 + 0x12]
00004260  48C0                     ext.l      D0
00004262  2F00                     move.l     -[A7], D0
00004264  204B                     movea.l    A0, A3
00004266  226B 0008                movea.l    A1, [A3 + 0x8]
0000426A  D0E9 0040                add.w      A0, [A1 + 0x40]
0000426E  2F08                     move.l     -[A7], A0
00004270  2049                     movea.l    A0, A1
00004272  2268 0044                movea.l    A1, [A0 + 0x44]
00004276  4E91                     jsr        [A1]
00004278  4AAC 0176                tst.l      [A4 + 0x176]
0000427C  670C                     beq        +0xE /* 0000428A */
0000427E  202C 0176                move.l     D0, [A4 + 0x176]
00004282  D0BC 0000 0086           add.l      D0, 0x86
00004288  6002                     bra        +0x4 /* 0000428C */
label0000428A:
0000428A  7000                     moveq.l    D0, 0x00
label0000428C:
0000428C  2F00                     move.l     -[A7], D0
0000428E  2F0C                     move.l     -[A7], A4
00004290  4EAD 11F2                jsr        [A5 + 0x11F2 /* export_570, CODE:26 @ 000032DA */]
00004294  4FEF 0024                lea.l      A7, [A7 + 0x24]
00004298  6000 0360                bra        +0x362 /* 000045FA */
0000429C  7000                     moveq.l    D0, 0x00
0000429E  2F00                     move.l     -[A7], D0
000042A0  7201                     moveq.l    D1, 0x01
000042A2  2F01                     move.l     -[A7], D1
000042A4  7009                     moveq.l    D0, 0x09
000042A6  2F00                     move.l     -[A7], D0
000042A8  7003                     moveq.l    D0, 0x03
000042AA  2F00                     move.l     -[A7], D0
000042AC  7000                     moveq.l    D0, 0x00
000042AE  2F00                     move.l     -[A7], D0
000042B0  2F2E 0010                move.l     -[A7], [A6 + 0x10]
000042B4  2F0C                     move.l     -[A7], A4
000042B6  2F0C                     move.l     -[A7], A4
000042B8  2F00                     move.l     -[A7], D0
000042BA  2F00                     move.l     -[A7], D0
000042BC  4EAD 1A22                jsr        [A5 + 0x1A22 /* export_832, CODE:34 @ 00000ED0 */]
000042C0  2940 017A                move.l     [A4 + 0x17A], D0
000042C4  670C                     beq        +0xE /* 000042D2 */
000042C6  202C 017A                move.l     D0, [A4 + 0x17A]
000042CA  D0BC 0000 0080           add.l      D0, 0x80
000042D0  6002                     bra        +0x4 /* 000042D4 */
label000042D2:
000042D2  7000                     moveq.l    D0, 0x00
label000042D4:
000042D4  2F00                     move.l     -[A7], D0
000042D6  2F0C                     move.l     -[A7], A4
000042D8  4EAD 11F2                jsr        [A5 + 0x11F2 /* export_570, CODE:26 @ 000032DA */]
000042DC  4FEF 0030                lea.l      A7, [A7 + 0x30]
000042E0  6000 0318                bra        +0x31A /* 000045FA */
000042E4  7000                     moveq.l    D0, 0x00
000042E6  2F00                     move.l     -[A7], D0
000042E8  204D                     movea.l    A0, A5
000042EA  D1FC FFFF 2064           add.l      A0, 0xFFFF2064
000042F0  4850                     pea.l      [A0]
000042F2  204D                     movea.l    A0, A5
000042F4  D1FC FFFF 2066           add.l      A0, 0xFFFF2066
000042FA  4850                     pea.l      [A0]
000042FC  204D                     movea.l    A0, A5
000042FE  D1FC FFFF 2068           add.l      A0, 0xFFFF2068
00004304  4850                     pea.l      [A0]
00004306  204D                     movea.l    A0, A5
00004308  D1FC FFFF 206A           add.l      A0, 0xFFFF206A
0000430E  4850                     pea.l      [A0]
00004310  2F2E 0010                move.l     -[A7], [A6 + 0x10]
00004314  2F0C                     move.l     -[A7], A4
00004316  2F00                     move.l     -[A7], D0
00004318  2F00                     move.l     -[A7], D0
0000431A  4EAD 18F2                jsr        [A5 + 0x18F2 /* export_794, CODE:33 @ 000003AE */]
0000431E  2940 017E                move.l     [A4 + 0x17E], D0
00004322  204D                     movea.l    A0, A5
00004324  D1FC FFFF 2804           add.l      A0, 0xFFFF2804
0000432A  2F10                     move.l     -[A7], [A0]
0000432C  206C 017E                movea.l    A0, [A4 + 0x17E]
00004330  2248                     movea.l    A1, A0
00004332  2269 0060                movea.l    A1, [A1 + 0x60]
00004336  D0E9 0080                add.w      A0, [A1 + 0x80]
0000433A  2F08                     move.l     -[A7], A0
0000433C  206C 017E                movea.l    A0, [A4 + 0x17E]
00004340  2068 0060                movea.l    A0, [A0 + 0x60]
00004344  2268 0084                movea.l    A1, [A0 + 0x84]
00004348  4E91                     jsr        [A1]
0000434A  4AAC 017E                tst.l      [A4 + 0x17E]
0000434E  670C                     beq        +0xE /* 0000435C */
00004350  202C 017E                move.l     D0, [A4 + 0x17E]
00004354  D0BC 0000 0086           add.l      D0, 0x86
0000435A  6002                     bra        +0x4 /* 0000435E */
label0000435C:
0000435C  7000                     moveq.l    D0, 0x00
label0000435E:
0000435E  2F00                     move.l     -[A7], D0
00004360  2F0C                     move.l     -[A7], A4
00004362  4EAD 11F2                jsr        [A5 + 0x11F2 /* export_570, CODE:26 @ 000032DA */]
00004366  4FEF 0034                lea.l      A7, [A7 + 0x34]
0000436A  6000 028E                bra        +0x290 /* 000045FA */
0000436E  7000                     moveq.l    D0, 0x00
00004370  2F00                     move.l     -[A7], D0
00004372  204D                     movea.l    A0, A5
00004374  D1FC FFFF 206C           add.l      A0, 0xFFFF206C
0000437A  4850                     pea.l      [A0]
0000437C  204D                     movea.l    A0, A5
0000437E  D1FC FFFF 206E           add.l      A0, 0xFFFF206E
00004384  4850                     pea.l      [A0]
00004386  204D                     movea.l    A0, A5
00004388  D1FC FFFF 2070           add.l      A0, 0xFFFF2070
0000438E  4850                     pea.l      [A0]
00004390  204D                     movea.l    A0, A5
00004392  D1FC FFFF 2072           add.l      A0, 0xFFFF2072
00004398  4850                     pea.l      [A0]
0000439A  2F2E 0010                move.l     -[A7], [A6 + 0x10]
0000439E  2F0C                     move.l     -[A7], A4
000043A0  2F00                     move.l     -[A7], D0
000043A2  2F00                     move.l     -[A7], D0
000043A4  4EAD 18F2                jsr        [A5 + 0x18F2 /* export_794, CODE:33 @ 000003AE */]
000043A8  2940 0182                move.l     [A4 + 0x182], D0
000043AC  204D                     movea.l    A0, A5
000043AE  D1FC FFFF 2808           add.l      A0, 0xFFFF2808
000043B4  2F10                     move.l     -[A7], [A0]
000043B6  206C 0182                movea.l    A0, [A4 + 0x182]
000043BA  2248                     movea.l    A1, A0
000043BC  2269 0060                movea.l    A1, [A1 + 0x60]
000043C0  D0E9 0080                add.w      A0, [A1 + 0x80]
000043C4  2F08                     move.l     -[A7], A0
000043C6  206C 0182                movea.l    A0, [A4 + 0x182]
000043CA  2068 0060                movea.l    A0, [A0 + 0x60]
000043CE  2268 0084                movea.l    A1, [A0 + 0x84]
000043D2  4E91                     jsr        [A1]
000043D4  4AAC 0182                tst.l      [A4 + 0x182]
000043D8  670C                     beq        +0xE /* 000043E6 */
000043DA  202C 0182                move.l     D0, [A4 + 0x182]
000043DE  D0BC 0000 0086           add.l      D0, 0x86
000043E4  6002                     bra        +0x4 /* 000043E8 */
label000043E6:
000043E6  7000                     moveq.l    D0, 0x00
label000043E8:
000043E8  2F00                     move.l     -[A7], D0
000043EA  2F0C                     move.l     -[A7], A4
000043EC  4EAD 11F2                jsr        [A5 + 0x11F2 /* export_570, CODE:26 @ 000032DA */]
000043F0  4FEF 0034                lea.l      A7, [A7 + 0x34]
000043F4  6000 0204                bra        +0x206 /* 000045FA */
000043F8  7000                     moveq.l    D0, 0x00
000043FA  2F00                     move.l     -[A7], D0
000043FC  204D                     movea.l    A0, A5
000043FE  D1FC FFFF 2074           add.l      A0, 0xFFFF2074
00004404  4850                     pea.l      [A0]
00004406  204D                     movea.l    A0, A5
00004408  D1FC FFFF 2076           add.l      A0, 0xFFFF2076
0000440E  4850                     pea.l      [A0]
00004410  204D                     movea.l    A0, A5
00004412  D1FC FFFF 2078           add.l      A0, 0xFFFF2078
00004418  4850                     pea.l      [A0]
0000441A  204D                     movea.l    A0, A5
0000441C  D1FC FFFF 207A           add.l      A0, 0xFFFF207A
00004422  4850                     pea.l      [A0]
00004424  2F2E 0010                move.l     -[A7], [A6 + 0x10]
00004428  2F0C                     move.l     -[A7], A4
0000442A  2F00                     move.l     -[A7], D0
0000442C  2F00                     move.l     -[A7], D0
0000442E  4EAD 18F2                jsr        [A5 + 0x18F2 /* export_794, CODE:33 @ 000003AE */]
00004432  2940 0186                move.l     [A4 + 0x186], D0
00004436  204D                     movea.l    A0, A5
00004438  D1FC FFFF 2804           add.l      A0, 0xFFFF2804
0000443E  2F10                     move.l     -[A7], [A0]
00004440  206C 0186                movea.l    A0, [A4 + 0x186]
00004444  2248                     movea.l    A1, A0
00004446  2269 0060                movea.l    A1, [A1 + 0x60]
0000444A  D0E9 0080                add.w      A0, [A1 + 0x80]
0000444E  2F08                     move.l     -[A7], A0
00004450  206C 0186                movea.l    A0, [A4 + 0x186]
00004454  2068 0060                movea.l    A0, [A0 + 0x60]
00004458  2268 0084                movea.l    A1, [A0 + 0x84]
0000445C  4E91                     jsr        [A1]
0000445E  4AAC 0186                tst.l      [A4 + 0x186]
00004462  670C                     beq        +0xE /* 00004470 */
00004464  202C 0186                move.l     D0, [A4 + 0x186]
00004468  D0BC 0000 0086           add.l      D0, 0x86
0000446E  6002                     bra        +0x4 /* 00004472 */
label00004470:
00004470  7000                     moveq.l    D0, 0x00
label00004472:
00004472  2F00                     move.l     -[A7], D0
00004474  2F0C                     move.l     -[A7], A4
00004476  4EAD 11F2                jsr        [A5 + 0x11F2 /* export_570, CODE:26 @ 000032DA */]
0000447A  4FEF 0034                lea.l      A7, [A7 + 0x34]
0000447E  6000 017A                bra        +0x17C /* 000045FA */
00004482  7000                     moveq.l    D0, 0x00
00004484  2F00                     move.l     -[A7], D0
00004486  204D                     movea.l    A0, A5
00004488  D1FC FFFF 207C           add.l      A0, 0xFFFF207C
0000448E  4850                     pea.l      [A0]
00004490  204D                     movea.l    A0, A5
00004492  D1FC FFFF 207E           add.l      A0, 0xFFFF207E
00004498  4850                     pea.l      [A0]
0000449A  204D                     movea.l    A0, A5
0000449C  D1FC FFFF 2080           add.l      A0, 0xFFFF2080
000044A2  4850                     pea.l      [A0]
000044A4  204D                     movea.l    A0, A5
000044A6  D1FC FFFF 2082           add.l      A0, 0xFFFF2082
000044AC  4850                     pea.l      [A0]
000044AE  2F2E 0010                move.l     -[A7], [A6 + 0x10]
000044B2  2F0C                     move.l     -[A7], A4
000044B4  2F00                     move.l     -[A7], D0
000044B6  2F00                     move.l     -[A7], D0
000044B8  4EAD 18F2                jsr        [A5 + 0x18F2 /* export_794, CODE:33 @ 000003AE */]
000044BC  2940 018A                move.l     [A4 + 0x18A], D0
000044C0  204D                     movea.l    A0, A5
000044C2  D1FC FFFF 2808           add.l      A0, 0xFFFF2808
000044C8  2F10                     move.l     -[A7], [A0]
000044CA  206C 018A                movea.l    A0, [A4 + 0x18A]
000044CE  2248                     movea.l    A1, A0
000044D0  2269 0060                movea.l    A1, [A1 + 0x60]
000044D4  D0E9 0080                add.w      A0, [A1 + 0x80]
000044D8  2F08                     move.l     -[A7], A0
000044DA  206C 018A                movea.l    A0, [A4 + 0x18A]
000044DE  2068 0060                movea.l    A0, [A0 + 0x60]
000044E2  2268 0084                movea.l    A1, [A0 + 0x84]
000044E6  4E91                     jsr        [A1]
000044E8  4AAC 018A                tst.l      [A4 + 0x18A]
000044EC  670C                     beq        +0xE /* 000044FA */
000044EE  202C 018A                move.l     D0, [A4 + 0x18A]
000044F2  D0BC 0000 0086           add.l      D0, 0x86
000044F8  6002                     bra        +0x4 /* 000044FC */
label000044FA:
000044FA  7000                     moveq.l    D0, 0x00
label000044FC:
000044FC  2F00                     move.l     -[A7], D0
000044FE  2F0C                     move.l     -[A7], A4
00004500  4EAD 11F2                jsr        [A5 + 0x11F2 /* export_570, CODE:26 @ 000032DA */]
00004504  4FEF 0034                lea.l      A7, [A7 + 0x34]
00004508  6000 00F0                bra        +0xF2 /* 000045FA */
0000450C  7000                     moveq.l    D0, 0x00
0000450E  2F00                     move.l     -[A7], D0
00004510  204D                     movea.l    A0, A5
00004512  D1FC FFFF 2084           add.l      A0, 0xFFFF2084
00004518  4850                     pea.l      [A0]
0000451A  204D                     movea.l    A0, A5
0000451C  D1FC FFFF 2086           add.l      A0, 0xFFFF2086
00004522  4850                     pea.l      [A0]
00004524  204D                     movea.l    A0, A5
00004526  D1FC FFFF 2088           add.l      A0, 0xFFFF2088
0000452C  4850                     pea.l      [A0]
0000452E  204D                     movea.l    A0, A5
00004530  D1FC FFFF 208A           add.l      A0, 0xFFFF208A
00004536  4850                     pea.l      [A0]
00004538  2F2E 0010                move.l     -[A7], [A6 + 0x10]
0000453C  2F0C                     move.l     -[A7], A4
0000453E  2F00                     move.l     -[A7], D0
00004540  2F00                     move.l     -[A7], D0
00004542  4EAD 18F2                jsr        [A5 + 0x18F2 /* export_794, CODE:33 @ 000003AE */]
00004546  2940 018E                move.l     [A4 + 0x18E], D0
0000454A  204D                     movea.l    A0, A5
0000454C  D1FC FFFF 2804           add.l      A0, 0xFFFF2804
00004552  2F10                     move.l     -[A7], [A0]
00004554  206C 018E                movea.l    A0, [A4 + 0x18E]
00004558  2248                     movea.l    A1, A0
0000455A  2269 0060                movea.l    A1, [A1 + 0x60]
0000455E  D0E9 0080                add.w      A0, [A1 + 0x80]
00004562  2F08                     move.l     -[A7], A0
00004564  206C 018E                movea.l    A0, [A4 + 0x18E]
00004568  2068 0060                movea.l    A0, [A0 + 0x60]
0000456C  2268 0084                movea.l    A1, [A0 + 0x84]
00004570  4E91                     jsr        [A1]
00004572  4AAC 018E                tst.l      [A4 + 0x18E]
00004576  670C                     beq        +0xE /* 00004584 */
00004578  202C 018E                move.l     D0, [A4 + 0x18E]
0000457C  D0BC 0000 0086           add.l      D0, 0x86
00004582  6002                     bra        +0x4 /* 00004586 */
label00004584:
00004584  7000                     moveq.l    D0, 0x00
label00004586:
00004586  2F00                     move.l     -[A7], D0
00004588  2F0C                     move.l     -[A7], A4
0000458A  4EAD 11F2                jsr        [A5 + 0x11F2 /* export_570, CODE:26 @ 000032DA */]
0000458E  4FEF 0034                lea.l      A7, [A7 + 0x34]
00004592  6066                     bra        +0x68 /* 000045FA */
00004594  2F2E 0010                move.l     -[A7], [A6 + 0x10]
00004598  2F0C                     move.l     -[A7], A4
0000459A  2F0C                     move.l     -[A7], A4
0000459C  7000                     moveq.l    D0, 0x00
0000459E  2F00                     move.l     -[A7], D0
000045A0  2F00                     move.l     -[A7], D0
000045A2  4EBA 008C                jsr        [PC + 0x8C /* 00004630 */]
000045A6  2940 0192                move.l     [A4 + 0x192], D0
000045AA  670C                     beq        +0xE /* 000045B8 */
000045AC  202C 0192                move.l     D0, [A4 + 0x192]
000045B0  D0BC 0000 0080           add.l      D0, 0x80
000045B6  6002                     bra        +0x4 /* 000045BA */
label000045B8:
000045B8  7000                     moveq.l    D0, 0x00
label000045BA:
000045BA  2F00                     move.l     -[A7], D0
000045BC  2F0C                     move.l     -[A7], A4
000045BE  4EAD 11F2                jsr        [A5 + 0x11F2 /* export_570, CODE:26 @ 000032DA */]
000045C2  4FEF 001C                lea.l      A7, [A7 + 0x1C]
000045C6  6032                     bra        +0x34 /* 000045FA */
000045C8  2F2E 0010                move.l     -[A7], [A6 + 0x10]
000045CC  2F0C                     move.l     -[A7], A4
000045CE  2F0C                     move.l     -[A7], A4
000045D0  7000                     moveq.l    D0, 0x00
000045D2  2F00                     move.l     -[A7], D0
000045D4  2F00                     move.l     -[A7], D0
000045D6  4EBA 034E                jsr        [PC + 0x34E /* 00004926 */]
000045DA  2940 0196                move.l     [A4 + 0x196], D0
000045DE  670C                     beq        +0xE /* 000045EC */
000045E0  202C 0196                move.l     D0, [A4 + 0x196]
000045E4  D0BC 0000 0080           add.l      D0, 0x80
000045EA  6002                     bra        +0x4 /* 000045EE */
label000045EC:
000045EC  7000                     moveq.l    D0, 0x00
label000045EE:
000045EE  2F00                     move.l     -[A7], D0
000045F0  2F0C                     move.l     -[A7], A4
000045F2  4EAD 11F2                jsr        [A5 + 0x11F2 /* export_570, CODE:26 @ 000032DA */]
000045F6  4FEF 001C                lea.l      A7, [A7 + 0x1C]
label000045FA:
000045FA  4CEE 1800 FFF8           movem.l    A3,A4, [A6 - 0x8]
00004600  4E5E                     unlink     A6
00004602  4E75                     rts
00004604  8028 4E65 7755 7365 7... dc.b       "NewUserItem__17cEvaluationWindowFsR4Rect"
fn00004630:
00004630  4E56 0000                link       A6, 0
00004634  48E7 1018                movem.l    -[A7], D3,A3,A4
00004638  266E 000C                movea.l    A3, [A6 + 0xC]
0000463C  286E 0008                movea.l    A4, [A6 + 0x8]
00004640  200C                     move.l     D0, A4
00004642  6612                     bne        +0x14 /* 00004656 */
00004644  4878 0142                push.l     0x142
00004648  4EAD 010A                jsr        [A5 + 0x10A /* export_29, CODE:1 @ 00001C0A */]
0000464C  2840                     movea.l    A4, D0
0000464E  200C                     move.l     D0, A4
00004650  584F                     addq.w     A7, 4
00004652  6700 00AE                beq        +0xB0 /* 00004702 */
label00004656:
00004656  200B                     move.l     D0, A3
00004658  57C3                     seq        D3
0000465A  4403                     neg.b      D3
0000465C  674E                     beq        +0x50 /* 000046AC */
0000465E  264C                     movea.l    A3, A4
00004660  47EB 0136                lea.l      A3, [A3 + 0x136]
00004664  7601                     moveq.l    D3, 0x01
00004666  200C                     move.l     D0, A4
00004668  D0BC 0000 0136           add.l      D0, 0x136
0000466E  6614                     bne        +0x16 /* 00004684 */
00004670  2F03                     move.l     -[A7], D3
00004672  700C                     moveq.l    D0, 0x0C
00004674  2F00                     move.l     -[A7], D0
00004676  4EAD 010A                jsr        [A5 + 0x10A /* export_29, CODE:1 @ 00001C0A */]
0000467A  588F                     addq.l     A7, 4
0000467C  261F                     move.l     D3, [A7]+
0000467E  4A80                     tst.l      D0
00004680  6602                     bne        +0x4 /* 00004684 */
00004682  7600                     moveq.l    D3, 0x00
label00004684:
00004684  4A03                     tst.b      D3
00004686  6718                     beq        +0x1A /* 000046A0 */
00004688  204D                     movea.l    A0, A5
0000468A  D1FC FFFF 208C           add.l      A0, 0xFFFF208C
00004690  2950 013E                move.l     [A4 + 0x13E], [A0]
00004694  7000                     moveq.l    D0, 0x00
00004696  2940 0136                move.l     [A4 + 0x136], D0
0000469A  2940 013A                move.l     [A4 + 0x13A], D0
0000469E  6002                     bra        +0x4 /* 000046A2 */
label000046A0:
000046A0  7000                     moveq.l    D0, 0x00
label000046A2:
000046A2  200C                     move.l     D0, A4
000046A4  D0BC 0000 0136           add.l      D0, 0x136
000046AA  6002                     bra        +0x4 /* 000046AE */
label000046AC:
000046AC  200B                     move.l     D0, A3
label000046AE:
000046AE  7000                     moveq.l    D0, 0x00
000046B0  2F00                     move.l     -[A7], D0
000046B2  2F00                     move.l     -[A7], D0
000046B4  2F00                     move.l     -[A7], D0
000046B6  2F2E 0018                move.l     -[A7], [A6 + 0x18]
000046BA  2F2E 0014                move.l     -[A7], [A6 + 0x14]
000046BE  2F2E 0010                move.l     -[A7], [A6 + 0x10]
000046C2  2F0B                     move.l     -[A7], A3
000046C4  2F0C                     move.l     -[A7], A4
000046C6  4EAD 019A                jsr        [A5 + 0x19A /* export_47, CODE:1 @ 00002D3A */]
000046CA  204D                     movea.l    A0, A5
000046CC  D1FC FFFF 209C           add.l      A0, 0xFFFF209C
000046D2  2950 0060                move.l     [A4 + 0x60], [A0]
000046D6  204D                     movea.l    A0, A5
000046D8  D1FC FFFF 20A0           add.l      A0, 0xFFFF20A0
000046DE  2950 0088                move.l     [A4 + 0x88], [A0]
000046E2  204D                     movea.l    A0, A5
000046E4  D1FC FFFF 20A4           add.l      A0, 0xFFFF20A4
000046EA  2950 0070                move.l     [A4 + 0x70], [A0]
000046EE  206C 0064                movea.l    A0, [A4 + 0x64]
000046F2  224D                     movea.l    A1, A5
000046F4  D3FC FFFF 20A8           add.l      A1, 0xFFFF20A8
000046FA  2151 0008                move.l     [A0 + 0x8], [A1]
000046FE  4FEF 0020                lea.l      A7, [A7 + 0x20]
label00004702:
00004702  200C                     move.l     D0, A4
00004704  4CEE 1808 FFF4           movem.l    D3,A3,A4, [A6 - 0xC]
0000470A  4E5E                     unlink     A6
0000470C  4E75                     rts
0000470E  802D 5F5F 6374 5F5F 3... dc.b       "__ct__13cProblemsItemFP6cAgentP7cWindowR4Rect"
export_349:
00004740  4E56 0000                link       A6, 0
00004744  48E7 0108                movem.l    -[A7], D7,A4
00004748  2E2E 000C                move.l     D7, [A6 + 0xC]
0000474C  286E 0008                movea.l    A4, [A6 + 0x8]
00004750  200C                     move.l     D0, A4
00004752  6772                     beq        +0x74 /* 000047C6 */
00004754  206C 0064                movea.l    A0, [A4 + 0x64]
00004758  224D                     movea.l    A1, A5
0000475A  D3FC FFFF 20A8           add.l      A1, 0xFFFF20A8
00004760  2151 0008                move.l     [A0 + 0x8], [A1]
00004764  204D                     movea.l    A0, A5
00004766  D1FC FFFF 20A4           add.l      A0, 0xFFFF20A4
0000476C  2950 0070                move.l     [A4 + 0x70], [A0]
00004770  204D                     movea.l    A0, A5
00004772  D1FC FFFF 20A0           add.l      A0, 0xFFFF20A0
00004778  2950 0088                move.l     [A4 + 0x88], [A0]
0000477C  204D                     movea.l    A0, A5
0000477E  D1FC FFFF 209C           add.l      A0, 0xFFFF209C
00004784  2950 0060                move.l     [A4 + 0x60], [A0]
00004788  200C                     move.l     D0, A4
0000478A  673A                     beq        +0x3C /* 000047C6 */
0000478C  7000                     moveq.l    D0, 0x00
0000478E  2F00                     move.l     -[A7], D0
00004790  2F0C                     move.l     -[A7], A4
00004792  4EAD 01A2                jsr        [A5 + 0x1A2 /* export_48, CODE:1 @ 00002EC4 */]
00004796  7002                     moveq.l    D0, 0x02
00004798  C087                     and.l      D0, D7
0000479A  6718                     beq        +0x1A /* 000047B4 */
0000479C  7000                     moveq.l    D0, 0x00
0000479E  2F00                     move.l     -[A7], D0
000047A0  220C                     move.l     D1, A4
000047A2  D2BC 0000 0136           add.l      D1, 0x136
000047A8  2F01                     move.l     -[A7], D1
000047AA  4EAD 1632                jsr        [A5 + 0x1632 /* export_706, CODE:32 @ 000036CC */]
000047AE  7000                     moveq.l    D0, 0x00
000047B0  504F                     addq.w     A7, 8
000047B2  6002                     bra        +0x4 /* 000047B6 */
label000047B4:
000047B4  7000                     moveq.l    D0, 0x00
label000047B6:
000047B6  0807 0000                btst.b     D7, 0x0
000047BA  504F                     addq.w     A7, 8
000047BC  6708                     beq        +0xA /* 000047C6 */
000047BE  2F0C                     move.l     -[A7], A4
000047C0  4EAD 0102                jsr        [A5 + 0x102 /* export_28, CODE:1 @ 00001BE0 */]
000047C4  584F                     addq.w     A7, 4
label000047C6:
000047C6  4CEE 1080 FFF8           movem.l    D7,A4, [A6 - 0x8]
000047CC  4E5E                     unlink     A6
000047CE  4E75                     rts
000047D0  975F 5F64 745F 5F31 3... dc.b       "__dt__13cProblemsItemFv"
export_350:
000047EA  4E56 FF94                link       A6, -0x006C
000047EE  48E7 1718                movem.l    -[A7], D3,D5,D6,D7,A3,A4
000047F2  4246                     clr.w      D6
000047F4  7000                     moveq.l    D0, 0x00
000047F6  2F00                     move.l     -[A7], D0
000047F8  2F00                     move.l     -[A7], D0
000047FA  486E FF94                pea.l      [A6 - 0x6C]
000047FE  4EAD 15AA                jsr        [A5 + 0x15AA /* export_689, CODE:32 @ 0000234A */]
00004802  7000                     moveq.l    D0, 0x00
00004804  2F00                     move.l     -[A7], D0
00004806  486E FFCE                pea.l      [A6 - 0x32]
0000480A  4EAD 15BA                jsr        [A5 + 0x15BA /* export_691, CODE:32 @ 000025FA */]
0000480E  206E 0008                movea.l    A0, [A6 + 0x8]
00004812  2868 0112                movea.l    A4, [A0 + 0x112]
00004816  41EC 009C                lea.l      A0, [A4 + 0x9C]
0000481A  43EE FFCE                lea.l      A1, [A6 - 0x32]
0000481E  22D8                     move.l     [A1]+, [A0]+
00004820  32D8                     move.w     [A1]+, [A0]+
00004822  4EAD 064A                jsr        [A5 + 0x64A /* export_197, CODE:11 @ 00000000 */]
00004826  4245                     clr.w      D5
00004828  4FEF 0014                lea.l      A7, [A7 + 0x14]
label0000482C:
0000482C  4247                     clr.w      D7
label0000482E:
0000482E  3005                     move.w     D0, D5
00004830  48C0                     ext.l      D0
00004832  EB80                     asl        D0, 5
00004834  5240                     addq.w     D0, 1
00004836  3D40 FFC6                move.w     [A6 - 0x3A], D0
0000483A  D07C 0020                add.w      D0, 0x20 /* ' ' */
0000483E  3D40 FFCA                move.w     [A6 - 0x36], D0
00004842  3007                     move.w     D0, D7
00004844  48C0                     ext.l      D0
00004846  EB80                     asl        D0, 5
00004848  5240                     addq.w     D0, 1
0000484A  3D40 FFC8                move.w     [A6 - 0x38], D0
0000484E  D07C 0020                add.w      D0, 0x20 /* ' ' */
00004852  3D40 FFCC                move.w     [A6 - 0x34], D0
00004856  204D                     movea.l    A0, A5
00004858  D1FC FFFE BE70           add.l      A0, 0xFFFEBE70
0000485E  4A30 6000                tst.b      [A0 + D6.w]
00004862  6728                     beq        +0x2A /* 0000488C */
00004864  598F                     subq.l     A7, 4
00004866  2006                     move.l     D0, D6
00004868  D040                     add.w      D0, D0
0000486A  204D                     movea.l    A0, A5
0000486C  D1FC FFFF 27F4           add.l      A0, 0xFFFF27F4
00004872  3F30 0000                move.w     -[A7], [A0 + D0.w]
00004876  AA1E                     syscall    GetCIcon
00004878  265F                     movea.l    A3, [A7]+
0000487A  200B                     move.l     D0, A3
0000487C  671A                     beq        +0x1C /* 00004898 */
0000487E  486E FFC6                pea.l      [A6 - 0x3A]
00004882  2F0B                     move.l     -[A7], A3
00004884  AA1F                     syscall    PlotCIcon
00004886  2F0B                     move.l     -[A7], A3
00004888  AA25                     syscall    DisposeCIcon/DisposCIcon
0000488A  600C                     bra        +0xE /* 00004898 */
label0000488C:
0000488C  486E FFCE                pea.l      [A6 - 0x32]
00004890  AA15                     syscall    RGBBackColor
00004892  486E FFC6                pea.l      [A6 - 0x3A]
00004896  A8A3                     syscall    EraseRect
label00004898:
00004898  3006                     move.w     D0, D6
0000489A  5246                     addq.w     D6, 1
0000489C  3007                     move.w     D0, D7
0000489E  5247                     addq.w     D7, 1
000048A0  0C47 0004                cmpi.w     D7, 0x4
000048A4  6D88                     blt        -0x76 /* 0000482E */
000048A6  3005                     move.w     D0, D5
000048A8  5245                     addq.w     D5, 1
000048AA  0C45 0002                cmpi.w     D5, 0x2
000048AE  6D00 FF7C                blt        -0x82 /* 0000482C */
000048B2  486E FF94                pea.l      [A6 - 0x6C]
000048B6  AA14                     syscall    RGBForeColor
000048B8  7001                     moveq.l    D0, 0x01
000048BA  3F00                     move.w     -[A7], D0
000048BC  3F00                     move.w     -[A7], D0
000048BE  A89B                     syscall    PenSize
000048C0  486E FFC6                pea.l      [A6 - 0x3A]
000048C4  7000                     moveq.l    D0, 0x00
000048C6  3F00                     move.w     -[A7], D0
000048C8  3F00                     move.w     -[A7], D0
000048CA  3F3C 0082                move.w     -[A7], 0x82
000048CE  7242                     moveq.l    D1, 0x42
000048D0  3F01                     move.w     -[A7], D1
000048D2  A8A7                     syscall    SetRect
000048D4  486E FFC6                pea.l      [A6 - 0x3A]
000048D8  A8A1                     syscall    FrameRect
000048DA  7002                     moveq.l    D0, 0x02
000048DC  2F00                     move.l     -[A7], D0
000048DE  486E FFCE                pea.l      [A6 - 0x32]
000048E2  4EAD 15D2                jsr        [A5 + 0x15D2 /* export_694, CODE:32 @ 000029D6 */]
000048E6  7002                     moveq.l    D0, 0x02
000048E8  2F00                     move.l     -[A7], D0
000048EA  486E FF94                pea.l      [A6 - 0x6C]
000048EE  4EAD 15D2                jsr        [A5 + 0x15D2 /* export_694, CODE:32 @ 000029D6 */]
000048F2  4FEF 0010                lea.l      A7, [A7 + 0x10]
000048F6  4CEE 18E8 FF7C           movem.l    D3,D5,D6,D7,A3,A4, [A6 - 0x84]
000048FC  4E5E                     unlink     A6
000048FE  4E75                     rts
00004900  8022 4472 6177 496E 7... dc.b       "DrawIntoNotepad__13cProblemsItemFv"
fn00004926:
00004926  4E56 0000                link       A6, 0
0000492A  48E7 1018                movem.l    -[A7], D3,A3,A4
0000492E  266E 000C                movea.l    A3, [A6 + 0xC]
00004932  286E 0008                movea.l    A4, [A6 + 0x8]
00004936  200C                     move.l     D0, A4
00004938  6612                     bne        +0x14 /* 0000494C */
0000493A  4878 0142                push.l     0x142
0000493E  4EAD 010A                jsr        [A5 + 0x10A /* export_29, CODE:1 @ 00001C0A */]
00004942  2840                     movea.l    A4, D0
00004944  200C                     move.l     D0, A4
00004946  584F                     addq.w     A7, 4
00004948  6700 00AE                beq        +0xB0 /* 000049F8 */
label0000494C:
0000494C  200B                     move.l     D0, A3
0000494E  57C3                     seq        D3
00004950  4403                     neg.b      D3
00004952  674E                     beq        +0x50 /* 000049A2 */
00004954  264C                     movea.l    A3, A4
00004956  47EB 0136                lea.l      A3, [A3 + 0x136]
0000495A  7601                     moveq.l    D3, 0x01
0000495C  200C                     move.l     D0, A4
0000495E  D0BC 0000 0136           add.l      D0, 0x136
00004964  6614                     bne        +0x16 /* 0000497A */
00004966  2F03                     move.l     -[A7], D3
00004968  700C                     moveq.l    D0, 0x0C
0000496A  2F00                     move.l     -[A7], D0
0000496C  4EAD 010A                jsr        [A5 + 0x10A /* export_29, CODE:1 @ 00001C0A */]
00004970  588F                     addq.l     A7, 4
00004972  261F                     move.l     D3, [A7]+
00004974  4A80                     tst.l      D0
00004976  6602                     bne        +0x4 /* 0000497A */
00004978  7600                     moveq.l    D3, 0x00
label0000497A:
0000497A  4A03                     tst.b      D3
0000497C  6718                     beq        +0x1A /* 00004996 */
0000497E  204D                     movea.l    A0, A5
00004980  D1FC FFFF 208C           add.l      A0, 0xFFFF208C
00004986  2950 013E                move.l     [A4 + 0x13E], [A0]
0000498A  7000                     moveq.l    D0, 0x00
0000498C  2940 0136                move.l     [A4 + 0x136], D0
00004990  2940 013A                move.l     [A4 + 0x13A], D0
00004994  6002                     bra        +0x4 /* 00004998 */
label00004996:
00004996  7000                     moveq.l    D0, 0x00
label00004998:
00004998  200C                     move.l     D0, A4
0000499A  D0BC 0000 0136           add.l      D0, 0x136
000049A0  6002                     bra        +0x4 /* 000049A4 */
label000049A2:
000049A2  200B                     move.l     D0, A3
label000049A4:
000049A4  7000                     moveq.l    D0, 0x00
000049A6  2F00                     move.l     -[A7], D0
000049A8  2F00                     move.l     -[A7], D0
000049AA  2F00                     move.l     -[A7], D0
000049AC  2F2E 0018                move.l     -[A7], [A6 + 0x18]
000049B0  2F2E 0014                move.l     -[A7], [A6 + 0x14]
000049B4  2F2E 0010                move.l     -[A7], [A6 + 0x10]
000049B8  2F0B                     move.l     -[A7], A3
000049BA  2F0C                     move.l     -[A7], A4
000049BC  4EAD 019A                jsr        [A5 + 0x19A /* export_47, CODE:1 @ 00002D3A */]
000049C0  204D                     movea.l    A0, A5
000049C2  D1FC FFFF 20AC           add.l      A0, 0xFFFF20AC
000049C8  2950 0060                move.l     [A4 + 0x60], [A0]
000049CC  204D                     movea.l    A0, A5
000049CE  D1FC FFFF 20B0           add.l      A0, 0xFFFF20B0
000049D4  2950 0088                move.l     [A4 + 0x88], [A0]
000049D8  204D                     movea.l    A0, A5
000049DA  D1FC FFFF 20B4           add.l      A0, 0xFFFF20B4
000049E0  2950 0070                move.l     [A4 + 0x70], [A0]
000049E4  206C 0064                movea.l    A0, [A4 + 0x64]
000049E8  224D                     movea.l    A1, A5
000049EA  D3FC FFFF 20B8           add.l      A1, 0xFFFF20B8
000049F0  2151 0008                move.l     [A0 + 0x8], [A1]
000049F4  4FEF 0020                lea.l      A7, [A7 + 0x20]
label000049F8:
000049F8  200C                     move.l     D0, A4
000049FA  4CEE 1808 FFF4           movem.l    D3,A3,A4, [A6 - 0xC]
00004A00  4E5E                     unlink     A6
00004A02  4E75                     rts
00004A04  8033 5F5F 6374 5F5F 3... dc.b       "__ct__19cSuggestedCropsItemFP6cAgentP7cWindowR4Rect"
export_351:
00004A3C  4E56 0000                link       A6, 0
00004A40  48E7 0108                movem.l    -[A7], D7,A4
00004A44  2E2E 000C                move.l     D7, [A6 + 0xC]
00004A48  286E 0008                movea.l    A4, [A6 + 0x8]
00004A4C  200C                     move.l     D0, A4
00004A4E  6772                     beq        +0x74 /* 00004AC2 */
00004A50  206C 0064                movea.l    A0, [A4 + 0x64]
00004A54  224D                     movea.l    A1, A5
00004A56  D3FC FFFF 20B8           add.l      A1, 0xFFFF20B8
00004A5C  2151 0008                move.l     [A0 + 0x8], [A1]
00004A60  204D                     movea.l    A0, A5
00004A62  D1FC FFFF 20B4           add.l      A0, 0xFFFF20B4
00004A68  2950 0070                move.l     [A4 + 0x70], [A0]
00004A6C  204D                     movea.l    A0, A5
00004A6E  D1FC FFFF 20B0           add.l      A0, 0xFFFF20B0
00004A74  2950 0088                move.l     [A4 + 0x88], [A0]
00004A78  204D                     movea.l    A0, A5
00004A7A  D1FC FFFF 20AC           add.l      A0, 0xFFFF20AC
00004A80  2950 0060                move.l     [A4 + 0x60], [A0]
00004A84  200C                     move.l     D0, A4
00004A86  673A                     beq        +0x3C /* 00004AC2 */
00004A88  7000                     moveq.l    D0, 0x00
00004A8A  2F00                     move.l     -[A7], D0
00004A8C  2F0C                     move.l     -[A7], A4
00004A8E  4EAD 01A2                jsr        [A5 + 0x1A2 /* export_48, CODE:1 @ 00002EC4 */]
00004A92  7002                     moveq.l    D0, 0x02
00004A94  C087                     and.l      D0, D7
00004A96  6718                     beq        +0x1A /* 00004AB0 */
00004A98  7000                     moveq.l    D0, 0x00
00004A9A  2F00                     move.l     -[A7], D0
00004A9C  220C                     move.l     D1, A4
00004A9E  D2BC 0000 0136           add.l      D1, 0x136
00004AA4  2F01                     move.l     -[A7], D1
00004AA6  4EAD 1632                jsr        [A5 + 0x1632 /* export_706, CODE:32 @ 000036CC */]
00004AAA  7000                     moveq.l    D0, 0x00
00004AAC  504F                     addq.w     A7, 8
00004AAE  6002                     bra        +0x4 /* 00004AB2 */
label00004AB0:
00004AB0  7000                     moveq.l    D0, 0x00
label00004AB2:
00004AB2  0807 0000                btst.b     D7, 0x0
00004AB6  504F                     addq.w     A7, 8
00004AB8  6708                     beq        +0xA /* 00004AC2 */
00004ABA  2F0C                     move.l     -[A7], A4
00004ABC  4EAD 0102                jsr        [A5 + 0x102 /* export_28, CODE:1 @ 00001BE0 */]
00004AC0  584F                     addq.w     A7, 4
label00004AC2:
00004AC2  4CEE 1080 FFF8           movem.l    D7,A4, [A6 - 0x8]
00004AC8  4E5E                     unlink     A6
00004ACA  4E75                     rts
00004ACC  9D5F 5F64 745F 5F31 3... dc.b       "__dt__19cSuggestedCropsItemFv"
export_352:
00004AEC  4E56 FF92                link       A6, -0x006E
00004AF0  48E7 1F18                movem.l    -[A7], D3,D4,D5,D6,D7,A3,A4
00004AF4  4245                     clr.w      D5
00004AF6  7000                     moveq.l    D0, 0x00
00004AF8  2F00                     move.l     -[A7], D0
00004AFA  2F00                     move.l     -[A7], D0
00004AFC  486E FF94                pea.l      [A6 - 0x6C]
00004B00  4EAD 15AA                jsr        [A5 + 0x15AA /* export_689, CODE:32 @ 0000234A */]
00004B04  7000                     moveq.l    D0, 0x00
00004B06  2F00                     move.l     -[A7], D0
00004B08  486E FFCE                pea.l      [A6 - 0x32]
00004B0C  4EAD 15BA                jsr        [A5 + 0x15BA /* export_691, CODE:32 @ 000025FA */]
00004B10  206E 0008                movea.l    A0, [A6 + 0x8]
00004B14  2868 0112                movea.l    A4, [A0 + 0x112]
00004B18  41EC 009C                lea.l      A0, [A4 + 0x9C]
00004B1C  43EE FFCE                lea.l      A1, [A6 - 0x32]
00004B20  22D8                     move.l     [A1]+, [A0]+
00004B22  32D8                     move.w     [A1]+, [A0]+
00004B24  4EAD 0652                jsr        [A5 + 0x652 /* export_198, CODE:11 @ 000001E0 */]
00004B28  4246                     clr.w      D6
00004B2A  4FEF 0014                lea.l      A7, [A7 + 0x14]
label00004B2E:
00004B2E  4247                     clr.w      D7
label00004B30:
00004B30  48C6                     ext.l      D6
00004B32  2006                     move.l     D0, D6
00004B34  E588                     lsl        D0, 2
00004B36  D047                     add.w      D0, D7
00004B38  3D40 FF92                move.w     [A6 - 0x6E], D0
00004B3C  3006                     move.w     D0, D6
00004B3E  48C0                     ext.l      D0
00004B40  EB80                     asl        D0, 5
00004B42  5240                     addq.w     D0, 1
00004B44  3D40 FFC6                move.w     [A6 - 0x3A], D0
00004B48  D07C 0020                add.w      D0, 0x20 /* ' ' */
00004B4C  3D40 FFCA                move.w     [A6 - 0x36], D0
00004B50  3007                     move.w     D0, D7
00004B52  48C0                     ext.l      D0
00004B54  EB80                     asl        D0, 5
00004B56  5240                     addq.w     D0, 1
00004B58  3D40 FFC8                move.w     [A6 - 0x38], D0
00004B5C  D07C 0020                add.w      D0, 0x20 /* ' ' */
00004B60  3D40 FFCC                move.w     [A6 - 0x34], D0
00004B64  2005                     move.l     D0, D5
00004B66  D040                     add.w      D0, D0
00004B68  204D                     movea.l    A0, A5
00004B6A  D1FC FFFE BE78           add.l      A0, 0xFFFEBE78
00004B70  72FF                     moveq.l    D1, 0xFFFFFFFF
00004B72  B270 0000                cmp.w      D1, [A0 + D0.w]
00004B76  673C                     beq        +0x3E /* 00004BB4 */
00004B78  3005                     move.w     D0, D5
00004B7A  5245                     addq.w     D5, 1
00004B7C  D040                     add.w      D0, D0
00004B7E  204D                     movea.l    A0, A5
00004B80  D1FC FFFE BE78           add.l      A0, 0xFFFEBE78
00004B86  3830 0000                move.w     D4, [A0 + D0.w]
00004B8A  598F                     subq.l     A7, 4
00004B8C  48C4                     ext.l      D4
00004B8E  2004                     move.l     D0, D4
00004B90  D040                     add.w      D0, D0
00004B92  204D                     movea.l    A0, A5
00004B94  D1FC FFFF 77F2           add.l      A0, 0xFFFF77F2
00004B9A  3F30 0000                move.w     -[A7], [A0 + D0.w]
00004B9E  AA1E                     syscall    GetCIcon
00004BA0  265F                     movea.l    A3, [A7]+
00004BA2  200B                     move.l     D0, A3
00004BA4  671A                     beq        +0x1C /* 00004BC0 */
00004BA6  486E FFC6                pea.l      [A6 - 0x3A]
00004BAA  2F0B                     move.l     -[A7], A3
00004BAC  AA1F                     syscall    PlotCIcon
00004BAE  2F0B                     move.l     -[A7], A3
00004BB0  AA25                     syscall    DisposeCIcon/DisposCIcon
00004BB2  600C                     bra        +0xE /* 00004BC0 */
label00004BB4:
00004BB4  486E FFCE                pea.l      [A6 - 0x32]
00004BB8  AA15                     syscall    RGBBackColor
00004BBA  486E FFC6                pea.l      [A6 - 0x3A]
00004BBE  A8A3                     syscall    EraseRect
label00004BC0:
00004BC0  3007                     move.w     D0, D7
00004BC2  5247                     addq.w     D7, 1
00004BC4  0C47 0004                cmpi.w     D7, 0x4
00004BC8  6D00 FF66                blt        -0x98 /* 00004B30 */
00004BCC  3006                     move.w     D0, D6
00004BCE  5246                     addq.w     D6, 1
00004BD0  0C46 0002                cmpi.w     D6, 0x2
00004BD4  6D00 FF58                blt        -0xA6 /* 00004B2E */
00004BD8  486E FF94                pea.l      [A6 - 0x6C]
00004BDC  AA14                     syscall    RGBForeColor
00004BDE  7001                     moveq.l    D0, 0x01
00004BE0  3F00                     move.w     -[A7], D0
00004BE2  3F00                     move.w     -[A7], D0
00004BE4  A89B                     syscall    PenSize
00004BE6  486E FFC6                pea.l      [A6 - 0x3A]
00004BEA  7000                     moveq.l    D0, 0x00
00004BEC  3F00                     move.w     -[A7], D0
00004BEE  3F00                     move.w     -[A7], D0
00004BF0  3F3C 0082                move.w     -[A7], 0x82
00004BF4  7242                     moveq.l    D1, 0x42
00004BF6  3F01                     move.w     -[A7], D1
00004BF8  A8A7                     syscall    SetRect
00004BFA  486E FFC6                pea.l      [A6 - 0x3A]
00004BFE  A8A1                     syscall    FrameRect
00004C00  7002                     moveq.l    D0, 0x02
00004C02  2F00                     move.l     -[A7], D0
00004C04  486E FFCE                pea.l      [A6 - 0x32]
00004C08  4EAD 15D2                jsr        [A5 + 0x15D2 /* export_694, CODE:32 @ 000029D6 */]
00004C0C  7002                     moveq.l    D0, 0x02
00004C0E  2F00                     move.l     -[A7], D0
00004C10  486E FF94                pea.l      [A6 - 0x6C]
00004C14  4EAD 15D2                jsr        [A5 + 0x15D2 /* export_694, CODE:32 @ 000029D6 */]
00004C18  4FEF 0010                lea.l      A7, [A7 + 0x10]
00004C1C  4CEE 18F8 FF76           movem.l    D3,D4,D5,D6,D7,A3,A4, [A6 - 0x8A]
00004C22  4E5E                     unlink     A6
00004C24  4E75                     rts
00004C26  8028 4472 6177 496E 7... dc.b       "DrawIntoNotepad__19cSuggestedCropsItemFv"
export_353:
00004C52  4E56 FFF8                link       A6, -0x0008
00004C56  48E7 1018                movem.l    -[A7], D3,A3,A4
00004C5A  266E 000C                movea.l    A3, [A6 + 0xC]
00004C5E  286E 0008                movea.l    A4, [A6 + 0x8]
00004C62  200C                     move.l     D0, A4
00004C64  6612                     bne        +0x14 /* 00004C78 */
00004C66  4878 0252                push.l     0x252
00004C6A  4EAD 010A                jsr        [A5 + 0x10A /* export_29, CODE:1 @ 00001C0A */]
00004C6E  2840                     movea.l    A4, D0
00004C70  200C                     move.l     D0, A4
00004C72  584F                     addq.w     A7, 4
00004C74  6700 020E                beq        +0x210 /* 00004E84 */
label00004C78:
00004C78  200B                     move.l     D0, A3
00004C7A  57C3                     seq        D3
00004C7C  4403                     neg.b      D3
00004C7E  674E                     beq        +0x50 /* 00004CCE */
00004C80  264C                     movea.l    A3, A4
00004C82  47EB 0246                lea.l      A3, [A3 + 0x246]
00004C86  7601                     moveq.l    D3, 0x01
00004C88  200C                     move.l     D0, A4
00004C8A  D0BC 0000 0246           add.l      D0, 0x246
00004C90  6614                     bne        +0x16 /* 00004CA6 */
00004C92  2F03                     move.l     -[A7], D3
00004C94  700C                     moveq.l    D0, 0x0C
00004C96  2F00                     move.l     -[A7], D0
00004C98  4EAD 010A                jsr        [A5 + 0x10A /* export_29, CODE:1 @ 00001C0A */]
00004C9C  588F                     addq.l     A7, 4
00004C9E  261F                     move.l     D3, [A7]+
00004CA0  4A80                     tst.l      D0
00004CA2  6602                     bne        +0x4 /* 00004CA6 */
00004CA4  7600                     moveq.l    D3, 0x00
label00004CA6:
00004CA6  4A03                     tst.b      D3
00004CA8  6718                     beq        +0x1A /* 00004CC2 */
00004CAA  204D                     movea.l    A0, A5
00004CAC  D1FC FFFF 3CD4           add.l      A0, 0xFFFF3CD4
00004CB2  2950 024E                move.l     [A4 + 0x24E], [A0]
00004CB6  7000                     moveq.l    D0, 0x00
00004CB8  2940 0246                move.l     [A4 + 0x246], D0
00004CBC  2940 024A                move.l     [A4 + 0x24A], D0
00004CC0  6002                     bra        +0x4 /* 00004CC4 */
label00004CC2:
00004CC2  7000                     moveq.l    D0, 0x00
label00004CC4:
00004CC4  200C                     move.l     D0, A4
00004CC6  D0BC 0000 0246           add.l      D0, 0x246
00004CCC  6002                     bra        +0x4 /* 00004CD0 */
label00004CCE:
00004CCE  200B                     move.l     D0, A3
label00004CD0:
00004CD0  7000                     moveq.l    D0, 0x00
00004CD2  2F00                     move.l     -[A7], D0
00004CD4  2F3C 466C 6453           move.l     -[A7], 0x466C6453 /* 'FldS' */
00004CDA  2F2E 0010                move.l     -[A7], [A6 + 0x10]
00004CDE  2F0B                     move.l     -[A7], A3
00004CE0  2F0C                     move.l     -[A7], A4
00004CE2  4EAD 10AA                jsr        [A5 + 0x10AA /* export_529, CODE:26 @ 0000020E */]
00004CE6  204D                     movea.l    A0, A5
00004CE8  D1FC FFFF 3CD8           add.l      A0, 0xFFFF3CD8
00004CEE  2950 0060                move.l     [A4 + 0x60], [A0]
00004CF2  206C 0064                movea.l    A0, [A4 + 0x64]
00004CF6  224D                     movea.l    A1, A5
00004CF8  D3FC FFFF 3CDC           add.l      A1, 0xFFFF3CDC
00004CFE  2151 0008                move.l     [A0 + 0x8], [A1]
00004D02  204D                     movea.l    A0, A5
00004D04  D1FC FFFF 3CE0           add.l      A0, 0xFFFF3CE0
00004D0A  2950 0070                move.l     [A4 + 0x70], [A0]
00004D0E  7000                     moveq.l    D0, 0x00
00004D10  2F00                     move.l     -[A7], D0
00004D12  486C 016C                pea.l      [A4 + 0x16C]
00004D16  4EAD 1D5A                jsr        [A5 + 0x1D5A /* export_935, CODE:36 @ 00001140 */]
00004D1A  204D                     movea.l    A0, A5
00004D1C  D1FC FFFF 3CE4           add.l      A0, 0xFFFF3CE4
00004D22  2950 0174                move.l     [A4 + 0x174], [A0]
00004D26  7000                     moveq.l    D0, 0x00
00004D28  2F00                     move.l     -[A7], D0
00004D2A  486C 018A                pea.l      [A4 + 0x18A]
00004D2E  4EAD 1D5A                jsr        [A5 + 0x1D5A /* export_935, CODE:36 @ 00001140 */]
00004D32  204D                     movea.l    A0, A5
00004D34  D1FC FFFF 3CE4           add.l      A0, 0xFFFF3CE4
00004D3A  2950 0192                move.l     [A4 + 0x192], [A0]
00004D3E  41EC 018A                lea.l      A0, [A4 + 0x18A]
00004D42  204D                     movea.l    A0, A5
00004D44  D1FC FFFE CFCE           add.l      A0, 0xFFFECFCE
00004D4A  224D                     movea.l    A1, A5
00004D4C  D3FC FFFE CFD2           add.l      A1, 0xFFFECFD2
00004D52  1290                     move.b     [A1], [A0]
00004D54  204D                     movea.l    A0, A5
00004D56  D1FC FFFD CEC7           add.l      A0, 0xFFFDCEC7
00004D5C  224D                     movea.l    A1, A5
00004D5E  D3FC FFFE C3CC           add.l      A1, 0xFFFEC3CC
00004D64  1290                     move.b     [A1], [A0]
00004D66  204D                     movea.l    A0, A5
00004D68  D1FC FFFD CECA           add.l      A0, 0xFFFDCECA
00004D6E  3950 023E                move.w     [A4 + 0x23E], [A0]
00004D72  204D                     movea.l    A0, A5
00004D74  D1FC FFFD CEC6           add.l      A0, 0xFFFDCEC6
00004D7A  3950 0240                move.w     [A4 + 0x240], [A0]
00004D7E  204D                     movea.l    A0, A5
00004D80  D1FC FFFF 4534           add.l      A0, 0xFFFF4534
00004D86  208C                     move.l     [A0], A4
00004D88  204D                     movea.l    A0, A5
00004D8A  D1FC FFFE C3CE           add.l      A0, 0xFFFEC3CE
00004D90  4850                     pea.l      [A0]
00004D92  7000                     moveq.l    D0, 0x00
00004D94  204D                     movea.l    A0, A5
00004D96  D1FC FFFE C3CC           add.l      A0, 0xFFFEC3CC
00004D9C  1010                     move.b     D0, [A0]
00004D9E  2F00                     move.l     -[A7], D0
00004DA0  4EAD 039A                jsr        [A5 + 0x39A /* export_111, CODE:6 @ 0000277A */]
00004DA4  204D                     movea.l    A0, A5
00004DA6  D1FC FFFE CFD0           add.l      A0, 0xFFFECFD0
00004DAC  4250                     clr.w      [A0]
00004DAE  397C FFFF 023C           move.w     [A4 + 0x23C], 0xFFFF
00004DB4  204D                     movea.l    A0, A5
00004DB6  D1FC FFFF 4538           add.l      A0, 0xFFFF4538
00004DBC  4A90                     tst.l      [A0]
00004DBE  4FEF 002C                lea.l      A7, [A7 + 0x2C]
00004DC2  6630                     bne        +0x32 /* 00004DF4 */
00004DC4  598F                     subq.l     A7, 4
00004DC6  2F3C 6363 7462           move.l     -[A7], 0x63637462 /* 'cctb' */
00004DCC  3F3C 0081                move.w     -[A7], 0x81
00004DD0  A9A0                     syscall    GetResource
00004DD2  265F                     movea.l    A3, [A7]+
00004DD4  204D                     movea.l    A0, A5
00004DD6  D1FC FFFF 4538           add.l      A0, 0xFFFF4538
00004DDC  208B                     move.l     [A0], A3
00004DDE  558F                     subq.l     A7, 2
00004DE0  204D                     movea.l    A0, A5
00004DE2  D1FC FFFF 4538           add.l      A0, 0xFFFF4538
00004DE8  4850                     pea.l      [A0]
00004DEA  4EAD 00E2                jsr        [A5 + 0xE2 /* export_24, CODE:1 @ 000017D4 */]
00004DEE  2F0B                     move.l     -[A7], A3
00004DF0  A9A3                     syscall    ReleaseResource
00004DF2  544F                     addq.w     A7, 2
label00004DF4:
00004DF4  3D7C 0010 FFFE           move.w     [A6 - 0x2], 0x10
00004DFA  3D7C 0010 FFFC           move.w     [A6 - 0x4], 0x10
00004E00  42AE FFF8                clr.l      [A6 - 0x8]
00004E04  7000                     moveq.l    D0, 0x00
00004E06  2F00                     move.l     -[A7], D0
00004E08  2F00                     move.l     -[A7], D0
00004E0A  2F00                     move.l     -[A7], D0
00004E0C  7208                     moveq.l    D1, 0x08
00004E0E  2F01                     move.l     -[A7], D1
00004E10  486E FFF8                pea.l      [A6 - 0x8]
00004E14  2F00                     move.l     -[A7], D0
00004E16  4EAD 1722                jsr        [A5 + 0x1722 /* export_736, CODE:32 @ 00004320 */]
00004E1A  2940 0242                move.l     [A4 + 0x242], D0
00004E1E  4FEF 0018                lea.l      A7, [A7 + 0x18]
00004E22  6614                     bne        +0x16 /* 00004E38 */
00004E24  204D                     movea.l    A0, A5
00004E26  D1FC FFFF 3C5A           add.l      A0, 0xFFFF3C5A
00004E2C  4850                     pea.l      [A0]
00004E2E  2F2C 0064                move.l     -[A7], [A4 + 0x64]
00004E32  4EAD 162A                jsr        [A5 + 0x162A /* export_705, CODE:32 @ 00003696 */]
00004E36  504F                     addq.w     A7, 8
label00004E38:
00004E38  70FF                     moveq.l    D0, 0xFFFFFFFF
00004E3A  2F00                     move.l     -[A7], D0
00004E3C  4878 008F                push.l     0x8F
00004E40  204C                     movea.l    A0, A4
00004E42  226C 0060                movea.l    A1, [A4 + 0x60]
00004E46  D0E9 0068                add.w      A0, [A1 + 0x68]
00004E4A  2F08                     move.l     -[A7], A0
00004E4C  2049                     movea.l    A0, A1
00004E4E  2268 006C                movea.l    A1, [A0 + 0x6C]
00004E52  4E91                     jsr        [A1]
00004E54  7000                     moveq.l    D0, 0x00
00004E56  2F00                     move.l     -[A7], D0
00004E58  7278                     moveq.l    D1, 0x78
00004E5A  2F01                     move.l     -[A7], D1
00004E5C  7050                     moveq.l    D0, 0x50
00004E5E  2F00                     move.l     -[A7], D0
00004E60  204C                     movea.l    A0, A4
00004E62  226C 0060                movea.l    A1, [A4 + 0x60]
00004E66  D0E9 00F0                add.w      A0, [A1 + 0xF0]
00004E6A  2F08                     move.l     -[A7], A0
00004E6C  2049                     movea.l    A0, A1
00004E6E  2268 00F4                movea.l    A1, [A0 + 0xF4]
00004E72  4E91                     jsr        [A1]
00004E74  2F0C                     move.l     -[A7], A4
00004E76  4EBA 1262                jsr        [PC + 0x1262 /* 000060DA */]
00004E7A  2F0C                     move.l     -[A7], A4
00004E7C  4EBA 19EE                jsr        [PC + 0x19EE /* 0000686C */]
00004E80  4FEF 0024                lea.l      A7, [A7 + 0x24]
label00004E84:
00004E84  200C                     move.l     D0, A4
00004E86  4CEE 1808 FFEC           movem.l    D3,A3,A4, [A6 - 0x14]
00004E8C  4E5E                     unlink     A6
00004E8E  4E75                     rts
00004E90  8025 5F5F 6374 5F5F 3... dc.b       "__ct__20cFieldScheduleWindowFP6cAgent"
export_354:
00004EBA  4E56 0000                link       A6, 0
00004EBE  48E7 0108                movem.l    -[A7], D7,A4
00004EC2  2E2E 000C                move.l     D7, [A6 + 0xC]
00004EC6  286E 0008                movea.l    A4, [A6 + 0x8]
00004ECA  200C                     move.l     D0, A4
00004ECC  6700 00D6                beq        +0xD8 /* 00004FA4 */
00004ED0  204D                     movea.l    A0, A5
00004ED2  D1FC FFFF 3CE0           add.l      A0, 0xFFFF3CE0
00004ED8  2950 0070                move.l     [A4 + 0x70], [A0]
00004EDC  206C 0064                movea.l    A0, [A4 + 0x64]
00004EE0  224D                     movea.l    A1, A5
00004EE2  D3FC FFFF 3CDC           add.l      A1, 0xFFFF3CDC
00004EE8  2151 0008                move.l     [A0 + 0x8], [A1]
00004EEC  204D                     movea.l    A0, A5
00004EEE  D1FC FFFF 3CD8           add.l      A0, 0xFFFF3CD8
00004EF4  2950 0060                move.l     [A4 + 0x60], [A0]
00004EF8  204D                     movea.l    A0, A5
00004EFA  D1FC FFFF 4538           add.l      A0, 0xFFFF4538
00004F00  4A90                     tst.l      [A0]
00004F02  6718                     beq        +0x1A /* 00004F1C */
00004F04  204D                     movea.l    A0, A5
00004F06  D1FC FFFF 4538           add.l      A0, 0xFFFF4538
00004F0C  2050                     movea.l    A0, [A0]
00004F0E  A023                     syscall    DisposHandle/DisposeHandle
00004F10  204D                     movea.l    A0, A5
00004F12  D1FC FFFF 4538           add.l      A0, 0xFFFF4538
00004F18  7000                     moveq.l    D0, 0x00
00004F1A  2080                     move.l     [A0], D0
label00004F1C:
00004F1C  4AAC 0242                tst.l      [A4 + 0x242]
00004F20  6728                     beq        +0x2A /* 00004F4A */
00004F22  7003                     moveq.l    D0, 0x03
00004F24  2F00                     move.l     -[A7], D0
00004F26  206C 0242                movea.l    A0, [A4 + 0x242]
00004F2A  2248                     movea.l    A1, A0
00004F2C  2269 0008                movea.l    A1, [A1 + 0x8]
00004F30  D0E9 0030                add.w      A0, [A1 + 0x30]
00004F34  2F08                     move.l     -[A7], A0
00004F36  206C 0242                movea.l    A0, [A4 + 0x242]
00004F3A  2068 0008                movea.l    A0, [A0 + 0x8]
00004F3E  2268 0034                movea.l    A1, [A0 + 0x34]
00004F42  4E91                     jsr        [A1]
00004F44  7000                     moveq.l    D0, 0x00
00004F46  504F                     addq.w     A7, 8
00004F48  6002                     bra        +0x4 /* 00004F4C */
label00004F4A:
00004F4A  7000                     moveq.l    D0, 0x00
label00004F4C:
00004F4C  200C                     move.l     D0, A4
00004F4E  6754                     beq        +0x56 /* 00004FA4 */
00004F50  7002                     moveq.l    D0, 0x02
00004F52  2F00                     move.l     -[A7], D0
00004F54  486C 018A                pea.l      [A4 + 0x18A]
00004F58  4EAD 16CA                jsr        [A5 + 0x16CA /* export_725, CODE:32 @ 00003F94 */]
00004F5C  7002                     moveq.l    D0, 0x02
00004F5E  2F00                     move.l     -[A7], D0
00004F60  486C 016C                pea.l      [A4 + 0x16C]
00004F64  4EAD 16CA                jsr        [A5 + 0x16CA /* export_725, CODE:32 @ 00003F94 */]
00004F68  7000                     moveq.l    D0, 0x00
00004F6A  2F00                     move.l     -[A7], D0
00004F6C  2F0C                     move.l     -[A7], A4
00004F6E  4EAD 10B2                jsr        [A5 + 0x10B2 /* export_530, CODE:26 @ 000003EC */]
00004F72  7002                     moveq.l    D0, 0x02
00004F74  C087                     and.l      D0, D7
00004F76  6718                     beq        +0x1A /* 00004F90 */
00004F78  7000                     moveq.l    D0, 0x00
00004F7A  2F00                     move.l     -[A7], D0
00004F7C  220C                     move.l     D1, A4
00004F7E  D2BC 0000 0246           add.l      D1, 0x246
00004F84  2F01                     move.l     -[A7], D1
00004F86  4EAD 1632                jsr        [A5 + 0x1632 /* export_706, CODE:32 @ 000036CC */]
00004F8A  7000                     moveq.l    D0, 0x00
00004F8C  504F                     addq.w     A7, 8
00004F8E  6002                     bra        +0x4 /* 00004F92 */
label00004F90:
00004F90  7000                     moveq.l    D0, 0x00
label00004F92:
00004F92  0807 0000                btst.b     D7, 0x0
00004F96  4FEF 0018                lea.l      A7, [A7 + 0x18]
00004F9A  6708                     beq        +0xA /* 00004FA4 */
00004F9C  2F0C                     move.l     -[A7], A4
00004F9E  4EAD 0102                jsr        [A5 + 0x102 /* export_28, CODE:1 @ 00001BE0 */]
00004FA2  584F                     addq.w     A7, 4
label00004FA4:
00004FA4  4CEE 1080 FFF8           movem.l    D7,A4, [A6 - 0x8]
00004FAA  4E5E                     unlink     A6
00004FAC  4E75                     rts
00004FAE  9E5F 5F64 745F 5F32 3... dc.b       "__dt__20cFieldScheduleWindowFv"
export_355:
00004FD0  4E56 0000                link       A6, 0
00004FD4  2F0C                     move.l     -[A7], A4
00004FD6  286E 0008                movea.l    A4, [A6 + 0x8]
00004FDA  204C                     movea.l    A0, A4
00004FDC  226C 0060                movea.l    A1, [A4 + 0x60]
00004FE0  D0E9 0110                add.w      A0, [A1 + 0x110]
00004FE4  2F08                     move.l     -[A7], A0
00004FE6  2049                     movea.l    A0, A1
00004FE8  2268 0114                movea.l    A1, [A0 + 0x114]
00004FEC  4E91                     jsr        [A1]
00004FEE  2F0C                     move.l     -[A7], A4
00004FF0  2F3C 574E 4435           move.l     -[A7], 0x574E4435 /* 'WND5' */
00004FF6  204C                     movea.l    A0, A4
00004FF8  226C 0060                movea.l    A1, [A4 + 0x60]
00004FFC  D0E9 0060                add.w      A0, [A1 + 0x60]
00005000  2F08                     move.l     -[A7], A0
00005002  2049                     movea.l    A0, A1
00005004  2268 0064                movea.l    A1, [A0 + 0x64]
00005008  4E91                     jsr        [A1]
0000500A  7001                     moveq.l    D0, 0x01
0000500C  286E FFFC                movea.l    A4, [A6 - 0x4]
00005010  4E5E                     unlink     A6
00005012  4E75                     rts
00005014  9F43 6C6F 7365 5F5F 3... dc.b       "Close__20cFieldScheduleWindowFv"
export_356:
00005036  4E56 FFF4                link       A6, -0x000C
0000503A  48E7 0718                movem.l    -[A7], D5,D6,D7,A3,A4
0000503E  2C2E 000C                move.l     D6, [A6 + 0xC]
00005042  286E 0008                movea.l    A4, [A6 + 0x8]
00005046  2006                     move.l     D0, D6
00005048  0480 436C 5761           subi.l     D0, 0x436C5761 /* 'ClWa' */
0000504E  671C                     beq        +0x1E /* 0000506C */
00005050  0480 03D5 FCCF           subi.l     D0, 0x3D5FCCF
00005056  6736                     beq        +0x38 /* 0000508E */
00005058  5180                     subq.l     D0, 8
0000505A  6700 00DE                beq        +0xE0 /* 0000513A */
0000505E  0480 0000 001A           subi.l     D0, 0x1A
00005064  6700 00EC                beq        +0xEE /* 00005152 */
00005068  6000 033C                bra        +0x33E /* 000053A6 */
label0000506C:
0000506C  206C 01EC                movea.l    A0, [A4 + 0x1EC]
00005070  4228 01FC                clr.b      [A0 + 0x1FC]
00005074  204C                     movea.l    A0, A4
00005076  226C 0060                movea.l    A1, [A4 + 0x60]
0000507A  D0E9 0110                add.w      A0, [A1 + 0x110]
0000507E  2F08                     move.l     -[A7], A0
00005080  2049                     movea.l    A0, A1
00005082  2268 0114                movea.l    A1, [A0 + 0x114]
00005086  4E91                     jsr        [A1]
00005088  584F                     addq.w     A7, 4
0000508A  6000 031A                bra        +0x31C /* 000053A6 */
label0000508E:
0000508E  700D                     moveq.l    D0, 0x0D
00005090  2F00                     move.l     -[A7], D0
00005092  2F0C                     move.l     -[A7], A4
00005094  4EAD 11FA                jsr        [A5 + 0x11FA /* export_571, CODE:26 @ 00003354 */]
00005098  B0AE 0010                cmp.l      D0, [A6 + 0x10]
0000509C  504F                     addq.w     A7, 8
0000509E  6622                     bne        +0x24 /* 000050C2 */
000050A0  206C 01EC                movea.l    A0, [A4 + 0x1EC]
000050A4  4228 01FC                clr.b      [A0 + 0x1FC]
000050A8  204C                     movea.l    A0, A4
000050AA  226C 0060                movea.l    A1, [A4 + 0x60]
000050AE  D0E9 0078                add.w      A0, [A1 + 0x78]
000050B2  2F08                     move.l     -[A7], A0
000050B4  2049                     movea.l    A0, A1
000050B6  2268 007C                movea.l    A1, [A0 + 0x7C]
000050BA  4E91                     jsr        [A1]
000050BC  584F                     addq.w     A7, 4
000050BE  6000 02FA                bra        +0x2FC /* 000053BA */
label000050C2:
000050C2  700E                     moveq.l    D0, 0x0E
000050C4  2F00                     move.l     -[A7], D0
000050C6  2F0C                     move.l     -[A7], A4
000050C8  4EAD 11FA                jsr        [A5 + 0x11FA /* export_571, CODE:26 @ 00003354 */]
000050CC  B0AE 0010                cmp.l      D0, [A6 + 0x10]
000050D0  504F                     addq.w     A7, 8
000050D2  661A                     bne        +0x1C /* 000050EE */
000050D4  204D                     movea.l    A0, A5
000050D6  D1FC FFFE CFD0           add.l      A0, 0xFFFECFD0
000050DC  30BC 0012                move.w     [A0], 0x12
000050E0  206C 01EC                movea.l    A0, [A4 + 0x1EC]
000050E4  117C 0001 01FC           move.b     [A0 + 0x1FC], 0x1
000050EA  6000 02CE                bra        +0x2D0 /* 000053BA */
label000050EE:
000050EE  700F                     moveq.l    D0, 0x0F
000050F0  2F00                     move.l     -[A7], D0
000050F2  2F0C                     move.l     -[A7], A4
000050F4  4EAD 11FA                jsr        [A5 + 0x11FA /* export_571, CODE:26 @ 00003354 */]
000050F8  B0AE 0010                cmp.l      D0, [A6 + 0x10]
000050FC  504F                     addq.w     A7, 8
000050FE  6600 02BA                bne        +0x2BC /* 000053BA */
00005102  7000                     moveq.l    D0, 0x00
00005104  204D                     movea.l    A0, A5
00005106  D1FC FFFD CEC6           add.l      A0, 0xFFFDCEC6
0000510C  3010                     move.w     D0, [A0]
0000510E  ED80                     asl        D0, 6
00005110  3D40 FFFE                move.w     [A6 - 0x2], D0
00005114  426E FFFC                clr.w      [A6 - 0x4]
00005118  2F2E FFFC                move.l     -[A7], [A6 - 0x4]
0000511C  2F2C 01EC                move.l     -[A7], [A4 + 0x1EC]
00005120  4EAD 21BA                jsr        [A5 + 0x21BA /* export_1075, CODE:40 @ 00001992 */]
00005124  2F0C                     move.l     -[A7], A4
00005126  4EBA 1744                jsr        [PC + 0x1744 /* 0000686C */]
0000512A  2F2C 01EC                move.l     -[A7], [A4 + 0x1EC]
0000512E  4EAD 1F52                jsr        [A5 + 0x1F52 /* export_998, CODE:37 @ 000014C8 */]
00005132  4FEF 0010                lea.l      A7, [A7 + 0x10]
00005136  6000 0282                bra        +0x284 /* 000053BA */
label0000513A:
0000513A  206C 01EC                movea.l    A0, [A4 + 0x1EC]
0000513E  4228 01FC                clr.b      [A0 + 0x1FC]
00005142  2F2E 0010                move.l     -[A7], [A6 + 0x10]
00005146  2F0C                     move.l     -[A7], A4
00005148  4EBA 13E2                jsr        [PC + 0x13E2 /* 0000652C */]
0000514C  504F                     addq.w     A7, 8
0000514E  6000 026A                bra        +0x26C /* 000053BA */
label00005152:
00005152  202E 0010                move.l     D0, [A6 + 0x10]
00005156  B0AC 01F0                cmp.l      D0, [A4 + 0x1F0]
0000515A  6600 01BE                bne        +0x1C0 /* 0000531A */
0000515E  206C 01F0                movea.l    A0, [A4 + 0x1F0]
00005162  2D68 01DC FFF4           move.l     [A6 - 0xC], [A0 + 0x1DC]
00005168  206E 0014                movea.l    A0, [A6 + 0x14]
0000516C  2D50 FFF8                move.l     [A6 - 0x8], [A0]
00005170  206C 01EC                movea.l    A0, [A4 + 0x1EC]
00005174  4228 01FC                clr.b      [A0 + 0x1FC]
00005178  302E FFFA                move.w     D0, [A6 - 0x6]
0000517C  E840                     asr        D0.w, 4
0000517E  3D40 FFFA                move.w     [A6 - 0x6], D0
00005182  7010                     moveq.l    D0, 0x10
00005184  C06E FFF8                and.w      D0, [A6 - 0x8]
00005188  E848                     lsr        D0.w, 4
0000518A  7200                     moveq.l    D1, 0x00
0000518C  3200                     move.w     D1, D0
0000518E  E789                     lsl        D1, 3
00005190  3D41 FFF8                move.w     [A6 - 0x8], D1
00005194  302E FFFA                move.w     D0, [A6 - 0x6]
00005198  D06E FFF8                add.w      D0, [A6 - 0x8]
0000519C  3940 023C                move.w     [A4 + 0x23C], D0
000051A0  206C 0084                movea.l    A0, [A4 + 0x84]
000051A4  4868 0010                pea.l      [A0 + 0x10]
000051A8  2F0C                     move.l     -[A7], A4
000051AA  4EAD 127A                jsr        [A5 + 0x127A /* export_587, CODE:26 @ 000039C8 */]
000051AE  7014                     moveq.l    D0, 0x14
000051B0  204D                     movea.l    A0, A5
000051B2  D1FC FFFE CFD0           add.l      A0, 0xFFFECFD0
000051B8  B050                     cmp.w      D0, [A0]
000051BA  504F                     addq.w     A7, 8
000051BC  6E64                     bgt        +0x66 /* 00005222 */
000051BE  701B                     moveq.l    D0, 0x1B
000051C0  204D                     movea.l    A0, A5
000051C2  D1FC FFFE CFD0           add.l      A0, 0xFFFECFD0
000051C8  B050                     cmp.w      D0, [A0]
000051CA  6D56                     blt        +0x58 /* 00005222 */
000051CC  204D                     movea.l    A0, A5
000051CE  D1FC FFFE CFD0           add.l      A0, 0xFFFECFD0
000051D4  3E10                     move.w     D7, [A0]
000051D6  9E7C 0014                sub.w      D7, 0x14
000051DA  4A47                     tst.w      D7
000051DC  6D44                     blt        +0x46 /* 00005222 */
000051DE  0C47 0007                cmpi.w     D7, 0x7
000051E2  6E3E                     bgt        +0x40 /* 00005222 */
000051E4  48C7                     ext.l      D7
000051E6  2F07                     move.l     -[A7], D7
000051E8  486C 016C                pea.l      [A4 + 0x16C]
000051EC  4EAD 16D2                jsr        [A5 + 0x16D2 /* export_726, CODE:32 @ 00003FEA */]
000051F0  2640                     movea.l    A3, D0
000051F2  43EB 0080                lea.l      A1, [A3 + 0x80]
000051F6  2049                     movea.l    A0, A1
000051F8  226B 0088                movea.l    A1, [A3 + 0x88]
000051FC  D0E9 00B0                add.w      A0, [A1 + 0xB0]
00005200  2F08                     move.l     -[A7], A0
00005202  2049                     movea.l    A0, A1
00005204  2268 00B4                movea.l    A1, [A0 + 0xB4]
00005208  4E91                     jsr        [A1]
0000520A  204B                     movea.l    A0, A3
0000520C  226B 0060                movea.l    A1, [A3 + 0x60]
00005210  D0E9 00E8                add.w      A0, [A1 + 0xE8]
00005214  2F08                     move.l     -[A7], A0
00005216  2049                     movea.l    A0, A1
00005218  2268 00EC                movea.l    A1, [A0 + 0xEC]
0000521C  4E91                     jsr        [A1]
0000521E  4FEF 0010                lea.l      A7, [A7 + 0x10]
label00005222:
00005222  204D                     movea.l    A0, A5
00005224  D1FC FFFE CFD0           add.l      A0, 0xFFFECFD0
0000522A  30AC 023C                move.w     [A0], [A4 + 0x23C]
0000522E  302C 023C                move.w     D0, [A4 + 0x23C]
00005232  48C0                     ext.l      D0
00005234  D040                     add.w      D0, D0
00005236  204D                     movea.l    A0, A5
00005238  D1FC FFFF 77F2           add.l      A0, 0xFFFF77F2
0000523E  3030 0000                move.w     D0, [A0 + D0.w]
00005242  48C0                     ext.l      D0
00005244  2F00                     move.l     -[A7], D0
00005246  226C 01D4                movea.l    A1, [A4 + 0x1D4]
0000524A  43E9 0126                lea.l      A1, [A1 + 0x126]
0000524E  2049                     movea.l    A0, A1
00005250  226C 01D4                movea.l    A1, [A4 + 0x1D4]
00005254  2269 012E                movea.l    A1, [A1 + 0x12E]
00005258  D0E9 0030                add.w      A0, [A1 + 0x30]
0000525C  2F08                     move.l     -[A7], A0
0000525E  206C 01D4                movea.l    A0, [A4 + 0x1D4]
00005262  2068 012E                movea.l    A0, [A0 + 0x12E]
00005266  2268 0034                movea.l    A1, [A0 + 0x34]
0000526A  4E91                     jsr        [A1]
0000526C  206C 01D4                movea.l    A0, [A4 + 0x1D4]
00005270  2248                     movea.l    A1, A0
00005272  2269 0060                movea.l    A1, [A1 + 0x60]
00005276  D0E9 0070                add.w      A0, [A1 + 0x70]
0000527A  2F08                     move.l     -[A7], A0
0000527C  206C 01D4                movea.l    A0, [A4 + 0x1D4]
00005280  2068 0060                movea.l    A0, [A0 + 0x60]
00005284  2268 0074                movea.l    A1, [A0 + 0x74]
00005288  4E91                     jsr        [A1]
0000528A  7000                     moveq.l    D0, 0x00
0000528C  2F00                     move.l     -[A7], D0
0000528E  2F0C                     move.l     -[A7], A4
00005290  4EAD 1282                jsr        [A5 + 0x1282 /* export_588, CODE:26 @ 00003A24 */]
00005294  2F2C 01F0                move.l     -[A7], [A4 + 0x1F0]
00005298  4EAD 1F52                jsr        [A5 + 0x1F52 /* export_998, CODE:37 @ 000014C8 */]
0000529C  302E FFFA                move.w     D0, [A6 - 0x6]
000052A0  48C0                     ext.l      D0
000052A2  E988                     lsl        D0, 4
000052A4  206E FFF4                movea.l    A0, [A6 - 0xC]
000052A8  2050                     movea.l    A0, [A0]
000052AA  3A28 0004                move.w     D5, [A0 + 0x4]
000052AE  DA40                     add.w      D5, D0
000052B0  302E FFF8                move.w     D0, [A6 - 0x8]
000052B4  48C0                     ext.l      D0
000052B6  E388                     lsl        D0, 1
000052B8  206E FFF4                movea.l    A0, [A6 - 0xC]
000052BC  2050                     movea.l    A0, [A0]
000052BE  3E28 0002                move.w     D7, [A0 + 0x2]
000052C2  DE40                     add.w      D7, D0
000052C4  206C 0238                movea.l    A0, [A4 + 0x238]
000052C8  47E8 0086                lea.l      A3, [A0 + 0x86]
000052CC  3007                     move.w     D0, D7
000052CE  906B 0010                sub.w      D0, [A3 + 0x10]
000052D2  48C0                     ext.l      D0
000052D4  2F00                     move.l     -[A7], D0
000052D6  3005                     move.w     D0, D5
000052D8  906B 0012                sub.w      D0, [A3 + 0x12]
000052DC  48C0                     ext.l      D0
000052DE  2F00                     move.l     -[A7], D0
000052E0  204B                     movea.l    A0, A3
000052E2  226B 0008                movea.l    A1, [A3 + 0x8]
000052E6  D0E9 0040                add.w      A0, [A1 + 0x40]
000052EA  2F08                     move.l     -[A7], A0
000052EC  2049                     movea.l    A0, A1
000052EE  2268 0044                movea.l    A1, [A0 + 0x44]
000052F2  4E91                     jsr        [A1]
000052F4  206C 0238                movea.l    A0, [A4 + 0x238]
000052F8  2248                     movea.l    A1, A0
000052FA  2269 0060                movea.l    A1, [A1 + 0x60]
000052FE  D0E9 0070                add.w      A0, [A1 + 0x70]
00005302  2F08                     move.l     -[A7], A0
00005304  206C 0238                movea.l    A0, [A4 + 0x238]
00005308  2068 0060                movea.l    A0, [A0 + 0x60]
0000530C  2268 0074                movea.l    A1, [A0 + 0x74]
00005310  4E91                     jsr        [A1]
00005312  4FEF 0028                lea.l      A7, [A7 + 0x28]
00005316  6000 00A2                bra        +0xA4 /* 000053BA */
label0000531A:
0000531A  202E 0010                move.l     D0, [A6 + 0x10]
0000531E  B0AC 01EC                cmp.l      D0, [A4 + 0x1EC]
00005322  6600 0096                bne        +0x98 /* 000053BA */
00005326  206E 0014                movea.l    A0, [A6 + 0x14]
0000532A  2D50 FFF4                move.l     [A6 - 0xC], [A0]
0000532E  206C 01EC                movea.l    A0, [A4 + 0x1EC]
00005332  2D68 01D4 FFF8           move.l     [A6 - 0x8], [A0 + 0x1D4]
00005338  302E FFF6                move.w     D0, [A6 - 0xA]
0000533C  48C0                     ext.l      D0
0000533E  322E FFFA                move.w     D1, [A6 - 0x6]
00005342  48C1                     ext.l      D1
00005344  9081                     sub.l      D0, D1
00005346  E880                     asr        D0, 4
00005348  3D40 FFF6                move.w     [A6 - 0xA], D0
0000534C  7004                     moveq.l    D0, 0x04
0000534E  2F00                     move.l     -[A7], D0
00005350  2F3C 5359 5330           move.l     -[A7], 0x53595330 /* 'SYS0' */
00005356  204C                     movea.l    A0, A4
00005358  226C 0060                movea.l    A1, [A4 + 0x60]
0000535C  D0E9 0060                add.w      A0, [A1 + 0x60]
00005360  2F08                     move.l     -[A7], A0
00005362  2049                     movea.l    A0, A1
00005364  2268 0064                movea.l    A1, [A0 + 0x64]
00005368  4E91                     jsr        [A1]
0000536A  204D                     movea.l    A0, A5
0000536C  D1FC FFFE CFD0           add.l      A0, 0xFFFECFD0
00005372  3010                     move.w     D0, [A0]
00005374  48C0                     ext.l      D0
00005376  2F00                     move.l     -[A7], D0
00005378  7000                     moveq.l    D0, 0x00
0000537A  302E FFF6                move.w     D0, [A6 - 0xA]
0000537E  2F00                     move.l     -[A7], D0
00005380  7000                     moveq.l    D0, 0x00
00005382  204D                     movea.l    A0, A5
00005384  D1FC FFFE CFD2           add.l      A0, 0xFFFECFD2
0000538A  1010                     move.b     D0, [A0]
0000538C  5340                     subq.w     D0, 1
0000538E  7200                     moveq.l    D1, 0x00
00005390  1200                     move.b     D1, D0
00005392  2F01                     move.l     -[A7], D1
00005394  4EAD 067A                jsr        [A5 + 0x67A /* export_203, CODE:11 @ 00000FAA */]
00005398  2F2C 01EC                move.l     -[A7], [A4 + 0x1EC]
0000539C  4EAD 1F52                jsr        [A5 + 0x1F52 /* export_998, CODE:37 @ 000014C8 */]
000053A0  4FEF 001C                lea.l      A7, [A7 + 0x1C]
000053A4  6014                     bra        +0x16 /* 000053BA */
label000053A6:
000053A6  2F2E 0014                move.l     -[A7], [A6 + 0x14]
000053AA  2F2E 0010                move.l     -[A7], [A6 + 0x10]
000053AE  2F06                     move.l     -[A7], D6
000053B0  2F0C                     move.l     -[A7], A4
000053B2  4EAD 118A                jsr        [A5 + 0x118A /* export_557, CODE:26 @ 000021AC */]
000053B6  4FEF 0010                lea.l      A7, [A7 + 0x10]
label000053BA:
000053BA  4CEE 18E0 FFE0           movem.l    D5,D6,D7,A3,A4, [A6 - 0x20]
000053C0  4E5E                     unlink     A6
000053C2  4E75                     rts
000053C4  8032 4861 7342 6565 6... dc.b       "HasBeenAChange__20cFieldScheduleWindowFlP6cAgentPc"
export_357:
000053FA  4E56 0000                link       A6, 0
000053FE  48E7 0118                movem.l    -[A7], D7,A3,A4
00005402  3E2E 0016                move.w     D7, [A6 + 0x16]
00005406  286E 0008                movea.l    A4, [A6 + 0x8]
0000540A  302E 000E                move.w     D0, [A6 + 0xE]
0000540E  5340                     subq.w     D0, 1
00005410  6B00 00C0                bmi        +0xC2 /* 000054D2 */
00005414  0C40 0012                cmpi.w     D0, 0x12
00005418  6E00 00B8                bgt        +0xBA /* 000054D2 */
0000541C  D040                     add.w      D0, D0
0000541E  303B 0006                move.w     D0, [PC + D0.w + 0x6]
00005422  4EFB 0000                jmp        [PC + D0.w]
00005426  0028 0028 0028           ori.b      [A0 + 0x28], 0x28 /* '(' */
0000542C  0028 0028 0028           ori.b      [A0 + 0x28], 0x28 /* '(' */
00005432  00AE 00AE 00AE 00AE      ori.l      [A6 + 0xAE], 0xAE00AE
0000543A  00AE 00AE 00AE 00AE      ori.l      [A6 + 0xAE], 0xAE00AE
00005442  00AE 00AE 00AE 006C      ori.l      [A6 + 0x6C], 0xAE00AE
0000544A  006C 7001 2F00           ori.w      [A4 + 0x2F00], 0x7001
00005450  48C7                     ext.l      D7
00005452  2F07                     move.l     -[A7], D7
00005454  2F2E 0010                move.l     -[A7], [A6 + 0x10]
00005458  2F0C                     move.l     -[A7], A4
0000545A  2F0C                     move.l     -[A7], A4
0000545C  7200                     moveq.l    D1, 0x00
0000545E  2F01                     move.l     -[A7], D1
00005460  2F01                     move.l     -[A7], D1
00005462  4EAD 1F82                jsr        [A5 + 0x1F82 /* export_1004, CODE:37 @ 00001652 */]
00005466  2640                     movea.l    A3, D0
00005468  2F0B                     move.l     -[A7], A3
0000546A  486C 016C                pea.l      [A4 + 0x16C]
0000546E  4EAD 013A                jsr        [A5 + 0x13A /* export_35, CODE:1 @ 00002256 */]
00005472  200B                     move.l     D0, A3
00005474  670A                     beq        +0xC /* 00005480 */
00005476  200B                     move.l     D0, A3
00005478  D0BC 0000 0080           add.l      D0, 0x80
0000547E  6002                     bra        +0x4 /* 00005482 */
label00005480:
00005480  7000                     moveq.l    D0, 0x00
label00005482:
00005482  2F00                     move.l     -[A7], D0
00005484  2F0C                     move.l     -[A7], A4
00005486  4EAD 11F2                jsr        [A5 + 0x11F2 /* export_570, CODE:26 @ 000032DA */]
0000548A  4FEF 002C                lea.l      A7, [A7 + 0x2C]
0000548E  6042                     bra        +0x44 /* 000054D2 */
00005490  7001                     moveq.l    D0, 0x01
00005492  2F00                     move.l     -[A7], D0
00005494  48C7                     ext.l      D7
00005496  2F07                     move.l     -[A7], D7
00005498  2F2E 0010                move.l     -[A7], [A6 + 0x10]
0000549C  2F0C                     move.l     -[A7], A4
0000549E  2F0C                     move.l     -[A7], A4
000054A0  7200                     moveq.l    D1, 0x00
000054A2  2F01                     move.l     -[A7], D1
000054A4  2F01                     move.l     -[A7], D1
000054A6  4EAD 1F82                jsr        [A5 + 0x1F82 /* export_1004, CODE:37 @ 00001652 */]
000054AA  2640                     movea.l    A3, D0
000054AC  2F0B                     move.l     -[A7], A3
000054AE  486C 018A                pea.l      [A4 + 0x18A]
000054B2  4EAD 013A                jsr        [A5 + 0x13A /* export_35, CODE:1 @ 00002256 */]
000054B6  200B                     move.l     D0, A3
000054B8  670A                     beq        +0xC /* 000054C4 */
000054BA  200B                     move.l     D0, A3
000054BC  D0BC 0000 0080           add.l      D0, 0x80
000054C2  6002                     bra        +0x4 /* 000054C6 */
label000054C4:
000054C4  7000                     moveq.l    D0, 0x00
label000054C6:
000054C6  2F00                     move.l     -[A7], D0
000054C8  2F0C                     move.l     -[A7], A4
000054CA  4EAD 11F2                jsr        [A5 + 0x11F2 /* export_570, CODE:26 @ 000032DA */]
000054CE  4FEF 002C                lea.l      A7, [A7 + 0x2C]
label000054D2:
000054D2  4CEE 1880 FFF4           movem.l    D7,A3,A4, [A6 - 0xC]
000054D8  4E5E                     unlink     A6
000054DA  4E75                     rts
000054DC  8029 4E65 7749 636F 6... dc.b       "NewIcon__20cFieldScheduleWindowFsR4RectT1"
export_358:
0000550A  4E56 FFB6                link       A6, -0x004A
0000550E  48E7 0038                movem.l    -[A7], A2,A3,A4
00005512  286E 0008                movea.l    A4, [A6 + 0x8]
00005516  302E 000E                move.w     D0, [A6 + 0xE]
0000551A  5F40                     subq.w     D0, 7
0000551C  6B00 06FA                bmi        +0x6FC /* 00005C18 */
00005520  0C40 001C                cmpi.w     D0, 0x1C
00005524  6E00 06F2                bgt        +0x6F4 /* 00005C18 */
00005528  D040                     add.w      D0, D0
0000552A  303B 0006                move.w     D0, [PC + D0.w + 0x6]
0000552E  4EFB 0000                jmp        [PC + D0.w]
00005532  003C 0076                ori.b      ccr, 118
00005536  00B0 00EA 0124 015E      ori.l      <<invalid full ext with IS == 1 and I/IS == 6>>, 0xEA0124
0000553E  06E8                     .incomplete
00005540  06E8                     .incomplete
00005542  06E8                     .incomplete
00005544  01CE                     .incomplete
00005546  026E 06E8 06E8           andi.w     [A6 + 0x6E8], 0x6E8
0000554C  030E                     btst       A6, D1
0000554E  044C 064C                subi.w     A4, 0x64C
00005552  069A 05B0 06E8           addi.l     [A2]+, 0x5B006E8
00005558  06E8                     .incomplete
0000555A  06E8                     .incomplete
0000555C  06E8                     .incomplete
0000555E  06E8                     .incomplete
00005560  06E8                     .incomplete
00005562  06E8                     .incomplete
00005564  06E8                     .incomplete
00005566  04C0                     .incomplete
00005568  0510                     btst       [A0], D2
0000556A  0560                     bchg       -[A0], D2
0000556C  4878 0208                push.l     0x208
00005570  2F2E 0010                move.l     -[A7], [A6 + 0x10]
00005574  2F0C                     move.l     -[A7], A4
00005576  2F0C                     move.l     -[A7], A4
00005578  7000                     moveq.l    D0, 0x00
0000557A  2F00                     move.l     -[A7], D0
0000557C  2F00                     move.l     -[A7], D0
0000557E  4EAD 0E72                jsr        [A5 + 0xE72 /* export_458, CODE:20 @ 00006CD2 */]
00005582  2940 01A8                move.l     [A4 + 0x1A8], D0
00005586  670C                     beq        +0xE /* 00005594 */
00005588  202C 01A8                move.l     D0, [A4 + 0x1A8]
0000558C  D0BC 0000 0080           add.l      D0, 0x80
00005592  6002                     bra        +0x4 /* 00005596 */
label00005594:
00005594  7000                     moveq.l    D0, 0x00
label00005596:
00005596  2F00                     move.l     -[A7], D0
00005598  2F0C                     move.l     -[A7], A4
0000559A  4EAD 11F2                jsr        [A5 + 0x11F2 /* export_570, CODE:26 @ 000032DA */]
0000559E  4FEF 0020                lea.l      A7, [A7 + 0x20]
000055A2  6000 0674                bra        +0x676 /* 00005C18 */
000055A6  4878 0208                push.l     0x208
000055AA  2F2E 0010                move.l     -[A7], [A6 + 0x10]
000055AE  2F0C                     move.l     -[A7], A4
000055B0  2F0C                     move.l     -[A7], A4
000055B2  7000                     moveq.l    D0, 0x00
000055B4  2F00                     move.l     -[A7], D0
000055B6  2F00                     move.l     -[A7], D0
000055B8  4EAD 0E72                jsr        [A5 + 0xE72 /* export_458, CODE:20 @ 00006CD2 */]
000055BC  2940 01AC                move.l     [A4 + 0x1AC], D0
000055C0  670C                     beq        +0xE /* 000055CE */
000055C2  202C 01AC                move.l     D0, [A4 + 0x1AC]
000055C6  D0BC 0000 0080           add.l      D0, 0x80
000055CC  6002                     bra        +0x4 /* 000055D0 */
label000055CE:
000055CE  7000                     moveq.l    D0, 0x00
label000055D0:
000055D0  2F00                     move.l     -[A7], D0
000055D2  2F0C                     move.l     -[A7], A4
000055D4  4EAD 11F2                jsr        [A5 + 0x11F2 /* export_570, CODE:26 @ 000032DA */]
000055D8  4FEF 0020                lea.l      A7, [A7 + 0x20]
000055DC  6000 063A                bra        +0x63C /* 00005C18 */
000055E0  4878 0208                push.l     0x208
000055E4  2F2E 0010                move.l     -[A7], [A6 + 0x10]
000055E8  2F0C                     move.l     -[A7], A4
000055EA  2F0C                     move.l     -[A7], A4
000055EC  7000                     moveq.l    D0, 0x00
000055EE  2F00                     move.l     -[A7], D0
000055F0  2F00                     move.l     -[A7], D0
000055F2  4EAD 0E72                jsr        [A5 + 0xE72 /* export_458, CODE:20 @ 00006CD2 */]
000055F6  2940 01B0                move.l     [A4 + 0x1B0], D0
000055FA  670C                     beq        +0xE /* 00005608 */
000055FC  202C 01B0                move.l     D0, [A4 + 0x1B0]
00005600  D0BC 0000 0080           add.l      D0, 0x80
00005606  6002                     bra        +0x4 /* 0000560A */
label00005608:
00005608  7000                     moveq.l    D0, 0x00
label0000560A:
0000560A  2F00                     move.l     -[A7], D0
0000560C  2F0C                     move.l     -[A7], A4
0000560E  4EAD 11F2                jsr        [A5 + 0x11F2 /* export_570, CODE:26 @ 000032DA */]
00005612  4FEF 0020                lea.l      A7, [A7 + 0x20]
00005616  6000 0600                bra        +0x602 /* 00005C18 */
0000561A  4878 0209                push.l     0x209
0000561E  2F2E 0010                move.l     -[A7], [A6 + 0x10]
00005622  2F0C                     move.l     -[A7], A4
00005624  2F0C                     move.l     -[A7], A4
00005626  7000                     moveq.l    D0, 0x00
00005628  2F00                     move.l     -[A7], D0
0000562A  2F00                     move.l     -[A7], D0
0000562C  4EAD 0E72                jsr        [A5 + 0xE72 /* export_458, CODE:20 @ 00006CD2 */]
00005630  2940 01B4                move.l     [A4 + 0x1B4], D0
00005634  670C                     beq        +0xE /* 00005642 */
00005636  202C 01B4                move.l     D0, [A4 + 0x1B4]
0000563A  D0BC 0000 0080           add.l      D0, 0x80
00005640  6002                     bra        +0x4 /* 00005644 */
label00005642:
00005642  7000                     moveq.l    D0, 0x00
label00005644:
00005644  2F00                     move.l     -[A7], D0
00005646  2F0C                     move.l     -[A7], A4
00005648  4EAD 11F2                jsr        [A5 + 0x11F2 /* export_570, CODE:26 @ 000032DA */]
0000564C  4FEF 0020                lea.l      A7, [A7 + 0x20]
00005650  6000 05C6                bra        +0x5C8 /* 00005C18 */
00005654  4878 020A                push.l     0x20A
00005658  2F2E 0010                move.l     -[A7], [A6 + 0x10]
0000565C  2F0C                     move.l     -[A7], A4
0000565E  2F0C                     move.l     -[A7], A4
00005660  7000                     moveq.l    D0, 0x00
00005662  2F00                     move.l     -[A7], D0
00005664  2F00                     move.l     -[A7], D0
00005666  4EAD 0E72                jsr        [A5 + 0xE72 /* export_458, CODE:20 @ 00006CD2 */]
0000566A  2940 01B8                move.l     [A4 + 0x1B8], D0
0000566E  670C                     beq        +0xE /* 0000567C */
00005670  202C 01B8                move.l     D0, [A4 + 0x1B8]
00005674  D0BC 0000 0080           add.l      D0, 0x80
0000567A  6002                     bra        +0x4 /* 0000567E */
label0000567C:
0000567C  7000                     moveq.l    D0, 0x00
label0000567E:
0000567E  2F00                     move.l     -[A7], D0
00005680  2F0C                     move.l     -[A7], A4
00005682  4EAD 11F2                jsr        [A5 + 0x11F2 /* export_570, CODE:26 @ 000032DA */]
00005686  4FEF 0020                lea.l      A7, [A7 + 0x20]
0000568A  6000 058C                bra        +0x58E /* 00005C18 */
0000568E  4878 01FA                push.l     0x1FA
00005692  2F0C                     move.l     -[A7], A4
00005694  7000                     moveq.l    D0, 0x00
00005696  2F00                     move.l     -[A7], D0
00005698  2F00                     move.l     -[A7], D0
0000569A  4EAD 1982                jsr        [A5 + 0x1982 /* export_812, CODE:33 @ 0000205A */]
0000569E  2940 01BC                move.l     [A4 + 0x1BC], D0
000056A2  2040                     movea.l    A0, D0
000056A4  47E8 0086                lea.l      A3, [A0 + 0x86]
000056A8  206E 0010                movea.l    A0, [A6 + 0x10]
000056AC  3010                     move.w     D0, [A0]
000056AE  906B 0010                sub.w      D0, [A3 + 0x10]
000056B2  48C0                     ext.l      D0
000056B4  2F00                     move.l     -[A7], D0
000056B6  206E 0010                movea.l    A0, [A6 + 0x10]
000056BA  3028 0002                move.w     D0, [A0 + 0x2]
000056BE  906B 0012                sub.w      D0, [A3 + 0x12]
000056C2  48C0                     ext.l      D0
000056C4  2F00                     move.l     -[A7], D0
000056C6  204B                     movea.l    A0, A3
000056C8  226B 0008                movea.l    A1, [A3 + 0x8]
000056CC  D0E9 0040                add.w      A0, [A1 + 0x40]
000056D0  2F08                     move.l     -[A7], A0
000056D2  2049                     movea.l    A0, A1
000056D4  2268 0044                movea.l    A1, [A0 + 0x44]
000056D8  4E91                     jsr        [A1]
000056DA  4AAC 01BC                tst.l      [A4 + 0x1BC]
000056DE  670C                     beq        +0xE /* 000056EC */
000056E0  202C 01BC                move.l     D0, [A4 + 0x1BC]
000056E4  D0BC 0000 0086           add.l      D0, 0x86
000056EA  6002                     bra        +0x4 /* 000056EE */
label000056EC:
000056EC  7000                     moveq.l    D0, 0x00
label000056EE:
000056EE  2F00                     move.l     -[A7], D0
000056F0  2F0C                     move.l     -[A7], A4
000056F2  4EAD 11F2                jsr        [A5 + 0x11F2 /* export_570, CODE:26 @ 000032DA */]
000056F6  4FEF 0024                lea.l      A7, [A7 + 0x24]
000056FA  6000 051C                bra        +0x51E /* 00005C18 */
000056FE  7000                     moveq.l    D0, 0x00
00005700  204D                     movea.l    A0, A5
00005702  D1FC FFFE CFD2           add.l      A0, 0xFFFECFD2
00005708  1010                     move.b     D0, [A0]
0000570A  C1FC 0044                muls.w     D0, 0x44 /* 'D' */
0000570E  204D                     movea.l    A0, A5
00005710  D1FC FFFD AFAE           add.l      A0, 0xFFFDAFAE
00005716  1030 000E                move.b     D0, [A0 + D0.w + 0xE]
0000571A  4880                     ext.w      D0
0000571C  D07C 0010                add.w      D0, 0x10
00005720  D040                     add.w      D0, D0
00005722  204D                     movea.l    A0, A5
00005724  D1FC FFFF 77D2           add.l      A0, 0xFFFF77D2
0000572A  3030 0000                move.w     D0, [A0 + D0.w]
0000572E  48C0                     ext.l      D0
00005730  2F00                     move.l     -[A7], D0
00005732  2F0C                     move.l     -[A7], A4
00005734  7000                     moveq.l    D0, 0x00
00005736  2F00                     move.l     -[A7], D0
00005738  2F00                     move.l     -[A7], D0
0000573A  4EAD 19A2                jsr        [A5 + 0x19A2 /* export_816, CODE:33 @ 000023B4 */]
0000573E  2940 01D0                move.l     [A4 + 0x1D0], D0
00005742  2040                     movea.l    A0, D0
00005744  47E8 0086                lea.l      A3, [A0 + 0x86]
00005748  206E 0010                movea.l    A0, [A6 + 0x10]
0000574C  3010                     move.w     D0, [A0]
0000574E  906B 0010                sub.w      D0, [A3 + 0x10]
00005752  48C0                     ext.l      D0
00005754  2F00                     move.l     -[A7], D0
00005756  206E 0010                movea.l    A0, [A6 + 0x10]
0000575A  3028 0002                move.w     D0, [A0 + 0x2]
0000575E  906B 0012                sub.w      D0, [A3 + 0x12]
00005762  48C0                     ext.l      D0
00005764  2F00                     move.l     -[A7], D0
00005766  204B                     movea.l    A0, A3
00005768  226B 0008                movea.l    A1, [A3 + 0x8]
0000576C  D0E9 0040                add.w      A0, [A1 + 0x40]
00005770  2F08                     move.l     -[A7], A0
00005772  2049                     movea.l    A0, A1
00005774  2268 0044                movea.l    A1, [A0 + 0x44]
00005778  4E91                     jsr        [A1]
0000577A  4AAC 01D0                tst.l      [A4 + 0x1D0]
0000577E  670C                     beq        +0xE /* 0000578C */
00005780  202C 01D0                move.l     D0, [A4 + 0x1D0]
00005784  D0BC 0000 0086           add.l      D0, 0x86
0000578A  6002                     bra        +0x4 /* 0000578E */
label0000578C:
0000578C  7000                     moveq.l    D0, 0x00
label0000578E:
0000578E  2F00                     move.l     -[A7], D0
00005790  2F0C                     move.l     -[A7], A4
00005792  4EAD 11F2                jsr        [A5 + 0x11F2 /* export_570, CODE:26 @ 000032DA */]
00005796  4FEF 0024                lea.l      A7, [A7 + 0x24]
0000579A  6000 047C                bra        +0x47E /* 00005C18 */
0000579E  7000                     moveq.l    D0, 0x00
000057A0  204D                     movea.l    A0, A5
000057A2  D1FC FFFE CFD2           add.l      A0, 0xFFFECFD2
000057A8  1010                     move.b     D0, [A0]
000057AA  C1FC 0044                muls.w     D0, 0x44 /* 'D' */
000057AE  204D                     movea.l    A0, A5
000057B0  D1FC FFFD AFAE           add.l      A0, 0xFFFDAFAE
000057B6  1030 000E                move.b     D0, [A0 + D0.w + 0xE]
000057BA  4880                     ext.w      D0
000057BC  D07C 0010                add.w      D0, 0x10
000057C0  D040                     add.w      D0, D0
000057C2  204D                     movea.l    A0, A5
000057C4  D1FC FFFF 77D2           add.l      A0, 0xFFFF77D2
000057CA  3030 0000                move.w     D0, [A0 + D0.w]
000057CE  48C0                     ext.l      D0
000057D0  2F00                     move.l     -[A7], D0
000057D2  2F0C                     move.l     -[A7], A4
000057D4  7000                     moveq.l    D0, 0x00
000057D6  2F00                     move.l     -[A7], D0
000057D8  2F00                     move.l     -[A7], D0
000057DA  4EAD 19A2                jsr        [A5 + 0x19A2 /* export_816, CODE:33 @ 000023B4 */]
000057DE  2940 01D4                move.l     [A4 + 0x1D4], D0
000057E2  2040                     movea.l    A0, D0
000057E4  47E8 0086                lea.l      A3, [A0 + 0x86]
000057E8  206E 0010                movea.l    A0, [A6 + 0x10]
000057EC  3010                     move.w     D0, [A0]
000057EE  906B 0010                sub.w      D0, [A3 + 0x10]
000057F2  48C0                     ext.l      D0
000057F4  2F00                     move.l     -[A7], D0
000057F6  206E 0010                movea.l    A0, [A6 + 0x10]
000057FA  3028 0002                move.w     D0, [A0 + 0x2]
000057FE  906B 0012                sub.w      D0, [A3 + 0x12]
00005802  48C0                     ext.l      D0
00005804  2F00                     move.l     -[A7], D0
00005806  204B                     movea.l    A0, A3
00005808  226B 0008                movea.l    A1, [A3 + 0x8]
0000580C  D0E9 0040                add.w      A0, [A1 + 0x40]
00005810  2F08                     move.l     -[A7], A0
00005812  2049                     movea.l    A0, A1
00005814  2268 0044                movea.l    A1, [A0 + 0x44]
00005818  4E91                     jsr        [A1]
0000581A  4AAC 01D4                tst.l      [A4 + 0x1D4]
0000581E  670C                     beq        +0xE /* 0000582C */
00005820  202C 01D4                move.l     D0, [A4 + 0x1D4]
00005824  D0BC 0000 0086           add.l      D0, 0x86
0000582A  6002                     bra        +0x4 /* 0000582E */
label0000582C:
0000582C  7000                     moveq.l    D0, 0x00
label0000582E:
0000582E  2F00                     move.l     -[A7], D0
00005830  2F0C                     move.l     -[A7], A4
00005832  4EAD 11F2                jsr        [A5 + 0x11F2 /* export_570, CODE:26 @ 000032DA */]
00005836  4FEF 0024                lea.l      A7, [A7 + 0x24]
0000583A  6000 03DC                bra        +0x3DE /* 00005C18 */
0000583E  7000                     moveq.l    D0, 0x00
00005840  2F00                     move.l     -[A7], D0
00005842  2F00                     move.l     -[A7], D0
00005844  2F00                     move.l     -[A7], D0
00005846  2F00                     move.l     -[A7], D0
00005848  2F00                     move.l     -[A7], D0
0000584A  7201                     moveq.l    D1, 0x01
0000584C  2F01                     move.l     -[A7], D1
0000584E  2F01                     move.l     -[A7], D1
00005850  2F01                     move.l     -[A7], D1
00005852  2F2E 0010                move.l     -[A7], [A6 + 0x10]
00005856  2F0C                     move.l     -[A7], A4
00005858  2F0C                     move.l     -[A7], A4
0000585A  2F00                     move.l     -[A7], D0
0000585C  2F00                     move.l     -[A7], D0
0000585E  4EAD 0D02                jsr        [A5 + 0xD02 /* export_412, CODE:20 @ 00001CFA */]
00005862  2940 01F0                move.l     [A4 + 0x1F0], D0
00005866  670C                     beq        +0xE /* 00005874 */
00005868  202C 01F0                move.l     D0, [A4 + 0x1F0]
0000586C  D0BC 0000 0080           add.l      D0, 0x80
00005872  6002                     bra        +0x4 /* 00005876 */
label00005874:
00005874  7000                     moveq.l    D0, 0x00
label00005876:
00005876  2F00                     move.l     -[A7], D0
00005878  2F0C                     move.l     -[A7], A4
0000587A  4EAD 11F2                jsr        [A5 + 0x11F2 /* export_570, CODE:26 @ 000032DA */]
0000587E  3D7C 0001 FFB8           move.w     [A6 - 0x48], 0x1
00005884  3D7C 0001 FFB6           move.w     [A6 - 0x4A], 0x1
0000588A  2F3C 00FF FF00           move.l     -[A7], 0xFFFF00
00005890  7000                     moveq.l    D0, 0x00
00005892  2F00                     move.l     -[A7], D0
00005894  486E FFC2                pea.l      [A6 - 0x3E]
00005898  4EAD 15AA                jsr        [A5 + 0x15AA /* export_689, CODE:32 @ 0000234A */]
0000589C  206C 01F0                movea.l    A0, [A4 + 0x1F0]
000058A0  2668 01DC                movea.l    A3, [A0 + 0x1DC]
000058A4  2053                     movea.l    A0, [A3]
000058A6  3D68 0002 FFBA           move.w     [A6 - 0x46], [A0 + 0x2]
000058AC  2053                     movea.l    A0, [A3]
000058AE  3028 0004                move.w     D0, [A0 + 0x4]
000058B2  3D40 FFBC                move.w     [A6 - 0x44], D0
000058B6  D07C 0010                add.w      D0, 0x10
000058BA  3D40 FFC0                move.w     [A6 - 0x40], D0
000058BE  302E FFBA                move.w     D0, [A6 - 0x46]
000058C2  D07C 0010                add.w      D0, 0x10
000058C6  3D40 FFBE                move.w     [A6 - 0x42], D0
000058CA  486E FFBA                pea.l      [A6 - 0x46]
000058CE  2F0C                     move.l     -[A7], A4
000058D0  7000                     moveq.l    D0, 0x00
000058D2  2F00                     move.l     -[A7], D0
000058D4  2F00                     move.l     -[A7], D0
000058D6  4EAD 194A                jsr        [A5 + 0x194A /* export_805, CODE:33 @ 00001926 */]
000058DA  2940 0238                move.l     [A4 + 0x238], D0
000058DE  2040                     movea.l    A0, D0
000058E0  47E8 0086                lea.l      A3, [A0 + 0x86]
000058E4  276E FFB6 0086           move.l     [A3 + 0x86], [A6 - 0x4A]
000058EA  206C 0238                movea.l    A0, [A4 + 0x238]
000058EE  47E8 0086                lea.l      A3, [A0 + 0x86]
000058F2  377C 0008 008A           move.w     [A3 + 0x8A], 0x8
000058F8  486E FFC2                pea.l      [A6 - 0x3E]
000058FC  7000                     moveq.l    D0, 0x00
000058FE  2F00                     move.l     -[A7], D0
00005900  226C 0238                movea.l    A1, [A4 + 0x238]
00005904  43E9 0086                lea.l      A1, [A1 + 0x86]
00005908  2049                     movea.l    A0, A1
0000590A  226C 0238                movea.l    A1, [A4 + 0x238]
0000590E  2269 008E                movea.l    A1, [A1 + 0x8E]
00005912  D0E9 0060                add.w      A0, [A1 + 0x60]
00005916  2F08                     move.l     -[A7], A0
00005918  206C 0238                movea.l    A0, [A4 + 0x238]
0000591C  2068 008E                movea.l    A0, [A0 + 0x8E]
00005920  2268 0064                movea.l    A1, [A0 + 0x64]
00005924  4E91                     jsr        [A1]
00005926  226C 0238                movea.l    A1, [A4 + 0x238]
0000592A  43E9 0086                lea.l      A1, [A1 + 0x86]
0000592E  2049                     movea.l    A0, A1
00005930  226C 0238                movea.l    A1, [A4 + 0x238]
00005934  2269 008E                movea.l    A1, [A1 + 0x8E]
00005938  D0E9 00C0                add.w      A0, [A1 + 0xC0]
0000593C  2F08                     move.l     -[A7], A0
0000593E  206C 0238                movea.l    A0, [A4 + 0x238]
00005942  2068 008E                movea.l    A0, [A0 + 0x8E]
00005946  2268 00C4                movea.l    A1, [A0 + 0xC4]
0000594A  4E91                     jsr        [A1]
0000594C  4AAC 0238                tst.l      [A4 + 0x238]
00005950  670C                     beq        +0xE /* 0000595E */
00005952  202C 0238                move.l     D0, [A4 + 0x238]
00005956  D0BC 0000 0086           add.l      D0, 0x86
0000595C  6002                     bra        +0x4 /* 00005960 */
label0000595E:
0000595E  7000                     moveq.l    D0, 0x00
label00005960:
00005960  2F00                     move.l     -[A7], D0
00005962  2F0C                     move.l     -[A7], A4
00005964  4EAD 11F2                jsr        [A5 + 0x11F2 /* export_570, CODE:26 @ 000032DA */]
00005968  7002                     moveq.l    D0, 0x02
0000596A  2F00                     move.l     -[A7], D0
0000596C  486E FFC2                pea.l      [A6 - 0x3E]
00005970  4EAD 15D2                jsr        [A5 + 0x15D2 /* export_694, CODE:32 @ 000029D6 */]
00005974  4FEF 0078                lea.l      A7, [A7 + 0x78]
00005978  6000 029E                bra        +0x2A0 /* 00005C18 */
0000597C  7000                     moveq.l    D0, 0x00
0000597E  2F00                     move.l     -[A7], D0
00005980  2F00                     move.l     -[A7], D0
00005982  2F00                     move.l     -[A7], D0
00005984  2F00                     move.l     -[A7], D0
00005986  2F00                     move.l     -[A7], D0
00005988  7201                     moveq.l    D1, 0x01
0000598A  2F01                     move.l     -[A7], D1
0000598C  2F00                     move.l     -[A7], D0
0000598E  2F01                     move.l     -[A7], D1
00005990  2F2E 0010                move.l     -[A7], [A6 + 0x10]
00005994  2F0C                     move.l     -[A7], A4
00005996  2F0C                     move.l     -[A7], A4
00005998  2F00                     move.l     -[A7], D0
0000599A  2F00                     move.l     -[A7], D0
0000599C  4EAD 0D1A                jsr        [A5 + 0xD1A /* export_415, CODE:20 @ 0000228C */]
000059A0  2940 01EC                move.l     [A4 + 0x1EC], D0
000059A4  670C                     beq        +0xE /* 000059B2 */
000059A6  202C 01EC                move.l     D0, [A4 + 0x1EC]
000059AA  D0BC 0000 0080           add.l      D0, 0x80
000059B0  6002                     bra        +0x4 /* 000059B4 */
label000059B2:
000059B2  7000                     moveq.l    D0, 0x00
label000059B4:
000059B4  2F00                     move.l     -[A7], D0
000059B6  2F0C                     move.l     -[A7], A4
000059B8  4EAD 11F2                jsr        [A5 + 0x11F2 /* export_570, CODE:26 @ 000032DA */]
000059BC  42AE FFF8                clr.l      [A6 - 0x8]
000059C0  3D7C 0C00 FFFE           move.w     [A6 - 0x2], 0xC00
000059C6  3D7C 0015 FFFC           move.w     [A6 - 0x4], 0x15
000059CC  486E FFF8                pea.l      [A6 - 0x8]
000059D0  2F2C 01EC                move.l     -[A7], [A4 + 0x1EC]
000059D4  4EAD 21B2                jsr        [A5 + 0x21B2 /* export_1074, CODE:40 @ 00001922 */]
000059D8  42AE FFF4                clr.l      [A6 - 0xC]
000059DC  2F2E FFF4                move.l     -[A7], [A6 - 0xC]
000059E0  2F2C 01EC                move.l     -[A7], [A4 + 0x1EC]
000059E4  4EAD 21BA                jsr        [A5 + 0x21BA /* export_1075, CODE:40 @ 00001992 */]
000059E8  4FEF 004C                lea.l      A7, [A7 + 0x4C]
000059EC  6000 022A                bra        +0x22C /* 00005C18 */
000059F0  7001                     moveq.l    D0, 0x01
000059F2  2F00                     move.l     -[A7], D0
000059F4  2F00                     move.l     -[A7], D0
000059F6  7209                     moveq.l    D1, 0x09
000059F8  2F01                     move.l     -[A7], D1
000059FA  7003                     moveq.l    D0, 0x03
000059FC  2F00                     move.l     -[A7], D0
000059FE  7000                     moveq.l    D0, 0x00
00005A00  2F00                     move.l     -[A7], D0
00005A02  2F00                     move.l     -[A7], D0
00005A04  7002                     moveq.l    D0, 0x02
00005A06  2F00                     move.l     -[A7], D0
00005A08  2F00                     move.l     -[A7], D0
00005A0A  2F2E 0010                move.l     -[A7], [A6 + 0x10]
00005A0E  2F0C                     move.l     -[A7], A4
00005A10  2F0C                     move.l     -[A7], A4
00005A12  7000                     moveq.l    D0, 0x00
00005A14  2F00                     move.l     -[A7], D0
00005A16  2F00                     move.l     -[A7], D0
00005A18  4EAD 016A                jsr        [A5 + 0x16A /* export_41, CODE:1 @ 00002828 */]
00005A1C  2940 01D8                move.l     [A4 + 0x1D8], D0
00005A20  670C                     beq        +0xE /* 00005A2E */
00005A22  202C 01D8                move.l     D0, [A4 + 0x1D8]
00005A26  D0BC 0000 0080           add.l      D0, 0x80
00005A2C  6002                     bra        +0x4 /* 00005A30 */
label00005A2E:
00005A2E  7000                     moveq.l    D0, 0x00
label00005A30:
00005A30  2F00                     move.l     -[A7], D0
00005A32  2F0C                     move.l     -[A7], A4
00005A34  4EAD 11F2                jsr        [A5 + 0x11F2 /* export_570, CODE:26 @ 000032DA */]
00005A38  4FEF 003C                lea.l      A7, [A7 + 0x3C]
00005A3C  6000 01DA                bra        +0x1DC /* 00005C18 */
00005A40  7001                     moveq.l    D0, 0x01
00005A42  2F00                     move.l     -[A7], D0
00005A44  2F00                     move.l     -[A7], D0
00005A46  7209                     moveq.l    D1, 0x09
00005A48  2F01                     move.l     -[A7], D1
00005A4A  7003                     moveq.l    D0, 0x03
00005A4C  2F00                     move.l     -[A7], D0
00005A4E  7000                     moveq.l    D0, 0x00
00005A50  2F00                     move.l     -[A7], D0
00005A52  2F00                     move.l     -[A7], D0
00005A54  7002                     moveq.l    D0, 0x02
00005A56  2F00                     move.l     -[A7], D0
00005A58  2F00                     move.l     -[A7], D0
00005A5A  2F2E 0010                move.l     -[A7], [A6 + 0x10]
00005A5E  2F0C                     move.l     -[A7], A4
00005A60  2F0C                     move.l     -[A7], A4
00005A62  7000                     moveq.l    D0, 0x00
00005A64  2F00                     move.l     -[A7], D0
00005A66  2F00                     move.l     -[A7], D0
00005A68  4EAD 016A                jsr        [A5 + 0x16A /* export_41, CODE:1 @ 00002828 */]
00005A6C  2940 01DC                move.l     [A4 + 0x1DC], D0
00005A70  670C                     beq        +0xE /* 00005A7E */
00005A72  202C 01DC                move.l     D0, [A4 + 0x1DC]
00005A76  D0BC 0000 0080           add.l      D0, 0x80
00005A7C  6002                     bra        +0x4 /* 00005A80 */
label00005A7E:
00005A7E  7000                     moveq.l    D0, 0x00
label00005A80:
00005A80  2F00                     move.l     -[A7], D0
00005A82  2F0C                     move.l     -[A7], A4
00005A84  4EAD 11F2                jsr        [A5 + 0x11F2 /* export_570, CODE:26 @ 000032DA */]
00005A88  4FEF 003C                lea.l      A7, [A7 + 0x3C]
00005A8C  6000 018A                bra        +0x18C /* 00005C18 */
00005A90  7001                     moveq.l    D0, 0x01
00005A92  2F00                     move.l     -[A7], D0
00005A94  2F00                     move.l     -[A7], D0
00005A96  7209                     moveq.l    D1, 0x09
00005A98  2F01                     move.l     -[A7], D1
00005A9A  7003                     moveq.l    D0, 0x03
00005A9C  2F00                     move.l     -[A7], D0
00005A9E  7000                     moveq.l    D0, 0x00
00005AA0  2F00                     move.l     -[A7], D0
00005AA2  2F00                     move.l     -[A7], D0
00005AA4  7002                     moveq.l    D0, 0x02
00005AA6  2F00                     move.l     -[A7], D0
00005AA8  2F00                     move.l     -[A7], D0
00005AAA  2F2E 0010                move.l     -[A7], [A6 + 0x10]
00005AAE  2F0C                     move.l     -[A7], A4
00005AB0  2F0C                     move.l     -[A7], A4
00005AB2  7000                     moveq.l    D0, 0x00
00005AB4  2F00                     move.l     -[A7], D0
00005AB6  2F00                     move.l     -[A7], D0
00005AB8  4EAD 016A                jsr        [A5 + 0x16A /* export_41, CODE:1 @ 00002828 */]
00005ABC  2940 01E0                move.l     [A4 + 0x1E0], D0
00005AC0  670C                     beq        +0xE /* 00005ACE */
00005AC2  202C 01E0                move.l     D0, [A4 + 0x1E0]
00005AC6  D0BC 0000 0080           add.l      D0, 0x80
00005ACC  6002                     bra        +0x4 /* 00005AD0 */
label00005ACE:
00005ACE  7000                     moveq.l    D0, 0x00
label00005AD0:
00005AD0  2F00                     move.l     -[A7], D0
00005AD2  2F0C                     move.l     -[A7], A4
00005AD4  4EAD 11F2                jsr        [A5 + 0x11F2 /* export_570, CODE:26 @ 000032DA */]
00005AD8  4FEF 003C                lea.l      A7, [A7 + 0x3C]
00005ADC  6000 013A                bra        +0x13C /* 00005C18 */
00005AE0  7000                     moveq.l    D0, 0x00
00005AE2  2F00                     move.l     -[A7], D0
00005AE4  204D                     movea.l    A0, A5
00005AE6  D1FC FFFF 3C94           add.l      A0, 0xFFFF3C94
00005AEC  4850                     pea.l      [A0]
00005AEE  204D                     movea.l    A0, A5
00005AF0  D1FC FFFF 3C96           add.l      A0, 0xFFFF3C96
00005AF6  4850                     pea.l      [A0]
00005AF8  204D                     movea.l    A0, A5
00005AFA  D1FC FFFF 3C98           add.l      A0, 0xFFFF3C98
00005B00  4850                     pea.l      [A0]
00005B02  204D                     movea.l    A0, A5
00005B04  D1FC FFFF 3C9A           add.l      A0, 0xFFFF3C9A
00005B0A  4850                     pea.l      [A0]
00005B0C  2F2E 0010                move.l     -[A7], [A6 + 0x10]
00005B10  2F0C                     move.l     -[A7], A4
00005B12  2F00                     move.l     -[A7], D0
00005B14  2F00                     move.l     -[A7], D0
00005B16  4EAD 18F2                jsr        [A5 + 0x18F2 /* export_794, CODE:33 @ 000003AE */]
00005B1A  2940 01F4                move.l     [A4 + 0x1F4], D0
00005B1E  204D                     movea.l    A0, A5
00005B20  D1FC FFFF 4538           add.l      A0, 0xFFFF4538
00005B26  2F10                     move.l     -[A7], [A0]
00005B28  206C 01F4                movea.l    A0, [A4 + 0x1F4]
00005B2C  2248                     movea.l    A1, A0
00005B2E  2269 0060                movea.l    A1, [A1 + 0x60]
00005B32  D0E9 0080                add.w      A0, [A1 + 0x80]
00005B36  2F08                     move.l     -[A7], A0
00005B38  206C 01F4                movea.l    A0, [A4 + 0x1F4]
00005B3C  2068 0060                movea.l    A0, [A0 + 0x60]
00005B40  2268 0084                movea.l    A1, [A0 + 0x84]
00005B44  4E91                     jsr        [A1]
00005B46  206C 01F4                movea.l    A0, [A4 + 0x1F4]
00005B4A  43FA 0106                lea.l      A1, [PC + 0x106 /* 00005C52, value 0x3FFE9999 */]
00005B4E  45E8 01CC                lea.l      A2, [A0 + 0x1CC]
00005B52  24D9                     move.l     [A2]+, [A1]+
00005B54  24D9                     move.l     [A2]+, [A1]+
00005B56  34D9                     move.w     [A2]+, [A1]+
00005B58  4AAC 01F4                tst.l      [A4 + 0x1F4]
00005B5C  670C                     beq        +0xE /* 00005B6A */
00005B5E  202C 01F4                move.l     D0, [A4 + 0x1F4]
00005B62  D0BC 0000 0086           add.l      D0, 0x86
00005B68  6002                     bra        +0x4 /* 00005B6C */
label00005B6A:
00005B6A  7000                     moveq.l    D0, 0x00
label00005B6C:
00005B6C  2F00                     move.l     -[A7], D0
00005B6E  2F0C                     move.l     -[A7], A4
00005B70  4EAD 11F2                jsr        [A5 + 0x11F2 /* export_570, CODE:26 @ 000032DA */]
00005B74  4FEF 0034                lea.l      A7, [A7 + 0x34]
00005B78  6000 009E                bra        +0xA0 /* 00005C18 */
00005B7C  7001                     moveq.l    D0, 0x01
00005B7E  2F00                     move.l     -[A7], D0
00005B80  2F00                     move.l     -[A7], D0
00005B82  7209                     moveq.l    D1, 0x09
00005B84  2F01                     move.l     -[A7], D1
00005B86  7003                     moveq.l    D0, 0x03
00005B88  2F00                     move.l     -[A7], D0
00005B8A  7000                     moveq.l    D0, 0x00
00005B8C  2F00                     move.l     -[A7], D0
00005B8E  2F00                     move.l     -[A7], D0
00005B90  7002                     moveq.l    D0, 0x02
00005B92  2F00                     move.l     -[A7], D0
00005B94  2F00                     move.l     -[A7], D0
00005B96  2F2E 0010                move.l     -[A7], [A6 + 0x10]
00005B9A  2F0C                     move.l     -[A7], A4
00005B9C  2F0C                     move.l     -[A7], A4
00005B9E  7000                     moveq.l    D0, 0x00
00005BA0  2F00                     move.l     -[A7], D0
00005BA2  2F00                     move.l     -[A7], D0
00005BA4  4EAD 016A                jsr        [A5 + 0x16A /* export_41, CODE:1 @ 00002828 */]
00005BA8  2940 01E8                move.l     [A4 + 0x1E8], D0
00005BAC  670C                     beq        +0xE /* 00005BBA */
00005BAE  202C 01E8                move.l     D0, [A4 + 0x1E8]
00005BB2  D0BC 0000 0080           add.l      D0, 0x80
00005BB8  6002                     bra        +0x4 /* 00005BBC */
label00005BBA:
00005BBA  7000                     moveq.l    D0, 0x00
label00005BBC:
00005BBC  2F00                     move.l     -[A7], D0
00005BBE  2F0C                     move.l     -[A7], A4
00005BC0  4EAD 11F2                jsr        [A5 + 0x11F2 /* export_570, CODE:26 @ 000032DA */]
00005BC4  4FEF 003C                lea.l      A7, [A7 + 0x3C]
00005BC8  604E                     bra        +0x50 /* 00005C18 */
00005BCA  7000                     moveq.l    D0, 0x00
00005BCC  2F00                     move.l     -[A7], D0
00005BCE  7201                     moveq.l    D1, 0x01
00005BD0  2F01                     move.l     -[A7], D1
00005BD2  7009                     moveq.l    D0, 0x09
00005BD4  2F00                     move.l     -[A7], D0
00005BD6  7003                     moveq.l    D0, 0x03
00005BD8  2F00                     move.l     -[A7], D0
00005BDA  7000                     moveq.l    D0, 0x00
00005BDC  2F00                     move.l     -[A7], D0
00005BDE  2F00                     move.l     -[A7], D0
00005BE0  7002                     moveq.l    D0, 0x02
00005BE2  2F00                     move.l     -[A7], D0
00005BE4  2F00                     move.l     -[A7], D0
00005BE6  2F2E 0010                move.l     -[A7], [A6 + 0x10]
00005BEA  2F0C                     move.l     -[A7], A4
00005BEC  2F0C                     move.l     -[A7], A4
00005BEE  7000                     moveq.l    D0, 0x00
00005BF0  2F00                     move.l     -[A7], D0
00005BF2  2F00                     move.l     -[A7], D0
00005BF4  4EAD 016A                jsr        [A5 + 0x16A /* export_41, CODE:1 @ 00002828 */]
00005BF8  2940 01E4                move.l     [A4 + 0x1E4], D0
00005BFC  670C                     beq        +0xE /* 00005C0A */
00005BFE  202C 01E4                move.l     D0, [A4 + 0x1E4]
00005C02  D0BC 0000 0080           add.l      D0, 0x80
00005C08  6002                     bra        +0x4 /* 00005C0C */
label00005C0A:
00005C0A  7000                     moveq.l    D0, 0x00
label00005C0C:
00005C0C  2F00                     move.l     -[A7], D0
00005C0E  2F0C                     move.l     -[A7], A4
00005C10  4EAD 11F2                jsr        [A5 + 0x11F2 /* export_570, CODE:26 @ 000032DA */]
00005C14  4FEF 003C                lea.l      A7, [A7 + 0x3C]
label00005C18:
00005C18  4CEE 1C00 FFAA           movem.l    A2,A3,A4, [A6 - 0x56]
00005C1E  4E5E                     unlink     A6
00005C20  4E75                     rts
00005C22  802B 4E65 7755 7365 7... dc.b       "NewUserItem__20cFieldScheduleWindowFsR4Rect" + 10 constant bytes
export_359:
00005C5C  4E56 0000                link       A6, 0
00005C60  48E7 0018                movem.l    -[A7], A3,A4
00005C64  286E 0008                movea.l    A4, [A6 + 0x8]
00005C68  7000                     moveq.l    D0, 0x00
00005C6A  2F00                     move.l     -[A7], D0
00005C6C  7201                     moveq.l    D1, 0x01
00005C6E  2F01                     move.l     -[A7], D1
00005C70  7009                     moveq.l    D0, 0x09
00005C72  2F00                     move.l     -[A7], D0
00005C74  7003                     moveq.l    D0, 0x03
00005C76  2F00                     move.l     -[A7], D0
00005C78  2F2E 0014                move.l     -[A7], [A6 + 0x14]
00005C7C  2F2E 0010                move.l     -[A7], [A6 + 0x10]
00005C80  2F0C                     move.l     -[A7], A4
00005C82  2F0C                     move.l     -[A7], A4
00005C84  7000                     moveq.l    D0, 0x00
00005C86  2F00                     move.l     -[A7], D0
00005C88  2F00                     move.l     -[A7], D0
00005C8A  4EAD 1A22                jsr        [A5 + 0x1A22 /* export_832, CODE:34 @ 00000ED0 */]
00005C8E  2640                     movea.l    A3, D0
00005C90  200B                     move.l     D0, A3
00005C92  4FEF 0028                lea.l      A7, [A7 + 0x28]
00005C96  670A                     beq        +0xC /* 00005CA2 */
00005C98  200B                     move.l     D0, A3
00005C9A  D0BC 0000 0080           add.l      D0, 0x80
00005CA0  6002                     bra        +0x4 /* 00005CA4 */
label00005CA2:
00005CA2  7000                     moveq.l    D0, 0x00
label00005CA4:
00005CA4  2F00                     move.l     -[A7], D0
00005CA6  2F0C                     move.l     -[A7], A4
00005CA8  4EAD 11F2                jsr        [A5 + 0x11F2 /* export_570, CODE:26 @ 000032DA */]
00005CAC  504F                     addq.w     A7, 8
00005CAE  4CEE 1800 FFF8           movem.l    A3,A4, [A6 - 0x8]
00005CB4  4E5E                     unlink     A6
00005CB6  4E75                     rts
00005CB8  8030 4E65 7753 7461 7... dc.b       "NewStaticText__20cFieldScheduleWindowFsR4RectPUc"
export_360:
00005CEC  4E56 FFFC                link       A6, -0x0004
00005CF0  2F0C                     move.l     -[A7], A4
00005CF2  286E 0008                movea.l    A4, [A6 + 0x8]
00005CF6  7000                     moveq.l    D0, 0x00
00005CF8  204D                     movea.l    A0, A5
00005CFA  D1FC FFFD CEC6           add.l      A0, 0xFFFDCEC6
00005D00  3010                     move.w     D0, [A0]
00005D02  322C 0240                move.w     D1, [A4 + 0x240]
00005D06  48C1                     ext.l      D1
00005D08  B081                     cmp.l      D0, D1
00005D0A  6764                     beq        +0x66 /* 00005D70 */
00005D0C  206C 0084                movea.l    A0, [A4 + 0x84]
00005D10  7000                     moveq.l    D0, 0x00
00005D12  1028 006E                move.b     D0, [A0 + 0x6E]
00005D16  0C40 0001                cmpi.w     D0, 0x1
00005D1A  6654                     bne        +0x56 /* 00005D70 */
00005D1C  204D                     movea.l    A0, A5
00005D1E  D1FC FFFD CECA           add.l      A0, 0xFFFDCECA
00005D24  3950 023E                move.w     [A4 + 0x23E], [A0]
00005D28  204D                     movea.l    A0, A5
00005D2A  D1FC FFFD CEC6           add.l      A0, 0xFFFDCEC6
00005D30  3950 0240                move.w     [A4 + 0x240], [A0]
00005D34  7000                     moveq.l    D0, 0x00
00005D36  204D                     movea.l    A0, A5
00005D38  D1FC FFFD CEC6           add.l      A0, 0xFFFDCEC6
00005D3E  3010                     move.w     D0, [A0]
00005D40  ED80                     asl        D0, 6
00005D42  3D40 FFFE                move.w     [A6 - 0x2], D0
00005D46  426E FFFC                clr.w      [A6 - 0x4]
00005D4A  2F2E FFFC                move.l     -[A7], [A6 - 0x4]
00005D4E  2F2C 01EC                move.l     -[A7], [A4 + 0x1EC]
00005D52  4EAD 21BA                jsr        [A5 + 0x21BA /* export_1075, CODE:40 @ 00001992 */]
00005D56  2F0C                     move.l     -[A7], A4
00005D58  4EBA 0B12                jsr        [PC + 0xB12 /* 0000686C */]
00005D5C  2F2C 01EC                move.l     -[A7], [A4 + 0x1EC]
00005D60  4EAD 1F52                jsr        [A5 + 0x1F52 /* export_998, CODE:37 @ 000014C8 */]
00005D64  2F0C                     move.l     -[A7], A4
00005D66  4EBA 0372                jsr        [PC + 0x372 /* 000060DA */]
00005D6A  4FEF 0014                lea.l      A7, [A7 + 0x14]
00005D6E  6040                     bra        +0x42 /* 00005DB0 */
label00005D70:
00005D70  7000                     moveq.l    D0, 0x00
00005D72  204D                     movea.l    A0, A5
00005D74  D1FC FFFD CECA           add.l      A0, 0xFFFDCECA
00005D7A  3010                     move.w     D0, [A0]
00005D7C  322C 023E                move.w     D1, [A4 + 0x23E]
00005D80  48C1                     ext.l      D1
00005D82  B081                     cmp.l      D0, D1
00005D84  672A                     beq        +0x2C /* 00005DB0 */
00005D86  206C 0084                movea.l    A0, [A4 + 0x84]
00005D8A  7000                     moveq.l    D0, 0x00
00005D8C  1028 006E                move.b     D0, [A0 + 0x6E]
00005D90  0C40 0001                cmpi.w     D0, 0x1
00005D94  661A                     bne        +0x1C /* 00005DB0 */
00005D96  204D                     movea.l    A0, A5
00005D98  D1FC FFFD CECA           add.l      A0, 0xFFFDCECA
00005D9E  3950 023E                move.w     [A4 + 0x23E], [A0]
00005DA2  2F0C                     move.l     -[A7], A4
00005DA4  4EBA 0334                jsr        [PC + 0x334 /* 000060DA */]
00005DA8  2F0C                     move.l     -[A7], A4
00005DAA  4EBA 0D98                jsr        [PC + 0xD98 /* 00006B44 */]
00005DAE  504F                     addq.w     A7, 8
label00005DB0:
00005DB0  286E FFF8                movea.l    A4, [A6 - 0x8]
00005DB4  4E5E                     unlink     A6
00005DB6  4E75                     rts
00005DB8  8023 4E75 6C6C 4576 6... dc.b       "NullEvent__20cFieldScheduleWindowFv"
export_361:
00005DE0  4E56 0000                link       A6, 0
00005DE4  48E7 0108                movem.l    -[A7], D7,A4
00005DE8  1E2E 000F                move.b     D7, [A6 + 0xF]
00005DEC  286E 0008                movea.l    A4, [A6 + 0x8]
00005DF0  4A07                     tst.b      D7
00005DF2  671A                     beq        +0x1C /* 00005E0E */
00005DF4  204D                     movea.l    A0, A5
00005DF6  D1FC FFFD CECA           add.l      A0, 0xFFFDCECA
00005DFC  3950 023E                move.w     [A4 + 0x23E], [A0]
00005E00  2F0C                     move.l     -[A7], A4
00005E02  4EBA 02D6                jsr        [PC + 0x2D6 /* 000060DA */]
00005E06  2F0C                     move.l     -[A7], A4
00005E08  4EBA 0D3A                jsr        [PC + 0xD3A /* 00006B44 */]
00005E0C  504F                     addq.w     A7, 8
label00005E0E:
00005E0E  7000                     moveq.l    D0, 0x00
00005E10  1007                     move.b     D0, D7
00005E12  2F00                     move.l     -[A7], D0
00005E14  2F0C                     move.l     -[A7], A4
00005E16  4EAD 1102                jsr        [A5 + 0x1102 /* export_540, CODE:26 @ 00001A56 */]
00005E1A  504F                     addq.w     A7, 8
00005E1C  4CEE 1080 FFF8           movem.l    D7,A4, [A6 - 0x8]
00005E22  4E5E                     unlink     A6
00005E24  4E75                     rts
00005E26  8023 4163 7469 7661 7... dc.b       "Activate__20cFieldScheduleWindowFUc"
export_362:
00005E4E  4E56 FFF8                link       A6, -0x0008
00005E52  48E7 0318                movem.l    -[A7], D6,D7,A3,A4
00005E56  286E 0008                movea.l    A4, [A6 + 0x8]
00005E5A  7000                     moveq.l    D0, 0x00
00005E5C  204D                     movea.l    A0, A5
00005E5E  D1FC FFFE CFD2           add.l      A0, 0xFFFECFD2
00005E64  1010                     move.b     D0, [A0]
00005E66  C1FC 0044                muls.w     D0, 0x44 /* 'D' */
00005E6A  204D                     movea.l    A0, A5
00005E6C  D1FC FFFD AFAE           add.l      A0, 0xFFFDAFAE
00005E72  1030 000E                move.b     D0, [A0 + D0.w + 0xE]
00005E76  4880                     ext.w      D0
00005E78  204D                     movea.l    A0, A5
00005E7A  D1FC FFFE CFD0           add.l      A0, 0xFFFECFD0
00005E80  3080                     move.w     [A0], D0
00005E82  204D                     movea.l    A0, A5
00005E84  D1FC FFFE CFD0           add.l      A0, 0xFFFECFD0
00005E8A  3950 023C                move.w     [A4 + 0x23C], [A0]
00005E8E  206C 01F0                movea.l    A0, [A4 + 0x1F0]
00005E92  2668 01DC                movea.l    A3, [A0 + 0x1DC]
00005E96  41EC 0100                lea.l      A0, [A4 + 0x100]
00005E9A  43EE FFF8                lea.l      A1, [A6 - 0x8]
00005E9E  22D8                     move.l     [A1]+, [A0]+
00005EA0  22D8                     move.l     [A1]+, [A0]+
00005EA2  486E FFF8                pea.l      [A6 - 0x8]
00005EA6  302E FFFA                move.w     D0, [A6 - 0x6]
00005EAA  48C0                     ext.l      D0
00005EAC  4480                     neg.l      D0
00005EAE  3F00                     move.w     -[A7], D0
00005EB0  302E FFF8                move.w     D0, [A6 - 0x8]
00005EB4  48C0                     ext.l      D0
00005EB6  4480                     neg.l      D0
00005EB8  3F00                     move.w     -[A7], D0
00005EBA  A8A8                     syscall    OffsetRect
00005EBC  486E FFF8                pea.l      [A6 - 0x8]
00005EC0  2F0C                     move.l     -[A7], A4
00005EC2  4EAD 126A                jsr        [A5 + 0x126A /* export_585, CODE:26 @ 000038B2 */]
00005EC6  2F0C                     move.l     -[A7], A4
00005EC8  4EAD 11E2                jsr        [A5 + 0x11E2 /* export_568, CODE:26 @ 000031FA */]
00005ECC  302C 023C                move.w     D0, [A4 + 0x23C]
00005ED0  48C0                     ext.l      D0
00005ED2  D040                     add.w      D0, D0
00005ED4  204D                     movea.l    A0, A5
00005ED6  D1FC FFFF 77F2           add.l      A0, 0xFFFF77F2
00005EDC  3030 0000                move.w     D0, [A0 + D0.w]
00005EE0  48C0                     ext.l      D0
00005EE2  2F00                     move.l     -[A7], D0
00005EE4  226C 01D4                movea.l    A1, [A4 + 0x1D4]
00005EE8  43E9 0126                lea.l      A1, [A1 + 0x126]
00005EEC  2049                     movea.l    A0, A1
00005EEE  226C 01D4                movea.l    A1, [A4 + 0x1D4]
00005EF2  2269 012E                movea.l    A1, [A1 + 0x12E]
00005EF6  D0E9 0030                add.w      A0, [A1 + 0x30]
00005EFA  2F08                     move.l     -[A7], A0
00005EFC  206C 01D4                movea.l    A0, [A4 + 0x1D4]
00005F00  2068 012E                movea.l    A0, [A0 + 0x12E]
00005F04  2268 0034                movea.l    A1, [A0 + 0x34]
00005F08  4E91                     jsr        [A1]
00005F0A  206C 01D4                movea.l    A0, [A4 + 0x1D4]
00005F0E  2248                     movea.l    A1, A0
00005F10  2269 0060                movea.l    A1, [A1 + 0x60]
00005F14  D0E9 0070                add.w      A0, [A1 + 0x70]
00005F18  2F08                     move.l     -[A7], A0
00005F1A  206C 01D4                movea.l    A0, [A4 + 0x1D4]
00005F1E  2068 0060                movea.l    A0, [A0 + 0x60]
00005F22  2268 0074                movea.l    A1, [A0 + 0x74]
00005F26  4E91                     jsr        [A1]
00005F28  2F2C 01F0                move.l     -[A7], [A4 + 0x1F0]
00005F2C  4EAD 1F52                jsr        [A5 + 0x1F52 /* export_998, CODE:37 @ 000014C8 */]
00005F30  302C 023C                move.w     D0, [A4 + 0x23C]
00005F34  48C0                     ext.l      D0
00005F36  81FC 0008                divs.w     D0, 0x8
00005F3A  4840                     swap.w     D0
00005F3C  4880                     ext.w      D0
00005F3E  48C0                     ext.l      D0
00005F40  E980                     asl        D0, 4
00005F42  2053                     movea.l    A0, [A3]
00005F44  3C28 0004                move.w     D6, [A0 + 0x4]
00005F48  DC40                     add.w      D6, D0
00005F4A  302C 023C                move.w     D0, [A4 + 0x23C]
00005F4E  48C0                     ext.l      D0
00005F50  81FC 0008                divs.w     D0, 0x8
00005F54  48C0                     ext.l      D0
00005F56  E980                     asl        D0, 4
00005F58  2053                     movea.l    A0, [A3]
00005F5A  3E28 0002                move.w     D7, [A0 + 0x2]
00005F5E  DE40                     add.w      D7, D0
00005F60  206C 0238                movea.l    A0, [A4 + 0x238]
00005F64  47E8 0086                lea.l      A3, [A0 + 0x86]
00005F68  3007                     move.w     D0, D7
00005F6A  906B 0010                sub.w      D0, [A3 + 0x10]
00005F6E  48C0                     ext.l      D0
00005F70  2F00                     move.l     -[A7], D0
00005F72  3006                     move.w     D0, D6
00005F74  906B 0012                sub.w      D0, [A3 + 0x12]
00005F78  48C0                     ext.l      D0
00005F7A  2F00                     move.l     -[A7], D0
00005F7C  204B                     movea.l    A0, A3
00005F7E  226B 0008                movea.l    A1, [A3 + 0x8]
00005F82  D0E9 0040                add.w      A0, [A1 + 0x40]
00005F86  2F08                     move.l     -[A7], A0
00005F88  2049                     movea.l    A0, A1
00005F8A  2268 0044                movea.l    A1, [A0 + 0x44]
00005F8E  4E91                     jsr        [A1]
00005F90  206C 0238                movea.l    A0, [A4 + 0x238]
00005F94  2248                     movea.l    A1, A0
00005F96  2269 0060                movea.l    A1, [A1 + 0x60]
00005F9A  D0E9 0070                add.w      A0, [A1 + 0x70]
00005F9E  2F08                     move.l     -[A7], A0
00005FA0  206C 0238                movea.l    A0, [A4 + 0x238]
00005FA4  2068 0060                movea.l    A0, [A0 + 0x60]
00005FA8  2268 0074                movea.l    A1, [A0 + 0x74]
00005FAC  4E91                     jsr        [A1]
00005FAE  4247                     clr.w      D7
00005FB0  4FEF 002C                lea.l      A7, [A7 + 0x2C]
00005FB4  6042                     bra        +0x44 /* 00005FF8 */
label00005FB6:
00005FB6  48C7                     ext.l      D7
00005FB8  2F07                     move.l     -[A7], D7
00005FBA  486C 016C                pea.l      [A4 + 0x16C]
00005FBE  4EAD 16D2                jsr        [A5 + 0x16D2 /* export_726, CODE:32 @ 00003FEA */]
00005FC2  2640                     movea.l    A3, D0
00005FC4  43EB 0080                lea.l      A1, [A3 + 0x80]
00005FC8  2049                     movea.l    A0, A1
00005FCA  226B 0088                movea.l    A1, [A3 + 0x88]
00005FCE  D0E9 00B0                add.w      A0, [A1 + 0xB0]
00005FD2  2F08                     move.l     -[A7], A0
00005FD4  2049                     movea.l    A0, A1
00005FD6  2268 00B4                movea.l    A1, [A0 + 0xB4]
00005FDA  4E91                     jsr        [A1]
00005FDC  204B                     movea.l    A0, A3
00005FDE  226B 0060                movea.l    A1, [A3 + 0x60]
00005FE2  D0E9 00E8                add.w      A0, [A1 + 0xE8]
00005FE6  2F08                     move.l     -[A7], A0
00005FE8  2049                     movea.l    A0, A1
00005FEA  2268 00EC                movea.l    A1, [A0 + 0xEC]
00005FEE  4E91                     jsr        [A1]
00005FF0  4FEF 0010                lea.l      A7, [A7 + 0x10]
00005FF4  3007                     move.w     D0, D7
00005FF6  5247                     addq.w     D7, 1
label00005FF8:
00005FF8  48C7                     ext.l      D7
00005FFA  BEAC 0178                cmp.l      D7, [A4 + 0x178]
00005FFE  6DB6                     blt        -0x48 /* 00005FB6 */
00006000  2F0C                     move.l     -[A7], A4
00006002  4EAD 11EA                jsr        [A5 + 0x11EA /* export_569, CODE:26 @ 00003268 */]
00006006  7000                     moveq.l    D0, 0x00
00006008  2F00                     move.l     -[A7], D0
0000600A  2F0C                     move.l     -[A7], A4
0000600C  4EAD 1282                jsr        [A5 + 0x1282 /* export_588, CODE:26 @ 00003A24 */]
00006010  2F0C                     move.l     -[A7], A4
00006012  4EBA 00C6                jsr        [PC + 0xC6 /* 000060DA */]
00006016  2F0C                     move.l     -[A7], A4
00006018  4EBA 0B2A                jsr        [PC + 0xB2A /* 00006B44 */]
0000601C  7001                     moveq.l    D0, 0x01
0000601E  2F00                     move.l     -[A7], D0
00006020  204C                     movea.l    A0, A4
00006022  226C 0060                movea.l    A1, [A4 + 0x60]
00006026  D0E9 0108                add.w      A0, [A1 + 0x108]
0000602A  2F08                     move.l     -[A7], A0
0000602C  2049                     movea.l    A0, A1
0000602E  2268 010C                movea.l    A1, [A0 + 0x10C]
00006032  4E91                     jsr        [A1]
00006034  4FEF 001C                lea.l      A7, [A7 + 0x1C]
00006038  4CEE 18C0 FFE8           movem.l    D6,D7,A3,A4, [A6 - 0x18]
0000603E  4E5E                     unlink     A6
00006040  4E75                     rts
00006042  8026 4578 616D 696E 6... dc.b       "ExamineField__20cFieldScheduleWindowFv"
fn0000606C:
0000606C  4E56 0000                link       A6, 0
00006070  2F0C                     move.l     -[A7], A4
00006072  286E 000C                movea.l    A4, [A6 + 0xC]
00006076  302E 0012                move.w     D0, [A6 + 0x12]
0000607A  48C0                     ext.l      D0
0000607C  2F00                     move.l     -[A7], D0
0000607E  2F0C                     move.l     -[A7], A4
00006080  4EAD 199A                jsr        [A5 + 0x199A /* export_815, CODE:33 @ 00002366 */]
00006084  204C                     movea.l    A0, A4
00006086  226C 0060                movea.l    A1, [A4 + 0x60]
0000608A  D0E9 0070                add.w      A0, [A1 + 0x70]
0000608E  2F08                     move.l     -[A7], A0
00006090  2049                     movea.l    A0, A1
00006092  2268 0074                movea.l    A1, [A0 + 0x74]
00006096  4E91                     jsr        [A1]
00006098  286E FFFC                movea.l    A4, [A6 - 0x4]
0000609C  4E5E                     unlink     A6
0000609E  4E75                     rts
000060A0  8035 5365 7450 6963 7... dc.b       "SetPicture__20cFieldScheduleWindowFP14cPictPrimitives"
fn000060DA:
000060DA  4E56 FFDE                link       A6, -0x0022
000060DE  48E7 0F38                movem.l    -[A7], D4,D5,D6,D7,A2,A3,A4
000060E2  286E 0008                movea.l    A4, [A6 + 0x8]
000060E6  41EC 0100                lea.l      A0, [A4 + 0x100]
000060EA  43EE FFEC                lea.l      A1, [A6 - 0x14]
000060EE  22D8                     move.l     [A1]+, [A0]+
000060F0  22D8                     move.l     [A1]+, [A0]+
000060F2  486E FFEC                pea.l      [A6 - 0x14]
000060F6  302E FFEE                move.w     D0, [A6 - 0x12]
000060FA  48C0                     ext.l      D0
000060FC  4480                     neg.l      D0
000060FE  3F00                     move.w     -[A7], D0
00006100  302E FFEC                move.w     D0, [A6 - 0x14]
00006104  48C0                     ext.l      D0
00006106  4480                     neg.l      D0
00006108  3F00                     move.w     -[A7], D0
0000610A  A8A8                     syscall    OffsetRect
0000610C  486E FFEC                pea.l      [A6 - 0x14]
00006110  2F0C                     move.l     -[A7], A4
00006112  4EAD 126A                jsr        [A5 + 0x126A /* export_585, CODE:26 @ 000038B2 */]
00006116  2F0C                     move.l     -[A7], A4
00006118  4EAD 11E2                jsr        [A5 + 0x11E2 /* export_568, CODE:26 @ 000031FA */]
0000611C  7000                     moveq.l    D0, 0x00
0000611E  204D                     movea.l    A0, A5
00006120  D1FC FFFE CFD2           add.l      A0, 0xFFFECFD2
00006126  1010                     move.b     D0, [A0]
00006128  C1FC 0044                muls.w     D0, 0x44 /* 'D' */
0000612C  204D                     movea.l    A0, A5
0000612E  D1FC FFFD AFAE           add.l      A0, 0xFFFDAFAE
00006134  1030 000E                move.b     D0, [A0 + D0.w + 0xE]
00006138  4880                     ext.w      D0
0000613A  D07C 0010                add.w      D0, 0x10
0000613E  D040                     add.w      D0, D0
00006140  204D                     movea.l    A0, A5
00006142  D1FC FFFF 77D2           add.l      A0, 0xFFFF77D2
00006148  3030 0000                move.w     D0, [A0 + D0.w]
0000614C  48C0                     ext.l      D0
0000614E  2F00                     move.l     -[A7], D0
00006150  226C 01D0                movea.l    A1, [A4 + 0x1D0]
00006154  43E9 0126                lea.l      A1, [A1 + 0x126]
00006158  2049                     movea.l    A0, A1
0000615A  226C 01D0                movea.l    A1, [A4 + 0x1D0]
0000615E  2269 012E                movea.l    A1, [A1 + 0x12E]
00006162  D0E9 0030                add.w      A0, [A1 + 0x30]
00006166  2F08                     move.l     -[A7], A0
00006168  206C 01D0                movea.l    A0, [A4 + 0x1D0]
0000616C  2068 012E                movea.l    A0, [A0 + 0x12E]
00006170  2268 0034                movea.l    A1, [A0 + 0x34]
00006174  4E91                     jsr        [A1]
00006176  206C 01D0                movea.l    A0, [A4 + 0x1D0]
0000617A  2248                     movea.l    A1, A0
0000617C  2269 0060                movea.l    A1, [A1 + 0x60]
00006180  D0E9 0070                add.w      A0, [A1 + 0x70]
00006184  2F08                     move.l     -[A7], A0
00006186  206C 01D0                movea.l    A0, [A4 + 0x1D0]
0000618A  2068 0060                movea.l    A0, [A0 + 0x60]
0000618E  2268 0074                movea.l    A1, [A0 + 0x74]
00006192  4E91                     jsr        [A1]
00006194  7000                     moveq.l    D0, 0x00
00006196  204D                     movea.l    A0, A5
00006198  D1FC FFFE CFD2           add.l      A0, 0xFFFECFD2
0000619E  1010                     move.b     D0, [A0]
000061A0  C1FC 0044                muls.w     D0, 0x44 /* 'D' */
000061A4  204D                     movea.l    A0, A5
000061A6  D1FC FFFD AFAE           add.l      A0, 0xFFFDAFAE
000061AC  7200                     moveq.l    D1, 0x00
000061AE  1230 0016                move.b     D1, [A0 + D0.w + 0x16]
000061B2  48C1                     ext.l      D1
000061B4  83FC 0034                divs.w     D1, 0x34 /* '4' */
000061B8  48C1                     ext.l      D1
000061BA  2F01                     move.l     -[A7], D1
000061BC  2F2C 01A8                move.l     -[A7], [A4 + 0x1A8]
000061C0  4EAD 0E8A                jsr        [A5 + 0xE8A /* export_461, CODE:20 @ 0000702A */]
000061C4  7000                     moveq.l    D0, 0x00
000061C6  204D                     movea.l    A0, A5
000061C8  D1FC FFFE CFD2           add.l      A0, 0xFFFECFD2
000061CE  1010                     move.b     D0, [A0]
000061D0  C1FC 0044                muls.w     D0, 0x44 /* 'D' */
000061D4  204D                     movea.l    A0, A5
000061D6  D1FC FFFD AFAE           add.l      A0, 0xFFFDAFAE
000061DC  7200                     moveq.l    D1, 0x00
000061DE  1230 0014                move.b     D1, [A0 + D0.w + 0x14]
000061E2  48C1                     ext.l      D1
000061E4  83FC 0034                divs.w     D1, 0x34 /* '4' */
000061E8  48C1                     ext.l      D1
000061EA  2F01                     move.l     -[A7], D1
000061EC  2F2C 01AC                move.l     -[A7], [A4 + 0x1AC]
000061F0  4EAD 0E8A                jsr        [A5 + 0xE8A /* export_461, CODE:20 @ 0000702A */]
000061F4  7000                     moveq.l    D0, 0x00
000061F6  204D                     movea.l    A0, A5
000061F8  D1FC FFFE CFD2           add.l      A0, 0xFFFECFD2
000061FE  1010                     move.b     D0, [A0]
00006200  C1FC 0044                muls.w     D0, 0x44 /* 'D' */
00006204  204D                     movea.l    A0, A5
00006206  D1FC FFFD AFAE           add.l      A0, 0xFFFDAFAE
0000620C  7200                     moveq.l    D1, 0x00
0000620E  1230 0015                move.b     D1, [A0 + D0.w + 0x15]
00006212  48C1                     ext.l      D1
00006214  83FC 0034                divs.w     D1, 0x34 /* '4' */
00006218  48C1                     ext.l      D1
0000621A  2F01                     move.l     -[A7], D1
0000621C  2F2C 01B0                move.l     -[A7], [A4 + 0x1B0]
00006220  4EAD 0E8A                jsr        [A5 + 0xE8A /* export_461, CODE:20 @ 0000702A */]
00006224  7000                     moveq.l    D0, 0x00
00006226  204D                     movea.l    A0, A5
00006228  D1FC FFFE CFD2           add.l      A0, 0xFFFECFD2
0000622E  1010                     move.b     D0, [A0]
00006230  2F00                     move.l     -[A7], D0
00006232  4EAD 0442                jsr        [A5 + 0x442 /* export_132, CODE:6 @ 00004EDC */]
00006236  7000                     moveq.l    D0, 0x00
00006238  204D                     movea.l    A0, A5
0000623A  D1FC FFFE CFD2           add.l      A0, 0xFFFECFD2
00006240  1010                     move.b     D0, [A0]
00006242  C1FC 0044                muls.w     D0, 0x44 /* 'D' */
00006246  204D                     movea.l    A0, A5
00006248  D1FC FFFD AFAE           add.l      A0, 0xFFFDAFAE
0000624E  7200                     moveq.l    D1, 0x00
00006250  1230 001C                move.b     D1, [A0 + D0.w + 0x1C]
00006254  48C1                     ext.l      D1
00006256  83FC 0034                divs.w     D1, 0x34 /* '4' */
0000625A  48C1                     ext.l      D1
0000625C  2F01                     move.l     -[A7], D1
0000625E  2F2C 01B8                move.l     -[A7], [A4 + 0x1B8]
00006262  4EAD 0E8A                jsr        [A5 + 0xE8A /* export_461, CODE:20 @ 0000702A */]
00006266  7000                     moveq.l    D0, 0x00
00006268  204D                     movea.l    A0, A5
0000626A  D1FC FFFE CFD2           add.l      A0, 0xFFFECFD2
00006270  1010                     move.b     D0, [A0]
00006272  C1FC 0044                muls.w     D0, 0x44 /* 'D' */
00006276  204D                     movea.l    A0, A5
00006278  D1FC FFFD AFAE           add.l      A0, 0xFFFDAFAE
0000627E  3E30 0018                move.w     D7, [A0 + D0.w + 0x18]
00006282  7000                     moveq.l    D0, 0x00
00006284  204D                     movea.l    A0, A5
00006286  D1FC FFFE CFD2           add.l      A0, 0xFFFECFD2
0000628C  1010                     move.b     D0, [A0]
0000628E  C1FC 0044                muls.w     D0, 0x44 /* 'D' */
00006292  204D                     movea.l    A0, A5
00006294  D1FC FFFD AFAE           add.l      A0, 0xFFFDAFAE
0000629A  1830 000E                move.b     D4, [A0 + D0.w + 0xE]
0000629E  7000                     moveq.l    D0, 0x00
000062A0  1004                     move.b     D0, D4
000062A2  EF40                     asl        D0.w, 7
000062A4  204D                     movea.l    A0, A5
000062A6  D1FC FFFD CED4           add.l      A0, 0xFFFDCED4
000062AC  7200                     moveq.l    D1, 0x00
000062AE  224D                     movea.l    A1, A5
000062B0  D3FC FFFE CFD2           add.l      A1, 0xFFFECFD2
000062B6  1211                     move.b     D1, [A1]
000062B8  C3FC 0044                muls.w     D1, 0x44 /* 'D' */
000062BC  224D                     movea.l    A1, A5
000062BE  D3FC FFFD AFAE           add.l      A1, 0xFFFDAFAE
000062C4  7400                     moveq.l    D2, 0x00
000062C6  1431 1033                move.b     D2, [A1 + D1.w + 0x33]
000062CA  E38A                     lsl        D2, 1
000062CC  1030 0029                move.b     D0, [A0 + D0.w + 0x29]
000062D0  9002                     sub.b      D0, D2
000062D2  1C00                     move.b     D6, D0
000062D4  4FEF 003C                lea.l      A7, [A7 + 0x3C]
000062D8  6C02                     bge        +0x4 /* 000062DC */
000062DA  4206                     clr.b      D6
label000062DC:
000062DC  7000                     moveq.l    D0, 0x00
000062DE  1004                     move.b     D0, D4
000062E0  EF40                     asl        D0.w, 7
000062E2  204D                     movea.l    A0, A5
000062E4  D1FC FFFD CED4           add.l      A0, 0xFFFDCED4
000062EA  7200                     moveq.l    D1, 0x00
000062EC  224D                     movea.l    A1, A5
000062EE  D3FC FFFE CFD2           add.l      A1, 0xFFFECFD2
000062F4  1211                     move.b     D1, [A1]
000062F6  C3FC 0044                muls.w     D1, 0x44 /* 'D' */
000062FA  224D                     movea.l    A1, A5
000062FC  D3FC FFFD AFAE           add.l      A1, 0xFFFDAFAE
00006302  7400                     moveq.l    D2, 0x00
00006304  1431 1034                move.b     D2, [A1 + D1.w + 0x34]
00006308  E38A                     lsl        D2, 1
0000630A  D430 002B                add.b      D2, [A0 + D0.w + 0x2B]
0000630E  1D42 FFF5                move.b     [A6 - 0xB], D2
00006312  102E FFF5                move.b     D0, [A6 - 0xB]
00006316  4880                     ext.w      D0
00006318  4886                     ext.w      D6
0000631A  3800                     move.w     D4, D0
0000631C  9846                     sub.w      D4, D6
0000631E  3004                     move.w     D0, D4
00006320  E248                     lsr        D0.w, 1
00006322  7200                     moveq.l    D1, 0x00
00006324  3200                     move.w     D1, D0
00006326  4A81                     tst.l      D1
00006328  49C6                     lea.l      A4, D6
0000632A  D286                     add.l      D1, D6
0000632C  3801                     move.w     D4, D1
0000632E  7000                     moveq.l    D0, 0x00
00006330  3007                     move.w     D0, D7
00006332  4A80                     tst.l      D0
00006334  49C6                     lea.l      A4, D6
00006336  BC80                     cmp.l      D6, D0
00006338  6F04                     ble        +0x6 /* 0000633E */
0000633A  4245                     clr.w      D5
0000633C  603A                     bra        +0x3C /* 00006378 */
label0000633E:
0000633E  7000                     moveq.l    D0, 0x00
00006340  3007                     move.w     D0, D7
00006342  4A80                     tst.l      D0
00006344  49C6                     lea.l      A4, D6
00006346  BC80                     cmp.l      D6, D0
00006348  6E08                     bgt        +0xA /* 00006352 */
0000634A  B847                     cmp.w      D4, D7
0000634C  6304                     bls        +0x6 /* 00006352 */
0000634E  7A01                     moveq.l    D5, 0x01
00006350  6026                     bra        +0x28 /* 00006378 */
label00006352:
00006352  B847                     cmp.w      D4, D7
00006354  6212                     bhi        +0x14 /* 00006368 */
00006356  7000                     moveq.l    D0, 0x00
00006358  3007                     move.w     D0, D7
0000635A  122E FFF5                move.b     D1, [A6 - 0xB]
0000635E  49C1                     lea.l      A4, D1
00006360  B280                     cmp.l      D1, D0
00006362  6F04                     ble        +0x6 /* 00006368 */
00006364  7A02                     moveq.l    D5, 0x02
00006366  6010                     bra        +0x12 /* 00006378 */
label00006368:
00006368  7000                     moveq.l    D0, 0x00
0000636A  3007                     move.w     D0, D7
0000636C  122E FFF5                move.b     D1, [A6 - 0xB]
00006370  49C1                     lea.l      A4, D1
00006372  B280                     cmp.l      D1, D0
00006374  6E02                     bgt        +0x4 /* 00006378 */
00006376  7A04                     moveq.l    D5, 0x04
label00006378:
00006378  3005                     move.w     D0, D5
0000637A  48C0                     ext.l      D0
0000637C  2F00                     move.l     -[A7], D0
0000637E  2F2C 01B4                move.l     -[A7], [A4 + 0x1B4]
00006382  4EAD 0E8A                jsr        [A5 + 0xE8A /* export_461, CODE:20 @ 0000702A */]
00006386  7000                     moveq.l    D0, 0x00
00006388  204D                     movea.l    A0, A5
0000638A  D1FC FFFE CFD2           add.l      A0, 0xFFFECFD2
00006390  1010                     move.b     D0, [A0]
00006392  2F00                     move.l     -[A7], D0
00006394  4EAD 0422                jsr        [A5 + 0x422 /* export_128, CODE:6 @ 00004A10 */]
00006398  7200                     moveq.l    D1, 0x00
0000639A  3200                     move.w     D1, D0
0000639C  2D41 FFDE                move.l     [A6 - 0x22], D1
000063A0  486E FFDE                pea.l      [A6 - 0x22]
000063A4  486E FFE2                pea.l      [A6 - 0x1E]
000063A8  3F3C 280E                move.w     -[A7], 0x280E
000063AC  A9EB                     syscall    Pack4/FP68K
000063AE  41EE FFE2                lea.l      A0, [A6 - 0x1E]
000063B2  43EE FFF6                lea.l      A1, [A6 - 0xA]
000063B6  22D8                     move.l     [A1]+, [A0]+
000063B8  22D8                     move.l     [A1]+, [A0]+
000063BA  32D8                     move.w     [A1]+, [A0]+
000063BC  41EE FFF6                lea.l      A0, [A6 - 0xA]
000063C0  43EE FFE2                lea.l      A1, [A6 - 0x1E]
000063C4  22D8                     move.l     [A1]+, [A0]+
000063C6  22D8                     move.l     [A1]+, [A0]+
000063C8  32D8                     move.w     [A1]+, [A0]+
000063CA  487A 0156                pea.l      [PC + 0x156 /* 00006522, value 0x4008A3C0 */]
000063CE  486E FFE2                pea.l      [A6 - 0x1E]
000063D2  3F3C 0006                move.w     -[A7], 0x6
000063D6  A9EB                     syscall    Pack4/FP68K
000063D8  41EE FFE2                lea.l      A0, [A6 - 0x1E]
000063DC  43EE FFF6                lea.l      A1, [A6 - 0xA]
000063E0  22D8                     move.l     [A1]+, [A0]+
000063E2  22D8                     move.l     [A1]+, [A0]+
000063E4  32D8                     move.w     [A1]+, [A0]+
000063E6  487A 0130                pea.l      [PC + 0x130 /* 00006518, value 0x4005C800 */]
000063EA  486E FFF6                pea.l      [A6 - 0xA]
000063EE  3F3C 000A                move.w     -[A7], 0xA /* '\n' */
000063F2  A9EB                     syscall    Pack4/FP68K
000063F4  4FEF 000C                lea.l      A7, [A7 + 0xC]
000063F8  6F0E                     ble        +0x10 /* 00006408 */
000063FA  41FA 011C                lea.l      A0, [PC + 0x11C /* 00006518, value 0x4005C800 */]
000063FE  43EE FFF6                lea.l      A1, [A6 - 0xA]
00006402  22D8                     move.l     [A1]+, [A0]+
00006404  22D8                     move.l     [A1]+, [A0]+
00006406  32D8                     move.w     [A1]+, [A0]+
label00006408:
00006408  487A 010E                pea.l      [PC + 0x10E /* 00006518, value 0x4005C800 */]
0000640C  41EE FFE2                lea.l      A0, [A6 - 0x1E]
00006410  43EE FFF6                lea.l      A1, [A6 - 0xA]
00006414  20D9                     move.l     [A0]+, [A1]+
00006416  20D9                     move.l     [A0]+, [A1]+
00006418  30D9                     move.w     [A0]+, [A1]+
0000641A  486E FFE2                pea.l      [A6 - 0x1E]
0000641E  3F3C 0006                move.w     -[A7], 0x6
00006422  A9EB                     syscall    Pack4/FP68K
00006424  206C 01F4                movea.l    A0, [A4 + 0x1F4]
00006428  43EE FFE2                lea.l      A1, [A6 - 0x1E]
0000642C  45E8 01CC                lea.l      A2, [A0 + 0x1CC]
00006430  24D9                     move.l     [A2]+, [A1]+
00006432  24D9                     move.l     [A2]+, [A1]+
00006434  34D9                     move.w     [A2]+, [A1]+
00006436  206C 01F4                movea.l    A0, [A4 + 0x1F4]
0000643A  4868 0096                pea.l      [A0 + 0x96]
0000643E  A928                     syscall    InvalRect
00006440  7000                     moveq.l    D0, 0x00
00006442  204D                     movea.l    A0, A5
00006444  D1FC FFFE CFD2           add.l      A0, 0xFFFECFD2
0000644A  1010                     move.b     D0, [A0]
0000644C  2F00                     move.l     -[A7], D0
0000644E  4EAD 041A                jsr        [A5 + 0x41A /* export_127, CODE:6 @ 00004902 */]
00006452  2A00                     move.l     D5, D0
00006454  206C 01E4                movea.l    A0, [A4 + 0x1E4]
00006458  4868 01C4                pea.l      [A0 + 0x1C4]
0000645C  4EAD 1782                jsr        [A5 + 0x1782 /* export_748, CODE:32 @ 00004E1E */]
00006460  206C 01E4                movea.l    A0, [A4 + 0x1E4]
00006464  47E8 01C4                lea.l      A3, [A0 + 0x1C4]
00006468  2F0B                     move.l     -[A7], A3
0000646A  4EAD 1782                jsr        [A5 + 0x1782 /* export_748, CODE:32 @ 00004E1E */]
0000646E  4207                     clr.b      D7
00006470  7000                     moveq.l    D0, 0x00
00006472  1007                     move.b     D0, D7
00006474  2F00                     move.l     -[A7], D0
00006476  2F2B 0014                move.l     -[A7], [A3 + 0x14]
0000647A  204D                     movea.l    A0, A5
0000647C  D1FC FFFF 3C9C           add.l      A0, 0xFFFF3C9C
00006482  4850                     pea.l      [A0]
00006484  2F0B                     move.l     -[A7], A3
00006486  4EAD 178A                jsr        [A5 + 0x178A /* export_749, CODE:32 @ 00004E80 */]
0000648A  2F05                     move.l     -[A7], D5
0000648C  206C 01E4                movea.l    A0, [A4 + 0x1E4]
00006490  4868 01C4                pea.l      [A0 + 0x1C4]
00006494  4EAD 17FA                jsr        [A5 + 0x17FA /* export_763, CODE:32 @ 000057BC */]
00006498  2F2C 01E4                move.l     -[A7], [A4 + 0x1E4]
0000649C  4EAD 1F52                jsr        [A5 + 0x1F52 /* export_998, CODE:37 @ 000014C8 */]
000064A0  7000                     moveq.l    D0, 0x00
000064A2  204D                     movea.l    A0, A5
000064A4  D1FC FFFE CFD2           add.l      A0, 0xFFFECFD2
000064AA  1010                     move.b     D0, [A0]
000064AC  2F00                     move.l     -[A7], D0
000064AE  4EAD 042A                jsr        [A5 + 0x42A /* export_129, CODE:6 @ 00004B18 */]
000064B2  3A00                     move.w     D5, D0
000064B4  700E                     moveq.l    D0, 0x0E
000064B6  3205                     move.w     D1, D5
000064B8  E069                     lsr        D1.w, D0
000064BA  3A01                     move.w     D5, D1
000064BC  3005                     move.w     D0, D5
000064BE  D07C 01FA                add.w      D0, 0x1FA
000064C2  48C0                     ext.l      D0
000064C4  2F00                     move.l     -[A7], D0
000064C6  2F2C 01BC                move.l     -[A7], [A4 + 0x1BC]
000064CA  2F0C                     move.l     -[A7], A4
000064CC  4EBA FB9E                jsr        [PC - 0x462 /* 0000606C */]
000064D0  2F0C                     move.l     -[A7], A4
000064D2  4EAD 11EA                jsr        [A5 + 0x11EA /* export_569, CODE:26 @ 00003268 */]
000064D6  7000                     moveq.l    D0, 0x00
000064D8  2F00                     move.l     -[A7], D0
000064DA  2F0C                     move.l     -[A7], A4
000064DC  4EAD 1282                jsr        [A5 + 0x1282 /* export_588, CODE:26 @ 00003A24 */]
000064E0  4FEF 0044                lea.l      A7, [A7 + 0x44]
000064E4  4CEE 1CF0 FFC2           movem.l    D4,D5,D6,D7,A2,A3,A4, [A6 - 0x3E]
000064EA  4E5E                     unlink     A6
000064EC  4E75                     rts
000064EE  8026 5570 6461 7465 4... dc.b       "UpdateMeters__20cFieldScheduleWindowFv" + 20 constant bytes
fn0000652C:
0000652C  4E56 FFF8                link       A6, -0x0008
00006530  48E7 1318                movem.l    -[A7], D3,D6,D7,A3,A4
00006534  286E 0008                movea.l    A4, [A6 + 0x8]
00006538  4206                     clr.b      D6
0000653A  4247                     clr.w      D7
0000653C  601E                     bra        +0x20 /* 0000655C */
label0000653E:
0000653E  266E 000C                movea.l    A3, [A6 + 0xC]
00006542  48C7                     ext.l      D7
00006544  2F07                     move.l     -[A7], D7
00006546  486C 018A                pea.l      [A4 + 0x18A]
0000654A  4EAD 16D2                jsr        [A5 + 0x16D2 /* export_726, CODE:32 @ 00003FEA */]
0000654E  B08B                     cmp.l      D0, A3
00006550  504F                     addq.w     A7, 8
00006552  6604                     bne        +0x6 /* 00006558 */
00006554  7C01                     moveq.l    D6, 0x01
00006556  600C                     bra        +0xE /* 00006564 */
label00006558:
00006558  3007                     move.w     D0, D7
0000655A  5247                     addq.w     D7, 1
label0000655C:
0000655C  48C7                     ext.l      D7
0000655E  BEAC 0196                cmp.l      D7, [A4 + 0x196]
00006562  6DDA                     blt        -0x24 /* 0000653E */
label00006564:
00006564  4A06                     tst.b      D6
00006566  6700 0192                beq        +0x194 /* 000066FA */
0000656A  7000                     moveq.l    D0, 0x00
0000656C  2F00                     move.l     -[A7], D0
0000656E  486C 018A                pea.l      [A4 + 0x18A]
00006572  4EAD 16D2                jsr        [A5 + 0x16D2 /* export_726, CODE:32 @ 00003FEA */]
00006576  2D40 FFF8                move.l     [A6 - 0x8], D0
0000657A  7001                     moveq.l    D0, 0x01
0000657C  2F00                     move.l     -[A7], D0
0000657E  486C 018A                pea.l      [A4 + 0x18A]
00006582  4EAD 16D2                jsr        [A5 + 0x16D2 /* export_726, CODE:32 @ 00003FEA */]
00006586  2D40 FFFC                move.l     [A6 - 0x4], D0
0000658A  48C7                     ext.l      D7
0000658C  2007                     move.l     D0, D7
0000658E  7212                     moveq.l    D1, 0x12
00006590  D081                     add.l      D0, D1
00006592  0480 0000 0012           subi.l     D0, 0x12
00006598  4FEF 0010                lea.l      A7, [A7 + 0x10]
0000659C  6706                     beq        +0x8 /* 000065A4 */
0000659E  5380                     subq.l     D0, 1
000065A0  6726                     beq        +0x28 /* 000065C8 */
000065A2  6046                     bra        +0x48 /* 000065EA */
label000065A4:
000065A4  204D                     movea.l    A0, A5
000065A6  D1FC FFFE C15C           add.l      A0, 0xFFFEC15C
000065AC  4A10                     tst.b      [A0]
000065AE  57C3                     seq        D3
000065B0  4403                     neg.b      D3
000065B2  204D                     movea.l    A0, A5
000065B4  D1FC FFFE C15C           add.l      A0, 0xFFFEC15C
000065BA  1083                     move.b     [A0], D3
000065BC  204D                     movea.l    A0, A5
000065BE  D1FC FFFE C15A           add.l      A0, 0xFFFEC15A
000065C4  4210                     clr.b      [A0]
000065C6  6022                     bra        +0x24 /* 000065EA */
label000065C8:
000065C8  204D                     movea.l    A0, A5
000065CA  D1FC FFFE C15A           add.l      A0, 0xFFFEC15A
000065D0  4A10                     tst.b      [A0]
000065D2  57C3                     seq        D3
000065D4  4403                     neg.b      D3
000065D6  204D                     movea.l    A0, A5
000065D8  D1FC FFFE C15A           add.l      A0, 0xFFFEC15A
000065DE  1083                     move.b     [A0], D3
000065E0  204D                     movea.l    A0, A5
000065E2  D1FC FFFE C15C           add.l      A0, 0xFFFEC15C
000065E8  4210                     clr.b      [A0]
label000065EA:
000065EA  204D                     movea.l    A0, A5
000065EC  D1FC FFFE C15C           add.l      A0, 0xFFFEC15C
000065F2  4A10                     tst.b      [A0]
000065F4  672A                     beq        +0x2C /* 00006620 */
000065F6  226E FFF8                movea.l    A1, [A6 - 0x8]
000065FA  43E9 0080                lea.l      A1, [A1 + 0x80]
000065FE  2049                     movea.l    A0, A1
00006600  226E FFF8                movea.l    A1, [A6 - 0x8]
00006604  2269 0088                movea.l    A1, [A1 + 0x88]
00006608  D0E9 00A8                add.w      A0, [A1 + 0xA8]
0000660C  2F08                     move.l     -[A7], A0
0000660E  206E FFF8                movea.l    A0, [A6 - 0x8]
00006612  2068 0088                movea.l    A0, [A0 + 0x88]
00006616  2268 00AC                movea.l    A1, [A0 + 0xAC]
0000661A  4E91                     jsr        [A1]
0000661C  584F                     addq.w     A7, 4
0000661E  6028                     bra        +0x2A /* 00006648 */
label00006620:
00006620  226E FFF8                movea.l    A1, [A6 - 0x8]
00006624  43E9 0080                lea.l      A1, [A1 + 0x80]
00006628  2049                     movea.l    A0, A1
0000662A  226E FFF8                movea.l    A1, [A6 - 0x8]
0000662E  2269 0088                movea.l    A1, [A1 + 0x88]
00006632  D0E9 00B0                add.w      A0, [A1 + 0xB0]
00006636  2F08                     move.l     -[A7], A0
00006638  206E FFF8                movea.l    A0, [A6 - 0x8]
0000663C  2068 0088                movea.l    A0, [A0 + 0x88]
00006640  2268 00B4                movea.l    A1, [A0 + 0xB4]
00006644  4E91                     jsr        [A1]
00006646  584F                     addq.w     A7, 4
label00006648:
00006648  204D                     movea.l    A0, A5
0000664A  D1FC FFFE C15A           add.l      A0, 0xFFFEC15A
00006650  4A10                     tst.b      [A0]
00006652  672A                     beq        +0x2C /* 0000667E */
00006654  226E FFFC                movea.l    A1, [A6 - 0x4]
00006658  43E9 0080                lea.l      A1, [A1 + 0x80]
0000665C  2049                     movea.l    A0, A1
0000665E  226E FFFC                movea.l    A1, [A6 - 0x4]
00006662  2269 0088                movea.l    A1, [A1 + 0x88]
00006666  D0E9 00A8                add.w      A0, [A1 + 0xA8]
0000666A  2F08                     move.l     -[A7], A0
0000666C  206E FFFC                movea.l    A0, [A6 - 0x4]
00006670  2068 0088                movea.l    A0, [A0 + 0x88]
00006674  2268 00AC                movea.l    A1, [A0 + 0xAC]
00006678  4E91                     jsr        [A1]
0000667A  584F                     addq.w     A7, 4
0000667C  6028                     bra        +0x2A /* 000066A6 */
label0000667E:
0000667E  226E FFFC                movea.l    A1, [A6 - 0x4]
00006682  43E9 0080                lea.l      A1, [A1 + 0x80]
00006686  2049                     movea.l    A0, A1
00006688  226E FFFC                movea.l    A1, [A6 - 0x4]
0000668C  2269 0088                movea.l    A1, [A1 + 0x88]
00006690  D0E9 00B0                add.w      A0, [A1 + 0xB0]
00006694  2F08                     move.l     -[A7], A0
00006696  206E FFFC                movea.l    A0, [A6 - 0x4]
0000669A  2068 0088                movea.l    A0, [A0 + 0x88]
0000669E  2268 00B4                movea.l    A1, [A0 + 0xB4]
000066A2  4E91                     jsr        [A1]
000066A4  584F                     addq.w     A7, 4
label000066A6:
000066A6  206E FFF8                movea.l    A0, [A6 - 0x8]
000066AA  2248                     movea.l    A1, A0
000066AC  2269 0060                movea.l    A1, [A1 + 0x60]
000066B0  D0E9 00E8                add.w      A0, [A1 + 0xE8]
000066B4  2F08                     move.l     -[A7], A0
000066B6  206E FFF8                movea.l    A0, [A6 - 0x8]
000066BA  2068 0060                movea.l    A0, [A0 + 0x60]
000066BE  2268 00EC                movea.l    A1, [A0 + 0xEC]
000066C2  4E91                     jsr        [A1]
000066C4  206E FFFC                movea.l    A0, [A6 - 0x4]
000066C8  2248                     movea.l    A1, A0
000066CA  2269 0060                movea.l    A1, [A1 + 0x60]
000066CE  D0E9 00E8                add.w      A0, [A1 + 0xE8]
000066D2  2F08                     move.l     -[A7], A0
000066D4  206E FFFC                movea.l    A0, [A6 - 0x4]
000066D8  2068 0060                movea.l    A0, [A0 + 0x60]
000066DC  2268 00EC                movea.l    A1, [A0 + 0xEC]
000066E0  4E91                     jsr        [A1]
000066E2  2F2C 01EC                move.l     -[A7], [A4 + 0x1EC]
000066E6  4EAD 1F52                jsr        [A5 + 0x1F52 /* export_998, CODE:37 @ 000014C8 */]
000066EA  2F2C 01F0                move.l     -[A7], [A4 + 0x1F0]
000066EE  4EAD 1F52                jsr        [A5 + 0x1F52 /* export_998, CODE:37 @ 000014C8 */]
000066F2  4FEF 0010                lea.l      A7, [A7 + 0x10]
000066F6  6000 0138                bra        +0x13A /* 00006830 */
label000066FA:
000066FA  4246                     clr.w      D6
000066FC  4247                     clr.w      D7
000066FE  6000 0082                bra        +0x84 /* 00006782 */
label00006702:
00006702  48C7                     ext.l      D7
00006704  2F07                     move.l     -[A7], D7
00006706  486C 016C                pea.l      [A4 + 0x16C]
0000670A  4EAD 16D2                jsr        [A5 + 0x16D2 /* export_726, CODE:32 @ 00003FEA */]
0000670E  2640                     movea.l    A3, D0
00006710  B7EE 000C                cmpa.l     A3, [A6 + 0xC]
00006714  504F                     addq.w     A7, 8
00006716  6730                     beq        +0x32 /* 00006748 */
00006718  43EB 0080                lea.l      A1, [A3 + 0x80]
0000671C  2049                     movea.l    A0, A1
0000671E  226B 0088                movea.l    A1, [A3 + 0x88]
00006722  D0E9 00B0                add.w      A0, [A1 + 0xB0]
00006726  2F08                     move.l     -[A7], A0
00006728  2049                     movea.l    A0, A1
0000672A  2268 00B4                movea.l    A1, [A0 + 0xB4]
0000672E  4E91                     jsr        [A1]
00006730  204B                     movea.l    A0, A3
00006732  226B 0060                movea.l    A1, [A3 + 0x60]
00006736  D0E9 00E8                add.w      A0, [A1 + 0xE8]
0000673A  2F08                     move.l     -[A7], A0
0000673C  2049                     movea.l    A0, A1
0000673E  2268 00EC                movea.l    A1, [A0 + 0xEC]
00006742  4E91                     jsr        [A1]
00006744  504F                     addq.w     A7, 8
00006746  6036                     bra        +0x38 /* 0000677E */
label00006748:
00006748  B7EE 000C                cmpa.l     A3, [A6 + 0xC]
0000674C  6630                     bne        +0x32 /* 0000677E */
0000674E  3C07                     move.w     D6, D7
00006750  43EB 0080                lea.l      A1, [A3 + 0x80]
00006754  2049                     movea.l    A0, A1
00006756  226B 0088                movea.l    A1, [A3 + 0x88]
0000675A  D0E9 00A8                add.w      A0, [A1 + 0xA8]
0000675E  2F08                     move.l     -[A7], A0
00006760  2049                     movea.l    A0, A1
00006762  2268 00AC                movea.l    A1, [A0 + 0xAC]
00006766  4E91                     jsr        [A1]
00006768  204B                     movea.l    A0, A3
0000676A  226B 0060                movea.l    A1, [A3 + 0x60]
0000676E  D0E9 00E8                add.w      A0, [A1 + 0xE8]
00006772  2F08                     move.l     -[A7], A0
00006774  2049                     movea.l    A0, A1
00006776  2268 00EC                movea.l    A1, [A0 + 0xEC]
0000677A  4E91                     jsr        [A1]
0000677C  504F                     addq.w     A7, 8
label0000677E:
0000677E  3007                     move.w     D0, D7
00006780  5247                     addq.w     D7, 1
label00006782:
00006782  48C7                     ext.l      D7
00006784  BEAC 0178                cmp.l      D7, [A4 + 0x178]
00006788  6D00 FF78                blt        -0x86 /* 00006702 */
0000678C  3006                     move.w     D0, D6
0000678E  6B3E                     bmi        +0x40 /* 000067CE */
00006790  0C40 0005                cmpi.w     D0, 0x5
00006794  6E38                     bgt        +0x3A /* 000067CE */
00006796  D040                     add.w      D0, D0
00006798  303B 0006                move.w     D0, [PC + D0.w + 0x6]
0000679C  4EFB 0000                jmp        [PC + D0.w]
000067A0  000E 0014                ori.b      A6, 0x14
000067A4  001A 0020                ori.b      [A2]+, 0x20 /* ' ' */
000067A8  0026 002C                ori.b      -[A6], 0x2C /* ',' */
000067AC  3E3C 04B0                move.w     D7, 0x4B0
000067B0  601C                     bra        +0x1E /* 000067CE */
000067B2  3E3C 04B1                move.w     D7, 0x4B1
000067B6  6016                     bra        +0x18 /* 000067CE */
000067B8  3E3C 04B2                move.w     D7, 0x4B2
000067BC  6010                     bra        +0x12 /* 000067CE */
000067BE  3E3C 04B5                move.w     D7, 0x4B5
000067C2  600A                     bra        +0xC /* 000067CE */
000067C4  3E3C 04B3                move.w     D7, 0x4B3
000067C8  6004                     bra        +0x6 /* 000067CE */
000067CA  3E3C 04B4                move.w     D7, 0x4B4
label000067CE:
000067CE  48C7                     ext.l      D7
000067D0  2F07                     move.l     -[A7], D7
000067D2  226C 01D4                movea.l    A1, [A4 + 0x1D4]
000067D6  43E9 0126                lea.l      A1, [A1 + 0x126]
000067DA  2049                     movea.l    A0, A1
000067DC  226C 01D4                movea.l    A1, [A4 + 0x1D4]
000067E0  2269 012E                movea.l    A1, [A1 + 0x12E]
000067E4  D0E9 0030                add.w      A0, [A1 + 0x30]
000067E8  2F08                     move.l     -[A7], A0
000067EA  206C 01D4                movea.l    A0, [A4 + 0x1D4]
000067EE  2068 012E                movea.l    A0, [A0 + 0x12E]
000067F2  2268 0034                movea.l    A1, [A0 + 0x34]
000067F6  4E91                     jsr        [A1]
000067F8  206C 01D4                movea.l    A0, [A4 + 0x1D4]
000067FC  2248                     movea.l    A1, A0
000067FE  2269 0060                movea.l    A1, [A1 + 0x60]
00006802  D0E9 0070                add.w      A0, [A1 + 0x70]
00006806  2F08                     move.l     -[A7], A0
00006808  206C 01D4                movea.l    A0, [A4 + 0x1D4]
0000680C  2068 0060                movea.l    A0, [A0 + 0x60]
00006810  2268 0074                movea.l    A1, [A0 + 0x74]
00006814  4E91                     jsr        [A1]
00006816  397C FFFF 023C           move.w     [A4 + 0x23C], 0xFFFF
0000681C  3006                     move.w     D0, D6
0000681E  D07C 0014                add.w      D0, 0x14
00006822  204D                     movea.l    A0, A5
00006824  D1FC FFFE CFD0           add.l      A0, 0xFFFECFD0
0000682A  3080                     move.w     [A0], D0
0000682C  4FEF 000C                lea.l      A7, [A7 + 0xC]
label00006830:
00006830  4CEE 18C8 FFE4           movem.l    D3,D6,D7,A3,A4, [A6 - 0x1C]
00006836  4E5E                     unlink     A6
00006838  4E75                     rts
0000683A  802E 5570 6461 7465 4... dc.b       "UpdateButtons__20cFieldScheduleWindowFP6cAgent"
export_363:
fn0000686C:
0000686C  4E56 FFEC                link       A6, -0x0014
00006870  48E7 0718                movem.l    -[A7], D5,D6,D7,A3,A4
00006874  286E 0008                movea.l    A4, [A6 + 0x8]
00006878  206C 01EC                movea.l    A0, [A4 + 0x1EC]
0000687C  2D68 01D4 FFEC           move.l     [A6 - 0x14], [A0 + 0x1D4]
00006882  302E FFEE                move.w     D0, [A6 - 0x12]
00006886  48C0                     ext.l      D0
00006888  7220                     moveq.l    D1, 0x20
0000688A  D081                     add.l      D0, D1
0000688C  4C7C 0800 0000 0040      divu.l     D0:D0, 0x8000000
00006894  204D                     movea.l    A0, A5
00006896  D1FC FFFE C3CC           add.l      A0, 0xFFFEC3CC
0000689C  1080                     move.b     [A0], D0
0000689E  204D                     movea.l    A0, A5
000068A0  D1FC FFFE C3CE           add.l      A0, 0xFFFEC3CE
000068A6  4850                     pea.l      [A0]
000068A8  7000                     moveq.l    D0, 0x00
000068AA  204D                     movea.l    A0, A5
000068AC  D1FC FFFE C3CC           add.l      A0, 0xFFFEC3CC
000068B2  1010                     move.b     D0, [A0]
000068B4  2F00                     move.l     -[A7], D0
000068B6  4EAD 039A                jsr        [A5 + 0x39A /* export_111, CODE:6 @ 0000277A */]
000068BA  7000                     moveq.l    D0, 0x00
000068BC  204D                     movea.l    A0, A5
000068BE  D1FC FFFE C3CC           add.l      A0, 0xFFFEC3CC
000068C4  1010                     move.b     D0, [A0]
000068C6  48C0                     ext.l      D0
000068C8  81FC 000C                divs.w     D0, 0xC
000068CC  4840                     swap.w     D0
000068CE  4880                     ext.w      D0
000068D0  3E00                     move.w     D7, D0
000068D2  206C 01D8                movea.l    A0, [A4 + 0x1D8]
000068D6  47E8 01C4                lea.l      A3, [A0 + 0x1C4]
000068DA  2007                     move.l     D0, D7
000068DC  E540                     asl        D0.w, 2
000068DE  204D                     movea.l    A0, A5
000068E0  D1FC FFFE C36C           add.l      A0, 0xFFFEC36C
000068E6  2D70 0000 FFF0           move.l     [A6 - 0x10], [A0 + D0.w]
000068EC  7A01                     moveq.l    D5, 0x01
000068EE  2F0B                     move.l     -[A7], A3
000068F0  4EAD 1782                jsr        [A5 + 0x1782 /* export_748, CODE:32 @ 00004E1E */]
000068F4  1C05                     move.b     D6, D5
000068F6  7000                     moveq.l    D0, 0x00
000068F8  1006                     move.b     D0, D6
000068FA  2F00                     move.l     -[A7], D0
000068FC  2F2B 0014                move.l     -[A7], [A3 + 0x14]
00006900  2F2E FFF0                move.l     -[A7], [A6 - 0x10]
00006904  2F0B                     move.l     -[A7], A3
00006906  4EAD 178A                jsr        [A5 + 0x178A /* export_749, CODE:32 @ 00004E80 */]
0000690A  2F2C 01D8                move.l     -[A7], [A4 + 0x1D8]
0000690E  4EAD 1F52                jsr        [A5 + 0x1F52 /* export_998, CODE:37 @ 000014C8 */]
00006912  7000                     moveq.l    D0, 0x00
00006914  204D                     movea.l    A0, A5
00006916  D1FC FFFE C3CC           add.l      A0, 0xFFFEC3CC
0000691C  1010                     move.b     D0, [A0]
0000691E  5240                     addq.w     D0, 1
00006920  48C0                     ext.l      D0
00006922  81FC 000C                divs.w     D0, 0xC
00006926  4840                     swap.w     D0
00006928  4880                     ext.w      D0
0000692A  3E00                     move.w     D7, D0
0000692C  206C 01DC                movea.l    A0, [A4 + 0x1DC]
00006930  47E8 01C4                lea.l      A3, [A0 + 0x1C4]
00006934  2007                     move.l     D0, D7
00006936  E540                     asl        D0.w, 2
00006938  204D                     movea.l    A0, A5
0000693A  D1FC FFFE C36C           add.l      A0, 0xFFFEC36C
00006940  2D70 0000 FFF4           move.l     [A6 - 0xC], [A0 + D0.w]
00006946  7A01                     moveq.l    D5, 0x01
00006948  2F0B                     move.l     -[A7], A3
0000694A  4EAD 1782                jsr        [A5 + 0x1782 /* export_748, CODE:32 @ 00004E1E */]
0000694E  1C05                     move.b     D6, D5
00006950  7000                     moveq.l    D0, 0x00
00006952  1006                     move.b     D0, D6
00006954  2F00                     move.l     -[A7], D0
00006956  2F2B 0014                move.l     -[A7], [A3 + 0x14]
0000695A  2F2E FFF4                move.l     -[A7], [A6 - 0xC]
0000695E  2F0B                     move.l     -[A7], A3
00006960  4EAD 178A                jsr        [A5 + 0x178A /* export_749, CODE:32 @ 00004E80 */]
00006964  2F2C 01DC                move.l     -[A7], [A4 + 0x1DC]
00006968  4EAD 1F52                jsr        [A5 + 0x1F52 /* export_998, CODE:37 @ 000014C8 */]
0000696C  7000                     moveq.l    D0, 0x00
0000696E  204D                     movea.l    A0, A5
00006970  D1FC FFFE C3CC           add.l      A0, 0xFFFEC3CC
00006976  1010                     move.b     D0, [A0]
00006978  5440                     addq.w     D0, 2
0000697A  48C0                     ext.l      D0
0000697C  81FC 000C                divs.w     D0, 0xC
00006980  4840                     swap.w     D0
00006982  4880                     ext.w      D0
00006984  3E00                     move.w     D7, D0
00006986  206C 01E0                movea.l    A0, [A4 + 0x1E0]
0000698A  47E8 01C4                lea.l      A3, [A0 + 0x1C4]
0000698E  2007                     move.l     D0, D7
00006990  E540                     asl        D0.w, 2
00006992  204D                     movea.l    A0, A5
00006994  D1FC FFFE C36C           add.l      A0, 0xFFFEC36C
0000699A  2D70 0000 FFF8           move.l     [A6 - 0x8], [A0 + D0.w]
000069A0  7A01                     moveq.l    D5, 0x01
000069A2  2F0B                     move.l     -[A7], A3
000069A4  4EAD 1782                jsr        [A5 + 0x1782 /* export_748, CODE:32 @ 00004E1E */]
000069A8  1C05                     move.b     D6, D5
000069AA  7000                     moveq.l    D0, 0x00
000069AC  1006                     move.b     D0, D6
000069AE  2F00                     move.l     -[A7], D0
000069B0  2F2B 0014                move.l     -[A7], [A3 + 0x14]
000069B4  2F2E FFF8                move.l     -[A7], [A6 - 0x8]
000069B8  2F0B                     move.l     -[A7], A3
000069BA  4EAD 178A                jsr        [A5 + 0x178A /* export_749, CODE:32 @ 00004E80 */]
000069BE  2F2C 01E0                move.l     -[A7], [A4 + 0x1E0]
000069C2  4EAD 1F52                jsr        [A5 + 0x1F52 /* export_998, CODE:37 @ 000014C8 */]
000069C6  7000                     moveq.l    D0, 0x00
000069C8  204D                     movea.l    A0, A5
000069CA  D1FC FFFD CEC6           add.l      A0, 0xFFFDCEC6
000069D0  3010                     move.w     D0, [A0]
000069D2  E588                     lsl        D0, 2
000069D4  204D                     movea.l    A0, A5
000069D6  D1FC FFFD CECA           add.l      A0, 0xFFFDCECA
000069DC  3E10                     move.w     D7, [A0]
000069DE  DE40                     add.w      D7, D0
000069E0  204D                     movea.l    A0, A5
000069E2  D1FC FFFE D844           add.l      A0, 0xFFFED844
000069E8  1010                     move.b     D0, [A0]
000069EA  4880                     ext.w      D0
000069EC  B047                     cmp.w      D0, D7
000069EE  6E04                     bgt        +0x6 /* 000069F4 */
000069F0  4247                     clr.w      D7
000069F2  6074                     bra        +0x76 /* 00006A68 */
label000069F4:
000069F4  0C47 000A                cmpi.w     D7, 0xA /* '\n' */
000069F8  6C04                     bge        +0x6 /* 000069FE */
000069FA  4247                     clr.w      D7
000069FC  606A                     bra        +0x6C /* 00006A68 */
label000069FE:
000069FE  204D                     movea.l    A0, A5
00006A00  D1FC FFFE D845           add.l      A0, 0xFFFED845
00006A06  1010                     move.b     D0, [A0]
00006A08  4880                     ext.w      D0
00006A0A  B047                     cmp.w      D0, D7
00006A0C  6E14                     bgt        +0x16 /* 00006A22 */
00006A0E  204D                     movea.l    A0, A5
00006A10  D1FC FFFE D846           add.l      A0, 0xFFFED846
00006A16  1010                     move.b     D0, [A0]
00006A18  4880                     ext.w      D0
00006A1A  B047                     cmp.w      D0, D7
00006A1C  6D04                     blt        +0x6 /* 00006A22 */
00006A1E  7E01                     moveq.l    D7, 0x01
00006A20  6046                     bra        +0x48 /* 00006A68 */
label00006A22:
00006A22  204D                     movea.l    A0, A5
00006A24  D1FC FFFE D846           add.l      A0, 0xFFFED846
00006A2A  1010                     move.b     D0, [A0]
00006A2C  4880                     ext.w      D0
00006A2E  B047                     cmp.w      D0, D7
00006A30  6C14                     bge        +0x16 /* 00006A46 */
00006A32  204D                     movea.l    A0, A5
00006A34  D1FC FFFE D847           add.l      A0, 0xFFFED847
00006A3A  1010                     move.b     D0, [A0]
00006A3C  4880                     ext.w      D0
00006A3E  B047                     cmp.w      D0, D7
00006A40  6D04                     blt        +0x6 /* 00006A46 */
00006A42  7E02                     moveq.l    D7, 0x02
00006A44  6022                     bra        +0x24 /* 00006A68 */
label00006A46:
00006A46  204D                     movea.l    A0, A5
00006A48  D1FC FFFE D847           add.l      A0, 0xFFFED847
00006A4E  1010                     move.b     D0, [A0]
00006A50  4880                     ext.w      D0
00006A52  B047                     cmp.w      D0, D7
00006A54  6C12                     bge        +0x14 /* 00006A68 */
00006A56  204D                     movea.l    A0, A5
00006A58  D1FC FFFE D848           add.l      A0, 0xFFFED848
00006A5E  1010                     move.b     D0, [A0]
00006A60  4880                     ext.w      D0
00006A62  B047                     cmp.w      D0, D7
00006A64  6D02                     blt        +0x4 /* 00006A68 */
00006A66  7E03                     moveq.l    D7, 0x03
label00006A68:
00006A68  206C 01E8                movea.l    A0, [A4 + 0x1E8]
00006A6C  4868 01C4                pea.l      [A0 + 0x1C4]
00006A70  4EAD 1782                jsr        [A5 + 0x1782 /* export_748, CODE:32 @ 00004E1E */]
00006A74  206C 01E8                movea.l    A0, [A4 + 0x1E8]
00006A78  47E8 01C4                lea.l      A3, [A0 + 0x1C4]
00006A7C  2007                     move.l     D0, D7
00006A7E  E540                     asl        D0.w, 2
00006A80  204D                     movea.l    A0, A5
00006A82  D1FC FFFE C33E           add.l      A0, 0xFFFEC33E
00006A88  2D70 0000 FFFC           move.l     [A6 - 0x4], [A0 + D0.w]
00006A8E  7A01                     moveq.l    D5, 0x01
00006A90  2F0B                     move.l     -[A7], A3
00006A92  4EAD 1782                jsr        [A5 + 0x1782 /* export_748, CODE:32 @ 00004E1E */]
00006A96  1C05                     move.b     D6, D5
00006A98  7000                     moveq.l    D0, 0x00
00006A9A  1006                     move.b     D0, D6
00006A9C  2F00                     move.l     -[A7], D0
00006A9E  2F2B 0014                move.l     -[A7], [A3 + 0x14]
00006AA2  2F2E FFFC                move.l     -[A7], [A6 - 0x4]
00006AA6  2F0B                     move.l     -[A7], A3
00006AA8  4EAD 178A                jsr        [A5 + 0x178A /* export_749, CODE:32 @ 00004E80 */]
00006AAC  206C 01E8                movea.l    A0, [A4 + 0x1E8]
00006AB0  47E8 01C4                lea.l      A3, [A0 + 0x1C4]
00006AB4  7000                     moveq.l    D0, 0x00
00006AB6  2F00                     move.l     -[A7], D0
00006AB8  2F2B 0014                move.l     -[A7], [A3 + 0x14]
00006ABC  204D                     movea.l    A0, A5
00006ABE  D1FC FFFF 3CA0           add.l      A0, 0xFFFF3CA0
00006AC4  4850                     pea.l      [A0]
00006AC6  2F0B                     move.l     -[A7], A3
00006AC8  4EAD 178A                jsr        [A5 + 0x178A /* export_749, CODE:32 @ 00004E80 */]
00006ACC  7000                     moveq.l    D0, 0x00
00006ACE  204D                     movea.l    A0, A5
00006AD0  D1FC FFFD CEC8           add.l      A0, 0xFFFDCEC8
00006AD6  3010                     move.w     D0, [A0]
00006AD8  7200                     moveq.l    D1, 0x00
00006ADA  204D                     movea.l    A0, A5
00006ADC  D1FC FFFE C3CC           add.l      A0, 0xFFFEC3CC
00006AE2  1210                     move.b     D1, [A0]
00006AE4  48C1                     ext.l      D1
00006AE6  83FC 000C                divs.w     D1, 0xC
00006AEA  48C1                     ext.l      D1
00006AEC  D280                     add.l      D1, D0
00006AEE  2F01                     move.l     -[A7], D1
00006AF0  206C 01E8                movea.l    A0, [A4 + 0x1E8]
00006AF4  4868 01C4                pea.l      [A0 + 0x1C4]
00006AF8  4EAD 17FA                jsr        [A5 + 0x17FA /* export_763, CODE:32 @ 000057BC */]
00006AFC  2F2C 01E8                move.l     -[A7], [A4 + 0x1E8]
00006B00  4EAD 1F52                jsr        [A5 + 0x1F52 /* export_998, CODE:37 @ 000014C8 */]
00006B04  2F0C                     move.l     -[A7], A4
00006B06  4EBA 003C                jsr        [PC + 0x3C /* 00006B44 */]
00006B0A  4CEE 18E0 FFD8           movem.l    D5,D6,D7,A3,A4, [A6 - 0x28]
00006B10  4E5E                     unlink     A6
00006B12  4E75                     rts
00006B14  802B 5365 7453 6372 6... dc.b       "SetScrollPosition__20cFieldScheduleWindowFv"
export_364:
fn00006B44:
00006B44  4E56 FEC2                link       A6, -0x013E
00006B48  48E7 1F18                movem.l    -[A7], D3,D4,D5,D6,D7,A3,A4
00006B4C  286E 0008                movea.l    A4, [A6 + 0x8]
00006B50  206C 01EC                movea.l    A0, [A4 + 0x1EC]
00006B54  2668 01DC                movea.l    A3, [A0 + 0x1DC]
00006B58  2053                     movea.l    A0, [A3]
00006B5A  43EE FF1C                lea.l      A1, [A6 - 0xE4]
00006B5E  5488                     addq.l     A0, 2
00006B60  22D8                     move.l     [A1]+, [A0]+
00006B62  22D8                     move.l     [A1]+, [A0]+
00006B64  7000                     moveq.l    D0, 0x00
00006B66  2F00                     move.l     -[A7], D0
00006B68  2F00                     move.l     -[A7], D0
00006B6A  486E FF24                pea.l      [A6 - 0xDC]
00006B6E  4EAD 15AA                jsr        [A5 + 0x15AA /* export_689, CODE:32 @ 0000234A */]
00006B72  2F3C 00FF 0000           move.l     -[A7], 0xFF0000
00006B78  7000                     moveq.l    D0, 0x00
00006B7A  2F00                     move.l     -[A7], D0
00006B7C  486E FF56                pea.l      [A6 - 0xAA]
00006B80  4EAD 15AA                jsr        [A5 + 0x15AA /* export_689, CODE:32 @ 0000234A */]
00006B84  2F3C 00FF FFFF           move.l     -[A7], 0xFFFFFF
00006B8A  7000                     moveq.l    D0, 0x00
00006B8C  2F00                     move.l     -[A7], D0
00006B8E  486E FF88                pea.l      [A6 - 0x78]
00006B92  4EAD 15AA                jsr        [A5 + 0x15AA /* export_689, CODE:32 @ 0000234A */]
00006B96  2F3C 00FF FF00           move.l     -[A7], 0xFFFF00
00006B9C  7000                     moveq.l    D0, 0x00
00006B9E  2F00                     move.l     -[A7], D0
00006BA0  486E FFBA                pea.l      [A6 - 0x46]
00006BA4  4EAD 15AA                jsr        [A5 + 0x15AA /* export_689, CODE:32 @ 0000234A */]
00006BA8  486E FF1C                pea.l      [A6 - 0xE4]
00006BAC  302E FF1E                move.w     D0, [A6 - 0xE2]
00006BB0  48C0                     ext.l      D0
00006BB2  4480                     neg.l      D0
00006BB4  3F00                     move.w     -[A7], D0
00006BB6  302E FF1C                move.w     D0, [A6 - 0xE4]
00006BBA  48C0                     ext.l      D0
00006BBC  4480                     neg.l      D0
00006BBE  3F00                     move.w     -[A7], D0
00006BC0  A8A8                     syscall    OffsetRect
00006BC2  2F0B                     move.l     -[A7], A3
00006BC4  2F0C                     move.l     -[A7], A4
00006BC6  4EAD 1262                jsr        [A5 + 0x1262 /* export_584, CODE:26 @ 000037FE */]
00006BCA  2F0C                     move.l     -[A7], A4
00006BCC  4EAD 11E2                jsr        [A5 + 0x11E2 /* export_568, CODE:26 @ 000031FA */]
00006BD0  2053                     movea.l    A0, [A3]
00006BD2  3028 0002                move.w     D0, [A0 + 0x2]
00006BD6  48C0                     ext.l      D0
00006BD8  4480                     neg.l      D0
00006BDA  2F00                     move.l     -[A7], D0
00006BDC  3028 0004                move.w     D0, [A0 + 0x4]
00006BE0  48C0                     ext.l      D0
00006BE2  4480                     neg.l      D0
00006BE4  2F00                     move.l     -[A7], D0
00006BE6  2F0C                     move.l     -[A7], A4
00006BE8  4EAD 1202                jsr        [A5 + 0x1202 /* export_572, CODE:26 @ 000033B8 */]
00006BEC  486E FFEE                pea.l      [A6 - 0x12]
00006BF0  A898                     syscall    GetPenState
00006BF2  A897                     syscall    ShowPen
00006BF4  486E FF24                pea.l      [A6 - 0xDC]
00006BF8  AA14                     syscall    RGBForeColor
00006BFA  7001                     moveq.l    D0, 0x01
00006BFC  3F00                     move.w     -[A7], D0
00006BFE  3F00                     move.w     -[A7], D0
00006C00  A89B                     syscall    PenSize
00006C02  486E FF88                pea.l      [A6 - 0x78]
00006C06  AA15                     syscall    RGBBackColor
00006C08  486E FF1C                pea.l      [A6 - 0xE4]
00006C0C  A8A3                     syscall    EraseRect
00006C0E  4247                     clr.w      D7
00006C10  4FEF 0048                lea.l      A7, [A7 + 0x48]
label00006C14:
00006C14  3F07                     move.w     -[A7], D7
00006C16  7000                     moveq.l    D0, 0x00
00006C18  3F00                     move.w     -[A7], D0
00006C1A  A893                     syscall    MoveTo
00006C1C  0C47 0040                cmpi.w     D7, 0x40 /* '@' */
00006C20  6706                     beq        +0x8 /* 00006C28 */
00006C22  0C47 0080                cmpi.w     D7, 0x80
00006C26  6616                     bne        +0x18 /* 00006C3E */
label00006C28:
00006C28  486E FFBA                pea.l      [A6 - 0x46]
00006C2C  AA14                     syscall    RGBForeColor
00006C2E  3F07                     move.w     -[A7], D7
00006C30  7004                     moveq.l    D0, 0x04
00006C32  3F00                     move.w     -[A7], D0
00006C34  A891                     syscall    LineTo
00006C36  486E FF24                pea.l      [A6 - 0xDC]
00006C3A  AA14                     syscall    RGBForeColor
00006C3C  6020                     bra        +0x22 /* 00006C5E */
label00006C3E:
00006C3E  3007                     move.w     D0, D7
00006C40  48C0                     ext.l      D0
00006C42  81FC 0010                divs.w     D0, 0x10
00006C46  4840                     swap.w     D0
00006C48  4A00                     tst.b      D0
00006C4A  660A                     bne        +0xC /* 00006C56 */
00006C4C  3F07                     move.w     -[A7], D7
00006C4E  7004                     moveq.l    D0, 0x04
00006C50  3F00                     move.w     -[A7], D0
00006C52  A891                     syscall    LineTo
00006C54  6008                     bra        +0xA /* 00006C5E */
label00006C56:
00006C56  3F07                     move.w     -[A7], D7
00006C58  7002                     moveq.l    D0, 0x02
00006C5A  3F00                     move.w     -[A7], D0
00006C5C  A891                     syscall    LineTo
label00006C5E:
00006C5E  5847                     addq.w     D7, 4
00006C60  0C47 00C0                cmpi.w     D7, 0xC0
00006C64  6DAE                     blt        -0x50 /* 00006C14 */
00006C66  3D7C 0010 FEC8           move.w     [A6 - 0x138], 0x10
00006C6C  3D7C 0010 FEC6           move.w     [A6 - 0x13A], 0x10
00006C72  42AE FEC2                clr.l      [A6 - 0x13E]
00006C76  206C 0084                movea.l    A0, [A4 + 0x84]
00006C7A  47E8 0002                lea.l      A3, [A0 + 0x2]
00006C7E  7000                     moveq.l    D0, 0x00
00006C80  2F00                     move.l     -[A7], D0
00006C82  2F00                     move.l     -[A7], D0
00006C84  7209                     moveq.l    D1, 0x09
00006C86  2F01                     move.l     -[A7], D1
00006C88  7003                     moveq.l    D0, 0x03
00006C8A  2F00                     move.l     -[A7], D0
00006C8C  7000                     moveq.l    D0, 0x00
00006C8E  2F00                     move.l     -[A7], D0
00006C90  2F00                     move.l     -[A7], D0
00006C92  486E FED2                pea.l      [A6 - 0x12E]
00006C96  4EAD 1922                jsr        [A5 + 0x1922 /* export_800, CODE:33 @ 00000FF6 */]
00006C9A  204D                     movea.l    A0, A5
00006C9C  D1FC FFFE C3CE           add.l      A0, 0xFFFEC3CE
00006CA2  4850                     pea.l      [A0]
00006CA4  7000                     moveq.l    D0, 0x00
00006CA6  204D                     movea.l    A0, A5
00006CA8  D1FC FFFE C3CC           add.l      A0, 0xFFFEC3CC
00006CAE  1010                     move.b     D0, [A0]
00006CB0  2F00                     move.l     -[A7], D0
00006CB2  4EAD 039A                jsr        [A5 + 0x39A /* export_111, CODE:6 @ 0000277A */]
00006CB6  4247                     clr.w      D7
00006CB8  4FEF 0024                lea.l      A7, [A7 + 0x24]
label00006CBC:
00006CBC  7C00                     moveq.l    D6, 0x00
00006CBE  204D                     movea.l    A0, A5
00006CC0  D1FC FFFE CFD2           add.l      A0, 0xFFFECFD2
00006CC6  1C10                     move.b     D6, [A0]
00006CC8  7062                     moveq.l    D0, 0x62
00006CCA  C1C7                     muls.w     D0, D7
00006CCC  D046                     add.w      D0, D6
00006CCE  D040                     add.w      D0, D0
00006CD0  204D                     movea.l    A0, A5
00006CD2  D1FC FFFE C3CC           add.l      A0, 0xFFFEC3CC
00006CD8  3A30 0000                move.w     D5, [A0 + D0.w]
00006CDC  3D47 FFEC                move.w     [A6 - 0x14], D7
00006CE0  7000                     moveq.l    D0, 0x00
00006CE2  204D                     movea.l    A0, A5
00006CE4  D1FC FFFE CFD2           add.l      A0, 0xFFFECFD2
00006CEA  1010                     move.b     D0, [A0]
00006CEC  3806                     move.w     D4, D6
00006CEE  9840                     sub.w      D4, D0
00006CF0  2006                     move.l     D0, D6
00006CF2  C1FC 0044                muls.w     D0, 0x44 /* 'D' */
00006CF6  204D                     movea.l    A0, A5
00006CF8  D1FC FFFD AFAE           add.l      A0, 0xFFFDAFAE
00006CFE  323C 0100                move.w     D1, 0x100
00006D02  C270 0006                and.w      D1, [A0 + D0.w + 0x6]
00006D06  6620                     bne        +0x22 /* 00006D28 */
00006D08  2F2C 0242                move.l     -[A7], [A4 + 0x242]
00006D0C  4878 00EB                push.l     0xEB
00006D10  224D                     movea.l    A1, A5
00006D12  D3FC FFFF 2042           add.l      A1, 0xFFFF2042
00006D18  2051                     movea.l    A0, [A1]
00006D1A  2F28 01E0                move.l     -[A7], [A0 + 0x1E0]
00006D1E  4EAD 06D2                jsr        [A5 + 0x6D2 /* export_214, CODE:12 @ 00002F34 */]
00006D22  4FEF 000C                lea.l      A7, [A7 + 0xC]
00006D26  6020                     bra        +0x22 /* 00006D48 */
label00006D28:
00006D28  2F2C 0242                move.l     -[A7], [A4 + 0x242]
00006D2C  7000                     moveq.l    D0, 0x00
00006D2E  3005                     move.w     D0, D5
00006D30  2F00                     move.l     -[A7], D0
00006D32  224D                     movea.l    A1, A5
00006D34  D3FC FFFF 2042           add.l      A1, 0xFFFF2042
00006D3A  2051                     movea.l    A0, [A1]
00006D3C  2F28 01E0                move.l     -[A7], [A0 + 0x1E0]
00006D40  4EAD 06D2                jsr        [A5 + 0x6D2 /* export_214, CODE:12 @ 00002F34 */]
00006D44  4FEF 000C                lea.l      A7, [A7 + 0xC]
label00006D48:
00006D48  48C7                     ext.l      D7
00006D4A  2007                     move.l     D0, D7
00006D4C  E988                     lsl        D0, 4
00006D4E  3D40 FECC                move.w     [A6 - 0x134], D0
00006D52  D07C 0010                add.w      D0, 0x10
00006D56  3D40 FED0                move.w     [A6 - 0x130], D0
00006D5A  3D7C 0006 FECA           move.w     [A6 - 0x136], 0x6
00006D60  302E FECA                move.w     D0, [A6 - 0x136]
00006D64  D07C 0010                add.w      D0, 0x10
00006D68  3D40 FECE                move.w     [A6 - 0x132], D0
00006D6C  206C 0242                movea.l    A0, [A4 + 0x242]
00006D70  2068 0018                movea.l    A0, [A0 + 0x18]
00006D74  4868 0002                pea.l      [A0 + 0x2]
00006D78  2F0B                     move.l     -[A7], A3
00006D7A  486E FEC2                pea.l      [A6 - 0x13E]
00006D7E  486E FECA                pea.l      [A6 - 0x136]
00006D82  7000                     moveq.l    D0, 0x00
00006D84  3F00                     move.w     -[A7], D0
00006D86  7200                     moveq.l    D1, 0x00
00006D88  2F01                     move.l     -[A7], D1
00006D8A  A8EC                     syscall    CopyBits
00006D8C  204D                     movea.l    A0, A5
00006D8E  D1FC FFFE C15C           add.l      A0, 0xFFFEC15C
00006D94  4A10                     tst.b      [A0]
00006D96  660E                     bne        +0x10 /* 00006DA6 */
00006D98  204D                     movea.l    A0, A5
00006D9A  D1FC FFFE C15A           add.l      A0, 0xFFFEC15A
00006DA0  4A10                     tst.b      [A0]
00006DA2  6700 00AA                beq        +0xAC /* 00006E4E */
label00006DA6:
00006DA6  204D                     movea.l    A0, A5
00006DA8  D1FC FFFE C15C           add.l      A0, 0xFFFEC15C
00006DAE  4A10                     tst.b      [A0]
00006DB0  672C                     beq        +0x2E /* 00006DDE */
00006DB2  7000                     moveq.l    D0, 0x00
00006DB4  204D                     movea.l    A0, A5
00006DB6  D1FC FFFE C3CC           add.l      A0, 0xFFFEC3CC
00006DBC  1010                     move.b     D0, [A0]
00006DBE  E588                     lsl        D0, 2
00006DC0  D047                     add.w      D0, D7
00006DC2  204D                     movea.l    A0, A5
00006DC4  D1FC FFFE D642           add.l      A0, 0xFFFED642
00006DCA  1030 0000                move.b     D0, [A0 + D0.w]
00006DCE  49C0                     lea.l      A4, D0
00006DD0  2F00                     move.l     -[A7], D0
00006DD2  486E FED2                pea.l      [A6 - 0x12E]
00006DD6  4EAD 17CA                jsr        [A5 + 0x17CA /* export_757, CODE:32 @ 00005476 */]
00006DDA  504F                     addq.w     A7, 8
00006DDC  602A                     bra        +0x2C /* 00006E08 */
label00006DDE:
00006DDE  7000                     moveq.l    D0, 0x00
00006DE0  204D                     movea.l    A0, A5
00006DE2  D1FC FFFE C3CC           add.l      A0, 0xFFFEC3CC
00006DE8  1010                     move.b     D0, [A0]
00006DEA  E588                     lsl        D0, 2
00006DEC  D047                     add.w      D0, D7
00006DEE  204D                     movea.l    A0, A5
00006DF0  D1FC FFFE D54E           add.l      A0, 0xFFFED54E
00006DF6  1030 0000                move.b     D0, [A0 + D0.w]
00006DFA  49C0                     lea.l      A4, D0
00006DFC  2F00                     move.l     -[A7], D0
00006DFE  486E FED2                pea.l      [A6 - 0x12E]
00006E02  4EAD 17CA                jsr        [A5 + 0x17CA /* export_757, CODE:32 @ 00005476 */]
00006E06  504F                     addq.w     A7, 8
label00006E08:
00006E08  486E FF88                pea.l      [A6 - 0x78]
00006E0C  AA14                     syscall    RGBForeColor
00006E0E  0807 0000                btst.b     D7, 0x0
00006E12  6710                     beq        +0x12 /* 00006E24 */
00006E14  486E FECA                pea.l      [A6 - 0x136]
00006E18  7000                     moveq.l    D0, 0x00
00006E1A  3F00                     move.w     -[A7], D0
00006E1C  7202                     moveq.l    D1, 0x02
00006E1E  3F01                     move.w     -[A7], D1
00006E20  A8A8                     syscall    OffsetRect
00006E22  600E                     bra        +0x10 /* 00006E32 */
label00006E24:
00006E24  486E FECA                pea.l      [A6 - 0x136]
00006E28  7000                     moveq.l    D0, 0x00
00006E2A  3F00                     move.w     -[A7], D0
00006E2C  72FF                     moveq.l    D1, 0xFFFFFFFF
00006E2E  3F01                     move.w     -[A7], D1
00006E30  A8A8                     syscall    OffsetRect
label00006E32:
00006E32  7000                     moveq.l    D0, 0x00
00006E34  2F00                     move.l     -[A7], D0
00006E36  2F00                     move.l     -[A7], D0
00006E38  486E FECA                pea.l      [A6 - 0x136]
00006E3C  486E FED2                pea.l      [A6 - 0x12E]
00006E40  4EAD 193A                jsr        [A5 + 0x193A /* export_803, CODE:33 @ 00001176 */]
00006E44  486E FF24                pea.l      [A6 - 0xDC]
00006E48  AA14                     syscall    RGBForeColor
00006E4A  4FEF 0010                lea.l      A7, [A7 + 0x10]
label00006E4E:
00006E4E  3007                     move.w     D0, D7
00006E50  5247                     addq.w     D7, 1
00006E52  0C47 000C                cmpi.w     D7, 0xC
00006E56  6D00 FE64                blt        -0x19A /* 00006CBC */
00006E5A  7000                     moveq.l    D0, 0x00
00006E5C  204D                     movea.l    A0, A5
00006E5E  D1FC FFFD CEC6           add.l      A0, 0xFFFDCEC6
00006E64  3010                     move.w     D0, [A0]
00006E66  7200                     moveq.l    D1, 0x00
00006E68  204D                     movea.l    A0, A5
00006E6A  D1FC FFFE C3CC           add.l      A0, 0xFFFEC3CC
00006E70  1210                     move.b     D1, [A0]
00006E72  B240                     cmp.w      D1, D0
00006E74  626C                     bhi        +0x6E /* 00006EE2 */
00006E76  7000                     moveq.l    D0, 0x00
00006E78  204D                     movea.l    A0, A5
00006E7A  D1FC FFFD CEC6           add.l      A0, 0xFFFDCEC6
00006E80  3010                     move.w     D0, [A0]
00006E82  7200                     moveq.l    D1, 0x00
00006E84  204D                     movea.l    A0, A5
00006E86  D1FC FFFE C3CC           add.l      A0, 0xFFFEC3CC
00006E8C  1210                     move.b     D1, [A0]
00006E8E  5641                     addq.w     D1, 3
00006E90  48C1                     ext.l      D1
00006E92  B240                     cmp.w      D1, D0
00006E94  634C                     bls        +0x4E /* 00006EE2 */
00006E96  486E FFBA                pea.l      [A6 - 0x46]
00006E9A  AA14                     syscall    RGBForeColor
00006E9C  7002                     moveq.l    D0, 0x02
00006E9E  3F00                     move.w     -[A7], D0
00006EA0  3F00                     move.w     -[A7], D0
00006EA2  A89B                     syscall    PenSize
00006EA4  7000                     moveq.l    D0, 0x00
00006EA6  204D                     movea.l    A0, A5
00006EA8  D1FC FFFD CEC6           add.l      A0, 0xFFFDCEC6
00006EAE  3010                     move.w     D0, [A0]
00006EB0  7200                     moveq.l    D1, 0x00
00006EB2  204D                     movea.l    A0, A5
00006EB4  D1FC FFFE C3CC           add.l      A0, 0xFFFEC3CC
00006EBA  1210                     move.b     D1, [A0]
00006EBC  9081                     sub.l      D0, D1
00006EBE  E588                     lsl        D0, 2
00006EC0  7200                     moveq.l    D1, 0x00
00006EC2  204D                     movea.l    A0, A5
00006EC4  D1FC FFFD CECA           add.l      A0, 0xFFFDCECA
00006ECA  3210                     move.w     D1, [A0]
00006ECC  D280                     add.l      D1, D0
00006ECE  2E01                     move.l     D7, D1
00006ED0  E98F                     lsl        D7, 4
00006ED2  3F07                     move.w     -[A7], D7
00006ED4  7005                     moveq.l    D0, 0x05
00006ED6  3F00                     move.w     -[A7], D0
00006ED8  A893                     syscall    MoveTo
00006EDA  3F07                     move.w     -[A7], D7
00006EDC  7015                     moveq.l    D0, 0x15
00006EDE  3F00                     move.w     -[A7], D0
00006EE0  A891                     syscall    LineTo
label00006EE2:
00006EE2  486E FF24                pea.l      [A6 - 0xDC]
00006EE6  AA14                     syscall    RGBForeColor
00006EE8  486E FFEE                pea.l      [A6 - 0x12]
00006EEC  A899                     syscall    SetPenState
00006EEE  2F0C                     move.l     -[A7], A4
00006EF0  4EAD 120A                jsr        [A5 + 0x120A /* export_573, CODE:26 @ 00003404 */]
00006EF4  2F0C                     move.l     -[A7], A4
00006EF6  4EAD 11EA                jsr        [A5 + 0x11EA /* export_569, CODE:26 @ 00003268 */]
00006EFA  7000                     moveq.l    D0, 0x00
00006EFC  2F00                     move.l     -[A7], D0
00006EFE  2F0C                     move.l     -[A7], A4
00006F00  4EAD 1282                jsr        [A5 + 0x1282 /* export_588, CODE:26 @ 00003A24 */]
00006F04  7002                     moveq.l    D0, 0x02
00006F06  2F00                     move.l     -[A7], D0
00006F08  486E FED2                pea.l      [A6 - 0x12E]
00006F0C  4EAD 192A                jsr        [A5 + 0x192A /* export_801, CODE:33 @ 00001084 */]
00006F10  7002                     moveq.l    D0, 0x02
00006F12  2F00                     move.l     -[A7], D0
00006F14  486E FFBA                pea.l      [A6 - 0x46]
00006F18  4EAD 15D2                jsr        [A5 + 0x15D2 /* export_694, CODE:32 @ 000029D6 */]
00006F1C  7002                     moveq.l    D0, 0x02
00006F1E  2F00                     move.l     -[A7], D0
00006F20  486E FF88                pea.l      [A6 - 0x78]
00006F24  4EAD 15D2                jsr        [A5 + 0x15D2 /* export_694, CODE:32 @ 000029D6 */]
00006F28  7002                     moveq.l    D0, 0x02
00006F2A  2F00                     move.l     -[A7], D0
00006F2C  486E FF56                pea.l      [A6 - 0xAA]
00006F30  4EAD 15D2                jsr        [A5 + 0x15D2 /* export_694, CODE:32 @ 000029D6 */]
00006F34  7002                     moveq.l    D0, 0x02
00006F36  2F00                     move.l     -[A7], D0
00006F38  486E FF24                pea.l      [A6 - 0xDC]
00006F3C  4EAD 15D2                jsr        [A5 + 0x15D2 /* export_694, CODE:32 @ 000029D6 */]
00006F40  4FEF 0038                lea.l      A7, [A7 + 0x38]
00006F44  4CEE 18F8 FEA6           movem.l    D3,D4,D5,D6,D7,A3,A4, [A6 - 0x15A]
00006F4A  4E5E                     unlink     A6
00006F4C  4E75                     rts
00006F4E  8031 5570 6461 7465 5... dc.b       "UpdateScrollBoxContents__20cFieldScheduleWindowFv"
export_365:
00006F84  4E56 0000                link       A6, 0
00006F88  48E7 1018                movem.l    -[A7], D3,A3,A4
00006F8C  266E 000C                movea.l    A3, [A6 + 0xC]
00006F90  286E 0008                movea.l    A4, [A6 + 0x8]
00006F94  200C                     move.l     D0, A4
00006F96  6612                     bne        +0x14 /* 00006FAA */
00006F98  4878 018C                push.l     0x18C
00006F9C  4EAD 010A                jsr        [A5 + 0x10A /* export_29, CODE:1 @ 00001C0A */]
00006FA0  2840                     movea.l    A4, D0
00006FA2  200C                     move.l     D0, A4
00006FA4  584F                     addq.w     A7, 4
00006FA6  6700 00CA                beq        +0xCC /* 00007072 */
label00006FAA:
00006FAA  200B                     move.l     D0, A3
00006FAC  57C3                     seq        D3
00006FAE  4403                     neg.b      D3
00006FB0  674E                     beq        +0x50 /* 00007000 */
00006FB2  264C                     movea.l    A3, A4
00006FB4  47EB 0180                lea.l      A3, [A3 + 0x180]
00006FB8  7601                     moveq.l    D3, 0x01
00006FBA  200C                     move.l     D0, A4
00006FBC  D0BC 0000 0180           add.l      D0, 0x180
00006FC2  6614                     bne        +0x16 /* 00006FD8 */
00006FC4  2F03                     move.l     -[A7], D3
00006FC6  700C                     moveq.l    D0, 0x0C
00006FC8  2F00                     move.l     -[A7], D0
00006FCA  4EAD 010A                jsr        [A5 + 0x10A /* export_29, CODE:1 @ 00001C0A */]
00006FCE  588F                     addq.l     A7, 4
00006FD0  261F                     move.l     D3, [A7]+
00006FD2  4A80                     tst.l      D0
00006FD4  6602                     bne        +0x4 /* 00006FD8 */
00006FD6  7600                     moveq.l    D3, 0x00
label00006FD8:
00006FD8  4A03                     tst.b      D3
00006FDA  6718                     beq        +0x1A /* 00006FF4 */
00006FDC  204D                     movea.l    A0, A5
00006FDE  D1FC FFFF 4AE6           add.l      A0, 0xFFFF4AE6
00006FE4  2950 0188                move.l     [A4 + 0x188], [A0]
00006FE8  7000                     moveq.l    D0, 0x00
00006FEA  2940 0180                move.l     [A4 + 0x180], D0
00006FEE  2940 0184                move.l     [A4 + 0x184], D0
00006FF2  6002                     bra        +0x4 /* 00006FF6 */
label00006FF4:
00006FF4  7000                     moveq.l    D0, 0x00
label00006FF6:
00006FF6  200C                     move.l     D0, A4
00006FF8  D0BC 0000 0180           add.l      D0, 0x180
00006FFE  6002                     bra        +0x4 /* 00007002 */
label00007000:
00007000  200B                     move.l     D0, A3
label00007002:
00007002  7000                     moveq.l    D0, 0x00
00007004  2F00                     move.l     -[A7], D0
00007006  2F3C 4D72 6B74           move.l     -[A7], 0x4D726B74 /* 'Mrkt' */
0000700C  2F2E 0010                move.l     -[A7], [A6 + 0x10]
00007010  2F0B                     move.l     -[A7], A3
00007012  2F0C                     move.l     -[A7], A4
00007014  4EAD 10AA                jsr        [A5 + 0x10AA /* export_529, CODE:26 @ 0000020E */]
00007018  204D                     movea.l    A0, A5
0000701A  D1FC FFFF 4AEA           add.l      A0, 0xFFFF4AEA
00007020  2950 0060                move.l     [A4 + 0x60], [A0]
00007024  206C 0064                movea.l    A0, [A4 + 0x64]
00007028  224D                     movea.l    A1, A5
0000702A  D3FC FFFF 4AEE           add.l      A1, 0xFFFF4AEE
00007030  2151 0008                move.l     [A0 + 0x8], [A1]
00007034  204D                     movea.l    A0, A5
00007036  D1FC FFFF 4AF2           add.l      A0, 0xFFFF4AF2
0000703C  2950 0070                move.l     [A4 + 0x70], [A0]
00007040  204D                     movea.l    A0, A5
00007042  D1FC FFFD CECA           add.l      A0, 0xFFFDCECA
00007048  3950 017C                move.w     [A4 + 0x17C], [A0]
0000704C  70FF                     moveq.l    D0, 0xFFFFFFFF
0000704E  2F00                     move.l     -[A7], D0
00007050  4878 0089                push.l     0x89
00007054  204C                     movea.l    A0, A4
00007056  226C 0060                movea.l    A1, [A4 + 0x60]
0000705A  D0E9 0068                add.w      A0, [A1 + 0x68]
0000705E  2F08                     move.l     -[A7], A0
00007060  2049                     movea.l    A0, A1
00007062  2268 006C                movea.l    A1, [A0 + 0x6C]
00007066  4E91                     jsr        [A1]
00007068  2F0C                     move.l     -[A7], A4
0000706A  4EBA 04F8                jsr        [PC + 0x4F8 /* 00007564 */]
0000706E  4FEF 0024                lea.l      A7, [A7 + 0x24]
label00007072:
00007072  200C                     move.l     D0, A4
00007074  4CEE 1808 FFF4           movem.l    D3,A3,A4, [A6 - 0xC]
0000707A  4E5E                     unlink     A6
0000707C  4E75                     rts
0000707E  8023 5F5F 6374 5F5F 3... dc.b       "__ct__18cMarketValueWindowFP6cAgent"
export_366:
000070A6  4E56 0000                link       A6, 0
000070AA  48E7 0108                movem.l    -[A7], D7,A4
000070AE  2E2E 000C                move.l     D7, [A6 + 0xC]
000070B2  286E 0008                movea.l    A4, [A6 + 0x8]
000070B6  200C                     move.l     D0, A4
000070B8  6766                     beq        +0x68 /* 00007120 */
000070BA  204D                     movea.l    A0, A5
000070BC  D1FC FFFF 4AF2           add.l      A0, 0xFFFF4AF2
000070C2  2950 0070                move.l     [A4 + 0x70], [A0]
000070C6  206C 0064                movea.l    A0, [A4 + 0x64]
000070CA  224D                     movea.l    A1, A5
000070CC  D3FC FFFF 4AEE           add.l      A1, 0xFFFF4AEE
000070D2  2151 0008                move.l     [A0 + 0x8], [A1]
000070D6  204D                     movea.l    A0, A5
000070D8  D1FC FFFF 4AEA           add.l      A0, 0xFFFF4AEA
000070DE  2950 0060                move.l     [A4 + 0x60], [A0]
000070E2  200C                     move.l     D0, A4
000070E4  673A                     beq        +0x3C /* 00007120 */
000070E6  7000                     moveq.l    D0, 0x00
000070E8  2F00                     move.l     -[A7], D0
000070EA  2F0C                     move.l     -[A7], A4
000070EC  4EAD 10B2                jsr        [A5 + 0x10B2 /* export_530, CODE:26 @ 000003EC */]
000070F0  7002                     moveq.l    D0, 0x02
000070F2  C087                     and.l      D0, D7
000070F4  6718                     beq        +0x1A /* 0000710E */
000070F6  7000                     moveq.l    D0, 0x00
000070F8  2F00                     move.l     -[A7], D0
000070FA  220C                     move.l     D1, A4
000070FC  D2BC 0000 0180           add.l      D1, 0x180
00007102  2F01                     move.l     -[A7], D1
00007104  4EAD 1632                jsr        [A5 + 0x1632 /* export_706, CODE:32 @ 000036CC */]
00007108  7000                     moveq.l    D0, 0x00
0000710A  504F                     addq.w     A7, 8
0000710C  6002                     bra        +0x4 /* 00007110 */
label0000710E:
0000710E  7000                     moveq.l    D0, 0x00
label00007110:
00007110  0807 0000                btst.b     D7, 0x0
00007114  504F                     addq.w     A7, 8
00007116  6708                     beq        +0xA /* 00007120 */
00007118  2F0C                     move.l     -[A7], A4
0000711A  4EAD 0102                jsr        [A5 + 0x102 /* export_28, CODE:1 @ 00001BE0 */]
0000711E  584F                     addq.w     A7, 4
label00007120:
00007120  4CEE 1080 FFF8           movem.l    D7,A4, [A6 - 0x8]
00007126  4E5E                     unlink     A6
00007128  4E75                     rts
0000712A  9C5F 5F64 745F 5F31 3... dc.b       "__dt__18cMarketValueWindowFv"
export_367:
0000714A  4E56 0000                link       A6, 0
0000714E  48E7 0318                movem.l    -[A7], D6,D7,A3,A4
00007152  2E2E 000C                move.l     D7, [A6 + 0xC]
00007156  286E 0008                movea.l    A4, [A6 + 0x8]
0000715A  2007                     move.l     D0, D7
0000715C  0480 436C 5761           subi.l     D0, 0x436C5761 /* 'ClWa' */
00007162  6714                     beq        +0x16 /* 00007178 */
00007164  0480 03D5 FCCF           subi.l     D0, 0x3D5FCCF
0000716A  6724                     beq        +0x26 /* 00007190 */
0000716C  0480 0000 0023           subi.l     D0, 0x23 /* '#' */
00007172  6746                     beq        +0x48 /* 000071BA */
00007174  6000 0084                bra        +0x86 /* 000071FA */
label00007178:
00007178  204C                     movea.l    A0, A4
0000717A  226C 0060                movea.l    A1, [A4 + 0x60]
0000717E  D0E9 0110                add.w      A0, [A1 + 0x110]
00007182  2F08                     move.l     -[A7], A0
00007184  2049                     movea.l    A0, A1
00007186  2268 0114                movea.l    A1, [A0 + 0x114]
0000718A  4E91                     jsr        [A1]
0000718C  584F                     addq.w     A7, 4
0000718E  606A                     bra        +0x6C /* 000071FA */
label00007190:
00007190  7004                     moveq.l    D0, 0x04
00007192  2F00                     move.l     -[A7], D0
00007194  2F0C                     move.l     -[A7], A4
00007196  4EAD 11FA                jsr        [A5 + 0x11FA /* export_571, CODE:26 @ 00003354 */]
0000719A  B0AE 0010                cmp.l      D0, [A6 + 0x10]
0000719E  504F                     addq.w     A7, 8
000071A0  666C                     bne        +0x6E /* 0000720E */
000071A2  204C                     movea.l    A0, A4
000071A4  226C 0060                movea.l    A1, [A4 + 0x60]
000071A8  D0E9 0078                add.w      A0, [A1 + 0x78]
000071AC  2F08                     move.l     -[A7], A0
000071AE  2049                     movea.l    A0, A1
000071B0  2268 007C                movea.l    A1, [A0 + 0x7C]
000071B4  4E91                     jsr        [A1]
000071B6  584F                     addq.w     A7, 4
000071B8  6054                     bra        +0x56 /* 0000720E */
label000071BA:
000071BA  7002                     moveq.l    D0, 0x02
000071BC  2F00                     move.l     -[A7], D0
000071BE  2F0C                     move.l     -[A7], A4
000071C0  4EAD 11FA                jsr        [A5 + 0x11FA /* export_571, CODE:26 @ 00003354 */]
000071C4  B0AE 0010                cmp.l      D0, [A6 + 0x10]
000071C8  504F                     addq.w     A7, 8
000071CA  6642                     bne        +0x44 /* 0000720E */
000071CC  2F2E 0014                move.l     -[A7], [A6 + 0x14]
000071D0  2F2C 016C                move.l     -[A7], [A4 + 0x16C]
000071D4  4EAD 0CB2                jsr        [A5 + 0xCB2 /* export_402, CODE:20 @ 00000320 */]
000071D8  2F0C                     move.l     -[A7], A4
000071DA  4EBA 0388                jsr        [PC + 0x388 /* 00007564 */]
000071DE  266C 0170                movea.l    A3, [A4 + 0x170]
000071E2  206C 016C                movea.l    A0, [A4 + 0x16C]
000071E6  3C28 013A                move.w     D6, [A0 + 0x13A]
000071EA  3746 0136                move.w     [A3 + 0x136], D6
000071EE  2F0B                     move.l     -[A7], A3
000071F0  4EAD 1F52                jsr        [A5 + 0x1F52 /* export_998, CODE:37 @ 000014C8 */]
000071F4  4FEF 0010                lea.l      A7, [A7 + 0x10]
000071F8  6014                     bra        +0x16 /* 0000720E */
label000071FA:
000071FA  2F2E 0014                move.l     -[A7], [A6 + 0x14]
000071FE  2F2E 0010                move.l     -[A7], [A6 + 0x10]
00007202  2F07                     move.l     -[A7], D7
00007204  2F0C                     move.l     -[A7], A4
00007206  4EAD 118A                jsr        [A5 + 0x118A /* export_557, CODE:26 @ 000021AC */]
0000720A  4FEF 0010                lea.l      A7, [A7 + 0x10]
label0000720E:
0000720E  4CEE 18C0 FFF0           movem.l    D6,D7,A3,A4, [A6 - 0x10]
00007214  4E5E                     unlink     A6
00007216  4E75                     rts
00007218  8030 4861 7342 6565 6... dc.b       "HasBeenAChange__18cMarketValueWindowFlP6cAgentPc"
export_368:
0000724C  4E56 0000                link       A6, 0
00007250  48E7 0108                movem.l    -[A7], D7,A4
00007254  1E2E 000F                move.b     D7, [A6 + 0xF]
00007258  286E 0008                movea.l    A4, [A6 + 0x8]
0000725C  4A07                     tst.b      D7
0000725E  6710                     beq        +0x12 /* 00007270 */
00007260  2F0C                     move.l     -[A7], A4
00007262  4EBA 0300                jsr        [PC + 0x300 /* 00007564 */]
00007266  2F2C 0170                move.l     -[A7], [A4 + 0x170]
0000726A  4EAD 1F52                jsr        [A5 + 0x1F52 /* export_998, CODE:37 @ 000014C8 */]
0000726E  504F                     addq.w     A7, 8
label00007270:
00007270  7000                     moveq.l    D0, 0x00
00007272  1007                     move.b     D0, D7
00007274  2F00                     move.l     -[A7], D0
00007276  2F0C                     move.l     -[A7], A4
00007278  4EAD 1102                jsr        [A5 + 0x1102 /* export_540, CODE:26 @ 00001A56 */]
0000727C  504F                     addq.w     A7, 8
0000727E  4CEE 1080 FFF8           movem.l    D7,A4, [A6 - 0x8]
00007284  4E5E                     unlink     A6
00007286  4E75                     rts
00007288  8021 4163 7469 7661 7... dc.b       "Activate__18cMarketValueWindowFUc"
export_369:
000072AE  4E56 0000                link       A6, 0
000072B2  2F0C                     move.l     -[A7], A4
000072B4  286E 0008                movea.l    A4, [A6 + 0x8]
000072B8  204C                     movea.l    A0, A4
000072BA  226C 0060                movea.l    A1, [A4 + 0x60]
000072BE  D0E9 0110                add.w      A0, [A1 + 0x110]
000072C2  2F08                     move.l     -[A7], A0
000072C4  2049                     movea.l    A0, A1
000072C6  2268 0114                movea.l    A1, [A0 + 0x114]
000072CA  4E91                     jsr        [A1]
000072CC  2F0C                     move.l     -[A7], A4
000072CE  2F3C 574E 4435           move.l     -[A7], 0x574E4435 /* 'WND5' */
000072D4  204C                     movea.l    A0, A4
000072D6  226C 0060                movea.l    A1, [A4 + 0x60]
000072DA  D0E9 0060                add.w      A0, [A1 + 0x60]
000072DE  2F08                     move.l     -[A7], A0
000072E0  2049                     movea.l    A0, A1
000072E2  2268 0064                movea.l    A1, [A0 + 0x64]
000072E6  4E91                     jsr        [A1]
000072E8  7001                     moveq.l    D0, 0x01
000072EA  286E FFFC                movea.l    A4, [A6 - 0x4]
000072EE  4E5E                     unlink     A6
000072F0  4E75                     rts
000072F2  9D43 6C6F 7365 5F5F 3... dc.b       "Close__18cMarketValueWindowFv"
export_370:
00007312  4E56 0000                link       A6, 0
00007316  2F0C                     move.l     -[A7], A4
00007318  286E 0008                movea.l    A4, [A6 + 0x8]
0000731C  7000                     moveq.l    D0, 0x00
0000731E  204D                     movea.l    A0, A5
00007320  D1FC FFFD CECA           add.l      A0, 0xFFFDCECA
00007326  3010                     move.w     D0, [A0]
00007328  322C 017C                move.w     D1, [A4 + 0x17C]
0000732C  48C1                     ext.l      D1
0000732E  B081                     cmp.l      D0, D1
00007330  672C                     beq        +0x2E /* 0000735E */
00007332  206C 0084                movea.l    A0, [A4 + 0x84]
00007336  7000                     moveq.l    D0, 0x00
00007338  1028 006E                move.b     D0, [A0 + 0x6E]
0000733C  0C40 0001                cmpi.w     D0, 0x1
00007340  661C                     bne        +0x1E /* 0000735E */
00007342  204D                     movea.l    A0, A5
00007344  D1FC FFFD CECA           add.l      A0, 0xFFFDCECA
0000734A  3950 017C                move.w     [A4 + 0x17C], [A0]
0000734E  2F0C                     move.l     -[A7], A4
00007350  4EBA 0212                jsr        [PC + 0x212 /* 00007564 */]
00007354  2F2C 0170                move.l     -[A7], [A4 + 0x170]
00007358  4EAD 1F52                jsr        [A5 + 0x1F52 /* export_998, CODE:37 @ 000014C8 */]
0000735C  504F                     addq.w     A7, 8
label0000735E:
0000735E  286E FFFC                movea.l    A4, [A6 - 0x4]
00007362  4E5E                     unlink     A6
00007364  4E75                     rts
00007366  8021 4E75 6C6C 4576 6... dc.b       "NullEvent__18cMarketValueWindowFv"
export_371:
0000738C  4E56 0000                link       A6, 0
00007390  48E7 0018                movem.l    -[A7], A3,A4
00007394  266E 0010                movea.l    A3, [A6 + 0x10]
00007398  286E 0008                movea.l    A4, [A6 + 0x8]
0000739C  302E 000E                move.w     D0, [A6 + 0xE]
000073A0  5340                     subq.w     D0, 1
000073A2  6B00 011E                bmi        +0x120 /* 000074C2 */
000073A6  0C40 0004                cmpi.w     D0, 0x4
000073AA  6E00 0116                bgt        +0x118 /* 000074C2 */
000073AE  D040                     add.w      D0, D0
000073B0  303B 0006                move.w     D0, [PC + D0.w + 0x6]
000073B4  4EFB 0000                jmp        [PC + D0.w]
000073B8  000C 0040                ori.b      A4, 0x40 /* '@' */
000073BC  0074 010C 00C2           ori.w      [A4 + D0.w - 0x3E], 0x10C
000073C2  2F0B                     move.l     -[A7], A3
000073C4  2F0C                     move.l     -[A7], A4
000073C6  2F0C                     move.l     -[A7], A4
000073C8  7000                     moveq.l    D0, 0x00
000073CA  2F00                     move.l     -[A7], D0
000073CC  2F00                     move.l     -[A7], D0
000073CE  4EBA 02F0                jsr        [PC + 0x2F0 /* 000076C0 */]
000073D2  2940 0170                move.l     [A4 + 0x170], D0
000073D6  670C                     beq        +0xE /* 000073E4 */
000073D8  202C 0170                move.l     D0, [A4 + 0x170]
000073DC  D0BC 0000 0080           add.l      D0, 0x80
000073E2  6002                     bra        +0x4 /* 000073E6 */
label000073E4:
000073E4  7000                     moveq.l    D0, 0x00
label000073E6:
000073E6  2F00                     move.l     -[A7], D0
000073E8  2F0C                     move.l     -[A7], A4
000073EA  4EAD 11F2                jsr        [A5 + 0x11F2 /* export_570, CODE:26 @ 000032DA */]
000073EE  4FEF 001C                lea.l      A7, [A7 + 0x1C]
000073F2  6000 00CE                bra        +0xD0 /* 000074C2 */
000073F6  2F0B                     move.l     -[A7], A3
000073F8  2F0C                     move.l     -[A7], A4
000073FA  2F0C                     move.l     -[A7], A4
000073FC  7000                     moveq.l    D0, 0x00
000073FE  2F00                     move.l     -[A7], D0
00007400  2F00                     move.l     -[A7], D0
00007402  4EAD 0CA2                jsr        [A5 + 0xCA2 /* export_400, CODE:20 @ 00000000 */]
00007406  2940 016C                move.l     [A4 + 0x16C], D0
0000740A  670C                     beq        +0xE /* 00007418 */
0000740C  202C 016C                move.l     D0, [A4 + 0x16C]
00007410  D0BC 0000 0080           add.l      D0, 0x80
00007416  6002                     bra        +0x4 /* 0000741A */
label00007418:
00007418  7000                     moveq.l    D0, 0x00
label0000741A:
0000741A  2F00                     move.l     -[A7], D0
0000741C  2F0C                     move.l     -[A7], A4
0000741E  4EAD 11F2                jsr        [A5 + 0x11F2 /* export_570, CODE:26 @ 000032DA */]
00007422  4FEF 001C                lea.l      A7, [A7 + 0x1C]
00007426  6000 009A                bra        +0x9C /* 000074C2 */
0000742A  7000                     moveq.l    D0, 0x00
0000742C  2F00                     move.l     -[A7], D0
0000742E  7201                     moveq.l    D1, 0x01
00007430  2F01                     move.l     -[A7], D1
00007432  7009                     moveq.l    D0, 0x09
00007434  2F00                     move.l     -[A7], D0
00007436  7003                     moveq.l    D0, 0x03
00007438  2F00                     move.l     -[A7], D0
0000743A  7000                     moveq.l    D0, 0x00
0000743C  2F00                     move.l     -[A7], D0
0000743E  2F00                     move.l     -[A7], D0
00007440  7002                     moveq.l    D0, 0x02
00007442  2F00                     move.l     -[A7], D0
00007444  2F00                     move.l     -[A7], D0
00007446  2F0B                     move.l     -[A7], A3
00007448  2F0C                     move.l     -[A7], A4
0000744A  2F0C                     move.l     -[A7], A4
0000744C  7000                     moveq.l    D0, 0x00
0000744E  2F00                     move.l     -[A7], D0
00007450  2F00                     move.l     -[A7], D0
00007452  4EAD 016A                jsr        [A5 + 0x16A /* export_41, CODE:1 @ 00002828 */]
00007456  2940 0178                move.l     [A4 + 0x178], D0
0000745A  670C                     beq        +0xE /* 00007468 */
0000745C  202C 0178                move.l     D0, [A4 + 0x178]
00007460  D0BC 0000 0080           add.l      D0, 0x80
00007466  6002                     bra        +0x4 /* 0000746A */
label00007468:
00007468  7000                     moveq.l    D0, 0x00
label0000746A:
0000746A  2F00                     move.l     -[A7], D0
0000746C  2F0C                     move.l     -[A7], A4
0000746E  4EAD 11F2                jsr        [A5 + 0x11F2 /* export_570, CODE:26 @ 000032DA */]
00007472  4FEF 003C                lea.l      A7, [A7 + 0x3C]
00007476  604A                     bra        +0x4C /* 000074C2 */
00007478  7001                     moveq.l    D0, 0x01
0000747A  2F00                     move.l     -[A7], D0
0000747C  2F00                     move.l     -[A7], D0
0000747E  7209                     moveq.l    D1, 0x09
00007480  2F01                     move.l     -[A7], D1
00007482  7003                     moveq.l    D0, 0x03
00007484  2F00                     move.l     -[A7], D0
00007486  7000                     moveq.l    D0, 0x00
00007488  2F00                     move.l     -[A7], D0
0000748A  2F00                     move.l     -[A7], D0
0000748C  7002                     moveq.l    D0, 0x02
0000748E  2F00                     move.l     -[A7], D0
00007490  2F00                     move.l     -[A7], D0
00007492  2F0B                     move.l     -[A7], A3
00007494  2F0C                     move.l     -[A7], A4
00007496  2F0C                     move.l     -[A7], A4
00007498  7000                     moveq.l    D0, 0x00
0000749A  2F00                     move.l     -[A7], D0
0000749C  2F00                     move.l     -[A7], D0
0000749E  4EAD 016A                jsr        [A5 + 0x16A /* export_41, CODE:1 @ 00002828 */]
000074A2  2940 0174                move.l     [A4 + 0x174], D0
000074A6  670C                     beq        +0xE /* 000074B4 */
000074A8  202C 0174                move.l     D0, [A4 + 0x174]
000074AC  D0BC 0000 0080           add.l      D0, 0x80
000074B2  6002                     bra        +0x4 /* 000074B6 */
label000074B4:
000074B4  7000                     moveq.l    D0, 0x00
label000074B6:
000074B6  2F00                     move.l     -[A7], D0
000074B8  2F0C                     move.l     -[A7], A4
000074BA  4EAD 11F2                jsr        [A5 + 0x11F2 /* export_570, CODE:26 @ 000032DA */]
000074BE  4FEF 003C                lea.l      A7, [A7 + 0x3C]
label000074C2:
000074C2  4CEE 1800 FFF8           movem.l    A3,A4, [A6 - 0x8]
000074C8  4E5E                     unlink     A6
000074CA  4E75                     rts
000074CC  8029 4E65 7755 7365 7... dc.b       "NewUserItem__18cMarketValueWindowFsR4Rect"
export_372:
000074FA  4E56 0000                link       A6, 0
000074FE  2F0C                     move.l     -[A7], A4
00007500  286E 0008                movea.l    A4, [A6 + 0x8]
00007504  2F0C                     move.l     -[A7], A4
00007506  4EBA 005C                jsr        [PC + 0x5C /* 00007564 */]
0000750A  4AAC 016C                tst.l      [A4 + 0x16C]
0000750E  584F                     addq.w     A7, 4
00007510  670A                     beq        +0xC /* 0000751C */
00007512  2F2C 016C                move.l     -[A7], [A4 + 0x16C]
00007516  4EAD 1F52                jsr        [A5 + 0x1F52 /* export_998, CODE:37 @ 000014C8 */]
0000751A  584F                     addq.w     A7, 4
label0000751C:
0000751C  4AAC 0170                tst.l      [A4 + 0x170]
00007520  670A                     beq        +0xC /* 0000752C */
00007522  2F2C 0170                move.l     -[A7], [A4 + 0x170]
00007526  4EAD 1F52                jsr        [A5 + 0x1F52 /* export_998, CODE:37 @ 000014C8 */]
0000752A  584F                     addq.w     A7, 4
label0000752C:
0000752C  286E FFFC                movea.l    A4, [A6 - 0x4]
00007530  4E5E                     unlink     A6
00007532  4E75                     rts
00007534  802B 5265 6672 6573 6... dc.b       "RefreshMarketWindow__18cMarketValueWindowFv"
fn00007564:
00007564  4E56 FFFC                link       A6, -0x0004
00007568  48E7 0318                movem.l    -[A7], D6,D7,A3,A4
0000756C  286E 0008                movea.l    A4, [A6 + 0x8]
00007570  206C 016C                movea.l    A0, [A4 + 0x16C]
00007574  3E28 013A                move.w     D7, [A0 + 0x13A]
00007578  206C 0178                movea.l    A0, [A4 + 0x178]
0000757C  47E8 01C4                lea.l      A3, [A0 + 0x1C4]
00007580  2F0B                     move.l     -[A7], A3
00007582  4EAD 1782                jsr        [A5 + 0x1782 /* export_748, CODE:32 @ 00004E1E */]
00007586  4206                     clr.b      D6
00007588  7000                     moveq.l    D0, 0x00
0000758A  1006                     move.b     D0, D6
0000758C  2F00                     move.l     -[A7], D0
0000758E  2F2B 0014                move.l     -[A7], [A3 + 0x14]
00007592  204D                     movea.l    A0, A5
00007594  D1FC FFFF 4AC0           add.l      A0, 0xFFFF4AC0
0000759A  4850                     pea.l      [A0]
0000759C  2F0B                     move.l     -[A7], A3
0000759E  4EAD 178A                jsr        [A5 + 0x178A /* export_749, CODE:32 @ 00004E80 */]
000075A2  206C 0178                movea.l    A0, [A4 + 0x178]
000075A6  47E8 01C4                lea.l      A3, [A0 + 0x1C4]
000075AA  2007                     move.l     D0, D7
000075AC  EF40                     asl        D0.w, 7
000075AE  204D                     movea.l    A0, A5
000075B0  D1FC FFFD CED4           add.l      A0, 0xFFFDCED4
000075B6  D0C0                     add.w      A0, D0
000075B8  2D48 FFFC                move.l     [A6 - 0x4], A0
000075BC  7001                     moveq.l    D0, 0x01
000075BE  2F00                     move.l     -[A7], D0
000075C0  2F2B 0014                move.l     -[A7], [A3 + 0x14]
000075C4  2F08                     move.l     -[A7], A0
000075C6  2F0B                     move.l     -[A7], A3
000075C8  4EAD 178A                jsr        [A5 + 0x178A /* export_749, CODE:32 @ 00004E80 */]
000075CC  206C 0178                movea.l    A0, [A4 + 0x178]
000075D0  47E8 01C4                lea.l      A3, [A0 + 0x1C4]
000075D4  7000                     moveq.l    D0, 0x00
000075D6  2F00                     move.l     -[A7], D0
000075D8  2F2B 0014                move.l     -[A7], [A3 + 0x14]
000075DC  204D                     movea.l    A0, A5
000075DE  D1FC FFFF 4AC8           add.l      A0, 0xFFFF4AC8
000075E4  4850                     pea.l      [A0]
000075E6  2F0B                     move.l     -[A7], A3
000075E8  4EAD 178A                jsr        [A5 + 0x178A /* export_749, CODE:32 @ 00004E80 */]
000075EC  2007                     move.l     D0, D7
000075EE  C1FC 0012                muls.w     D0, 0x12
000075F2  204D                     movea.l    A0, A5
000075F4  D1FC FFFE 9C5E           add.l      A0, 0xFFFE9C5E
000075FA  7200                     moveq.l    D1, 0x00
000075FC  3230 0006                move.w     D1, [A0 + D0.w + 0x6]
00007600  4A81                     tst.l      D1
00007602  4C7C 1801 0000 000A      divu.l     D2:D0, 0x18010000
0000760A  2007                     move.l     D0, D7
0000760C  EF40                     asl        D0.w, 7
0000760E  204D                     movea.l    A0, A5
00007610  D1FC FFFD CED4           add.l      A0, 0xFFFDCED4
00007616  7400                     moveq.l    D2, 0x00
00007618  3430 0020                move.w     D2, [A0 + D0.w + 0x20]
0000761C  4A82                     tst.l      D2
0000761E  4C01 2800                muls.l     D2, D1
00007622  2F02                     move.l     -[A7], D2
00007624  206C 0178                movea.l    A0, [A4 + 0x178]
00007628  4868 01C4                pea.l      [A0 + 0x1C4]
0000762C  4EAD 17FA                jsr        [A5 + 0x17FA /* export_763, CODE:32 @ 000057BC */]
00007630  2F2C 0178                move.l     -[A7], [A4 + 0x178]
00007634  4EAD 1F52                jsr        [A5 + 0x1F52 /* export_998, CODE:37 @ 000014C8 */]
00007638  206C 0174                movea.l    A0, [A4 + 0x174]
0000763C  47E8 01C4                lea.l      A3, [A0 + 0x1C4]
00007640  2F0B                     move.l     -[A7], A3
00007642  4EAD 1782                jsr        [A5 + 0x1782 /* export_748, CODE:32 @ 00004E1E */]
00007646  4206                     clr.b      D6
00007648  7000                     moveq.l    D0, 0x00
0000764A  1006                     move.b     D0, D6
0000764C  2F00                     move.l     -[A7], D0
0000764E  2F2B 0014                move.l     -[A7], [A3 + 0x14]
00007652  204D                     movea.l    A0, A5
00007654  D1FC FFFF 4AD4           add.l      A0, 0xFFFF4AD4
0000765A  4850                     pea.l      [A0]
0000765C  2F0B                     move.l     -[A7], A3
0000765E  4EAD 178A                jsr        [A5 + 0x178A /* export_749, CODE:32 @ 00004E80 */]
00007662  2007                     move.l     D0, D7
00007664  C1FC 0012                muls.w     D0, 0x12
00007668  204D                     movea.l    A0, A5
0000766A  D1FC FFFE 9C5E           add.l      A0, 0xFFFE9C5E
00007670  7200                     moveq.l    D1, 0x00
00007672  3230 0004                move.w     D1, [A0 + D0.w + 0x4]
00007676  2F01                     move.l     -[A7], D1
00007678  206C 0174                movea.l    A0, [A4 + 0x174]
0000767C  4868 01C4                pea.l      [A0 + 0x1C4]
00007680  4EAD 17FA                jsr        [A5 + 0x17FA /* export_763, CODE:32 @ 000057BC */]
00007684  2F2C 0174                move.l     -[A7], [A4 + 0x174]
00007688  4EAD 1F52                jsr        [A5 + 0x1F52 /* export_998, CODE:37 @ 000014C8 */]
0000768C  4CEE 18C0 FFEC           movem.l    D6,D7,A3,A4, [A6 - 0x14]
00007692  4E5E                     unlink     A6
00007694  4E75                     rts
00007696  8026 5570 6461 7465 4... dc.b       "UpdateCropInfo__18cMarketValueWindowFv"
fn000076C0:
000076C0  4E56 0000                link       A6, 0
000076C4  48E7 1018                movem.l    -[A7], D3,A3,A4
000076C8  266E 000C                movea.l    A3, [A6 + 0xC]
000076CC  286E 0008                movea.l    A4, [A6 + 0x8]
000076D0  200C                     move.l     D0, A4
000076D2  6612                     bne        +0x14 /* 000076E6 */
000076D4  4878 0144                push.l     0x144
000076D8  4EAD 010A                jsr        [A5 + 0x10A /* export_29, CODE:1 @ 00001C0A */]
000076DC  2840                     movea.l    A4, D0
000076DE  200C                     move.l     D0, A4
000076E0  584F                     addq.w     A7, 4
000076E2  6700 00B2                beq        +0xB4 /* 00007796 */
label000076E6:
000076E6  200B                     move.l     D0, A3
000076E8  57C3                     seq        D3
000076EA  4403                     neg.b      D3
000076EC  674E                     beq        +0x50 /* 0000773C */
000076EE  264C                     movea.l    A3, A4
000076F0  47EB 0138                lea.l      A3, [A3 + 0x138]
000076F4  7601                     moveq.l    D3, 0x01
000076F6  200C                     move.l     D0, A4
000076F8  D0BC 0000 0138           add.l      D0, 0x138
000076FE  6614                     bne        +0x16 /* 00007714 */
00007700  2F03                     move.l     -[A7], D3
00007702  700C                     moveq.l    D0, 0x0C
00007704  2F00                     move.l     -[A7], D0
00007706  4EAD 010A                jsr        [A5 + 0x10A /* export_29, CODE:1 @ 00001C0A */]
0000770A  588F                     addq.l     A7, 4
0000770C  261F                     move.l     D3, [A7]+
0000770E  4A80                     tst.l      D0
00007710  6602                     bne        +0x4 /* 00007714 */
00007712  7600                     moveq.l    D3, 0x00
label00007714:
00007714  4A03                     tst.b      D3
00007716  6718                     beq        +0x1A /* 00007730 */
00007718  204D                     movea.l    A0, A5
0000771A  D1FC FFFF 4AE6           add.l      A0, 0xFFFF4AE6
00007720  2950 0140                move.l     [A4 + 0x140], [A0]
00007724  7000                     moveq.l    D0, 0x00
00007726  2940 0138                move.l     [A4 + 0x138], D0
0000772A  2940 013C                move.l     [A4 + 0x13C], D0
0000772E  6002                     bra        +0x4 /* 00007732 */
label00007730:
00007730  7000                     moveq.l    D0, 0x00
label00007732:
00007732  200C                     move.l     D0, A4
00007734  D0BC 0000 0138           add.l      D0, 0x138
0000773A  6002                     bra        +0x4 /* 0000773E */
label0000773C:
0000773C  200B                     move.l     D0, A3
label0000773E:
0000773E  7000                     moveq.l    D0, 0x00
00007740  2F00                     move.l     -[A7], D0
00007742  2F00                     move.l     -[A7], D0
00007744  2F00                     move.l     -[A7], D0
00007746  2F2E 0018                move.l     -[A7], [A6 + 0x18]
0000774A  2F2E 0014                move.l     -[A7], [A6 + 0x14]
0000774E  2F2E 0010                move.l     -[A7], [A6 + 0x10]
00007752  2F0B                     move.l     -[A7], A3
00007754  2F0C                     move.l     -[A7], A4
00007756  4EAD 019A                jsr        [A5 + 0x19A /* export_47, CODE:1 @ 00002D3A */]
0000775A  204D                     movea.l    A0, A5
0000775C  D1FC FFFF 4AF6           add.l      A0, 0xFFFF4AF6
00007762  2950 0060                move.l     [A4 + 0x60], [A0]
00007766  204D                     movea.l    A0, A5
00007768  D1FC FFFF 4AFA           add.l      A0, 0xFFFF4AFA
0000776E  2950 0088                move.l     [A4 + 0x88], [A0]
00007772  204D                     movea.l    A0, A5
00007774  D1FC FFFF 4AFE           add.l      A0, 0xFFFF4AFE
0000777A  2950 0070                move.l     [A4 + 0x70], [A0]
0000777E  206C 0064                movea.l    A0, [A4 + 0x64]
00007782  224D                     movea.l    A1, A5
00007784  D3FC FFFF 4B02           add.l      A1, 0xFFFF4B02
0000778A  2151 0008                move.l     [A0 + 0x8], [A1]
0000778E  426C 0136                clr.w      [A4 + 0x136]
00007792  4FEF 0020                lea.l      A7, [A7 + 0x20]
label00007796:
00007796  200C                     move.l     D0, A4
00007798  4CEE 1808 FFF4           movem.l    D3,A3,A4, [A6 - 0xC]
0000779E  4E5E                     unlink     A6
000077A0  4E75                     rts
000077A2  8032 5F5F 6374 5F5F 3... dc.b       "__ct__18cMarketHistoryItemFP6cAgentP7cWindowR4Rect"
export_373:
000077D8  4E56 0000                link       A6, 0
000077DC  48E7 0108                movem.l    -[A7], D7,A4
000077E0  2E2E 000C                move.l     D7, [A6 + 0xC]
000077E4  286E 0008                movea.l    A4, [A6 + 0x8]
000077E8  200C                     move.l     D0, A4
000077EA  6772                     beq        +0x74 /* 0000785E */
000077EC  206C 0064                movea.l    A0, [A4 + 0x64]
000077F0  224D                     movea.l    A1, A5
000077F2  D3FC FFFF 4B02           add.l      A1, 0xFFFF4B02
000077F8  2151 0008                move.l     [A0 + 0x8], [A1]
000077FC  204D                     movea.l    A0, A5
000077FE  D1FC FFFF 4AFE           add.l      A0, 0xFFFF4AFE
00007804  2950 0070                move.l     [A4 + 0x70], [A0]
00007808  204D                     movea.l    A0, A5
0000780A  D1FC FFFF 4AFA           add.l      A0, 0xFFFF4AFA
00007810  2950 0088                move.l     [A4 + 0x88], [A0]
00007814  204D                     movea.l    A0, A5
00007816  D1FC FFFF 4AF6           add.l      A0, 0xFFFF4AF6
0000781C  2950 0060                move.l     [A4 + 0x60], [A0]
00007820  200C                     move.l     D0, A4
00007822  673A                     beq        +0x3C /* 0000785E */
00007824  7000                     moveq.l    D0, 0x00
00007826  2F00                     move.l     -[A7], D0
00007828  2F0C                     move.l     -[A7], A4
0000782A  4EAD 01A2                jsr        [A5 + 0x1A2 /* export_48, CODE:1 @ 00002EC4 */]
0000782E  7002                     moveq.l    D0, 0x02
00007830  C087                     and.l      D0, D7
00007832  6718                     beq        +0x1A /* 0000784C */
00007834  7000                     moveq.l    D0, 0x00
00007836  2F00                     move.l     -[A7], D0
00007838  220C                     move.l     D1, A4
0000783A  D2BC 0000 0138           add.l      D1, 0x138
00007840  2F01                     move.l     -[A7], D1
00007842  4EAD 1632                jsr        [A5 + 0x1632 /* export_706, CODE:32 @ 000036CC */]
00007846  7000                     moveq.l    D0, 0x00
00007848  504F                     addq.w     A7, 8
0000784A  6002                     bra        +0x4 /* 0000784E */
label0000784C:
0000784C  7000                     moveq.l    D0, 0x00
label0000784E:
0000784E  0807 0000                btst.b     D7, 0x0
00007852  504F                     addq.w     A7, 8
00007854  6708                     beq        +0xA /* 0000785E */
00007856  2F0C                     move.l     -[A7], A4
00007858  4EAD 0102                jsr        [A5 + 0x102 /* export_28, CODE:1 @ 00001BE0 */]
0000785C  584F                     addq.w     A7, 4
label0000785E:
0000785E  4CEE 1080 FFF8           movem.l    D7,A4, [A6 - 0x8]
00007864  4E5E                     unlink     A6
00007866  4E75                     rts
00007868  9C5F 5F64 745F 5F31 3... dc.b       "__dt__18cMarketHistoryItemFv"
export_374:
00007888  4E56 FEE8                link       A6, -0x0118
0000788C  48E7 1F18                movem.l    -[A7], D3,D4,D5,D6,D7,A3,A4
00007890  286E 0008                movea.l    A4, [A6 + 0x8]
00007894  7000                     moveq.l    D0, 0x00
00007896  2F00                     move.l     -[A7], D0
00007898  2F00                     move.l     -[A7], D0
0000789A  486E FEEC                pea.l      [A6 - 0x114]
0000789E  4EAD 15AA                jsr        [A5 + 0x15AA /* export_689, CODE:32 @ 0000234A */]
000078A2  2F3C 00FF 0000           move.l     -[A7], 0xFF0000
000078A8  7000                     moveq.l    D0, 0x00
000078AA  2F00                     move.l     -[A7], D0
000078AC  486E FF1E                pea.l      [A6 - 0xE2]
000078B0  4EAD 15AA                jsr        [A5 + 0x15AA /* export_689, CODE:32 @ 0000234A */]
000078B4  2F3C 00FF FFFF           move.l     -[A7], 0xFFFFFF
000078BA  7000                     moveq.l    D0, 0x00
000078BC  2F00                     move.l     -[A7], D0
000078BE  486E FF50                pea.l      [A6 - 0xB0]
000078C2  4EAD 15AA                jsr        [A5 + 0x15AA /* export_689, CODE:32 @ 0000234A */]
000078C6  2F3C 00FF FF00           move.l     -[A7], 0xFFFF00
000078CC  7000                     moveq.l    D0, 0x00
000078CE  2F00                     move.l     -[A7], D0
000078D0  486E FF82                pea.l      [A6 - 0x7E]
000078D4  4EAD 15AA                jsr        [A5 + 0x15AA /* export_689, CODE:32 @ 0000234A */]
000078D8  7000                     moveq.l    D0, 0x00
000078DA  2F00                     move.l     -[A7], D0
000078DC  486E FFB4                pea.l      [A6 - 0x4C]
000078E0  4EAD 15BA                jsr        [A5 + 0x15BA /* export_691, CODE:32 @ 000025FA */]
000078E4  41EE FFF8                lea.l      A0, [A6 - 0x8]
000078E8  43EC 0090                lea.l      A1, [A4 + 0x90]
000078EC  20D9                     move.l     [A0]+, [A1]+
000078EE  20D9                     move.l     [A0]+, [A1]+
000078F0  486E FFF8                pea.l      [A6 - 0x8]
000078F4  302E FFFA                move.w     D0, [A6 - 0x6]
000078F8  48C0                     ext.l      D0
000078FA  4480                     neg.l      D0
000078FC  3F00                     move.w     -[A7], D0
000078FE  302E FFF8                move.w     D0, [A6 - 0x8]
00007902  48C0                     ext.l      D0
00007904  4480                     neg.l      D0
00007906  3F00                     move.w     -[A7], D0
00007908  A8A8                     syscall    OffsetRect
0000790A  486E FFE6                pea.l      [A6 - 0x1A]
0000790E  A898                     syscall    GetPenState
00007910  A897                     syscall    ShowPen
00007912  266C 0112                movea.l    A3, [A4 + 0x112]
00007916  41EB 009C                lea.l      A0, [A3 + 0x9C]
0000791A  43EE FFB4                lea.l      A1, [A6 - 0x4C]
0000791E  22D8                     move.l     [A1]+, [A0]+
00007920  32D8                     move.w     [A1]+, [A0]+
00007922  486E FFB4                pea.l      [A6 - 0x4C]
00007926  AA15                     syscall    RGBBackColor
00007928  486E FFF8                pea.l      [A6 - 0x8]
0000792C  A8A3                     syscall    EraseRect
0000792E  486E FF1E                pea.l      [A6 - 0xE2]
00007932  AA14                     syscall    RGBForeColor
00007934  7004                     moveq.l    D0, 0x04
00007936  3F00                     move.w     -[A7], D0
00007938  7201                     moveq.l    D1, 0x01
0000793A  3F01                     move.w     -[A7], D1
0000793C  A89B                     syscall    PenSize
0000793E  4244                     clr.w      D4
00007940  4FEF 0038                lea.l      A7, [A7 + 0x38]
00007944  6000 00CE                bra        +0xD0 /* 00007A14 */
label00007948:
00007948  4247                     clr.w      D7
0000794A  302C 0136                move.w     D0, [A4 + 0x136]
0000794E  C1FC 003C                muls.w     D0, 0x3C /* '<' */
00007952  204D                     movea.l    A0, A5
00007954  D1FC FFFD C9B8           add.l      A0, 0xFFFDC9B8
0000795A  2204                     move.l     D1, D4
0000795C  D241                     add.w      D1, D1
0000795E  D240                     add.w      D1, D0
00007960  3D70 1000 FEEA           move.w     [A6 - 0x116], [A0 + D1.w]
00007966  302C 0136                move.w     D0, [A4 + 0x136]
0000796A  EF40                     asl        D0.w, 7
0000796C  204D                     movea.l    A0, A5
0000796E  D1FC FFFD CED4           add.l      A0, 0xFFFDCED4
00007974  3C30 0022                move.w     D6, [A0 + D0.w + 0x22]
00007978  3A06                     move.w     D5, D6
0000797A  E64D                     lsr        D5.w, 3
0000797C  7000                     moveq.l    D0, 0x00
0000797E  3005                     move.w     D0, D5
00007980  4A80                     tst.l      D0
00007982  6602                     bne        +0x4 /* 00007986 */
00007984  7A01                     moveq.l    D5, 0x01
label00007986:
00007986  BC6E FEEA                cmp.w      D6, [A6 - 0x116]
0000798A  641E                     bcc        +0x20 /* 000079AA */
0000798C  7000                     moveq.l    D0, 0x00
0000798E  302E FEEA                move.w     D0, [A6 - 0x116]
00007992  7200                     moveq.l    D1, 0x00
00007994  3206                     move.w     D1, D6
00007996  9081                     sub.l      D0, D1
00007998  7200                     moveq.l    D1, 0x00
0000799A  3205                     move.w     D1, D5
0000799C  4A81                     tst.l      D1
0000799E  4C41 0800                divs.l     D0:D0, D1
000079A2  2E00                     move.l     D7, D0
000079A4  7010                     moveq.l    D0, 0x10
000079A6  DE80                     add.l      D7, D0
000079A8  601A                     bra        +0x1C /* 000079C4 */
label000079AA:
000079AA  7000                     moveq.l    D0, 0x00
000079AC  3006                     move.w     D0, D6
000079AE  7200                     moveq.l    D1, 0x00
000079B0  322E FEEA                move.w     D1, [A6 - 0x116]
000079B4  9081                     sub.l      D0, D1
000079B6  7200                     moveq.l    D1, 0x00
000079B8  3205                     move.w     D1, D5
000079BA  4A81                     tst.l      D1
000079BC  4C41 0800                divs.l     D0:D0, D1
000079C0  7E10                     moveq.l    D7, 0x10
000079C2  9E80                     sub.l      D7, D0
label000079C4:
000079C4  7000                     moveq.l    D0, 0x00
000079C6  3007                     move.w     D0, D7
000079C8  E580                     asl        D0, 2
000079CA  3E00                     move.w     D7, D0
000079CC  7000                     moveq.l    D0, 0x00
000079CE  3007                     move.w     D0, D7
000079D0  0C40 0004                cmpi.w     D0, 0x4
000079D4  6404                     bcc        +0x6 /* 000079DA */
000079D6  7E04                     moveq.l    D7, 0x04
000079D8  600C                     bra        +0xE /* 000079E6 */
label000079DA:
000079DA  7000                     moveq.l    D0, 0x00
000079DC  3007                     move.w     D0, D7
000079DE  0C40 0080                cmpi.w     D0, 0x80
000079E2  6302                     bls        +0x4 /* 000079E6 */
000079E4  7E60                     moveq.l    D7, 0x60
label000079E6:
000079E6  7000                     moveq.l    D0, 0x00
000079E8  3007                     move.w     D0, D7
000079EA  223C 0000 0080           move.l     D1, 0x80
000079F0  9280                     sub.l      D1, D0
000079F2  3E01                     move.w     D7, D1
000079F4  3004                     move.w     D0, D4
000079F6  48C0                     ext.l      D0
000079F8  E580                     asl        D0, 2
000079FA  3D40 FEE8                move.w     [A6 - 0x118], D0
000079FE  3F2E FEE8                move.w     -[A7], [A6 - 0x118]
00007A02  3F3C 0080                move.w     -[A7], 0x80
00007A06  A893                     syscall    MoveTo
00007A08  3F2E FEE8                move.w     -[A7], [A6 - 0x118]
00007A0C  3F07                     move.w     -[A7], D7
00007A0E  A891                     syscall    LineTo
00007A10  3004                     move.w     D0, D4
00007A12  5244                     addq.w     D4, 1
label00007A14:
00007A14  0C44 001E                cmpi.w     D4, 0x1E
00007A18  6D00 FF2E                blt        -0xD0 /* 00007948 */
00007A1C  486E FEEC                pea.l      [A6 - 0x114]
00007A20  AA14                     syscall    RGBForeColor
00007A22  7001                     moveq.l    D0, 0x01
00007A24  3F00                     move.w     -[A7], D0
00007A26  3F00                     move.w     -[A7], D0
00007A28  A89B                     syscall    PenSize
00007A2A  4247                     clr.w      D7
label00007A2C:
00007A2C  3F07                     move.w     -[A7], D7
00007A2E  7000                     moveq.l    D0, 0x00
00007A30  3F00                     move.w     -[A7], D0
00007A32  A893                     syscall    MoveTo
00007A34  3F07                     move.w     -[A7], D7
00007A36  3F3C 0080                move.w     -[A7], 0x80
00007A3A  A891                     syscall    LineTo
00007A3C  3007                     move.w     D0, D7
00007A3E  48C0                     ext.l      D0
00007A40  81FC 0014                divs.w     D0, 0x14
00007A44  4840                     swap.w     D0
00007A46  4A00                     tst.b      D0
00007A48  6610                     bne        +0x12 /* 00007A5A */
00007A4A  3F07                     move.w     -[A7], D7
00007A4C  3F3C 0082                move.w     -[A7], 0x82
00007A50  A893                     syscall    MoveTo
00007A52  3F07                     move.w     -[A7], D7
00007A54  3F3C 0080                move.w     -[A7], 0x80
00007A58  A891                     syscall    LineTo
label00007A5A:
00007A5A  5847                     addq.w     D7, 4
00007A5C  0C47 0080                cmpi.w     D7, 0x80
00007A60  6DCA                     blt        -0x34 /* 00007A2C */
00007A62  4247                     clr.w      D7
label00007A64:
00007A64  7000                     moveq.l    D0, 0x00
00007A66  3F00                     move.w     -[A7], D0
00007A68  3F07                     move.w     -[A7], D7
00007A6A  A893                     syscall    MoveTo
00007A6C  7078                     moveq.l    D0, 0x78
00007A6E  3F00                     move.w     -[A7], D0
00007A70  3F07                     move.w     -[A7], D7
00007A72  A891                     syscall    LineTo
00007A74  5847                     addq.w     D7, 4
00007A76  0C47 0084                cmpi.w     D7, 0x84
00007A7A  6DE8                     blt        -0x16 /* 00007A64 */
00007A7C  486E FF82                pea.l      [A6 - 0x7E]
00007A80  AA14                     syscall    RGBForeColor
00007A82  7003                     moveq.l    D0, 0x03
00007A84  3F00                     move.w     -[A7], D0
00007A86  3F00                     move.w     -[A7], D0
00007A88  A89B                     syscall    PenSize
00007A8A  7000                     moveq.l    D0, 0x00
00007A8C  3F00                     move.w     -[A7], D0
00007A8E  7240                     moveq.l    D1, 0x40
00007A90  3F01                     move.w     -[A7], D1
00007A92  A893                     syscall    MoveTo
00007A94  7077                     moveq.l    D0, 0x77
00007A96  3F00                     move.w     -[A7], D0
00007A98  7240                     moveq.l    D1, 0x40
00007A9A  3F01                     move.w     -[A7], D1
00007A9C  A891                     syscall    LineTo
00007A9E  486E FFE6                pea.l      [A6 - 0x1A]
00007AA2  A899                     syscall    SetPenState
00007AA4  7002                     moveq.l    D0, 0x02
00007AA6  2F00                     move.l     -[A7], D0
00007AA8  486E FFB4                pea.l      [A6 - 0x4C]
00007AAC  4EAD 15D2                jsr        [A5 + 0x15D2 /* export_694, CODE:32 @ 000029D6 */]
00007AB0  7002                     moveq.l    D0, 0x02
00007AB2  2F00                     move.l     -[A7], D0
00007AB4  486E FF82                pea.l      [A6 - 0x7E]
00007AB8  4EAD 15D2                jsr        [A5 + 0x15D2 /* export_694, CODE:32 @ 000029D6 */]
00007ABC  7002                     moveq.l    D0, 0x02
00007ABE  2F00                     move.l     -[A7], D0
00007AC0  486E FF50                pea.l      [A6 - 0xB0]
00007AC4  4EAD 15D2                jsr        [A5 + 0x15D2 /* export_694, CODE:32 @ 000029D6 */]
00007AC8  7002                     moveq.l    D0, 0x02
00007ACA  2F00                     move.l     -[A7], D0
00007ACC  486E FF1E                pea.l      [A6 - 0xE2]
00007AD0  4EAD 15D2                jsr        [A5 + 0x15D2 /* export_694, CODE:32 @ 000029D6 */]
00007AD4  7002                     moveq.l    D0, 0x02
00007AD6  2F00                     move.l     -[A7], D0
00007AD8  486E FEEC                pea.l      [A6 - 0x114]
00007ADC  4EAD 15D2                jsr        [A5 + 0x15D2 /* export_694, CODE:32 @ 000029D6 */]
00007AE0  4FEF 0028                lea.l      A7, [A7 + 0x28]
00007AE4  4CEE 18F8 FECC           movem.l    D3,D4,D5,D6,D7,A3,A4, [A6 - 0x134]
00007AEA  4E5E                     unlink     A6
00007AEC  4E75                     rts
00007AEE  8027 4472 6177 496E 7... dc.b       "DrawIntoNotepad__18cMarketHistoryItemFv"
