# near model CODE resource
# jump table entries: 2256-2272 (17 of them)
export_282:
00000000  4E56 0000                link       A6, 0
00000004  48E7 0300                movem.l    -[A7], D6,D7
00000008  3E2E 000A                move.w     D7, [A6 + 0xA]
0000000C  2007                     move.l     D0, D7
0000000E  48C0                     ext.l      D0
00000010  E588                     lsl        D0, 2
00000012  2200                     move.l     D1, D0
00000014  E588                     lsl        D0, 2
00000016  D081                     add.l      D0, D1
00000018  204D                     movea.l    A0, A5
0000001A  D1FC FFFE 8AF0           add.l      A0, 0xFFFE8AF0
00000020  720E                     moveq.l    D1, 0x0E
00000022  3030 0008                move.w     D0, [A0 + D0.w + 0x8]
00000026  E268                     lsr        D0.w, D1
00000028  7203                     moveq.l    D1, 0x03
0000002A  9240                     sub.w      D1, D0
0000002C  206E 000C                movea.l    A0, [A6 + 0xC]
00000030  3081                     move.w     [A0], D1
00000032  2007                     move.l     D0, D7
00000034  48C0                     ext.l      D0
00000036  E588                     lsl        D0, 2
00000038  2200                     move.l     D1, D0
0000003A  E588                     lsl        D0, 2
0000003C  D081                     add.l      D0, D1
0000003E  204D                     movea.l    A0, A5
00000040  D1FC FFFE 8AF0           add.l      A0, 0xFFFE8AF0
00000046  3C30 0000                move.w     D6, [A0 + D0.w]
0000004A  48C6                     ext.l      D6
0000004C  2006                     move.l     D0, D6
0000004E  C1FC 0012                muls.w     D0, 0x12
00000052  204D                     movea.l    A0, A5
00000054  D1FC FFFE 8A04           add.l      A0, 0xFFFE8A04
0000005A  3E30 0006                move.w     D7, [A0 + D0.w + 0x6]
0000005E  3007                     move.w     D0, D7
00000060  4CEE 00C0 FFF8           movem.l    D6,D7, [A6 - 0x8]
00000066  4E5E                     unlink     A6
00000068  4E75                     rts
0000006A  9367 6574 7370 7261 7... dc.b       "getsprayvalue__FsPs"
export_283:
00000080  4E56 0000                link       A6, 0
00000084  48E7 1F00                movem.l    -[A7], D3,D4,D5,D6,D7
00000088  382E 0012                move.w     D4, [A6 + 0x12]
0000008C  3A2E 000E                move.w     D5, [A6 + 0xE]
00000090  3C2E 000A                move.w     D6, [A6 + 0xA]
00000094  7E01                     moveq.l    D7, 0x01
00000096  767F                     moveq.l    D3, 0x7F
label00000098:
00000098  2007                     move.l     D0, D7
0000009A  48C0                     ext.l      D0
0000009C  E588                     lsl        D0, 2
0000009E  2200                     move.l     D1, D0
000000A0  E588                     lsl        D0, 2
000000A2  D081                     add.l      D0, D1
000000A4  204D                     movea.l    A0, A5
000000A6  D1FC FFFE 8AF0           add.l      A0, 0xFFFE8AF0
000000AC  7220                     moveq.l    D1, 0x20
000000AE  C270 0002                and.w      D1, [A0 + D0.w + 0x2]
000000B2  6600 0104                bne        +0x106 /* 000001B8 */
000000B6  204D                     movea.l    A0, A5
000000B8  D1FC FFFE 8AEE           add.l      A0, 0xFFFE8AEE
000000BE  5250                     addq.w     [A0], 1
000000C0  2007                     move.l     D0, D7
000000C2  48C0                     ext.l      D0
000000C4  E588                     lsl        D0, 2
000000C6  2200                     move.l     D1, D0
000000C8  E588                     lsl        D0, 2
000000CA  D081                     add.l      D0, D1
000000CC  204D                     movea.l    A0, A5
000000CE  D1FC FFFE 8AF0           add.l      A0, 0xFFFE8AF0
000000D4  3184 0000                move.w     [A0 + D0.w], D4
000000D8  2007                     move.l     D0, D7
000000DA  48C0                     ext.l      D0
000000DC  E588                     lsl        D0, 2
000000DE  2200                     move.l     D1, D0
000000E0  E588                     lsl        D0, 2
000000E2  D081                     add.l      D0, D1
000000E4  204D                     movea.l    A0, A5
000000E6  D1FC FFFE 8AF0           add.l      A0, 0xFFFE8AF0
000000EC  4270 0002                clr.w      [A0 + D0.w + 0x2]
000000F0  2007                     move.l     D0, D7
000000F2  48C0                     ext.l      D0
000000F4  E588                     lsl        D0, 2
000000F6  2200                     move.l     D1, D0
000000F8  E588                     lsl        D0, 2
000000FA  D081                     add.l      D0, D1
000000FC  204D                     movea.l    A0, A5
000000FE  D1FC FFFE 8AF0           add.l      A0, 0xFFFE8AF0
00000104  1186 0005                move.b     [A0 + D0.w + 0x5], D6
00000108  2007                     move.l     D0, D7
0000010A  48C0                     ext.l      D0
0000010C  E588                     lsl        D0, 2
0000010E  2200                     move.l     D1, D0
00000110  E588                     lsl        D0, 2
00000112  D081                     add.l      D0, D1
00000114  204D                     movea.l    A0, A5
00000116  D1FC FFFE 8AF0           add.l      A0, 0xFFFE8AF0
0000011C  1185 0006                move.b     [A0 + D0.w + 0x6], D5
00000120  2007                     move.l     D0, D7
00000122  48C0                     ext.l      D0
00000124  E588                     lsl        D0, 2
00000126  2200                     move.l     D1, D0
00000128  E588                     lsl        D0, 2
0000012A  D081                     add.l      D0, D1
0000012C  204D                     movea.l    A0, A5
0000012E  D1FC FFFE 8AF0           add.l      A0, 0xFFFE8AF0
00000134  4270 0008                clr.w      [A0 + D0.w + 0x8]
00000138  2007                     move.l     D0, D7
0000013A  48C0                     ext.l      D0
0000013C  E588                     lsl        D0, 2
0000013E  2200                     move.l     D1, D0
00000140  E588                     lsl        D0, 2
00000142  D081                     add.l      D0, D1
00000144  204D                     movea.l    A0, A5
00000146  D1FC FFFE 8AF0           add.l      A0, 0xFFFE8AF0
0000014C  4230 0004                clr.b      [A0 + D0.w + 0x4]
00000150  2007                     move.l     D0, D7
00000152  48C0                     ext.l      D0
00000154  E588                     lsl        D0, 2
00000156  2200                     move.l     D1, D0
00000158  E588                     lsl        D0, 2
0000015A  D081                     add.l      D0, D1
0000015C  204D                     movea.l    A0, A5
0000015E  D1FC FFFE 8AF0           add.l      A0, 0xFFFE8AF0
00000164  4270 0010                clr.w      [A0 + D0.w + 0x10]
00000168  2007                     move.l     D0, D7
0000016A  48C0                     ext.l      D0
0000016C  E588                     lsl        D0, 2
0000016E  2200                     move.l     D1, D0
00000170  E588                     lsl        D0, 2
00000172  D081                     add.l      D0, D1
00000174  204D                     movea.l    A0, A5
00000176  D1FC FFFE 8AF0           add.l      A0, 0xFFFE8AF0
0000017C  4270 000E                clr.w      [A0 + D0.w + 0xE]
00000180  2007                     move.l     D0, D7
00000182  48C0                     ext.l      D0
00000184  E588                     lsl        D0, 2
00000186  2200                     move.l     D1, D0
00000188  E588                     lsl        D0, 2
0000018A  D081                     add.l      D0, D1
0000018C  204D                     movea.l    A0, A5
0000018E  D1FC FFFE 8AF0           add.l      A0, 0xFFFE8AF0
00000194  0070 0020 0002           ori.w      [A0 + D0.w + 0x2], 0x20 /* ' ' */
0000019A  2007                     move.l     D0, D7
0000019C  48C0                     ext.l      D0
0000019E  E588                     lsl        D0, 2
000001A0  2200                     move.l     D1, D0
000001A2  E588                     lsl        D0, 2
000001A4  D081                     add.l      D0, D1
000001A6  204D                     movea.l    A0, A5
000001A8  D1FC FFFE 8AF0           add.l      A0, 0xFFFE8AF0
000001AE  31BC 0018 0012           move.w     [A0 + D0.w + 0x12], 0x18
000001B4  3007                     move.w     D0, D7
000001B6  600A                     bra        +0xC /* 000001C2 */
label000001B8:
000001B8  3007                     move.w     D0, D7
000001BA  5247                     addq.w     D7, 1
000001BC  B647                     cmp.w      D3, D7
000001BE  6E00 FED8                bgt        -0x126 /* 00000098 */
label000001C2:
000001C2  4CEE 00F8 FFEC           movem.l    D3,D4,D5,D6,D7, [A6 - 0x14]
000001C8  4E5E                     unlink     A6
000001CA  4E75                     rts
000001CC  9263 7265 6174 6573 7... dc.b       "createspray__FsN21"
export_284:
000001E2  4E56 0000                link       A6, 0
000001E6  302E 000A                move.w     D0, [A6 + 0xA]
000001EA  48C0                     ext.l      D0
000001EC  E588                     lsl        D0, 2
000001EE  2200                     move.l     D1, D0
000001F0  E588                     lsl        D0, 2
000001F2  D081                     add.l      D0, D1
000001F4  204D                     movea.l    A0, A5
000001F6  D1FC FFFE 8AF0           add.l      A0, 0xFFFE8AF0
000001FC  0270 FFDF 0002           andi.w     [A0 + D0.w + 0x2], 0xFFDF
00000202  204D                     movea.l    A0, A5
00000204  D1FC FFFE 8AEE           add.l      A0, 0xFFFE8AEE
0000020A  5350                     subq.w     [A0], 1
0000020C  4E5E                     unlink     A6
0000020E  4E75                     rts
00000210  8D66 7265 6573 7072 6... dc.b       "freespray__Fs"
export_285:
00000220  4E56 0000                link       A6, 0
00000224  48E7 0F00                movem.l    -[A7], D4,D5,D6,D7
00000228  382E 000E                move.w     D4, [A6 + 0xE]
0000022C  3A2E 000A                move.w     D5, [A6 + 0xA]
00000230  4246                     clr.w      D6
00000232  7E01                     moveq.l    D7, 0x01
00000234  6062                     bra        +0x64 /* 00000298 */
label00000236:
00000236  2007                     move.l     D0, D7
00000238  48C0                     ext.l      D0
0000023A  E588                     lsl        D0, 2
0000023C  2200                     move.l     D1, D0
0000023E  E588                     lsl        D0, 2
00000240  D081                     add.l      D0, D1
00000242  204D                     movea.l    A0, A5
00000244  D1FC FFFE 8AF0           add.l      A0, 0xFFFE8AF0
0000024A  7220                     moveq.l    D1, 0x20
0000024C  C270 0002                and.w      D1, [A0 + D0.w + 0x2]
00000250  6744                     beq        +0x46 /* 00000296 */
00000252  2007                     move.l     D0, D7
00000254  48C0                     ext.l      D0
00000256  E588                     lsl        D0, 2
00000258  2200                     move.l     D1, D0
0000025A  E588                     lsl        D0, 2
0000025C  D081                     add.l      D0, D1
0000025E  204D                     movea.l    A0, A5
00000260  D1FC FFFE 8AF0           add.l      A0, 0xFFFE8AF0
00000266  7200                     moveq.l    D1, 0x00
00000268  1230 0005                move.b     D1, [A0 + D0.w + 0x5]
0000026C  BA41                     cmp.w      D5, D1
0000026E  6622                     bne        +0x24 /* 00000292 */
00000270  2007                     move.l     D0, D7
00000272  48C0                     ext.l      D0
00000274  E588                     lsl        D0, 2
00000276  2200                     move.l     D1, D0
00000278  E588                     lsl        D0, 2
0000027A  D081                     add.l      D0, D1
0000027C  204D                     movea.l    A0, A5
0000027E  D1FC FFFE 8AF0           add.l      A0, 0xFFFE8AF0
00000284  7200                     moveq.l    D1, 0x00
00000286  1230 0006                move.b     D1, [A0 + D0.w + 0x6]
0000028A  B841                     cmp.w      D4, D1
0000028C  6604                     bne        +0x6 /* 00000292 */
0000028E  3007                     move.w     D0, D7
00000290  6014                     bra        +0x16 /* 000002A6 */
label00000292:
00000292  3006                     move.w     D0, D6
00000294  5246                     addq.w     D6, 1
label00000296:
00000296  5247                     addq.w     D7, 1
label00000298:
00000298  204D                     movea.l    A0, A5
0000029A  D1FC FFFE 8AEE           add.l      A0, 0xFFFE8AEE
000002A0  BC50                     cmp.w      D6, [A0]
000002A2  6D92                     blt        -0x6C /* 00000236 */
000002A4  7000                     moveq.l    D0, 0x00
label000002A6:
000002A6  4CEE 00F0 FFF0           movem.l    D4,D5,D6,D7, [A6 - 0x10]
000002AC  4E5E                     unlink     A6
000002AE  4E75                     rts
000002B0  9366 696E 6473 7072 6... dc.b       "findsprayatxy__FsT1"
export_286:
000002C6  4E56 FFFE                link       A6, -0x0002
000002CA  48E7 0F00                movem.l    -[A7], D4,D5,D6,D7
000002CE  4244                     clr.w      D4
000002D0  4244                     clr.w      D4
000002D2  7E01                     moveq.l    D7, 0x01
000002D4  426E FFFE                clr.w      [A6 - 0x2]
000002D8  6000 00E8                bra        +0xEA /* 000003C2 */
label000002DC:
000002DC  2007                     move.l     D0, D7
000002DE  48C0                     ext.l      D0
000002E0  E588                     lsl        D0, 2
000002E2  2200                     move.l     D1, D0
000002E4  E588                     lsl        D0, 2
000002E6  D081                     add.l      D0, D1
000002E8  204D                     movea.l    A0, A5
000002EA  D1FC FFFE 8AF0           add.l      A0, 0xFFFE8AF0
000002F0  7220                     moveq.l    D1, 0x20
000002F2  C270 0002                and.w      D1, [A0 + D0.w + 0x2]
000002F6  6700 00C6                beq        +0xC8 /* 000003BE */
000002FA  2007                     move.l     D0, D7
000002FC  48C0                     ext.l      D0
000002FE  E588                     lsl        D0, 2
00000300  2200                     move.l     D1, D0
00000302  E588                     lsl        D0, 2
00000304  D081                     add.l      D0, D1
00000306  204D                     movea.l    A0, A5
00000308  D1FC FFFE 8AF0           add.l      A0, 0xFFFE8AF0
0000030E  3030 0000                move.w     D0, [A0 + D0.w]
00000312  B06E 000A                cmp.w      D0, [A6 + 0xA]
00000316  6600 009E                bne        +0xA0 /* 000003B6 */
0000031A  2007                     move.l     D0, D7
0000031C  48C0                     ext.l      D0
0000031E  E588                     lsl        D0, 2
00000320  2200                     move.l     D1, D0
00000322  E588                     lsl        D0, 2
00000324  D081                     add.l      D0, D1
00000326  204D                     movea.l    A0, A5
00000328  D1FC FFFE 8AF0           add.l      A0, 0xFFFE8AF0
0000032E  7A00                     moveq.l    D5, 0x00
00000330  1A30 0005                move.b     D5, [A0 + D0.w + 0x5]
00000334  2007                     move.l     D0, D7
00000336  48C0                     ext.l      D0
00000338  E588                     lsl        D0, 2
0000033A  2200                     move.l     D1, D0
0000033C  E588                     lsl        D0, 2
0000033E  D081                     add.l      D0, D1
00000340  204D                     movea.l    A0, A5
00000342  D1FC FFFE 8AF0           add.l      A0, 0xFFFE8AF0
00000348  7C00                     moveq.l    D6, 0x00
0000034A  1C30 0006                move.b     D6, [A0 + D0.w + 0x6]
0000034E  7001                     moveq.l    D0, 0x01
00000350  2F00                     move.l     -[A7], D0
00000352  2F00                     move.l     -[A7], D0
00000354  48C6                     ext.l      D6
00000356  2F06                     move.l     -[A7], D6
00000358  48C5                     ext.l      D5
0000035A  2F05                     move.l     -[A7], D5
0000035C  4EBA 04A4                jsr        [PC + 0x4A4 /* 00000802 */]
00000360  3800                     move.w     D4, D0
00000362  4FEF 0010                lea.l      A7, [A7 + 0x10]
00000366  6716                     beq        +0x18 /* 0000037E */
00000368  48C6                     ext.l      D6
0000036A  2F06                     move.l     -[A7], D6
0000036C  48C5                     ext.l      D5
0000036E  2F05                     move.l     -[A7], D5
00000370  48C4                     ext.l      D4
00000372  2F04                     move.l     -[A7], D4
00000374  4EBA 1762                jsr        [PC + 0x1762 /* 00001AD8 */]
00000378  4FEF 000C                lea.l      A7, [A7 + 0xC]
0000037C  600E                     bra        +0x10 /* 0000038C */
label0000037E:
0000037E  48C6                     ext.l      D6
00000380  2F06                     move.l     -[A7], D6
00000382  48C5                     ext.l      D5
00000384  2F05                     move.l     -[A7], D5
00000386  4EAD 085A                jsr        [A5 + 0x85A /* export_263, CODE:14 @ 00005928 */]
0000038A  504F                     addq.w     A7, 8
label0000038C:
0000038C  2007                     move.l     D0, D7
0000038E  48C0                     ext.l      D0
00000390  E588                     lsl        D0, 2
00000392  2200                     move.l     D1, D0
00000394  E588                     lsl        D0, 2
00000396  D081                     add.l      D0, D1
00000398  204D                     movea.l    A0, A5
0000039A  D1FC FFFE 8AF0           add.l      A0, 0xFFFE8AF0
000003A0  3030 0000                move.w     D0, [A0 + D0.w]
000003A4  48C0                     ext.l      D0
000003A6  2F00                     move.l     -[A7], D0
000003A8  48C7                     ext.l      D7
000003AA  2F07                     move.l     -[A7], D7
000003AC  4EAD 04EA                jsr        [A5 + 0x4EA /* export_153, CODE:9 @ 00000000 */]
000003B0  7001                     moveq.l    D0, 0x01
000003B2  504F                     addq.w     A7, 8
000003B4  6042                     bra        +0x44 /* 000003F8 */
label000003B6:
000003B6  302E FFFE                move.w     D0, [A6 - 0x2]
000003BA  526E FFFE                addq.w     [A6 - 0x2], 1
label000003BE:
000003BE  3007                     move.w     D0, D7
000003C0  5247                     addq.w     D7, 1
label000003C2:
000003C2  302E FFFE                move.w     D0, [A6 - 0x2]
000003C6  204D                     movea.l    A0, A5
000003C8  D1FC FFFE 8AEE           add.l      A0, 0xFFFE8AEE
000003CE  B050                     cmp.w      D0, [A0]
000003D0  6D00 FF0A                blt        -0xF4 /* 000002DC */
000003D4  204D                     movea.l    A0, A5
000003D6  D1FC FFFE BED0           add.l      A0, 0xFFFEBED0
000003DC  4A10                     tst.b      [A0]
000003DE  6716                     beq        +0x18 /* 000003F6 */
000003E0  4878 0113                push.l     0x113
000003E4  4878 00DC                push.l     0xDC
000003E8  4EAD 05FA                jsr        [A5 + 0x5FA /* export_187, CODE:10 @ 00002C4A */]
000003EC  4A80                     tst.l      D0
000003EE  504F                     addq.w     A7, 8
000003F0  6704                     beq        +0x6 /* 000003F6 */
000003F2  7001                     moveq.l    D0, 0x01
000003F4  6002                     bra        +0x4 /* 000003F8 */
label000003F6:
000003F6  7000                     moveq.l    D0, 0x00
label000003F8:
000003F8  4CEE 00F0 FFEE           movem.l    D4,D5,D6,D7, [A6 - 0x12]
000003FE  4E5E                     unlink     A6
00000400  4E75                     rts
00000402  9272 6571 7565 7374 7... dc.b       "requestspray__FsT1"
export_287:
00000418  4E56 0000                link       A6, 0
0000041C  2F0C                     move.l     -[A7], A4
0000041E  204D                     movea.l    A0, A5
00000420  D1FC FFFE D880           add.l      A0, 0xFFFED880
00000426  49D0                     lea.l      A4, [A0]
00000428  302E 000A                move.w     D0, [A6 + 0xA]
0000042C  C1FC 0046                muls.w     D0, 0x46 /* 'F' */
00000430  0274 FFDF 0002           andi.w     [A4 + D0.w + 0x2], 0xFFDF
00000436  204D                     movea.l    A0, A5
00000438  D1FC FFFE 94DC           add.l      A0, 0xFFFE94DC
0000043E  5350                     subq.w     [A0], 1
00000440  286E FFFC                movea.l    A4, [A6 - 0x4]
00000444  4E5E                     unlink     A6
00000446  4E75                     rts
00000448  9066 7265 6562 7569 6... dc.b       "freebuilding__Fs"
export_288:
0000045C  4E56 FFFC                link       A6, -0x0004
00000460  48E7 1F08                movem.l    -[A7], D3,D4,D5,D6,D7,A4
00000464  204D                     movea.l    A0, A5
00000466  D1FC FFFE D880           add.l      A0, 0xFFFED880
0000046C  49D0                     lea.l      A4, [A0]
0000046E  302E 000A                move.w     D0, [A6 + 0xA]
00000472  C1FC 0046                muls.w     D0, 0x46 /* 'F' */
00000476  7800                     moveq.l    D4, 0x00
00000478  1834 0004                move.b     D4, [A4 + D0.w + 0x4]
0000047C  302E 000A                move.w     D0, [A6 + 0xA]
00000480  C1FC 0046                muls.w     D0, 0x46 /* 'F' */
00000484  7A00                     moveq.l    D5, 0x00
00000486  1A34 0005                move.b     D5, [A4 + D0.w + 0x5]
0000048A  302E 000A                move.w     D0, [A6 + 0xA]
0000048E  C1FC 0046                muls.w     D0, 0x46 /* 'F' */
00000492  7200                     moveq.l    D1, 0x00
00000494  3234 0000                move.w     D1, [A4 + D0.w]
00000498  C3FC 0012                muls.w     D1, 0x12
0000049C  204D                     movea.l    A0, A5
0000049E  D1FC FFFE 998E           add.l      A0, 0xFFFE998E
000004A4  1230 1008                move.b     D1, [A0 + D1.w + 0x8]
000004A8  4881                     ext.w      D1
000004AA  3D41 FFFC                move.w     [A6 - 0x4], D1
000004AE  302E 000A                move.w     D0, [A6 + 0xA]
000004B2  C1FC 0046                muls.w     D0, 0x46 /* 'F' */
000004B6  7200                     moveq.l    D1, 0x00
000004B8  3234 0000                move.w     D1, [A4 + D0.w]
000004BC  C3FC 0012                muls.w     D1, 0x12
000004C0  204D                     movea.l    A0, A5
000004C2  D1FC FFFE 998E           add.l      A0, 0xFFFE998E
000004C8  1230 1009                move.b     D1, [A0 + D1.w + 0x9]
000004CC  4881                     ext.w      D1
000004CE  3D41 FFFE                move.w     [A6 - 0x2], D1
000004D2  3C04                     move.w     D6, D4
000004D4  6000 00B4                bra        +0xB6 /* 0000058A */
label000004D8:
000004D8  3E05                     move.w     D7, D5
000004DA  6000 0098                bra        +0x9A /* 00000574 */
label000004DE:
000004DE  48C7                     ext.l      D7
000004E0  48C5                     ext.l      D5
000004E2  2007                     move.l     D0, D7
000004E4  9085                     sub.l      D0, D5
000004E6  48C6                     ext.l      D6
000004E8  48C4                     ext.l      D4
000004EA  2206                     move.l     D1, D6
000004EC  9284                     sub.l      D1, D4
000004EE  342E 000A                move.w     D2, [A6 + 0xA]
000004F2  C5FC 0046                muls.w     D2, 0x46 /* 'F' */
000004F6  D281                     add.l      D1, D1
000004F8  2601                     move.l     D3, D1
000004FA  D683                     add.l      D3, D3
000004FC  D283                     add.l      D1, D3
000004FE  48C2                     ext.l      D2
00000500  D282                     add.l      D1, D2
00000502  D080                     add.l      D0, D0
00000504  D081                     add.l      D0, D1
00000506  72FF                     moveq.l    D1, 0xFFFFFFFF
00000508  B274 0822                cmp.w      D1, [A4 + D0 + 0x22]
0000050C  6762                     beq        +0x64 /* 00000570 */
0000050E  48C7                     ext.l      D7
00000510  48C5                     ext.l      D5
00000512  2007                     move.l     D0, D7
00000514  9085                     sub.l      D0, D5
00000516  48C6                     ext.l      D6
00000518  48C4                     ext.l      D4
0000051A  2206                     move.l     D1, D6
0000051C  9284                     sub.l      D1, D4
0000051E  342E 000A                move.w     D2, [A6 + 0xA]
00000522  C5FC 0046                muls.w     D2, 0x46 /* 'F' */
00000526  D281                     add.l      D1, D1
00000528  2601                     move.l     D3, D1
0000052A  D683                     add.l      D3, D3
0000052C  D283                     add.l      D1, D3
0000052E  48C2                     ext.l      D2
00000530  D282                     add.l      D1, D2
00000532  D080                     add.l      D0, D0
00000534  D081                     add.l      D0, D1
00000536  3034 0822                move.w     D0, [A4 + D0 + 0x22]
0000053A  48C0                     ext.l      D0
0000053C  2F00                     move.l     -[A7], D0
0000053E  48C7                     ext.l      D7
00000540  48C5                     ext.l      D5
00000542  2007                     move.l     D0, D7
00000544  9085                     sub.l      D0, D5
00000546  48C6                     ext.l      D6
00000548  48C4                     ext.l      D4
0000054A  2206                     move.l     D1, D6
0000054C  9284                     sub.l      D1, D4
0000054E  342E 000A                move.w     D2, [A6 + 0xA]
00000552  C5FC 0046                muls.w     D2, 0x46 /* 'F' */
00000556  2601                     move.l     D3, D1
00000558  D281                     add.l      D1, D1
0000055A  D283                     add.l      D1, D3
0000055C  48C2                     ext.l      D2
0000055E  D282                     add.l      D1, D2
00000560  D081                     add.l      D0, D1
00000562  7200                     moveq.l    D1, 0x00
00000564  1234 083A                move.b     D1, [A4 + D0 + 0x3A]
00000568  2F01                     move.l     -[A7], D1
0000056A  4EAD 04EA                jsr        [A5 + 0x4EA /* export_153, CODE:9 @ 00000000 */]
0000056E  504F                     addq.w     A7, 8
label00000570:
00000570  3007                     move.w     D0, D7
00000572  5247                     addq.w     D7, 1
label00000574:
00000574  48C7                     ext.l      D7
00000576  48C5                     ext.l      D5
00000578  302E FFFE                move.w     D0, [A6 - 0x2]
0000057C  48C0                     ext.l      D0
0000057E  D085                     add.l      D0, D5
00000580  B087                     cmp.l      D0, D7
00000582  6E00 FF5A                bgt        -0xA4 /* 000004DE */
00000586  3006                     move.w     D0, D6
00000588  5246                     addq.w     D6, 1
label0000058A:
0000058A  48C6                     ext.l      D6
0000058C  48C4                     ext.l      D4
0000058E  302E FFFC                move.w     D0, [A6 - 0x4]
00000592  48C0                     ext.l      D0
00000594  D084                     add.l      D0, D4
00000596  B086                     cmp.l      D0, D6
00000598  6E00 FF3E                bgt        -0xC0 /* 000004D8 */
0000059C  3C04                     move.w     D6, D4
0000059E  6000 00E4                bra        +0xE6 /* 00000684 */
label000005A2:
000005A2  3E05                     move.w     D7, D5
000005A4  6000 00C8                bra        +0xCA /* 0000066E */
label000005A8:
000005A8  2006                     move.l     D0, D6
000005AA  C1FC 00C0                muls.w     D0, 0xC0
000005AE  204D                     movea.l    A0, A5
000005B0  D1FC FFFE 42D4           add.l      A0, 0xFFFE42D4
000005B6  2207                     move.l     D1, D7
000005B8  D241                     add.w      D1, D1
000005BA  D240                     add.w      D1, D0
000005BC  7000                     moveq.l    D0, 0x00
000005BE  3030 1000                move.w     D0, [A0 + D1.w]
000005C2  323C F800                move.w     D1, 0xF800
000005C6  C240                     and.w      D1, D0
000005C8  7000                     moveq.l    D0, 0x00
000005CA  3001                     move.w     D0, D1
000005CC  4A80                     tst.l      D0
000005CE  204D                     movea.l    A0, A5
000005D0  D1FC FFFF 7942           add.l      A0, 0xFFFF7942
000005D6  3210                     move.w     D1, [A0]
000005D8  48C1                     ext.l      D1
000005DA  2406                     move.l     D2, D6
000005DC  C5FC 0060                muls.w     D2, 0x60 /* '`' */
000005E0  204D                     movea.l    A0, A5
000005E2  D1FC FFFD D6D4           add.l      A0, 0xFFFDD6D4
000005E8  2607                     move.l     D3, D7
000005EA  D642                     add.w      D3, D2
000005EC  1630 3000                move.b     D3, [A0 + D3.w]
000005F0  E40B                     lsr        D3.b, 2
000005F2  7400                     moveq.l    D2, 0x00
000005F4  1403                     move.b     D2, D3
000005F6  D481                     add.l      D2, D1
000005F8  204D                     movea.l    A0, A5
000005FA  D1FC FFFE 8AEC           add.l      A0, 0xFFFE8AEC
00000600  1210                     move.b     D1, [A0]
00000602  49C1                     lea.l      A4, D1
00000604  D282                     add.l      D1, D2
00000606  8280                     or.l       D1, D0
00000608  203C FFFF BFFF           move.l     D0, 0xFFFFBFFF
0000060E  C081                     and.l      D0, D1
00000610  2206                     move.l     D1, D6
00000612  C3FC 00C0                muls.w     D1, 0xC0
00000616  204D                     movea.l    A0, A5
00000618  D1FC FFFE 42D4           add.l      A0, 0xFFFE42D4
0000061E  2407                     move.l     D2, D7
00000620  D442                     add.w      D2, D2
00000622  D441                     add.w      D2, D1
00000624  3180 2000                move.w     [A0 + D2.w], D0
00000628  2006                     move.l     D0, D6
0000062A  C1FC 00C0                muls.w     D0, 0xC0
0000062E  204D                     movea.l    A0, A5
00000630  D1FC FFFE 42D4           add.l      A0, 0xFFFE42D4
00000636  2207                     move.l     D1, D7
00000638  D241                     add.w      D1, D1
0000063A  D240                     add.w      D1, D0
0000063C  0270 F7FF 1000           andi.w     [A0 + D1.w], 0xF7FF
00000642  2006                     move.l     D0, D6
00000644  C1FC 00C0                muls.w     D0, 0xC0
00000648  204D                     movea.l    A0, A5
0000064A  D1FC FFFE 42D4           add.l      A0, 0xFFFE42D4
00000650  2207                     move.l     D1, D7
00000652  D241                     add.w      D1, D1
00000654  D240                     add.w      D1, D0
00000656  0270 BFFF 1000           andi.w     [A0 + D1.w], 0xBFFF
0000065C  48C7                     ext.l      D7
0000065E  2F07                     move.l     -[A7], D7
00000660  48C6                     ext.l      D6
00000662  2F06                     move.l     -[A7], D6
00000664  4EAD 087A                jsr        [A5 + 0x87A /* export_267, CODE:14 @ 00005AE0 */]
00000668  504F                     addq.w     A7, 8
0000066A  3007                     move.w     D0, D7
0000066C  5247                     addq.w     D7, 1
label0000066E:
0000066E  48C7                     ext.l      D7
00000670  48C5                     ext.l      D5
00000672  302E FFFE                move.w     D0, [A6 - 0x2]
00000676  48C0                     ext.l      D0
00000678  D085                     add.l      D0, D5
0000067A  B087                     cmp.l      D0, D7
0000067C  6E00 FF2A                bgt        -0xD4 /* 000005A8 */
00000680  3006                     move.w     D0, D6
00000682  5246                     addq.w     D6, 1
label00000684:
00000684  48C6                     ext.l      D6
00000686  48C4                     ext.l      D4
00000688  302E FFFC                move.w     D0, [A6 - 0x4]
0000068C  48C0                     ext.l      D0
0000068E  D084                     add.l      D0, D4
00000690  B086                     cmp.l      D0, D6
00000692  6E00 FF0E                bgt        -0xF0 /* 000005A2 */
00000696  4CEE 10F8 FFE4           movem.l    D3,D4,D5,D6,D7,A4, [A6 - 0x1C]
0000069C  4E5E                     unlink     A6
0000069E  4E75                     rts
000006A0  9165 7261 7365 6275 6... dc.b       "erasebuilding__Fs"
export_289:
000006B4  4E56 0000                link       A6, 0
000006B8  48E7 1F08                movem.l    -[A7], D3,D4,D5,D6,D7,A4
000006BC  382E 000A                move.w     D4, [A6 + 0xA]
000006C0  204D                     movea.l    A0, A5
000006C2  D1FC FFFE D880           add.l      A0, 0xFFFED880
000006C8  49D0                     lea.l      A4, [A0]
000006CA  7A01                     moveq.l    D5, 0x01
000006CC  767F                     moveq.l    D3, 0x7F
label000006CE:
000006CE  4885                     ext.w      D5
000006D0  2005                     move.l     D0, D5
000006D2  C1FC 0046                muls.w     D0, 0x46 /* 'F' */
000006D6  7200                     moveq.l    D1, 0x00
000006D8  3234 0002                move.w     D1, [A4 + D0.w + 0x2]
000006DC  7020                     moveq.l    D0, 0x20
000006DE  C041                     and.w      D0, D1
000006E0  6600 00F4                bne        +0xF6 /* 000007D6 */
000006E4  4885                     ext.w      D5
000006E6  2005                     move.l     D0, D5
000006E8  C1FC 0046                muls.w     D0, 0x46 /* 'F' */
000006EC  39AE 0012 0000           move.w     [A4 + D0.w], [A6 + 0x12]
000006F2  4885                     ext.w      D5
000006F4  2005                     move.l     D0, D5
000006F6  C1FC 0046                muls.w     D0, 0x46 /* 'F' */
000006FA  4274 0002                clr.w      [A4 + D0.w + 0x2]
000006FE  4885                     ext.w      D5
00000700  2005                     move.l     D0, D5
00000702  C1FC 0046                muls.w     D0, 0x46 /* 'F' */
00000706  1984 0004                move.b     [A4 + D0.w + 0x4], D4
0000070A  4885                     ext.w      D5
0000070C  2005                     move.l     D0, D5
0000070E  C1FC 0046                muls.w     D0, 0x46 /* 'F' */
00000712  19AE 000F 0005           move.b     [A4 + D0.w + 0x5], [A6 + 0xF]
00000718  4885                     ext.w      D5
0000071A  2005                     move.l     D0, D5
0000071C  C1FC 0046                muls.w     D0, 0x46 /* 'F' */
00000720  4234 0006                clr.b      [A4 + D0.w + 0x6]
00000724  4885                     ext.w      D5
00000726  2005                     move.l     D0, D5
00000728  C1FC 0046                muls.w     D0, 0x46 /* 'F' */
0000072C  4274 0008                clr.w      [A4 + D0.w + 0x8]
00000730  4206                     clr.b      D6
00000732  7404                     moveq.l    D2, 0x04
label00000734:
00000734  4207                     clr.b      D7
label00000736:
00000736  4887                     ext.w      D7
00000738  49C6                     lea.l      A4, D6
0000073A  4885                     ext.w      D5
0000073C  2005                     move.l     D0, D5
0000073E  C1FC 0046                muls.w     D0, 0x46 /* 'F' */
00000742  2206                     move.l     D1, D6
00000744  2041                     movea.l    A0, D1
00000746  D281                     add.l      D1, D1
00000748  D288                     add.l      D1, A0
0000074A  48C0                     ext.l      D0
0000074C  D280                     add.l      D1, D0
0000074E  2007                     move.l     D0, D7
00000750  48C0                     ext.l      D0
00000752  D081                     add.l      D0, D1
00000754  4234 083A                clr.b      [A4 + D0 + 0x3A]
00000758  49C7                     lea.l      A4, D7
0000075A  49C6                     lea.l      A4, D6
0000075C  4885                     ext.w      D5
0000075E  2005                     move.l     D0, D5
00000760  C1FC 0046                muls.w     D0, 0x46 /* 'F' */
00000764  2206                     move.l     D1, D6
00000766  D281                     add.l      D1, D1
00000768  2041                     movea.l    A0, D1
0000076A  D1C8                     add.l      A0, A0
0000076C  D288                     add.l      D1, A0
0000076E  48C0                     ext.l      D0
00000770  D280                     add.l      D1, D0
00000772  2007                     move.l     D0, D7
00000774  D080                     add.l      D0, D0
00000776  D081                     add.l      D0, D1
00000778  39BC FFFF 0822           move.w     [A4 + D0 + 0x22], 0xFFFF
0000077E  49C7                     lea.l      A4, D7
00000780  49C6                     lea.l      A4, D6
00000782  4885                     ext.w      D5
00000784  2005                     move.l     D0, D5
00000786  C1FC 0046                muls.w     D0, 0x46 /* 'F' */
0000078A  2206                     move.l     D1, D6
0000078C  D281                     add.l      D1, D1
0000078E  2041                     movea.l    A0, D1
00000790  D1C8                     add.l      A0, A0
00000792  D288                     add.l      D1, A0
00000794  48C0                     ext.l      D0
00000796  D280                     add.l      D1, D0
00000798  2007                     move.l     D0, D7
0000079A  D080                     add.l      D0, D0
0000079C  D081                     add.l      D0, D1
0000079E  39BC 00D9 080A           move.w     [A4 + D0 + 0xA], 0xD9
000007A4  1007                     move.b     D0, D7
000007A6  5207                     addq.b     D7, 1
000007A8  0C07 0003                cmpi.b     D7, 0x3
000007AC  6D88                     blt        -0x76 /* 00000736 */
000007AE  1006                     move.b     D0, D6
000007B0  5206                     addq.b     D6, 1
000007B2  B406                     cmp.b      D2, D6
000007B4  6E00 FF7E                bgt        -0x80 /* 00000734 */
000007B8  4885                     ext.w      D5
000007BA  2005                     move.l     D0, D5
000007BC  C1FC 0046                muls.w     D0, 0x46 /* 'F' */
000007C0  0074 0020 0002           ori.w      [A4 + D0.w + 0x2], 0x20 /* ' ' */
000007C6  204D                     movea.l    A0, A5
000007C8  D1FC FFFE 94DC           add.l      A0, 0xFFFE94DC
000007CE  5250                     addq.w     [A0], 1
000007D0  4885                     ext.w      D5
000007D2  3005                     move.w     D0, D5
000007D4  600A                     bra        +0xC /* 000007E0 */
label000007D6:
000007D6  1005                     move.b     D0, D5
000007D8  5205                     addq.b     D5, 1
000007DA  B605                     cmp.b      D3, D5
000007DC  6E00 FEF0                bgt        -0x10E /* 000006CE */
label000007E0:
000007E0  4CEE 10F8 FFE8           movem.l    D3,D4,D5,D6,D7,A4, [A6 - 0x18]
000007E6  4E5E                     unlink     A6
000007E8  4E75                     rts
000007EA  9463 7265 6174 6573 7... dc.b       "createstorage__FsN21"
export_290:
fn00000802:
00000802  4E56 FFFC                link       A6, -0x0004
00000806  48E7 0F08                movem.l    -[A7], D4,D5,D6,D7,A4
0000080A  382E 000E                move.w     D4, [A6 + 0xE]
0000080E  204D                     movea.l    A0, A5
00000810  D1FC FFFE D880           add.l      A0, 0xFFFED880
00000816  49D0                     lea.l      A4, [A0]
00000818  422E FFFF                clr.b      [A6 - 0x1]
0000081C  7E01                     moveq.l    D7, 0x01
0000081E  6000 00F2                bra        +0xF4 /* 00000912 */
label00000822:
00000822  2007                     move.l     D0, D7
00000824  C1FC 0046                muls.w     D0, 0x46 /* 'F' */
00000828  7200                     moveq.l    D1, 0x00
0000082A  3234 0002                move.w     D1, [A4 + D0.w + 0x2]
0000082E  7020                     moveq.l    D0, 0x20
00000830  C041                     and.w      D0, D1
00000832  6700 00DA                beq        +0xDC /* 0000090E */
00000836  2007                     move.l     D0, D7
00000838  C1FC 0046                muls.w     D0, 0x46 /* 'F' */
0000083C  7200                     moveq.l    D1, 0x00
0000083E  3234 0000                move.w     D1, [A4 + D0.w]
00000842  C3FC 0012                muls.w     D1, 0x12
00000846  204D                     movea.l    A0, A5
00000848  D1FC FFFE 998E           add.l      A0, 0xFFFE998E
0000084E  1D70 1008 FFFD           move.b     [A6 - 0x3], [A0 + D1.w + 0x8]
00000854  2007                     move.l     D0, D7
00000856  C1FC 0046                muls.w     D0, 0x46 /* 'F' */
0000085A  7200                     moveq.l    D1, 0x00
0000085C  3234 0000                move.w     D1, [A4 + D0.w]
00000860  C3FC 0012                muls.w     D1, 0x12
00000864  204D                     movea.l    A0, A5
00000866  D1FC FFFE 998E           add.l      A0, 0xFFFE998E
0000086C  1D70 1009 FFFE           move.b     [A6 - 0x2], [A0 + D1.w + 0x9]
00000872  1A2E 000B                move.b     D5, [A6 + 0xB]
00000876  6078                     bra        +0x7A /* 000008F0 */
label00000878:
00000878  1C04                     move.b     D6, D4
0000087A  6060                     bra        +0x62 /* 000008DC */
label0000087C:
0000087C  4885                     ext.w      D5
0000087E  2007                     move.l     D0, D7
00000880  C1FC 0046                muls.w     D0, 0x46 /* 'F' */
00000884  7200                     moveq.l    D1, 0x00
00000886  1234 0004                move.b     D1, [A4 + D0.w + 0x4]
0000088A  B245                     cmp.w      D1, D5
0000088C  6E4A                     bgt        +0x4C /* 000008D8 */
0000088E  4886                     ext.w      D6
00000890  2007                     move.l     D0, D7
00000892  C1FC 0046                muls.w     D0, 0x46 /* 'F' */
00000896  7200                     moveq.l    D1, 0x00
00000898  1234 0005                move.b     D1, [A4 + D0.w + 0x5]
0000089C  B246                     cmp.w      D1, D6
0000089E  6E38                     bgt        +0x3A /* 000008D8 */
000008A0  4885                     ext.w      D5
000008A2  2007                     move.l     D0, D7
000008A4  C1FC 0046                muls.w     D0, 0x46 /* 'F' */
000008A8  7200                     moveq.l    D1, 0x00
000008AA  1234 0004                move.b     D1, [A4 + D0.w + 0x4]
000008AE  102E FFFD                move.b     D0, [A6 - 0x3]
000008B2  4880                     ext.w      D0
000008B4  D041                     add.w      D0, D1
000008B6  B045                     cmp.w      D0, D5
000008B8  6F1E                     ble        +0x20 /* 000008D8 */
000008BA  4886                     ext.w      D6
000008BC  2007                     move.l     D0, D7
000008BE  C1FC 0046                muls.w     D0, 0x46 /* 'F' */
000008C2  7200                     moveq.l    D1, 0x00
000008C4  1234 0005                move.b     D1, [A4 + D0.w + 0x5]
000008C8  102E FFFE                move.b     D0, [A6 - 0x2]
000008CC  4880                     ext.w      D0
000008CE  D041                     add.w      D0, D1
000008D0  B046                     cmp.w      D0, D6
000008D2  6F04                     ble        +0x6 /* 000008D8 */
000008D4  3007                     move.w     D0, D7
000008D6  6050                     bra        +0x52 /* 00000928 */
label000008D8:
000008D8  1006                     move.b     D0, D6
000008DA  5206                     addq.b     D6, 1
label000008DC:
000008DC  49C6                     lea.l      A4, D6
000008DE  48C4                     ext.l      D4
000008E0  302E 0016                move.w     D0, [A6 + 0x16]
000008E4  48C0                     ext.l      D0
000008E6  D084                     add.l      D0, D4
000008E8  B086                     cmp.l      D0, D6
000008EA  6E90                     bgt        -0x6E /* 0000087C */
000008EC  1005                     move.b     D0, D5
000008EE  5205                     addq.b     D5, 1
label000008F0:
000008F0  49C5                     lea.l      A4, D5
000008F2  302E 000A                move.w     D0, [A6 + 0xA]
000008F6  48C0                     ext.l      D0
000008F8  322E 0012                move.w     D1, [A6 + 0x12]
000008FC  48C1                     ext.l      D1
000008FE  D280                     add.l      D1, D0
00000900  B285                     cmp.l      D1, D5
00000902  6E00 FF74                bgt        -0x8A /* 00000878 */
00000906  102E FFFF                move.b     D0, [A6 - 0x1]
0000090A  522E FFFF                addq.b     [A6 - 0x1], 1
label0000090E:
0000090E  3007                     move.w     D0, D7
00000910  5247                     addq.w     D7, 1
label00000912:
00000912  102E FFFF                move.b     D0, [A6 - 0x1]
00000916  4880                     ext.w      D0
00000918  204D                     movea.l    A0, A5
0000091A  D1FC FFFE 94DC           add.l      A0, 0xFFFE94DC
00000920  B050                     cmp.w      D0, [A0]
00000922  6D00 FEFE                blt        -0x100 /* 00000822 */
00000926  7000                     moveq.l    D0, 0x00
label00000928:
00000928  4CEE 10F0 FFE8           movem.l    D4,D5,D6,D7,A4, [A6 - 0x18]
0000092E  4E5E                     unlink     A6
00000930  4E75                     rts
00000932  9366 696E 6462 7569 6... dc.b       "findbuilding__FsN31"
export_291:
00000948  4E56 0000                link       A6, 0
0000094C  48E7 1F08                movem.l    -[A7], D3,D4,D5,D6,D7,A4
00000950  3A2E 000A                move.w     D5, [A6 + 0xA]
00000954  204D                     movea.l    A0, A5
00000956  D1FC FFFE D880           add.l      A0, 0xFFFED880
0000095C  49D0                     lea.l      A4, [A0]
0000095E  4246                     clr.w      D6
00000960  7E01                     moveq.l    D7, 0x01
00000962  4244                     clr.w      D4
00000964  6000 00FA                bra        +0xFC /* 00000A60 */
label00000968:
00000968  2007                     move.l     D0, D7
0000096A  C1FC 0046                muls.w     D0, 0x46 /* 'F' */
0000096E  7200                     moveq.l    D1, 0x00
00000970  3234 0002                move.w     D1, [A4 + D0.w + 0x2]
00000974  7020                     moveq.l    D0, 0x20
00000976  C041                     and.w      D0, D1
00000978  6700 00E2                beq        +0xE4 /* 00000A5C */
0000097C  2007                     move.l     D0, D7
0000097E  C1FC 0046                muls.w     D0, 0x46 /* 'F' */
00000982  7200                     moveq.l    D1, 0x00
00000984  3234 0000                move.w     D1, [A4 + D0.w]
00000988  7048                     moveq.l    D0, 0x48
0000098A  B081                     cmp.l      D0, D1
0000098C  6600 00CA                bne        +0xCC /* 00000A58 */
00000990  2007                     move.l     D0, D7
00000992  C1FC 0046                muls.w     D0, 0x46 /* 'F' */
00000996  7200                     moveq.l    D1, 0x00
00000998  3234 000A                move.w     D1, [A4 + D0.w + 0xA]
0000099C  4A81                     tst.l      D1
0000099E  6300 00B8                bls        +0xBA /* 00000A58 */
000009A2  2007                     move.l     D0, D7
000009A4  C1FC 0046                muls.w     D0, 0x46 /* 'F' */
000009A8  7200                     moveq.l    D1, 0x00
000009AA  3234 000A                move.w     D1, [A4 + D0.w + 0xA]
000009AE  48C6                     ext.l      D6
000009B0  D286                     add.l      D1, D6
000009B2  48C5                     ext.l      D5
000009B4  BA81                     cmp.l      D5, D1
000009B6  6F16                     ble        +0x18 /* 000009CE */
000009B8  2007                     move.l     D0, D7
000009BA  C1FC 0046                muls.w     D0, 0x46 /* 'F' */
000009BE  DC74 000A                add.w      D6, [A4 + D0.w + 0xA]
000009C2  2007                     move.l     D0, D7
000009C4  C1FC 0046                muls.w     D0, 0x46 /* 'F' */
000009C8  4274 000A                clr.w      [A4 + D0.w + 0xA]
000009CC  600C                     bra        +0xE /* 000009DA */
label000009CE:
000009CE  3C05                     move.w     D6, D5
000009D0  2007                     move.l     D0, D7
000009D2  C1FC 0046                muls.w     D0, 0x46 /* 'F' */
000009D6  4274 000A                clr.w      [A4 + D0.w + 0xA]
label000009DA:
000009DA  2007                     move.l     D0, D7
000009DC  C1FC 0046                muls.w     D0, 0x46 /* 'F' */
000009E0  7200                     moveq.l    D1, 0x00
000009E2  3234 0002                move.w     D1, [A4 + D0.w + 0x2]
000009E6  4A81                     tst.l      D1
000009E8  0801 0000                btst.b     D1, 0x0
000009EC  676A                     beq        +0x6C /* 00000A58 */
000009EE  2007                     move.l     D0, D7
000009F0  C1FC 0046                muls.w     D0, 0x46 /* 'F' */
000009F4  3034 000A                move.w     D0, [A4 + D0.w + 0xA]
000009F8  EC48                     lsr        D0.w, 6
000009FA  D07C 0053                add.w      D0, 0x53 /* 'S' */
000009FE  2207                     move.l     D1, D7
00000A00  C3FC 0046                muls.w     D1, 0x46 /* 'F' */
00000A04  7400                     moveq.l    D2, 0x00
00000A06  1434 1005                move.b     D2, [A4 + D1.w + 0x5]
00000A0A  2207                     move.l     D1, D7
00000A0C  C3FC 0046                muls.w     D1, 0x46 /* 'F' */
00000A10  7600                     moveq.l    D3, 0x00
00000A12  1634 1004                move.b     D3, [A4 + D1.w + 0x4]
00000A16  C7FC 00C0                muls.w     D3, 0xC0
00000A1A  204D                     movea.l    A0, A5
00000A1C  D1FC FFFE 42D4           add.l      A0, 0xFFFE42D4
00000A22  D442                     add.w      D2, D2
00000A24  D443                     add.w      D2, D3
00000A26  3180 2000                move.w     [A0 + D2.w], D0
00000A2A  2007                     move.l     D0, D7
00000A2C  C1FC 0046                muls.w     D0, 0x46 /* 'F' */
00000A30  7200                     moveq.l    D1, 0x00
00000A32  1234 0005                move.b     D1, [A4 + D0.w + 0x5]
00000A36  2007                     move.l     D0, D7
00000A38  C1FC 0046                muls.w     D0, 0x46 /* 'F' */
00000A3C  7400                     moveq.l    D2, 0x00
00000A3E  1434 0004                move.b     D2, [A4 + D0.w + 0x4]
00000A42  C5FC 00C0                muls.w     D2, 0xC0
00000A46  204D                     movea.l    A0, A5
00000A48  D1FC FFFE 42D4           add.l      A0, 0xFFFE42D4
00000A4E  D241                     add.w      D1, D1
00000A50  D242                     add.w      D1, D2
00000A52  0270 BFFF 1000           andi.w     [A0 + D1.w], 0xBFFF
label00000A58:
00000A58  3004                     move.w     D0, D4
00000A5A  5244                     addq.w     D4, 1
label00000A5C:
00000A5C  3007                     move.w     D0, D7
00000A5E  5247                     addq.w     D7, 1
label00000A60:
00000A60  204D                     movea.l    A0, A5
00000A62  D1FC FFFE 94DC           add.l      A0, 0xFFFE94DC
00000A68  B850                     cmp.w      D4, [A0]
00000A6A  6C06                     bge        +0x8 /* 00000A72 */
00000A6C  BA46                     cmp.w      D5, D6
00000A6E  6E00 FEF8                bgt        -0x106 /* 00000968 */
label00000A72:
00000A72  3006                     move.w     D0, D6
00000A74  4CEE 10F8 FFE8           movem.l    D3,D4,D5,D6,D7,A4, [A6 - 0x18]
00000A7A  4E5E                     unlink     A6
00000A7C  4E75                     rts
00000A7E  9467 6574 7761 7465 7... dc.b       "getwaterfromtank__Fs"
export_292:
fn00000A96:
00000A96  4E56 FFF6                link       A6, -0x000A
00000A9A  48E7 1F18                movem.l    -[A7], D3,D4,D5,D6,D7,A3,A4
00000A9E  204D                     movea.l    A0, A5
00000AA0  D1FC FFFE D880           add.l      A0, 0xFFFED880
00000AA6  47D0                     lea.l      A3, [A0]
00000AA8  7001                     moveq.l    D0, 0x01
00000AAA  2F00                     move.l     -[A7], D0
00000AAC  2F00                     move.l     -[A7], D0
00000AAE  322E 000E                move.w     D1, [A6 + 0xE]
00000AB2  48C1                     ext.l      D1
00000AB4  2F01                     move.l     -[A7], D1
00000AB6  322E 000A                move.w     D1, [A6 + 0xA]
00000ABA  48C1                     ext.l      D1
00000ABC  2F01                     move.l     -[A7], D1
00000ABE  4EBA FD42                jsr        [PC - 0x2BE /* 00000802 */]
00000AC2  3A00                     move.w     D5, D0
00000AC4  4FEF 0010                lea.l      A7, [A7 + 0x10]
00000AC8  6700 04F2                beq        +0x4F4 /* 00000FBC */
00000ACC  2005                     move.l     D0, D5
00000ACE  C1FC 0046                muls.w     D0, 0x46 /* 'F' */
00000AD2  7200                     moveq.l    D1, 0x00
00000AD4  3233 0000                move.w     D1, [A3 + D0.w]
00000AD8  7047                     moveq.l    D0, 0x47
00000ADA  B081                     cmp.l      D0, D1
00000ADC  6700 04DE                beq        +0x4E0 /* 00000FBC */
00000AE0  2005                     move.l     D0, D5
00000AE2  C1FC 0046                muls.w     D0, 0x46 /* 'F' */
00000AE6  7200                     moveq.l    D1, 0x00
00000AE8  3233 0000                move.w     D1, [A3 + D0.w]
00000AEC  7046                     moveq.l    D0, 0x46
00000AEE  B081                     cmp.l      D0, D1
00000AF0  6700 04CA                beq        +0x4CC /* 00000FBC */
00000AF4  2005                     move.l     D0, D5
00000AF6  C1FC 0046                muls.w     D0, 0x46 /* 'F' */
00000AFA  7200                     moveq.l    D1, 0x00
00000AFC  3233 0000                move.w     D1, [A3 + D0.w]
00000B00  C3FC 0012                muls.w     D1, 0x12
00000B04  204D                     movea.l    A0, A5
00000B06  D1FC FFFE 998E           add.l      A0, 0xFFFE998E
00000B0C  7000                     moveq.l    D0, 0x00
00000B0E  1030 1000                move.b     D0, [A0 + D1.w]
00000B12  D040                     add.w      D0, D0
00000B14  204D                     movea.l    A0, A5
00000B16  D1FC FFFF 7942           add.l      A0, 0xFFFF7942
00000B1C  3D70 0000 FFFC           move.w     [A6 - 0x4], [A0 + D0.w]
00000B22  2005                     move.l     D0, D5
00000B24  C1FC 0046                muls.w     D0, 0x46 /* 'F' */
00000B28  7200                     moveq.l    D1, 0x00
00000B2A  3233 0000                move.w     D1, [A3 + D0.w]
00000B2E  C3FC 0012                muls.w     D1, 0x12
00000B32  204D                     movea.l    A0, A5
00000B34  D1FC FFFE 998E           add.l      A0, 0xFFFE998E
00000B3A  1D70 1008 FFFA           move.b     [A6 - 0x6], [A0 + D1.w + 0x8]
00000B40  2005                     move.l     D0, D5
00000B42  C1FC 0046                muls.w     D0, 0x46 /* 'F' */
00000B46  7200                     moveq.l    D1, 0x00
00000B48  3233 0000                move.w     D1, [A3 + D0.w]
00000B4C  C3FC 0012                muls.w     D1, 0x12
00000B50  204D                     movea.l    A0, A5
00000B52  D1FC FFFE 998E           add.l      A0, 0xFFFE998E
00000B58  1D70 1009 FFFB           move.b     [A6 - 0x5], [A0 + D1.w + 0x9]
00000B5E  2005                     move.l     D0, D5
00000B60  C1FC 0046                muls.w     D0, 0x46 /* 'F' */
00000B64  0A73 0001 0002           xori.w     [A3 + D0.w + 0x2], 0x1
00000B6A  2005                     move.l     D0, D5
00000B6C  C1FC 0046                muls.w     D0, 0x46 /* 'F' */
00000B70  7200                     moveq.l    D1, 0x00
00000B72  3233 0002                move.w     D1, [A3 + D0.w + 0x2]
00000B76  4A81                     tst.l      D1
00000B78  0801 0000                btst.b     D1, 0x0
00000B7C  6700 027A                beq        +0x27C /* 00000DF8 */
00000B80  2005                     move.l     D0, D5
00000B82  C1FC 0046                muls.w     D0, 0x46 /* 'F' */
00000B86  1C33 0004                move.b     D6, [A3 + D0.w + 0x4]
00000B8A  6000 024C                bra        +0x24E /* 00000DD8 */
label00000B8E:
00000B8E  2005                     move.l     D0, D5
00000B90  C1FC 0046                muls.w     D0, 0x46 /* 'F' */
00000B94  1E33 0005                move.b     D7, [A3 + D0.w + 0x5]
00000B98  6000 021E                bra        +0x220 /* 00000DB8 */
label00000B9C:
00000B9C  2005                     move.l     D0, D5
00000B9E  C1FC 0046                muls.w     D0, 0x46 /* 'F' */
00000BA2  7200                     moveq.l    D1, 0x00
00000BA4  3233 0000                move.w     D1, [A3 + D0.w]
00000BA8  7048                     moveq.l    D0, 0x48
00000BAA  B081                     cmp.l      D0, D1
00000BAC  664E                     bne        +0x50 /* 00000BFC */
00000BAE  2005                     move.l     D0, D5
00000BB0  C1FC 0046                muls.w     D0, 0x46 /* 'F' */
00000BB4  3033 000A                move.w     D0, [A3 + D0.w + 0xA]
00000BB8  EC48                     lsr        D0.w, 6
00000BBA  D07C 0053                add.w      D0, 0x53 /* 'S' */
00000BBE  4887                     ext.w      D7
00000BC0  4886                     ext.w      D6
00000BC2  2206                     move.l     D1, D6
00000BC4  C3FC 00C0                muls.w     D1, 0xC0
00000BC8  204D                     movea.l    A0, A5
00000BCA  D1FC FFFE 42D4           add.l      A0, 0xFFFE42D4
00000BD0  2407                     move.l     D2, D7
00000BD2  D442                     add.w      D2, D2
00000BD4  D441                     add.w      D2, D1
00000BD6  3180 2000                move.w     [A0 + D2.w], D0
00000BDA  4887                     ext.w      D7
00000BDC  4886                     ext.w      D6
00000BDE  2006                     move.l     D0, D6
00000BE0  C1FC 00C0                muls.w     D0, 0xC0
00000BE4  204D                     movea.l    A0, A5
00000BE6  D1FC FFFE 42D4           add.l      A0, 0xFFFE42D4
00000BEC  2207                     move.l     D1, D7
00000BEE  D241                     add.w      D1, D1
00000BF0  D240                     add.w      D1, D0
00000BF2  0270 BFFF 1000           andi.w     [A0 + D1.w], 0xBFFF
00000BF8  6000 01BA                bra        +0x1BC /* 00000DB4 */
label00000BFC:
00000BFC  4887                     ext.w      D7
00000BFE  4886                     ext.w      D6
00000C00  2006                     move.l     D0, D6
00000C02  C1FC 00C0                muls.w     D0, 0xC0
00000C06  204D                     movea.l    A0, A5
00000C08  D1FC FFFE 42D4           add.l      A0, 0xFFFE42D4
00000C0E  2207                     move.l     D1, D7
00000C10  D241                     add.w      D1, D1
00000C12  D240                     add.w      D1, D0
00000C14  31BC 00D9 1000           move.w     [A0 + D1.w], 0xD9
00000C1A  4887                     ext.w      D7
00000C1C  4886                     ext.w      D6
00000C1E  2006                     move.l     D0, D6
00000C20  C1FC 00C0                muls.w     D0, 0xC0
00000C24  204D                     movea.l    A0, A5
00000C26  D1FC FFFE 42D4           add.l      A0, 0xFFFE42D4
00000C2C  2207                     move.l     D1, D7
00000C2E  D241                     add.w      D1, D1
00000C30  D240                     add.w      D1, D0
00000C32  0270 BFFF 1000           andi.w     [A0 + D1.w], 0xBFFF
00000C38  4887                     ext.w      D7
00000C3A  2005                     move.l     D0, D5
00000C3C  C1FC 0046                muls.w     D0, 0x46 /* 'F' */
00000C40  7200                     moveq.l    D1, 0x00
00000C42  1233 0005                move.b     D1, [A3 + D0.w + 0x5]
00000C46  3007                     move.w     D0, D7
00000C48  9041                     sub.w      D0, D1
00000C4A  48C0                     ext.l      D0
00000C4C  4886                     ext.w      D6
00000C4E  2205                     move.l     D1, D5
00000C50  C3FC 0046                muls.w     D1, 0x46 /* 'F' */
00000C54  7400                     moveq.l    D2, 0x00
00000C56  1433 1004                move.b     D2, [A3 + D1.w + 0x4]
00000C5A  3206                     move.w     D1, D6
00000C5C  9242                     sub.w      D1, D2
00000C5E  48C1                     ext.l      D1
00000C60  2405                     move.l     D2, D5
00000C62  C5FC 0046                muls.w     D2, 0x46 /* 'F' */
00000C66  D281                     add.l      D1, D1
00000C68  2601                     move.l     D3, D1
00000C6A  D683                     add.l      D3, D3
00000C6C  D283                     add.l      D1, D3
00000C6E  48C2                     ext.l      D2
00000C70  D282                     add.l      D1, D2
00000C72  D080                     add.l      D0, D0
00000C74  D081                     add.l      D0, D1
00000C76  3833 080A                move.w     D4, [A3 + D0 + 0xA]
00000C7A  4887                     ext.w      D7
00000C7C  2005                     move.l     D0, D5
00000C7E  C1FC 0046                muls.w     D0, 0x46 /* 'F' */
00000C82  7200                     moveq.l    D1, 0x00
00000C84  1233 0005                move.b     D1, [A3 + D0.w + 0x5]
00000C88  3007                     move.w     D0, D7
00000C8A  9041                     sub.w      D0, D1
00000C8C  48C0                     ext.l      D0
00000C8E  4886                     ext.w      D6
00000C90  2205                     move.l     D1, D5
00000C92  C3FC 0046                muls.w     D1, 0x46 /* 'F' */
00000C96  7400                     moveq.l    D2, 0x00
00000C98  1433 1004                move.b     D2, [A3 + D1.w + 0x4]
00000C9C  3206                     move.w     D1, D6
00000C9E  9242                     sub.w      D1, D2
00000CA0  48C1                     ext.l      D1
00000CA2  2405                     move.l     D2, D5
00000CA4  C5FC 0046                muls.w     D2, 0x46 /* 'F' */
00000CA8  D281                     add.l      D1, D1
00000CAA  2601                     move.l     D3, D1
00000CAC  D683                     add.l      D3, D3
00000CAE  D283                     add.l      D1, D3
00000CB0  48C2                     ext.l      D2
00000CB2  D282                     add.l      D1, D2
00000CB4  D080                     add.l      D0, D0
00000CB6  D081                     add.l      D0, D1
00000CB8  3D73 0822 FFFE           move.w     [A6 - 0x2], [A3 + D0 + 0x22]
00000CBE  70FF                     moveq.l    D0, 0xFFFFFFFF
00000CC0  B06E FFFE                cmp.w      D0, [A6 - 0x2]
00000CC4  6700 00EE                beq        +0xF0 /* 00000DB4 */
00000CC8  70FE                     moveq.l    D0, 0xFFFFFFFE
00000CCA  B06E FFFE                cmp.w      D0, [A6 - 0x2]
00000CCE  6700 00E4                beq        +0xE6 /* 00000DB4 */
00000CD2  0C44 0350                cmpi.w     D4, 0x350
00000CD6  6D00 008A                blt        +0x8C /* 00000D62 */
00000CDA  4887                     ext.w      D7
00000CDC  4886                     ext.w      D6
00000CDE  2006                     move.l     D0, D6
00000CE0  C1FC 00C0                muls.w     D0, 0xC0
00000CE4  204D                     movea.l    A0, A5
00000CE6  D1FC FFFE 42D4           add.l      A0, 0xFFFE42D4
00000CEC  2207                     move.l     D1, D7
00000CEE  D241                     add.w      D1, D1
00000CF0  D240                     add.w      D1, D0
00000CF2  0070 0800 1000           ori.w      [A0 + D1.w], 0x800
00000CF8  4887                     ext.w      D7
00000CFA  4886                     ext.w      D6
00000CFC  2006                     move.l     D0, D6
00000CFE  C1FC 00C0                muls.w     D0, 0xC0
00000D02  204D                     movea.l    A0, A5
00000D04  D1FC FFFD FAD4           add.l      A0, 0xFFFDFAD4
00000D0A  2207                     move.l     D1, D7
00000D0C  D241                     add.w      D1, D1
00000D0E  D240                     add.w      D1, D0
00000D10  7000                     moveq.l    D0, 0x00
00000D12  3030 1000                move.w     D0, [A0 + D1.w]
00000D16  323C F800                move.w     D1, 0xF800
00000D1A  C240                     and.w      D1, D0
00000D1C  7000                     moveq.l    D0, 0x00
00000D1E  3001                     move.w     D0, D1
00000D20  48C4                     ext.l      D4
00000D22  2204                     move.l     D1, D4
00000D24  8280                     or.l       D1, D0
00000D26  4887                     ext.w      D7
00000D28  4886                     ext.w      D6
00000D2A  2006                     move.l     D0, D6
00000D2C  C1FC 00C0                muls.w     D0, 0xC0
00000D30  204D                     movea.l    A0, A5
00000D32  D1FC FFFD FAD4           add.l      A0, 0xFFFDFAD4
00000D38  2407                     move.l     D2, D7
00000D3A  D442                     add.w      D2, D2
00000D3C  D440                     add.w      D2, D0
00000D3E  3181 2000                move.w     [A0 + D2.w], D1
00000D42  4887                     ext.w      D7
00000D44  4886                     ext.w      D6
00000D46  2006                     move.l     D0, D6
00000D48  C1FC 00C0                muls.w     D0, 0xC0
00000D4C  204D                     movea.l    A0, A5
00000D4E  D1FC FFFE 42D4           add.l      A0, 0xFFFE42D4
00000D54  2207                     move.l     D1, D7
00000D56  D241                     add.w      D1, D1
00000D58  D240                     add.w      D1, D0
00000D5A  0270 BFFF 1000           andi.w     [A0 + D1.w], 0xBFFF
00000D60  6052                     bra        +0x54 /* 00000DB4 */
label00000D62:
00000D62  4887                     ext.w      D7
00000D64  4886                     ext.w      D6
00000D66  2006                     move.l     D0, D6
00000D68  C1FC 00C0                muls.w     D0, 0xC0
00000D6C  204D                     movea.l    A0, A5
00000D6E  D1FC FFFE 42D4           add.l      A0, 0xFFFE42D4
00000D74  2207                     move.l     D1, D7
00000D76  D241                     add.w      D1, D1
00000D78  D240                     add.w      D1, D0
00000D7A  7000                     moveq.l    D0, 0x00
00000D7C  3030 1000                move.w     D0, [A0 + D1.w]
00000D80  323C F800                move.w     D1, 0xF800
00000D84  C240                     and.w      D1, D0
00000D86  7000                     moveq.l    D0, 0x00
00000D88  3001                     move.w     D0, D1
00000D8A  48C4                     ext.l      D4
00000D8C  2204                     move.l     D1, D4
00000D8E  8280                     or.l       D1, D0
00000D90  203C FFFF BFFF           move.l     D0, 0xFFFFBFFF
00000D96  C081                     and.l      D0, D1
00000D98  4887                     ext.w      D7
00000D9A  4886                     ext.w      D6
00000D9C  2206                     move.l     D1, D6
00000D9E  C3FC 00C0                muls.w     D1, 0xC0
00000DA2  204D                     movea.l    A0, A5
00000DA4  D1FC FFFE 42D4           add.l      A0, 0xFFFE42D4
00000DAA  2407                     move.l     D2, D7
00000DAC  D442                     add.w      D2, D2
00000DAE  D441                     add.w      D2, D1
00000DB0  3180 2000                move.w     [A0 + D2.w], D0
label00000DB4:
00000DB4  1007                     move.b     D0, D7
00000DB6  5207                     addq.b     D7, 1
label00000DB8:
00000DB8  4887                     ext.w      D7
00000DBA  2005                     move.l     D0, D5
00000DBC  C1FC 0046                muls.w     D0, 0x46 /* 'F' */
00000DC0  7200                     moveq.l    D1, 0x00
00000DC2  1233 0005                move.b     D1, [A3 + D0.w + 0x5]
00000DC6  102E FFFB                move.b     D0, [A6 - 0x5]
00000DCA  4880                     ext.w      D0
00000DCC  D041                     add.w      D0, D1
00000DCE  B047                     cmp.w      D0, D7
00000DD0  6E00 FDCA                bgt        -0x234 /* 00000B9C */
00000DD4  1006                     move.b     D0, D6
00000DD6  5206                     addq.b     D6, 1
label00000DD8:
00000DD8  4886                     ext.w      D6
00000DDA  2005                     move.l     D0, D5
00000DDC  C1FC 0046                muls.w     D0, 0x46 /* 'F' */
00000DE0  7200                     moveq.l    D1, 0x00
00000DE2  1233 0004                move.b     D1, [A3 + D0.w + 0x4]
00000DE6  102E FFFA                move.b     D0, [A6 - 0x6]
00000DEA  4880                     ext.w      D0
00000DEC  D041                     add.w      D0, D1
00000DEE  B046                     cmp.w      D0, D6
00000DF0  6E00 FD9C                bgt        -0x262 /* 00000B8E */
00000DF4  6000 0180                bra        +0x182 /* 00000F76 */
label00000DF8:
00000DF8  2005                     move.l     D0, D5
00000DFA  C1FC 0046                muls.w     D0, 0x46 /* 'F' */
00000DFE  1C33 0004                move.b     D6, [A3 + D0.w + 0x4]
00000E02  2005                     move.l     D0, D5
00000E04  C1FC 0046                muls.w     D0, 0x46 /* 'F' */
00000E08  1E33 0005                move.b     D7, [A3 + D0.w + 0x5]
00000E0C  2005                     move.l     D0, D5
00000E0E  C1FC 0046                muls.w     D0, 0x46 /* 'F' */
00000E12  7200                     moveq.l    D1, 0x00
00000E14  3233 0000                move.w     D1, [A3 + D0.w]
00000E18  7048                     moveq.l    D0, 0x48
00000E1A  B081                     cmp.l      D0, D1
00000E1C  6600 00C0                bne        +0xC2 /* 00000EDE */
00000E20  2005                     move.l     D0, D5
00000E22  C1FC 0046                muls.w     D0, 0x46 /* 'F' */
00000E26  7200                     moveq.l    D1, 0x00
00000E28  1233 0006                move.b     D1, [A3 + D0.w + 0x6]
00000E2C  0C01 0064                cmpi.b     D1, 0x64 /* 'd' */
00000E30  6554                     bcs        +0x56 /* 00000E86 */
00000E32  4887                     ext.w      D7
00000E34  4886                     ext.w      D6
00000E36  2006                     move.l     D0, D6
00000E38  C1FC 00C0                muls.w     D0, 0xC0
00000E3C  204D                     movea.l    A0, A5
00000E3E  D1FC FFFE 42D4           add.l      A0, 0xFFFE42D4
00000E44  2207                     move.l     D1, D7
00000E46  D241                     add.w      D1, D1
00000E48  D240                     add.w      D1, D0
00000E4A  7000                     moveq.l    D0, 0x00
00000E4C  3030 1000                move.w     D0, [A0 + D1.w]
00000E50  323C F800                move.w     D1, 0xF800
00000E54  C240                     and.w      D1, D0
00000E56  7000                     moveq.l    D0, 0x00
00000E58  3001                     move.w     D0, D1
00000E5A  323C 0095                move.w     D1, 0x95
00000E5E  8240                     or.w       D1, D0
00000E60  303C BFFF                move.w     D0, 0xBFFF
00000E64  C041                     and.w      D0, D1
00000E66  4887                     ext.w      D7
00000E68  4886                     ext.w      D6
00000E6A  2206                     move.l     D1, D6
00000E6C  C3FC 00C0                muls.w     D1, 0xC0
00000E70  204D                     movea.l    A0, A5
00000E72  D1FC FFFE 42D4           add.l      A0, 0xFFFE42D4
00000E78  2407                     move.l     D2, D7
00000E7A  D442                     add.w      D2, D2
00000E7C  D441                     add.w      D2, D1
00000E7E  3180 2000                move.w     [A0 + D2.w], D0
00000E82  6000 00F2                bra        +0xF4 /* 00000F76 */
label00000E86:
00000E86  4887                     ext.w      D7
00000E88  4886                     ext.w      D6
00000E8A  2006                     move.l     D0, D6
00000E8C  C1FC 00C0                muls.w     D0, 0xC0
00000E90  204D                     movea.l    A0, A5
00000E92  D1FC FFFE 42D4           add.l      A0, 0xFFFE42D4
00000E98  2207                     move.l     D1, D7
00000E9A  D241                     add.w      D1, D1
00000E9C  D240                     add.w      D1, D0
00000E9E  7000                     moveq.l    D0, 0x00
00000EA0  3030 1000                move.w     D0, [A0 + D1.w]
00000EA4  323C F800                move.w     D1, 0xF800
00000EA8  C240                     and.w      D1, D0
00000EAA  7000                     moveq.l    D0, 0x00
00000EAC  3001                     move.w     D0, D1
00000EAE  322E FFFC                move.w     D1, [A6 - 0x4]
00000EB2  48C1                     ext.l      D1
00000EB4  8280                     or.l       D1, D0
00000EB6  203C FFFF BFFF           move.l     D0, 0xFFFFBFFF
00000EBC  C081                     and.l      D0, D1
00000EBE  4887                     ext.w      D7
00000EC0  4886                     ext.w      D6
00000EC2  2206                     move.l     D1, D6
00000EC4  C3FC 00C0                muls.w     D1, 0xC0
00000EC8  204D                     movea.l    A0, A5
00000ECA  D1FC FFFE 42D4           add.l      A0, 0xFFFE42D4
00000ED0  2407                     move.l     D2, D7
00000ED2  D442                     add.w      D2, D2
00000ED4  D441                     add.w      D2, D1
00000ED6  3180 2000                move.w     [A0 + D2.w], D0
00000EDA  6000 009A                bra        +0x9C /* 00000F76 */
label00000EDE:
00000EDE  2005                     move.l     D0, D5
00000EE0  C1FC 0046                muls.w     D0, 0x46 /* 'F' */
00000EE4  1E33 0005                move.b     D7, [A3 + D0.w + 0x5]
00000EE8  6070                     bra        +0x72 /* 00000F5A */
label00000EEA:
00000EEA  2005                     move.l     D0, D5
00000EEC  C1FC 0046                muls.w     D0, 0x46 /* 'F' */
00000EF0  1C33 0004                move.b     D6, [A3 + D0.w + 0x4]
00000EF4  6046                     bra        +0x48 /* 00000F3C */
label00000EF6:
00000EF6  302E FFFC                move.w     D0, [A6 - 0x4]
00000EFA  526E FFFC                addq.w     [A6 - 0x4], 1
00000EFE  4887                     ext.w      D7
00000F00  4886                     ext.w      D6
00000F02  2206                     move.l     D1, D6
00000F04  C3FC 00C0                muls.w     D1, 0xC0
00000F08  204D                     movea.l    A0, A5
00000F0A  D1FC FFFE 42D4           add.l      A0, 0xFFFE42D4
00000F10  2407                     move.l     D2, D7
00000F12  D442                     add.w      D2, D2
00000F14  D441                     add.w      D2, D1
00000F16  3180 2000                move.w     [A0 + D2.w], D0
00000F1A  4887                     ext.w      D7
00000F1C  4886                     ext.w      D6
00000F1E  2006                     move.l     D0, D6
00000F20  C1FC 00C0                muls.w     D0, 0xC0
00000F24  204D                     movea.l    A0, A5
00000F26  D1FC FFFE 42D4           add.l      A0, 0xFFFE42D4
00000F2C  2207                     move.l     D1, D7
00000F2E  D241                     add.w      D1, D1
00000F30  D240                     add.w      D1, D0
00000F32  0270 BFFF 1000           andi.w     [A0 + D1.w], 0xBFFF
00000F38  1006                     move.b     D0, D6
00000F3A  5206                     addq.b     D6, 1
label00000F3C:
00000F3C  4886                     ext.w      D6
00000F3E  2005                     move.l     D0, D5
00000F40  C1FC 0046                muls.w     D0, 0x46 /* 'F' */
00000F44  7200                     moveq.l    D1, 0x00
00000F46  1233 0004                move.b     D1, [A3 + D0.w + 0x4]
00000F4A  102E FFFA                move.b     D0, [A6 - 0x6]
00000F4E  4880                     ext.w      D0
00000F50  D041                     add.w      D0, D1
00000F52  B046                     cmp.w      D0, D6
00000F54  6EA0                     bgt        -0x5E /* 00000EF6 */
00000F56  1007                     move.b     D0, D7
00000F58  5207                     addq.b     D7, 1
label00000F5A:
00000F5A  4887                     ext.w      D7
00000F5C  2005                     move.l     D0, D5
00000F5E  C1FC 0046                muls.w     D0, 0x46 /* 'F' */
00000F62  7200                     moveq.l    D1, 0x00
00000F64  1233 0005                move.b     D1, [A3 + D0.w + 0x5]
00000F68  102E FFFB                move.b     D0, [A6 - 0x5]
00000F6C  4880                     ext.w      D0
00000F6E  D041                     add.w      D0, D1
00000F70  B047                     cmp.w      D0, D7
00000F72  6E00 FF76                bgt        -0x88 /* 00000EEA */
label00000F76:
00000F76  204D                     movea.l    A0, A5
00000F78  D1FC FFFF 7868           add.l      A0, 0xFFFF7868
00000F7E  2050                     movea.l    A0, [A0]
00000F80  2D48 FFF6                move.l     [A6 - 0xA], A0
00000F84  2868 0128                movea.l    A4, [A0 + 0x128]
00000F88  7000                     moveq.l    D0, 0x00
00000F8A  2640                     movea.l    A3, D0
00000F8C  2F0B                     move.l     -[A7], A3
00000F8E  2F0C                     move.l     -[A7], A4
00000F90  2F3C 454D 6F76           move.l     -[A7], 0x454D6F76 /* 'EMov' */
00000F96  206C 00F0                movea.l    A0, [A4 + 0xF0]
00000F9A  2248                     movea.l    A1, A0
00000F9C  2269 0060                movea.l    A1, [A1 + 0x60]
00000FA0  D0E9 0058                add.w      A0, [A1 + 0x58]
00000FA4  2F08                     move.l     -[A7], A0
00000FA6  206C 00F0                movea.l    A0, [A4 + 0xF0]
00000FAA  2068 0060                movea.l    A0, [A0 + 0x60]
00000FAE  2268 005C                movea.l    A1, [A0 + 0x5C]
00000FB2  4E91                     jsr        [A1]
00000FB4  3005                     move.w     D0, D5
00000FB6  4FEF 0010                lea.l      A7, [A7 + 0x10]
00000FBA  6002                     bra        +0x4 /* 00000FBE */
label00000FBC:
00000FBC  7000                     moveq.l    D0, 0x00
label00000FBE:
00000FBE  4CEE 18F8 FFDA           movem.l    D3,D4,D5,D6,D7,A3,A4, [A6 - 0x26]
00000FC4  4E5E                     unlink     A6
00000FC6  4E75                     rts
00000FC8  916F 706E 636C 6F73 6... dc.b       "opnclosbldg__FsT1"
export_293:
00000FDC  4E56 FFEE                link       A6, -0x0012
00000FE0  48E7 1F18                movem.l    -[A7], D3,D4,D5,D6,D7,A3,A4
00000FE4  266E 0018                movea.l    A3, [A6 + 0x18]
00000FE8  204D                     movea.l    A0, A5
00000FEA  D1FC FFFE D880           add.l      A0, 0xFFFED880
00000FF0  49D0                     lea.l      A4, [A0]
00000FF2  3A2E 000A                move.w     D5, [A6 + 0xA]
00000FF6  3D6B 0002 FFFA           move.w     [A6 - 0x6], [A3 + 0x2]
00000FFC  1D6B 0008 FFF8           move.b     [A6 - 0x8], [A3 + 0x8]
00001002  1D6B 0009 FFF9           move.b     [A6 - 0x7], [A3 + 0x9]
00001008  7000                     moveq.l    D0, 0x00
0000100A  1013                     move.b     D0, [A3]
0000100C  3D40 FFFE                move.w     [A6 - 0x2], D0
00001010  2005                     move.l     D0, D5
00001012  C1FC 0046                muls.w     D0, 0x46 /* 'F' */
00001016  7200                     moveq.l    D1, 0x00
00001018  3234 0000                move.w     D1, [A4 + D0.w]
0000101C  7040                     moveq.l    D0, 0x40
0000101E  B081                     cmp.l      D0, D1
00001020  6712                     beq        +0x14 /* 00001034 */
00001022  2005                     move.l     D0, D5
00001024  C1FC 0046                muls.w     D0, 0x46 /* 'F' */
00001028  7200                     moveq.l    D1, 0x00
0000102A  3234 0000                move.w     D1, [A4 + D0.w]
0000102E  7041                     moveq.l    D0, 0x41
00001030  B081                     cmp.l      D0, D1
00001032  6610                     bne        +0x12 /* 00001044 */
label00001034:
00001034  0C6E 00A8 FFFA           cmpi.w     [A6 - 0x6], 0xA8
0000103A  6D08                     blt        +0xA /* 00001044 */
0000103C  0C6E 00BF FFFA           cmpi.w     [A6 - 0x6], 0xBF
00001042  6F14                     ble        +0x16 /* 00001058 */
label00001044:
00001044  0C6E 00C0 FFFA           cmpi.w     [A6 - 0x6], 0xC0
0000104A  6D00 0152                blt        +0x154 /* 0000119E */
0000104E  0C6E 00D7 FFFA           cmpi.w     [A6 - 0x6], 0xD7
00001054  6E00 0148                bgt        +0x14A /* 0000119E */
label00001058:
00001058  486E FFF7                pea.l      [A6 - 0x9]
0000105C  486E FFF6                pea.l      [A6 - 0xA]
00001060  486E FFF5                pea.l      [A6 - 0xB]
00001064  102E FFF9                move.b     D0, [A6 - 0x7]
00001068  49C0                     lea.l      A4, D0
0000106A  2F00                     move.l     -[A7], D0
0000106C  102E FFF8                move.b     D0, [A6 - 0x8]
00001070  49C0                     lea.l      A4, D0
00001072  2F00                     move.l     -[A7], D0
00001074  48C5                     ext.l      D5
00001076  2F05                     move.l     -[A7], D5
00001078  4EBA 0842                jsr        [PC + 0x842 /* 000018BC */]
0000107C  4A40                     tst.w      D0
0000107E  4FEF 0018                lea.l      A7, [A7 + 0x18]
00001082  6700 0114                beq        +0x116 /* 00001198 */
00001086  2005                     move.l     D0, D5
00001088  C1FC 0046                muls.w     D0, 0x46 /* 'F' */
0000108C  122E FFF5                move.b     D1, [A6 - 0xB]
00001090  D234 0004                add.b      D1, [A4 + D0.w + 0x4]
00001094  302E 000E                move.w     D0, [A6 + 0xE]
00001098  C1FC 000C                muls.w     D0, 0xC
0000109C  204D                     movea.l    A0, A5
0000109E  D1FC FFFD 9400           add.l      A0, 0xFFFD9400
000010A4  1181 0008                move.b     [A0 + D0.w + 0x8], D1
000010A8  2005                     move.l     D0, D5
000010AA  C1FC 0046                muls.w     D0, 0x46 /* 'F' */
000010AE  122E FFF6                move.b     D1, [A6 - 0xA]
000010B2  D234 0005                add.b      D1, [A4 + D0.w + 0x5]
000010B6  302E 000E                move.w     D0, [A6 + 0xE]
000010BA  C1FC 000C                muls.w     D0, 0xC
000010BE  204D                     movea.l    A0, A5
000010C0  D1FC FFFD 9400           add.l      A0, 0xFFFD9400
000010C6  1181 0009                move.b     [A0 + D0.w + 0x9], D1
000010CA  4204                     clr.b      D4
000010CC  1C2E FFF5                move.b     D6, [A6 - 0xB]
000010D0  6000 00AC                bra        +0xAE /* 0000117E */
label000010D4:
000010D4  1E2E FFF6                move.b     D7, [A6 - 0xA]
000010D8  6000 008A                bra        +0x8C /* 00001164 */
label000010DC:
000010DC  4887                     ext.w      D7
000010DE  49C6                     lea.l      A4, D6
000010E0  2005                     move.l     D0, D5
000010E2  C1FC 0046                muls.w     D0, 0x46 /* 'F' */
000010E6  2206                     move.l     D1, D6
000010E8  2401                     move.l     D2, D1
000010EA  D281                     add.l      D1, D1
000010EC  D282                     add.l      D1, D2
000010EE  48C0                     ext.l      D0
000010F0  D280                     add.l      D1, D0
000010F2  2007                     move.l     D0, D7
000010F4  48C0                     ext.l      D0
000010F6  D081                     add.l      D0, D1
000010F8  19AE 000F 083A           move.b     [A4 + D0 + 0x3A], [A6 + 0xF]
000010FE  49C7                     lea.l      A4, D7
00001100  49C6                     lea.l      A4, D6
00001102  2005                     move.l     D0, D5
00001104  C1FC 0046                muls.w     D0, 0x46 /* 'F' */
00001108  2206                     move.l     D1, D6
0000110A  D281                     add.l      D1, D1
0000110C  2401                     move.l     D2, D1
0000110E  D482                     add.l      D2, D2
00001110  D282                     add.l      D1, D2
00001112  48C0                     ext.l      D0
00001114  D280                     add.l      D1, D0
00001116  2007                     move.l     D0, D7
00001118  D080                     add.l      D0, D0
0000111A  D081                     add.l      D0, D1
0000111C  39AE FFFA 0822           move.w     [A4 + D0 + 0x22], [A6 - 0x6]
00001122  302E FFFE                move.w     D0, [A6 - 0x2]
00001126  D040                     add.w      D0, D0
00001128  204D                     movea.l    A0, A5
0000112A  D1FC FFFF 7942           add.l      A0, 0xFFFF7942
00001130  3030 0000                move.w     D0, [A0 + D0.w]
00001134  48C0                     ext.l      D0
00001136  49C4                     lea.l      A4, D4
00001138  D084                     add.l      D0, D4
0000113A  49C7                     lea.l      A4, D7
0000113C  49C6                     lea.l      A4, D6
0000113E  2205                     move.l     D1, D5
00001140  C3FC 0046                muls.w     D1, 0x46 /* 'F' */
00001144  2406                     move.l     D2, D6
00001146  D482                     add.l      D2, D2
00001148  2602                     move.l     D3, D2
0000114A  D683                     add.l      D3, D3
0000114C  D483                     add.l      D2, D3
0000114E  48C1                     ext.l      D1
00001150  D481                     add.l      D2, D1
00001152  2207                     move.l     D1, D7
00001154  D281                     add.l      D1, D1
00001156  D282                     add.l      D1, D2
00001158  3980 180A                move.w     [A4 + D1 + 0xA], D0
0000115C  1004                     move.b     D0, D4
0000115E  5204                     addq.b     D4, 1
00001160  1007                     move.b     D0, D7
00001162  5207                     addq.b     D7, 1
label00001164:
00001164  4887                     ext.w      D7
00001166  102E FFF6                move.b     D0, [A6 - 0xA]
0000116A  4880                     ext.w      D0
0000116C  122E FFF9                move.b     D1, [A6 - 0x7]
00001170  4881                     ext.w      D1
00001172  D240                     add.w      D1, D0
00001174  B247                     cmp.w      D1, D7
00001176  6E00 FF64                bgt        -0x9A /* 000010DC */
0000117A  1006                     move.b     D0, D6
0000117C  5206                     addq.b     D6, 1
label0000117E:
0000117E  4886                     ext.w      D6
00001180  102E FFF5                move.b     D0, [A6 - 0xB]
00001184  4880                     ext.w      D0
00001186  122E FFF8                move.b     D1, [A6 - 0x8]
0000118A  4881                     ext.w      D1
0000118C  D240                     add.w      D1, D0
0000118E  B246                     cmp.w      D1, D6
00001190  6E00 FF42                bgt        -0xBC /* 000010D4 */
00001194  6000 06BC                bra        +0x6BE /* 00001852 */
label00001198:
00001198  7000                     moveq.l    D0, 0x00
0000119A  6000 06FC                bra        +0x6FE /* 00001898 */
label0000119E:
0000119E  2005                     move.l     D0, D5
000011A0  C1FC 0046                muls.w     D0, 0x46 /* 'F' */
000011A4  7200                     moveq.l    D1, 0x00
000011A6  3234 0000                move.w     D1, [A4 + D0.w]
000011AA  7042                     moveq.l    D0, 0x42
000011AC  B081                     cmp.l      D0, D1
000011AE  6738                     beq        +0x3A /* 000011E8 */
000011B0  2005                     move.l     D0, D5
000011B2  C1FC 0046                muls.w     D0, 0x46 /* 'F' */
000011B6  7200                     moveq.l    D1, 0x00
000011B8  3234 0000                move.w     D1, [A4 + D0.w]
000011BC  7043                     moveq.l    D0, 0x43
000011BE  B081                     cmp.l      D0, D1
000011C0  6726                     beq        +0x28 /* 000011E8 */
000011C2  2005                     move.l     D0, D5
000011C4  C1FC 0046                muls.w     D0, 0x46 /* 'F' */
000011C8  7200                     moveq.l    D1, 0x00
000011CA  3234 0000                move.w     D1, [A4 + D0.w]
000011CE  7044                     moveq.l    D0, 0x44
000011D0  B081                     cmp.l      D0, D1
000011D2  6714                     beq        +0x16 /* 000011E8 */
000011D4  2005                     move.l     D0, D5
000011D6  C1FC 0046                muls.w     D0, 0x46 /* 'F' */
000011DA  7200                     moveq.l    D1, 0x00
000011DC  3234 0000                move.w     D1, [A4 + D0.w]
000011E0  7045                     moveq.l    D0, 0x45
000011E2  B081                     cmp.l      D0, D1
000011E4  6600 0668                bne        +0x66A /* 0000184E */
label000011E8:
000011E8  486E FFF7                pea.l      [A6 - 0x9]
000011EC  486E FFF6                pea.l      [A6 - 0xA]
000011F0  486E FFF5                pea.l      [A6 - 0xB]
000011F4  102E FFF9                move.b     D0, [A6 - 0x7]
000011F8  49C0                     lea.l      A4, D0
000011FA  2F00                     move.l     -[A7], D0
000011FC  102E FFF8                move.b     D0, [A6 - 0x8]
00001200  49C0                     lea.l      A4, D0
00001202  2F00                     move.l     -[A7], D0
00001204  48C5                     ext.l      D5
00001206  2F05                     move.l     -[A7], D5
00001208  4EBA 06B2                jsr        [PC + 0x6B2 /* 000018BC */]
0000120C  4A40                     tst.w      D0
0000120E  4FEF 0018                lea.l      A7, [A7 + 0x18]
00001212  6700 0636                beq        +0x638 /* 0000184A */
00001216  4204                     clr.b      D4
00001218  4A2E FFF7                tst.b      [A6 - 0x9]
0000121C  6600 02F8                bne        +0x2FA /* 00001516 */
00001220  4A6E 000E                tst.w      [A6 + 0xE]
00001224  6700 0224                beq        +0x226 /* 0000144A */
00001228  0C6E 00A0 FFFA           cmpi.w     [A6 - 0x6], 0xA0
0000122E  6D00 0090                blt        +0x92 /* 000012C0 */
00001232  0C6E 00A7 FFFA           cmpi.w     [A6 - 0x6], 0xA7
00001238  6E00 0086                bgt        +0x88 /* 000012C0 */
0000123C  3D6E 000E FFF0           move.w     [A6 - 0x10], [A6 + 0xE]
00001242  2005                     move.l     D0, D5
00001244  C1FC 0046                muls.w     D0, 0x46 /* 'F' */
00001248  7200                     moveq.l    D1, 0x00
0000124A  1234 0004                move.b     D1, [A4 + D0.w + 0x4]
0000124E  102E FFF5                move.b     D0, [A6 - 0xB]
00001252  4880                     ext.w      D0
00001254  D041                     add.w      D0, D1
00001256  322E FFF0                move.w     D1, [A6 - 0x10]
0000125A  C3FC 0022                muls.w     D1, 0x22 /* '\"' */
0000125E  204D                     movea.l    A0, A5
00001260  D1FC FFFD 71EC           add.l      A0, 0xFFFD71EC
00001266  1180 1000                move.b     [A0 + D1.w], D0
0000126A  2005                     move.l     D0, D5
0000126C  C1FC 0046                muls.w     D0, 0x46 /* 'F' */
00001270  7200                     moveq.l    D1, 0x00
00001272  1234 0005                move.b     D1, [A4 + D0.w + 0x5]
00001276  102E FFF6                move.b     D0, [A6 - 0xA]
0000127A  4880                     ext.w      D0
0000127C  D041                     add.w      D0, D1
0000127E  322E FFF0                move.w     D1, [A6 - 0x10]
00001282  C3FC 0022                muls.w     D1, 0x22 /* '\"' */
00001286  204D                     movea.l    A0, A5
00001288  D1FC FFFD 71EC           add.l      A0, 0xFFFD71EC
0000128E  1180 1001                move.b     [A0 + D1.w + 0x1], D0
00001292  302E FFF0                move.w     D0, [A6 - 0x10]
00001296  C1FC 0022                muls.w     D0, 0x22 /* '\"' */
0000129A  204D                     movea.l    A0, A5
0000129C  D1FC FFFD 71EC           add.l      A0, 0xFFFD71EC
000012A2  0070 0004 0002           ori.w      [A0 + D0.w + 0x2], 0x4
000012A8  302E FFF0                move.w     D0, [A6 - 0x10]
000012AC  C1FC 0022                muls.w     D0, 0x22 /* '\"' */
000012B0  204D                     movea.l    A0, A5
000012B2  D1FC FFFD 71EC           add.l      A0, 0xFFFD71EC
000012B8  3185 0010                move.w     [A0 + D0.w + 0x10], D5
000012BC  6000 018C                bra        +0x18E /* 0000144A */
label000012C0:
000012C0  4A6E FFFA                tst.w      [A6 - 0x6]
000012C4  6D00 008E                blt        +0x90 /* 00001354 */
000012C8  703F                     moveq.l    D0, 0x3F
000012CA  B06E FFFA                cmp.w      D0, [A6 - 0x6]
000012CE  6D00 0084                blt        +0x86 /* 00001354 */
000012D2  3D6E 000E FFEE           move.w     [A6 - 0x12], [A6 + 0xE]
000012D8  2005                     move.l     D0, D5
000012DA  C1FC 0046                muls.w     D0, 0x46 /* 'F' */
000012DE  7200                     moveq.l    D1, 0x00
000012E0  1234 0004                move.b     D1, [A4 + D0.w + 0x4]
000012E4  102E FFF5                move.b     D0, [A6 - 0xB]
000012E8  4880                     ext.w      D0
000012EA  D041                     add.w      D0, D1
000012EC  322E FFEE                move.w     D1, [A6 - 0x12]
000012F0  C3FC 003A                muls.w     D1, 0x3A /* ':' */
000012F4  204D                     movea.l    A0, A5
000012F6  D1FC FFFE 9F9C           add.l      A0, 0xFFFE9F9C
000012FC  1180 1005                move.b     [A0 + D1.w + 0x5], D0
00001300  2005                     move.l     D0, D5
00001302  C1FC 0046                muls.w     D0, 0x46 /* 'F' */
00001306  7200                     moveq.l    D1, 0x00
00001308  1234 0005                move.b     D1, [A4 + D0.w + 0x5]
0000130C  102E FFF6                move.b     D0, [A6 - 0xA]
00001310  4880                     ext.w      D0
00001312  D041                     add.w      D0, D1
00001314  322E FFEE                move.w     D1, [A6 - 0x12]
00001318  C3FC 003A                muls.w     D1, 0x3A /* ':' */
0000131C  204D                     movea.l    A0, A5
0000131E  D1FC FFFE 9F9C           add.l      A0, 0xFFFE9F9C
00001324  1180 1006                move.b     [A0 + D1.w + 0x6], D0
00001328  302E FFEE                move.w     D0, [A6 - 0x12]
0000132C  C1FC 003A                muls.w     D0, 0x3A /* ':' */
00001330  204D                     movea.l    A0, A5
00001332  D1FC FFFE 9F9C           add.l      A0, 0xFFFE9F9C
00001338  0070 0004 0002           ori.w      [A0 + D0.w + 0x2], 0x4
0000133E  7000                     moveq.l    D0, 0x00
00001340  2F00                     move.l     -[A7], D0
00001342  322E FFEE                move.w     D1, [A6 - 0x12]
00001346  48C1                     ext.l      D1
00001348  2F01                     move.l     -[A7], D1
0000134A  4EAD 059A                jsr        [A5 + 0x59A /* export_175, CODE:10 @ 00001B82 */]
0000134E  504F                     addq.w     A7, 8
00001350  6000 00F8                bra        +0xFA /* 0000144A */
label00001354:
00001354  0C6E 00DC FFFA           cmpi.w     [A6 - 0x6], 0xDC
0000135A  6D00 008C                blt        +0x8E /* 000013E8 */
0000135E  0C6E 00DF FFFA           cmpi.w     [A6 - 0x6], 0xDF
00001364  6E00 0082                bgt        +0x84 /* 000013E8 */
00001368  3D6E 000E FFF2           move.w     [A6 - 0xE], [A6 + 0xE]
0000136E  2005                     move.l     D0, D5
00001370  C1FC 0046                muls.w     D0, 0x46 /* 'F' */
00001374  7200                     moveq.l    D1, 0x00
00001376  1234 0004                move.b     D1, [A4 + D0.w + 0x4]
0000137A  102E FFF5                move.b     D0, [A6 - 0xB]
0000137E  4880                     ext.w      D0
00001380  D041                     add.w      D0, D1
00001382  322E FFF2                move.w     D1, [A6 - 0xE]
00001386  48C1                     ext.l      D1
00001388  E589                     lsl        D1, 2
0000138A  2401                     move.l     D2, D1
0000138C  E589                     lsl        D1, 2
0000138E  D282                     add.l      D1, D2
00001390  204D                     movea.l    A0, A5
00001392  D1FC FFFE 8AF0           add.l      A0, 0xFFFE8AF0
00001398  1180 1005                move.b     [A0 + D1.w + 0x5], D0
0000139C  2005                     move.l     D0, D5
0000139E  C1FC 0046                muls.w     D0, 0x46 /* 'F' */
000013A2  7200                     moveq.l    D1, 0x00
000013A4  1234 0005                move.b     D1, [A4 + D0.w + 0x5]
000013A8  102E FFF6                move.b     D0, [A6 - 0xA]
000013AC  4880                     ext.w      D0
000013AE  D041                     add.w      D0, D1
000013B0  322E FFF2                move.w     D1, [A6 - 0xE]
000013B4  48C1                     ext.l      D1
000013B6  E589                     lsl        D1, 2
000013B8  2401                     move.l     D2, D1
000013BA  E589                     lsl        D1, 2
000013BC  D282                     add.l      D1, D2
000013BE  204D                     movea.l    A0, A5
000013C0  D1FC FFFE 8AF0           add.l      A0, 0xFFFE8AF0
000013C6  1180 1006                move.b     [A0 + D1.w + 0x6], D0
000013CA  302E FFF2                move.w     D0, [A6 - 0xE]
000013CE  48C0                     ext.l      D0
000013D0  E588                     lsl        D0, 2
000013D2  2200                     move.l     D1, D0
000013D4  E588                     lsl        D0, 2
000013D6  D081                     add.l      D0, D1
000013D8  204D                     movea.l    A0, A5
000013DA  D1FC FFFE 8AF0           add.l      A0, 0xFFFE8AF0
000013E0  0070 0004 0002           ori.w      [A0 + D0.w + 0x2], 0x4
000013E6  6062                     bra        +0x64 /* 0000144A */
label000013E8:
000013E8  0C6E 012C FFFA           cmpi.w     [A6 - 0x6], 0x12C
000013EE  665A                     bne        +0x5C /* 0000144A */
000013F0  2005                     move.l     D0, D5
000013F2  C1FC 0046                muls.w     D0, 0x46 /* 'F' */
000013F6  122E FFF5                move.b     D1, [A6 - 0xB]
000013FA  D234 0004                add.b      D1, [A4 + D0.w + 0x4]
000013FE  302E 000E                move.w     D0, [A6 + 0xE]
00001402  C1FC 000C                muls.w     D0, 0xC
00001406  204D                     movea.l    A0, A5
00001408  D1FC FFFD 9400           add.l      A0, 0xFFFD9400
0000140E  1181 0008                move.b     [A0 + D0.w + 0x8], D1
00001412  2005                     move.l     D0, D5
00001414  C1FC 0046                muls.w     D0, 0x46 /* 'F' */
00001418  122E FFF6                move.b     D1, [A6 - 0xA]
0000141C  D234 0005                add.b      D1, [A4 + D0.w + 0x5]
00001420  302E 000E                move.w     D0, [A6 + 0xE]
00001424  C1FC 000C                muls.w     D0, 0xC
00001428  204D                     movea.l    A0, A5
0000142A  D1FC FFFD 9400           add.l      A0, 0xFFFD9400
00001430  1181 0009                move.b     [A0 + D0.w + 0x9], D1
00001434  302E 000E                move.w     D0, [A6 + 0xE]
00001438  C1FC 000C                muls.w     D0, 0xC
0000143C  204D                     movea.l    A0, A5
0000143E  D1FC FFFD 9400           add.l      A0, 0xFFFD9400
00001444  0030 0004 000A           ori.b      [A0 + D0.w + 0xA], 0x4
label0000144A:
0000144A  1C2E FFF5                move.b     D6, [A6 - 0xB]
0000144E  6000 00AC                bra        +0xAE /* 000014FC */
label00001452:
00001452  1E2E FFF6                move.b     D7, [A6 - 0xA]
00001456  6000 008A                bra        +0x8C /* 000014E2 */
label0000145A:
0000145A  4887                     ext.w      D7
0000145C  49C6                     lea.l      A4, D6
0000145E  2005                     move.l     D0, D5
00001460  C1FC 0046                muls.w     D0, 0x46 /* 'F' */
00001464  2206                     move.l     D1, D6
00001466  2401                     move.l     D2, D1
00001468  D281                     add.l      D1, D1
0000146A  D282                     add.l      D1, D2
0000146C  48C0                     ext.l      D0
0000146E  D280                     add.l      D1, D0
00001470  2007                     move.l     D0, D7
00001472  48C0                     ext.l      D0
00001474  D081                     add.l      D0, D1
00001476  19AE 000F 083A           move.b     [A4 + D0 + 0x3A], [A6 + 0xF]
0000147C  49C7                     lea.l      A4, D7
0000147E  49C6                     lea.l      A4, D6
00001480  2005                     move.l     D0, D5
00001482  C1FC 0046                muls.w     D0, 0x46 /* 'F' */
00001486  2206                     move.l     D1, D6
00001488  D281                     add.l      D1, D1
0000148A  2401                     move.l     D2, D1
0000148C  D482                     add.l      D2, D2
0000148E  D282                     add.l      D1, D2
00001490  48C0                     ext.l      D0
00001492  D280                     add.l      D1, D0
00001494  2007                     move.l     D0, D7
00001496  D080                     add.l      D0, D0
00001498  D081                     add.l      D0, D1
0000149A  39AE FFFA 0822           move.w     [A4 + D0 + 0x22], [A6 - 0x6]
000014A0  302E FFFE                move.w     D0, [A6 - 0x2]
000014A4  D040                     add.w      D0, D0
000014A6  204D                     movea.l    A0, A5
000014A8  D1FC FFFF 7942           add.l      A0, 0xFFFF7942
000014AE  3030 0000                move.w     D0, [A0 + D0.w]
000014B2  48C0                     ext.l      D0
000014B4  49C4                     lea.l      A4, D4
000014B6  D084                     add.l      D0, D4
000014B8  49C7                     lea.l      A4, D7
000014BA  49C6                     lea.l      A4, D6
000014BC  2205                     move.l     D1, D5
000014BE  C3FC 0046                muls.w     D1, 0x46 /* 'F' */
000014C2  2406                     move.l     D2, D6
000014C4  D482                     add.l      D2, D2
000014C6  2602                     move.l     D3, D2
000014C8  D683                     add.l      D3, D3
000014CA  D483                     add.l      D2, D3
000014CC  48C1                     ext.l      D1
000014CE  D481                     add.l      D2, D1
000014D0  2207                     move.l     D1, D7
000014D2  D281                     add.l      D1, D1
000014D4  D282                     add.l      D1, D2
000014D6  3980 180A                move.w     [A4 + D1 + 0xA], D0
000014DA  1004                     move.b     D0, D4
000014DC  5204                     addq.b     D4, 1
000014DE  1007                     move.b     D0, D7
000014E0  5207                     addq.b     D7, 1
label000014E2:
000014E2  4887                     ext.w      D7
000014E4  102E FFF6                move.b     D0, [A6 - 0xA]
000014E8  4880                     ext.w      D0
000014EA  122E FFF9                move.b     D1, [A6 - 0x7]
000014EE  4881                     ext.w      D1
000014F0  D240                     add.w      D1, D0
000014F2  B247                     cmp.w      D1, D7
000014F4  6E00 FF64                bgt        -0x9A /* 0000145A */
000014F8  1006                     move.b     D0, D6
000014FA  5206                     addq.b     D6, 1
label000014FC:
000014FC  4886                     ext.w      D6
000014FE  102E FFF5                move.b     D0, [A6 - 0xB]
00001502  4880                     ext.w      D0
00001504  122E FFF8                move.b     D1, [A6 - 0x8]
00001508  4881                     ext.w      D1
0000150A  D240                     add.w      D1, D0
0000150C  B246                     cmp.w      D1, D6
0000150E  6E00 FF42                bgt        -0xBC /* 00001452 */
00001512  6000 033E                bra        +0x340 /* 00001852 */
label00001516:
00001516  7001                     moveq.l    D0, 0x01
00001518  B02E FFF7                cmp.b      D0, [A6 - 0x9]
0000151C  6600 0334                bne        +0x336 /* 00001852 */
00001520  4204                     clr.b      D4
00001522  102B 000A                move.b     D0, [A3 + 0xA]
00001526  4880                     ext.w      D0
00001528  122E FFF8                move.b     D1, [A6 - 0x8]
0000152C  4881                     ext.w      D1
0000152E  142E FFF9                move.b     D2, [A6 - 0x7]
00001532  4882                     ext.w      D2
00001534  C5C1                     muls.w     D2, D1
00001536  C5C0                     muls.w     D2, D0
00001538  3D42 FFFC                move.w     [A6 - 0x4], D2
0000153C  4A6E FFFA                tst.w      [A6 - 0x6]
00001540  6D00 0236                blt        +0x238 /* 00001778 */
00001544  703F                     moveq.l    D0, 0x3F
00001546  B06E FFFA                cmp.w      D0, [A6 - 0x6]
0000154A  6D00 022C                blt        +0x22E /* 00001778 */
0000154E  4A6E 000E                tst.w      [A6 + 0xE]
00001552  6700 0224                beq        +0x226 /* 00001778 */
00001556  0C6E 00A0 FFFA           cmpi.w     [A6 - 0x6], 0xA0
0000155C  6D00 0090                blt        +0x92 /* 000015EE */
00001560  0C6E 00A7 FFFA           cmpi.w     [A6 - 0x6], 0xA7
00001566  6E00 0086                bgt        +0x88 /* 000015EE */
0000156A  3D6E 000E FFF0           move.w     [A6 - 0x10], [A6 + 0xE]
00001570  2005                     move.l     D0, D5
00001572  C1FC 0046                muls.w     D0, 0x46 /* 'F' */
00001576  7200                     moveq.l    D1, 0x00
00001578  1234 0004                move.b     D1, [A4 + D0.w + 0x4]
0000157C  102E FFF5                move.b     D0, [A6 - 0xB]
00001580  4880                     ext.w      D0
00001582  D041                     add.w      D0, D1
00001584  322E FFF0                move.w     D1, [A6 - 0x10]
00001588  C3FC 0022                muls.w     D1, 0x22 /* '\"' */
0000158C  204D                     movea.l    A0, A5
0000158E  D1FC FFFD 71EC           add.l      A0, 0xFFFD71EC
00001594  1180 1000                move.b     [A0 + D1.w], D0
00001598  2005                     move.l     D0, D5
0000159A  C1FC 0046                muls.w     D0, 0x46 /* 'F' */
0000159E  7200                     moveq.l    D1, 0x00
000015A0  1234 0005                move.b     D1, [A4 + D0.w + 0x5]
000015A4  102E FFF6                move.b     D0, [A6 - 0xA]
000015A8  4880                     ext.w      D0
000015AA  D041                     add.w      D0, D1
000015AC  322E FFF0                move.w     D1, [A6 - 0x10]
000015B0  C3FC 0022                muls.w     D1, 0x22 /* '\"' */
000015B4  204D                     movea.l    A0, A5
000015B6  D1FC FFFD 71EC           add.l      A0, 0xFFFD71EC
000015BC  1180 1001                move.b     [A0 + D1.w + 0x1], D0
000015C0  302E FFF0                move.w     D0, [A6 - 0x10]
000015C4  C1FC 0022                muls.w     D0, 0x22 /* '\"' */
000015C8  204D                     movea.l    A0, A5
000015CA  D1FC FFFD 71EC           add.l      A0, 0xFFFD71EC
000015D0  0070 0004 0002           ori.w      [A0 + D0.w + 0x2], 0x4
000015D6  302E FFF0                move.w     D0, [A6 - 0x10]
000015DA  C1FC 0022                muls.w     D0, 0x22 /* '\"' */
000015DE  204D                     movea.l    A0, A5
000015E0  D1FC FFFD 71EC           add.l      A0, 0xFFFD71EC
000015E6  3185 0010                move.w     [A0 + D0.w + 0x10], D5
000015EA  6000 018C                bra        +0x18E /* 00001778 */
label000015EE:
000015EE  4A6E FFFA                tst.w      [A6 - 0x6]
000015F2  6D00 008E                blt        +0x90 /* 00001682 */
000015F6  703F                     moveq.l    D0, 0x3F
000015F8  B06E FFFA                cmp.w      D0, [A6 - 0x6]
000015FC  6D00 0084                blt        +0x86 /* 00001682 */
00001600  3D6E 000E FFEE           move.w     [A6 - 0x12], [A6 + 0xE]
00001606  2005                     move.l     D0, D5
00001608  C1FC 0046                muls.w     D0, 0x46 /* 'F' */
0000160C  7200                     moveq.l    D1, 0x00
0000160E  1234 0004                move.b     D1, [A4 + D0.w + 0x4]
00001612  102E FFF5                move.b     D0, [A6 - 0xB]
00001616  4880                     ext.w      D0
00001618  D041                     add.w      D0, D1
0000161A  322E FFEE                move.w     D1, [A6 - 0x12]
0000161E  C3FC 003A                muls.w     D1, 0x3A /* ':' */
00001622  204D                     movea.l    A0, A5
00001624  D1FC FFFE 9F9C           add.l      A0, 0xFFFE9F9C
0000162A  1180 1005                move.b     [A0 + D1.w + 0x5], D0
0000162E  2005                     move.l     D0, D5
00001630  C1FC 0046                muls.w     D0, 0x46 /* 'F' */
00001634  7200                     moveq.l    D1, 0x00
00001636  1234 0005                move.b     D1, [A4 + D0.w + 0x5]
0000163A  102E FFF6                move.b     D0, [A6 - 0xA]
0000163E  4880                     ext.w      D0
00001640  D041                     add.w      D0, D1
00001642  322E FFEE                move.w     D1, [A6 - 0x12]
00001646  C3FC 003A                muls.w     D1, 0x3A /* ':' */
0000164A  204D                     movea.l    A0, A5
0000164C  D1FC FFFE 9F9C           add.l      A0, 0xFFFE9F9C
00001652  1180 1006                move.b     [A0 + D1.w + 0x6], D0
00001656  7002                     moveq.l    D0, 0x02
00001658  2F00                     move.l     -[A7], D0
0000165A  322E FFEE                move.w     D1, [A6 - 0x12]
0000165E  48C1                     ext.l      D1
00001660  2F01                     move.l     -[A7], D1
00001662  4EAD 059A                jsr        [A5 + 0x59A /* export_175, CODE:10 @ 00001B82 */]
00001666  302E FFEE                move.w     D0, [A6 - 0x12]
0000166A  C1FC 003A                muls.w     D0, 0x3A /* ':' */
0000166E  204D                     movea.l    A0, A5
00001670  D1FC FFFE 9F9C           add.l      A0, 0xFFFE9F9C
00001676  0070 0004 0002           ori.w      [A0 + D0.w + 0x2], 0x4
0000167C  504F                     addq.w     A7, 8
0000167E  6000 00F8                bra        +0xFA /* 00001778 */
label00001682:
00001682  0C6E 00DC FFFA           cmpi.w     [A6 - 0x6], 0xDC
00001688  6D00 008C                blt        +0x8E /* 00001716 */
0000168C  0C6E 00DF FFFA           cmpi.w     [A6 - 0x6], 0xDF
00001692  6E00 0082                bgt        +0x84 /* 00001716 */
00001696  3D6E 000E FFF2           move.w     [A6 - 0xE], [A6 + 0xE]
0000169C  2005                     move.l     D0, D5
0000169E  C1FC 0046                muls.w     D0, 0x46 /* 'F' */
000016A2  7200                     moveq.l    D1, 0x00
000016A4  1234 0004                move.b     D1, [A4 + D0.w + 0x4]
000016A8  102E FFF5                move.b     D0, [A6 - 0xB]
000016AC  4880                     ext.w      D0
000016AE  D041                     add.w      D0, D1
000016B0  322E FFF2                move.w     D1, [A6 - 0xE]
000016B4  48C1                     ext.l      D1
000016B6  E589                     lsl        D1, 2
000016B8  2401                     move.l     D2, D1
000016BA  E589                     lsl        D1, 2
000016BC  D282                     add.l      D1, D2
000016BE  204D                     movea.l    A0, A5
000016C0  D1FC FFFE 8AF0           add.l      A0, 0xFFFE8AF0
000016C6  1180 1005                move.b     [A0 + D1.w + 0x5], D0
000016CA  2005                     move.l     D0, D5
000016CC  C1FC 0046                muls.w     D0, 0x46 /* 'F' */
000016D0  7200                     moveq.l    D1, 0x00
000016D2  1234 0005                move.b     D1, [A4 + D0.w + 0x5]
000016D6  102E FFF6                move.b     D0, [A6 - 0xA]
000016DA  4880                     ext.w      D0
000016DC  D041                     add.w      D0, D1
000016DE  322E FFF2                move.w     D1, [A6 - 0xE]
000016E2  48C1                     ext.l      D1
000016E4  E589                     lsl        D1, 2
000016E6  2401                     move.l     D2, D1
000016E8  E589                     lsl        D1, 2
000016EA  D282                     add.l      D1, D2
000016EC  204D                     movea.l    A0, A5
000016EE  D1FC FFFE 8AF0           add.l      A0, 0xFFFE8AF0
000016F4  1180 1006                move.b     [A0 + D1.w + 0x6], D0
000016F8  302E FFF2                move.w     D0, [A6 - 0xE]
000016FC  48C0                     ext.l      D0
000016FE  E588                     lsl        D0, 2
00001700  2200                     move.l     D1, D0
00001702  E588                     lsl        D0, 2
00001704  D081                     add.l      D0, D1
00001706  204D                     movea.l    A0, A5
00001708  D1FC FFFE 8AF0           add.l      A0, 0xFFFE8AF0
0000170E  0070 0004 0002           ori.w      [A0 + D0.w + 0x2], 0x4
00001714  6062                     bra        +0x64 /* 00001778 */
label00001716:
00001716  0C6E 012C FFFA           cmpi.w     [A6 - 0x6], 0x12C
0000171C  665A                     bne        +0x5C /* 00001778 */
0000171E  2005                     move.l     D0, D5
00001720  C1FC 0046                muls.w     D0, 0x46 /* 'F' */
00001724  122E FFF5                move.b     D1, [A6 - 0xB]
00001728  D234 0004                add.b      D1, [A4 + D0.w + 0x4]
0000172C  302E 000E                move.w     D0, [A6 + 0xE]
00001730  C1FC 000C                muls.w     D0, 0xC
00001734  204D                     movea.l    A0, A5
00001736  D1FC FFFD 9400           add.l      A0, 0xFFFD9400
0000173C  1181 0008                move.b     [A0 + D0.w + 0x8], D1
00001740  2005                     move.l     D0, D5
00001742  C1FC 0046                muls.w     D0, 0x46 /* 'F' */
00001746  122E FFF6                move.b     D1, [A6 - 0xA]
0000174A  D234 0005                add.b      D1, [A4 + D0.w + 0x5]
0000174E  302E 000E                move.w     D0, [A6 + 0xE]
00001752  C1FC 000C                muls.w     D0, 0xC
00001756  204D                     movea.l    A0, A5
00001758  D1FC FFFD 9400           add.l      A0, 0xFFFD9400
0000175E  1181 0009                move.b     [A0 + D0.w + 0x9], D1
00001762  302E 000E                move.w     D0, [A6 + 0xE]
00001766  C1FC 000C                muls.w     D0, 0xC
0000176A  204D                     movea.l    A0, A5
0000176C  D1FC FFFD 9400           add.l      A0, 0xFFFD9400
00001772  0030 0004 000A           ori.b      [A0 + D0.w + 0xA], 0x4
label00001778:
00001778  1C2E FFF5                move.b     D6, [A6 - 0xB]
0000177C  6000 00B4                bra        +0xB6 /* 00001832 */
label00001780:
00001780  1E2E FFF6                move.b     D7, [A6 - 0xA]
00001784  6000 0092                bra        +0x94 /* 00001818 */
label00001788:
00001788  4887                     ext.w      D7
0000178A  49C6                     lea.l      A4, D6
0000178C  2005                     move.l     D0, D5
0000178E  C1FC 0046                muls.w     D0, 0x46 /* 'F' */
00001792  2206                     move.l     D1, D6
00001794  2401                     move.l     D2, D1
00001796  D281                     add.l      D1, D1
00001798  D282                     add.l      D1, D2
0000179A  48C0                     ext.l      D0
0000179C  D280                     add.l      D1, D0
0000179E  2007                     move.l     D0, D7
000017A0  48C0                     ext.l      D0
000017A2  D081                     add.l      D0, D1
000017A4  19AE 000F 083A           move.b     [A4 + D0 + 0x3A], [A6 + 0xF]
000017AA  49C7                     lea.l      A4, D7
000017AC  49C6                     lea.l      A4, D6
000017AE  2005                     move.l     D0, D5
000017B0  C1FC 0046                muls.w     D0, 0x46 /* 'F' */
000017B4  2206                     move.l     D1, D6
000017B6  D281                     add.l      D1, D1
000017B8  2401                     move.l     D2, D1
000017BA  D482                     add.l      D2, D2
000017BC  D282                     add.l      D1, D2
000017BE  48C0                     ext.l      D0
000017C0  D280                     add.l      D1, D0
000017C2  2007                     move.l     D0, D7
000017C4  D080                     add.l      D0, D0
000017C6  D081                     add.l      D0, D1
000017C8  39AE FFFA 0822           move.w     [A4 + D0 + 0x22], [A6 - 0x6]
000017CE  302E FFFE                move.w     D0, [A6 - 0x2]
000017D2  D040                     add.w      D0, D0
000017D4  204D                     movea.l    A0, A5
000017D6  D1FC FFFF 7942           add.l      A0, 0xFFFF7942
000017DC  3030 0000                move.w     D0, [A0 + D0.w]
000017E0  48C0                     ext.l      D0
000017E2  322E FFFC                move.w     D1, [A6 - 0x4]
000017E6  48C1                     ext.l      D1
000017E8  D280                     add.l      D1, D0
000017EA  49C4                     lea.l      A4, D4
000017EC  D284                     add.l      D1, D4
000017EE  49C7                     lea.l      A4, D7
000017F0  49C6                     lea.l      A4, D6
000017F2  2005                     move.l     D0, D5
000017F4  C1FC 0046                muls.w     D0, 0x46 /* 'F' */
000017F8  2406                     move.l     D2, D6
000017FA  D482                     add.l      D2, D2
000017FC  2602                     move.l     D3, D2
000017FE  D683                     add.l      D3, D3
00001800  D483                     add.l      D2, D3
00001802  48C0                     ext.l      D0
00001804  D480                     add.l      D2, D0
00001806  2007                     move.l     D0, D7
00001808  D080                     add.l      D0, D0
0000180A  D082                     add.l      D0, D2
0000180C  3981 080A                move.w     [A4 + D0 + 0xA], D1
00001810  1004                     move.b     D0, D4
00001812  5204                     addq.b     D4, 1
00001814  1007                     move.b     D0, D7
00001816  5207                     addq.b     D7, 1
label00001818:
00001818  4887                     ext.w      D7
0000181A  102E FFF6                move.b     D0, [A6 - 0xA]
0000181E  4880                     ext.w      D0
00001820  122E FFF8                move.b     D1, [A6 - 0x8]
00001824  4881                     ext.w      D1
00001826  D240                     add.w      D1, D0
00001828  B247                     cmp.w      D1, D7
0000182A  6E00 FF5C                bgt        -0xA2 /* 00001788 */
0000182E  1006                     move.b     D0, D6
00001830  5206                     addq.b     D6, 1
label00001832:
00001832  4886                     ext.w      D6
00001834  102E FFF5                move.b     D0, [A6 - 0xB]
00001838  4880                     ext.w      D0
0000183A  122E FFF9                move.b     D1, [A6 - 0x7]
0000183E  4881                     ext.w      D1
00001840  D240                     add.w      D1, D0
00001842  B246                     cmp.w      D1, D6
00001844  6E00 FF3A                bgt        -0xC4 /* 00001780 */
00001848  6008                     bra        +0xA /* 00001852 */
label0000184A:
0000184A  7000                     moveq.l    D0, 0x00
0000184C  604A                     bra        +0x4C /* 00001898 */
label0000184E:
0000184E  7000                     moveq.l    D0, 0x00
00001850  6046                     bra        +0x48 /* 00001898 */
label00001852:
00001852  2005                     move.l     D0, D5
00001854  C1FC 0046                muls.w     D0, 0x46 /* 'F' */
00001858  7200                     moveq.l    D1, 0x00
0000185A  1234 0005                move.b     D1, [A4 + D0.w + 0x5]
0000185E  2F01                     move.l     -[A7], D1
00001860  2005                     move.l     D0, D5
00001862  C1FC 0046                muls.w     D0, 0x46 /* 'F' */
00001866  7200                     moveq.l    D1, 0x00
00001868  1234 0004                move.b     D1, [A4 + D0.w + 0x4]
0000186C  2F01                     move.l     -[A7], D1
0000186E  4EBA F226                jsr        [PC - 0xDDA /* 00000A96 */]
00001872  2005                     move.l     D0, D5
00001874  C1FC 0046                muls.w     D0, 0x46 /* 'F' */
00001878  7200                     moveq.l    D1, 0x00
0000187A  1234 0005                move.b     D1, [A4 + D0.w + 0x5]
0000187E  2F01                     move.l     -[A7], D1
00001880  2005                     move.l     D0, D5
00001882  C1FC 0046                muls.w     D0, 0x46 /* 'F' */
00001886  7200                     moveq.l    D1, 0x00
00001888  1234 0004                move.b     D1, [A4 + D0.w + 0x4]
0000188C  2F01                     move.l     -[A7], D1
0000188E  4EBA F206                jsr        [PC - 0xDFA /* 00000A96 */]
00001892  7001                     moveq.l    D0, 0x01
00001894  4FEF 0010                lea.l      A7, [A7 + 0x10]
label00001898:
00001898  4CEE 18F8 FFD2           movem.l    D3,D4,D5,D6,D7,A3,A4, [A6 - 0x2E]
0000189E  4E5E                     unlink     A6
000018A0  4E75                     rts
000018A2  9673 746F 7265 6974 6... dc.b       "storeitem__FsN31P4item"
fn000018BC:
000018BC  4E56 FFFE                link       A6, -0x0002
000018C0  48E7 0F18                movem.l    -[A7], D4,D5,D6,D7,A3,A4
000018C4  266E 0018                movea.l    A3, [A6 + 0x18]
000018C8  286E 0014                movea.l    A4, [A6 + 0x14]
000018CC  382E 000E                move.w     D4, [A6 + 0xE]
000018D0  3A2E 000A                move.w     D5, [A6 + 0xA]
000018D4  4246                     clr.w      D6
000018D6  2005                     move.l     D0, D5
000018D8  C1FC 0046                muls.w     D0, 0x46 /* 'F' */
000018DC  204D                     movea.l    A0, A5
000018DE  D1FC FFFE D880           add.l      A0, 0xFFFED880
000018E4  7200                     moveq.l    D1, 0x00
000018E6  3230 0000                move.w     D1, [A0 + D0.w]
000018EA  C3FC 0012                muls.w     D1, 0x12
000018EE  204D                     movea.l    A0, A5
000018F0  D1FC FFFE 998E           add.l      A0, 0xFFFE998E
000018F6  1D70 1008 FFFE           move.b     [A6 - 0x2], [A0 + D1.w + 0x8]
000018FC  2005                     move.l     D0, D5
000018FE  C1FC 0046                muls.w     D0, 0x46 /* 'F' */
00001902  204D                     movea.l    A0, A5
00001904  D1FC FFFE D880           add.l      A0, 0xFFFED880
0000190A  7200                     moveq.l    D1, 0x00
0000190C  3230 0000                move.w     D1, [A0 + D0.w]
00001910  C3FC 0012                muls.w     D1, 0x12
00001914  204D                     movea.l    A0, A5
00001916  D1FC FFFE 998E           add.l      A0, 0xFFFE998E
0000191C  1D70 1009 FFFF           move.b     [A6 - 0x1], [A0 + D1.w + 0x9]
00001922  4246                     clr.w      D6
00001924  607C                     bra        +0x7E /* 000019A2 */
label00001926:
00001926  4247                     clr.w      D7
00001928  606A                     bra        +0x6C /* 00001994 */
label0000192A:
0000192A  48C7                     ext.l      D7
0000192C  2F07                     move.l     -[A7], D7
0000192E  48C6                     ext.l      D6
00001930  2F06                     move.l     -[A7], D6
00001932  302E 0012                move.w     D0, [A6 + 0x12]
00001936  48C0                     ext.l      D0
00001938  2F00                     move.l     -[A7], D0
0000193A  48C4                     ext.l      D4
0000193C  2F04                     move.l     -[A7], D4
0000193E  48C5                     ext.l      D5
00001940  2F05                     move.l     -[A7], D5
00001942  4EBA 008E                jsr        [PC + 0x8E /* 000019D2 */]
00001946  4A40                     tst.w      D0
00001948  4FEF 0014                lea.l      A7, [A7 + 0x14]
0000194C  670E                     beq        +0x10 /* 0000195C */
0000194E  1886                     move.b     [A4], D6
00001950  1687                     move.b     [A3], D7
00001952  206E 001C                movea.l    A0, [A6 + 0x1C]
00001956  4210                     clr.b      [A0]
00001958  7001                     moveq.l    D0, 0x01
0000195A  6054                     bra        +0x56 /* 000019B0 */
label0000195C:
0000195C  48C7                     ext.l      D7
0000195E  2F07                     move.l     -[A7], D7
00001960  48C6                     ext.l      D6
00001962  2F06                     move.l     -[A7], D6
00001964  48C4                     ext.l      D4
00001966  2F04                     move.l     -[A7], D4
00001968  302E 0012                move.w     D0, [A6 + 0x12]
0000196C  48C0                     ext.l      D0
0000196E  2F00                     move.l     -[A7], D0
00001970  48C5                     ext.l      D5
00001972  2F05                     move.l     -[A7], D5
00001974  4EBA 005C                jsr        [PC + 0x5C /* 000019D2 */]
00001978  4A40                     tst.w      D0
0000197A  4FEF 0014                lea.l      A7, [A7 + 0x14]
0000197E  6710                     beq        +0x12 /* 00001990 */
00001980  1886                     move.b     [A4], D6
00001982  1687                     move.b     [A3], D7
00001984  206E 001C                movea.l    A0, [A6 + 0x1C]
00001988  10BC 0001                move.b     [A0], 0x1
0000198C  7001                     moveq.l    D0, 0x01
0000198E  6020                     bra        +0x22 /* 000019B0 */
label00001990:
00001990  3007                     move.w     D0, D7
00001992  5247                     addq.w     D7, 1
label00001994:
00001994  102E FFFF                move.b     D0, [A6 - 0x1]
00001998  4880                     ext.w      D0
0000199A  B047                     cmp.w      D0, D7
0000199C  6E8C                     bgt        -0x72 /* 0000192A */
0000199E  3006                     move.w     D0, D6
000019A0  5246                     addq.w     D6, 1
label000019A2:
000019A2  102E FFFE                move.b     D0, [A6 - 0x2]
000019A6  4880                     ext.w      D0
000019A8  B046                     cmp.w      D0, D6
000019AA  6E00 FF7A                bgt        -0x84 /* 00001926 */
000019AE  7000                     moveq.l    D0, 0x00
label000019B0:
000019B0  4CEE 18F0 FFE6           movem.l    D4,D5,D6,D7,A3,A4, [A6 - 0x1A]
000019B6  4E5E                     unlink     A6
000019B8  4E75                     rts
000019BA  9463 6865 636B 6669 7... dc.b       "checkfit__FsN21PcN24"
fn000019D2:
000019D2  4E56 FFFE                link       A6, -0x0002
000019D6  48E7 0F08                movem.l    -[A7], D4,D5,D6,D7,A4
000019DA  204D                     movea.l    A0, A5
000019DC  D1FC FFFE D880           add.l      A0, 0xFFFED880
000019E2  49D0                     lea.l      A4, [A0]
000019E4  382E 000A                move.w     D4, [A6 + 0xA]
000019E8  3C2E 001A                move.w     D6, [A6 + 0x1A]
000019EC  2004                     move.l     D0, D4
000019EE  C1FC 0046                muls.w     D0, 0x46 /* 'F' */
000019F2  7200                     moveq.l    D1, 0x00
000019F4  3234 0000                move.w     D1, [A4 + D0.w]
000019F8  C3FC 0012                muls.w     D1, 0x12
000019FC  204D                     movea.l    A0, A5
000019FE  D1FC FFFE 998E           add.l      A0, 0xFFFE998E
00001A04  1E30 1008                move.b     D7, [A0 + D1.w + 0x8]
00001A08  2004                     move.l     D0, D4
00001A0A  C1FC 0046                muls.w     D0, 0x46 /* 'F' */
00001A0E  7200                     moveq.l    D1, 0x00
00001A10  3234 0000                move.w     D1, [A4 + D0.w]
00001A14  C3FC 0012                muls.w     D1, 0x12
00001A18  204D                     movea.l    A0, A5
00001A1A  D1FC FFFE 998E           add.l      A0, 0xFFFE998E
00001A20  1A30 1009                move.b     D5, [A0 + D1.w + 0x9]
00001A24  302E 0016                move.w     D0, [A6 + 0x16]
00001A28  48C0                     ext.l      D0
00001A2A  322E 000E                move.w     D1, [A6 + 0xE]
00001A2E  48C1                     ext.l      D1
00001A30  D280                     add.l      D1, D0
00001A32  49C7                     lea.l      A4, D7
00001A34  BE81                     cmp.l      D7, D1
00001A36  6D00 0082                blt        +0x84 /* 00001ABA */
00001A3A  48C6                     ext.l      D6
00001A3C  302E 0012                move.w     D0, [A6 + 0x12]
00001A40  48C0                     ext.l      D0
00001A42  D086                     add.l      D0, D6
00001A44  49C5                     lea.l      A4, D5
00001A46  BA80                     cmp.l      D5, D0
00001A48  6D70                     blt        +0x72 /* 00001ABA */
00001A4A  422E FFFF                clr.b      [A6 - 0x1]
00001A4E  1A2E 0017                move.b     D5, [A6 + 0x17]
00001A52  6048                     bra        +0x4A /* 00001A9C */
label00001A54:
00001A54  1E06                     move.b     D7, D6
00001A56  6030                     bra        +0x32 /* 00001A88 */
label00001A58:
00001A58  49C7                     lea.l      A4, D7
00001A5A  49C5                     lea.l      A4, D5
00001A5C  2004                     move.l     D0, D4
00001A5E  C1FC 0046                muls.w     D0, 0x46 /* 'F' */
00001A62  2205                     move.l     D1, D5
00001A64  D281                     add.l      D1, D1
00001A66  2401                     move.l     D2, D1
00001A68  D482                     add.l      D2, D2
00001A6A  D282                     add.l      D1, D2
00001A6C  48C0                     ext.l      D0
00001A6E  D280                     add.l      D1, D0
00001A70  2007                     move.l     D0, D7
00001A72  D080                     add.l      D0, D0
00001A74  D081                     add.l      D0, D1
00001A76  72FF                     moveq.l    D1, 0xFFFFFFFF
00001A78  B274 0822                cmp.w      D1, [A4 + D0 + 0x22]
00001A7C  6706                     beq        +0x8 /* 00001A84 */
00001A7E  1D7C 0001 FFFF           move.b     [A6 - 0x1], 0x1
label00001A84:
00001A84  1007                     move.b     D0, D7
00001A86  5207                     addq.b     D7, 1
label00001A88:
00001A88  49C7                     lea.l      A4, D7
00001A8A  48C6                     ext.l      D6
00001A8C  302E 0012                move.w     D0, [A6 + 0x12]
00001A90  48C0                     ext.l      D0
00001A92  D086                     add.l      D0, D6
00001A94  B087                     cmp.l      D0, D7
00001A96  6EC0                     bgt        -0x3E /* 00001A58 */
00001A98  1005                     move.b     D0, D5
00001A9A  5205                     addq.b     D5, 1
label00001A9C:
00001A9C  49C5                     lea.l      A4, D5
00001A9E  302E 0016                move.w     D0, [A6 + 0x16]
00001AA2  48C0                     ext.l      D0
00001AA4  322E 000E                move.w     D1, [A6 + 0xE]
00001AA8  48C1                     ext.l      D1
00001AAA  D280                     add.l      D1, D0
00001AAC  B285                     cmp.l      D1, D5
00001AAE  6EA4                     bgt        -0x5A /* 00001A54 */
00001AB0  4A2E FFFF                tst.b      [A6 - 0x1]
00001AB4  6604                     bne        +0x6 /* 00001ABA */
00001AB6  7001                     moveq.l    D0, 0x01
00001AB8  6002                     bra        +0x4 /* 00001ABC */
label00001ABA:
00001ABA  7000                     moveq.l    D0, 0x00
label00001ABC:
00001ABC  4CEE 10F0 FFEA           movem.l    D4,D5,D6,D7,A4, [A6 - 0x16]
00001AC2  4E5E                     unlink     A6
00001AC4  4E75                     rts
00001AC6  8E62 6C64 6766 6974 5... dc.b       "bldgfit__FsN41"
export_294:
fn00001AD8:
00001AD8  4E56 FFF8                link       A6, -0x0008
00001ADC  48E7 0F08                movem.l    -[A7], D4,D5,D6,D7,A4
00001AE0  204D                     movea.l    A0, A5
00001AE2  D1FC FFFE D880           add.l      A0, 0xFFFED880
00001AE8  49D0                     lea.l      A4, [A0]
00001AEA  3A2E 000A                move.w     D5, [A6 + 0xA]
00001AEE  42AE FFFC                clr.l      [A6 - 0x4]
00001AF2  2005                     move.l     D0, D5
00001AF4  C1FC 0046                muls.w     D0, 0x46 /* 'F' */
00001AF8  7200                     moveq.l    D1, 0x00
00001AFA  1234 0004                move.b     D1, [A4 + D0.w + 0x4]
00001AFE  302E 000E                move.w     D0, [A6 + 0xE]
00001B02  9041                     sub.w      D0, D1
00001B04  3D40 FFFA                move.w     [A6 - 0x6], D0
00001B08  2005                     move.l     D0, D5
00001B0A  C1FC 0046                muls.w     D0, 0x46 /* 'F' */
00001B0E  7200                     moveq.l    D1, 0x00
00001B10  1234 0005                move.b     D1, [A4 + D0.w + 0x5]
00001B14  382E 0012                move.w     D4, [A6 + 0x12]
00001B18  9841                     sub.w      D4, D1
00001B1A  48C4                     ext.l      D4
00001B1C  302E FFFA                move.w     D0, [A6 - 0x6]
00001B20  48C0                     ext.l      D0
00001B22  2205                     move.l     D1, D5
00001B24  C3FC 0046                muls.w     D1, 0x46 /* 'F' */
00001B28  D080                     add.l      D0, D0
00001B2A  2400                     move.l     D2, D0
00001B2C  D482                     add.l      D2, D2
00001B2E  D082                     add.l      D0, D2
00001B30  48C1                     ext.l      D1
00001B32  D081                     add.l      D0, D1
00001B34  2204                     move.l     D1, D4
00001B36  D281                     add.l      D1, D1
00001B38  D280                     add.l      D1, D0
00001B3A  3C34 1822                move.w     D6, [A4 + D1 + 0x22]
00001B3E  302E FFFA                move.w     D0, [A6 - 0x6]
00001B42  48C0                     ext.l      D0
00001B44  2205                     move.l     D1, D5
00001B46  C3FC 0046                muls.w     D1, 0x46 /* 'F' */
00001B4A  2400                     move.l     D2, D0
00001B4C  D080                     add.l      D0, D0
00001B4E  D082                     add.l      D0, D2
00001B50  48C1                     ext.l      D1
00001B52  D081                     add.l      D0, D1
00001B54  2204                     move.l     D1, D4
00001B56  48C1                     ext.l      D1
00001B58  D280                     add.l      D1, D0
00001B5A  7E00                     moveq.l    D7, 0x00
00001B5C  1E34 183A                move.b     D7, [A4 + D1 + 0x3A]
00001B60  4A87                     tst.l      D7
00001B62  4A46                     tst.w      D6
00001B64  6D1C                     blt        +0x1E /* 00001B82 */
00001B66  0C46 003F                cmpi.w     D6, 0x3F /* '?' */
00001B6A  6E16                     bgt        +0x18 /* 00001B82 */
00001B6C  486E FFFE                pea.l      [A6 - 0x2]
00001B70  486E FFFC                pea.l      [A6 - 0x4]
00001B74  48C7                     ext.l      D7
00001B76  2F07                     move.l     -[A7], D7
00001B78  4EAD 05B2                jsr        [A5 + 0x5B2 /* export_178, CODE:10 @ 00001FF8 */]
00001B7C  4FEF 000C                lea.l      A7, [A7 + 0xC]
00001B80  6028                     bra        +0x2A /* 00001BAA */
label00001B82:
00001B82  486E FFF9                pea.l      [A6 - 0x7]
00001B86  486E FFF8                pea.l      [A6 - 0x8]
00001B8A  48C6                     ext.l      D6
00001B8C  2F06                     move.l     -[A7], D6
00001B8E  4EAD 04FA                jsr        [A5 + 0x4FA /* export_155, CODE:9 @ 0000072C */]
00001B92  102E FFF8                move.b     D0, [A6 - 0x8]
00001B96  4880                     ext.w      D0
00001B98  3D40 FFFC                move.w     [A6 - 0x4], D0
00001B9C  102E FFF9                move.b     D0, [A6 - 0x7]
00001BA0  4880                     ext.w      D0
00001BA2  3D40 FFFE                move.w     [A6 - 0x2], D0
00001BA6  4FEF 000C                lea.l      A7, [A7 + 0xC]
label00001BAA:
00001BAA  1C2E FFFB                move.b     D6, [A6 - 0x5]
00001BAE  6000 0086                bra        +0x88 /* 00001C36 */
label00001BB2:
00001BB2  1E04                     move.b     D7, D4
00001BB4  606C                     bra        +0x6E /* 00001C22 */
label00001BB6:
00001BB6  49C7                     lea.l      A4, D7
00001BB8  49C6                     lea.l      A4, D6
00001BBA  2005                     move.l     D0, D5
00001BBC  C1FC 0046                muls.w     D0, 0x46 /* 'F' */
00001BC0  2206                     move.l     D1, D6
00001BC2  D281                     add.l      D1, D1
00001BC4  2401                     move.l     D2, D1
00001BC6  D482                     add.l      D2, D2
00001BC8  D282                     add.l      D1, D2
00001BCA  48C0                     ext.l      D0
00001BCC  D280                     add.l      D1, D0
00001BCE  2007                     move.l     D0, D7
00001BD0  D080                     add.l      D0, D0
00001BD2  D081                     add.l      D0, D1
00001BD4  39BC 00D9 080A           move.w     [A4 + D0 + 0xA], 0xD9
00001BDA  49C7                     lea.l      A4, D7
00001BDC  49C6                     lea.l      A4, D6
00001BDE  2005                     move.l     D0, D5
00001BE0  C1FC 0046                muls.w     D0, 0x46 /* 'F' */
00001BE4  2206                     move.l     D1, D6
00001BE6  D281                     add.l      D1, D1
00001BE8  2401                     move.l     D2, D1
00001BEA  D482                     add.l      D2, D2
00001BEC  D282                     add.l      D1, D2
00001BEE  48C0                     ext.l      D0
00001BF0  D280                     add.l      D1, D0
00001BF2  2007                     move.l     D0, D7
00001BF4  D080                     add.l      D0, D0
00001BF6  D081                     add.l      D0, D1
00001BF8  39BC FFFF 0822           move.w     [A4 + D0 + 0x22], 0xFFFF
00001BFE  4887                     ext.w      D7
00001C00  49C6                     lea.l      A4, D6
00001C02  2005                     move.l     D0, D5
00001C04  C1FC 0046                muls.w     D0, 0x46 /* 'F' */
00001C08  2206                     move.l     D1, D6
00001C0A  2401                     move.l     D2, D1
00001C0C  D281                     add.l      D1, D1
00001C0E  D282                     add.l      D1, D2
00001C10  48C0                     ext.l      D0
00001C12  D280                     add.l      D1, D0
00001C14  2007                     move.l     D0, D7
00001C16  48C0                     ext.l      D0
00001C18  D081                     add.l      D0, D1
00001C1A  4234 083A                clr.b      [A4 + D0 + 0x3A]
00001C1E  1007                     move.b     D0, D7
00001C20  5207                     addq.b     D7, 1
label00001C22:
00001C22  49C7                     lea.l      A4, D7
00001C24  48C4                     ext.l      D4
00001C26  302E FFFE                move.w     D0, [A6 - 0x2]
00001C2A  48C0                     ext.l      D0
00001C2C  D084                     add.l      D0, D4
00001C2E  B087                     cmp.l      D0, D7
00001C30  6E84                     bgt        -0x7A /* 00001BB6 */
00001C32  1006                     move.b     D0, D6
00001C34  5206                     addq.b     D6, 1
label00001C36:
00001C36  49C6                     lea.l      A4, D6
00001C38  302E FFFA                move.w     D0, [A6 - 0x6]
00001C3C  48C0                     ext.l      D0
00001C3E  322E FFFC                move.w     D1, [A6 - 0x4]
00001C42  48C1                     ext.l      D1
00001C44  D280                     add.l      D1, D0
00001C46  B286                     cmp.l      D1, D6
00001C48  6E00 FF68                bgt        -0x96 /* 00001BB2 */
00001C4C  2005                     move.l     D0, D5
00001C4E  C1FC 0046                muls.w     D0, 0x46 /* 'F' */
00001C52  7200                     moveq.l    D1, 0x00
00001C54  1234 0005                move.b     D1, [A4 + D0.w + 0x5]
00001C58  2F01                     move.l     -[A7], D1
00001C5A  2005                     move.l     D0, D5
00001C5C  C1FC 0046                muls.w     D0, 0x46 /* 'F' */
00001C60  7200                     moveq.l    D1, 0x00
00001C62  1234 0004                move.b     D1, [A4 + D0.w + 0x4]
00001C66  2F01                     move.l     -[A7], D1
00001C68  4EBA EE2C                jsr        [PC - 0x11D4 /* 00000A96 */]
00001C6C  2005                     move.l     D0, D5
00001C6E  C1FC 0046                muls.w     D0, 0x46 /* 'F' */
00001C72  7200                     moveq.l    D1, 0x00
00001C74  1234 0005                move.b     D1, [A4 + D0.w + 0x5]
00001C78  2F01                     move.l     -[A7], D1
00001C7A  2005                     move.l     D0, D5
00001C7C  C1FC 0046                muls.w     D0, 0x46 /* 'F' */
00001C80  7200                     moveq.l    D1, 0x00
00001C82  1234 0004                move.b     D1, [A4 + D0.w + 0x4]
00001C86  2F01                     move.l     -[A7], D1
00001C88  4EBA EE0C                jsr        [PC - 0x11F4 /* 00000A96 */]
00001C8C  7000                     moveq.l    D0, 0x00
00001C8E  4FEF 0010                lea.l      A7, [A7 + 0x10]
00001C92  4CEE 10F0 FFE4           movem.l    D4,D5,D6,D7,A4, [A6 - 0x1C]
00001C98  4E5E                     unlink     A6
00001C9A  4E75                     rts
00001C9C  9872 656D 6F76 6566 7... dc.b       "removefromstorage__FsN21"
export_295:
00001CB8  4E56 FFEC                link       A6, -0x0014
00001CBC  48E7 0F18                movem.l    -[A7], D4,D5,D6,D7,A3,A4
00001CC0  266E 0010                movea.l    A3, [A6 + 0x10]
00001CC4  204D                     movea.l    A0, A5
00001CC6  D1FC FFFE D880           add.l      A0, 0xFFFED880
00001CCC  49D0                     lea.l      A4, [A0]
00001CCE  2D7C 000F 4240 FFF0      move.l     [A6 - 0x10], 0xF4240
00001CD6  2D7C 000F 4240 FFF4      move.l     [A6 - 0xC], 0xF4240
00001CDE  426E FFFE                clr.w      [A6 - 0x2]
00001CE2  426E FFEE                clr.w      [A6 - 0x12]
00001CE6  7A01                     moveq.l    D5, 0x01
00001CE8  6000 0146                bra        +0x148 /* 00001E30 */
label00001CEC:
00001CEC  2005                     move.l     D0, D5
00001CEE  C1FC 0046                muls.w     D0, 0x46 /* 'F' */
00001CF2  7200                     moveq.l    D1, 0x00
00001CF4  3234 0002                move.w     D1, [A4 + D0.w + 0x2]
00001CF8  7020                     moveq.l    D0, 0x20
00001CFA  C041                     and.w      D0, D1
00001CFC  6700 012E                beq        +0x130 /* 00001E2C */
00001D00  2005                     move.l     D0, D5
00001D02  C1FC 0046                muls.w     D0, 0x46 /* 'F' */
00001D06  7200                     moveq.l    D1, 0x00
00001D08  3234 0000                move.w     D1, [A4 + D0.w]
00001D0C  7040                     moveq.l    D0, 0x40
00001D0E  B081                     cmp.l      D0, D1
00001D10  6714                     beq        +0x16 /* 00001D26 */
00001D12  2005                     move.l     D0, D5
00001D14  C1FC 0046                muls.w     D0, 0x46 /* 'F' */
00001D18  7200                     moveq.l    D1, 0x00
00001D1A  3234 0000                move.w     D1, [A4 + D0.w]
00001D1E  7041                     moveq.l    D0, 0x41
00001D20  B081                     cmp.l      D0, D1
00001D22  6600 0100                bne        +0x102 /* 00001E24 */
label00001D26:
00001D26  2005                     move.l     D0, D5
00001D28  C1FC 0046                muls.w     D0, 0x46 /* 'F' */
00001D2C  7200                     moveq.l    D1, 0x00
00001D2E  3234 0000                move.w     D1, [A4 + D0.w]
00001D32  C3FC 0012                muls.w     D1, 0x12
00001D36  204D                     movea.l    A0, A5
00001D38  D1FC FFFE 998E           add.l      A0, 0xFFFE998E
00001D3E  1D70 1008 FFED           move.b     [A6 - 0x13], [A0 + D1.w + 0x8]
00001D44  2005                     move.l     D0, D5
00001D46  C1FC 0046                muls.w     D0, 0x46 /* 'F' */
00001D4A  7200                     moveq.l    D1, 0x00
00001D4C  3234 0000                move.w     D1, [A4 + D0.w]
00001D50  C3FC 0012                muls.w     D1, 0x12
00001D54  204D                     movea.l    A0, A5
00001D56  D1FC FFFE 998E           add.l      A0, 0xFFFE998E
00001D5C  1830 1009                move.b     D4, [A0 + D1.w + 0x9]
00001D60  422E FFEC                clr.b      [A6 - 0x14]
00001D64  422E FFFE                clr.b      [A6 - 0x2]
00001D68  4206                     clr.b      D6
00001D6A  603C                     bra        +0x3E /* 00001DA8 */
label00001D6C:
00001D6C  4207                     clr.b      D7
00001D6E  6030                     bra        +0x32 /* 00001DA0 */
label00001D70:
00001D70  49C7                     lea.l      A4, D7
00001D72  49C6                     lea.l      A4, D6
00001D74  2005                     move.l     D0, D5
00001D76  C1FC 0046                muls.w     D0, 0x46 /* 'F' */
00001D7A  2206                     move.l     D1, D6
00001D7C  D281                     add.l      D1, D1
00001D7E  2401                     move.l     D2, D1
00001D80  D482                     add.l      D2, D2
00001D82  D282                     add.l      D1, D2
00001D84  48C0                     ext.l      D0
00001D86  D280                     add.l      D1, D0
00001D88  2007                     move.l     D0, D7
00001D8A  D080                     add.l      D0, D0
00001D8C  D081                     add.l      D0, D1
00001D8E  72FF                     moveq.l    D1, 0xFFFFFFFF
00001D90  B274 0822                cmp.w      D1, [A4 + D0 + 0x22]
00001D94  6606                     bne        +0x8 /* 00001D9C */
00001D96  1D7C 0001 FFFE           move.b     [A6 - 0x2], 0x1
label00001D9C:
00001D9C  1007                     move.b     D0, D7
00001D9E  5207                     addq.b     D7, 1
label00001DA0:
00001DA0  B807                     cmp.b      D4, D7
00001DA2  6ECC                     bgt        -0x32 /* 00001D70 */
00001DA4  1006                     move.b     D0, D6
00001DA6  5206                     addq.b     D6, 1
label00001DA8:
00001DA8  BC2E FFED                cmp.b      D6, [A6 - 0x13]
00001DAC  6DBE                     blt        -0x40 /* 00001D6C */
00001DAE  4A2E FFFE                tst.b      [A6 - 0x2]
00001DB2  6770                     beq        +0x72 /* 00001E24 */
00001DB4  2005                     move.l     D0, D5
00001DB6  C1FC 0046                muls.w     D0, 0x46 /* 'F' */
00001DBA  1034 0005                move.b     D0, [A4 + D0.w + 0x5]
00001DBE  49C0                     lea.l      A4, D0
00001DC0  2F00                     move.l     -[A7], D0
00001DC2  2005                     move.l     D0, D5
00001DC4  C1FC 0046                muls.w     D0, 0x46 /* 'F' */
00001DC8  1034 0004                move.b     D0, [A4 + D0.w + 0x4]
00001DCC  49C0                     lea.l      A4, D0
00001DCE  2F00                     move.l     -[A7], D0
00001DD0  102E 000F                move.b     D0, [A6 + 0xF]
00001DD4  49C0                     lea.l      A4, D0
00001DD6  2F00                     move.l     -[A7], D0
00001DD8  102E 000B                move.b     D0, [A6 + 0xB]
00001DDC  49C0                     lea.l      A4, D0
00001DDE  2F00                     move.l     -[A7], D0
00001DE0  4EAD 056A                jsr        [A5 + 0x56A /* export_169, CODE:10 @ 00000510 */]
00001DE4  48C0                     ext.l      D0
00001DE6  2D40 FFF4                move.l     [A6 - 0xC], D0
00001DEA  B0AE FFF0                cmp.l      D0, [A6 - 0x10]
00001DEE  4FEF 0010                lea.l      A7, [A7 + 0x10]
00001DF2  6C30                     bge        +0x32 /* 00001E24 */
00001DF4  2D6E FFF4 FFF0           move.l     [A6 - 0x10], [A6 - 0xC]
00001DFA  2005                     move.l     D0, D5
00001DFC  C1FC 0046                muls.w     D0, 0x46 /* 'F' */
00001E00  7200                     moveq.l    D1, 0x00
00001E02  1234 0004                move.b     D1, [A4 + D0.w + 0x4]
00001E06  3D41 FFF8                move.w     [A6 - 0x8], D1
00001E0A  2005                     move.l     D0, D5
00001E0C  C1FC 0046                muls.w     D0, 0x46 /* 'F' */
00001E10  7200                     moveq.l    D1, 0x00
00001E12  1234 0005                move.b     D1, [A4 + D0.w + 0x5]
00001E16  3D41 FFFA                move.w     [A6 - 0x6], D1
00001E1A  3D45 FFFC                move.w     [A6 - 0x4], D5
00001E1E  1D7C 0001 FFFF           move.b     [A6 - 0x1], 0x1
label00001E24:
00001E24  302E FFEE                move.w     D0, [A6 - 0x12]
00001E28  526E FFEE                addq.w     [A6 - 0x12], 1
label00001E2C:
00001E2C  3005                     move.w     D0, D5
00001E2E  5245                     addq.w     D5, 1
label00001E30:
00001E30  302E FFEE                move.w     D0, [A6 - 0x12]
00001E34  204D                     movea.l    A0, A5
00001E36  D1FC FFFE 94DC           add.l      A0, 0xFFFE94DC
00001E3C  B050                     cmp.w      D0, [A0]
00001E3E  6D00 FEAC                blt        -0x152 /* 00001CEC */
00001E42  4A2E FFFF                tst.b      [A6 - 0x1]
00001E46  6700 00B6                beq        +0xB8 /* 00001EFE */
00001E4A  302E FFFC                move.w     D0, [A6 - 0x4]
00001E4E  C1FC 0046                muls.w     D0, 0x46 /* 'F' */
00001E52  7200                     moveq.l    D1, 0x00
00001E54  3234 0000                move.w     D1, [A4 + D0.w]
00001E58  C3FC 0012                muls.w     D1, 0x12
00001E5C  204D                     movea.l    A0, A5
00001E5E  D1FC FFFE 998E           add.l      A0, 0xFFFE998E
00001E64  1D70 1008 FFED           move.b     [A6 - 0x13], [A0 + D1.w + 0x8]
00001E6A  302E FFFC                move.w     D0, [A6 - 0x4]
00001E6E  C1FC 0046                muls.w     D0, 0x46 /* 'F' */
00001E72  7200                     moveq.l    D1, 0x00
00001E74  3234 0000                move.w     D1, [A4 + D0.w]
00001E78  C3FC 0012                muls.w     D1, 0x12
00001E7C  204D                     movea.l    A0, A5
00001E7E  D1FC FFFE 998E           add.l      A0, 0xFFFE998E
00001E84  1830 1009                move.b     D4, [A0 + D1.w + 0x9]
00001E88  4206                     clr.b      D6
00001E8A  606C                     bra        +0x6E /* 00001EF8 */
label00001E8C:
00001E8C  4207                     clr.b      D7
00001E8E  6060                     bra        +0x62 /* 00001EF0 */
label00001E90:
00001E90  49C7                     lea.l      A4, D7
00001E92  49C6                     lea.l      A4, D6
00001E94  302E FFFC                move.w     D0, [A6 - 0x4]
00001E98  C1FC 0046                muls.w     D0, 0x46 /* 'F' */
00001E9C  2206                     move.l     D1, D6
00001E9E  D281                     add.l      D1, D1
00001EA0  2401                     move.l     D2, D1
00001EA2  D482                     add.l      D2, D2
00001EA4  D282                     add.l      D1, D2
00001EA6  48C0                     ext.l      D0
00001EA8  D280                     add.l      D1, D0
00001EAA  2007                     move.l     D0, D7
00001EAC  D080                     add.l      D0, D0
00001EAE  D081                     add.l      D0, D1
00001EB0  72FF                     moveq.l    D1, 0xFFFFFFFF
00001EB2  B274 0822                cmp.w      D1, [A4 + D0 + 0x22]
00001EB6  6634                     bne        +0x36 /* 00001EEC */
00001EB8  49C7                     lea.l      A4, D7
00001EBA  49C6                     lea.l      A4, D6
00001EBC  302E FFFC                move.w     D0, [A6 - 0x4]
00001EC0  C1FC 0046                muls.w     D0, 0x46 /* 'F' */
00001EC4  2206                     move.l     D1, D6
00001EC6  D281                     add.l      D1, D1
00001EC8  2401                     move.l     D2, D1
00001ECA  D482                     add.l      D2, D2
00001ECC  D282                     add.l      D1, D2
00001ECE  48C0                     ext.l      D0
00001ED0  D280                     add.l      D1, D0
00001ED2  2007                     move.l     D0, D7
00001ED4  D080                     add.l      D0, D0
00001ED6  D081                     add.l      D0, D1
00001ED8  39BC FFFE 0822           move.w     [A4 + D0 + 0x22], 0xFFFE
00001EDE  1686                     move.b     [A3], D6
00001EE0  206E 0014                movea.l    A0, [A6 + 0x14]
00001EE4  1087                     move.b     [A0], D7
00001EE6  302E FFFC                move.w     D0, [A6 - 0x4]
00001EEA  6014                     bra        +0x16 /* 00001F00 */
label00001EEC:
00001EEC  1007                     move.b     D0, D7
00001EEE  5207                     addq.b     D7, 1
label00001EF0:
00001EF0  B807                     cmp.b      D4, D7
00001EF2  6E9C                     bgt        -0x62 /* 00001E90 */
00001EF4  1006                     move.b     D0, D6
00001EF6  5206                     addq.b     D6, 1
label00001EF8:
00001EF8  BC2E FFED                cmp.b      D6, [A6 - 0x13]
00001EFC  6D8E                     blt        -0x70 /* 00001E8C */
label00001EFE:
00001EFE  7000                     moveq.l    D0, 0x00
label00001F00:
00001F00  4CEE 18F0 FFD4           movem.l    D4,D5,D6,D7,A3,A4, [A6 - 0x2C]
00001F06  4E5E                     unlink     A6
00001F08  4E75                     rts
00001F0A  9A66 696E 6463 6C6F 7... dc.b       "findclosestsilo__FsT1PUcT3"
export_296:
00001F28  4E56 FFFA                link       A6, -0x0006
00001F2C  48E7 1F18                movem.l    -[A7], D3,D4,D5,D6,D7,A3,A4
00001F30  266E 0010                movea.l    A3, [A6 + 0x10]
00001F34  382E 000E                move.w     D4, [A6 + 0xE]
00001F38  204D                     movea.l    A0, A5
00001F3A  D1FC FFFE D880           add.l      A0, 0xFFFED880
00001F40  49D0                     lea.l      A4, [A0]
00001F42  3E2E 000A                move.w     D7, [A6 + 0xA]
00001F46  3D6B 0002 FFFC           move.w     [A6 - 0x4], [A3 + 0x2]
00001F4C  1A2B 0008                move.b     D5, [A3 + 0x8]
00001F50  1A2B 0009                move.b     D5, [A3 + 0x9]
00001F54  7000                     moveq.l    D0, 0x00
00001F56  1013                     move.b     D0, [A3]
00001F58  3D40 FFFE                move.w     [A6 - 0x2], D0
00001F5C  2007                     move.l     D0, D7
00001F5E  C1FC 0046                muls.w     D0, 0x46 /* 'F' */
00001F62  7200                     moveq.l    D1, 0x00
00001F64  3234 0000                move.w     D1, [A4 + D0.w]
00001F68  C3FC 0012                muls.w     D1, 0x12
00001F6C  204D                     movea.l    A0, A5
00001F6E  D1FC FFFE 998E           add.l      A0, 0xFFFE998E
00001F74  1D70 1008 FFFA           move.b     [A6 - 0x6], [A0 + D1.w + 0x8]
00001F7A  2007                     move.l     D0, D7
00001F7C  C1FC 0046                muls.w     D0, 0x46 /* 'F' */
00001F80  7200                     moveq.l    D1, 0x00
00001F82  3234 0000                move.w     D1, [A4 + D0.w]
00001F86  C3FC 0012                muls.w     D1, 0x12
00001F8A  204D                     movea.l    A0, A5
00001F8C  D1FC FFFE 998E           add.l      A0, 0xFFFE998E
00001F92  1D70 1009 FFFB           move.b     [A6 - 0x5], [A0 + D1.w + 0x9]
00001F98  4205                     clr.b      D5
00001F9A  6000 0150                bra        +0x152 /* 000020EC */
label00001F9E:
00001F9E  4206                     clr.b      D6
00001FA0  6000 013E                bra        +0x140 /* 000020E0 */
label00001FA4:
00001FA4  49C6                     lea.l      A4, D6
00001FA6  49C5                     lea.l      A4, D5
00001FA8  2007                     move.l     D0, D7
00001FAA  C1FC 0046                muls.w     D0, 0x46 /* 'F' */
00001FAE  2205                     move.l     D1, D5
00001FB0  D281                     add.l      D1, D1
00001FB2  2401                     move.l     D2, D1
00001FB4  D482                     add.l      D2, D2
00001FB6  D282                     add.l      D1, D2
00001FB8  48C0                     ext.l      D0
00001FBA  D280                     add.l      D1, D0
00001FBC  2006                     move.l     D0, D6
00001FBE  D080                     add.l      D0, D0
00001FC0  D081                     add.l      D0, D1
00001FC2  72FE                     moveq.l    D1, 0xFFFFFFFE
00001FC4  B274 0822                cmp.w      D1, [A4 + D0 + 0x22]
00001FC8  6600 0112                bne        +0x114 /* 000020DC */
00001FCC  4886                     ext.w      D6
00001FCE  49C5                     lea.l      A4, D5
00001FD0  2007                     move.l     D0, D7
00001FD2  C1FC 0046                muls.w     D0, 0x46 /* 'F' */
00001FD6  2205                     move.l     D1, D5
00001FD8  2401                     move.l     D2, D1
00001FDA  D281                     add.l      D1, D1
00001FDC  D282                     add.l      D1, D2
00001FDE  48C0                     ext.l      D0
00001FE0  D280                     add.l      D1, D0
00001FE2  2006                     move.l     D0, D6
00001FE4  48C0                     ext.l      D0
00001FE6  D081                     add.l      D0, D1
00001FE8  1984 083A                move.b     [A4 + D0 + 0x3A], D4
00001FEC  49C6                     lea.l      A4, D6
00001FEE  49C5                     lea.l      A4, D5
00001FF0  2007                     move.l     D0, D7
00001FF2  C1FC 0046                muls.w     D0, 0x46 /* 'F' */
00001FF6  2205                     move.l     D1, D5
00001FF8  D281                     add.l      D1, D1
00001FFA  2401                     move.l     D2, D1
00001FFC  D482                     add.l      D2, D2
00001FFE  D282                     add.l      D1, D2
00002000  48C0                     ext.l      D0
00002002  D280                     add.l      D1, D0
00002004  2006                     move.l     D0, D6
00002006  D080                     add.l      D0, D0
00002008  D081                     add.l      D0, D1
0000200A  39AE FFFC 0822           move.w     [A4 + D0 + 0x22], [A6 - 0x4]
00002010  302E FFFE                move.w     D0, [A6 - 0x2]
00002014  D040                     add.w      D0, D0
00002016  204D                     movea.l    A0, A5
00002018  D1FC FFFF 7942           add.l      A0, 0xFFFF7942
0000201E  49C6                     lea.l      A4, D6
00002020  49C5                     lea.l      A4, D5
00002022  2207                     move.l     D1, D7
00002024  C3FC 0046                muls.w     D1, 0x46 /* 'F' */
00002028  2405                     move.l     D2, D5
0000202A  D482                     add.l      D2, D2
0000202C  2602                     move.l     D3, D2
0000202E  D683                     add.l      D3, D3
00002030  D483                     add.l      D2, D3
00002032  48C1                     ext.l      D1
00002034  D481                     add.l      D2, D1
00002036  2206                     move.l     D1, D6
00002038  D281                     add.l      D1, D1
0000203A  D282                     add.l      D1, D2
0000203C  39B0 0000 180A           move.w     [A4 + D1 + 0xA], [A0 + D0.w]
00002042  2007                     move.l     D0, D7
00002044  C1FC 0046                muls.w     D0, 0x46 /* 'F' */
00002048  1205                     move.b     D1, D5
0000204A  D234 0004                add.b      D1, [A4 + D0.w + 0x4]
0000204E  2004                     move.l     D0, D4
00002050  C1FC 000C                muls.w     D0, 0xC
00002054  204D                     movea.l    A0, A5
00002056  D1FC FFFD 9400           add.l      A0, 0xFFFD9400
0000205C  1181 0008                move.b     [A0 + D0.w + 0x8], D1
00002060  2007                     move.l     D0, D7
00002062  C1FC 0046                muls.w     D0, 0x46 /* 'F' */
00002066  1206                     move.b     D1, D6
00002068  D234 0005                add.b      D1, [A4 + D0.w + 0x5]
0000206C  2004                     move.l     D0, D4
0000206E  C1FC 000C                muls.w     D0, 0xC
00002072  204D                     movea.l    A0, A5
00002074  D1FC FFFD 9400           add.l      A0, 0xFFFD9400
0000207A  1181 0009                move.b     [A0 + D0.w + 0x9], D1
0000207E  2007                     move.l     D0, D7
00002080  C1FC 0046                muls.w     D0, 0x46 /* 'F' */
00002084  7200                     moveq.l    D1, 0x00
00002086  1234 0005                move.b     D1, [A4 + D0.w + 0x5]
0000208A  2F01                     move.l     -[A7], D1
0000208C  2007                     move.l     D0, D7
0000208E  C1FC 0046                muls.w     D0, 0x46 /* 'F' */
00002092  7200                     moveq.l    D1, 0x00
00002094  1234 0004                move.b     D1, [A4 + D0.w + 0x4]
00002098  2F01                     move.l     -[A7], D1
0000209A  4EBA E9FA                jsr        [PC - 0x1606 /* 00000A96 */]
0000209E  2007                     move.l     D0, D7
000020A0  C1FC 0046                muls.w     D0, 0x46 /* 'F' */
000020A4  7200                     moveq.l    D1, 0x00
000020A6  1234 0005                move.b     D1, [A4 + D0.w + 0x5]
000020AA  2F01                     move.l     -[A7], D1
000020AC  2007                     move.l     D0, D7
000020AE  C1FC 0046                muls.w     D0, 0x46 /* 'F' */
000020B2  7200                     moveq.l    D1, 0x00
000020B4  1234 0004                move.b     D1, [A4 + D0.w + 0x4]
000020B8  2F01                     move.l     -[A7], D1
000020BA  4EBA E9DA                jsr        [PC - 0x1626 /* 00000A96 */]
000020BE  224D                     movea.l    A1, A5
000020C0  D3FC FFFF 7868           add.l      A1, 0xFFFF7868
000020C6  2051                     movea.l    A0, [A1]
000020C8  2668 0128                movea.l    A3, [A0 + 0x128]
000020CC  2F2B 00D0                move.l     -[A7], [A3 + 0xD0]
000020D0  4EAD 0DBA                jsr        [A5 + 0xDBA /* export_435, CODE:20 @ 000044AC */]
000020D4  3007                     move.w     D0, D7
000020D6  4FEF 0014                lea.l      A7, [A7 + 0x14]
000020DA  601A                     bra        +0x1C /* 000020F6 */
label000020DC:
000020DC  1006                     move.b     D0, D6
000020DE  5206                     addq.b     D6, 1
label000020E0:
000020E0  BC2E FFFB                cmp.b      D6, [A6 - 0x5]
000020E4  6D00 FEBE                blt        -0x140 /* 00001FA4 */
000020E8  1005                     move.b     D0, D5
000020EA  5205                     addq.b     D5, 1
label000020EC:
000020EC  BA2E FFFA                cmp.b      D5, [A6 - 0x6]
000020F0  6D00 FEAC                blt        -0x152 /* 00001F9E */
000020F4  7000                     moveq.l    D0, 0x00
label000020F6:
000020F6  4CEE 18F8 FFDE           movem.l    D3,D4,D5,D6,D7,A3,A4, [A6 - 0x22]
000020FC  4E5E                     unlink     A6
000020FE  4E75                     rts
00002100  9773 746F 7265 746F 7... dc.b       "storetosilo__FsT1P4item"
export_297:
0000211A  4E56 FFF8                link       A6, -0x0008
0000211E  48E7 0F08                movem.l    -[A7], D4,D5,D6,D7,A4
00002122  204D                     movea.l    A0, A5
00002124  D1FC FFFE D880           add.l      A0, 0xFFFED880
0000212A  49D0                     lea.l      A4, [A0]
0000212C  2A3C 000F 4240           move.l     D5, 0xF4240
00002132  2C3C 000F 4240           move.l     D6, 0xF4240
00002138  422E FFFF                clr.b      [A6 - 0x1]
0000213C  7E01                     moveq.l    D7, 0x01
0000213E  4244                     clr.w      D4
00002140  6000 009C                bra        +0x9E /* 000021DE */
label00002144:
00002144  2007                     move.l     D0, D7
00002146  C1FC 0046                muls.w     D0, 0x46 /* 'F' */
0000214A  7200                     moveq.l    D1, 0x00
0000214C  3234 0002                move.w     D1, [A4 + D0.w + 0x2]
00002150  7020                     moveq.l    D0, 0x20
00002152  C041                     and.w      D0, D1
00002154  6700 0084                beq        +0x86 /* 000021DA */
00002158  2007                     move.l     D0, D7
0000215A  C1FC 0046                muls.w     D0, 0x46 /* 'F' */
0000215E  7200                     moveq.l    D1, 0x00
00002160  3234 0000                move.w     D1, [A4 + D0.w]
00002164  302E 000A                move.w     D0, [A6 + 0xA]
00002168  48C0                     ext.l      D0
0000216A  B081                     cmp.l      D0, D1
0000216C  6668                     bne        +0x6A /* 000021D6 */
0000216E  2007                     move.l     D0, D7
00002170  C1FC 0046                muls.w     D0, 0x46 /* 'F' */
00002174  1034 0005                move.b     D0, [A4 + D0.w + 0x5]
00002178  49C0                     lea.l      A4, D0
0000217A  2F00                     move.l     -[A7], D0
0000217C  2007                     move.l     D0, D7
0000217E  C1FC 0046                muls.w     D0, 0x46 /* 'F' */
00002182  1034 0004                move.b     D0, [A4 + D0.w + 0x4]
00002186  49C0                     lea.l      A4, D0
00002188  2F00                     move.l     -[A7], D0
0000218A  102E 0013                move.b     D0, [A6 + 0x13]
0000218E  49C0                     lea.l      A4, D0
00002190  2F00                     move.l     -[A7], D0
00002192  102E 000F                move.b     D0, [A6 + 0xF]
00002196  49C0                     lea.l      A4, D0
00002198  2F00                     move.l     -[A7], D0
0000219A  4EAD 056A                jsr        [A5 + 0x56A /* export_169, CODE:10 @ 00000510 */]
0000219E  48C0                     ext.l      D0
000021A0  2C00                     move.l     D6, D0
000021A2  BA86                     cmp.l      D5, D6
000021A4  4FEF 0010                lea.l      A7, [A7 + 0x10]
000021A8  6F2C                     ble        +0x2E /* 000021D6 */
000021AA  2A06                     move.l     D5, D6
000021AC  2007                     move.l     D0, D7
000021AE  C1FC 0046                muls.w     D0, 0x46 /* 'F' */
000021B2  7200                     moveq.l    D1, 0x00
000021B4  1234 0004                move.b     D1, [A4 + D0.w + 0x4]
000021B8  3D41 FFF8                move.w     [A6 - 0x8], D1
000021BC  2007                     move.l     D0, D7
000021BE  C1FC 0046                muls.w     D0, 0x46 /* 'F' */
000021C2  7200                     moveq.l    D1, 0x00
000021C4  1234 0005                move.b     D1, [A4 + D0.w + 0x5]
000021C8  3D41 FFFA                move.w     [A6 - 0x6], D1
000021CC  3D47 FFFC                move.w     [A6 - 0x4], D7
000021D0  1D7C 0001 FFFF           move.b     [A6 - 0x1], 0x1
label000021D6:
000021D6  3004                     move.w     D0, D4
000021D8  5244                     addq.w     D4, 1
label000021DA:
000021DA  3007                     move.w     D0, D7
000021DC  5247                     addq.w     D7, 1
label000021DE:
000021DE  204D                     movea.l    A0, A5
000021E0  D1FC FFFE 94DC           add.l      A0, 0xFFFE94DC
000021E6  B850                     cmp.w      D4, [A0]
000021E8  6D00 FF5A                blt        -0xA4 /* 00002144 */
000021EC  4A2E FFFF                tst.b      [A6 - 0x1]
000021F0  6706                     beq        +0x8 /* 000021F8 */
000021F2  302E FFFC                move.w     D0, [A6 - 0x4]
000021F6  6002                     bra        +0x4 /* 000021FA */
label000021F8:
000021F8  7000                     moveq.l    D0, 0x00
label000021FA:
000021FA  4CEE 10F0 FFE4           movem.l    D4,D5,D6,D7,A4, [A6 - 0x1C]
00002200  4E5E                     unlink     A6
00002202  4E75                     rts
00002204  9666 696E 6463 6C6F 7... dc.b       "findclosestbldg__FsN21"
export_298:
0000221E  4E56 FFF8                link       A6, -0x0008
00002222  48E7 0F18                movem.l    -[A7], D4,D5,D6,D7,A3,A4
00002226  3C2E 000A                move.w     D6, [A6 + 0xA]
0000222A  266E 0010                movea.l    A3, [A6 + 0x10]
0000222E  286E 000C                movea.l    A4, [A6 + 0xC]
00002232  2006                     move.l     D0, D6
00002234  C1FC 0046                muls.w     D0, 0x46 /* 'F' */
00002238  204D                     movea.l    A0, A5
0000223A  D1FC FFFE D880           add.l      A0, 0xFFFED880
00002240  7800                     moveq.l    D4, 0x00
00002242  1830 0004                move.b     D4, [A0 + D0.w + 0x4]
00002246  2006                     move.l     D0, D6
00002248  C1FC 0046                muls.w     D0, 0x46 /* 'F' */
0000224C  204D                     movea.l    A0, A5
0000224E  D1FC FFFE D880           add.l      A0, 0xFFFED880
00002254  7A00                     moveq.l    D5, 0x00
00002256  1A30 0005                move.b     D5, [A0 + D0.w + 0x5]
0000225A  2006                     move.l     D0, D6
0000225C  C1FC 0046                muls.w     D0, 0x46 /* 'F' */
00002260  204D                     movea.l    A0, A5
00002262  D1FC FFFE D880           add.l      A0, 0xFFFED880
00002268  3E30 0000                move.w     D7, [A0 + D0.w]
0000226C  48C7                     ext.l      D7
0000226E  2007                     move.l     D0, D7
00002270  C1FC 0012                muls.w     D0, 0x12
00002274  204D                     movea.l    A0, A5
00002276  D1FC FFFE 998E           add.l      A0, 0xFFFE998E
0000227C  1030 0008                move.b     D0, [A0 + D0.w + 0x8]
00002280  4880                     ext.w      D0
00002282  5240                     addq.w     D0, 1
00002284  3D40 FFFC                move.w     [A6 - 0x4], D0
00002288  48C7                     ext.l      D7
0000228A  2007                     move.l     D0, D7
0000228C  C1FC 0012                muls.w     D0, 0x12
00002290  204D                     movea.l    A0, A5
00002292  D1FC FFFE 998E           add.l      A0, 0xFFFE998E
00002298  1030 0009                move.b     D0, [A0 + D0.w + 0x9]
0000229C  4880                     ext.w      D0
0000229E  5240                     addq.w     D0, 1
000022A0  3D40 FFFE                move.w     [A6 - 0x2], D0
000022A4  3C04                     move.w     D6, D4
000022A6  5346                     subq.w     D6, 1
000022A8  6000 0268                bra        +0x26A /* 00002512 */
label000022AC:
000022AC  3E05                     move.w     D7, D5
000022AE  5347                     subq.w     D7, 1
000022B0  486E FFFA                pea.l      [A6 - 0x6]
000022B4  486E FFF8                pea.l      [A6 - 0x8]
000022B8  48C7                     ext.l      D7
000022BA  2F07                     move.l     -[A7], D7
000022BC  48C6                     ext.l      D6
000022BE  2F06                     move.l     -[A7], D6
000022C0  4EAD 0872                jsr        [A5 + 0x872 /* export_266, CODE:14 @ 00005A7C */]
000022C4  302E FFF8                move.w     D0, [A6 - 0x8]
000022C8  C1FC 00C0                muls.w     D0, 0xC0
000022CC  204D                     movea.l    A0, A5
000022CE  D1FC FFFE 42D4           add.l      A0, 0xFFFE42D4
000022D4  322E FFFA                move.w     D1, [A6 - 0x6]
000022D8  D241                     add.w      D1, D1
000022DA  D240                     add.w      D1, D0
000022DC  7000                     moveq.l    D0, 0x00
000022DE  3030 1000                move.w     D0, [A0 + D1.w]
000022E2  323C 07FF                move.w     D1, 0x7FF
000022E6  C240                     and.w      D1, D0
000022E8  7000                     moveq.l    D0, 0x00
000022EA  3001                     move.w     D0, D1
000022EC  4A80                     tst.l      D0
000022EE  204D                     movea.l    A0, A5
000022F0  D1FC FFFF 794C           add.l      A0, 0xFFFF794C
000022F6  3210                     move.w     D1, [A0]
000022F8  48C1                     ext.l      D1
000022FA  B280                     cmp.l      D1, D0
000022FC  4FEF 0010                lea.l      A7, [A7 + 0x10]
00002300  6E4A                     bgt        +0x4C /* 0000234C */
00002302  302E FFF8                move.w     D0, [A6 - 0x8]
00002306  C1FC 00C0                muls.w     D0, 0xC0
0000230A  204D                     movea.l    A0, A5
0000230C  D1FC FFFE 42D4           add.l      A0, 0xFFFE42D4
00002312  322E FFFA                move.w     D1, [A6 - 0x6]
00002316  D241                     add.w      D1, D1
00002318  D240                     add.w      D1, D0
0000231A  7000                     moveq.l    D0, 0x00
0000231C  3030 1000                move.w     D0, [A0 + D1.w]
00002320  323C 07FF                move.w     D1, 0x7FF
00002324  C240                     and.w      D1, D0
00002326  7000                     moveq.l    D0, 0x00
00002328  3001                     move.w     D0, D1
0000232A  4A80                     tst.l      D0
0000232C  204D                     movea.l    A0, A5
0000232E  D1FC FFFF 794C           add.l      A0, 0xFFFF794C
00002334  3210                     move.w     D1, [A0]
00002336  48C1                     ext.l      D1
00002338  7400                     moveq.l    D2, 0x00
0000233A  204D                     movea.l    A0, A5
0000233C  D1FC FFFF 78A7           add.l      A0, 0xFFFF78A7
00002342  1410                     move.b     D2, [A0]
00002344  D481                     add.l      D2, D1
00002346  B480                     cmp.l      D2, D0
00002348  6E00 0084                bgt        +0x86 /* 000023CE */
label0000234C:
0000234C  302E FFF8                move.w     D0, [A6 - 0x8]
00002350  C1FC 00C0                muls.w     D0, 0xC0
00002354  204D                     movea.l    A0, A5
00002356  D1FC FFFE 42D4           add.l      A0, 0xFFFE42D4
0000235C  322E FFFA                move.w     D1, [A6 - 0x6]
00002360  D241                     add.w      D1, D1
00002362  D240                     add.w      D1, D0
00002364  7000                     moveq.l    D0, 0x00
00002366  3030 1000                move.w     D0, [A0 + D1.w]
0000236A  323C 07FF                move.w     D1, 0x7FF
0000236E  C240                     and.w      D1, D0
00002370  7000                     moveq.l    D0, 0x00
00002372  3001                     move.w     D0, D1
00002374  4A80                     tst.l      D0
00002376  204D                     movea.l    A0, A5
00002378  D1FC FFFF 794A           add.l      A0, 0xFFFF794A
0000237E  3210                     move.w     D1, [A0]
00002380  48C1                     ext.l      D1
00002382  B280                     cmp.l      D1, D0
00002384  6E56                     bgt        +0x58 /* 000023DC */
00002386  302E FFF8                move.w     D0, [A6 - 0x8]
0000238A  C1FC 00C0                muls.w     D0, 0xC0
0000238E  204D                     movea.l    A0, A5
00002390  D1FC FFFE 42D4           add.l      A0, 0xFFFE42D4
00002396  322E FFFA                move.w     D1, [A6 - 0x6]
0000239A  D241                     add.w      D1, D1
0000239C  D240                     add.w      D1, D0
0000239E  7000                     moveq.l    D0, 0x00
000023A0  3030 1000                move.w     D0, [A0 + D1.w]
000023A4  323C 07FF                move.w     D1, 0x7FF
000023A8  C240                     and.w      D1, D0
000023AA  7000                     moveq.l    D0, 0x00
000023AC  3001                     move.w     D0, D1
000023AE  4A80                     tst.l      D0
000023B0  204D                     movea.l    A0, A5
000023B2  D1FC FFFF 794A           add.l      A0, 0xFFFF794A
000023B8  3210                     move.w     D1, [A0]
000023BA  48C1                     ext.l      D1
000023BC  7400                     moveq.l    D2, 0x00
000023BE  204D                     movea.l    A0, A5
000023C0  D1FC FFFF 78A6           add.l      A0, 0xFFFF78A6
000023C6  1410                     move.b     D2, [A0]
000023C8  D481                     add.l      D2, D1
000023CA  B480                     cmp.l      D2, D0
000023CC  6F0E                     ble        +0x10 /* 000023DC */
label000023CE:
000023CE  38AE FFF8                move.w     [A4], [A6 - 0x8]
000023D2  36AE FFFA                move.w     [A3], [A6 - 0x6]
000023D6  7001                     moveq.l    D0, 0x01
000023D8  6000 03D2                bra        +0x3D4 /* 000027AC */
label000023DC:
000023DC  3E2E FFFE                move.w     D7, [A6 - 0x2]
000023E0  DE45                     add.w      D7, D5
000023E2  486E FFFA                pea.l      [A6 - 0x6]
000023E6  486E FFF8                pea.l      [A6 - 0x8]
000023EA  48C7                     ext.l      D7
000023EC  2F07                     move.l     -[A7], D7
000023EE  48C6                     ext.l      D6
000023F0  2F06                     move.l     -[A7], D6
000023F2  4EAD 0872                jsr        [A5 + 0x872 /* export_266, CODE:14 @ 00005A7C */]
000023F6  302E FFF8                move.w     D0, [A6 - 0x8]
000023FA  C1FC 00C0                muls.w     D0, 0xC0
000023FE  204D                     movea.l    A0, A5
00002400  D1FC FFFE 42D4           add.l      A0, 0xFFFE42D4
00002406  322E FFFA                move.w     D1, [A6 - 0x6]
0000240A  D241                     add.w      D1, D1
0000240C  D240                     add.w      D1, D0
0000240E  7000                     moveq.l    D0, 0x00
00002410  3030 1000                move.w     D0, [A0 + D1.w]
00002414  323C 07FF                move.w     D1, 0x7FF
00002418  C240                     and.w      D1, D0
0000241A  7000                     moveq.l    D0, 0x00
0000241C  3001                     move.w     D0, D1
0000241E  4A80                     tst.l      D0
00002420  204D                     movea.l    A0, A5
00002422  D1FC FFFF 794C           add.l      A0, 0xFFFF794C
00002428  3210                     move.w     D1, [A0]
0000242A  48C1                     ext.l      D1
0000242C  B280                     cmp.l      D1, D0
0000242E  4FEF 0010                lea.l      A7, [A7 + 0x10]
00002432  6E4A                     bgt        +0x4C /* 0000247E */
00002434  302E FFF8                move.w     D0, [A6 - 0x8]
00002438  C1FC 00C0                muls.w     D0, 0xC0
0000243C  204D                     movea.l    A0, A5
0000243E  D1FC FFFE 42D4           add.l      A0, 0xFFFE42D4
00002444  322E FFFA                move.w     D1, [A6 - 0x6]
00002448  D241                     add.w      D1, D1
0000244A  D240                     add.w      D1, D0
0000244C  7000                     moveq.l    D0, 0x00
0000244E  3030 1000                move.w     D0, [A0 + D1.w]
00002452  323C 07FF                move.w     D1, 0x7FF
00002456  C240                     and.w      D1, D0
00002458  7000                     moveq.l    D0, 0x00
0000245A  3001                     move.w     D0, D1
0000245C  4A80                     tst.l      D0
0000245E  204D                     movea.l    A0, A5
00002460  D1FC FFFF 794C           add.l      A0, 0xFFFF794C
00002466  3210                     move.w     D1, [A0]
00002468  48C1                     ext.l      D1
0000246A  7400                     moveq.l    D2, 0x00
0000246C  204D                     movea.l    A0, A5
0000246E  D1FC FFFF 78A7           add.l      A0, 0xFFFF78A7
00002474  1410                     move.b     D2, [A0]
00002476  D481                     add.l      D2, D1
00002478  B480                     cmp.l      D2, D0
0000247A  6E00 0084                bgt        +0x86 /* 00002500 */
label0000247E:
0000247E  302E FFF8                move.w     D0, [A6 - 0x8]
00002482  C1FC 00C0                muls.w     D0, 0xC0
00002486  204D                     movea.l    A0, A5
00002488  D1FC FFFE 42D4           add.l      A0, 0xFFFE42D4
0000248E  322E FFFA                move.w     D1, [A6 - 0x6]
00002492  D241                     add.w      D1, D1
00002494  D240                     add.w      D1, D0
00002496  7000                     moveq.l    D0, 0x00
00002498  3030 1000                move.w     D0, [A0 + D1.w]
0000249C  323C 07FF                move.w     D1, 0x7FF
000024A0  C240                     and.w      D1, D0
000024A2  7000                     moveq.l    D0, 0x00
000024A4  3001                     move.w     D0, D1
000024A6  4A80                     tst.l      D0
000024A8  204D                     movea.l    A0, A5
000024AA  D1FC FFFF 794A           add.l      A0, 0xFFFF794A
000024B0  3210                     move.w     D1, [A0]
000024B2  48C1                     ext.l      D1
000024B4  B280                     cmp.l      D1, D0
000024B6  6E56                     bgt        +0x58 /* 0000250E */
000024B8  302E FFF8                move.w     D0, [A6 - 0x8]
000024BC  C1FC 00C0                muls.w     D0, 0xC0
000024C0  204D                     movea.l    A0, A5
000024C2  D1FC FFFE 42D4           add.l      A0, 0xFFFE42D4
000024C8  322E FFFA                move.w     D1, [A6 - 0x6]
000024CC  D241                     add.w      D1, D1
000024CE  D240                     add.w      D1, D0
000024D0  7000                     moveq.l    D0, 0x00
000024D2  3030 1000                move.w     D0, [A0 + D1.w]
000024D6  323C 07FF                move.w     D1, 0x7FF
000024DA  C240                     and.w      D1, D0
000024DC  7000                     moveq.l    D0, 0x00
000024DE  3001                     move.w     D0, D1
000024E0  4A80                     tst.l      D0
000024E2  204D                     movea.l    A0, A5
000024E4  D1FC FFFF 794A           add.l      A0, 0xFFFF794A
000024EA  3210                     move.w     D1, [A0]
000024EC  48C1                     ext.l      D1
000024EE  7400                     moveq.l    D2, 0x00
000024F0  204D                     movea.l    A0, A5
000024F2  D1FC FFFF 78A6           add.l      A0, 0xFFFF78A6
000024F8  1410                     move.b     D2, [A0]
000024FA  D481                     add.l      D2, D1
000024FC  B480                     cmp.l      D2, D0
000024FE  6F0E                     ble        +0x10 /* 0000250E */
label00002500:
00002500  38AE FFF8                move.w     [A4], [A6 - 0x8]
00002504  36AE FFFA                move.w     [A3], [A6 - 0x6]
00002508  7001                     moveq.l    D0, 0x01
0000250A  6000 02A0                bra        +0x2A2 /* 000027AC */
label0000250E:
0000250E  3006                     move.w     D0, D6
00002510  5246                     addq.w     D6, 1
label00002512:
00002512  48C6                     ext.l      D6
00002514  48C4                     ext.l      D4
00002516  302E FFFC                move.w     D0, [A6 - 0x4]
0000251A  48C0                     ext.l      D0
0000251C  D084                     add.l      D0, D4
0000251E  B086                     cmp.l      D0, D6
00002520  6E00 FD8A                bgt        -0x274 /* 000022AC */
00002524  3E05                     move.w     D7, D5
00002526  5347                     subq.w     D7, 1
00002528  6000 0266                bra        +0x268 /* 00002790 */
label0000252C:
0000252C  3C04                     move.w     D6, D4
0000252E  5346                     subq.w     D6, 1
00002530  486E FFFA                pea.l      [A6 - 0x6]
00002534  486E FFF8                pea.l      [A6 - 0x8]
00002538  48C7                     ext.l      D7
0000253A  2F07                     move.l     -[A7], D7
0000253C  48C6                     ext.l      D6
0000253E  2F06                     move.l     -[A7], D6
00002540  4EAD 0872                jsr        [A5 + 0x872 /* export_266, CODE:14 @ 00005A7C */]
00002544  302E FFF8                move.w     D0, [A6 - 0x8]
00002548  C1FC 00C0                muls.w     D0, 0xC0
0000254C  204D                     movea.l    A0, A5
0000254E  D1FC FFFE 42D4           add.l      A0, 0xFFFE42D4
00002554  322E FFFA                move.w     D1, [A6 - 0x6]
00002558  D241                     add.w      D1, D1
0000255A  D240                     add.w      D1, D0
0000255C  7000                     moveq.l    D0, 0x00
0000255E  3030 1000                move.w     D0, [A0 + D1.w]
00002562  323C 07FF                move.w     D1, 0x7FF
00002566  C240                     and.w      D1, D0
00002568  7000                     moveq.l    D0, 0x00
0000256A  3001                     move.w     D0, D1
0000256C  4A80                     tst.l      D0
0000256E  204D                     movea.l    A0, A5
00002570  D1FC FFFF 794C           add.l      A0, 0xFFFF794C
00002576  3210                     move.w     D1, [A0]
00002578  48C1                     ext.l      D1
0000257A  B280                     cmp.l      D1, D0
0000257C  4FEF 0010                lea.l      A7, [A7 + 0x10]
00002580  6E4A                     bgt        +0x4C /* 000025CC */
00002582  302E FFF8                move.w     D0, [A6 - 0x8]
00002586  C1FC 00C0                muls.w     D0, 0xC0
0000258A  204D                     movea.l    A0, A5
0000258C  D1FC FFFE 42D4           add.l      A0, 0xFFFE42D4
00002592  322E FFFA                move.w     D1, [A6 - 0x6]
00002596  D241                     add.w      D1, D1
00002598  D240                     add.w      D1, D0
0000259A  7000                     moveq.l    D0, 0x00
0000259C  3030 1000                move.w     D0, [A0 + D1.w]
000025A0  323C 07FF                move.w     D1, 0x7FF
000025A4  C240                     and.w      D1, D0
000025A6  7000                     moveq.l    D0, 0x00
000025A8  3001                     move.w     D0, D1
000025AA  4A80                     tst.l      D0
000025AC  204D                     movea.l    A0, A5
000025AE  D1FC FFFF 794C           add.l      A0, 0xFFFF794C
000025B4  3210                     move.w     D1, [A0]
000025B6  48C1                     ext.l      D1
000025B8  7400                     moveq.l    D2, 0x00
000025BA  204D                     movea.l    A0, A5
000025BC  D1FC FFFF 78A7           add.l      A0, 0xFFFF78A7
000025C2  1410                     move.b     D2, [A0]
000025C4  D481                     add.l      D2, D1
000025C6  B480                     cmp.l      D2, D0
000025C8  6E00 0084                bgt        +0x86 /* 0000264E */
label000025CC:
000025CC  302E FFF8                move.w     D0, [A6 - 0x8]
000025D0  C1FC 00C0                muls.w     D0, 0xC0
000025D4  204D                     movea.l    A0, A5
000025D6  D1FC FFFE 42D4           add.l      A0, 0xFFFE42D4
000025DC  322E FFFA                move.w     D1, [A6 - 0x6]
000025E0  D241                     add.w      D1, D1
000025E2  D240                     add.w      D1, D0
000025E4  7000                     moveq.l    D0, 0x00
000025E6  3030 1000                move.w     D0, [A0 + D1.w]
000025EA  323C 07FF                move.w     D1, 0x7FF
000025EE  C240                     and.w      D1, D0
000025F0  7000                     moveq.l    D0, 0x00
000025F2  3001                     move.w     D0, D1
000025F4  4A80                     tst.l      D0
000025F6  204D                     movea.l    A0, A5
000025F8  D1FC FFFF 794A           add.l      A0, 0xFFFF794A
000025FE  3210                     move.w     D1, [A0]
00002600  48C1                     ext.l      D1
00002602  B280                     cmp.l      D1, D0
00002604  6E56                     bgt        +0x58 /* 0000265C */
00002606  302E FFF8                move.w     D0, [A6 - 0x8]
0000260A  C1FC 00C0                muls.w     D0, 0xC0
0000260E  204D                     movea.l    A0, A5
00002610  D1FC FFFE 42D4           add.l      A0, 0xFFFE42D4
00002616  322E FFFA                move.w     D1, [A6 - 0x6]
0000261A  D241                     add.w      D1, D1
0000261C  D240                     add.w      D1, D0
0000261E  7000                     moveq.l    D0, 0x00
00002620  3030 1000                move.w     D0, [A0 + D1.w]
00002624  323C 07FF                move.w     D1, 0x7FF
00002628  C240                     and.w      D1, D0
0000262A  7000                     moveq.l    D0, 0x00
0000262C  3001                     move.w     D0, D1
0000262E  4A80                     tst.l      D0
00002630  204D                     movea.l    A0, A5
00002632  D1FC FFFF 794A           add.l      A0, 0xFFFF794A
00002638  3210                     move.w     D1, [A0]
0000263A  48C1                     ext.l      D1
0000263C  7400                     moveq.l    D2, 0x00
0000263E  204D                     movea.l    A0, A5
00002640  D1FC FFFF 78A6           add.l      A0, 0xFFFF78A6
00002646  1410                     move.b     D2, [A0]
00002648  D481                     add.l      D2, D1
0000264A  B480                     cmp.l      D2, D0
0000264C  6F0E                     ble        +0x10 /* 0000265C */
label0000264E:
0000264E  38AE FFF8                move.w     [A4], [A6 - 0x8]
00002652  36AE FFFA                move.w     [A3], [A6 - 0x6]
00002656  7001                     moveq.l    D0, 0x01
00002658  6000 0152                bra        +0x154 /* 000027AC */
label0000265C:
0000265C  3C2E FFFC                move.w     D6, [A6 - 0x4]
00002660  DC44                     add.w      D6, D4
00002662  486E FFFA                pea.l      [A6 - 0x6]
00002666  486E FFF8                pea.l      [A6 - 0x8]
0000266A  48C7                     ext.l      D7
0000266C  2F07                     move.l     -[A7], D7
0000266E  48C6                     ext.l      D6
00002670  2F06                     move.l     -[A7], D6
00002672  4EAD 0872                jsr        [A5 + 0x872 /* export_266, CODE:14 @ 00005A7C */]
00002676  302E FFF8                move.w     D0, [A6 - 0x8]
0000267A  C1FC 00C0                muls.w     D0, 0xC0
0000267E  204D                     movea.l    A0, A5
00002680  D1FC FFFE 42D4           add.l      A0, 0xFFFE42D4
00002686  322E FFFA                move.w     D1, [A6 - 0x6]
0000268A  D241                     add.w      D1, D1
0000268C  D240                     add.w      D1, D0
0000268E  7000                     moveq.l    D0, 0x00
00002690  3030 1000                move.w     D0, [A0 + D1.w]
00002694  323C 07FF                move.w     D1, 0x7FF
00002698  C240                     and.w      D1, D0
0000269A  7000                     moveq.l    D0, 0x00
0000269C  3001                     move.w     D0, D1
0000269E  4A80                     tst.l      D0
000026A0  204D                     movea.l    A0, A5
000026A2  D1FC FFFF 794C           add.l      A0, 0xFFFF794C
000026A8  3210                     move.w     D1, [A0]
000026AA  48C1                     ext.l      D1
000026AC  B280                     cmp.l      D1, D0
000026AE  4FEF 0010                lea.l      A7, [A7 + 0x10]
000026B2  6E4A                     bgt        +0x4C /* 000026FE */
000026B4  302E FFF8                move.w     D0, [A6 - 0x8]
000026B8  C1FC 00C0                muls.w     D0, 0xC0
000026BC  204D                     movea.l    A0, A5
000026BE  D1FC FFFE 42D4           add.l      A0, 0xFFFE42D4
000026C4  322E FFFA                move.w     D1, [A6 - 0x6]
000026C8  D241                     add.w      D1, D1
000026CA  D240                     add.w      D1, D0
000026CC  7000                     moveq.l    D0, 0x00
000026CE  3030 1000                move.w     D0, [A0 + D1.w]
000026D2  323C 07FF                move.w     D1, 0x7FF
000026D6  C240                     and.w      D1, D0
000026D8  7000                     moveq.l    D0, 0x00
000026DA  3001                     move.w     D0, D1
000026DC  4A80                     tst.l      D0
000026DE  204D                     movea.l    A0, A5
000026E0  D1FC FFFF 794C           add.l      A0, 0xFFFF794C
000026E6  3210                     move.w     D1, [A0]
000026E8  48C1                     ext.l      D1
000026EA  7400                     moveq.l    D2, 0x00
000026EC  204D                     movea.l    A0, A5
000026EE  D1FC FFFF 78A7           add.l      A0, 0xFFFF78A7
000026F4  1410                     move.b     D2, [A0]
000026F6  D481                     add.l      D2, D1
000026F8  B480                     cmp.l      D2, D0
000026FA  6E00 0084                bgt        +0x86 /* 00002780 */
label000026FE:
000026FE  302E FFF8                move.w     D0, [A6 - 0x8]
00002702  C1FC 00C0                muls.w     D0, 0xC0
00002706  204D                     movea.l    A0, A5
00002708  D1FC FFFE 42D4           add.l      A0, 0xFFFE42D4
0000270E  322E FFFA                move.w     D1, [A6 - 0x6]
00002712  D241                     add.w      D1, D1
00002714  D240                     add.w      D1, D0
00002716  7000                     moveq.l    D0, 0x00
00002718  3030 1000                move.w     D0, [A0 + D1.w]
0000271C  323C 07FF                move.w     D1, 0x7FF
00002720  C240                     and.w      D1, D0
00002722  7000                     moveq.l    D0, 0x00
00002724  3001                     move.w     D0, D1
00002726  4A80                     tst.l      D0
00002728  204D                     movea.l    A0, A5
0000272A  D1FC FFFF 794A           add.l      A0, 0xFFFF794A
00002730  3210                     move.w     D1, [A0]
00002732  48C1                     ext.l      D1
00002734  B280                     cmp.l      D1, D0
00002736  6E54                     bgt        +0x56 /* 0000278C */
00002738  302E FFF8                move.w     D0, [A6 - 0x8]
0000273C  C1FC 00C0                muls.w     D0, 0xC0
00002740  204D                     movea.l    A0, A5
00002742  D1FC FFFE 42D4           add.l      A0, 0xFFFE42D4
00002748  322E FFFA                move.w     D1, [A6 - 0x6]
0000274C  D241                     add.w      D1, D1
0000274E  D240                     add.w      D1, D0
00002750  7000                     moveq.l    D0, 0x00
00002752  3030 1000                move.w     D0, [A0 + D1.w]
00002756  323C 07FF                move.w     D1, 0x7FF
0000275A  C240                     and.w      D1, D0
0000275C  7000                     moveq.l    D0, 0x00
0000275E  3001                     move.w     D0, D1
00002760  4A80                     tst.l      D0
00002762  204D                     movea.l    A0, A5
00002764  D1FC FFFF 794A           add.l      A0, 0xFFFF794A
0000276A  3210                     move.w     D1, [A0]
0000276C  48C1                     ext.l      D1
0000276E  7400                     moveq.l    D2, 0x00
00002770  204D                     movea.l    A0, A5
00002772  D1FC FFFF 78A6           add.l      A0, 0xFFFF78A6
00002778  1410                     move.b     D2, [A0]
0000277A  D481                     add.l      D2, D1
0000277C  B480                     cmp.l      D2, D0
0000277E  6F0C                     ble        +0xE /* 0000278C */
label00002780:
00002780  38AE FFF8                move.w     [A4], [A6 - 0x8]
00002784  36AE FFFA                move.w     [A3], [A6 - 0x6]
00002788  7001                     moveq.l    D0, 0x01
0000278A  6020                     bra        +0x22 /* 000027AC */
label0000278C:
0000278C  3007                     move.w     D0, D7
0000278E  5247                     addq.w     D7, 1
label00002790:
00002790  48C7                     ext.l      D7
00002792  48C5                     ext.l      D5
00002794  302E FFFE                move.w     D0, [A6 - 0x2]
00002798  48C0                     ext.l      D0
0000279A  D085                     add.l      D0, D5
0000279C  B087                     cmp.l      D0, D7
0000279E  6E00 FD8C                bgt        -0x272 /* 0000252C */
000027A2  3004                     move.w     D0, D4
000027A4  5340                     subq.w     D0, 1
000027A6  3880                     move.w     [A4], D0
000027A8  3685                     move.w     [A3], D5
000027AA  7001                     moveq.l    D0, 0x01
label000027AC:
000027AC  4CEE 18F0 FFE0           movem.l    D4,D5,D6,D7,A3,A4, [A6 - 0x20]
000027B2  4E5E                     unlink     A6
000027B4  4E75                     rts
000027B6  9D66 696E 6472 6F61 6... dc.b       "findroadroundbuilding__FsPsT2"
